 kaiguangai1108_xpc

 Timestamp is 618a23e9 (Tue Nov 09 15:31:53 2021)

 Preferred load address is 10000000

 Start         Length     Name                   Class
 0001:00000000 00047a29H .text                   CODE
 0002:00000000 00000104H .CRT$XCA                DATA
 0002:00000104 00000104H .CRT$XCZ                DATA
 0002:00000208 00000104H .CRT$XIA                DATA
 0002:0000030c 00000113H .CRT$XIC                DATA
 0002:00000420 00000104H .CRT$XIZ                DATA
 0002:00000524 00000104H .CRT$XPA                DATA
 0002:00000628 00000109H .CRT$XPX                DATA
 0002:00000734 00000104H .CRT$XPXA               DATA
 0002:00000838 00000104H .CRT$XPZ                DATA
 0002:0000093c 00000104H .CRT$XTA                DATA
 0002:00000a40 00000104H .CRT$XTZ                DATA
 0002:00000b50 00017e1eH .rdata                  DATA
 0002:00018970 00000199H .rdata$debug            DATA
 0002:00018b10 0000010eH .rdata$sxdata           DATA
 0002:00018c20 00000104H .rtc$IAA                DATA
 0002:00018d24 00000104H .rtc$IZZ                DATA
 0002:00018e28 00000104H .rtc$TAA                DATA
 0002:00018f2c 00000104H .rtc$TZZ                DATA
 0002:00019030 00000991H .xdata$x                DATA
 0002:000199d0 000001e7H .edata                  DATA
 0003:00000000 00002934H .data                   DATA
 0003:00002940 000194c0H .bss                    DATA
 0004:00000000 00000014H .idata$2                DATA
 0004:00000014 00000014H .idata$3                DATA
 0004:00000028 000001bcH .idata$4                DATA
 0004:000001e4 000001bcH .idata$5                DATA
 0004:000003a0 000007c3H .idata$6                DATA

  Address         Publics by Value              Rva+Base       Lib:Object

 0000:00000000       __except_list              00000000     <absolute>
 0000:00000003       ___safe_se_handler_count   00000003     <absolute>
 0000:00000000       ___ImageBase               10000000     <linker-defined>
 0001:00000320       _MdlInitialize             10001320 f   kaiguangai1108.obj
 0001:00000330       _MdlInitializeSampleTimes  10001330 f   kaiguangai1108.obj
 0001:00000340       _MdlInitializeSizes        10001340 f   kaiguangai1108.obj
 0001:00000350       _MdlOutputs                10001350 f   kaiguangai1108.obj
 0001:00000360       _MdlStart                  10001360 f   kaiguangai1108.obj
 0001:00000370       _MdlTerminate              10001370 f   kaiguangai1108.obj
 0001:000003c0       _MdlUpdate                 100013c0 f   kaiguangai1108.obj
 0001:00000570       _kaiguangai1108            10001570 f   kaiguangai1108.obj
 0001:00003ec0       _kaiguangai1108_Chart      10004ec0 f   kaiguangai1108.obj
 0001:00004150       _kaiguangai1108_Chart_Init 10005150 f   kaiguangai1108.obj
 0001:00005e60       _kaiguangai1108_jinjichuli 10006e60 f   kaiguangai1108.obj
 0001:00006140       _kaiguangai1108_jinjichuli_Init 10007140 f   kaiguangai1108.obj
 0001:0000eb80       _kaiguangai1108_u1         1000fb80 f   kaiguangai1108.obj
 0001:0000ece0       _kaiguangai1108_u1_Init    1000fce0 f   kaiguangai1108.obj
 0001:00011460       _kaiguangai1108_GetCAPIStaticMap 10012460 f   kaiguangai1108_capi.obj
 0001:00011470       _kaiguangai1108_InitializeDataMapInfo 10012470 f   kaiguangai1108_capi.obj
 0001:00011500       _rtGetInf                  10012500 f   rtGetInf.obj
 0001:00011530       _rtGetInfF                 10012530 f   rtGetInf.obj
 0001:00011550       _rtGetMinusInf             10012550 f   rtGetInf.obj
 0001:00011580       _rtGetMinusInfF            10012580 f   rtGetInf.obj
 0001:000115a0       _rtGetNaN                  100125a0 f   rtGetNaN.obj
 0001:000115d0       _rtGetNaNF                 100125d0 f   rtGetNaN.obj
 0001:00011eb0       _rt_CreateLogVar           10012eb0 f   rt_logging.obj
 0001:00011f40       _rt_CreateLogVarWithConvert 10012f40 f   rt_logging.obj
 0001:00012910       _rt_CreateStructLogVar     10013910 f   rt_logging.obj
 0001:00013720       _rt_GetMxIdFromDTypeId     10014720 f   rt_logging.obj
 0001:00013750       _rt_GetMxIdFromDTypeIdForRSim 10014750 f   rt_logging.obj
 0001:00016040       _rt_StartDataLogging       10017040 f   rt_logging.obj
 0001:00016500       _rt_StartDataLoggingWithStartTime 10017500 f   rt_logging.obj
 0001:00016e80       _rt_StopDataLogging        10017e80 f   rt_logging.obj
 0001:00016ea0       _rt_StopDataLoggingImpl    10017ea0 f   rt_logging.obj
 0001:000171c0       _rt_UpdateLogVar           100181c0 f   rt_logging.obj
 0001:000185c0       _rt_UpdateStructLogVar     100195c0 f   rt_logging.obj
 0001:00018650       _rt_UpdateTXXFYLogVars     10019650 f   rt_logging.obj
 0001:00018990       _rt_UpdateTXYLogVars       10019990 f   rt_logging.obj
 0001:00018bf0       _rt_CleanUpForStateLogWithMMI 10019bf0 f   rt_logging_mmi.obj
 0001:00018d00       _rt_FillStateSigInfoFromMMI 10019d00 f   rt_logging_mmi.obj
 0001:000190b0       _rt_mxCreateCharMatrixFromStrings 1001a0b0 f   rt_matrx.obj
 0001:00019200       _rt_mxCreateDoubleMatrix   1001a200 f   rt_matrx.obj
 0001:00019260       _rt_mxCreateNumericArray   1001a260 f   rt_matrx.obj
 0001:000192e0       _rt_mxCreateString         1001a2e0 f   rt_matrx.obj
 0001:00019370       _rt_mxDuplicateArray       1001a370 f   rt_matrx.obj
 0001:00019400       _rt_mxGetDimensions        1001a400 f   rt_matrx.obj
 0001:00019470       _rt_mxGetEps               1001a470 f   rt_matrx.obj
 0001:00019480       _rt_mxGetString            1001a480 f   rt_matrx.obj
 0001:00019540       _rtIsInf                   1001a540 f   rt_nonfinite.obj
 0001:00019580       _rtIsInfF                  1001a580 f   rt_nonfinite.obj
 0001:000195c0       _rtIsNaN                   1001a5c0 f   rt_nonfinite.obj
 0001:000195e0       _rtIsNaNF                  1001a5e0 f   rt_nonfinite.obj
 0001:00019600       _rt_InitInfAndNaN          1001a600 f   rt_nonfinite.obj
 0001:00019660       _rtPrintfNoOp              1001a660 f   rt_printf.obj
 0001:00019670       _rtwCAPI_CountSysRan       1001a670 f   rtw_modelmap_utils.obj
 0001:00019710       _rtwCAPI_EncodePath        1001a710 f   rtw_modelmap_utils.obj
 0001:00019800       _rtwCAPI_FillSysRan        1001a800 f   rtw_modelmap_utils.obj
 0001:000198f0       _rtwCAPI_FreeFullPaths     1001a8f0 f   rtw_modelmap_utils.obj
 0001:00019980       _rtwCAPI_GetFullStateBlockPath 1001a980 f   rtw_modelmap_utils.obj
 0001:00019b30       _rtwCAPI_GetNumContStateRecords 1001ab30 f   rtw_modelmap_utils.obj
 0001:00019bf0       _rtwCAPI_GetNumSigLogRecords 1001abf0 f   rtw_modelmap_utils.obj
 0001:00019c40       _rtwCAPI_GetNumSigLogRecordsForRTWLogging 1001ac40 f   rtw_modelmap_utils.obj
 0001:00019cd0       _rtwCAPI_GetNumStateRecords 1001acd0 f   rtw_modelmap_utils.obj
 0001:00019d20       _rtwCAPI_GetNumStateRecordsForRTWLogging 1001ad20 f   rtw_modelmap_utils.obj
 0001:00019db0       _rtwCAPI_GetSigAddrFromMap 1001adb0 f   rtw_modelmap_utils.obj
 0001:00019e70       _rtwCAPI_GetSigLogRecordInfo 1001ae70 f   rtw_modelmap_utils.obj
 0001:0001a2a0       _rtwCAPI_GetStateRecordInfo 1001b2a0 f   rtw_modelmap_utils.obj
 0001:0001a750       _rtwCAPI_GetStateWidth     1001b750 f   rtw_modelmap_utils.obj
 0001:0001a7b0       _rtwCAPI_HasStates         1001b7b0 f   rtw_modelmap_utils.obj
 0001:0001a820       _rtwCAPI_UpdateFullPaths   1001b820 f   rtw_modelmap_utils.obj
 0001:0001aa00       _DllMain@12                1001ba00 f   xpctarget.obj
 0001:0001aa10       _SLRTSetErrorStatus        1001ba10 f   xpctarget.obj
 0001:0001aa30       _changeStepSize            1001ba30 f   xpctarget.obj
 0001:0001aa80       _getDLMVersion             1001ba80 f   xpctarget.obj
 0001:0001aa90       _getRefMdlPath             1001ba90 f   xpctarget.obj
 0001:0001ab10       _getRefMdlSignalNumber     1001bb10 f   xpctarget.obj
 0001:0001abc0       _getrlmdlinfo              1001bbc0 f   xpctarget.obj
 0001:0001ada0       _kaiguangai1108_ChangeStepSize 1001bda0 f   xpctarget.obj
 0001:0001adf0       _updateDiscreteEvents      1001bdf0 f   xpctarget.obj
 0001:0001ae00       _getNumRef                 1001be00 f   appmappingData.obj
 0001:0001bb90       _pci1756IO                 1001cb90 f   pci1756IO.obj
 0001:0001bbf0       _GetPCIDeviceFull          1001cbf0 f   xpcruntime:xpcimports.obj
 0001:0001bc20       _ShowPCIDevice             1001cc20 f   xpcruntime:xpcimports.obj
 0001:0001c290       _xpcGetPciConfigAtSlot     1001d290 f   xpcruntime:xpcimports.obj
 0001:0001c520       _xpcInitProcs              1001d520 f   xpcruntime:xpcimports.obj
 0001:0001d2c0       _xpceuploadevent           1001e2c0 f   xpcruntime:xpcimports.obj
 0001:0001d2c1       __heap_alloc               1001e2c1 f i LIBCMT:malloc.obj
 0001:0001d2fe       _malloc                    1001e2fe f   LIBCMT:malloc.obj
 0001:0001d390       __get_printf_count_output  1001e390 f   LIBCMT:printf.obj
 0001:0001d3a5       __printf_l                 1001e3a5 f   LIBCMT:printf.obj
 0001:0001d3bc       __printf_p                 1001e3bc f   LIBCMT:printf.obj
 0001:0001d3d2       __printf_p_l               1001e3d2 f   LIBCMT:printf.obj
 0001:0001d3e9       __printf_s_l               1001e3e9 f   LIBCMT:printf.obj
 0001:0001d400       __set_printf_count_output  1001e400 f   LIBCMT:printf.obj
 0001:0001d428       _printf                    1001e428 f   LIBCMT:printf.obj
 0001:0001d4d4       _printf_s                  1001e4d4 f   LIBCMT:printf.obj
 0001:0001d4f0       _memset                    1001e4f0 f   LIBCMT:memset.obj
 0001:0001d580       __fpmath                   1001e580 f   LIBCMT:fpinit.obj
 0001:0001d597       ___setfflag                1001e597 f   LIBCMT:fpinit.obj
 0001:0001d5aa       __cfltcvt_init             1001e5aa f   LIBCMT:fpinit.obj
 0001:0001d60a       ___raise_securityfailure   1001e60a f   LIBCMT:gs_report.obj
 0001:0001d647       ___report_gsfailure        1001e647 f   LIBCMT:gs_report.obj
 0001:0001d740       ___report_rangecheckfailure 1001e740 f   LIBCMT:gs_report.obj
 0001:0001d74c       ___report_securityfailure  1001e74c f   LIBCMT:gs_report.obj
 0001:0001d81a       ___report_securityfailureEx 1001e81a f   LIBCMT:gs_report.obj
 0001:0001d92e       ___copy_path_to_wide_string 1001e92e f   LIBCMT:crt0dat.obj
 0001:0001d9de       ___crtCorExitProcess       1001e9de f   LIBCMT:crt0dat.obj
 0001:0001da10       ___crtExitProcess          1001ea10 f   LIBCMT:crt0dat.obj
 0001:0001da26       ___freeCrtMemory           1001ea26 f   LIBCMT:crt0dat.obj
 0001:0001db2d       __amsg_exit                1001eb2d f   LIBCMT:crt0dat.obj
 0001:0001db49       __c_exit                   1001eb49 f   LIBCMT:crt0dat.obj
 0001:0001db58       __cexit                    1001eb58 f   LIBCMT:crt0dat.obj
 0001:0001db67       __cinit                    1001eb67 f   LIBCMT:crt0dat.obj
 0001:0001dbf8       __exit                     1001ebf8 f   LIBCMT:crt0dat.obj
 0001:0001dc0c       __get_pgmptr               1001ec0c f   LIBCMT:crt0dat.obj
 0001:0001dc3b       __get_wpgmptr              1001ec3b f   LIBCMT:crt0dat.obj
 0001:0001dc6a       __init_pointers            1001ec6a f   LIBCMT:crt0dat.obj
 0001:0001dcba       __initterm_e               1001ecba f   LIBCMT:crt0dat.obj
 0001:0001dcdc       __lockexit                 1001ecdc f   LIBCMT:crt0dat.obj
 0001:0001dce5       __unlockexit               1001ece5 f   LIBCMT:crt0dat.obj
 0001:0001de1d       _exit                      1001ee1d f   LIBCMT:crt0dat.obj
 0001:0001de31       _calloc                    1001ee31 f   LIBCMT:calloc.obj
 0001:0001de6f       _free                      1001ee6f f   LIBCMT:free.obj
 0001:0001dea7       _realloc                   1001eea7 f   LIBCMT:realloc.obj
 0001:0001df60       _memmove                   1001ef60 f   LIBCMT:memmove.obj
 0001:0001e5b0       _strchr                    1001f5b0 f   LIBCMT:strchr.obj
 0001:0001e61e       ___from_strstr_to_strchr   1001f61e     LIBCMT:strchr.obj
 0001:0001e6e0       _strncat                   1001f6e0 f   LIBCMT:strncat.obj
 0001:0001e820       _strncpy                   1001f820 f   LIBCMT:strncpy.obj
 0001:0001e944       ___initstdio               1001f944 f   LIBCMT:_file.obj
 0001:0001e9b7       ___endstdio                1001f9b7 f   LIBCMT:_file.obj
 0001:0001e9de       ___iob_func                1001f9de f   LIBCMT:_file.obj
 0001:0001e9e4       __lock_file                1001f9e4 f   LIBCMT:_file.obj
 0001:0001ea23       __lock_file2               1001fa23 f   LIBCMT:_file.obj
 0001:0001ea53       __unlock_file              1001fa53 f   LIBCMT:_file.obj
 0001:0001ea8d       __unlock_file2             1001fa8d f   LIBCMT:_file.obj
 0001:0001eaba       __fclose_nolock            1001faba f   LIBCMT:fclose.obj
 0001:0001eb26       _fclose                    1001fb26 f   LIBCMT:fclose.obj
 0001:0001eb9d       __fsopen                   1001fb9d f   LIBCMT:fopen.obj
 0001:0001ec61       _fopen                     1001fc61 f   LIBCMT:fopen.obj
 0001:0001ec76       _fopen_s                   1001fc76 f   LIBCMT:fopen.obj
 0001:0001ecbb       __fprintf_l                1001fcbb f   LIBCMT:fprintf.obj
 0001:0001ecd5       __fprintf_p                1001fcd5 f   LIBCMT:fprintf.obj
 0001:0001ecee       __fprintf_p_l              1001fcee f   LIBCMT:fprintf.obj
 0001:0001ed08       __fprintf_s_l              1001fd08 f   LIBCMT:fprintf.obj
 0001:0001ed22       _fprintf                   1001fd22 f   LIBCMT:fprintf.obj
 0001:0001ee3d       _fprintf_s                 1001fe3d f   LIBCMT:fprintf.obj
 0001:0001ee56       __fread_nolock             1001fe56 f   LIBCMT:fread.obj
 0001:0001ee71       __fread_nolock_s           1001fe71 f   LIBCMT:fread.obj
 0001:0001f034       _fread                     10020034 f   LIBCMT:fread.obj
 0001:0001f04f       _fread_s                   1002004f f   LIBCMT:fread.obj
 0001:0001f0e0       __fwrite_nolock            100200e0 f   LIBCMT:fwrite.obj
 0001:0001f237       _fwrite                    10020237 f   LIBCMT:fwrite.obj
 0001:0001f2b5       __unlink                   100202b5 f   LIBCMT:unlink.obj
 0001:0001f2be       _remove                    100202be f   LIBCMT:unlink.obj
 0001:0001f2fe       _rewind                    100202fe f   LIBCMT:rewind.obj
 0001:0001f3c6       __scprintf                 100203c6 f   LIBCMT:sprintf.obj
 0001:0001f3d9       __scprintf_l               100203d9 f   LIBCMT:sprintf.obj
 0001:0001f3f0       __scprintf_p               100203f0 f   LIBCMT:sprintf.obj
 0001:0001f403       __scprintf_p_l             10020403 f   LIBCMT:sprintf.obj
 0001:0001f41a       __snprintf_s               1002041a f   LIBCMT:sprintf.obj
 0001:0001f439       __snprintf_s_l             10020439 f   LIBCMT:sprintf.obj
 0001:0001f459       __sprintf_l                10020459 f   LIBCMT:sprintf.obj
 0001:0001f473       __sprintf_p                10020473 f   LIBCMT:sprintf.obj
 0001:0001f48f       __sprintf_p_l              1002048f f   LIBCMT:sprintf.obj
 0001:0001f4ac       __sprintf_s_l              100204ac f   LIBCMT:sprintf.obj
 0001:0001f4c9       _sprintf                   100204c9 f   LIBCMT:sprintf.obj
 0001:0001f54b       _sprintf_s                 1002054b f   LIBCMT:sprintf.obj
 0001:0001f567       _ldexp                     10020567 f   LIBCMT:ldexp.obj
 0001:0001f74f       @__security_check_cookie@4 1002074f f   LIBCMT:secchk.obj
 0001:0001f760       _memcpy                    10020760 f   LIBCMT:memcpy.obj
 0001:0001fda4       ___isa_available_init      10020da4 f   LIBCMT:cpu_disp.obj
 0001:0001fedd       __invoke_watson_if_error   10020edd f i LIBCMT:wassert.obj
 0001:0001fefd       __wassert                  10020efd f   LIBCMT:wassert.obj
 0001:0002059f       __CRT_INIT@12              1002159f f   LIBCMT:dllcrt0.obj
 0001:0002070b       __DllMainCRTStartup@12     1002170b f   LIBCMT:dllcrt0.obj
 0001:0002083c       ___DllXcptFilter           1002183c f   LIBCMT:dllcrt0.obj
 0001:00020861       ?_query_new_handler@@YAP6AHI@ZXZ 10021861 f   LIBCMT:handler.obj
 0001:0002086e       ?_set_new_handler@@YAP6AHI@ZH@Z 1002186e f   LIBCMT:handler.obj
 0001:00020877       ?_set_new_handler@@YAP6AHI@ZP6AHI@Z@Z 10021877 f   LIBCMT:handler.obj
 0001:000208ac       __callnewh                 100218ac f   LIBCMT:handler.obj
 0001:000208d2       __initp_heap_handler       100218d2 f   LIBCMT:handler.obj
 0001:000208df       __FF_MSGBANNER             100218df f   LIBCMT:crt0msg.obj
 0001:00020918       __GET_RTERRMSG             10021918 f   LIBCMT:crt0msg.obj
 0001:0002093c       __NMSG_WRITE               1002193c f   LIBCMT:crt0msg.obj
 0001:00020af7       ___doserrno                10021af7 f   LIBCMT:dosmap.obj
 0001:00020b0a       __dosmaperr                10021b0a f   LIBCMT:dosmap.obj
 0001:00020b2b       __errno                    10021b2b f   LIBCMT:dosmap.obj
 0001:00020b3e       __get_doserrno             10021b3e f   LIBCMT:dosmap.obj
 0001:00020b61       __get_errno                10021b61 f   LIBCMT:dosmap.obj
 0001:00020b84       __get_errno_from_oserr     10021b84 f   LIBCMT:dosmap.obj
 0001:00020bc5       __set_doserrno             10021bc5 f   LIBCMT:dosmap.obj
 0001:00020be4       __set_errno                10021be4 f   LIBCMT:dosmap.obj
 0001:00020c03       __get_heap_handle          10021c03 f   LIBCMT:heapinit.obj
 0001:00020c09       __heap_init                10021c09 f   LIBCMT:heapinit.obj
 0001:00020c1e       __heap_term                10021c1e f   LIBCMT:heapinit.obj
 0001:00020c26       ?_invalid_parameter@@YAXPBG00II@Z 10021c26 f   LIBCMT:invarg.obj
 0001:00020c2b       ?_invoke_watson@@YAXPBG00II@Z 10021c2b f   LIBCMT:invarg.obj
 0001:00020c43       __call_reportfault         10021c43 f   LIBCMT:invarg.obj
 0001:00020d66       __get_invalid_parameter_handler 10021d66 f   LIBCMT:invarg.obj
 0001:00020d73       __initp_misc_invarg        10021d73 f   LIBCMT:invarg.obj
 0001:00020d80       __invalid_parameter        10021d80 f   LIBCMT:invarg.obj
 0001:00020dab       __invalid_parameter_noinfo 10021dab f   LIBCMT:invarg.obj
 0001:00020dbb       __invalid_parameter_noinfo_noreturn 10021dbb f   LIBCMT:invarg.obj
 0001:00020dd6       __invoke_watson            10021dd6 f   LIBCMT:invarg.obj
 0001:00020e01       __set_invalid_parameter_handler 10021e01 f   LIBCMT:invarg.obj
 0001:00020e26       __vprintf_l                10021e26 f   LIBCMT:vprintf.obj
 0001:00020e41       __vprintf_p                10021e41 f   LIBCMT:vprintf.obj
 0001:00020e5b       __vprintf_p_l              10021e5b f   LIBCMT:vprintf.obj
 0001:00020e76       __vprintf_s_l              10021e76 f   LIBCMT:vprintf.obj
 0001:00020e91       _vprintf                   10021e91 f   LIBCMT:vprintf.obj
 0001:00020eab       _vprintf_helper            10021eab f   LIBCMT:vprintf.obj
 0001:00020f34       _vprintf_s                 10021f34 f   LIBCMT:vprintf.obj
 0001:00020f4e       __ftbuf                    10021f4e f   LIBCMT:_sftbuf.obj
 0001:00020f7f       __stbuf                    10021f7f f   LIBCMT:_sftbuf.obj
 0001:00021025       ??0_LocaleUpdate@@QAE@PAUlocaleinfo_struct@@@Z 10022025 f i LIBCMT:output.obj
 0001:000210ad       ??1_LocaleUpdate@@QAE@XZ   100220ad f i LIBCMT:output.obj
 0001:000210bb       ?GetLocaleT@_LocaleUpdate@@QAEPAUlocaleinfo_struct@@XZ 100220bb f i LIBCMT:output.obj
 0001:000210be       __output_l                 100220be f   LIBCMT:output.obj
 0001:00021c62       _get_int64_arg             10022c62 f i LIBCMT:output.obj
 0001:00021c75       _get_int_arg               10022c75 f i LIBCMT:output.obj
 0001:00021c85       _get_short_arg             10022c85 f i LIBCMT:output.obj
 0001:00021d80       __SEH_prolog4              10022d80 f   LIBCMT:sehprolg4.obj
 0001:00021dc5       __SEH_epilog4              10022dc5 f   LIBCMT:sehprolg4.obj
 0001:00021e20       __except_handler4          10022e20 f   LIBCMT:chandler4.obj
 0001:00021fb5       __VEC_memset               10022fb5 f   LIBCMT:p4_memset.obj
 0001:0002207d       ?strrchr@@YAPADPADH@Z      1002307d f i LIBCMT:cvt.obj
 0001:00022086       __cfltcvt                  10023086 f   LIBCMT:cvt.obj
 0001:000220a7       __cfltcvt_l                100230a7 f   LIBCMT:cvt.obj
 0001:0002212d       __cftoa                    1002312d f   LIBCMT:cvt.obj
 0001:0002214b       __cftoa_l                  1002314b f   LIBCMT:cvt.obj
 0001:000224a5       __cftoe                    100234a5 f   LIBCMT:cvt.obj
 0001:00022612       __cftoe_l                  10023612 f   LIBCMT:cvt.obj
 0001:000226de       __cftof                    100236de f   LIBCMT:cvt.obj
 0001:000227e3       __cftof_l                  100237e3 f   LIBCMT:cvt.obj
 0001:000228a2       __cftog                    100238a2 f   LIBCMT:cvt.obj
 0001:000228c0       __cftog_l                  100238c0 f   LIBCMT:cvt.obj
 0001:000229bd       __cropzeros                100239bd f   LIBCMT:cvt.obj
 0001:000229ce       __cropzeros_l              100239ce f   LIBCMT:cvt.obj
 0001:00022a4c       __fassign                  10023a4c f   LIBCMT:cvt.obj
 0001:00022a64       __fassign_l                10023a64 f   LIBCMT:cvt.obj
 0001:00022aa4       __forcdecpt                10023aa4 f   LIBCMT:cvt.obj
 0001:00022ab5       __forcdecpt_l              10023ab5 f   LIBCMT:cvt.obj
 0001:00022b27       __positive                 10023b27 f   LIBCMT:cvt.obj
 0001:00022b69       __setdefaultprecision      10023b69 f   LIBCMT:fp8.obj
 0001:00022b90       __initp_misc_cfltcvt_tab   10023b90 f   LIBCMT:cmiscdat.obj
 0001:00022baf       __crt_debugger_hook        10023baf f   LIBCMT:dbghook.obj
 0001:00022bf0       ___crtFlsAlloc             10023bf0 f   LIBCMT:winapisupp.obj
 0001:00022bfe       ___crtFlsFree              10023bfe f   LIBCMT:winapisupp.obj
 0001:00022c0c       ___crtFlsGetValue          10023c0c f   LIBCMT:winapisupp.obj
 0001:00022c1a       ___crtFlsSetValue          10023c1a f   LIBCMT:winapisupp.obj
 0001:00022c2b       ___crtGetShowWindowMode    10023c2b f   LIBCMT:winapisupp.obj
 0001:00022c4c       ___crtIsPackagedApp        10023c4c f   LIBCMT:winapisupp.obj
 0001:00022c98       ___crtSetUnhandledExceptionFilter 10023c98 f   LIBCMT:winapisupp.obj
 0001:00022ca6       ___crtTerminateProcess     10023ca6 f   LIBCMT:winapisupp.obj
 0001:00022cbb       ___crtUnhandledException   10023cbb f   LIBCMT:winapisupp.obj
 0001:00022cd1       __RTC_Initialize           10023cd1 f   LIBCMT:initsect.obj
 0001:00022cf1       __RTC_Terminate            10023cf1 f   LIBCMT:initsect.obj
 0001:00022d11       __lock                     10023d11 f   LIBCMT:mlock.obj
 0001:00022d45       __lockerr_exit             10023d45 f   LIBCMT:mlock.obj
 0001:00022d65       __mtdeletelocks            10023d65 f   LIBCMT:mlock.obj
 0001:00022db9       __mtinitlocknum            10023db9 f   LIBCMT:mlock.obj
 0001:00022e60       __mtinitlocks              10023e60 f   LIBCMT:mlock.obj
 0001:00022e95       __unlock                   10023e95 f   LIBCMT:mlock.obj
 0001:00022eb0       __FindPESection            10023eb0 f   LIBCMT:pesect.obj
 0001:00022f00       __IsNonwritableInCurrentImage 10023f00 f   LIBCMT:pesect.obj
 0001:00022fc0       __ValidateImageBase        10023fc0 f   LIBCMT:pesect.obj
 0001:00022ff1       ___onexitinit              10023ff1 f   LIBCMT:onexit.obj
 0001:00023020       __onexit                   10024020 f   LIBCMT:onexit.obj
 0001:00023116       _atexit                    10024116 f   LIBCMT:onexit.obj
 0001:0002312b       __calloc_crt               1002412b f   LIBCMT:crtheap.obj
 0001:00023175       __malloc_crt               10024175 f   LIBCMT:crtheap.obj
 0001:000231be       __realloc_crt              100241be f   LIBCMT:crtheap.obj
 0001:0002320a       __recalloc_crt             1002420a f   LIBCMT:crtheap.obj
 0001:0002325a       __set_malloc_crt_max_wait  1002425a f   LIBCMT:crtheap.obj
 0001:0002326d       _wait_a_bit                1002426d f i LIBCMT:crtheap.obj
 0001:00023291       ?_inconsistency@@YAXXZ     10024291 f   LIBCMT:hooks.obj
 0001:000232c9       ?terminate@@YAXXZ          100242c9 f   LIBCMT:hooks.obj
 0001:000232fd       ?unexpected@@YAXXZ         100242fd f   LIBCMT:hooks.obj
 0001:00023310       __initp_eh_hooks           10024310 f   LIBCMT:hooks.obj
 0001:00023321       ___getlocaleinfo           10024321 f   LIBCMT:inithelp.obj
 0001:000234f8       __initp_misc_purevirt      100244f8 f   LIBCMT:inithelp.obj
 0001:00023505       __initp_misc_rand_s        10024505 f   LIBCMT:rand_s.obj
 0001:00023512       _rand_s                    10024512 f   LIBCMT:rand_s.obj
 0001:00023620       ___fpecode                 10024620 f   LIBCMT:winsig.obj
 0001:00023629       ___get_sigabrt             10024629 f   LIBCMT:winsig.obj
 0001:00023636       ___pxcptinfoptrs           10024636 f   LIBCMT:winsig.obj
 0001:0002363f       __initp_misc_winsig        1002463f f   LIBCMT:winsig.obj
 0001:000236f4       _raise                     100246f4 f   LIBCMT:winsig.obj
 0001:000238e5       _signal                    100248e5 f   LIBCMT:winsig.obj
 0001:00023b37       ___initmbctable            10024b37 f   LIBCMT:mbctype.obj
 0001:00023df2       ___updatetmbcinfo          10024df2 f   LIBCMT:mbctype.obj
 0001:00023e97       __getmbcp                  10024e97 f   LIBCMT:mbctype.obj
 0001:00023ec6       __setmbcp                  10024ec6 f   LIBCMT:mbctype.obj
 0001:00024074       __setmbcp_nolock           10025074 f   LIBCMT:mbctype.obj
 0001:00024269       __calloc_impl              10025269 f   LIBCMT:calloc_impl.obj
 0001:000242e3       __fcloseall                100252e3 f   LIBCMT:closeall.obj
 0001:00024380       __fflush_nolock            10025380 f   LIBCMT:fflush.obj
 0001:000243c6       __flush                    100253c6 f   LIBCMT:fflush.obj
 0001:0002442a       __flushall                 1002542a f   LIBCMT:fflush.obj
 0001:00024433       _fflush                    10025433 f   LIBCMT:fflush.obj
 0001:0002456c       __fileno                   1002556c f   LIBCMT:fileno.obj
 0001:00024590       __close                    10025590 f   LIBCMT:close.obj
 0001:00024667       __close_nolock             10025667 f   LIBCMT:close.obj
 0001:0002470f       __freebuf                  1002570f f   LIBCMT:_freebuf.obj
 0001:0002473f       __getstream                1002573f f   LIBCMT:stream.obj
 0001:00024857       __openfile                 10025857 f   LIBCMT:_open.obj
 0001:00024ad0       __local_unwind4            10025ad0 f   LIBCMT:exsup4.obj
 0001:00024ba6       __seh_longjmp_unwind4@4    10025ba6 f   LIBCMT:exsup4.obj
 0001:00024bc2       @_EH4_CallFilterFunc@8     10025bc2 f   LIBCMT:exsup4.obj
 0001:00024bd9       @_EH4_TransferToHandler@8  10025bd9 f   LIBCMT:exsup4.obj
 0001:00024bf2       @_EH4_GlobalUnwind2@8      10025bf2 f   LIBCMT:exsup4.obj
 0001:00024c0b       @_EH4_LocalUnwind@16       10025c0b f   LIBCMT:exsup4.obj
 0001:00024c22       __vfprintf_l               10025c22 f   LIBCMT:vfprintf.obj
 0001:00024c40       __vfprintf_p               10025c40 f   LIBCMT:vfprintf.obj
 0001:00024c5d       __vfprintf_p_l             10025c5d f   LIBCMT:vfprintf.obj
 0001:00024c7b       __vfprintf_s_l             10025c7b f   LIBCMT:vfprintf.obj
 0001:00024c99       _vfprintf                  10025c99 f   LIBCMT:vfprintf.obj
 0001:00024cb6       _vfprintf_helper           10025cb6 f   LIBCMT:vfprintf.obj
 0001:00024dd0       _vfprintf_s                10025dd0 f   LIBCMT:vfprintf.obj
 0001:00024ded       __ioinit                   10025ded f   LIBCMT:ioinit.obj
 0001:00024e09       __ioinit0                  10025e09 f   LIBCMT:ioinit.obj
 0001:00024e28       __ioinitCallback@12        10025e28 f   LIBCMT:ioinit.obj
 0001:000250f5       __ioterm                   100260f5 f   LIBCMT:ioinit.obj
 0001:00025147       __filbuf                   10026147 f   LIBCMT:_filbuf.obj
 0001:00025275       _memcpy_s                  10026275 f   LIBCMT:memcpy_s.obj
 0001:000252f4       __read                     100262f4 f   LIBCMT:read.obj
 0001:00025409       __read_nolock              10026409 f   LIBCMT:read.obj
 0001:00025ba3       __flsbuf                   10026ba3 f   LIBCMT:_flsbuf.obj
 0001:00025cff       __write                    10026cff f   LIBCMT:write.obj
 0001:00025dee       __write_nolock             10026dee f   LIBCMT:write.obj
 0001:0002666a       __wremove                  1002766a f   LIBCMT:wunlink.obj
 0001:00026698       __wunlink                  10027698 f   LIBCMT:wunlink.obj
 0001:000266a1       __lseek                    100276a1 f   LIBCMT:lseek.obj
 0001:00026790       __lseek_nolock             10027790 f   LIBCMT:lseek.obj
 0001:00026802       __vscprintf                10027802 f   LIBCMT:vsprintf.obj
 0001:0002681c       __vscprintf_helper         1002781c f   LIBCMT:vsprintf.obj
 0001:00026876       __vscprintf_l              10027876 f   LIBCMT:vsprintf.obj
 0001:00026891       __vscprintf_p              10027891 f   LIBCMT:vsprintf.obj
 0001:000268ab       __vscprintf_p_l            100278ab f   LIBCMT:vsprintf.obj
 0001:000268c6       __vsprintf_l               100278c6 f   LIBCMT:vsprintf.obj
 0001:00026948       _vsprintf                  10027948 f   LIBCMT:vsprintf.obj
 0001:00026960       __vsnprintf_c              10027960 f   LIBCMT:vsnprnc.obj
 0001:00026987       __vsnprintf_c_l            10027987 f   LIBCMT:vsnprnc.obj
 0001:000269af       __vsnprintf_helper         100279af f   LIBCMT:vsnprnc.obj
 0001:00026a77       __vsnprintf_s              10027a77 f   LIBCMT:vsnprnc.obj
 0001:00026a95       __vsnprintf_s_l            10027a95 f   LIBCMT:vsnprnc.obj
 0001:00026b90       __vsprintf_p               10027b90 f   LIBCMT:vsnprnc.obj
 0001:00026bb7       __vsprintf_p_l             10027bb7 f   LIBCMT:vsnprnc.obj
 0001:00026bdf       __vsprintf_s_l             10027bdf f   LIBCMT:vsnprnc.obj
 0001:00026c54       _vsprintf_s                10027c54 f   LIBCMT:vsnprnc.obj
 0001:00026c6f       __chgsign                  10027c6f f   LIBCMT:ieeemisc.obj
 0001:00026c9a       __copysign                 10027c9a f   LIBCMT:ieeemisc.obj
 0001:00026cc0       __finite                   10027cc0 f   LIBCMT:ieeemisc.obj
 0001:00026cd8       __fpclass                  10027cd8 f   LIBCMT:ieeemisc.obj
 0001:00026d74       __isnan                    10027d74 f   LIBCMT:ieeemisc.obj
 0001:00026da8       __logb                     10027da8 f   LIBCMT:ieeemisc.obj
 0001:00026e85       __nextafter                10027e85 f   LIBCMT:ieeemisc.obj
 0001:00027123       __scalb                    10028123 f   LIBCMT:ieeemisc.obj
 0001:0002713b       __add_exp                  1002813b f   LIBCMT:util.obj
 0001:00027168       __decomp                   10028168 f   LIBCMT:util.obj
 0001:0002723a       __get_exp                  1002823a f   LIBCMT:util.obj
 0001:00027251       __set_bexp                 10028251 f   LIBCMT:util.obj
 0001:00027276       __set_exp                  10028276 f   LIBCMT:util.obj
 0001:000272a1       __sptype                   100282a1 f   LIBCMT:util.obj
 0001:000272fd       __errcode                  100282fd f   LIBCMT:fpexcept.obj
 0001:0002732f       __except1                  1002832f f   LIBCMT:fpexcept.obj
 0001:000273f7       __except2                  100283f7 f   LIBCMT:fpexcept.obj
 0001:000274f7       __handle_exc               100284f7 f   LIBCMT:fpexcept.obj
 0001:000276d3       __handle_qnan1             100286d3 f   LIBCMT:fpexcept.obj
 0001:00027723       __handle_qnan2             10028723 f   LIBCMT:fpexcept.obj
 0001:00027783       __raise_exc                10028783 f   LIBCMT:fpexcept.obj
 0001:000277a4       __raise_exc_ex             100287a4 f   LIBCMT:fpexcept.obj
 0001:00027a89       __raise_excf               10028a89 f   LIBCMT:fpexcept.obj
 0001:00027aaa       __set_errno_from_matherr   10028aaa f   LIBCMT:fpexcept.obj
 0001:00027ad7       __umatherr                 10028ad7 f   LIBCMT:fpexcept.obj
 0001:00027b75       ___clrfp_sse2              10028b75 f   LIBCMT:fpctrl.obj
 0001:00027b96       ___ctrlfp_sse2             10028b96 f   LIBCMT:fpctrl.obj
 0001:00027bcf       ___fclrf_sse2              10028bcf f   LIBCMT:fpctrl.obj
 0001:00027bea       ___get_fpsr_sse2           10028bea f   LIBCMT:fpctrl.obj
 0001:00027c04       ___set_fpsr_sse2           10028c04 f   LIBCMT:fpctrl.obj
 0001:00027c7a       ___set_statfp_sse2         10028c7a f   LIBCMT:fpctrl.obj
 0001:00027c93       ___statfp_sse2             10028c93 f   LIBCMT:fpctrl.obj
 0001:00027ca8       __clrfp                    10028ca8 f   LIBCMT:fpctrl.obj
 0001:00027cb7       __ctrlfp                   10028cb7 f   LIBCMT:fpctrl.obj
 0001:00027ce0       __set_statfp               10028ce0 f   LIBCMT:fpctrl.obj
 0001:00027d36       __statfp                   10028d36 f   LIBCMT:fpctrl.obj
 0001:00027d44       _wcscat_s                  10028d44 f   LIBCMT:wcscat_s.obj
 0001:00027db0       _wcscpy_s                  10028db0 f   LIBCMT:wcscpy_s.obj
 0001:00027e0c       _wcslen                    10028e0c f   LIBCMT:wcslen.obj
 0001:00027e25       _wcsncat_s                 10028e25 f   LIBCMT:wcsncat_s.obj
 0001:00027ef3       __set_abort_behavior       10028ef3 f   LIBCMT:abort.obj
 0001:00027f12       _abort                     10028f12 f   LIBCMT:abort.obj
 0001:00027f55       ___set_app_type            10028f55 f   LIBCMT:errmode.obj
 0001:00027f62       __set_error_mode           10028f62 f   LIBCMT:errmode.obj
 0001:000280bc       __i64tow_s                 100290bc f   LIBCMT:xtows.obj
 0001:000280ed       __itow_s                   100290ed f   LIBCMT:xtows.obj
 0001:00028116       __ltow_s                   10029116 f   LIBCMT:xtows.obj
 0001:00028140       __ui64tow_s                10029140 f   LIBCMT:xtows.obj
 0001:0002815b       __ultow_s                  1002915b f   LIBCMT:xtows.obj
 0001:00028266       _setvbuf                   10029266 f   LIBCMT:setvbuf.obj
 0001:0002836c       __fwprintf_l               1002936c f   LIBCMT:fwprintf.obj
 0001:00028386       __fwprintf_p               10029386 f   LIBCMT:fwprintf.obj
 0001:0002839f       __fwprintf_p_l             1002939f f   LIBCMT:fwprintf.obj
 0001:000283b9       __fwprintf_s_l             100293b9 f   LIBCMT:fwprintf.obj
 0001:000283d3       _fwprintf                  100293d3 f   LIBCMT:fwprintf.obj
 0001:00028464       _fwprintf_s                10029464 f   LIBCMT:fwprintf.obj
 0001:0002847d       __vsnwprintf_s             1002947d f   LIBCMT:vswprnc.obj
 0001:0002849b       __vsnwprintf_s_l           1002949b f   LIBCMT:vswprnc.obj
 0001:0002859a       __vswprintf_c              1002959a f   LIBCMT:vswprnc.obj
 0001:000285c1       __vswprintf_c_l            100295c1 f   LIBCMT:vswprnc.obj
 0001:000285e9       __vswprintf_helper         100295e9 f   LIBCMT:vswprnc.obj
 0001:000286e2       __vswprintf_p              100296e2 f   LIBCMT:vswprnc.obj
 0001:00028709       __vswprintf_p_l            10029709 f   LIBCMT:vswprnc.obj
 0001:00028731       __vswprintf_s_l            10029731 f   LIBCMT:vswprnc.obj
 0001:000287a8       _vswprintf_s               100297a8 f   LIBCMT:vswprnc.obj
 0001:000287c3       ___crtMessageBoxW          100297c3 f   LIBCMT:crtmboxw.obj
 0001:000289a5       ___crtMessageBoxWaitThreadW@4 100299a5 f   LIBCMT:crtmboxw.obj
 0001:000289c3       __XcptFilter               100299c3 f   LIBCMT:winxfltr.obj
 0001:00028b1e       ___CppXcptFilter           10029b1e f   LIBCMT:winxfltr.obj
 0001:00028b70       ___get_flsindex            10029b70 f   LIBCMT:tidtable.obj
 0001:00028b76       ___threadhandle            10029b76 f   LIBCMT:tidtable.obj
 0001:00028b7c       ___threadid                10029b7c f   LIBCMT:tidtable.obj
 0001:00028b82       __freefls@4                10029b82 f   LIBCMT:tidtable.obj
 0001:00028cb9       __freeptd                  10029cb9 f   LIBCMT:tidtable.obj
 0001:00028cef       __getptd                   10029cef f   LIBCMT:tidtable.obj
 0001:00028d07       __getptd_noexit            10029d07 f   LIBCMT:tidtable.obj
 0001:00028d76       __initptd                  10029d76 f   LIBCMT:tidtable.obj
 0001:00028e22       __mtinit                   10029e22 f   LIBCMT:tidtable.obj
 0001:00028e98       __mtterm                   10029e98 f   LIBCMT:tidtable.obj
 0001:00028eb5       __set_pgmptr               10029eb5 f i LIBCMT:stdargv.obj
 0001:00028ec2       __setargv                  10029ec2 f   LIBCMT:stdargv.obj
 0001:000290ef       __setenvp                  1002a0ef f   LIBCMT:stdenvp.obj
 0001:000291d0       ___security_init_cookie    1002a1d0 f   LIBCMT:gs_support.obj
 0001:0002926a       ___crtGetEnvironmentStringsA 1002a26a f   LIBCMT:a_env.obj
 0001:00029300       _strlen                    1002a300 f   LIBCMT:strlen.obj
 0001:0002938b       _wcsncpy_s                 1002a38b f   LIBCMT:wcsncpy_s.obj
 0001:00029449       __output_s_l               1002a449 f   LIBCMT:outputs.obj
 0001:0002a0ef       __output_p_l               1002b0ef f   LIBCMT:outputp.obj
 0001:0002b463       __validate_param_reuseA    1002c463 f   LIBCMT:outputp.obj
 0001:0002b599       _get_crtdouble_arg         1002c599 f i LIBCMT:outputp.obj
 0001:0002b696       __isatty                   1002c696 f   LIBCMT:isatty.obj
 0001:0002b6fa       ___addlocaleref            1002c6fa f   LIBCMT:localref.obj
 0001:0002b78a       ___freetlocinfo            1002c78a f   LIBCMT:localref.obj
 0001:0002b8e4       ___removelocaleref         1002c8e4 f   LIBCMT:localref.obj
 0001:0002b97f       ___updatetlocinfo          1002c97f f   LIBCMT:localref.obj
 0001:0002b9fb       __updatetlocinfoEx_nolock  1002c9fb f   LIBCMT:localref.obj
 0001:0002ba46       ___iswcsym                 1002ca46 f i LIBCMT:_wctype.obj
 0001:0002ba6a       ___iswcsymf                1002ca6a f i LIBCMT:_wctype.obj
 0001:0002ba8e       __isleadbyte_l             1002ca8e f i LIBCMT:_wctype.obj
 0001:0002bac4       __iswalnum_l               1002cac4 f i LIBCMT:_wctype.obj
 0001:0002bad8       __iswalpha_l               1002cad8 f i LIBCMT:_wctype.obj
 0001:0002baec       __iswcntrl_l               1002caec f i LIBCMT:_wctype.obj
 0001:0002bafd       __iswcsym_l                1002cafd f i LIBCMT:_wctype.obj
 0001:0002bb21       __iswcsymf_l               1002cb21 f i LIBCMT:_wctype.obj
 0001:0002bb45       __iswdigit_l               1002cb45 f i LIBCMT:_wctype.obj
 0001:0002bb56       __iswgraph_l               1002cb56 f i LIBCMT:_wctype.obj
 0001:0002bb6a       __iswlower_l               1002cb6a f i LIBCMT:_wctype.obj
 0001:0002bb7b       __iswprint_l               1002cb7b f i LIBCMT:_wctype.obj
 0001:0002bb8f       __iswpunct_l               1002cb8f f i LIBCMT:_wctype.obj
 0001:0002bba0       __iswspace_l               1002cba0 f i LIBCMT:_wctype.obj
 0001:0002bbb1       __iswupper_l               1002cbb1 f i LIBCMT:_wctype.obj
 0001:0002bbc2       __iswxdigit_l              1002cbc2 f i LIBCMT:_wctype.obj
 0001:0002bbd6       _isleadbyte                1002cbd6 f i LIBCMT:_wctype.obj
 0001:0002bbe7       _iswalnum                  1002cbe7 f i LIBCMT:_wctype.obj
 0001:0002bbfb       _iswalpha                  1002cbfb f i LIBCMT:_wctype.obj
 0001:0002bc0f       _iswascii                  1002cc0f f i LIBCMT:_wctype.obj
 0001:0002bc21       _iswcntrl                  1002cc21 f i LIBCMT:_wctype.obj
 0001:0002bc32       _iswdigit                  1002cc32 f i LIBCMT:_wctype.obj
 0001:0002bc43       _iswgraph                  1002cc43 f i LIBCMT:_wctype.obj
 0001:0002bc57       _iswlower                  1002cc57 f i LIBCMT:_wctype.obj
 0001:0002bc68       _iswprint                  1002cc68 f i LIBCMT:_wctype.obj
 0001:0002bc7c       _iswpunct                  1002cc7c f i LIBCMT:_wctype.obj
 0001:0002bc8d       _iswspace                  1002cc8d f i LIBCMT:_wctype.obj
 0001:0002bc9e       _iswupper                  1002cc9e f i LIBCMT:_wctype.obj
 0001:0002bcaf       _iswxdigit                 1002ccaf f i LIBCMT:_wctype.obj
 0001:0002bcc3       __wctomb_l                 1002ccc3 f   LIBCMT:wctomb.obj
 0001:0002bd10       __wctomb_s_l               1002cd10 f   LIBCMT:wctomb.obj
 0001:0002be32       _wctomb                    1002ce32 f   LIBCMT:wctomb.obj
 0001:0002be63       _wctomb_s                  1002ce63 f   LIBCMT:wctomb.obj
 0001:0002be80       __aulldvrm                 1002ce80 f   LIBCMT:ulldvrm.obj
 0001:0002bf15       ___isascii                 1002cf15 f i LIBCMT:_ctype.obj
 0001:0002bf25       ___iscsym                  1002cf25 f i LIBCMT:_ctype.obj
 0001:0002bf45       ___iscsymf                 1002cf45 f i LIBCMT:_ctype.obj
 0001:0002bf62       ___toascii                 1002cf62 f i LIBCMT:_ctype.obj
 0001:0002bf6d       __isalnum_l                1002cf6d f i LIBCMT:_ctype.obj
 0001:0002bfc3       __isalpha_l                1002cfc3 f i LIBCMT:_ctype.obj
 0001:0002c019       __iscntrl_l                1002d019 f i LIBCMT:_ctype.obj
 0001:0002c069       __iscsym_l                 1002d069 f i LIBCMT:_ctype.obj
 0001:0002c08a       __iscsymf_l                1002d08a f i LIBCMT:_ctype.obj
 0001:0002c0ab       __isdigit_l                1002d0ab f i LIBCMT:_ctype.obj
 0001:0002c0fb       __isgraph_l                1002d0fb f i LIBCMT:_ctype.obj
 0001:0002c151       __islower_l                1002d151 f i LIBCMT:_ctype.obj
 0001:0002c1a1       __isprint_l                1002d1a1 f i LIBCMT:_ctype.obj
 0001:0002c1f7       __ispunct_l                1002d1f7 f i LIBCMT:_ctype.obj
 0001:0002c247       __isspace_l                1002d247 f i LIBCMT:_ctype.obj
 0001:0002c297       __isupper_l                1002d297 f i LIBCMT:_ctype.obj
 0001:0002c2e7       __isxdigit_l               1002d2e7 f i LIBCMT:_ctype.obj
 0001:0002c33d       _isalnum                   1002d33d f i LIBCMT:_ctype.obj
 0001:0002c36a       _isalpha                   1002d36a f i LIBCMT:_ctype.obj
 0001:0002c397       _iscntrl                   1002d397 f i LIBCMT:_ctype.obj
 0001:0002c3c2       _isdigit                   1002d3c2 f i LIBCMT:_ctype.obj
 0001:0002c3ed       _isgraph                   1002d3ed f i LIBCMT:_ctype.obj
 0001:0002c41a       _islower                   1002d41a f i LIBCMT:_ctype.obj
 0001:0002c445       _isprint                   1002d445 f i LIBCMT:_ctype.obj
 0001:0002c472       _ispunct                   1002d472 f i LIBCMT:_ctype.obj
 0001:0002c49d       _isspace                   1002d49d f i LIBCMT:_ctype.obj
 0001:0002c4c8       _isupper                   1002d4c8 f i LIBCMT:_ctype.obj
 0001:0002c4f3       _isxdigit                  1002d4f3 f i LIBCMT:_ctype.obj
 0001:0002c520       __tolower                  1002d520 f   LIBCMT:tolower.obj
 0001:0002c52b       __tolower_l                1002d52b f   LIBCMT:tolower.obj
 0001:0002c66c       _tolower                   1002d66c f   LIBCMT:tolower.obj
 0001:0002c698       _strcpy_s                  1002d698 f   LIBCMT:strcpy_s.obj
 0001:0002c6f0       _strrchr                   1002d6f0 f   LIBCMT:strrchr.obj
 0001:0002c827       __fptostr                  1002d827 f   LIBCMT:_fptostr.obj
 0001:0002c8d7       __atodbl                   1002d8d7 f   LIBCMT:atodbl.obj
 0001:0002c8ec       __atodbl_l                 1002d8ec f   LIBCMT:atodbl.obj
 0001:0002c978       __atoflt                   1002d978 f   LIBCMT:atodbl.obj
 0001:0002c98d       __atoflt_l                 1002d98d f   LIBCMT:atodbl.obj
 0001:0002ca19       __atoldbl                  1002da19 f   LIBCMT:atodbl.obj
 0001:0002ca2e       __atoldbl_l                1002da2e f   LIBCMT:atodbl.obj
 0001:0002cabb       ___dtold                   1002dabb f   LIBCMT:cfout.obj
 0001:0002cb81       __fltout2                  1002db81 f   LIBCMT:cfout.obj
 0001:0002cc10       __alldvrm                  1002dc10 f   LIBCMT:lldvrm.obj
 0001:0002ccf0       __aullshr                  1002dcf0 f   LIBCMT:ullshr.obj
 0001:0002cd0f       __get_output_format        1002dd0f f   LIBCMT:outputformat.obj
 0001:0002cd15       __set_output_format        1002dd15 f   LIBCMT:outputformat.obj
 0001:0002cd47       __controlfp_s              1002dd47 f   LIBCMT:contrlfp.obj
 0001:0002cda4       __fptrap                   1002dda4 f   LIBCMT:crt0fp.obj
 0001:0002cdad       __msize                    1002ddad f   LIBCMT:msize.obj
 0001:0002cdde       __recalloc                 1002ddde f   LIBCMT:recalloc.obj
 0001:0002ce47       _strncpy_s                 1002de47 f   LIBCMT:strncpy_s.obj
 0001:0002cfc3       __MarkAllocaS              1002dfc3 f i LIBCMT:a_loc.obj
 0001:0002cfd7       ___crtGetLocaleInfoA       1002dfd7 f   LIBCMT:a_loc.obj
 0001:0002d00f       __freea                    1002e00f f i LIBCMT:a_loc.obj
 0001:0002d02d       ___crtCompareStringEx      1002e02d f   LIBCMT:winapinls.obj
 0001:0002d04f       ___crtEnumSystemLocalesEx  1002e04f f   LIBCMT:winapinls.obj
 0001:0002d065       ___crtGetDateFormatEx      1002e065 f   LIBCMT:winapinls.obj
 0001:0002d084       ___crtGetLocaleInfoEx      1002e084 f   LIBCMT:winapinls.obj
 0001:0002d09b       ___crtGetTimeFormatEx      1002e09b f   LIBCMT:winapinls.obj
 0001:0002d0b8       ___crtGetUserDefaultLocaleName 1002e0b8 f   LIBCMT:winapinls.obj
 0001:0002d0c9       ___crtIsValidLocaleName    1002e0c9 f   LIBCMT:winapinls.obj
 0001:0002d0d7       ___crtLCMapStringEx        1002e0d7 f   LIBCMT:winapinls.obj
 0001:0002d302       ___crtLCMapStringA         1002e302 f   LIBCMT:a_map.obj
 0001:0002d432       ___crtGetStringTypeA       1002e432 f   LIBCMT:a_str.obj
 0001:0002d470       __commit                   1002e470 f   LIBCMT:commit.obj
 0001:0002d567       ___lock_fhandle            1002e567 f   LIBCMT:osfinfo.obj
 0001:0002d5f3       __alloc_osfhnd             1002e5f3 f   LIBCMT:osfinfo.obj
 0001:0002d7a2       __free_osfhnd              1002e7a2 f   LIBCMT:osfinfo.obj
 0001:0002d828       __get_osfhandle            1002e828 f   LIBCMT:osfinfo.obj
 0001:0002d89a       __open_osfhandle           1002e89a f   LIBCMT:osfinfo.obj
 0001:0002d9b0       __set_osfhnd               1002e9b0 f   LIBCMT:osfinfo.obj
 0001:0002da32       __unlock_fhandle           1002ea32 f   LIBCMT:osfinfo.obj
 0001:0002da58       __open                     1002ea58 f   LIBCMT:open.obj
 0001:0002db05       __sopen                    1002eb05 f   LIBCMT:open.obj
 0001:0002db36       __sopen_helper             1002eb36 f   LIBCMT:open.obj
 0001:0002dbfd       __sopen_nolock             1002ebfd f   LIBCMT:open.obj
 0001:0002dc49       __sopen_s                  1002ec49 f   LIBCMT:open.obj
 0001:0002dc67       __mbsnbcmp                 1002ec67 f   LIBCMT:mbsnbcmp.obj
 0001:0002dc7f       __mbsnbcmp_l               1002ec7f f   LIBCMT:mbsnbcmp.obj
 0001:0002dd94       __mbsnbicmp                1002ed94 f   LIBCMT:mbsnbicm.obj
 0001:0002ddac       __mbsnbicmp_l              1002edac f   LIBCMT:mbsnbicm.obj
 0001:0002df70       __global_unwind2           1002ef70 f   LIBCMT:exsup.obj
 0001:0002dfd5       __local_unwind2            1002efd5 f   LIBCMT:exsup.obj
 0001:0002e059       __abnormal_termination     1002f059 f   LIBCMT:exsup.obj
 0001:0002e07c       __NLG_Notify1              1002f07c f   LIBCMT:exsup.obj
 0001:0002e085       __NLG_Notify               1002f085 f   LIBCMT:exsup.obj
 0001:0002e09c       __NLG_Dispatch2            1002f09c     LIBCMT:exsup.obj
 0001:0002e09c       __NLG_Dispatch             1002f09c     LIBCMT:exsup.obj
 0001:0002e0a4       __NLG_Call                 1002f0a4 f   LIBCMT:exsup.obj
 0001:0002e0a6       __NLG_Return2              1002f0a6     LIBCMT:exsup.obj
 0001:0002e0a7       __getbuf                   1002f0a7 f   LIBCMT:_getbuf.obj
 0001:0002e0ed       __lseeki64                 1002f0ed f   LIBCMT:lseeki64.obj
 0001:0002e1f6       __lseeki64_nolock          1002f1f6 f   LIBCMT:lseeki64.obj
 0001:0002e267       __mbtowc_l                 1002f267 f   LIBCMT:mbtowc.obj
 0001:0002e35a       _mbtowc                    1002f35a f   LIBCMT:mbtowc.obj
 0001:0002e372       __putwch                   1002f372 f   LIBCMT:putwch.obj
 0001:0002e3ba       __putwch_nolock            1002f3ba f   LIBCMT:putwch.obj
 0001:0002e400       __chkstk                   1002f400 f   LIBCMT:chkstk.obj
 0001:0002e400       __alloca_probe             1002f400     LIBCMT:chkstk.obj
 0001:0002e42b       __matherr                  1002f42b f   LIBCMT:matherr.obj
 0001:0002e42e       __vfwprintf_l              1002f42e f   LIBCMT:vfwprint.obj
 0001:0002e44c       __vfwprintf_p              1002f44c f   LIBCMT:vfwprint.obj
 0001:0002e469       __vfwprintf_p_l            1002f469 f   LIBCMT:vfwprint.obj
 0001:0002e487       __vfwprintf_s_l            1002f487 f   LIBCMT:vfwprint.obj
 0001:0002e4a5       _vfwprintf                 1002f4a5 f   LIBCMT:vfwprint.obj
 0001:0002e4c2       _vfwprintf_helper          1002f4c2 f   LIBCMT:vfwprint.obj
 0001:0002e551       _vfwprintf_s               1002f551 f   LIBCMT:vfwprint.obj
 0001:0002e56e       __woutput_l                1002f56e f   LIBCMT:woutput.obj
 0001:0002f271       __woutput_s_l              10030271 f   LIBCMT:woutputs.obj
 0001:0002ffa8       __validate_param_reuseW    10030fa8 f   LIBCMT:woutputp.obj
 0001:0003011e       __woutput_p_l              1003111e f   LIBCMT:woutputp.obj
 0001:00031553       __ismbbalnum               10032553 f   LIBCMT:ismbbyte.obj
 0001:0003156c       __ismbbalnum_l             1003256c f   LIBCMT:ismbbyte.obj
 0001:00031586       __ismbbalpha               10032586 f   LIBCMT:ismbbyte.obj
 0001:0003159f       __ismbbalpha_l             1003259f f   LIBCMT:ismbbyte.obj
 0001:000315b9       __ismbbgraph               100325b9 f   LIBCMT:ismbbyte.obj
 0001:000315d2       __ismbbgraph_l             100325d2 f   LIBCMT:ismbbyte.obj
 0001:000315ec       __ismbbkalnum              100325ec f   LIBCMT:ismbbyte.obj
 0001:00031602       __ismbbkalnum_l            10032602 f   LIBCMT:ismbbyte.obj
 0001:00031619       __ismbbkana                10032619 f   LIBCMT:ismbbyte.obj
 0001:0003162a       __ismbbkana_l              1003262a f   LIBCMT:ismbbyte.obj
 0001:00031674       __ismbbkprint              10032674 f   LIBCMT:ismbbyte.obj
 0001:0003168a       __ismbbkprint_l            1003268a f   LIBCMT:ismbbyte.obj
 0001:000316a1       __ismbbkpunct              100326a1 f   LIBCMT:ismbbyte.obj
 0001:000316b7       __ismbbkpunct_l            100326b7 f   LIBCMT:ismbbyte.obj
 0001:000316ce       __ismbblead                100326ce f   LIBCMT:ismbbyte.obj
 0001:000316e4       __ismbblead_l              100326e4 f   LIBCMT:ismbbyte.obj
 0001:000316fb       __ismbbprint               100326fb f   LIBCMT:ismbbyte.obj
 0001:00031714       __ismbbprint_l             10032714 f   LIBCMT:ismbbyte.obj
 0001:0003172e       __ismbbpunct               1003272e f   LIBCMT:ismbbyte.obj
 0001:00031744       __ismbbpunct_l             10032744 f   LIBCMT:ismbbyte.obj
 0001:0003175b       __ismbbtrail               1003275b f   LIBCMT:ismbbyte.obj
 0001:00031771       __ismbbtrail_l             10032771 f   LIBCMT:ismbbyte.obj
 0001:000319ac       __strtol_l                 100329ac f   LIBCMT:strtol.obj
 0001:000319c7       __strtoul_l                100329c7 f   LIBCMT:strtol.obj
 0001:000319e2       _strtol                    100329e2 f   LIBCMT:strtol.obj
 0001:00031a0c       _strtoul                   10032a0c f   LIBCMT:strtol.obj
 0001:00031a36       ___free_lconv_mon          10032a36 f   LIBCMT:initmon.obj
 0001:00031b32       ___init_monetary           10032b32 f   LIBCMT:initmon.obj
 0001:00031f0c       ___free_lconv_num          10032f0c f   LIBCMT:initnum.obj
 0001:00031f73       ___init_numeric            10032f73 f   LIBCMT:initnum.obj
 0001:000321b3       ___free_lc_time            100331b3 f   LIBCMT:inittime.obj
 0001:00032533       ___init_time               10033533 f   LIBCMT:inittime.obj
 0001:00032da0       _localeconv                10033da0 f   LIBCMT:lconv.obj
 0001:00032dc6       __iswctype_l               10033dc6 f   LIBCMT:iswctype.obj
 0001:00032dd8       _is_wctype                 10033dd8 f   LIBCMT:iswctype.obj
 0001:00032de1       _iswctype                  10033de1 f   LIBCMT:iswctype.obj
 0001:00032e33       ____lc_codepage_func       10033e33 f   LIBCMT:initctyp.obj
 0001:00032e59       ____lc_collate_cp_func     10033e59 f   LIBCMT:initctyp.obj
 0001:00032e7f       ____lc_locale_name_func    10033e7f f   LIBCMT:initctyp.obj
 0001:00032ea7       ____mb_cur_max_func        10033ea7 f   LIBCMT:initctyp.obj
 0001:00032ecd       ____mb_cur_max_l_func      10033ecd f   LIBCMT:initctyp.obj
 0001:00032ee4       ___init_ctype              10033ee4 f   LIBCMT:initctyp.obj
 0001:0003327c       ___pctype_func             1003427c f   LIBCMT:ctype.obj
 0001:000332a5       ___pwctype_func            100342a5 f   LIBCMT:ctype.obj
 0001:000332ab       __isctype                  100342ab f   LIBCMT:isctype.obj
 0001:000332da       __isctype_l                100342da f   LIBCMT:isctype.obj
 0001:00033389       __locterm                  10034389 f   LIBCMT:wsetloca.obj
 0001:000333db       ___init_dummy              100343db f   LIBCMT:wsetloca.obj
 0001:000333de       ____setlc_active_func      100343de f   LIBCMT:wsetloca.obj
 0001:000333e4       ____unguarded_readlc_active_add_func 100343e4 f   LIBCMT:wsetloca.obj
 0001:000333ea       ___copy_locale_name        100343ea f   LIBCMT:wsetloca.obj
 0001:0003344e       ___create_locale           1003444e f   LIBCMT:wsetloca.obj
 0001:00033457       ___free_locale             10034457 f   LIBCMT:wsetloca.obj
 0001:0003345c       ___get_current_locale      1003445c f   LIBCMT:wsetloca.obj
 0001:00033461       ___lc_lctowcs              10034461 f   LIBCMT:wsetloca.obj
 0001:000334cf       ___lc_wcstolc              100344cf f   LIBCMT:wsetloca.obj
 0001:000335f9       __configthreadlocale       100345f9 f   LIBCMT:wsetloca.obj
 0001:0003367f       __create_locale            1003467f f   LIBCMT:wsetloca.obj
 0001:000336df       __expandlocale             100346df f   LIBCMT:wsetloca.obj
 0001:000339c2       __free_locale              100349c2 f   LIBCMT:wsetloca.obj
 0001:00033a7c       __get_current_locale       10034a7c f   LIBCMT:wsetloca.obj
 0001:00033b2b       __wcreate_locale           10034b2b f   LIBCMT:wsetloca.obj
 0001:00033c1b       __wcscats                  10034c1b f   LIBCMT:wsetloca.obj
 0001:00033c5a       __wsetlocale               10034c5a f   LIBCMT:wsetloca.obj
 0001:0003458f       __CopyMan                  1003558f f i LIBCMT:intrncvt.obj
 0001:000345ac       __FillZeroMan              100355ac f i LIBCMT:intrncvt.obj
 0001:000345bb       __IncMan                   100355bb f i LIBCMT:intrncvt.obj
 0001:0003461d       __IsZeroMan                1003561d f i LIBCMT:intrncvt.obj
 0001:0003463a       __RoundMan                 1003563a f i LIBCMT:intrncvt.obj
 0001:00034739       __ShrMan                   10035739 f i LIBCMT:intrncvt.obj
 0001:000347c5       __ZeroTail                 100357c5 f i LIBCMT:intrncvt.obj
 0001:0003480d       ___addl                    1003580d f i LIBCMT:intrncvt.obj
 0001:00034831       __ld12cvt                  10035831 f i LIBCMT:intrncvt.obj
 0001:00034d9a       __ld12tod                  10035d9a f   LIBCMT:intrncvt.obj
 0001:0003530a       __ld12tof                  1003630a f   LIBCMT:intrncvt.obj
 0001:0003587a       __ld12told                 1003687a f   LIBCMT:intrncvt.obj
 0001:00035947       ___STRINGTOLD_L            10036947 f   LIBCMT:strgtold.obj
 0001:000359a0       ___ld12mul                 100369a0 f i LIBCMT:strgtold.obj
 0001:00035c69       ___multtenpow12            10036c69 f i LIBCMT:strgtold.obj
 0001:00035fc7       ___shl_12                  10036fc7 f i LIBCMT:strgtold.obj
 0001:00035ff8       ___shr_12                  10036ff8 f i LIBCMT:strgtold.obj
 0001:00036028       ___strgtold12_l            10037028 f   LIBCMT:strgtold.obj
 0001:000367a4       _$I10_OUTPUT               100377a4 f   LIBCMT:x10fout.obj
 0001:00037168       ___add_12                  10038168 f i LIBCMT:x10fout.obj
 0001:00037312       ___control87_2             10038312 f   LIBCMT:ieee87.obj
 0001:00037982       __clearfp                  10038982 f   LIBCMT:ieee87.obj
 0001:00037a60       __control87                10038a60 f i LIBCMT:ieee87.obj
 0001:00037d60       __controlfp                10038d60 f   LIBCMT:ieee87.obj
 0001:00038069       __fpreset                  10039069 f   LIBCMT:ieee87.obj
 0001:00038136       __set_controlfp            10039136 f   LIBCMT:ieee87.obj
 0001:000381a7       __statusfp                 100391a7 f   LIBCMT:ieee87.obj
 0001:0003823f       __statusfp2                1003923f f   LIBCMT:ieee87.obj
 0001:000382a0       __alloca_probe_16          100392a0 f   LIBCMT:alloca16.obj
 0001:000382b6       __alloca_probe_8           100392b6     LIBCMT:alloca16.obj
 0001:0003835d       __wopen                    1003935d f   LIBCMT:wopen.obj
 0001:0003840a       __wsopen                   1003940a f   LIBCMT:wopen.obj
 0001:0003843b       __wsopen_helper            1003943b f   LIBCMT:wopen.obj
 0001:00038502       __wsopen_nolock            10039502 f   LIBCMT:wopen.obj
 0001:00038c7b       __wsopen_s                 10039c7b f   LIBCMT:wopen.obj
 0001:00038ca0       _strncmp                   10039ca0 f   LIBCMT:strncmp.obj
 0001:00038d18       __strnicmp                 10039d18 f   LIBCMT:strnicmp.obj
 0001:00038d83       __strnicmp_l               10039d83 f   LIBCMT:strnicmp.obj
 0001:00038e32       ___termconout              10039e32 f   LIBCMT:initcon.obj
 0001:00038e49       ___initconout              10039e49 f   LIBCMT:initcon.obj
 0001:00038e68       __fputwc_nolock            10039e68 f   LIBCMT:fputwc.obj
 0001:00038fed       _fputwc                    10039fed f   LIBCMT:fputwc.obj
 0001:0003906e       _putwc                     1003a06e f   LIBCMT:fputwc.obj
 0001:00039253       __wcstol_l                 1003a253 f   LIBCMT:wcstol.obj
 0001:0003926b       __wcstoul_l                1003a26b f   LIBCMT:wcstol.obj
 0001:00039283       _wcstol                    1003a283 f   LIBCMT:wcstol.obj
 0001:0003929b       _wcstoul                   1003a29b f   LIBCMT:wcstol.obj
 0001:000392b3       ___init_collate            1003a2b3 f   LIBCMT:initcoll.obj
 0001:000393d3       _memcmp                    1003a3d3 f   LIBCMT:memcmp.obj
 0001:0003c2e7       _wcscmp                    1003d2e7 f   LIBCMT:wcscmp.obj
 0001:0003c325       _wcscspn                   1003d325 f   LIBCMT:wcscspn.obj
 0001:0003c374       _wcsnlen                   1003d374 f   LIBCMT:wcslen_s.obj
 0001:0003c393       _wcsncmp                   1003d393 f   LIBCMT:wcsncmp.obj
 0001:0003c3c9       _wcspbrk                   1003d3c9 f   LIBCMT:wcspbrk.obj
 0001:0003c9c5       ___get_qualified_locale    1003d9c5 f   LIBCMT:getqloc.obj
 0001:0003cb87       ___mtold12                 1003db87 f   LIBCMT:mantold.obj
 0001:0003cd69       __chsize                   1003dd69 f   LIBCMT:chsize.obj
 0001:0003cd83       __chsize_nolock            1003dd83 f   LIBCMT:chsize.obj
 0001:0003cf37       __chsize_s                 1003df37 f   LIBCMT:chsize.obj
 0001:0003d02b       __get_fmode                1003e02b f   LIBCMT:setmode.obj
 0001:0003d055       __set_fmode                1003e055 f   LIBCMT:setmode.obj
 0001:0003d095       __setmode                  1003e095 f   LIBCMT:setmode.obj
 0001:0003d1a3       __setmode_nolock           1003e1a3 f   LIBCMT:setmode.obj
 0001:0003d270       ___ascii_strnicmp          1003e270 f   LIBCMT:_strnicm.obj
 0001:0003d2d1       __flswbuf                  1003e2d1 f   LIBCMT:_flswbuf.obj
 0001:0003d440       __wchartodigit             1003e440 f   LIBCMT:wchtodig.obj
 0001:0003d5df       __wtoi                     1003e5df f   LIBCMT:wtox.obj
 0001:0003d5e8       __wtoi64                   1003e5e8 f   LIBCMT:wtox.obj
 0001:0003d5fc       __wtoi64_l                 1003e5fc f   LIBCMT:wtox.obj
 0001:0003d613       __wtoi_l                   1003e613 f   LIBCMT:wtox.obj
 0001:0003d61c       __wtol                     1003e61c f   LIBCMT:wtox.obj
 0001:0003d630       __wtol_l                   1003e630 f   LIBCMT:wtox.obj
 0001:0003d647       _wcschr                    1003e647 f   LIBCMT:wcschr.obj
 0001:0003d6f5       __wcsicmp                  1003e6f5 f   LIBCMT:wcsicmp.obj
 0001:0003d788       __wcsicmp_l                1003e788 f   LIBCMT:wcsicmp.obj
 0001:0003d861       __wcsnicmp                 1003e861 f   LIBCMT:wcsnicmp.obj
 0001:0003d915       __wcsnicmp_l               1003e915 f   LIBCMT:wcsnicmp.obj
 0001:0003dcda       __wcstoi64                 1003ecda f   LIBCMT:wcstoq.obj
 0001:0003dd04       __wcstoi64_l               1003ed04 f   LIBCMT:wcstoq.obj
 0001:0003dd1f       __wcstoui64                1003ed1f f   LIBCMT:wcstoq.obj
 0001:0003dd49       __wcstoui64_l              1003ed49 f   LIBCMT:wcstoq.obj
 0001:0003dd64       __towlower_l               1003ed64 f   LIBCMT:towlower.obj
 0001:0003de16       _towlower                  1003ee16 f   LIBCMT:towlower.obj
 0001:0003de30       __allmul                   1003ee30 f   LIBCMT:llmul.obj
 0001:0003de64       ___crtLCMapStringW         1003ee64 f   LIBCMT:w_map.obj
 0001:0003de94       _GetModuleHandleA@4        1003ee94 f   kernel32:KERNEL32.dll
 0001:0003de9a       _GetProcAddress@8          1003ee9a f   kernel32:KERNEL32.dll
 0001:0003dea0       _HeapAlloc@12              1003eea0 f   kernel32:KERNEL32.dll
 0001:0003dea6       _IsDebuggerPresent@0       1003eea6 f   kernel32:KERNEL32.dll
 0001:0003deac       _IsProcessorFeaturePresent@4 1003eeac f   kernel32:KERNEL32.dll
 0001:0003deb2       _EncodePointer@4           1003eeb2 f   kernel32:KERNEL32.dll
 0001:0003deb8       _DecodePointer@4           1003eeb8 f   kernel32:KERNEL32.dll
 0001:0003debe       _GetLastError@0            1003eebe f   kernel32:KERNEL32.dll
 0001:0003dec4       _InterlockedDecrement@4    1003eec4 f   kernel32:KERNEL32.dll
 0001:0003deca       _ExitProcess@4             1003eeca f   kernel32:KERNEL32.dll
 0001:0003ded0       _GetModuleHandleExW@12     1003eed0 f   kernel32:KERNEL32.dll
 0001:0003ded6       _AreFileApisANSI@0         1003eed6 f   kernel32:KERNEL32.dll
 0001:0003dedc       _MultiByteToWideChar@24    1003eedc f   kernel32:KERNEL32.dll
 0001:0003dee2       _HeapFree@12               1003eee2 f   kernel32:KERNEL32.dll
 0001:0003dee8       _HeapReAlloc@16            1003eee8 f   kernel32:KERNEL32.dll
 0001:0003deee       _EnterCriticalSection@4    1003eeee f   kernel32:KERNEL32.dll
 0001:0003def4       _LeaveCriticalSection@4    1003eef4 f   kernel32:KERNEL32.dll
 0001:0003defa       _GetStdHandle@4            1003eefa f   kernel32:KERNEL32.dll
 0001:0003df00       _GetFileType@4             1003ef00 f   kernel32:KERNEL32.dll
 0001:0003df06       _GetModuleFileNameW@12     1003ef06 f   kernel32:KERNEL32.dll
 0001:0003df0c       _WriteConsoleW@20          1003ef0c f   kernel32:KERNEL32.dll
 0001:0003df12       _GetCommandLineA@0         1003ef12 f   kernel32:KERNEL32.dll
 0001:0003df18       _GetCurrentThreadId@0      1003ef18 f   kernel32:KERNEL32.dll
 0001:0003df1e       _WriteFile@20              1003ef1e f   kernel32:KERNEL32.dll
 0001:0003df24       _GetProcessHeap@0          1003ef24 f   kernel32:KERNEL32.dll
 0001:0003df2a       _UnhandledExceptionFilter@4 1003ef2a f   kernel32:KERNEL32.dll
 0001:0003df30       _SetUnhandledExceptionFilter@4 1003ef30 f   kernel32:KERNEL32.dll
 0001:0003df36       _FlsAlloc@4                1003ef36 f   kernel32:KERNEL32.dll
 0001:0003df3c       _FlsGetValue@4             1003ef3c f   kernel32:KERNEL32.dll
 0001:0003df42       _FlsSetValue@8             1003ef42 f   kernel32:KERNEL32.dll
 0001:0003df48       _FlsFree@4                 1003ef48 f   kernel32:KERNEL32.dll
 0001:0003df4e       _GetCurrentProcess@0       1003ef4e f   kernel32:KERNEL32.dll
 0001:0003df54       _TerminateProcess@8        1003ef54 f   kernel32:KERNEL32.dll
 0001:0003df5a       _GetStartupInfoW@4         1003ef5a f   kernel32:KERNEL32.dll
 0001:0003df60       _GetModuleHandleW@4        1003ef60 f   kernel32:KERNEL32.dll
 0001:0003df66       _InitializeCriticalSectionAndSpinCount@8 1003ef66 f   kernel32:KERNEL32.dll
 0001:0003df6c       _DeleteCriticalSection@4   1003ef6c f   kernel32:KERNEL32.dll
 0001:0003df72       _FatalAppExitA@8           1003ef72 f   kernel32:KERNEL32.dll
 0001:0003df78       _Sleep@4                   1003ef78 f   kernel32:KERNEL32.dll
 0001:0003df7e       _InterlockedExchange@8     1003ef7e f   kernel32:KERNEL32.dll
 0001:0003df84       _FreeLibrary@4             1003ef84 f   kernel32:KERNEL32.dll
 0001:0003df8a       _LoadLibraryExW@12         1003ef8a f   kernel32:KERNEL32.dll
 0001:0003df90       _SetConsoleCtrlHandler@8   1003ef90 f   kernel32:KERNEL32.dll
 0001:0003df96       _InterlockedIncrement@4    1003ef96 f   kernel32:KERNEL32.dll
 0001:0003df9c       _IsValidCodePage@4         1003ef9c f   kernel32:KERNEL32.dll
 0001:0003dfa2       _GetACP@0                  1003efa2 f   kernel32:KERNEL32.dll
 0001:0003dfa8       _GetOEMCP@0                1003efa8 f   kernel32:KERNEL32.dll
 0001:0003dfae       _GetCPInfo@8               1003efae f   kernel32:KERNEL32.dll
 0001:0003dfb4       _CloseHandle@4             1003efb4 f   kernel32:KERNEL32.dll
 0001:0003dfba       _RtlUnwind@16              1003efba f   kernel32:KERNEL32.dll
 0001:0003dfc0       _InitOnceExecuteOnce@16    1003efc0 f   kernel32:KERNEL32.dll
 0001:0003dfc6       _ReadFile@20               1003efc6 f   kernel32:KERNEL32.dll
 0001:0003dfcc       _GetConsoleMode@8          1003efcc f   kernel32:KERNEL32.dll
 0001:0003dfd2       _ReadConsoleW@20           1003efd2 f   kernel32:KERNEL32.dll
 0001:0003dfd8       _WideCharToMultiByte@32    1003efd8 f   kernel32:KERNEL32.dll
 0001:0003dfde       _GetConsoleCP@0            1003efde f   kernel32:KERNEL32.dll
 0001:0003dfe4       _DeleteFileW@4             1003efe4 f   kernel32:KERNEL32.dll
 0001:0003dfea       _SetFilePointer@16         1003efea f   kernel32:KERNEL32.dll
 0001:0003dff0       _RaiseException@16         1003eff0 f   kernel32:KERNEL32.dll
 0001:0003dff6       _OutputDebugStringW@4      1003eff6 f   kernel32:KERNEL32.dll
 0001:0003dffc       _LoadLibraryW@4            1003effc f   kernel32:KERNEL32.dll
 0001:0003e002       _SetLastError@4            1003f002 f   kernel32:KERNEL32.dll
 0001:0003e008       _GetCurrentThread@0        1003f008 f   kernel32:KERNEL32.dll
 0001:0003e00e       _GetModuleFileNameA@12     1003f00e f   kernel32:KERNEL32.dll
 0001:0003e014       _QueryPerformanceCounter@4 1003f014 f   kernel32:KERNEL32.dll
 0001:0003e01a       _GetSystemTimeAsFileTime@4 1003f01a f   kernel32:KERNEL32.dll
 0001:0003e020       _GetTickCount64@0          1003f020 f   kernel32:KERNEL32.dll
 0001:0003e026       _GetEnvironmentStringsW@0  1003f026 f   kernel32:KERNEL32.dll
 0001:0003e02c       _FreeEnvironmentStringsW@4 1003f02c f   kernel32:KERNEL32.dll
 0001:0003e032       _HeapSize@12               1003f032 f   kernel32:KERNEL32.dll
 0001:0003e038       _GetTimeFormatEx@24        1003f038 f   kernel32:KERNEL32.dll
 0001:0003e03e       _GetDateFormatEx@28        1003f03e f   kernel32:KERNEL32.dll
 0001:0003e044       _CompareStringEx@36        1003f044 f   kernel32:KERNEL32.dll
 0001:0003e04a       _GetLocaleInfoEx@16        1003f04a f   kernel32:KERNEL32.dll
 0001:0003e050       _GetUserDefaultLocaleName@8 1003f050 f   kernel32:KERNEL32.dll
 0001:0003e056       _LCMapStringEx@36          1003f056 f   kernel32:KERNEL32.dll
 0001:0003e05c       _IsValidLocaleName@4       1003f05c f   kernel32:KERNEL32.dll
 0001:0003e062       _EnumSystemLocalesEx@16    1003f062 f   kernel32:KERNEL32.dll
 0001:0003e068       _GetStringTypeW@16         1003f068 f   kernel32:KERNEL32.dll
 0001:0003e06e       _FlushFileBuffers@4        1003f06e f   kernel32:KERNEL32.dll
 0001:0003e074       _SetStdHandle@8            1003f074 f   kernel32:KERNEL32.dll
 0001:0003e07a       _SetFilePointerEx@20       1003f07a f   kernel32:KERNEL32.dll
 0001:0003e080       _CreateFileW@28            1003f080 f   kernel32:KERNEL32.dll
 0001:0003e086       _SetEndOfFile@4            1003f086 f   kernel32:KERNEL32.dll
 0002:00000000       ___xc_a                    10049000     LIBCMT:crt0init.obj
 0002:00000104       ___xc_z                    10049104     LIBCMT:crt0init.obj
 0002:00000208       ___xi_a                    10049208     LIBCMT:crt0init.obj
 0002:00000420       ___xi_z                    10049420     LIBCMT:crt0init.obj
 0002:00000524       ___xp_a                    10049524     LIBCMT:crt0init.obj
 0002:00000838       ___xp_z                    10049838     LIBCMT:crt0init.obj
 0002:0000093c       ___xt_a                    1004993c     LIBCMT:crt0init.obj
 0002:00000a40       ___xt_z                    10049a40     LIBCMT:crt0init.obj
 0002:00000b88       _kaiguangai1108_M          10049b88     kaiguangai1108.obj
 0002:00000b8c       ??_C@_0BI@PBFPDHLE@Error?5creating?5scope?54?6?$AA@ 10049b8c     kaiguangai1108.obj
 0002:00000ba8       ??_C@_0L@GJKILEII@Switch3?1s1?$AA@ 10049ba8     kaiguangai1108.obj
 0002:00000bb8       ??_C@_0L@ECIFOHEL@Switch3?1s2?$AA@ 10049bb8     kaiguangai1108.obj
 0002:00000bc8       ??_C@_0L@FLJONGAK@Switch3?1s3?$AA@ 10049bc8     kaiguangai1108.obj
 0002:00000bd8       ??_C@_0L@BENPEAMN@Switch3?1s4?$AA@ 10049bd8     kaiguangai1108.obj
 0002:00000be8       ??_C@_0BI@PEBACBDB@Error?5creating?5scope?53?6?$AA@ 10049be8     kaiguangai1108.obj
 0002:00000c04       ??_C@_0BJ@IFNPAGBK@Data?5Type?5Conversion3?1s1?$AA@ 10049c04     kaiguangai1108.obj
 0002:00000c24       ??_C@_0BJ@KOPCFFNJ@Data?5Type?5Conversion3?1s2?$AA@ 10049c24     kaiguangai1108.obj
 0002:00000c44       ??_C@_0BJ@LHOJGEJI@Data?5Type?5Conversion3?1s3?$AA@ 10049c44     kaiguangai1108.obj
 0002:00000c64       ??_C@_0BJ@PIKIPCFP@Data?5Type?5Conversion3?1s4?$AA@ 10049c64     kaiguangai1108.obj
 0002:00000c84       ??_C@_0BJ@OBLDMDBO@Data?5Type?5Conversion3?1s5?$AA@ 10049c84     kaiguangai1108.obj
 0002:00000ca4       ??_C@_0BJ@MKJOJANN@Data?5Type?5Conversion3?1s6?$AA@ 10049ca4     kaiguangai1108.obj
 0002:00000cc4       ??_C@_06KFNFIEK@?$CF15?46f?$AA@ 10049cc4     kaiguangai1108.obj
 0002:00000ccc       ??_C@_0BI@PFNCELAG@Error?5creating?5scope?52?6?$AA@ 10049ccc     kaiguangai1108.obj
 0002:00000ce8       ??_C@_0BI@FGMONABM@Data?5Type?5Conversion?1s1?$AA@ 10049ce8     kaiguangai1108.obj
 0002:00000d04       ??_C@_0BI@HNODIDNP@Data?5Type?5Conversion?1s2?$AA@ 10049d04     kaiguangai1108.obj
 0002:00000d20       ??_C@_0BI@GEPILCJO@Data?5Type?5Conversion?1s3?$AA@ 10049d20     kaiguangai1108.obj
 0002:00000d3c       ??_C@_0BI@CLLJCEFJ@Data?5Type?5Conversion?1s4?$AA@ 10049d3c     kaiguangai1108.obj
 0002:00000d58       ??_C@_0BI@DCKCBFBI@Data?5Type?5Conversion?1s5?$AA@ 10049d58     kaiguangai1108.obj
 0002:00000d74       ??_C@_0BI@BJIPEGNL@Data?5Type?5Conversion?1s6?$AA@ 10049d74     kaiguangai1108.obj
 0002:00000d90       ??_C@_0BI@PAJNFNID@Error?5creating?5scope?55?6?$AA@ 10049d90     kaiguangai1108.obj
 0002:00000dac       ??_C@_0BJ@PPBPFFHK@Data?5Type?5Conversion1?1s1?$AA@ 10049dac     kaiguangai1108.obj
 0002:00000dcc       ??_C@_0BJ@NEDCAGLJ@Data?5Type?5Conversion1?1s2?$AA@ 10049dcc     kaiguangai1108.obj
 0002:00000dec       ??_C@_0BJ@MNCJDHPI@Data?5Type?5Conversion1?1s3?$AA@ 10049dec     kaiguangai1108.obj
 0002:00000e0c       ??_C@_0BJ@ICGIKBDP@Data?5Type?5Conversion1?1s4?$AA@ 10049e0c     kaiguangai1108.obj
 0002:00000e2c       ??_C@_0BJ@JLHDJAHO@Data?5Type?5Conversion1?1s5?$AA@ 10049e2c     kaiguangai1108.obj
 0002:00000e4c       ??_C@_0BJ@LAFOMDLN@Data?5Type?5Conversion1?1s6?$AA@ 10049e4c     kaiguangai1108.obj
 0002:00000e6c       ??_C@_0BJ@KJEFPCPM@Data?5Type?5Conversion1?1s7?$AA@ 10049e6c     kaiguangai1108.obj
 0002:00000e8c       ??_C@_0BJ@CONNOODD@Data?5Type?5Conversion1?1s8?$AA@ 10049e8c     kaiguangai1108.obj
 0002:00000eac       ??_C@_0BJ@DHMGNPHC@Data?5Type?5Conversion1?1s9?$AA@ 10049eac     kaiguangai1108.obj
 0002:00000ecc       ??_C@_0BK@GPGJLBIE@Data?5Type?5Conversion1?1s10?$AA@ 10049ecc     kaiguangai1108.obj
 0002:00000eec       ??_C@_0BI@PHJEPFFP@Error?5creating?5scope?51?6?$AA@ 10049eec     kaiguangai1108.obj
 0002:00000f08       ??_C@_0CE@CCDIHLIH@Subsystem1?1Data?5Type?5Conversion6@ 10049f08     kaiguangai1108.obj
 0002:00000f34       ??_C@_0CE@JBFCIEE@Subsystem1?1Data?5Type?5Conversion6@ 10049f34     kaiguangai1108.obj
 0002:00000f60       ??_C@_0CE@BAAOBJAF@Subsystem1?1Data?5Type?5Conversion6@ 10049f60     kaiguangai1108.obj
 0002:00000f8c       ??_C@_0CE@FPEPIPMC@Subsystem1?1Data?5Type?5Conversion6@ 10049f8c     kaiguangai1108.obj
 0002:00000fb8       ??_C@_0CE@EGFELOID@Subsystem1?1Data?5Type?5Conversion6@ 10049fb8     kaiguangai1108.obj
 0002:00000fe4       ??_C@_0CE@GNHJONEA@Subsystem1?1Data?5Type?5Conversion6@ 10049fe4     kaiguangai1108.obj
 0002:00001010       ??_C@_0CE@HEGCNMAB@Subsystem1?1Data?5Type?5Conversion6@ 1004a010     kaiguangai1108.obj
 0002:0000103c       ??_C@_0CE@PDPKMAMO@Subsystem1?1Data?5Type?5Conversion6@ 1004a03c     kaiguangai1108.obj
 0002:00001068       ??_C@_0BC@OJJPBDHH@FixedStepDiscrete?$AA@ 1004a068     kaiguangai1108.obj
 0002:00001080       ??_C@_04EPKDLPPB@tout?$AA@ 1004a080     kaiguangai1108.obj
 0002:00001086       ??_C@_00CNPNBAHC@?$AA@     1004a086     kaiguangai1108.obj
 0002:00001088       ??_C@_03HBFGMJOD@rt_?$AA@  1004a088     kaiguangai1108.obj
 0002:0000108c       ??_C@_04DBHJIBAH@PCI1?$AA@ 1004a08c     kaiguangai1108.obj
 0002:00001094       ??_C@_0BN@HNMJPKIK@kaiguangai1108?1PCI?91756?1PCI1?$AA@ 1004a094     kaiguangai1108.obj
 0002:000010b8       ??_C@_04BKFENCME@PCI2?$AA@ 1004a0b8     kaiguangai1108.obj
 0002:000010c0       ??_C@_0BN@FGOEKJEJ@kaiguangai1108?1PCI?91756?1PCI2?$AA@ 1004a0c0     kaiguangai1108.obj
 0002:000010e4       ??_C@_04DEPODIF@PCI3?$AA@  1004a0e4     kaiguangai1108.obj
 0002:000010ec       ??_C@_0BN@EPPPJIAI@kaiguangai1108?1PCI?91756?1PCI3?$AA@ 1004a0ec     kaiguangai1108.obj
 0002:00001110       __real@3f60624dd2f1a9fc    1004a110     kaiguangai1108.obj
 0002:00001120       __real@3ff0000000000000    1004a120     kaiguangai1108.obj
 0002:00001130       __real@4000000000000000    1004a130     kaiguangai1108.obj
 0002:00001140       __real@4020000000000000    1004a140     kaiguangai1108.obj
 0002:00001150       __real@4028000000000000    1004a150     kaiguangai1108.obj
 0002:00001160       __real@406f400000000000    1004a160     kaiguangai1108.obj
 0002:00001170       __real@409f400000000000    1004a170     kaiguangai1108.obj
 0002:00001180       __real@40c7700000000000    1004a180     kaiguangai1108.obj
 0002:00001190       __real@41f0000000000000    1004a190     kaiguangai1108.obj
 0002:000011a0       __real@bff0000000000000    1004a1a0     kaiguangai1108.obj
 0002:000011b0       __xmm@41f00000000000000000000000000000 1004a1b0     kaiguangai1108.obj
 0002:00005f84       ??_C@_06FOHKINNM@jieshu?$AA@ 1004ef84     kaiguangai1108_capi.obj
 0002:00005f8c       ??_C@_05FAGFPHJG@start?$AA@ 1004ef8c     kaiguangai1108_capi.obj
 0002:00005f94       ??_C@_07PPFCMPKN@tiaoshi?$AA@ 1004ef94     kaiguangai1108_capi.obj
 0002:00005fa0       ??_C@_0BE@OJEOLOOG@zidong_shedingcishu?$AA@ 1004efa0     kaiguangai1108_capi.obj
 0002:00005fb8       ??_C@_0BF@GGMNNFDC@Data?5Type?5Conversion?$AA@ 1004efb8     kaiguangai1108_capi.obj
 0002:00005fd4       ??_C@_0BG@OOMJLOH@Data?5Type?5Conversion1?$AA@ 1004efd4     kaiguangai1108_capi.obj
 0002:00005ff0       ??_C@_0BG@CFMBMICE@Data?5Type?5Conversion2?$AA@ 1004eff0     kaiguangai1108_capi.obj
 0002:0000600c       ??_C@_0BG@DMNKPJGF@Data?5Type?5Conversion3?$AA@ 1004f00c     kaiguangai1108_capi.obj
 0002:00006028       ??_C@_06HLKELJGF@memory?$AA@ 1004f028     kaiguangai1108_capi.obj
 0002:00006030       ??_C@_07PLPODGNM@memory1?$AA@ 1004f030     kaiguangai1108_capi.obj
 0002:0000603c       ??_C@_0BB@HDIKJIBG@Multiport?5Switch?$AA@ 1004f03c     kaiguangai1108_capi.obj
 0002:00006050       ??_C@_0BC@DCPKDIHL@Multiport?5Switch1?$AA@ 1004f050     kaiguangai1108_capi.obj
 0002:00006068       ??_C@_0BC@BJNHGLLI@Multiport?5Switch2?$AA@ 1004f068     kaiguangai1108_capi.obj
 0002:00006080       ??_C@_07NACOIFMO@Switch3?$AA@ 1004f080     kaiguangai1108_capi.obj
 0002:0000608c       ??_C@_0BC@FDBAJBM@PCI?91756?1Constant?$AA@ 1004f08c     kaiguangai1108_capi.obj
 0002:000060a4       ??_C@_0BD@NCFJGKPE@PCI?91756?1Constant1?$AA@ 1004f0a4     kaiguangai1108_capi.obj
 0002:000060bc       ??_C@_0BP@HHONEBFF@PCI?91756?1Data?5Type?5Conversion1?$AA@ 1004f0bc     kaiguangai1108_capi.obj
 0002:000060e4       ??_C@_0BP@FMMABCJG@PCI?91756?1Data?5Type?5Conversion2?$AA@ 1004f0e4     kaiguangai1108_capi.obj
 0002:0000610c       ??_C@_0BP@EFNLCDNH@PCI?91756?1Data?5Type?5Conversion3?$AA@ 1004f10c     kaiguangai1108_capi.obj
 0002:00006134       ??_C@_0BP@KJKLFBA@PCI?91756?1Data?5Type?5Conversion4?$AA@ 1004f134     kaiguangai1108_capi.obj
 0002:0000615c       ??_C@_0BP@BDIBIEFB@PCI?91756?1Data?5Type?5Conversion5?$AA@ 1004f15c     kaiguangai1108_capi.obj
 0002:00006184       ??_C@_0BP@DIKMNHJC@PCI?91756?1Data?5Type?5Conversion6?$AA@ 1004f184     kaiguangai1108_capi.obj
 0002:000061ac       ??_C@_0BB@JIEOOBBK@PCI?91756?1PCI1?1p1?$AA@ 1004f1ac     kaiguangai1108_capi.obj
 0002:000061c0       ??_C@_0BB@LDGDLCNJ@PCI?91756?1PCI1?1p2?$AA@ 1004f1c0     kaiguangai1108_capi.obj
 0002:000061d4       ??_C@_0BB@NPOOJLMK@PCI?91756?1PCI2?1p1?$AA@ 1004f1d4     kaiguangai1108_capi.obj
 0002:000061e8       ??_C@_0BB@PEMDMIAJ@PCI?91756?1PCI2?1p2?$AA@ 1004f1e8     kaiguangai1108_capi.obj
 0002:000061fc       ??_C@_0BB@OCIOLCHK@PCI?91756?1PCI3?1p1?$AA@ 1004f1fc     kaiguangai1108_capi.obj
 0002:00006210       ??_C@_0BB@MJKDOBLJ@PCI?91756?1PCI3?1p2?$AA@ 1004f210     kaiguangai1108_capi.obj
 0002:00006224       ??_C@_0BB@IDBIMGAA@Subsystem1?1Chart?$AA@ 1004f224     kaiguangai1108_capi.obj
 0002:00006238       ??_C@_0BC@MGNOBPHE@Subsystem1?1Chart1?$AA@ 1004f238     kaiguangai1108_capi.obj
 0002:00006250       ??_C@_0CB@IGMDCBEF@Subsystem1?1Data?5Type?5Conversion1@ 1004f250     kaiguangai1108_capi.obj
 0002:00006278       ??_C@_0CB@KNOOHCIG@Subsystem1?1Data?5Type?5Conversion2@ 1004f278     kaiguangai1108_capi.obj
 0002:000062a0       ??_C@_0CB@PLLENFAA@Subsystem1?1Data?5Type?5Conversion4@ 1004f2a0     kaiguangai1108_capi.obj
 0002:000062c8       ??_C@_0CB@MJICLHIC@Subsystem1?1Data?5Type?5Conversion6@ 1004f2c8     kaiguangai1108_capi.obj
 0002:000062f0       ??_C@_0BM@MMIEOPDO@Subsystem1?1Logical?5Operator?$AA@ 1004f2f0     kaiguangai1108_capi.obj
 0002:00006314       ??_C@_0BN@HPAJOPG@Subsystem1?1Logical?5Operator1?$AA@ 1004f314     kaiguangai1108_capi.obj
 0002:00006338       ??_C@_0BN@CMNNMNDF@Subsystem1?1Logical?5Operator2?$AA@ 1004f338     kaiguangai1108_capi.obj
 0002:0000635c       ??_C@_0BN@DFMGPMHE@Subsystem1?1Logical?5Operator3?$AA@ 1004f35c     kaiguangai1108_capi.obj
 0002:00006380       ??_C@_0BN@HKIHGKLD@Subsystem1?1Logical?5Operator4?$AA@ 1004f380     kaiguangai1108_capi.obj
 0002:000063a4       ??_C@_0BN@GDJMFLPC@Subsystem1?1Logical?5Operator5?$AA@ 1004f3a4     kaiguangai1108_capi.obj
 0002:000063c8       ??_C@_0BM@DEJAFJKL@Subsystem1?1Multiport?5Switch?$AA@ 1004f3c8     kaiguangai1108_capi.obj
 0002:000063ec       ??_C@_0BN@IHGNONIL@Subsystem1?1Multiport?5Switch1?$AA@ 1004f3ec     kaiguangai1108_capi.obj
 0002:00006410       ??_C@_0BN@KMEALOEI@Subsystem1?1Multiport?5Switch2?$AA@ 1004f410     kaiguangai1108_capi.obj
 0002:00006434       ??_C@_0BN@LFFLIPAJ@Subsystem1?1Multiport?5Switch3?$AA@ 1004f434     kaiguangai1108_capi.obj
 0002:00006458       ??_C@_0BH@BJHEKHCM@shoudongcaozuo?1Product?$AA@ 1004f458     kaiguangai1108_capi.obj
 0002:00006474       ??_C@_0BI@PEJMBPPG@shoudongcaozuo?1Product1?$AA@ 1004f474     kaiguangai1108_capi.obj
 0002:00006490       ??_C@_0BI@NPLBEMDF@shoudongcaozuo?1Product2?$AA@ 1004f490     kaiguangai1108_capi.obj
 0002:000064ac       ??_C@_0BI@MGKKHNHE@shoudongcaozuo?1Product3?$AA@ 1004f4ac     kaiguangai1108_capi.obj
 0002:000064c8       ??_C@_0BI@IJOLOLLD@shoudongcaozuo?1Product4?$AA@ 1004f4c8     kaiguangai1108_capi.obj
 0002:000064e4       ??_C@_0BI@JAPANKPC@shoudongcaozuo?1Product5?$AA@ 1004f4e4     kaiguangai1108_capi.obj
 0002:00006500       ??_C@_0BI@LLNNIJDB@shoudongcaozuo?1Product6?$AA@ 1004f500     kaiguangai1108_capi.obj
 0002:0000651c       ??_C@_0BI@KCMGLIHA@shoudongcaozuo?1Product7?$AA@ 1004f51c     kaiguangai1108_capi.obj
 0002:00006538       ??_C@_0BH@OEJDOAAK@tiaoshidongzuo?1Product?$AA@ 1004f538     kaiguangai1108_capi.obj
 0002:00006554       ??_C@_0BI@CGGMHNEM@tiaoshidongzuo?1Product1?$AA@ 1004f554     kaiguangai1108_capi.obj
 0002:00006570       ??_C@_0BI@NEBCOIP@tiaoshidongzuo?1Product2?$AA@ 1004f570     kaiguangai1108_capi.obj
 0002:0000658c       ??_C@_0BI@BEFKBPMO@tiaoshidongzuo?1Product3?$AA@ 1004f58c     kaiguangai1108_capi.obj
 0002:000065a8       ??_C@_0BI@FLBLIJAJ@tiaoshidongzuo?1Product4?$AA@ 1004f5a8     kaiguangai1108_capi.obj
 0002:000065c4       ??_C@_0BI@ECAALIEI@tiaoshidongzuo?1Product5?$AA@ 1004f5c4     kaiguangai1108_capi.obj
 0002:000065e0       ??_C@_0BI@GJCNOLIL@tiaoshidongzuo?1Product6?$AA@ 1004f5e0     kaiguangai1108_capi.obj
 0002:000065fc       ??_C@_0BI@HADGNKMK@tiaoshidongzuo?1Product7?$AA@ 1004f5fc     kaiguangai1108_capi.obj
 0002:00006618       ??_C@_0BL@BFGIKEKJ@tiaoshimoshi?1jinjichuli?1p1?$AA@ 1004f618     kaiguangai1108_capi.obj
 0002:00006638       ??_C@_0BL@DOEFPHGK@tiaoshimoshi?1jinjichuli?1p2?$AA@ 1004f638     kaiguangai1108_capi.obj
 0002:00006658       ??_C@_0BL@CHFOMGCL@tiaoshimoshi?1jinjichuli?1p3?$AA@ 1004f658     kaiguangai1108_capi.obj
 0002:00006678       ??_C@_0BL@GIBPFAOM@tiaoshimoshi?1jinjichuli?1p4?$AA@ 1004f678     kaiguangai1108_capi.obj
 0002:00006698       ??_C@_0BM@FEKEKFLK@tiaoshimoshi?1jinjichuli1?1p1?$AA@ 1004f698     kaiguangai1108_capi.obj
 0002:000066bc       ??_C@_0BM@HPIJPGHJ@tiaoshimoshi?1jinjichuli1?1p2?$AA@ 1004f6bc     kaiguangai1108_capi.obj
 0002:000066e0       ??_C@_0BM@GGJCMHDI@tiaoshimoshi?1jinjichuli1?1p3?$AA@ 1004f6e0     kaiguangai1108_capi.obj
 0002:00006704       ??_C@_0BM@CJNDFBPP@tiaoshimoshi?1jinjichuli1?1p4?$AA@ 1004f704     kaiguangai1108_capi.obj
 0002:00006728       ??_C@_0BM@BDAENPGK@tiaoshimoshi?1jinjichuli2?1p1?$AA@ 1004f728     kaiguangai1108_capi.obj
 0002:0000674c       ??_C@_0BM@DICJIMKJ@tiaoshimoshi?1jinjichuli2?1p2?$AA@ 1004f74c     kaiguangai1108_capi.obj
 0002:00006770       ??_C@_0BM@CBDCLNOI@tiaoshimoshi?1jinjichuli2?1p3?$AA@ 1004f770     kaiguangai1108_capi.obj
 0002:00006794       ??_C@_0BM@GOHDCLCP@tiaoshimoshi?1jinjichuli2?1p4?$AA@ 1004f794     kaiguangai1108_capi.obj
 0002:000067b8       ??_C@_0BM@COGEPGNK@tiaoshimoshi?1jinjichuli3?1p1?$AA@ 1004f7b8     kaiguangai1108_capi.obj
 0002:000067dc       ??_C@_0BM@FEJKFBJ@tiaoshimoshi?1jinjichuli3?1p2?$AA@ 1004f7dc     kaiguangai1108_capi.obj
 0002:00006800       ??_C@_0BM@BMFCJEFI@tiaoshimoshi?1jinjichuli3?1p3?$AA@ 1004f800     kaiguangai1108_capi.obj
 0002:00006824       ??_C@_0BM@FDBDACJP@tiaoshimoshi?1jinjichuli3?1p4?$AA@ 1004f824     kaiguangai1108_capi.obj
 0002:00006848       ??_C@_0BM@JMEECKMK@tiaoshimoshi?1jinjichuli4?1p1?$AA@ 1004f848     kaiguangai1108_capi.obj
 0002:0000686c       ??_C@_0BM@LHGJHJAJ@tiaoshimoshi?1jinjichuli4?1p2?$AA@ 1004f86c     kaiguangai1108_capi.obj
 0002:00006890       ??_C@_0BM@KOHCEIEI@tiaoshimoshi?1jinjichuli4?1p3?$AA@ 1004f890     kaiguangai1108_capi.obj
 0002:000068b4       ??_C@_0BM@OBDDNOIP@tiaoshimoshi?1jinjichuli4?1p4?$AA@ 1004f8b4     kaiguangai1108_capi.obj
 0002:000068d8       ??_C@_0BM@KBCEADHK@tiaoshimoshi?1jinjichuli5?1p1?$AA@ 1004f8d8     kaiguangai1108_capi.obj
 0002:000068fc       ??_C@_0BM@IKAJFALJ@tiaoshimoshi?1jinjichuli5?1p2?$AA@ 1004f8fc     kaiguangai1108_capi.obj
 0002:00006920       ??_C@_0BM@JDBCGBPI@tiaoshimoshi?1jinjichuli5?1p3?$AA@ 1004f920     kaiguangai1108_capi.obj
 0002:00006944       ??_C@_0BM@NMFDPHDP@tiaoshimoshi?1jinjichuli5?1p4?$AA@ 1004f944     kaiguangai1108_capi.obj
 0002:00006968       ??_C@_0BM@OGIEHJKK@tiaoshimoshi?1jinjichuli6?1p1?$AA@ 1004f968     kaiguangai1108_capi.obj
 0002:0000698c       ??_C@_0BM@MNKJCKGJ@tiaoshimoshi?1jinjichuli6?1p2?$AA@ 1004f98c     kaiguangai1108_capi.obj
 0002:000069b0       ??_C@_0BM@NELCBLCI@tiaoshimoshi?1jinjichuli6?1p3?$AA@ 1004f9b0     kaiguangai1108_capi.obj
 0002:000069d4       ??_C@_0BM@JLPDINOP@tiaoshimoshi?1jinjichuli6?1p4?$AA@ 1004f9d4     kaiguangai1108_capi.obj
 0002:000069f8       ??_C@_0BM@NLOEFABK@tiaoshimoshi?1jinjichuli7?1p1?$AA@ 1004f9f8     kaiguangai1108_capi.obj
 0002:00006a1c       ??_C@_0BM@PAMJADNJ@tiaoshimoshi?1jinjichuli7?1p2?$AA@ 1004fa1c     kaiguangai1108_capi.obj
 0002:00006a40       ??_C@_0BM@OJNCDCJI@tiaoshimoshi?1jinjichuli7?1p3?$AA@ 1004fa40     kaiguangai1108_capi.obj
 0002:00006a64       ??_C@_0BM@KGJDKEFP@tiaoshimoshi?1jinjichuli7?1p4?$AA@ 1004fa64     kaiguangai1108_capi.obj
 0002:00006a88       ??_C@_0BO@EBMJJONL@tiaoshimoshi?1Logical?5Operator?$AA@ 1004fa88     kaiguangai1108_capi.obj
 0002:00006aac       ??_C@_0BP@NHBNMFHA@tiaoshimoshi?1Logical?5Operator1?$AA@ 1004faac     kaiguangai1108_capi.obj
 0002:00006ad4       ??_C@_0BP@KKGKDBDF@tiaoshimoshi?1Logical?5Operator4?$AA@ 1004fad4     kaiguangai1108_capi.obj
 0002:00006afc       ??_C@_0BP@LDHBAAHE@tiaoshimoshi?1Logical?5Operator5?$AA@ 1004fafc     kaiguangai1108_capi.obj
 0002:00006b24       ??_C@_0BI@HALFPCCD@zidong_jiangeshijian?1t1?$AA@ 1004fb24     kaiguangai1108_capi.obj
 0002:00006b40       ??_C@_0BF@OBGNNHA@?K?I?$LP?$KK?V?A?$LP?$KK?$LI?G?$LF?D?$LM?d?$LI?t?J?$LB?$LM?d?$AA@ 1004fb40     kaiguangai1108_capi.obj
 0002:00006b5c       ??_C@_0BJ@GEEKMDDC@zidong_jiangeshijian?1t11?$AA@ 1004fb5c     kaiguangai1108_capi.obj
 0002:00006b7c       ??_C@_0BF@FKDNKCM@?Q?$LJ?$LN?t?V?A?K?I?$LP?$KK?$LF?D?$LM?d?$LI?t?J?$LB?$LM?d?$AA@ 1004fb7c     kaiguangai1108_capi.obj
 0002:00006b98       ??_C@_0BI@ECIDJAKB@zidong_jiangeshijian?1t3?$AA@ 1004fb98     kaiguangai1108_capi.obj
 0002:00006bb4       ??_C@_0BF@LENNBP@?$LP?$KK?$LI?G?V?A?K?x?$LG?$KI?$LF?D?$LM?d?$LI?t?J?$LB?$LM?d?$AA@ 1004fbb4     kaiguangai1108_capi.obj
 0002:00006bd0       ??_C@_0BI@BENJDHCH@zidong_jiangeshijian?1t5?$AA@ 1004fbd0     kaiguangai1108_capi.obj
 0002:00006bec       ??_C@_0BF@PBDJAKCP@?K?x?$LG?$KI?V?A?$LN?b?K?x?$LF?D?$LM?d?$LI?t?J?$LB?$LM?d?$AA@ 1004fbec     kaiguangai1108_capi.obj
 0002:00006c08       ??_C@_0BI@CGOPFFKF@zidong_jiangeshijian?1t7?$AA@ 1004fc08     kaiguangai1108_capi.obj
 0002:00006c24       ??_C@_0BF@NBMPCBDF@?$LN?b?K?x?V?A?$LJ?X?$LI?G?$LF?D?$LM?d?$LI?t?J?$LB?$LM?d?$AA@ 1004fc24     kaiguangai1108_capi.obj
 0002:00006c40       ??_C@_0BI@LIGMHICL@zidong_jiangeshijian?1t9?$AA@ 1004fc40     kaiguangai1108_capi.obj
 0002:00006c5c       ??_C@_0BF@NCOGKJJN@?$LJ?X?$LI?G?V?A?Q?$LJ?$LN?t?$LF?D?$LM?d?$LI?t?J?$LB?$LM?d?$AA@ 1004fc5c     kaiguangai1108_capi.obj
 0002:00006c78       ??_C@_0BN@EKKFKIBJ@Subsystem1?1shoudong?1Chart?1p1?$AA@ 1004fc78     kaiguangai1108_capi.obj
 0002:00006c9c       ??_C@_0BN@GBIIPLNK@Subsystem1?1shoudong?1Chart?1p2?$AA@ 1004fc9c     kaiguangai1108_capi.obj
 0002:00006cc0       ??_C@_0BN@HIJDMKJL@Subsystem1?1shoudong?1Chart?1p3?$AA@ 1004fcc0     kaiguangai1108_capi.obj
 0002:00006ce4       ??_C@_0BN@DHNCFMFM@Subsystem1?1shoudong?1Chart?1p4?$AA@ 1004fce4     kaiguangai1108_capi.obj
 0002:00006d08       ??_C@_0BN@COMJGNBN@Subsystem1?1shoudong?1Chart?1p5?$AA@ 1004fd08     kaiguangai1108_capi.obj
 0002:00006d2c       ??_C@_0BN@FOEDONO@Subsystem1?1shoudong?1Chart?1p6?$AA@ 1004fd2c     kaiguangai1108_capi.obj
 0002:00006d50       ??_C@_0BN@BMPPAPJP@Subsystem1?1shoudong?1Chart?1p7?$AA@ 1004fd50     kaiguangai1108_capi.obj
 0002:00006d74       ??_C@_0BN@JLGHBDFA@Subsystem1?1shoudong?1Chart?1p8?$AA@ 1004fd74     kaiguangai1108_capi.obj
 0002:00006d98       ??_C@_0BN@ICHMCCBB@Subsystem1?1shoudong?1Chart?1p9?$AA@ 1004fd98     kaiguangai1108_capi.obj
 0002:00006dbc       ??_C@_0BO@LLGHDLJL@Subsystem1?1shoudong?1Chart?1p10?$AA@ 1004fdbc     kaiguangai1108_capi.obj
 0002:00006de0       ??_C@_0BO@KCHMAKNK@Subsystem1?1shoudong?1Chart?1p11?$AA@ 1004fde0     kaiguangai1108_capi.obj
 0002:00006e04       ??_C@_0BO@IJFBFJBJ@Subsystem1?1shoudong?1Chart?1p12?$AA@ 1004fe04     kaiguangai1108_capi.obj
 0002:00006e28       ??_C@_0BO@JAEKGIFI@Subsystem1?1shoudong?1Chart?1p13?$AA@ 1004fe28     kaiguangai1108_capi.obj
 0002:00006e4c       ??_C@_0BO@NPALPOJP@Subsystem1?1shoudong?1Chart?1p14?$AA@ 1004fe4c     kaiguangai1108_capi.obj
 0002:00006e70       ??_C@_0BO@MGBAMPNO@Subsystem1?1shoudong?1Chart?1p15?$AA@ 1004fe70     kaiguangai1108_capi.obj
 0002:00006e94       ??_C@_0BO@ONDNJMBN@Subsystem1?1shoudong?1Chart?1p16?$AA@ 1004fe94     kaiguangai1108_capi.obj
 0002:00006eb8       ??_C@_0BO@PECGKNFM@Subsystem1?1shoudong?1Chart?1p17?$AA@ 1004feb8     kaiguangai1108_capi.obj
 0002:00006edc       ??_C@_0BO@HDLOLBJD@Subsystem1?1shoudong?1Chart?1p18?$AA@ 1004fedc     kaiguangai1108_capi.obj
 0002:00006f00       ??_C@_0BO@GKKFIANC@Subsystem1?1shoudong?1Chart?1p19?$AA@ 1004ff00     kaiguangai1108_capi.obj
 0002:00006f24       ??_C@_0BO@LJCBIFMC@Subsystem1?1shoudong?1Chart?1p20?$AA@ 1004ff24     kaiguangai1108_capi.obj
 0002:00006f48       ??_C@_0BO@JPJKNLDK@Subsystem1?1shoudong?1Chart1?1p1?$AA@ 1004ff48     kaiguangai1108_capi.obj
 0002:00006f6c       ??_C@_0BO@LELHIIPJ@Subsystem1?1shoudong?1Chart1?1p2?$AA@ 1004ff6c     kaiguangai1108_capi.obj
 0002:00006f90       ??_C@_0BO@KNKMLJLI@Subsystem1?1shoudong?1Chart1?1p3?$AA@ 1004ff90     kaiguangai1108_capi.obj
 0002:00006fb4       ??_C@_0BO@OCONCPHP@Subsystem1?1shoudong?1Chart1?1p4?$AA@ 1004ffb4     kaiguangai1108_capi.obj
 0002:00006fd8       ??_C@_0BO@PLPGBODO@Subsystem1?1shoudong?1Chart1?1p5?$AA@ 1004ffd8     kaiguangai1108_capi.obj
 0002:00006ffc       ??_C@_0BO@NANLENPN@Subsystem1?1shoudong?1Chart1?1p6?$AA@ 1004fffc     kaiguangai1108_capi.obj
 0002:00007020       ??_C@_0BO@MJMAHMLM@Subsystem1?1shoudong?1Chart1?1p7?$AA@ 10050020     kaiguangai1108_capi.obj
 0002:00007044       ??_C@_0BO@EOFIGAHD@Subsystem1?1shoudong?1Chart1?1p8?$AA@ 10050044     kaiguangai1108_capi.obj
 0002:00007068       ??_C@_0BO@FHEDFBDC@Subsystem1?1shoudong?1Chart1?1p9?$AA@ 10050068     kaiguangai1108_capi.obj
 0002:0000708c       ??_C@_0BP@BJNFHFJK@Subsystem1?1shoudong?1Chart1?1p10?$AA@ 1005008c     kaiguangai1108_capi.obj
 0002:000070b4       ??_C@_0BP@MOEENL@Subsystem1?1shoudong?1Chart1?1p11?$AA@ 100500b4     kaiguangai1108_capi.obj
 0002:000070dc       ??_C@_0BP@CLODBHBI@Subsystem1?1shoudong?1Chart1?1p12?$AA@ 100500dc     kaiguangai1108_capi.obj
 0002:00007104       ??_C@_0BP@DCPICGFJ@Subsystem1?1shoudong?1Chart1?1p13?$AA@ 10050104     kaiguangai1108_capi.obj
 0002:0000712c       ??_C@_0BP@HNLJLAJO@Subsystem1?1shoudong?1Chart1?1p14?$AA@ 1005012c     kaiguangai1108_capi.obj
 0002:00007154       ??_C@_0BP@GEKCIBNP@Subsystem1?1shoudong?1Chart1?1p15?$AA@ 10050154     kaiguangai1108_capi.obj
 0002:0000717c       ??_C@_0BP@EPIPNCBM@Subsystem1?1shoudong?1Chart1?1p16?$AA@ 1005017c     kaiguangai1108_capi.obj
 0002:000071a4       ??_C@_0BP@FGJEODFN@Subsystem1?1shoudong?1Chart1?1p17?$AA@ 100501a4     kaiguangai1108_capi.obj
 0002:000071cc       ??_C@_0BP@NBAMPPJC@Subsystem1?1shoudong?1Chart1?1p18?$AA@ 100501cc     kaiguangai1108_capi.obj
 0002:000071f4       ??_C@_0BP@MIBHMOND@Subsystem1?1shoudong?1Chart1?1p19?$AA@ 100501f4     kaiguangai1108_capi.obj
 0002:0000721c       ??_C@_0BP@BLJDMLMD@Subsystem1?1shoudong?1Chart1?1p20?$AA@ 1005021c     kaiguangai1108_capi.obj
 0002:00007244       ??_C@_0BO@NIDKKBOK@Subsystem1?1shoudong?1Chart2?1p1?$AA@ 10050244     kaiguangai1108_capi.obj
 0002:00007268       ??_C@_0BO@PDBHPCCJ@Subsystem1?1shoudong?1Chart2?1p2?$AA@ 10050268     kaiguangai1108_capi.obj
 0002:0000728c       ??_C@_0BO@OKAMMDGI@Subsystem1?1shoudong?1Chart2?1p3?$AA@ 1005028c     kaiguangai1108_capi.obj
 0002:000072b0       ??_C@_0BO@KFENFFKP@Subsystem1?1shoudong?1Chart2?1p4?$AA@ 100502b0     kaiguangai1108_capi.obj
 0002:000072d4       ??_C@_0BO@LMFGGEOO@Subsystem1?1shoudong?1Chart2?1p5?$AA@ 100502d4     kaiguangai1108_capi.obj
 0002:000072f8       ??_C@_0BO@JHHLDHCN@Subsystem1?1shoudong?1Chart2?1p6?$AA@ 100502f8     kaiguangai1108_capi.obj
 0002:0000731c       ??_C@_0BO@IOGAAGGM@Subsystem1?1shoudong?1Chart2?1p7?$AA@ 1005031c     kaiguangai1108_capi.obj
 0002:00007340       ??_C@_0BO@JPIBKKD@Subsystem1?1shoudong?1Chart2?1p8?$AA@ 10050340     kaiguangai1108_capi.obj
 0002:00007364       ??_C@_0BO@BAODCLOC@Subsystem1?1shoudong?1Chart2?1p9?$AA@ 10050364     kaiguangai1108_capi.obj
 0002:00007388       ??_C@_0BP@JPEBAHDE@Subsystem1?1shoudong?1Chart2?1p10?$AA@ 10050388     kaiguangai1108_capi.obj
 0002:000073b0       ??_C@_0BP@IGFKDGHF@Subsystem1?1shoudong?1Chart2?1p11?$AA@ 100503b0     kaiguangai1108_capi.obj
 0002:000073d8       ??_C@_0BP@KNHHGFLG@Subsystem1?1shoudong?1Chart2?1p12?$AA@ 100503d8     kaiguangai1108_capi.obj
 0002:00007400       ??_C@_0BP@LEGMFEPH@Subsystem1?1shoudong?1Chart2?1p13?$AA@ 10050400     kaiguangai1108_capi.obj
 0002:00007428       ??_C@_0BP@PLCNMCDA@Subsystem1?1shoudong?1Chart2?1p14?$AA@ 10050428     kaiguangai1108_capi.obj
 0002:00007450       ??_C@_0BP@OCDGPDHB@Subsystem1?1shoudong?1Chart2?1p15?$AA@ 10050450     kaiguangai1108_capi.obj
 0002:00007478       ??_C@_0BP@MJBLKALC@Subsystem1?1shoudong?1Chart2?1p16?$AA@ 10050478     kaiguangai1108_capi.obj
 0002:000074a0       ??_C@_0BP@NAAAJBPD@Subsystem1?1shoudong?1Chart2?1p17?$AA@ 100504a0     kaiguangai1108_capi.obj
 0002:000074c8       ??_C@_0BP@FHJIINDM@Subsystem1?1shoudong?1Chart2?1p18?$AA@ 100504c8     kaiguangai1108_capi.obj
 0002:000074f0       ??_C@_0BP@EOIDLMHN@Subsystem1?1shoudong?1Chart2?1p19?$AA@ 100504f0     kaiguangai1108_capi.obj
 0002:00007518       ??_C@_0BP@JNAHLJGN@Subsystem1?1shoudong?1Chart2?1p20?$AA@ 10050518     kaiguangai1108_capi.obj
 0002:00007540       ??_C@_0BO@OFFKIIFK@Subsystem1?1shoudong?1Chart3?1p1?$AA@ 10050540     kaiguangai1108_capi.obj
 0002:00007564       ??_C@_0BO@MOHHNLJJ@Subsystem1?1shoudong?1Chart3?1p2?$AA@ 10050564     kaiguangai1108_capi.obj
 0002:00007588       ??_C@_0BO@NHGMOKNI@Subsystem1?1shoudong?1Chart3?1p3?$AA@ 10050588     kaiguangai1108_capi.obj
 0002:000075ac       ??_C@_0BO@JICNHMBP@Subsystem1?1shoudong?1Chart3?1p4?$AA@ 100505ac     kaiguangai1108_capi.obj
 0002:000075d0       ??_C@_0BO@IBDGENFO@Subsystem1?1shoudong?1Chart3?1p5?$AA@ 100505d0     kaiguangai1108_capi.obj
 0002:000075f4       ??_C@_0BO@KKBLBOJN@Subsystem1?1shoudong?1Chart3?1p6?$AA@ 100505f4     kaiguangai1108_capi.obj
 0002:00007618       ??_C@_0BO@LDAACPNM@Subsystem1?1shoudong?1Chart3?1p7?$AA@ 10050618     kaiguangai1108_capi.obj
 0002:0000763c       ??_C@_0BO@DEJIDDBD@Subsystem1?1shoudong?1Chart3?1p8?$AA@ 1005063c     kaiguangai1108_capi.obj
 0002:00007660       ??_C@_0BO@CNIDACFC@Subsystem1?1shoudong?1Chart3?1p9?$AA@ 10050660     kaiguangai1108_capi.obj
 0002:00007684       ??_C@_0BP@FEBNNEJB@Subsystem1?1shoudong?1Chart3?1p10?$AA@ 10050684     kaiguangai1108_capi.obj
 0002:000076ac       ??_C@_0BP@ENAGOFNA@Subsystem1?1shoudong?1Chart3?1p11?$AA@ 100506ac     kaiguangai1108_capi.obj
 0002:000076d4       ??_C@_0BP@GGCLLGBD@Subsystem1?1shoudong?1Chart3?1p12?$AA@ 100506d4     kaiguangai1108_capi.obj
 0002:000076fc       ??_C@_0BP@HPDAIHFC@Subsystem1?1shoudong?1Chart3?1p13?$AA@ 100506fc     kaiguangai1108_capi.obj
 0002:00007724       ??_C@_0BP@DAHBBBJF@Subsystem1?1shoudong?1Chart3?1p14?$AA@ 10050724     kaiguangai1108_capi.obj
 0002:0000774c       ??_C@_0BP@CJGKCANE@Subsystem1?1shoudong?1Chart3?1p15?$AA@ 1005074c     kaiguangai1108_capi.obj
 0002:00007774       ??_C@_0BP@CEHHDBH@Subsystem1?1shoudong?1Chart3?1p16?$AA@ 10050774     kaiguangai1108_capi.obj
 0002:0000779c       ??_C@_0BP@BLFMECFG@Subsystem1?1shoudong?1Chart3?1p17?$AA@ 1005079c     kaiguangai1108_capi.obj
 0002:000077c4       ??_C@_0BP@JMMEFOJJ@Subsystem1?1shoudong?1Chart3?1p18?$AA@ 100507c4     kaiguangai1108_capi.obj
 0002:000077ec       ??_C@_0BP@IFNPGPNI@Subsystem1?1shoudong?1Chart3?1p19?$AA@ 100507ec     kaiguangai1108_capi.obj
 0002:00007814       ??_C@_0BP@FGFLGKMI@Subsystem1?1shoudong?1Chart3?1p20?$AA@ 10050814     kaiguangai1108_capi.obj
 0002:0000783c       ??_C@_0BO@FHHKFEEK@Subsystem1?1shoudong?1Chart4?1p1?$AA@ 1005083c     kaiguangai1108_capi.obj
 0002:00007860       ??_C@_0BO@HMFHAHIJ@Subsystem1?1shoudong?1Chart4?1p2?$AA@ 10050860     kaiguangai1108_capi.obj
 0002:00007884       ??_C@_0BO@GFEMDGMI@Subsystem1?1shoudong?1Chart4?1p3?$AA@ 10050884     kaiguangai1108_capi.obj
 0002:000078a8       ??_C@_0BO@CKANKAAP@Subsystem1?1shoudong?1Chart4?1p4?$AA@ 100508a8     kaiguangai1108_capi.obj
 0002:000078cc       ??_C@_0BO@DDBGJBEO@Subsystem1?1shoudong?1Chart4?1p5?$AA@ 100508cc     kaiguangai1108_capi.obj
 0002:000078f0       ??_C@_0BO@BIDLMCIN@Subsystem1?1shoudong?1Chart4?1p6?$AA@ 100508f0     kaiguangai1108_capi.obj
 0002:00007914       ??_C@_0BO@BCAPDMM@Subsystem1?1shoudong?1Chart4?1p7?$AA@ 10050914     kaiguangai1108_capi.obj
 0002:00007938       ??_C@_0BO@IGLIOPAD@Subsystem1?1shoudong?1Chart4?1p8?$AA@ 10050938     kaiguangai1108_capi.obj
 0002:0000795c       ??_C@_0BO@JPKDNOEC@Subsystem1?1shoudong?1Chart4?1p9?$AA@ 1005095c     kaiguangai1108_capi.obj
 0002:00007980       ??_C@_0BP@EJBIOECJ@Subsystem1?1shoudong?1Chart4?1p10?$AA@ 10050980     kaiguangai1108_capi.obj
 0002:000079a8       ??_C@_0BP@FAADNFGI@Subsystem1?1shoudong?1Chart4?1p11?$AA@ 100509a8     kaiguangai1108_capi.obj
 0002:000079d0       ??_C@_0BP@HLCOIGKL@Subsystem1?1shoudong?1Chart4?1p12?$AA@ 100509d0     kaiguangai1108_capi.obj
 0002:000079f8       ??_C@_0BP@GCDFLHOK@Subsystem1?1shoudong?1Chart4?1p13?$AA@ 100509f8     kaiguangai1108_capi.obj
 0002:00007a20       ??_C@_0BP@CNHECBCN@Subsystem1?1shoudong?1Chart4?1p14?$AA@ 10050a20     kaiguangai1108_capi.obj
 0002:00007a48       ??_C@_0BP@DEGPBAGM@Subsystem1?1shoudong?1Chart4?1p15?$AA@ 10050a48     kaiguangai1108_capi.obj
 0002:00007a70       ??_C@_0BP@BPECEDKP@Subsystem1?1shoudong?1Chart4?1p16?$AA@ 10050a70     kaiguangai1108_capi.obj
 0002:00007a98       ??_C@_0BP@GFJHCOO@Subsystem1?1shoudong?1Chart4?1p17?$AA@ 10050a98     kaiguangai1108_capi.obj
 0002:00007ac0       ??_C@_0BP@IBMBGOCB@Subsystem1?1shoudong?1Chart4?1p18?$AA@ 10050ac0     kaiguangai1108_capi.obj
 0002:00007ae8       ??_C@_0BP@JINKFPGA@Subsystem1?1shoudong?1Chart4?1p19?$AA@ 10050ae8     kaiguangai1108_capi.obj
 0002:00007b10       ??_C@_0BP@ELFOFKHA@Subsystem1?1shoudong?1Chart4?1p20?$AA@ 10050b10     kaiguangai1108_capi.obj
 0002:00007b38       ??_C@_0BO@GKBKHNPK@Subsystem1?1shoudong?1Chart5?1p1?$AA@ 10050b38     kaiguangai1108_capi.obj
 0002:00007b5c       ??_C@_0BO@EBDHCODJ@Subsystem1?1shoudong?1Chart5?1p2?$AA@ 10050b5c     kaiguangai1108_capi.obj
 0002:00007b80       ??_C@_0BO@FICMBPHI@Subsystem1?1shoudong?1Chart5?1p3?$AA@ 10050b80     kaiguangai1108_capi.obj
 0002:00007ba4       ??_C@_0BO@BHGNIJLP@Subsystem1?1shoudong?1Chart5?1p4?$AA@ 10050ba4     kaiguangai1108_capi.obj
 0002:00007bc8       ??_C@_0BO@OHGLIPO@Subsystem1?1shoudong?1Chart5?1p5?$AA@ 10050bc8     kaiguangai1108_capi.obj
 0002:00007bec       ??_C@_0BO@CFFLOLDN@Subsystem1?1shoudong?1Chart5?1p6?$AA@ 10050bec     kaiguangai1108_capi.obj
 0002:00007c10       ??_C@_0BO@DMEANKHM@Subsystem1?1shoudong?1Chart5?1p7?$AA@ 10050c10     kaiguangai1108_capi.obj
 0002:00007c34       ??_C@_0BO@LLNIMGLD@Subsystem1?1shoudong?1Chart5?1p8?$AA@ 10050c34     kaiguangai1108_capi.obj
 0002:00007c58       ??_C@_0BO@KCMDPHPC@Subsystem1?1shoudong?1Chart5?1p9?$AA@ 10050c58     kaiguangai1108_capi.obj
 0002:00007c7c       ??_C@_0BP@ICEEDHIM@Subsystem1?1shoudong?1Chart5?1p10?$AA@ 10050c7c     kaiguangai1108_capi.obj
 0002:00007ca4       ??_C@_0BP@JLFPAGMN@Subsystem1?1shoudong?1Chart5?1p11?$AA@ 10050ca4     kaiguangai1108_capi.obj
 0002:00007ccc       ??_C@_0BP@LAHCFFAO@Subsystem1?1shoudong?1Chart5?1p12?$AA@ 10050ccc     kaiguangai1108_capi.obj
 0002:00007cf4       ??_C@_0BP@KJGJGEEP@Subsystem1?1shoudong?1Chart5?1p13?$AA@ 10050cf4     kaiguangai1108_capi.obj
 0002:00007d1c       ??_C@_0BP@OGCIPCII@Subsystem1?1shoudong?1Chart5?1p14?$AA@ 10050d1c     kaiguangai1108_capi.obj
 0002:00007d44       ??_C@_0BP@PPDDMDMJ@Subsystem1?1shoudong?1Chart5?1p15?$AA@ 10050d44     kaiguangai1108_capi.obj
 0002:00007d6c       ??_C@_0BP@NEBOJAAK@Subsystem1?1shoudong?1Chart5?1p16?$AA@ 10050d6c     kaiguangai1108_capi.obj
 0002:00007d94       ??_C@_0BP@MNAFKBEL@Subsystem1?1shoudong?1Chart5?1p17?$AA@ 10050d94     kaiguangai1108_capi.obj
 0002:00007dbc       ??_C@_0BP@EKJNLNIE@Subsystem1?1shoudong?1Chart5?1p18?$AA@ 10050dbc     kaiguangai1108_capi.obj
 0002:00007de4       ??_C@_0BP@FDIGIMMF@Subsystem1?1shoudong?1Chart5?1p19?$AA@ 10050de4     kaiguangai1108_capi.obj
 0002:00007e0c       ??_C@_0BP@IAACIJNF@Subsystem1?1shoudong?1Chart5?1p20?$AA@ 10050e0c     kaiguangai1108_capi.obj
 0002:00007e34       ??_C@_0BO@CNLKAHCK@Subsystem1?1shoudong?1Chart6?1p1?$AA@ 10050e34     kaiguangai1108_capi.obj
 0002:00007e58       ??_C@_0BO@GJHFEOJ@Subsystem1?1shoudong?1Chart6?1p2?$AA@ 10050e58     kaiguangai1108_capi.obj
 0002:00007e7c       ??_C@_0BO@BPIMGFKI@Subsystem1?1shoudong?1Chart6?1p3?$AA@ 10050e7c     kaiguangai1108_capi.obj
 0002:00007ea0       ??_C@_0BO@FAMNPDGP@Subsystem1?1shoudong?1Chart6?1p4?$AA@ 10050ea0     kaiguangai1108_capi.obj
 0002:00007ec4       ??_C@_0BO@EJNGMCCO@Subsystem1?1shoudong?1Chart6?1p5?$AA@ 10050ec4     kaiguangai1108_capi.obj
 0002:00007ee8       ??_C@_0BO@GCPLJBON@Subsystem1?1shoudong?1Chart6?1p6?$AA@ 10050ee8     kaiguangai1108_capi.obj
 0002:00007f0c       ??_C@_0BO@HLOAKAKM@Subsystem1?1shoudong?1Chart6?1p7?$AA@ 10050f0c     kaiguangai1108_capi.obj
 0002:00007f30       ??_C@_0BO@PMHILMGD@Subsystem1?1shoudong?1Chart6?1p8?$AA@ 10050f30     kaiguangai1108_capi.obj
 0002:00007f54       ??_C@_0BO@OFGDINCC@Subsystem1?1shoudong?1Chart6?1p9?$AA@ 10050f54     kaiguangai1108_capi.obj
 0002:00007f78       ??_C@_0BP@ENAEFCC@Subsystem1?1shoudong?1Chart6?1p10?$AA@ 10050f78     kaiguangai1108_capi.obj
 0002:00007fa0       ??_C@_0BP@BNMLHEGD@Subsystem1?1shoudong?1Chart6?1p11?$AA@ 10050fa0     kaiguangai1108_capi.obj
 0002:00007fc8       ??_C@_0BP@DGOGCHKA@Subsystem1?1shoudong?1Chart6?1p12?$AA@ 10050fc8     kaiguangai1108_capi.obj
 0002:00007ff0       ??_C@_0BP@CPPNBGOB@Subsystem1?1shoudong?1Chart6?1p13?$AA@ 10050ff0     kaiguangai1108_capi.obj
 0002:00008018       ??_C@_0BP@GALMIACG@Subsystem1?1shoudong?1Chart6?1p14?$AA@ 10051018     kaiguangai1108_capi.obj
 0002:00008040       ??_C@_0BP@HJKHLBGH@Subsystem1?1shoudong?1Chart6?1p15?$AA@ 10051040     kaiguangai1108_capi.obj
 0002:00008068       ??_C@_0BP@FCIKOCKE@Subsystem1?1shoudong?1Chart6?1p16?$AA@ 10051068     kaiguangai1108_capi.obj
 0002:00008090       ??_C@_0BP@ELJBNDOF@Subsystem1?1shoudong?1Chart6?1p17?$AA@ 10051090     kaiguangai1108_capi.obj
 0002:000080b8       ??_C@_0BP@MMAJMPCK@Subsystem1?1shoudong?1Chart6?1p18?$AA@ 100510b8     kaiguangai1108_capi.obj
 0002:000080e0       ??_C@_0BP@NFBCPOGL@Subsystem1?1shoudong?1Chart6?1p19?$AA@ 100510e0     kaiguangai1108_capi.obj
 0002:00008108       ??_C@_0BP@GJGPLHL@Subsystem1?1shoudong?1Chart6?1p20?$AA@ 10051108     kaiguangai1108_capi.obj
 0002:00008130       ??_C@_0BO@BANKCOJK@Subsystem1?1shoudong?1Chart7?1p1?$AA@ 10051130     kaiguangai1108_capi.obj
 0002:00008154       ??_C@_0BO@DLPHHNFJ@Subsystem1?1shoudong?1Chart7?1p2?$AA@ 10051154     kaiguangai1108_capi.obj
 0002:00008178       ??_C@_0BO@CCOMEMBI@Subsystem1?1shoudong?1Chart7?1p3?$AA@ 10051178     kaiguangai1108_capi.obj
 0002:0000819c       ??_C@_0BO@GNKNNKNP@Subsystem1?1shoudong?1Chart7?1p4?$AA@ 1005119c     kaiguangai1108_capi.obj
 0002:000081c0       ??_C@_0BO@HELGOLJO@Subsystem1?1shoudong?1Chart7?1p5?$AA@ 100511c0     kaiguangai1108_capi.obj
 0002:000081e4       ??_C@_0BO@FPJLLIFN@Subsystem1?1shoudong?1Chart7?1p6?$AA@ 100511e4     kaiguangai1108_capi.obj
 0002:00008208       ??_C@_0BO@EGIAIJBM@Subsystem1?1shoudong?1Chart7?1p7?$AA@ 10051208     kaiguangai1108_capi.obj
 0002:0000822c       ??_C@_0BO@MBBIJFND@Subsystem1?1shoudong?1Chart7?1p8?$AA@ 1005122c     kaiguangai1108_capi.obj
 0002:00008250       ??_C@_0BO@NIADKEJC@Subsystem1?1shoudong?1Chart7?1p9?$AA@ 10051250     kaiguangai1108_capi.obj
 0002:00008274       ??_C@_0BP@MPIMJGIH@Subsystem1?1shoudong?1Chart7?1p10?$AA@ 10051274     kaiguangai1108_capi.obj
 0002:0000829c       ??_C@_0BP@NGJHKHMG@Subsystem1?1shoudong?1Chart7?1p11?$AA@ 1005129c     kaiguangai1108_capi.obj
 0002:000082c4       ??_C@_0BP@PNLKPEAF@Subsystem1?1shoudong?1Chart7?1p12?$AA@ 100512c4     kaiguangai1108_capi.obj
 0002:000082ec       ??_C@_0BP@OEKBMFEE@Subsystem1?1shoudong?1Chart7?1p13?$AA@ 100512ec     kaiguangai1108_capi.obj
 0002:00008314       ??_C@_0BP@KLOAFDID@Subsystem1?1shoudong?1Chart7?1p14?$AA@ 10051314     kaiguangai1108_capi.obj
 0002:0000833c       ??_C@_0BP@LCPLGCMC@Subsystem1?1shoudong?1Chart7?1p15?$AA@ 1005133c     kaiguangai1108_capi.obj
 0002:00008364       ??_C@_0BP@JJNGDBAB@Subsystem1?1shoudong?1Chart7?1p16?$AA@ 10051364     kaiguangai1108_capi.obj
 0002:0000838c       ??_C@_0BP@IAMNAAEA@Subsystem1?1shoudong?1Chart7?1p17?$AA@ 1005138c     kaiguangai1108_capi.obj
 0002:000083b4       ??_C@_0BP@HFFBMIP@Subsystem1?1shoudong?1Chart7?1p18?$AA@ 100513b4     kaiguangai1108_capi.obj
 0002:000083dc       ??_C@_0BP@BOEOCNMO@Subsystem1?1shoudong?1Chart7?1p19?$AA@ 100513dc     kaiguangai1108_capi.obj
 0002:00008404       ??_C@_0BP@MNMKCINO@Subsystem1?1shoudong?1Chart7?1p20?$AA@ 10051404     kaiguangai1108_capi.obj
 0002:0000842c       ??_C@_0CK@GOMPDCEK@Subsystem1?1shoudong?1Data?5Type?5Co@ 1005142c     kaiguangai1108_capi.obj
 0002:00008460       ??_C@_0CL@EJCBFBEP@Subsystem1?1shoudong?1Data?5Type?5Co@ 10051460     kaiguangai1108_capi.obj
 0002:00008494       ??_C@_0CK@EFOCGBIJ@Subsystem1?1shoudong?1Data?5Type?5Co@ 10051494     kaiguangai1108_capi.obj
 0002:000084c8       ??_C@_0CK@KKDPHEO@Subsystem1?1shoudong?1Data?5Type?5Co@ 100514c8     kaiguangai1108_capi.obj
 0002:000084fc       ??_C@_0CK@CBIOKEIN@Subsystem1?1shoudong?1Data?5Type?5Co@ 100514fc     kaiguangai1108_capi.obj
 0002:00008530       ??_C@_0CK@DIJFJFMM@Subsystem1?1shoudong?1Data?5Type?5Co@ 10051530     kaiguangai1108_capi.obj
 0002:00008564       ??_C@_0CK@LPANIJAD@Subsystem1?1shoudong?1Data?5Type?5Co@ 10051564     kaiguangai1108_capi.obj
 0002:00008598       ??_C@_0CK@KGBGLIEC@Subsystem1?1shoudong?1Data?5Type?5Co@ 10051598     kaiguangai1108_capi.obj
 0002:000085cc       ??_C@_0CF@CMBNHLEI@Subsystem1?1shoudong?1Logical?5Oper@ 100515cc     kaiguangai1108_capi.obj
 0002:000085f8       ??_C@_0CG@LOHGNDGL@Subsystem1?1shoudong?1Logical?5Oper@ 100515f8     kaiguangai1108_capi.obj
 0002:00008628       ??_C@_0CG@JFFLIAKI@Subsystem1?1shoudong?1Logical?5Oper@ 10051628     kaiguangai1108_capi.obj
 0002:00008658       ??_C@_0CG@IMEALBOJ@Subsystem1?1shoudong?1Logical?5Oper@ 10051658     kaiguangai1108_capi.obj
 0002:00008688       ??_C@_0CG@MDABCHCO@Subsystem1?1shoudong?1Logical?5Oper@ 10051688     kaiguangai1108_capi.obj
 0002:000086b8       ??_C@_0CG@NKBKBGGP@Subsystem1?1shoudong?1Logical?5Oper@ 100516b8     kaiguangai1108_capi.obj
 0002:000086e8       ??_C@_0CG@PBDHEFKM@Subsystem1?1shoudong?1Logical?5Oper@ 100516e8     kaiguangai1108_capi.obj
 0002:00008718       ??_C@_0CG@OICMHEON@Subsystem1?1shoudong?1Logical?5Oper@ 10051718     kaiguangai1108_capi.obj
 0002:00008748       ??_C@_0CG@GPLEGICC@Subsystem1?1shoudong?1Logical?5Oper@ 10051748     kaiguangai1108_capi.obj
 0002:00008778       ??_C@_0CG@HGKPFJGD@Subsystem1?1shoudong?1Logical?5Oper@ 10051778     kaiguangai1108_capi.obj
 0002:000087a8       ??_C@_0BI@CJAMEMOD@Subsystem1?1zidong?11?$CD?1p1?$AA@ 100517a8     kaiguangai1108_capi.obj
 0002:000087c4       ??_C@_0BI@CCBBPCA@Subsystem1?1zidong?11?$CD?1p2?$AA@ 100517c4     kaiguangai1108_capi.obj
 0002:000087e0       ??_C@_0BI@BLDKCOGB@Subsystem1?1zidong?11?$CD?1p3?$AA@ 100517e0     kaiguangai1108_capi.obj
 0002:000087fc       ??_C@_0BI@FEHLLIKG@Subsystem1?1zidong?11?$CD?1p4?$AA@ 100517fc     kaiguangai1108_capi.obj
 0002:00008818       ??_C@_0BI@ENGAIJOH@Subsystem1?1zidong?11?$CD?1p5?$AA@ 10051818     kaiguangai1108_capi.obj
 0002:00008834       ??_C@_0BI@GGENNKCE@Subsystem1?1zidong?11?$CD?1p6?$AA@ 10051834     kaiguangai1108_capi.obj
 0002:00008850       ??_C@_0BI@HPFGOLGF@Subsystem1?1zidong?11?$CD?1p7?$AA@ 10051850     kaiguangai1108_capi.obj
 0002:0000886c       ??_C@_0BI@PIMOPHKK@Subsystem1?1zidong?11?$CD?1p8?$AA@ 1005186c     kaiguangai1108_capi.obj
 0002:00008888       ??_C@_0BI@OBNFMGOL@Subsystem1?1zidong?11?$CD?1p9?$AA@ 10051888     kaiguangai1108_capi.obj
 0002:000088a4       ??_C@_0BJ@OGGMIJHN@Subsystem1?1zidong?11?$CD?1p10?$AA@ 100518a4     kaiguangai1108_capi.obj
 0002:000088c4       ??_C@_0BJ@PPHHLIDM@Subsystem1?1zidong?11?$CD?1p11?$AA@ 100518c4     kaiguangai1108_capi.obj
 0002:000088e4       ??_C@_0BJ@NEFKOLPP@Subsystem1?1zidong?11?$CD?1p12?$AA@ 100518e4     kaiguangai1108_capi.obj
 0002:00008904       ??_C@_0BJ@MNEBNKLO@Subsystem1?1zidong?11?$CD?1p13?$AA@ 10051904     kaiguangai1108_capi.obj
 0002:00008924       ??_C@_0BJ@ICAAEMHJ@Subsystem1?1zidong?11?$CD?1p14?$AA@ 10051924     kaiguangai1108_capi.obj
 0002:00008944       ??_C@_0BJ@JLBLHNDI@Subsystem1?1zidong?11?$CD?1p15?$AA@ 10051944     kaiguangai1108_capi.obj
 0002:00008964       ??_C@_0BJ@LADGCOPL@Subsystem1?1zidong?11?$CD?1p16?$AA@ 10051964     kaiguangai1108_capi.obj
 0002:00008984       ??_C@_0BJ@KJCNBPLK@Subsystem1?1zidong?11?$CD?1p17?$AA@ 10051984     kaiguangai1108_capi.obj
 0002:000089a4       ??_C@_0BJ@COLFADHF@Subsystem1?1zidong?11?$CD?1p18?$AA@ 100519a4     kaiguangai1108_capi.obj
 0002:000089c4       ??_C@_0BJ@DHKODCDE@Subsystem1?1zidong?11?$CD?1p19?$AA@ 100519c4     kaiguangai1108_capi.obj
 0002:000089e4       ??_C@_0BJ@OECKDHCE@Subsystem1?1zidong?11?$CD?1p20?$AA@ 100519e4     kaiguangai1108_capi.obj
 0002:00008a04       ??_C@_0BJ@PNDBAGGF@Subsystem1?1zidong?11?$CD?1p21?$AA@ 10051a04     kaiguangai1108_capi.obj
 0002:00008a24       ??_C@_0BJ@MCJBGJNM@Subsystem1?1zidong?11?$CD1?1p1?$AA@ 10051a24     kaiguangai1108_capi.obj
 0002:00008a44       ??_C@_0BJ@OJLMDKBP@Subsystem1?1zidong?11?$CD1?1p2?$AA@ 10051a44     kaiguangai1108_capi.obj
 0002:00008a64       ??_C@_0BJ@PAKHALFO@Subsystem1?1zidong?11?$CD1?1p3?$AA@ 10051a64     kaiguangai1108_capi.obj
 0002:00008a84       ??_C@_0BJ@LPOGJNJJ@Subsystem1?1zidong?11?$CD1?1p4?$AA@ 10051a84     kaiguangai1108_capi.obj
 0002:00008aa4       ??_C@_0BJ@KGPNKMNI@Subsystem1?1zidong?11?$CD1?1p5?$AA@ 10051aa4     kaiguangai1108_capi.obj
 0002:00008ac4       ??_C@_0BJ@INNAPPBL@Subsystem1?1zidong?11?$CD1?1p6?$AA@ 10051ac4     kaiguangai1108_capi.obj
 0002:00008ae4       ??_C@_0BJ@JEMLMOFK@Subsystem1?1zidong?11?$CD1?1p7?$AA@ 10051ae4     kaiguangai1108_capi.obj
 0002:00008b04       ??_C@_0BJ@BDFDNCJF@Subsystem1?1zidong?11?$CD1?1p8?$AA@ 10051b04     kaiguangai1108_capi.obj
 0002:00008b24       ??_C@_0BJ@KEIODNE@Subsystem1?1zidong?11?$CD1?1p9?$AA@ 10051b24     kaiguangai1108_capi.obj
 0002:00008b44       ??_C@_0BK@FAOBDJGF@Subsystem1?1zidong?11?$CD1?1p10?$AA@ 10051b44     kaiguangai1108_capi.obj
 0002:00008b64       ??_C@_0BK@EJPKAICE@Subsystem1?1zidong?11?$CD1?1p11?$AA@ 10051b64     kaiguangai1108_capi.obj
 0002:00008b84       ??_C@_0BK@GCNHFLOH@Subsystem1?1zidong?11?$CD1?1p12?$AA@ 10051b84     kaiguangai1108_capi.obj
 0002:00008ba4       ??_C@_0BK@HLMMGKKG@Subsystem1?1zidong?11?$CD1?1p13?$AA@ 10051ba4     kaiguangai1108_capi.obj
 0002:00008bc4       ??_C@_0BK@DEINPMGB@Subsystem1?1zidong?11?$CD1?1p14?$AA@ 10051bc4     kaiguangai1108_capi.obj
 0002:00008be4       ??_C@_0BK@CNJGMNCA@Subsystem1?1zidong?11?$CD1?1p15?$AA@ 10051be4     kaiguangai1108_capi.obj
 0002:00008c04       ??_C@_0BK@GLLJOOD@Subsystem1?1zidong?11?$CD1?1p16?$AA@ 10051c04     kaiguangai1108_capi.obj
 0002:00008c24       ??_C@_0BK@BPKAKPKC@Subsystem1?1zidong?11?$CD1?1p17?$AA@ 10051c24     kaiguangai1108_capi.obj
 0002:00008c44       ??_C@_0BK@JIDILDGN@Subsystem1?1zidong?11?$CD1?1p18?$AA@ 10051c44     kaiguangai1108_capi.obj
 0002:00008c64       ??_C@_0BK@IBCDICCM@Subsystem1?1zidong?11?$CD1?1p19?$AA@ 10051c64     kaiguangai1108_capi.obj
 0002:00008c84       ??_C@_0BK@FCKHIHDM@Subsystem1?1zidong?11?$CD1?1p20?$AA@ 10051c84     kaiguangai1108_capi.obj
 0002:00008ca4       ??_C@_0BK@ELLMLGHN@Subsystem1?1zidong?11?$CD1?1p21?$AA@ 10051ca4     kaiguangai1108_capi.obj
 0002:00008cc4       ??_C@_0BJ@IFDBBDAM@Subsystem1?1zidong?11?$CD2?1p1?$AA@ 10051cc4     kaiguangai1108_capi.obj
 0002:00008ce4       ??_C@_0BJ@KOBMEAMP@Subsystem1?1zidong?11?$CD2?1p2?$AA@ 10051ce4     kaiguangai1108_capi.obj
 0002:00008d04       ??_C@_0BJ@LHAHHBIO@Subsystem1?1zidong?11?$CD2?1p3?$AA@ 10051d04     kaiguangai1108_capi.obj
 0002:00008d24       ??_C@_0BJ@PIEGOHEJ@Subsystem1?1zidong?11?$CD2?1p4?$AA@ 10051d24     kaiguangai1108_capi.obj
 0002:00008d44       ??_C@_0BJ@OBFNNGAI@Subsystem1?1zidong?11?$CD2?1p5?$AA@ 10051d44     kaiguangai1108_capi.obj
 0002:00008d64       ??_C@_0BJ@MKHAIFML@Subsystem1?1zidong?11?$CD2?1p6?$AA@ 10051d64     kaiguangai1108_capi.obj
 0002:00008d84       ??_C@_0BJ@NDGLLEIK@Subsystem1?1zidong?11?$CD2?1p7?$AA@ 10051d84     kaiguangai1108_capi.obj
 0002:00008da4       ??_C@_0BJ@FEPDKIEF@Subsystem1?1zidong?11?$CD2?1p8?$AA@ 10051da4     kaiguangai1108_capi.obj
 0002:00008dc4       ??_C@_0BJ@ENOIJJAE@Subsystem1?1zidong?11?$CD2?1p9?$AA@ 10051dc4     kaiguangai1108_capi.obj
 0002:00008de4       ??_C@_0BK@NGHFELML@Subsystem1?1zidong?11?$CD2?1p10?$AA@ 10051de4     kaiguangai1108_capi.obj
 0002:00008e04       ??_C@_0BK@MPGOHKIK@Subsystem1?1zidong?11?$CD2?1p11?$AA@ 10051e04     kaiguangai1108_capi.obj
 0002:00008e24       ??_C@_0BK@OEEDCJEJ@Subsystem1?1zidong?11?$CD2?1p12?$AA@ 10051e24     kaiguangai1108_capi.obj
 0002:00008e44       ??_C@_0BK@PNFIBIAI@Subsystem1?1zidong?11?$CD2?1p13?$AA@ 10051e44     kaiguangai1108_capi.obj
 0002:00008e64       ??_C@_0BK@LCBJIOMP@Subsystem1?1zidong?11?$CD2?1p14?$AA@ 10051e64     kaiguangai1108_capi.obj
 0002:00008e84       ??_C@_0BK@KLACLPIO@Subsystem1?1zidong?11?$CD2?1p15?$AA@ 10051e84     kaiguangai1108_capi.obj
 0002:00008ea4       ??_C@_0BK@IACPOMEN@Subsystem1?1zidong?11?$CD2?1p16?$AA@ 10051ea4     kaiguangai1108_capi.obj
 0002:00008ec4       ??_C@_0BK@JJDENNAM@Subsystem1?1zidong?11?$CD2?1p17?$AA@ 10051ec4     kaiguangai1108_capi.obj
 0002:00008ee4       ??_C@_0BK@BOKMMBMD@Subsystem1?1zidong?11?$CD2?1p18?$AA@ 10051ee4     kaiguangai1108_capi.obj
 0002:00008f04       ??_C@_0BK@HLHPAIC@Subsystem1?1zidong?11?$CD2?1p19?$AA@ 10051f04     kaiguangai1108_capi.obj
 0002:00008f24       ??_C@_0BK@NEDDPFJC@Subsystem1?1zidong?11?$CD2?1p20?$AA@ 10051f24     kaiguangai1108_capi.obj
 0002:00008f44       ??_C@_0BK@MNCIMEND@Subsystem1?1zidong?11?$CD2?1p21?$AA@ 10051f44     kaiguangai1108_capi.obj
 0002:00008f64       ??_C@_0BJ@LIFBDKLM@Subsystem1?1zidong?11?$CD3?1p1?$AA@ 10051f64     kaiguangai1108_capi.obj
 0002:00008f84       ??_C@_0BJ@JDHMGJHP@Subsystem1?1zidong?11?$CD3?1p2?$AA@ 10051f84     kaiguangai1108_capi.obj
 0002:00008fa4       ??_C@_0BJ@IKGHFIDO@Subsystem1?1zidong?11?$CD3?1p3?$AA@ 10051fa4     kaiguangai1108_capi.obj
 0002:00008fc4       ??_C@_0BJ@MFCGMOPJ@Subsystem1?1zidong?11?$CD3?1p4?$AA@ 10051fc4     kaiguangai1108_capi.obj
 0002:00008fe4       ??_C@_0BJ@NMDNPPLI@Subsystem1?1zidong?11?$CD3?1p5?$AA@ 10051fe4     kaiguangai1108_capi.obj
 0002:00009004       ??_C@_0BJ@PHBAKMHL@Subsystem1?1zidong?11?$CD3?1p6?$AA@ 10052004     kaiguangai1108_capi.obj
 0002:00009024       ??_C@_0BJ@OOALJNDK@Subsystem1?1zidong?11?$CD3?1p7?$AA@ 10052024     kaiguangai1108_capi.obj
 0002:00009044       ??_C@_0BJ@GJJDIBPF@Subsystem1?1zidong?11?$CD3?1p8?$AA@ 10052044     kaiguangai1108_capi.obj
 0002:00009064       ??_C@_0BJ@HAIILALE@Subsystem1?1zidong?11?$CD3?1p9?$AA@ 10052064     kaiguangai1108_capi.obj
 0002:00009084       ??_C@_0BK@BNCJJIGO@Subsystem1?1zidong?11?$CD3?1p10?$AA@ 10052084     kaiguangai1108_capi.obj
 0002:000090a4       ??_C@_0BK@EDCKJCP@Subsystem1?1zidong?11?$CD3?1p11?$AA@ 100520a4     kaiguangai1108_capi.obj
 0002:000090c4       ??_C@_0BK@CPBPPKOM@Subsystem1?1zidong?11?$CD3?1p12?$AA@ 100520c4     kaiguangai1108_capi.obj
 0002:000090e4       ??_C@_0BK@DGAEMLKN@Subsystem1?1zidong?11?$CD3?1p13?$AA@ 100520e4     kaiguangai1108_capi.obj
 0002:00009104       ??_C@_0BK@HJEFFNGK@Subsystem1?1zidong?11?$CD3?1p14?$AA@ 10052104     kaiguangai1108_capi.obj
 0002:00009124       ??_C@_0BK@GAFOGMCL@Subsystem1?1zidong?11?$CD3?1p15?$AA@ 10052124     kaiguangai1108_capi.obj
 0002:00009144       ??_C@_0BK@ELHDDPOI@Subsystem1?1zidong?11?$CD3?1p16?$AA@ 10052144     kaiguangai1108_capi.obj
 0002:00009164       ??_C@_0BK@FCGIAOKJ@Subsystem1?1zidong?11?$CD3?1p17?$AA@ 10052164     kaiguangai1108_capi.obj
 0002:00009184       ??_C@_0BK@NFPABCGG@Subsystem1?1zidong?11?$CD3?1p18?$AA@ 10052184     kaiguangai1108_capi.obj
 0002:000091a4       ??_C@_0BK@MMOLCDCH@Subsystem1?1zidong?11?$CD3?1p19?$AA@ 100521a4     kaiguangai1108_capi.obj
 0002:000091c4       ??_C@_0BK@BPGPCGDH@Subsystem1?1zidong?11?$CD3?1p20?$AA@ 100521c4     kaiguangai1108_capi.obj
 0002:000091e4       ??_C@_0BK@GHEBHHG@Subsystem1?1zidong?11?$CD3?1p21?$AA@ 100521e4     kaiguangai1108_capi.obj
 0002:00009204       ??_C@_0BJ@KHBOGKM@Subsystem1?1zidong?11?$CD4?1p1?$AA@ 10052204     kaiguangai1108_capi.obj
 0002:00009224       ??_C@_0BJ@CBFMLFGP@Subsystem1?1zidong?11?$CD4?1p2?$AA@ 10052224     kaiguangai1108_capi.obj
 0002:00009244       ??_C@_0BJ@DIEHIECO@Subsystem1?1zidong?11?$CD4?1p3?$AA@ 10052244     kaiguangai1108_capi.obj
 0002:00009264       ??_C@_0BJ@HHAGBCOJ@Subsystem1?1zidong?11?$CD4?1p4?$AA@ 10052264     kaiguangai1108_capi.obj
 0002:00009284       ??_C@_0BJ@GOBNCDKI@Subsystem1?1zidong?11?$CD4?1p5?$AA@ 10052284     kaiguangai1108_capi.obj
 0002:000092a4       ??_C@_0BJ@EFDAHAGL@Subsystem1?1zidong?11?$CD4?1p6?$AA@ 100522a4     kaiguangai1108_capi.obj
 0002:000092c4       ??_C@_0BJ@FMCLEBCK@Subsystem1?1zidong?11?$CD4?1p7?$AA@ 100522c4     kaiguangai1108_capi.obj
 0002:000092e4       ??_C@_0BJ@NLLDFNOF@Subsystem1?1zidong?11?$CD4?1p8?$AA@ 100522e4     kaiguangai1108_capi.obj
 0002:00009304       ??_C@_0BJ@MCKIGMKE@Subsystem1?1zidong?11?$CD4?1p9?$AA@ 10052304     kaiguangai1108_capi.obj
 0002:00009324       ??_C@_0BK@CMKING@Subsystem1?1zidong?11?$CD4?1p10?$AA@ 10052324     kaiguangai1108_capi.obj
 0002:00009344       ??_C@_0BK@BJDHJJJH@Subsystem1?1zidong?11?$CD4?1p11?$AA@ 10052344     kaiguangai1108_capi.obj
 0002:00009364       ??_C@_0BK@DCBKMKFE@Subsystem1?1zidong?11?$CD4?1p12?$AA@ 10052364     kaiguangai1108_capi.obj
 0002:00009384       ??_C@_0BK@CLABPLBF@Subsystem1?1zidong?11?$CD4?1p13?$AA@ 10052384     kaiguangai1108_capi.obj
 0002:000093a4       ??_C@_0BK@GEEAGNNC@Subsystem1?1zidong?11?$CD4?1p14?$AA@ 100523a4     kaiguangai1108_capi.obj
 0002:000093c4       ??_C@_0BK@HNFLFMJD@Subsystem1?1zidong?11?$CD4?1p15?$AA@ 100523c4     kaiguangai1108_capi.obj
 0002:000093e4       ??_C@_0BK@FGHGAPFA@Subsystem1?1zidong?11?$CD4?1p16?$AA@ 100523e4     kaiguangai1108_capi.obj
 0002:00009404       ??_C@_0BK@EPGNDOBB@Subsystem1?1zidong?11?$CD4?1p17?$AA@ 10052404     kaiguangai1108_capi.obj
 0002:00009424       ??_C@_0BK@MIPFCCNO@Subsystem1?1zidong?11?$CD4?1p18?$AA@ 10052424     kaiguangai1108_capi.obj
 0002:00009444       ??_C@_0BK@NBOOBDJP@Subsystem1?1zidong?11?$CD4?1p19?$AA@ 10052444     kaiguangai1108_capi.obj
 0002:00009464       ??_C@_0BK@CGKBGIP@Subsystem1?1zidong?11?$CD4?1p20?$AA@ 10052464     kaiguangai1108_capi.obj
 0002:00009484       ??_C@_0BK@BLHBCHMO@Subsystem1?1zidong?11?$CD4?1p21?$AA@ 10052484     kaiguangai1108_capi.obj
 0002:000094a4       ??_C@_0BJ@DHBBMPBM@Subsystem1?1zidong?11?$CD5?1p1?$AA@ 100524a4     kaiguangai1108_capi.obj
 0002:000094c4       ??_C@_0BJ@BMDMJMNP@Subsystem1?1zidong?11?$CD5?1p2?$AA@ 100524c4     kaiguangai1108_capi.obj
 0002:000094e4       ??_C@_0BJ@FCHKNJO@Subsystem1?1zidong?11?$CD5?1p3?$AA@ 100524e4     kaiguangai1108_capi.obj
 0002:00009504       ??_C@_0BJ@EKGGDLFJ@Subsystem1?1zidong?11?$CD5?1p4?$AA@ 10052504     kaiguangai1108_capi.obj
 0002:00009524       ??_C@_0BJ@FDHNAKBI@Subsystem1?1zidong?11?$CD5?1p5?$AA@ 10052524     kaiguangai1108_capi.obj
 0002:00009544       ??_C@_0BJ@HIFAFJNL@Subsystem1?1zidong?11?$CD5?1p6?$AA@ 10052544     kaiguangai1108_capi.obj
 0002:00009564       ??_C@_0BJ@GBELGIJK@Subsystem1?1zidong?11?$CD5?1p7?$AA@ 10052564     kaiguangai1108_capi.obj
 0002:00009584       ??_C@_0BJ@OGNDHEFF@Subsystem1?1zidong?11?$CD5?1p8?$AA@ 10052584     kaiguangai1108_capi.obj
 0002:000095a4       ??_C@_0BJ@PPMIEFBE@Subsystem1?1zidong?11?$CD5?1p9?$AA@ 100525a4     kaiguangai1108_capi.obj
 0002:000095c4       ??_C@_0BK@MLHAHLHD@Subsystem1?1zidong?11?$CD5?1p10?$AA@ 100525c4     kaiguangai1108_capi.obj
 0002:000095e4       ??_C@_0BK@NCGLEKDC@Subsystem1?1zidong?11?$CD5?1p11?$AA@ 100525e4     kaiguangai1108_capi.obj
 0002:00009604       ??_C@_0BK@PJEGBJPB@Subsystem1?1zidong?11?$CD5?1p12?$AA@ 10052604     kaiguangai1108_capi.obj
 0002:00009624       ??_C@_0BK@OAFNCILA@Subsystem1?1zidong?11?$CD5?1p13?$AA@ 10052624     kaiguangai1108_capi.obj
 0002:00009644       ??_C@_0BK@KPBMLOHH@Subsystem1?1zidong?11?$CD5?1p14?$AA@ 10052644     kaiguangai1108_capi.obj
 0002:00009664       ??_C@_0BK@LGAHIPDG@Subsystem1?1zidong?11?$CD5?1p15?$AA@ 10052664     kaiguangai1108_capi.obj
 0002:00009684       ??_C@_0BK@JNCKNMPF@Subsystem1?1zidong?11?$CD5?1p16?$AA@ 10052684     kaiguangai1108_capi.obj
 0002:000096a4       ??_C@_0BK@IEDBONLE@Subsystem1?1zidong?11?$CD5?1p17?$AA@ 100526a4     kaiguangai1108_capi.obj
 0002:000096c4       ??_C@_0BK@DKJPBHL@Subsystem1?1zidong?11?$CD5?1p18?$AA@ 100526c4     kaiguangai1108_capi.obj
 0002:000096e4       ??_C@_0BK@BKLCMADK@Subsystem1?1zidong?11?$CD5?1p19?$AA@ 100526e4     kaiguangai1108_capi.obj
 0002:00009704       ??_C@_0BK@MJDGMFCK@Subsystem1?1zidong?11?$CD5?1p20?$AA@ 10052704     kaiguangai1108_capi.obj
 0002:00009724       ??_C@_0BK@NACNPEGL@Subsystem1?1zidong?11?$CD5?1p21?$AA@ 10052724     kaiguangai1108_capi.obj
 0002:00009744       ??_C@_0BJ@HALBLFMM@Subsystem1?1zidong?11?$CD6?1p1?$AA@ 10052744     kaiguangai1108_capi.obj
 0002:00009764       ??_C@_0BJ@FLJMOGAP@Subsystem1?1zidong?11?$CD6?1p2?$AA@ 10052764     kaiguangai1108_capi.obj
 0002:00009784       ??_C@_0BJ@ECIHNHEO@Subsystem1?1zidong?11?$CD6?1p3?$AA@ 10052784     kaiguangai1108_capi.obj
 0002:000097a4       ??_C@_0BJ@NMGEBIJ@Subsystem1?1zidong?11?$CD6?1p4?$AA@ 100527a4     kaiguangai1108_capi.obj
 0002:000097c4       ??_C@_0BJ@BENNHAMI@Subsystem1?1zidong?11?$CD6?1p5?$AA@ 100527c4     kaiguangai1108_capi.obj
 0002:000097e4       ??_C@_0BJ@DPPACDAL@Subsystem1?1zidong?11?$CD6?1p6?$AA@ 100527e4     kaiguangai1108_capi.obj
 0002:00009804       ??_C@_0BJ@CGOLBCEK@Subsystem1?1zidong?11?$CD6?1p7?$AA@ 10052804     kaiguangai1108_capi.obj
 0002:00009824       ??_C@_0BJ@KBHDAOIF@Subsystem1?1zidong?11?$CD6?1p8?$AA@ 10052824     kaiguangai1108_capi.obj
 0002:00009844       ??_C@_0BJ@LIGIDPME@Subsystem1?1zidong?11?$CD6?1p9?$AA@ 10052844     kaiguangai1108_capi.obj
 0002:00009864       ??_C@_0BK@ENOEAJNN@Subsystem1?1zidong?11?$CD6?1p10?$AA@ 10052864     kaiguangai1108_capi.obj
 0002:00009884       ??_C@_0BK@FEPPDIJM@Subsystem1?1zidong?11?$CD6?1p11?$AA@ 10052884     kaiguangai1108_capi.obj
 0002:000098a4       ??_C@_0BK@HPNCGLFP@Subsystem1?1zidong?11?$CD6?1p12?$AA@ 100528a4     kaiguangai1108_capi.obj
 0002:000098c4       ??_C@_0BK@GGMJFKBO@Subsystem1?1zidong?11?$CD6?1p13?$AA@ 100528c4     kaiguangai1108_capi.obj
 0002:000098e4       ??_C@_0BK@CJIIMMNJ@Subsystem1?1zidong?11?$CD6?1p14?$AA@ 100528e4     kaiguangai1108_capi.obj
 0002:00009904       ??_C@_0BK@DAJDPNJI@Subsystem1?1zidong?11?$CD6?1p15?$AA@ 10052904     kaiguangai1108_capi.obj
 0002:00009924       ??_C@_0BK@BLLOKOFL@Subsystem1?1zidong?11?$CD6?1p16?$AA@ 10052924     kaiguangai1108_capi.obj
 0002:00009944       ??_C@_0BK@CKFJPBK@Subsystem1?1zidong?11?$CD6?1p17?$AA@ 10052944     kaiguangai1108_capi.obj
 0002:00009964       ??_C@_0BK@IFDNIDNF@Subsystem1?1zidong?11?$CD6?1p18?$AA@ 10052964     kaiguangai1108_capi.obj
 0002:00009984       ??_C@_0BK@JMCGLCJE@Subsystem1?1zidong?11?$CD6?1p19?$AA@ 10052984     kaiguangai1108_capi.obj
 0002:000099a4       ??_C@_0BK@EPKCLHIE@Subsystem1?1zidong?11?$CD6?1p20?$AA@ 100529a4     kaiguangai1108_capi.obj
 0002:000099c4       ??_C@_0BK@FGLJIGMF@Subsystem1?1zidong?11?$CD6?1p21?$AA@ 100529c4     kaiguangai1108_capi.obj
 0002:000099e4       ??_C@_0BJ@ENNBJMHM@Subsystem1?1zidong?11?$CD7?1p1?$AA@ 100529e4     kaiguangai1108_capi.obj
 0002:00009a04       ??_C@_0BJ@GGPMMPLP@Subsystem1?1zidong?11?$CD7?1p2?$AA@ 10052a04     kaiguangai1108_capi.obj
 0002:00009a24       ??_C@_0BJ@HPOHPOPO@Subsystem1?1zidong?11?$CD7?1p3?$AA@ 10052a24     kaiguangai1108_capi.obj
 0002:00009a44       ??_C@_0BJ@DAKGGIDJ@Subsystem1?1zidong?11?$CD7?1p4?$AA@ 10052a44     kaiguangai1108_capi.obj
 0002:00009a64       ??_C@_0BJ@CJLNFJHI@Subsystem1?1zidong?11?$CD7?1p5?$AA@ 10052a64     kaiguangai1108_capi.obj
 0002:00009a84       ??_C@_0BJ@CJAAKLL@Subsystem1?1zidong?11?$CD7?1p6?$AA@ 10052a84     kaiguangai1108_capi.obj
 0002:00009aa4       ??_C@_0BJ@BLILDLPK@Subsystem1?1zidong?11?$CD7?1p7?$AA@ 10052aa4     kaiguangai1108_capi.obj
 0002:00009ac4       ??_C@_0BJ@JMBDCHDF@Subsystem1?1zidong?11?$CD7?1p8?$AA@ 10052ac4     kaiguangai1108_capi.obj
 0002:00009ae4       ??_C@_0BJ@IFAIBGHE@Subsystem1?1zidong?11?$CD7?1p9?$AA@ 10052ae4     kaiguangai1108_capi.obj
 0002:00009b04       ??_C@_0BK@IGLINKHI@Subsystem1?1zidong?11?$CD7?1p10?$AA@ 10052b04     kaiguangai1108_capi.obj
 0002:00009b24       ??_C@_0BK@JPKDOLDJ@Subsystem1?1zidong?11?$CD7?1p11?$AA@ 10052b24     kaiguangai1108_capi.obj
 0002:00009b44       ??_C@_0BK@LEIOLIPK@Subsystem1?1zidong?11?$CD7?1p12?$AA@ 10052b44     kaiguangai1108_capi.obj
 0002:00009b64       ??_C@_0BK@KNJFIJLL@Subsystem1?1zidong?11?$CD7?1p13?$AA@ 10052b64     kaiguangai1108_capi.obj
 0002:00009b84       ??_C@_0BK@OCNEBPHM@Subsystem1?1zidong?11?$CD7?1p14?$AA@ 10052b84     kaiguangai1108_capi.obj
 0002:00009ba4       ??_C@_0BK@PLMPCODN@Subsystem1?1zidong?11?$CD7?1p15?$AA@ 10052ba4     kaiguangai1108_capi.obj
 0002:00009bc4       ??_C@_0BK@NAOCHNPO@Subsystem1?1zidong?11?$CD7?1p16?$AA@ 10052bc4     kaiguangai1108_capi.obj
 0002:00009be4       ??_C@_0BK@MJPJEMLP@Subsystem1?1zidong?11?$CD7?1p17?$AA@ 10052be4     kaiguangai1108_capi.obj
 0002:00009c04       ??_C@_0BK@EOGBFAHA@Subsystem1?1zidong?11?$CD7?1p18?$AA@ 10052c04     kaiguangai1108_capi.obj
 0002:00009c24       ??_C@_0BK@FHHKGBDB@Subsystem1?1zidong?11?$CD7?1p19?$AA@ 10052c24     kaiguangai1108_capi.obj
 0002:00009c44       ??_C@_0BK@IEPOGECB@Subsystem1?1zidong?11?$CD7?1p20?$AA@ 10052c44     kaiguangai1108_capi.obj
 0002:00009c64       ??_C@_0BK@JNOFFFGA@Subsystem1?1zidong?11?$CD7?1p21?$AA@ 10052c64     kaiguangai1108_capi.obj
 0002:00009c84       ??_C@_0CI@NMNCMLHM@Subsystem1?1zidong?1Data?5Type?5Conv@ 10052c84     kaiguangai1108_capi.obj
 0002:00009cb4       ??_C@_0CI@PHPPJILP@Subsystem1?1zidong?1Data?5Type?5Conv@ 10052cb4     kaiguangai1108_capi.obj
 0002:00009ce4       ??_C@_0CI@OOOEKJPO@Subsystem1?1zidong?1Data?5Type?5Conv@ 10052ce4     kaiguangai1108_capi.obj
 0002:00009d14       ??_C@_0CI@KBKFDPDJ@Subsystem1?1zidong?1Data?5Type?5Conv@ 10052d14     kaiguangai1108_capi.obj
 0002:00009d44       ??_C@_0CI@LILOAOHI@Subsystem1?1zidong?1Data?5Type?5Conv@ 10052d44     kaiguangai1108_capi.obj
 0002:00009d74       ??_C@_0CI@JDJDFNLL@Subsystem1?1zidong?1Data?5Type?5Conv@ 10052d74     kaiguangai1108_capi.obj
 0002:00009da4       ??_C@_0CI@IKIIGMPK@Subsystem1?1zidong?1Data?5Type?5Conv@ 10052da4     kaiguangai1108_capi.obj
 0002:00009dd4       ??_C@_0CI@NBAHADF@Subsystem1?1zidong?1Data?5Type?5Conv@ 10052dd4     kaiguangai1108_capi.obj
 0002:00009e04       ??_C@_0CD@OLLMFNIH@Subsystem1?1zidong?1Logical?5Operat@ 10052e04     kaiguangai1108_capi.obj
 0002:00009e30       ??_C@_0CE@LFGKKNGM@Subsystem1?1zidong?1Logical?5Operat@ 10052e30     kaiguangai1108_capi.obj
 0002:00009e5c       ??_C@_0CF@JLPHHBCN@Subsystem1?1zidong?1Logical?5Operat@ 10052e5c     kaiguangai1108_capi.obj
 0002:00009e88       ??_C@_0CF@ICOMEAGM@Subsystem1?1zidong?1Logical?5Operat@ 10052e88     kaiguangai1108_capi.obj
 0002:00009eb4       ??_C@_0CF@KJMBBDKP@Subsystem1?1zidong?1Logical?5Operat@ 10052eb4     kaiguangai1108_capi.obj
 0002:00009ee0       ??_C@_0CF@LANKCCOO@Subsystem1?1zidong?1Logical?5Operat@ 10052ee0     kaiguangai1108_capi.obj
 0002:00009f0c       ??_C@_0CF@PPJLLECJ@Subsystem1?1zidong?1Logical?5Operat@ 10052f0c     kaiguangai1108_capi.obj
 0002:00009f38       ??_C@_0CF@OGIAIFGI@Subsystem1?1zidong?1Logical?5Operat@ 10052f38     kaiguangai1108_capi.obj
 0002:00009f64       ??_C@_0CF@MNKNNGKL@Subsystem1?1zidong?1Logical?5Operat@ 10052f64     kaiguangai1108_capi.obj
 0002:00009f90       ??_C@_0CF@NELGOHOK@Subsystem1?1zidong?1Logical?5Operat@ 10052f90     kaiguangai1108_capi.obj
 0002:00009fbc       ??_C@_0CE@JOEHPOKP@Subsystem1?1zidong?1Logical?5Operat@ 10052fbc     kaiguangai1108_capi.obj
 0002:00009fe8       ??_C@_0CE@IHFMMPOO@Subsystem1?1zidong?1Logical?5Operat@ 10052fe8     kaiguangai1108_capi.obj
 0002:0000a014       ??_C@_0CE@MIBNFJCJ@Subsystem1?1zidong?1Logical?5Operat@ 10053014     kaiguangai1108_capi.obj
 0002:0000a040       ??_C@_0CE@NBAGGIGI@Subsystem1?1zidong?1Logical?5Operat@ 10053040     kaiguangai1108_capi.obj
 0002:0000a06c       ??_C@_0CE@PKCLDLKL@Subsystem1?1zidong?1Logical?5Operat@ 1005306c     kaiguangai1108_capi.obj
 0002:0000a098       ??_C@_0CE@ODDAAKOK@Subsystem1?1zidong?1Logical?5Operat@ 10053098     kaiguangai1108_capi.obj
 0002:0000a0c4       ??_C@_0CE@GEKIBGCF@Subsystem1?1zidong?1Logical?5Operat@ 100530c4     kaiguangai1108_capi.obj
 0002:0000a0f0       ??_C@_0CE@HNLDCHGE@Subsystem1?1zidong?1Logical?5Operat@ 100530f0     kaiguangai1108_capi.obj
 0002:0000a11c       ??_C@_0CH@GCHMHNCM@shoudongcaozuo?1husuo?1Logical?5Ope@ 1005311c     kaiguangai1108_capi.obj
 0002:0000a14c       ??_C@_0CH@EJFBCOOP@shoudongcaozuo?1husuo?1Logical?5Ope@ 1005314c     kaiguangai1108_capi.obj
 0002:0000a17c       ??_C@_0CH@FAEKBPKO@shoudongcaozuo?1husuo?1Logical?5Ope@ 1005317c     kaiguangai1108_capi.obj
 0002:0000a1ac       ??_C@_0CH@BPALIJGJ@shoudongcaozuo?1husuo?1Logical?5Ope@ 100531ac     kaiguangai1108_capi.obj
 0002:0000a1dc       ??_C@_0CH@GBALICI@shoudongcaozuo?1husuo?1Logical?5Ope@ 100531dc     kaiguangai1108_capi.obj
 0002:0000a20c       ??_C@_0CH@CNDNOLOL@shoudongcaozuo?1husuo?1Logical?5Ope@ 1005320c     kaiguangai1108_capi.obj
 0002:0000a23c       ??_C@_0BH@GIEFNFKH@shoudongcaozuo?1husuo?11?$AA@ 1005323c     kaiguangai1108_capi.obj
 0002:0000a258       ??_C@_0BH@EDGIIGGE@shoudongcaozuo?1husuo?12?$AA@ 10053258     kaiguangai1108_capi.obj
 0002:0000a274       ??_C@_0BH@FKHDLHCF@shoudongcaozuo?1husuo?13?$AA@ 10053274     kaiguangai1108_capi.obj
 0002:0000a290       ??_C@_0BH@BFDCCBOC@shoudongcaozuo?1husuo?14?$AA@ 10053290     kaiguangai1108_capi.obj
 0002:0000a2ac       ??_C@_0BH@MCJBAKD@shoudongcaozuo?1husuo?15?$AA@ 100532ac     kaiguangai1108_capi.obj
 0002:0000a2c8       ??_C@_0BH@CHAEEDGA@shoudongcaozuo?1husuo?16?$AA@ 100532c8     kaiguangai1108_capi.obj
 0002:0000a2e4       ??_C@_0BN@JOKAHHNB@shoudongcaozuo?1husuo?1Switch1?$AA@ 100532e4     kaiguangai1108_capi.obj
 0002:0000a308       ??_C@_0BN@LFINCEBC@shoudongcaozuo?1husuo?1Switch2?$AA@ 10053308     kaiguangai1108_capi.obj
 0002:0000a32c       ??_C@_0BN@KMJGBFFD@shoudongcaozuo?1husuo?1Switch3?$AA@ 1005332c     kaiguangai1108_capi.obj
 0002:0000a350       ??_C@_0BN@ODNHIDJE@shoudongcaozuo?1husuo?1Switch4?$AA@ 10053350     kaiguangai1108_capi.obj
 0002:0000a374       ??_C@_0BN@PKMMLCNF@shoudongcaozuo?1husuo?1Switch5?$AA@ 10053374     kaiguangai1108_capi.obj
 0002:0000a398       ??_C@_0BN@NBOBOBBG@shoudongcaozuo?1husuo?1Switch6?$AA@ 10053398     kaiguangai1108_capi.obj
 0002:0000a3bc       ??_C@_0CH@EAPJOIDE@tiaoshidongzuo?1husuo?1Logical?5Ope@ 100533bc     kaiguangai1108_capi.obj
 0002:0000a3ec       ??_C@_0CH@GLNELLPH@tiaoshidongzuo?1husuo?1Logical?5Ope@ 100533ec     kaiguangai1108_capi.obj
 0002:0000a41c       ??_C@_0CH@HCMPIKLG@tiaoshidongzuo?1husuo?1Logical?5Ope@ 1005341c     kaiguangai1108_capi.obj
 0002:0000a44c       ??_C@_0CH@DNIOBMHB@tiaoshidongzuo?1husuo?1Logical?5Ope@ 1005344c     kaiguangai1108_capi.obj
 0002:0000a47c       ??_C@_0CH@CEJFCNDA@tiaoshidongzuo?1husuo?1Logical?5Ope@ 1005347c     kaiguangai1108_capi.obj
 0002:0000a4ac       ??_C@_0CH@PLIHOPD@tiaoshidongzuo?1husuo?1Logical?5Ope@ 100534ac     kaiguangai1108_capi.obj
 0002:0000a4dc       ??_C@_0BH@JFKCJCIB@tiaoshidongzuo?1husuo?11?$AA@ 100534dc     kaiguangai1108_capi.obj
 0002:0000a4f8       ??_C@_0BH@LOIPMBEC@tiaoshidongzuo?1husuo?12?$AA@ 100534f8     kaiguangai1108_capi.obj
 0002:0000a514       ??_C@_0BH@KHJEPAAD@tiaoshidongzuo?1husuo?13?$AA@ 10053514     kaiguangai1108_capi.obj
 0002:0000a530       ??_C@_0BH@OINFGGME@tiaoshidongzuo?1husuo?14?$AA@ 10053530     kaiguangai1108_capi.obj
 0002:0000a54c       ??_C@_0BH@PBMOFHIF@tiaoshidongzuo?1husuo?15?$AA@ 1005354c     kaiguangai1108_capi.obj
 0002:0000a568       ??_C@_0BH@NKODAEEG@tiaoshidongzuo?1husuo?16?$AA@ 10053568     kaiguangai1108_capi.obj
 0002:0000a584       ??_C@_0BN@FDDCIMKB@tiaoshidongzuo?1husuo?1Switch1?$AA@ 10053584     kaiguangai1108_capi.obj
 0002:0000a5a8       ??_C@_0BN@HIBPNPGC@tiaoshidongzuo?1husuo?1Switch2?$AA@ 100535a8     kaiguangai1108_capi.obj
 0002:0000a5cc       ??_C@_0BN@GBAEOOCD@tiaoshidongzuo?1husuo?1Switch3?$AA@ 100535cc     kaiguangai1108_capi.obj
 0002:0000a5f0       ??_C@_0BN@COEFHIOE@tiaoshidongzuo?1husuo?1Switch4?$AA@ 100535f0     kaiguangai1108_capi.obj
 0002:0000a614       ??_C@_0BN@DHFOEJKF@tiaoshidongzuo?1husuo?1Switch5?$AA@ 10053614     kaiguangai1108_capi.obj
 0002:0000a638       ??_C@_0BN@BMHDBKGG@tiaoshidongzuo?1husuo?1Switch6?$AA@ 10053638     kaiguangai1108_capi.obj
 0002:0000a65c       ??_C@_06PBEDFIPD@Switch?$AA@ 1005365c     kaiguangai1108_capi.obj
 0002:0000a664       ??_C@_05LPIJGKJ@Value?$AA@ 10053664     kaiguangai1108_capi.obj
 0002:0000a66c       ??_C@_07OCBIOHEM@Switch1?$AA@ 1005366c     kaiguangai1108_capi.obj
 0002:0000a678       ??_C@_07MJDFLEIP@Switch2?$AA@ 10053678     kaiguangai1108_capi.obj
 0002:0000a684       ??_C@_07PLPIKNFL@qiehuan?$AA@ 10053684     kaiguangai1108_capi.obj
 0002:0000a690       ??_C@_02LNFHGPBG@X0?$AA@   10053690     kaiguangai1108_capi.obj
 0002:0000a694       ??_C@_09HLCHFPPJ@Threshold?$AA@ 10053694     kaiguangai1108_capi.obj
 0002:0000a6a0       ??_C@_0O@NMGLEIBL@PCI?91756?1PCI1?$AA@ 100536a0     kaiguangai1108_capi.obj
 0002:0000a6b0       ??_C@_02KKFPAPOP@P1?$AA@   100536b0     kaiguangai1108_capi.obj
 0002:0000a6b4       ??_C@_02IBHCFMCM@P2?$AA@   100536b4     kaiguangai1108_capi.obj
 0002:0000a6b8       ??_C@_0O@PHEGBLNI@PCI?91756?1PCI2?$AA@ 100536b8     kaiguangai1108_capi.obj
 0002:0000a6c8       ??_C@_0O@OOFNCKJJ@PCI?91756?1PCI3?$AA@ 100536c8     kaiguangai1108_capi.obj
 0002:0000a6d8       ??_C@_0BH@CFJJJNHB@shoudongcaozuo?1guangai?$AA@ 100536d8     kaiguangai1108_capi.obj
 0002:0000a6f4       ??_C@_0BG@BDANIHM@shoudongcaozuo?1jiesuo?$AA@ 100536f4     kaiguangai1108_capi.obj
 0002:0000a710       ??_C@_0BG@BMOKNAEG@shoudongcaozuo?1kaigai?$AA@ 10053710     kaiguangai1108_capi.obj
 0002:0000a72c       ??_C@_0BC@LANMNJLN@shoudongcaozuo?1s1?$AA@ 1005372c     kaiguangai1108_capi.obj
 0002:0000a744       ??_C@_0BC@JLPBIKHO@shoudongcaozuo?1s2?$AA@ 10053744     kaiguangai1108_capi.obj
 0002:0000a75c       ??_C@_0BC@ICOKLLDP@shoudongcaozuo?1s3?$AA@ 1005375c     kaiguangai1108_capi.obj
 0002:0000a774       ??_C@_0BC@MNKLCNPI@shoudongcaozuo?1s4?$AA@ 10053774     kaiguangai1108_capi.obj
 0002:0000a78c       ??_C@_0BC@NELABMLJ@shoudongcaozuo?1s5?$AA@ 1005378c     kaiguangai1108_capi.obj
 0002:0000a7a4       ??_C@_0BC@PPJNEPHK@shoudongcaozuo?1s6?$AA@ 100537a4     kaiguangai1108_capi.obj
 0002:0000a7bc       ??_C@_0BC@OGIGHODL@shoudongcaozuo?1s7?$AA@ 100537bc     kaiguangai1108_capi.obj
 0002:0000a7d4       ??_C@_0BC@GBBOGCPE@shoudongcaozuo?1s8?$AA@ 100537d4     kaiguangai1108_capi.obj
 0002:0000a7ec       ??_C@_0BH@KIFGAODM@shoudongcaozuo?1songkai?$AA@ 100537ec     kaiguangai1108_capi.obj
 0002:0000a808       ??_C@_0BH@NINCMGPB@shoudongcaozuo?1suoding?$AA@ 10053808     kaiguangai1108_capi.obj
 0002:0000a824       ??_C@_0BF@GDHCMABG@shoudongcaozuo?1yajin?$AA@ 10053824     kaiguangai1108_capi.obj
 0002:0000a840       ??_C@_0BH@NIHONKFH@tiaoshidongzuo?1guangai?$AA@ 10053840     kaiguangai1108_capi.obj
 0002:0000a85c       ??_C@_0BG@IEIOIEGG@tiaoshidongzuo?1jiesuo?$AA@ 1005385c     kaiguangai1108_capi.obj
 0002:0000a878       ??_C@_0BG@JJFEIMFM@tiaoshidongzuo?1kaigai?$AA@ 10053878     kaiguangai1108_capi.obj
 0002:0000a894       ??_C@_0BC@FAKNCHPI@tiaoshidongzuo?1s1?$AA@ 10053894     kaiguangai1108_capi.obj
 0002:0000a8ac       ??_C@_0BC@HLIAHEDL@tiaoshidongzuo?1s2?$AA@ 100538ac     kaiguangai1108_capi.obj
 0002:0000a8c4       ??_C@_0BC@GCJLEFHK@tiaoshidongzuo?1s3?$AA@ 100538c4     kaiguangai1108_capi.obj
 0002:0000a8dc       ??_C@_0BC@CNNKNDLN@tiaoshidongzuo?1s4?$AA@ 100538dc     kaiguangai1108_capi.obj
 0002:0000a8f4       ??_C@_0BC@DEMBOCPM@tiaoshidongzuo?1s5?$AA@ 100538f4     kaiguangai1108_capi.obj
 0002:0000a90c       ??_C@_0BC@BPOMLBDP@tiaoshidongzuo?1s6?$AA@ 1005390c     kaiguangai1108_capi.obj
 0002:0000a924       ??_C@_0BC@GPHIAHO@tiaoshidongzuo?1s7?$AA@ 10053924     kaiguangai1108_capi.obj
 0002:0000a93c       ??_C@_0BC@IBGPJMLB@tiaoshidongzuo?1s8?$AA@ 1005393c     kaiguangai1108_capi.obj
 0002:0000a954       ??_C@_0BH@FFLBEJBK@tiaoshidongzuo?1songkai?$AA@ 10053954     kaiguangai1108_capi.obj
 0002:0000a970       ??_C@_0BH@CFDFIBNH@tiaoshidongzuo?1suoding?$AA@ 10053970     kaiguangai1108_capi.obj
 0002:0000a98c       ??_C@_0BF@LIBOACEE@tiaoshidongzuo?1yajin?$AA@ 1005398c     kaiguangai1108_capi.obj
 0002:0000a9a8       ??_C@_0CF@BMPGHEAP@tiaoshimoshi?1tiaoshi_huanxiangxi@ 100539a8     kaiguangai1108_capi.obj
 0002:0000a9d4       ??_C@_0O@LILIEJBO@InitialOutput?$AA@ 100539d4     kaiguangai1108_capi.obj
 0002:0000a9e4       ??_C@_0CC@DKOIEBMA@Subsystem1?1jinggaixuanze?1jinggai@ 100539e4     kaiguangai1108_capi.obj
 0002:0000aa0c       ??_C@_0CC@BBMFBCAD@Subsystem1?1jinggaixuanze?1jinggai@ 10053a0c     kaiguangai1108_capi.obj
 0002:0000aa34       ??_C@_0CC@INOCDEC@Subsystem1?1jinggaixuanze?1jinggai@ 10053a34     kaiguangai1108_capi.obj
 0002:0000aa5c       ??_C@_0CC@EHJPLFIF@Subsystem1?1jinggaixuanze?1jinggai@ 10053a5c     kaiguangai1108_capi.obj
 0002:0000aa84       ??_C@_0CC@FOIEIEME@Subsystem1?1jinggaixuanze?1jinggai@ 10053a84     kaiguangai1108_capi.obj
 0002:0000aaac       ??_C@_0CC@HFKJNHAH@Subsystem1?1jinggaixuanze?1jinggai@ 10053aac     kaiguangai1108_capi.obj
 0002:0000aad4       ??_C@_0CC@GMLCOGEG@Subsystem1?1jinggaixuanze?1jinggai@ 10053ad4     kaiguangai1108_capi.obj
 0002:0000aafc       ??_C@_0CC@OLCKPKIJ@Subsystem1?1jinggaixuanze?1jinggai@ 10053afc     kaiguangai1108_capi.obj
 0002:0000ab24       ??_C@_0CF@BOPPFKE@Subsystem1?1shoudong?1songkaihuanx@ 10053b24     kaiguangai1108_capi.obj
 0002:0000ab50       ??_C@_0CE@IBPNEGPF@Subsystem1?1shoudong?1kaigaihuanxi@ 10053b50     kaiguangai1108_capi.obj
 0002:0000ab7c       ??_C@_0CD@JALAKDOI@Subsystem1?1shoudong?1yajinhuanxia@ 10053b7c     kaiguangai1108_capi.obj
 0002:0000aba8       ??_C@_0CF@BHEGEKIC@Subsystem1?1shoudong?1guangaihuanx@ 10053ba8     kaiguangai1108_capi.obj
 0002:0000abd4       ??_C@_0CE@ECGJPAKI@Subsystem1?1shoudong?1sdyichangxin@ 10053bd4     kaiguangai1108_capi.obj
 0002:0000ac00       ??_C@_0CD@MGEONDGL@Subsystem1?1zidong?1songkaihuanxia@ 10053c00     kaiguangai1108_capi.obj
 0002:0000ac2c       ??_C@_0CC@PHHDDNIO@Subsystem1?1zidong?1kaigaihuanxian@ 10053c2c     kaiguangai1108_capi.obj
 0002:0000ac54       ??_C@_0CB@MCIKEIKI@Subsystem1?1zidong?1yajinhuanxiang@ 10053c54     kaiguangai1108_capi.obj
 0002:0000ac7c       ??_C@_0CD@NAOHGMEN@Subsystem1?1zidong?1guangaihuanxia@ 10053c7c     kaiguangai1108_capi.obj
 0002:0000aca8       ??_C@_0CC@OJJMIFAN@Subsystem1?1zidong?1zdyichangxinha@ 10053ca8     kaiguangai1108_capi.obj
 0002:0000acd0       ??_C@_0CA@NNHJDFMI@shoudongcaozuo?1husuo?1Constant12?$AA@ 10053cd0     kaiguangai1108_capi.obj
 0002:0000acf8       ??_C@_0CA@MEGCAEIJ@shoudongcaozuo?1husuo?1Constant13?$AA@ 10053cf8     kaiguangai1108_capi.obj
 0002:0000ad20       ??_C@_0CA@LJBFPAMM@shoudongcaozuo?1husuo?1Constant16?$AA@ 10053d20     kaiguangai1108_capi.obj
 0002:0000ad48       ??_C@_0CA@KAAOMBIN@shoudongcaozuo?1husuo?1Constant17?$AA@ 10053d48     kaiguangai1108_capi.obj
 0002:0000ad70       ??_C@_0CA@CHJGNNEC@shoudongcaozuo?1husuo?1Constant18?$AA@ 10053d70     kaiguangai1108_capi.obj
 0002:0000ad98       ??_C@_0CA@DOINOMAD@shoudongcaozuo?1husuo?1Constant19?$AA@ 10053d98     kaiguangai1108_capi.obj
 0002:0000adc0       ??_C@_0CA@GAMBJHEL@tiaoshidongzuo?1husuo?1Constant12?$AA@ 10053dc0     kaiguangai1108_capi.obj
 0002:0000ade8       ??_C@_0CA@HJNKKGAK@tiaoshidongzuo?1husuo?1Constant13?$AA@ 10053de8     kaiguangai1108_capi.obj
 0002:0000ae10       ??_C@_0CA@EKNFCEP@tiaoshidongzuo?1husuo?1Constant16?$AA@ 10053e10     kaiguangai1108_capi.obj
 0002:0000ae38       ??_C@_0CA@BNLGGDAO@tiaoshidongzuo?1husuo?1Constant17?$AA@ 10053e38     kaiguangai1108_capi.obj
 0002:0000ae60       ??_C@_0CA@JKCOHPMB@tiaoshidongzuo?1husuo?1Constant18?$AA@ 10053e60     kaiguangai1108_capi.obj
 0002:0000ae88       ??_C@_0CA@IDDFEOIA@tiaoshidongzuo?1husuo?1Constant19?$AA@ 10053e88     kaiguangai1108_capi.obj
 0002:0000aeb0       ??_C@_06BNJCAIGJ@double?$AA@ 10053eb0     kaiguangai1108_capi.obj
 0002:0000aeb8       ??_C@_06CNMIJIPB@real_T?$AA@ 10053eb8     kaiguangai1108_capi.obj
 0002:0000aec0       ??_C@_0O@PPAIJIHF@unsigned?5char?$AA@ 10053ec0     kaiguangai1108_capi.obj
 0002:0000aed0       ??_C@_09JBMFCIMO@boolean_T?$AA@ 10053ed0     kaiguangai1108_capi.obj
 0002:0000aedc       ??_C@_05KNFBNCOH@float?$AA@ 10053edc     kaiguangai1108_capi.obj
 0002:0000b748       ??_C@_0DJ@FHKINPLE@Unexpected?5itemKind?5?$DN?5DATA_ITEM?5@ 10054748     rt_logging.obj
 0002:0000b78c       ??_C@_0DA@IEHFPFCJ@Unexpected?5itemKind?$DN?$CFd?5in?5rt_Pro@ 1005478c     rt_logging.obj
 0002:0000b7c8       ??_C@_0DA@IFLHJPBO@Unexpected?5itemKind?$DN?$CFd?5in?5rt_Pro@ 100547c8     rt_logging.obj
 0002:0000b804       ??_C@_0DA@IAPIIJJL@Unexpected?5itemKind?$DN?$CFd?5in?5rt_Pro@ 10054804     rt_logging.obj
 0002:0000b840       ??_C@_0BE@LCIGPJIG@MATLAB?55?40?5MAT?9file?$AA@ 10054840     rt_logging.obj
 0002:0000b858       ??_C@_0FB@PCJEAJIB@?$CK?$CK?$CK?5Log?5variable?5?$CFs?5has?5wrapped?5@ 10054858     rt_logging.obj
 0002:0000b8c0       ??_C@_0MG@NKMLMOGF@?$CK?$CK?$CK?5To?5avoid?5wrapping?0?5explicitl@ 100548c0     rt_logging.obj
 0002:0000b9b0       ??_C@_0N@IPAEOLLP@_rtw_tmw?4tmw?$AA@ 100549b0     rt_logging.obj
 0002:0000b9c0       ??_C@_04HDOCAJNK@?$CFs?$CFs?$AA@ 100549c0     rt_logging.obj
 0002:0000b9c8       ??_C@_03ELIABIOC@w?$CLb?$AA@ 100549c8     rt_logging.obj
 0002:0000b9cc       ??_C@_0BF@JPILDDFA@?$CK?$CK?$CK?5Error?5opening?5?$CFs?$AA@ 100549cc     rt_logging.obj
 0002:0000b9e8       ??_C@_0BK@EEMDELA@unable?5to?5open?5data?5file?6?$AA@ 100549e8     rt_logging.obj
 0002:0000ba08       ??_C@_04CGFJFPFD@none?$AA@ 10054a08     rt_logging.obj
 0002:0000ba10       ??_C@_0EE@LCGFPNON@?$CK?$CK?$CK?5Error?5creating?5signals?5struc@ 10054a10     rt_logging.obj
 0002:0000ba64       ??_C@_0CE@NHECEDMK@?$CK?$CK?$CK?5Error?5creating?5log?5variable?5@ 10054a64     rt_logging.obj
 0002:0000ba90       ??_C@_0DB@IOCGKAGH@?$CK?$CK?$CK?5Errors?5occurred?5when?5startin@ 10054a90     rt_logging.obj
 0002:0000bacc       ??_C@_0BO@BBLOGEBK@?$CK?$CK?$CK?5Memory?5allocation?5error?4?6?$AA@ 10054acc     rt_logging.obj
 0002:0000baf0       ??_C@_0N@LGFBAGEL@?5?$CIreal?5part?$CJ?$AA@ 10054af0     rt_logging.obj
 0002:0000bb00       ??_C@_0KH@CGNMHNFE@?5?5?5?5varName?5?5?5?5?5?5?5?5?5?5?$DN?5?$CFs?$CFs?6?5?5?5?5@ 10054b00     rt_logging.obj
 0002:0000bbc8       ??_C@_0LE@OALKKEFM@?5?5?5?5varName?5?5?5?5?5?5?5?5?5?5?$DN?5?$CFs?5?$CIcompl@ 10054bc8     rt_logging.obj
 0002:0000bca0       ??_C@_0KF@JDDLEOKO@?5?5?5?5varName?5?5?5?5?5?5?5?5?5?5?$DN?5?$CFs?6?5?5?5?5nR@ 10054ca0     rt_logging.obj
 0002:0000bd68       ??_C@_0DP@HPDMIOFM@?$CK?$CK?$CK?5Using?5a?5default?5buffer?5of?5si@ 10054d68     rt_logging.obj
 0002:0000bdb8       ??_C@_0KE@JEFOLKNF@?6?$CK?$CK?$CK?5Memory?5required?5to?5log?5vari@ 10054db8     rt_logging.obj
 0002:0000be80       ??_C@_0JP@DKLMHCBI@?$CK?$CK?$CK?5Details?3?6?5?5?5?5?5?5?5varName?5?5?5?5?5@ 10054e80     rt_logging.obj
 0002:0000bf40       ??_C@_0CM@CAMILBED@?$CK?$CK?$CK?5Error?5allocating?5memory?5for?5@ 10054f40     rt_logging.obj
 0002:0000bf74       ??_C@_0DF@BBCNMOPM@?$CK?$CK?$CK?5Error?5allocating?5memory?5for?5@ 10054f74     rt_logging.obj
 0002:0000bfb8       ??_C@_0JP@DBCLPCCI@?$CK?$CK?$CK?5Details?3?6?5?5?5?5?5?5?5varName?5?5?5?5?5@ 10054fb8     rt_logging.obj
 0002:0000c078       ??_C@_0FK@DPGAOBGA@?$CK?$CK?$CK?5Error?5allocating?5memory?5for?5@ 10055078     rt_logging.obj
 0002:0000c0e4       ??_C@_0BI@GGDNPHLJ@?$CK?$CK?$CK?5Error?5writing?5to?5?$CFs?$AA@ 100550e4     rt_logging.obj
 0002:0000c100       ??_C@_0CB@IBGJGELG@?$CK?$CK?$CK?5Error?5writing?5?$CFs?5due?5to?3?5?$CFs?6@ 10055100     rt_logging.obj
 0002:0000c128       ??_C@_0CN@FLMCHCPB@?$CK?$CK?$CK?5Error?5writing?5log?5variable?5?$CF@ 10055128     rt_logging.obj
 0002:0000c160       ??_C@_0DH@GAJCNOJP@?$CK?$CK?$CK?5Error?5writing?5structure?5log?5@ 10055160     rt_logging.obj
 0002:0000c1a4       ??_C@_0BD@POEALECL@?$CK?$CK?5created?5?$CFs?5?$CK?$CK?6?6?$AA@ 100551a4     rt_logging.obj
 0002:0000c1c0       __real@0000000000000000    100551c0     rt_logging.obj
 0002:0000c1d0       __real@41dfffffffc00000    100551d0     rt_logging.obj
 0002:0000c1e0       __real@41efffffffe00000    100551e0     rt_logging.obj
 0002:0000c1f0       __real@4330000000000000    100551f0     rt_logging.obj
 0002:0000c200       __real@8000000000000000    10055200     rt_logging.obj
 0002:0000c210       __real@bfbf9add3afd2773    10055210     rt_logging.obj
 0002:0000c220       __real@c000000000000000    10055220     rt_logging.obj
 0002:0000c248       __real@3cb0000000000000    10055248     rt_matrx.obj
 0002:0000c258       __real@3fe0000000000000    10055258     rt_matrx.obj
 0002:0000c264       ??_C@_0BI@INNPNFJN@Memory?5Allocation?5Error?$AA@ 10055264     rtw_modelmap_utils.obj
 0002:0000c280       ??_C@_1FC@IMCOBDGH@?$AAG?$AA?3?$AA?2?$AAR?$AA2?$AA0?$AA1?$AA6?$AAb?$AA?2?$AAr?$AAt?$AAw?$AA?2?$AAc?$AA?2?$AAs?$AAr?$AAc?$AA?2?$AAr?$AAt?$AAw?$AA_?$AAm?$AAo?$AAd?$AAe?$AAl?$AAm?$AAa?$AAp@ 10055280     rtw_modelmap_utils.obj
 0002:0000c2e4       ??_C@_1CI@OEAJCJND@?$AAj?$AA?5?$AA?$DN?$AA?$DN?$AA?5?$AAe?$AAn?$AAc?$AAo?$AAd?$AAe?$AAd?$AAP?$AAa?$AAt?$AAh?$AAL?$AAe?$AAn?$AA?$AA@ 100552e4     rtw_modelmap_utils.obj
 0002:0000c314       ??_C@_1DC@NFAOIFKB@?$AAe?$AAn?$AAc?$AAo?$AAd?$AAe?$AAd?$AAP?$AAa?$AAt?$AAh?$AA?$FL?$AAj?$AA?9?$AA1?$AA?$FN?$AA?5?$AA?$DN?$AA?$DN?$AA?5?$AA?8?$AA?2?$AA0?$AA?8?$AA?$AA@ 10055314     rtw_modelmap_utils.obj
 0002:0000c350       ??_C@_1DI@FLNJGPEE@?$AAs?$AAi?$AAg?$AAC?$AAo?$AAm?$AAp?$AAl?$AAe?$AAx?$AAi?$AAt?$AAy?$AA?$FL?$AA?$CK?$AAs?$AAi?$AAg?$AAI?$AAd?$AAx?$AA?$FN?$AA?5?$AA?$CB?$AA?$DN?$AA?5?$AA1?$AA?$AA@ 10055350     rtw_modelmap_utils.obj
 0002:0000c398       ??_C@_1KI@OFELMGBG@?$AA?$CI?$AA?$CI?$AA?$CI?$AAd?$AAa?$AAt?$AAa?$AAT?$AAy?$AAp?$AAe?$AAM?$AAa?$AAp?$AA?$CJ?$AA?$FL?$AA?$CI?$AA?$CI?$AA?$CI?$AAs?$AAt?$AAa?$AAt?$AAe?$AAs?$AA?$CJ?$AA?$FL?$AA?$CI?$AAi?$AA?$CJ?$AA?$FN?$AA?4@ 10055398     rtw_modelmap_utils.obj
 0002:0000c464       ??_C@_1DA@ILCMPHNE@?$AAf?$AAu?$AAl?$AAl?$AAP?$AAa?$AAt?$AAh?$AA?5?$AA?$CB?$AA?$DN?$AA?5?$AA?$CI?$AA?$CI?$AAv?$AAo?$AAi?$AAd?$AA?5?$AA?$CK?$AA?$CJ?$AA0?$AA?$CJ?$AA?$AA@ 10055464     rtw_modelmap_utils.obj
 0002:0000c4a0       ??_C@_1CI@OEPPFCCA@?$AAp?$AAa?$AAt?$AAh?$AA?5?$AA?$CB?$AA?$DN?$AA?5?$AA?$CI?$AA?$CI?$AAv?$AAo?$AAi?$AAd?$AA?5?$AA?$CK?$AA?$CJ?$AA0?$AA?$CJ?$AA?$AA@ 100554a0     rtw_modelmap_utils.obj
 0002:0000c4d0       ??_C@_1FK@GLJIMFHB@?$AA?$CI?$AA?$CI?$AAm?$AAm?$AAi?$AA?$CJ?$AA?9?$AA?$DO?$AAI?$AAn?$AAs?$AAt?$AAa?$AAn?$AAc?$AAe?$AAM?$AAa?$AAp?$AA?4?$AAf?$AAu?$AAl?$AAl?$AAP?$AAa?$AAt?$AAh?$AA?$CJ?$AA?5?$AA?$DN?$AA?$DN@ 100554d0     rtw_modelmap_utils.obj
 0002:0000c53c       ??_C@_1DG@HPCJGNCE@?$AAm?$AAm?$AAi?$AAP?$AAa?$AAt?$AAh?$AA?$FL?$AAp?$AAa?$AAt?$AAh?$AAL?$AAe?$AAn?$AA?9?$AA1?$AA?$FN?$AA?5?$AA?$DN?$AA?$DN?$AA?5?$AA?8?$AA?2?$AA0?$AA?8?$AA?$AA@ 1005553c     rtw_modelmap_utils.obj
 0002:0000c57c       ??_C@_1DM@DBAOGGOO@?$AAm?$AAm?$AAi?$AAP?$AAa?$AAt?$AAh?$AA?$FL?$AAm?$AAm?$AAi?$AAP?$AAa?$AAt?$AAh?$AAL?$AAe?$AAn?$AA?9?$AA1?$AA?$FN?$AA?5?$AA?$DN?$AA?$DN?$AA?5?$AA?8?$AA?2?$AA0?$AA?8?$AA?$AA@ 1005557c     rtw_modelmap_utils.obj
 0002:0000c5c4       ??_C@_1DC@LHIAKAFE@?$AAb?$AAl?$AAo?$AAc?$AAk?$AAP?$AAa?$AAt?$AAh?$AA?5?$AA?$CB?$AA?$DN?$AA?5?$AA?$CI?$AA?$CI?$AAv?$AAo?$AAi?$AAd?$AA?5?$AA?$CK?$AA?$CJ?$AA0?$AA?$CJ?$AA?$AA@ 100555c4     rtw_modelmap_utils.obj
 0002:0000c600       ??_C@_1GI@KIEJKPGC@?$AAf?$AAu?$AAl?$AAl?$AAS?$AAt?$AAa?$AAt?$AAe?$AAB?$AAl?$AAo?$AAc?$AAk?$AAP?$AAa?$AAt?$AAh?$AA?$FL?$AAf?$AAu?$AAl?$AAl?$AAS?$AAt?$AAa?$AAt?$AAe?$AAB?$AAl?$AAo?$AAc@ 10055600     rtw_modelmap_utils.obj
 0002:0000c680       ??_C@_1EE@DNPIBJHC@?$AA?$CI?$AA?$CI?$AAd?$AAi?$AAm?$AAM?$AAa?$AAp?$AA?$CJ?$AA?$FL?$AA?$CI?$AAm?$AAa?$AAp?$AAI?$AAd?$AAx?$AA?$CJ?$AA?$FN?$AA?4?$AAn?$AAu?$AAm?$AAD?$AAi?$AAm?$AAs?$AA?$CJ?$AA?5?$AA?$DN?$AA?$DN?$AA?5@ 10055680     rtw_modelmap_utils.obj
 0002:0000c6d4       ??_C@_06JFOKFOED@CSTATE?$AA@ 100556d4     rtw_modelmap_utils.obj
 0002:0000c6dc       ??_C@_06FAENGAMN@DSTATE?$AA@ 100556dc     rtw_modelmap_utils.obj
 0002:0000c6e4       ??_C@_1BI@LEBJNOGG@?$AAc?$AAs?$AAv?$AAI?$AAd?$AAx?$AA?5?$AA?$DO?$AA?$DN?$AA?5?$AA0?$AA?$AA@ 100556e4     rtw_modelmap_utils.obj
 0002:0000c700       ??_C@_1BA@KDMGHCHP@?$AAT?$AAI?$AAD?$AA?$DN?$AA?$DN?$AA?9?$AA1?$AA?$AA@ 10055700     rtw_modelmap_utils.obj
 0002:0000c714       ??_C@_1DM@DHGKBPCE@?$AAs?$AAi?$AAg?$AAP?$AAa?$AAt?$AAh?$AA?$FL?$AAs?$AAi?$AAg?$AAP?$AAa?$AAt?$AAh?$AAL?$AAe?$AAn?$AA?9?$AA1?$AA?$FN?$AA?5?$AA?$DN?$AA?$DN?$AA?5?$AA?8?$AA?2?$AA0?$AA?8?$AA?$AA@ 10055714     rtw_modelmap_utils.obj
 0002:0000c75c       _serialfifoground          1005575c     xpc_datatype_ground.obj
 0002:0000c768       _bcmsg1553ground           10055768     xpc_datatype_ground.obj
 0002:0000c778       _bcstatground              10055778     xpc_datatype_ground.obj
 0002:0000c790       _bmmsg1553ground           10055790     xpc_datatype_ground.obj
 0002:0000c7b0       _ptsetfilename             100557b0     xpctarget.obj
 0002:0000c7b4       _xmlfile                   100557b4     xpctarget.obj
 0002:0000c7bc       ??_C@_0P@GKFPAIFK@kaiguangai1108?$AA@ 100557bc     xpctarget.obj
 0002:0000c7d0       ??_C@_0L@CHBJKKFC@xpceSetVar?$AA@ 100557d0     xpctarget.obj
 0002:0000c7e0       ??_C@_03JLBJCOMC@6?45?$AA@ 100557e0     xpctarget.obj
 0002:0000c7e8       __real@3fb999999999999a    100557e8     xpctarget.obj
 0002:0000c7f8       __real@407f400000000000    100557f8     xpctarget.obj
 0002:0000c808       _kaiguangai1108_BIOMAP     10055808     appmappingData.obj
 0002:0000e000       _kaiguangai1108_LBLMAP     10057000     appmappingData.obj
 0002:0000f7f8       _kaiguangai1108_SIDMAP     100587f8     appmappingData.obj
 0002:00010ff0       _kaiguangai1108_SBIO       10059ff0     appmappingData.obj
 0002:000117f0       _kaiguangai1108_SLBL       1005a7f0     appmappingData.obj
 0002:00011ff0       _kaiguangai1108_PTIDSMAP   1005aff0     appmappingData.obj
 0002:000122f8       _kaiguangai1108_PTNAMESMAP 1005b2f8     appmappingData.obj
 0002:00012600       _kaiguangai1108_SPTMAP     1005b600     appmappingData.obj
 0002:00012784       _kaiguangai1108_dtmap      1005b784     appmappingData.obj
 0002:000127a0       _appInfo                   1005b7a0     appmappingData.obj
 0002:00013b20       ??_C@_0ED@LKHIFFLC@Wrong?5number?5of?5input?5arguments?5@ 1005cb20     pci1756IO.obj
 0002:00013b70       ??_C@_07PJCJFOMM@pci1756?$AA@ 1005cb70     pci1756IO.obj
 0002:00013b7c       ??_C@_0BG@EPCOHGPO@?$CFs?3?5board?5not?5present?$AA@ 1005cb7c     pci1756IO.obj
 0002:00013b98       ??_C@_0CI@NFFNBHJA@?$CFs?5?$CIbus?5?$CFd?0?5slot?5?$CFd?$CJ?3?5board?5not?5@ 1005cb98     pci1756IO.obj
 0002:00013bc8       ??_C@_0CC@DMFKNLL@VendorId?5?$DN?50x?$CFx?0?5DeviceId?5?$DN?50x?$CFx@ 1005cbc8     xpcruntime:xpcimports.obj
 0002:00013bec       ??_C@_0DH@OHCBLNMG@Subsystem?5Device?5ID?5?$DN?50x?$CFx?6Subsy@ 1005cbec     xpcruntime:xpcimports.obj
 0002:00013c24       ??_C@_0BD@MMMMEFCM@Class?5Code?5?$DN?50x?$CFx?6?$AA@ 1005cc24     xpcruntime:xpcimports.obj
 0002:00013c38       ??_C@_0BE@OLDDDNHM@InterruptLine?5?$DN?5?$CFd?6?$AA@ 1005cc38     xpcruntime:xpcimports.obj
 0002:00013c4c       ??_C@_0BF@OLKLEKBD@bus?5?$DN?5?$CFd?0?5slot?5?$DN?5?$CFd?6?$AA@ 1005cc4c     xpcruntime:xpcimports.obj
 0002:00013c64       ??_C@_0CE@DGLLGDFH@?5?5?5?5Phys?5?5?5Virtual?5?5?5Length?5IO?1M@ 1005cc64     xpcruntime:xpcimports.obj
 0002:00013c88       ??_C@_0BI@FEOPLEMG@?$CF08x?5?$CF08x?5?$CF08x?5?5?5?5?5?5?$CFc?6?$AA@ 1005cc88     xpcruntime:xpcimports.obj
 0002:00013ca0       ??_C@_0BB@BNNCEDPC@rl32eScopeExists?$AA@ 1005cca0     xpcruntime:xpcimports.obj
 0002:00013cb4       ??_C@_0BM@FJBFEGFG@rl32eScopeExists?5not?5found?6?$AA@ 1005ccb4     xpcruntime:xpcimports.obj
 0002:00013cd0       ??_C@_0O@BNNGKJEA@rl32eDefScope?$AA@ 1005ccd0     xpcruntime:xpcimports.obj
 0002:00013ce0       ??_C@_0BJ@CDNOENKA@rl32eDefScope?5not?5found?6?$AA@ 1005cce0     xpcruntime:xpcimports.obj
 0002:00013cfc       ??_C@_0P@CKNKILDP@rl32eAddSignal?$AA@ 1005ccfc     xpcruntime:xpcimports.obj
 0002:00013d0c       ??_C@_0BK@GMJAJBAI@rl32eAddSignal?5not?5found?6?$AA@ 1005cd0c     xpcruntime:xpcimports.obj
 0002:00013d28       ??_C@_0BB@LDMIHGCE@rl32eGetSignalNo?$AA@ 1005cd28     xpcruntime:xpcimports.obj
 0002:00013d3c       ??_C@_0BM@LGAMBAID@rl32eGetSignalNo?5not?5found?6?$AA@ 1005cd3c     xpcruntime:xpcimports.obj
 0002:00013d58       ??_C@_0O@CFDGALBP@rl32eSetScope?$AA@ 1005cd58     xpcruntime:xpcimports.obj
 0002:00013d68       ??_C@_0BJ@JCLHHIN@rl32eSetScope?5not?5found?6?$AA@ 1005cd68     xpcruntime:xpcimports.obj
 0002:00013d84       ??_C@_0P@IKMCBMHH@xpceFSScopeSet?$AA@ 1005cd84     xpcruntime:xpcimports.obj
 0002:00013d94       ??_C@_0BK@JODJPNNH@xpceFSScopeSet?5not?5found?6?$AA@ 1005cd94     xpcruntime:xpcimports.obj
 0002:00013db0       ??_C@_0BE@DLACEEJM@rl32eSetTargetScope?$AA@ 1005cdb0     xpcruntime:xpcimports.obj
 0002:00013dc4       ??_C@_0BP@JCHFMKPJ@rl32eSetTargetScope?5not?5found?6?$AA@ 1005cdc4     xpcruntime:xpcimports.obj
 0002:00013de4       ??_C@_0BJ@LIDLNDHC@rl32eSetTargetScopeSigFt?$AA@ 1005cde4     xpcruntime:xpcimports.obj
 0002:00013e00       ??_C@_0CE@JLGHCFHI@rl32eSetTargetScopeSigFt?5not?5fou@ 1005ce00     xpcruntime:xpcimports.obj
 0002:00013e24       ??_C@_0BI@JAPOIDNG@rl32eRestartAcquisition?$AA@ 1005ce24     xpcruntime:xpcimports.obj
 0002:00013e3c       ??_C@_0CD@LLBEFFBO@rl32eRestartAcquisition?5not?5foun@ 1005ce3c     xpcruntime:xpcimports.obj
 0002:00013e60       ??_C@_0P@IEIIADJB@xpceScopeAcqOK?$AA@ 1005ce60     xpcruntime:xpcimports.obj
 0002:00013e70       ??_C@_0BK@NJCKNFPN@xpceScopeAcqOK?5not?5found?6?$AA@ 1005ce70     xpcruntime:xpcimports.obj
 0002:00013e8c       ??_C@_0BA@IJINKAHF@xpceRegisterISR?$AA@ 1005ce8c     xpcruntime:xpcimports.obj
 0002:00013e9c       ??_C@_0BL@NNDLOEJE@xpceRegisterISR?5not?5found?6?$AA@ 1005ce9c     xpcruntime:xpcimports.obj
 0002:00013eb8       ??_C@_0BC@NLBADGKF@xpceDeRegisterISR?$AA@ 1005ceb8     xpcruntime:xpcimports.obj
 0002:00013ecc       ??_C@_0BN@DCAIKFFD@xpceDeRegisterISR?5not?5found?6?$AA@ 1005cecc     xpcruntime:xpcimports.obj
 0002:00013eec       ??_C@_07JPMEPILD@xpcInpB?$AA@ 1005ceec     xpcruntime:xpcimports.obj
 0002:00013ef4       ??_C@_0BD@PGABEJOL@xpcInpB?5not?5found?6?$AA@ 1005cef4     xpcruntime:xpcimports.obj
 0002:00013f08       ??_C@_07KIHBBOKH@xpcInpW?$AA@ 1005cf08     xpcruntime:xpcimports.obj
 0002:00013f10       ??_C@_0BD@FPCJFMCC@xpcInpW?5not?5found?6?$AA@ 1005cf10     xpcruntime:xpcimports.obj
 0002:00013f24       ??_C@_08KDIAJBOP@xpcInpDW?$AA@ 1005cf24     xpcruntime:xpcimports.obj
 0002:00013f30       ??_C@_0BE@PIELDNIL@xpcInpDW?5not?5found?6?$AA@ 1005cf30     xpcruntime:xpcimports.obj
 0002:00013f44       ??_C@_08PJFMOIGO@xpcOutpB?$AA@ 1005cf44     xpcruntime:xpcimports.obj
 0002:00013f50       ??_C@_0BE@HCKNCEKF@xpcOutpB?5not?5found?6?$AA@ 1005cf50     xpcruntime:xpcimports.obj
 0002:00013f64       ??_C@_08MOOJAOHK@xpcOutpW?$AA@ 1005cf64     xpcruntime:xpcimports.obj
 0002:00013f70       ??_C@_0BE@NLIFDBGM@xpcOutpW?5not?5found?6?$AA@ 1005cf70     xpcruntime:xpcimports.obj
 0002:00013f84       ??_C@_09FLIEKHJG@xpcOutpDW?$AA@ 1005cf84     xpcruntime:xpcimports.obj
 0002:00013f90       ??_C@_0BF@GJKLPNHB@xpcOutpDW?5not?5found?6?$AA@ 1005cf90     xpcruntime:xpcimports.obj
 0002:00013fa8       ??_C@_0BH@EHOLELHH@xpcReserveMemoryRegion?$AA@ 1005cfa8     xpcruntime:xpcimports.obj
 0002:00013fc0       ??_C@_0CC@KAAAGPI@xpcReserveMemoryRegion?5not?5found@ 1005cfc0     xpcruntime:xpcimports.obj
 0002:00013fe4       ??_C@_0BA@JGPMHGAF@rl32eShowPCIDev?$AA@ 1005cfe4     xpcruntime:xpcimports.obj
 0002:00013ff4       ??_C@_0BL@DDFFLNHI@rl32eShowPCIDev?5not?5found?6?$AA@ 1005cff4     xpcruntime:xpcimports.obj
 0002:00014010       ??_C@_0BB@KBCOJPFB@rl32eShowPCIInfo?$AA@ 1005d010     xpcruntime:xpcimports.obj
 0002:00014024       ??_C@_0BM@IFDMAGLO@rl32eShowPCIInfo?5not?5found?6?$AA@ 1005d024     xpcruntime:xpcimports.obj
 0002:00014040       ??_C@_0BA@BGPAADB@rl32eGetPCIInfo?$AA@ 1005d040     xpcruntime:xpcimports.obj
 0002:00014050       ??_C@_0BL@IGOMLDCK@rl32eGetPCIInfo?5not?5found?6?$AA@ 1005d050     xpcruntime:xpcimports.obj
 0002:0001406c       ??_C@_0BG@NJPFKFDP@rl32eGetPCIInfoAtSlot?$AA@ 1005d06c     xpcruntime:xpcimports.obj
 0002:00014084       ??_C@_0CB@BBKIPMLA@rl32eGetPCIInfoAtSlot?5not?5found?6@ 1005d084     xpcruntime:xpcimports.obj
 0002:000140a8       ??_C@_0BH@OKBOPNFG@xpceAssignPCIInterrupt?$AA@ 1005d0a8     xpcruntime:xpcimports.obj
 0002:000140c0       ??_C@_0CC@CDNDNJBJ@xpceAssignPCIInterrupt?5not?5found@ 1005d0c0     xpcruntime:xpcimports.obj
 0002:000140e4       ??_C@_0BD@PCKOKHO@xpceGetSignalValue?$AA@ 1005d0e4     xpcruntime:xpcimports.obj
 0002:000140f8       ??_C@_0BO@GCBDJHMB@xpceGetSignalValue?5not?5found?6?$AA@ 1005d0f8     xpcruntime:xpcimports.obj
 0002:00014118       ??_C@_0BB@BJONJAGA@xpceSetParameter?$AA@ 1005d118     xpcruntime:xpcimports.obj
 0002:0001412c       ??_C@_0BM@BJIKDLHA@xpceSetParameter?5not?5found?6?$AA@ 1005d12c     xpcruntime:xpcimports.obj
 0002:00014148       ??_C@_0BB@GNFDFMCM@xpceGetParameter?$AA@ 1005d148     xpcruntime:xpcimports.obj
 0002:0001415c       ??_C@_0BM@POHNKBC@xpceGetParameter?5not?5found?6?$AA@ 1005d15c     xpcruntime:xpcimports.obj
 0002:00014178       ??_C@_0BB@CEIJLFCD@xpceGetParamDims?$AA@ 1005d178     xpcruntime:xpcimports.obj
 0002:0001418c       ??_C@_0BM@OABDBKAO@xpceGetParamDims?5not?5found?6?$AA@ 1005d18c     xpcruntime:xpcimports.obj
 0002:000141a8       ??_C@_0L@OCBLLHBM@xpceGetTET?$AA@ 1005d1a8     xpcruntime:xpcimports.obj
 0002:000141b4       ??_C@_0BG@HNOFBOB@xpceGetTET?5not?5found?6?$AA@ 1005d1b4     xpcruntime:xpcimports.obj
 0002:000141cc       ??_C@_0P@OKGNGAGH@xpcIsModelInit?$AA@ 1005d1cc     xpcruntime:xpcimports.obj
 0002:000141dc       ??_C@_0BK@DHEMLBIM@xpcIsModelInit?5not?5found?6?$AA@ 1005d1dc     xpcruntime:xpcimports.obj
 0002:000141f8       ??_C@_0BH@KJJLCAOJ@xpcAllocPhysicalMemory?$AA@ 1005d1f8     xpcruntime:xpcimports.obj
 0002:00014210       ??_C@_0CC@MOJPNHKL@xpcAllocPhysicalMemory?5not?5found@ 1005d210     xpcruntime:xpcimports.obj
 0002:00014234       ??_C@_0BG@CBNPGAEL@xpcFreePhysicalMemory?$AA@ 1005d234     xpcruntime:xpcimports.obj
 0002:0001424c       ??_C@_0CB@PKJEBPOG@xpcFreePhysicalMemory?5not?5found?6@ 1005d24c     xpcruntime:xpcimports.obj
 0002:00014270       ??_C@_0BC@JGKNLICL@xpcGetElapsedTime?$AA@ 1005d270     xpcruntime:xpcimports.obj
 0002:00014284       ??_C@_0BN@OEOAHCIO@xpcGetElapsedTime?5not?5found?6?$AA@ 1005d284     xpcruntime:xpcimports.obj
 0002:000142a4       ??_C@_0M@ICBLMODA@xpcBusyWait?$AA@ 1005d2a4     xpcruntime:xpcimports.obj
 0002:000142b0       ??_C@_0BH@FBOPECBI@xpcBusyWait?5not?5found?6?$AA@ 1005d2b0     xpcruntime:xpcimports.obj
 0002:000142c8       ??_C@_0N@LKKJEKKA@TBCreateSpin?$AA@ 1005d2c8     xpcruntime:xpcimports.obj
 0002:000142d8       ??_C@_0BI@FHKMLKOE@TBCreateSpin?5not?5found?6?$AA@ 1005d2d8     xpcruntime:xpcimports.obj
 0002:000142f0       ??_C@_0N@HOAJHNBD@TBDeleteSpin?$AA@ 1005d2f0     xpcruntime:xpcimports.obj
 0002:00014300       ??_C@_0BI@BKCPAAG@TBDeleteSpin?5not?5found?6?$AA@ 1005d300     xpcruntime:xpcimports.obj
 0002:00014318       ??_C@_0P@DAHDDBJG@TBTakeSpinFast?$AA@ 1005d318     xpcruntime:xpcimports.obj
 0002:00014328       ??_C@_0BK@NKAIBHGB@TBTakeSpinFast?5not?5found?6?$AA@ 1005d328     xpcruntime:xpcimports.obj
 0002:00014344       ??_C@_0P@FKNAAELA@TBGiveSpinFast?$AA@ 1005d344     xpcruntime:xpcimports.obj
 0002:00014354       ??_C@_0BK@KGPJBJND@TBGiveSpinFast?5not?5found?6?$AA@ 1005d354     xpcruntime:xpcimports.obj
 0002:00014370       ??_C@_0BE@IIGBFDHK@xpceCreateSemaphore?$AA@ 1005d370     xpcruntime:xpcimports.obj
 0002:00014384       ??_C@_0BP@KFBAFFKJ@xpceCreateSemaphore?5not?5found?6?$AA@ 1005d384     xpcruntime:xpcimports.obj
 0002:000143a4       ??_C@_0BC@IFNIONKJ@xpceWaitSemaphore?$AA@ 1005d3a4     xpcruntime:xpcimports.obj
 0002:000143b8       ??_C@_0BN@NMFAADIO@xpceWaitSemaphore?5not?5found?6?$AA@ 1005d3b8     xpcruntime:xpcimports.obj
 0002:000143d8       ??_C@_0BE@NNDIOBKE@xpceSignalSemaphore?$AA@ 1005d3d8     xpcruntime:xpcimports.obj
 0002:000143ec       ??_C@_0BP@LBANMHJP@xpceSignalSemaphore?5not?5found?6?$AA@ 1005d3ec     xpcruntime:xpcimports.obj
 0002:0001440c       ??_C@_0BE@MEBEKOIM@xpceDeleteSemaphore?$AA@ 1005d40c     xpcruntime:xpcimports.obj
 0002:00014420       ??_C@_0BP@OFNCKOJH@xpceDeleteSemaphore?5not?5found?6?$AA@ 1005d420     xpcruntime:xpcimports.obj
 0002:00014440       ??_C@_0BD@MFNDMBOF@FindUsbVideoDevice?$AA@ 1005d440     xpcruntime:xpcimports.obj
 0002:00014454       ??_C@_0BO@POKLDHMI@FindUsbVideoDevice?5not?5found?6?$AA@ 1005d454     xpcruntime:xpcimports.obj
 0002:00014474       ??_C@_0BA@PLPAPNAB@GetVideoConfigs?$AA@ 1005d474     xpcruntime:xpcimports.obj
 0002:00014484       ??_C@_0BL@DALDHKHC@GetVideoConfigs?5not?5found?6?$AA@ 1005d484     xpcruntime:xpcimports.obj
 0002:000144a0       ??_C@_0L@GBAEMHMH@StartVideo?$AA@ 1005d4a0     xpcruntime:xpcimports.obj
 0002:000144ac       ??_C@_0BG@HDCELEBP@StartVideo?5not?5found?6?$AA@ 1005d4ac     xpcruntime:xpcimports.obj
 0002:000144c4       ??_C@_0BA@FDNPOCLN@ReadFrameBuffer?$AA@ 1005d4c4     xpcruntime:xpcimports.obj
 0002:000144d4       ??_C@_0BL@JHGHPNBI@ReadFrameBuffer?5not?5found?6?$AA@ 1005d4d4     xpcruntime:xpcimports.obj
 0002:000144f0       ??_C@_09FAHCLKAG@StopVideo?$AA@ 1005d4f0     xpcruntime:xpcimports.obj
 0002:000144fc       ??_C@_0BF@NKGKKADL@StopVideo?5not?5found?6?$AA@ 1005d4fc     xpcruntime:xpcimports.obj
 0002:00014514       ??_C@_0O@MCPKDLLL@ConvertUImage?$AA@ 1005d514     xpcruntime:xpcimports.obj
 0002:00014524       ??_C@_0BJ@PHJKOAFL@ConvertUImage?5not?5found?6?$AA@ 1005d524     xpcruntime:xpcimports.obj
 0002:00014540       ??_C@_0BD@NKCBPBJJ@CreateVideoDisplay?$AA@ 1005d540     xpcruntime:xpcimports.obj
 0002:00014554       ??_C@_0BO@HPPLLNFP@CreateVideoDisplay?5not?5found?6?$AA@ 1005d554     xpcruntime:xpcimports.obj
 0002:00014574       ??_C@_0BE@KJCKGPHA@DestroyVideoDisplay?$AA@ 1005d574     xpcruntime:xpcimports.obj
 0002:00014588       ??_C@_0BP@FMGLJAIJ@DestroyVideoDisplay?5not?5found?6?$AA@ 1005d588     xpcruntime:xpcimports.obj
 0002:000145a8       ??_C@_0BC@HCMIMIDN@StartVideoDisplay?$AA@ 1005d5a8     xpcruntime:xpcimports.obj
 0002:000145bc       ??_C@_0BN@EFIEBGOO@StartVideoDisplay?5not?5found?6?$AA@ 1005d5bc     xpcruntime:xpcimports.obj
 0002:000145dc       ??_C@_0BB@JBBLMILG@StopVideoDisplay?$AA@ 1005d5dc     xpcruntime:xpcimports.obj
 0002:000145f0       ??_C@_0BM@DBJBPLEL@StopVideoDisplay?5not?5found?6?$AA@ 1005d5f0     xpcruntime:xpcimports.obj
 0002:0001460c       ??_C@_0M@MFJEGMHC@StreamVideo?$AA@ 1005d60c     xpcruntime:xpcimports.obj
 0002:00014618       ??_C@_0BH@OINCDMLA@StreamVideo?5not?5found?6?$AA@ 1005d618     xpcruntime:xpcimports.obj
 0002:00014630       ??_C@_0N@IGGLCIGE@xpceaddEvent?$AA@ 1005d630     xpcruntime:xpcimports.obj
 0002:00014640       ??_C@_0BI@NHJNFMKH@xpceaddEvent?5not?5found?6?$AA@ 1005d640     xpcruntime:xpcimports.obj
 0002:00014658       ??_C@_0BB@LCMHHHFN@getMemoryService?$AA@ 1005d658     xpcruntime:xpcimports.obj
 0002:0001466c       ??_C@_0BM@MPLCNIIE@getMemoryService?5not?5found?6?$AA@ 1005d66c     xpcruntime:xpcimports.obj
 0002:00014688       ??_C@_0P@KIKONDKK@getCommService?$AA@ 1005d688     xpcruntime:xpcimports.obj
 0002:00014698       ??_C@_0BK@NCECBKNM@getCommService?5not?5found?6?$AA@ 1005d698     xpcruntime:xpcimports.obj
 0002:000146b4       ??_C@_0P@GDLHFECE@getStatusFlags?$AA@ 1005d6b4     xpcruntime:xpcimports.obj
 0002:000146c4       ??_C@_0BK@NEKDLJHG@getStatusFlags?5not?5found?6?$AA@ 1005d6c4     xpcruntime:xpcimports.obj
 0002:000146e0       ??_C@_0BL@CDFCLKOL@startToAsyncQueueTgtAppSvc?$AA@ 1005d6e0     xpcruntime:xpcimports.obj
 0002:000146fc       ??_C@_0CG@JGOFFKEL@startToAsyncQueueTgtAppSvc?5not?5f@ 1005d6fc     xpcruntime:xpcimports.obj
 0002:00014724       ??_C@_0BP@IJNGPPPE@terminateToAsyncQueueTgtAppSvc?$AA@ 1005d724     xpcruntime:xpcimports.obj
 0002:00014744       ??_C@_0CK@NDEMAMKF@terminateToAsyncQueueTgtAppSvc?5n@ 1005d744     xpcruntime:xpcimports.obj
 0002:00014770       ??_C@_0BK@IDACEHAO@sendToAsyncQueueTgtAppSvc?$AA@ 1005d770     xpcruntime:xpcimports.obj
 0002:0001478c       ??_C@_0CF@PNCKPEHN@sendToAsyncQueueTgtAppSvc?5not?5fo@ 1005d78c     xpcruntime:xpcimports.obj
 0002:000147b4       ??_C@_0BN@HJOHIFOM@xpceGetIntTimerGranularityNS?$AA@ 1005d7b4     xpcruntime:xpcimports.obj
 0002:000147d4       ??_C@_0CI@OADDPMKB@xpceGetIntTimerGranularityNS?5not@ 1005d7d4     xpcruntime:xpcimports.obj
 0002:000147fc       ??_C@_0BG@CCHICKPN@slrteSetStepSizeDelta?$AA@ 1005d7fc     xpcruntime:xpcimports.obj
 0002:00014814       ??_C@_0CB@MKHINEIJ@slrteSetStepSizeDelta?5not?5found?6@ 1005d814     xpcruntime:xpcimports.obj
 0002:00014838       ??_C@_0BI@CLNBLDKJ@slrteGetCurrentStepSize?$AA@ 1005d838     xpcruntime:xpcimports.obj
 0002:00014850       ??_C@_0CD@GIOJPGJA@slrteGetCurrentStepSize?5not?5foun@ 1005d850     xpcruntime:xpcimports.obj
 0002:00014874       ??_C@_0BE@FCLCBOC@registerPTPTimeRead?$AA@ 1005d874     xpcruntime:xpcimports.obj
 0002:00014888       ??_C@_0BP@LHPKAJIP@registerPTPTimeRead?5not?5found?6?$AA@ 1005d888     xpcruntime:xpcimports.obj
 0002:000148a8       ??_C@_0BG@KIGCDDJI@unRegisterPTPTimeRead?$AA@ 1005d8a8     xpcruntime:xpcimports.obj
 0002:000148c0       ??_C@_0CB@MLFFBFCM@unRegisterPTPTimeRead?5not?5found?6@ 1005d8c0     xpcruntime:xpcimports.obj
 0002:000148e4       ??_C@_0BB@IPMDDBHK@slTestInitialize?$AA@ 1005d8e4     xpcruntime:xpcimports.obj
 0002:000148f8       ??_C@_0BM@LAJFCCJH@slTestInitialize?5not?5found?6?$AA@ 1005d8f8     xpcruntime:xpcimports.obj
 0002:00014914       ??_C@_0BF@OOMPMEBC@slTestLogAssessments?$AA@ 1005d914     xpcruntime:xpcimports.obj
 0002:0001492c       ??_C@_0CA@FGJCEBAG@slTestLogAssessments?5not?5found?6?$AA@ 1005d92c     xpcruntime:xpcimports.obj
 0002:0001494c       ??_C@_0BB@HJHKONHO@slTestEvalOnFail?$AA@ 1005d94c     xpcruntime:xpcimports.obj
 0002:00014960       ??_C@_0BM@JIKCFFNJ@slTestEvalOnFail?5not?5found?6?$AA@ 1005d960     xpcruntime:xpcimports.obj
 0002:0001497c       ??_C@_0BA@LBHLABFP@slTestTerminate?$AA@ 1005d97c     xpcruntime:xpcimports.obj
 0002:0001498c       ??_C@_0BL@EMFGKAPA@slTestTerminate?5not?5found?6?$AA@ 1005d98c     xpcruntime:xpcimports.obj
 0002:000149a8       ??_C@_0BE@JPNPBBEO@slTestRegAssessment?$AA@ 1005d9a8     xpcruntime:xpcimports.obj
 0002:000149bc       ??_C@_0BP@FBDEJJJH@slTestRegAssessment?5not?5found?6?$AA@ 1005d9bc     xpcruntime:xpcimports.obj
 0002:000149dc       ??_C@_0O@NCLGDNIB@slrteSetupMSI?$AA@ 1005d9dc     xpcruntime:xpcimports.obj
 0002:000149ec       ??_C@_0BJ@HEFMECLM@slrteSetupMSI?5not?5found?6?$AA@ 1005d9ec     xpcruntime:xpcimports.obj
 0002:00014a08       ??_C@_0BH@BPOLALHD@slrtGetCRBScratchSpace?$AA@ 1005da08     xpcruntime:xpcimports.obj
 0002:00014a20       ??_C@_0CC@KCKAJKKJ@slrtGetCRBScratchSpace?5not?5found@ 1005da20     xpcruntime:xpcimports.obj
 0002:00014a44       ??_C@_0BC@MKFDAKOL@slrtGetSgCRBSpace?$AA@ 1005da44     xpcruntime:xpcimports.obj
 0002:00014a58       ??_C@_0BN@JDPHPLHL@slrtGetSgCRBSpace?5not?5found?6?$AA@ 1005da58     xpcruntime:xpcimports.obj
 0002:00014a78       ??_C@_0P@EPAPKLIF@slrtfsOpenFile?$AA@ 1005da78     xpcruntime:xpcimports.obj
 0002:00014a88       ??_C@_0BK@FIHCBOHG@slrtfsOpenFile?5not?5found?6?$AA@ 1005da88     xpcruntime:xpcimports.obj
 0002:00014aa4       ??_C@_0BA@LILAFDDL@slrtfsCloseFile?$AA@ 1005daa4     xpcruntime:xpcimports.obj
 0002:00014ab4       ??_C@_0BL@DEGHJFIB@slrtfsCloseFile?5not?5found?6?$AA@ 1005dab4     xpcruntime:xpcimports.obj
 0002:00014ad0       ??_C@_0BC@OKMJDIEH@slrtfsWriteToFile?$AA@ 1005dad0     xpcruntime:xpcimports.obj
 0002:00014ae4       ??_C@_0BN@KCFLCLAH@slrtfsWriteToFile?5not?5found?6?$AA@ 1005dae4     xpcruntime:xpcimports.obj
 0002:00014b04       ??_C@_0BK@GIPNFFFF@slrtfsGetFileErrorMessage?$AA@ 1005db04     xpcruntime:xpcimports.obj
 0002:00014b20       ??_C@_0CF@BCBLMKLE@slrtfsGetFileErrorMessage?5not?5fo@ 1005db20     xpcruntime:xpcimports.obj
 0002:00014b48       ??_C@_0BD@ICBOKMK@slrtfsGetFileError?$AA@ 1005db48     xpcruntime:xpcimports.obj
 0002:00014b5c       ??_C@_0BO@FNBANAE@slrtfsGetFileError?5not?5found?6?$AA@ 1005db5c     xpcruntime:xpcimports.obj
 0002:00014b7c       ??_C@_0BE@PPAJMHJP@slrtfsOpenFileAsync?$AA@ 1005db7c     xpcruntime:xpcimports.obj
 0002:00014b90       ??_C@_0BP@HKBMMJOK@slrtfsOpenFileAsync?5not?5found?6?$AA@ 1005db90     xpcruntime:xpcimports.obj
 0002:00014bb0       ??_C@_0BF@IGNDIBPF@slrtfsCloseFileAsync?$AA@ 1005dbb0     xpcruntime:xpcimports.obj
 0002:00014bc8       ??_C@_0CA@GJPFDBKN@slrtfsCloseFileAsync?5not?5found?6?$AA@ 1005dbc8     xpcruntime:xpcimports.obj
 0002:00014be8       ??_C@_0BE@IOLEBNB@slrtfsGetFileStatus?$AA@ 1005dbe8     xpcruntime:xpcimports.obj
 0002:00014bfc       ??_C@_0BP@PEFHDGHL@slrtfsGetFileStatus?5not?5found?6?$AA@ 1005dbfc     xpcruntime:xpcimports.obj
 0002:00014c1c       ??_C@_0N@IDKFJOHI@getlasterror?$AA@ 1005dc1c     xpcruntime:xpcimports.obj
 0002:00014c2c       ??_C@_0BI@MIHMCHGL@getlasterror?5not?5found?6?$AA@ 1005dc2c     xpcruntime:xpcimports.obj
 0002:00014c44       ??_C@_0N@EAAOMIIE@isUsedByRTIP?$AA@ 1005dc44     xpcruntime:xpcimports.obj
 0002:00014c54       ??_C@_0BI@GNHHHICK@isUsedByRTIP?5not?5found?6?$AA@ 1005dc54     xpcruntime:xpcimports.obj
 0002:00014c6c       ??_C@_0BC@HLDKJAG@SetIPTASKPriority?$AA@ 1005dc6c     xpcruntime:xpcimports.obj
 0002:00014c80       ??_C@_0BN@OGKMHHAE@SetIPTASKPriority?5not?5found?6?$AA@ 1005dc80     xpcruntime:xpcimports.obj
 0002:00014ca0       ??_C@_0O@LHENMBDD@OpenInterface?$AA@ 1005dca0     xpcruntime:xpcimports.obj
 0002:00014cb0       ??_C@_0BJ@PFGDBKHB@OpenInterface?5not?5found?6?$AA@ 1005dcb0     xpcruntime:xpcimports.obj
 0002:00014ccc       ??_C@_0P@IINFELKD@CloseInterface?$AA@ 1005dccc     xpcruntime:xpcimports.obj
 0002:00014cdc       ??_C@_0BK@PAPDNDBK@CloseInterface?5not?5found?6?$AA@ 1005dcdc     xpcruntime:xpcimports.obj
 0002:00014cf8       ??_C@_05LEFIAAOI@SetIP?$AA@ 1005dcf8     xpcruntime:xpcimports.obj
 0002:00014d00       ??_C@_0BB@CGLIBAMM@SetIP?5not?5found?6?$AA@ 1005dd00     xpcruntime:xpcimports.obj
 0002:00014d14       ??_C@_0BA@HIJJHHMD@AddGatewayRoute?$AA@ 1005dd14     xpcruntime:xpcimports.obj
 0002:00014d24       ??_C@_0BL@BFCFMDMN@AddGatewayRoute?5not?5found?6?$AA@ 1005dd24     xpcruntime:xpcimports.obj
 0002:00014d40       ??_C@_0M@PHMABFPI@DeleteRoute?$AA@ 1005dd40     xpcruntime:xpcimports.obj
 0002:00014d4c       ??_C@_0BH@JPJGLLID@DeleteRoute?5not?5found?6?$AA@ 1005dd4c     xpcruntime:xpcimports.obj
 0002:00014d64       ??_C@_0BA@FCDIMKIJ@GetHostTarIPAdd?$AA@ 1005dd64     xpcruntime:xpcimports.obj
 0002:00014d74       ??_C@_0BL@MBKDGKBO@GetHostTarIPAdd?5not?5found?6?$AA@ 1005dd74     xpcruntime:xpcimports.obj
 0002:00014d90       ??_C@_0M@HPMIPIBI@GetDCUUsage?$AA@ 1005dd90     xpcruntime:xpcimports.obj
 0002:00014d9c       ??_C@_0BH@EBLJKCJC@GetDCUUsage?5not?5found?6?$AA@ 1005dd9c     xpcruntime:xpcimports.obj
 0002:00014db4       ??_C@_06MPKMECK@accept?$AA@ 1005ddb4     xpcruntime:xpcimports.obj
 0002:00014dbc       ??_C@_0BC@GBGIEMNO@accept?5not?5found?6?$AA@ 1005ddbc     xpcruntime:xpcimports.obj
 0002:00014dd0       ??_C@_04NPNJNMMP@bind?$AA@ 1005ddd0     xpcruntime:xpcimports.obj
 0002:00014dd8       ??_C@_0BA@DAJNENLO@bind?5not?5found?6?$AA@ 1005ddd8     xpcruntime:xpcimports.obj
 0002:00014de8       ??_C@_0L@CKHNIFCM@setsockopt?$AA@ 1005dde8     xpcruntime:xpcimports.obj
 0002:00014df4       ??_C@_0BG@MFIIOMFE@setsockopt?5not?5found?6?$AA@ 1005ddf4     xpcruntime:xpcimports.obj
 0002:00014e0c       ??_C@_0M@ODDJDCDK@closesocket?$AA@ 1005de0c     xpcruntime:xpcimports.obj
 0002:00014e18       ??_C@_0BH@JHGHMIL@closesocket?5not?5found?6?$AA@ 1005de18     xpcruntime:xpcimports.obj
 0002:00014e30       ??_C@_07KAIBNCHO@connect?$AA@ 1005de30     xpcruntime:xpcimports.obj
 0002:00014e38       ??_C@_0BD@MKLLMBM@connect?5not?5found?6?$AA@ 1005de38     xpcruntime:xpcimports.obj
 0002:00014e4c       ??_C@_0M@PBPOCKDG@ioctlsocket?$AA@ 1005de4c     xpcruntime:xpcimports.obj
 0002:00014e58       ??_C@_0BH@NFCNHHIH@ioctlsocket?5not?5found?6?$AA@ 1005de58     xpcruntime:xpcimports.obj
 0002:00014e70       ??_C@_06OODDLKLE@listen?$AA@ 1005de70     xpcruntime:xpcimports.obj
 0002:00014e78       ??_C@_0BC@NHBILEKI@listen?5not?5found?6?$AA@ 1005de78     xpcruntime:xpcimports.obj
 0002:00014e8c       ??_C@_08HMBBGFHE@recvfrom?$AA@ 1005de8c     xpcruntime:xpcimports.obj
 0002:00014e98       ??_C@_0BE@BJAJFFLF@recvfrom?5not?5found?6?$AA@ 1005de98     xpcruntime:xpcimports.obj
 0002:00014eac       ??_C@_06MEPBGKEC@sendto?$AA@ 1005deac     xpcruntime:xpcimports.obj
 0002:00014eb4       ??_C@_0BC@BHPIMDJO@sendto?5not?5found?6?$AA@ 1005deb4     xpcruntime:xpcimports.obj
 0002:00014ec8       ??_C@_09JKBDEEOB@inet_addr?$AA@ 1005dec8     xpcruntime:xpcimports.obj
 0002:00014ed4       ??_C@_0BF@HKJPGECN@inet_addr?5not?5found?6?$AA@ 1005ded4     xpcruntime:xpcimports.obj
 0002:00014eec       ??_C@_06HBELJPBO@socket?$AA@ 1005deec     xpcruntime:xpcimports.obj
 0002:00014ef4       ??_C@_0BC@NAGFFJGA@socket?5not?5found?6?$AA@ 1005def4     xpcruntime:xpcimports.obj
 0002:00014f08       __FPinit                   1005df08     LIBCMT:fpinit.obj
 0002:00014f14       ??_C@_1BI@BGOHAHKC@?$AAm?$AAs?$AAc?$AAo?$AAr?$AAe?$AAe?$AA?4?$AAd?$AAl?$AAl?$AA?$AA@ 1005df14     LIBCMT:crt0dat.obj
 0002:00014f2c       ??_C@_0P@MIGLKIOC@CorExitProcess?$AA@ 1005df2c     LIBCMT:crt0dat.obj
 0002:00014f3c       ??_C@_17LGKOMLJ@?$AA?4?$AA?4?$AA?4?$AA?$AA@ 1005df3c     LIBCMT:wassert.obj
 0002:00014f44       ??_C@_13LBAGMAIH@?$AA?6?$AA?$AA@ 1005df44     LIBCMT:wassert.obj
 0002:00014f48       ??_C@_15IABLJNFO@?$AA?6?$AA?6?$AA?$AA@ 1005df48     LIBCMT:wassert.obj
 0002:00014f50       ??_C@_1CE@OJBNHDMO@?$AAA?$AAs?$AAs?$AAe?$AAr?$AAt?$AAi?$AAo?$AAn?$AA?5?$AAf?$AAa?$AAi?$AAl?$AAe?$AAd?$AA?$CB?$AA?$AA@ 1005df50     LIBCMT:wassert.obj
 0002:00014f74       ??_C@_1BE@PHKBBGE@?$AAP?$AAr?$AAo?$AAg?$AAr?$AAa?$AAm?$AA?3?$AA?5?$AA?$AA@ 1005df74     LIBCMT:wassert.obj
 0002:00014f88       ??_C@_1CO@EAEJAADC@?$AA?$DM?$AAp?$AAr?$AAo?$AAg?$AAr?$AAa?$AAm?$AA?5?$AAn?$AAa?$AAm?$AAe?$AA?5?$AAu?$AAn?$AAk?$AAn?$AAo?$AAw?$AAn?$AA?$DO?$AA?$AA@ 1005df88     LIBCMT:wassert.obj
 0002:00014fb8       ??_C@_1O@HEMHKNDC@?$AAF?$AAi?$AAl?$AAe?$AA?3?$AA?5?$AA?$AA@ 1005dfb8     LIBCMT:wassert.obj
 0002:00014fc8       ??_C@_1O@KCAFKHJE@?$AAL?$AAi?$AAn?$AAe?$AA?3?$AA?5?$AA?$AA@ 1005dfc8     LIBCMT:wassert.obj
 0002:00014fd8       ??_C@_1BK@PEDCIPMA@?$AAE?$AAx?$AAp?$AAr?$AAe?$AAs?$AAs?$AAi?$AAo?$AAn?$AA?3?$AA?5?$AA?$AA@ 1005dfd8     LIBCMT:wassert.obj
 0002:00014ff8       ??_C@_1OA@EGMLFBHJ@?$AAF?$AAo?$AAr?$AA?5?$AAi?$AAn?$AAf?$AAo?$AAr?$AAm?$AAa?$AAt?$AAi?$AAo?$AAn?$AA?5?$AAo?$AAn?$AA?5?$AAh?$AAo?$AAw?$AA?5?$AAy?$AAo?$AAu?$AAr?$AA?5?$AAp?$AAr?$AAo?$AAg@ 1005dff8     LIBCMT:wassert.obj
 0002:000150d8       ??_C@_1HK@POCJMFGK@?$AA?$CI?$AAP?$AAr?$AAe?$AAs?$AAs?$AA?5?$AAR?$AAe?$AAt?$AAr?$AAy?$AA?5?$AAt?$AAo?$AA?5?$AAd?$AAe?$AAb?$AAu?$AAg?$AA?5?$AAt?$AAh?$AAe?$AA?5?$AAa?$AAp?$AAp?$AAl?$AAi?$AAc@ 1005e0d8     LIBCMT:wassert.obj
 0002:00015158       ??_C@_1EK@MBDPDCGA@?$AAM?$AAi?$AAc?$AAr?$AAo?$AAs?$AAo?$AAf?$AAt?$AA?5?$AAV?$AAi?$AAs?$AAu?$AAa?$AAl?$AA?5?$AAC?$AA?$CL?$AA?$CL?$AA?5?$AAR?$AAu?$AAn?$AAt?$AAi?$AAm?$AAe?$AA?5?$AAL?$AAi?$AAb@ 1005e158     LIBCMT:wassert.obj
 0002:000151a4       __pRawDllMain              1005e1a4     LIBCMT:dllcrt0.obj
 0002:000151a4       __pDefaultRawDllMain       1005e1a4     LIBCMT:dllcrt0.obj
 0002:000151a8       ?ProcessDetach@NativeDll@<CrtImplementationDetails>@@0IB 1005e1a8     LIBCMT:handler.obj
 0002:000151ac       ?ProcessAttach@NativeDll@<CrtImplementationDetails>@@0IB 1005e1ac     LIBCMT:handler.obj
 0002:000151b0       ?ThreadAttach@NativeDll@<CrtImplementationDetails>@@0IB 1005e1b0     LIBCMT:handler.obj
 0002:000151b4       ?ThreadDetach@NativeDll@<CrtImplementationDetails>@@0IB 1005e1b4     LIBCMT:handler.obj
 0002:000151b8       ?ProcessVerifier@NativeDll@<CrtImplementationDetails>@@0IB 1005e1b8     LIBCMT:handler.obj
 0002:00015278       ??_C@_1FK@PGACCAFB@?$AAR?$AA6?$AA0?$AA0?$AA2?$AA?$AN?$AA?6?$AA?9?$AA?5?$AAf?$AAl?$AAo?$AAa?$AAt?$AAi?$AAn?$AAg?$AA?5?$AAp?$AAo?$AAi?$AAn?$AAt?$AA?5?$AAs?$AAu?$AAp?$AAp?$AAo?$AAr?$AAt?$AA?5@ 1005e278     LIBCMT:crt0msg.obj
 0002:000152d8       ??_C@_1FE@LLNEDJMD@?$AAR?$AA6?$AA0?$AA0?$AA8?$AA?$AN?$AA?6?$AA?9?$AA?5?$AAn?$AAo?$AAt?$AA?5?$AAe?$AAn?$AAo?$AAu?$AAg?$AAh?$AA?5?$AAs?$AAp?$AAa?$AAc?$AAe?$AA?5?$AAf?$AAo?$AAr?$AA?5?$AAa?$AAr@ 1005e2d8     LIBCMT:crt0msg.obj
 0002:00015330       ??_C@_1FI@HONFMGBI@?$AAR?$AA6?$AA0?$AA0?$AA9?$AA?$AN?$AA?6?$AA?9?$AA?5?$AAn?$AAo?$AAt?$AA?5?$AAe?$AAn?$AAo?$AAu?$AAg?$AAh?$AA?5?$AAs?$AAp?$AAa?$AAc?$AAe?$AA?5?$AAf?$AAo?$AAr?$AA?5?$AAe?$AAn@ 1005e330     LIBCMT:crt0msg.obj
 0002:00015388       ??_C@_1EG@BEHAGFJD@?$AAR?$AA6?$AA0?$AA1?$AA0?$AA?$AN?$AA?6?$AA?9?$AA?5?$AAa?$AAb?$AAo?$AAr?$AAt?$AA?$CI?$AA?$CJ?$AA?5?$AAh?$AAa?$AAs?$AA?5?$AAb?$AAe?$AAe?$AAn?$AA?5?$AAc?$AAa?$AAl?$AAl?$AAe?$AAd@ 1005e388     LIBCMT:crt0msg.obj
 0002:000153d0       ??_C@_1FI@LOGNIKDM@?$AAR?$AA6?$AA0?$AA1?$AA6?$AA?$AN?$AA?6?$AA?9?$AA?5?$AAn?$AAo?$AAt?$AA?5?$AAe?$AAn?$AAo?$AAu?$AAg?$AAh?$AA?5?$AAs?$AAp?$AAa?$AAc?$AAe?$AA?5?$AAf?$AAo?$AAr?$AA?5?$AAt?$AAh@ 1005e3d0     LIBCMT:crt0msg.obj
 0002:00015428       ??_C@_1FK@BEOGODMC@?$AAR?$AA6?$AA0?$AA1?$AA7?$AA?$AN?$AA?6?$AA?9?$AA?5?$AAu?$AAn?$AAe?$AAx?$AAp?$AAe?$AAc?$AAt?$AAe?$AAd?$AA?5?$AAm?$AAu?$AAl?$AAt?$AAi?$AAt?$AAh?$AAr?$AAe?$AAa?$AAd?$AA?5@ 1005e428     LIBCMT:crt0msg.obj
 0002:00015488       ??_C@_1EC@JIBHAOPH@?$AAR?$AA6?$AA0?$AA1?$AA8?$AA?$AN?$AA?6?$AA?9?$AA?5?$AAu?$AAn?$AAe?$AAx?$AAp?$AAe?$AAc?$AAt?$AAe?$AAd?$AA?5?$AAh?$AAe?$AAa?$AAp?$AA?5?$AAe?$AAr?$AAr?$AAo?$AAr?$AA?$AN?$AA?6@ 1005e488     LIBCMT:crt0msg.obj
 0002:000154d0       ??_C@_1FC@ECHBIFBC@?$AAR?$AA6?$AA0?$AA1?$AA9?$AA?$AN?$AA?6?$AA?9?$AA?5?$AAu?$AAn?$AAa?$AAb?$AAl?$AAe?$AA?5?$AAt?$AAo?$AA?5?$AAo?$AAp?$AAe?$AAn?$AA?5?$AAc?$AAo?$AAn?$AAs?$AAo?$AAl?$AAe?$AA?5@ 1005e4d0     LIBCMT:crt0msg.obj
 0002:00015528       ??_C@_1GK@FHCKBEFA@?$AAR?$AA6?$AA0?$AA2?$AA4?$AA?$AN?$AA?6?$AA?9?$AA?5?$AAn?$AAo?$AAt?$AA?5?$AAe?$AAn?$AAo?$AAu?$AAg?$AAh?$AA?5?$AAs?$AAp?$AAa?$AAc?$AAe?$AA?5?$AAf?$AAo?$AAr?$AA?5?$AA_?$AAo@ 1005e528     LIBCMT:crt0msg.obj
 0002:00015598       ??_C@_1EM@MAADIHMB@?$AAR?$AA6?$AA0?$AA2?$AA5?$AA?$AN?$AA?6?$AA?9?$AA?5?$AAp?$AAu?$AAr?$AAe?$AA?5?$AAv?$AAi?$AAr?$AAt?$AAu?$AAa?$AAl?$AA?5?$AAf?$AAu?$AAn?$AAc?$AAt?$AAi?$AAo?$AAn?$AA?5?$AAc@ 1005e598     LIBCMT:crt0msg.obj
 0002:000155e8       ??_C@_1GK@MCAAGJMO@?$AAR?$AA6?$AA0?$AA2?$AA6?$AA?$AN?$AA?6?$AA?9?$AA?5?$AAn?$AAo?$AAt?$AA?5?$AAe?$AAn?$AAo?$AAu?$AAg?$AAh?$AA?5?$AAs?$AAp?$AAa?$AAc?$AAe?$AA?5?$AAf?$AAo?$AAr?$AA?5?$AAs?$AAt@ 1005e5e8     LIBCMT:crt0msg.obj
 0002:00015658       ??_C@_1GK@MFGOKLAG@?$AAR?$AA6?$AA0?$AA2?$AA7?$AA?$AN?$AA?6?$AA?9?$AA?5?$AAn?$AAo?$AAt?$AA?5?$AAe?$AAn?$AAo?$AAu?$AAg?$AAh?$AA?5?$AAs?$AAp?$AAa?$AAc?$AAe?$AA?5?$AAf?$AAo?$AAr?$AA?5?$AAl?$AAo@ 1005e658     LIBCMT:crt0msg.obj
 0002:000156c8       ??_C@_1EK@HHFLMAOL@?$AAR?$AA6?$AA0?$AA2?$AA8?$AA?$AN?$AA?6?$AA?9?$AA?5?$AAu?$AAn?$AAa?$AAb?$AAl?$AAe?$AA?5?$AAt?$AAo?$AA?5?$AAi?$AAn?$AAi?$AAt?$AAi?$AAa?$AAl?$AAi?$AAz?$AAe?$AA?5?$AAh?$AAe@ 1005e6c8     LIBCMT:crt0msg.obj
 0002:00015714       ??_C@_1DO@BMFCDCD@?$AAR?$AA6?$AA0?$AA3?$AA0?$AA?$AN?$AA?6?$AA?9?$AA?5?$AAC?$AAR?$AAT?$AA?5?$AAn?$AAo?$AAt?$AA?5?$AAi?$AAn?$AAi?$AAt?$AAi?$AAa?$AAl?$AAi?$AAz?$AAe?$AAd?$AA?$AN?$AA?6?$AA?$AA@ 1005e714     LIBCMT:crt0msg.obj
 0002:00015758       ??_C@_1MG@ENCOOIDF@?$AAR?$AA6?$AA0?$AA3?$AA1?$AA?$AN?$AA?6?$AA?9?$AA?5?$AAA?$AAt?$AAt?$AAe?$AAm?$AAp?$AAt?$AA?5?$AAt?$AAo?$AA?5?$AAi?$AAn?$AAi?$AAt?$AAi?$AAa?$AAl?$AAi?$AAz?$AAe?$AA?5?$AAt@ 1005e758     LIBCMT:crt0msg.obj
 0002:00015820       ??_C@_1GG@GOPILAJP@?$AAR?$AA6?$AA0?$AA3?$AA2?$AA?$AN?$AA?6?$AA?9?$AA?5?$AAn?$AAo?$AAt?$AA?5?$AAe?$AAn?$AAo?$AAu?$AAg?$AAh?$AA?5?$AAs?$AAp?$AAa?$AAc?$AAe?$AA?5?$AAf?$AAo?$AAr?$AA?5?$AAl?$AAo@ 1005e820     LIBCMT:crt0msg.obj
 0002:00015888       ??_C@_1BOO@KGEDBGAJ@?$AAR?$AA6?$AA0?$AA3?$AA3?$AA?$AN?$AA?6?$AA?9?$AA?5?$AAA?$AAt?$AAt?$AAe?$AAm?$AAp?$AAt?$AA?5?$AAt?$AAo?$AA?5?$AAu?$AAs?$AAe?$AA?5?$AAM?$AAS?$AAI?$AAL?$AA?5?$AAc?$AAo?$AAd@ 1005e888     LIBCMT:crt0msg.obj
 0002:00015a78       ??_C@_1GG@MKFPEKFO@?$AAR?$AA6?$AA0?$AA3?$AA4?$AA?$AN?$AA?6?$AA?9?$AA?5?$AAi?$AAn?$AAc?$AAo?$AAn?$AAs?$AAi?$AAs?$AAt?$AAe?$AAn?$AAt?$AA?5?$AAo?$AAn?$AAe?$AAx?$AAi?$AAt?$AA?5?$AAb?$AAe?$AAg@ 1005ea78     LIBCMT:crt0msg.obj
 0002:00015ae0       ??_C@_1BO@BFCDCGC@?$AAD?$AAO?$AAM?$AAA?$AAI?$AAN?$AA?5?$AAe?$AAr?$AAr?$AAo?$AAr?$AA?$AN?$AA?6?$AA?$AA@ 1005eae0     LIBCMT:crt0msg.obj
 0002:00015b00       ??_C@_1BK@KMOMNAAI@?$AAS?$AAI?$AAN?$AAG?$AA?5?$AAe?$AAr?$AAr?$AAo?$AAr?$AA?$AN?$AA?6?$AA?$AA@ 1005eb00     LIBCMT:crt0msg.obj
 0002:00015b1c       ??_C@_1BM@JBBEPPHI@?$AAT?$AAL?$AAO?$AAS?$AAS?$AA?5?$AAe?$AAr?$AAr?$AAo?$AAr?$AA?$AN?$AA?6?$AA?$AA@ 1005eb1c     LIBCMT:crt0msg.obj
 0002:00015b38       ??_C@_15JNBOKNOG@?$AA?$AN?$AA?6?$AA?$AA@ 1005eb38     LIBCMT:crt0msg.obj
 0002:00015b40       ??_C@_1BO@BKOMIGKJ@?$AAr?$AAu?$AAn?$AAt?$AAi?$AAm?$AAe?$AA?5?$AAe?$AAr?$AAr?$AAo?$AAr?$AA?5?$AA?$AA@ 1005eb40     LIBCMT:crt0msg.obj
 0002:00015b60       ??_C@_1DE@JNGNBFGO@?$AAR?$AAu?$AAn?$AAt?$AAi?$AAm?$AAe?$AA?5?$AAE?$AAr?$AAr?$AAo?$AAr?$AA?$CB?$AA?6?$AA?6?$AAP?$AAr?$AAo?$AAg?$AAr?$AAa?$AAm?$AA?3?$AA?5?$AA?$AA@ 1005eb60     LIBCMT:crt0msg.obj
 0002:00015b94       ??_C@_06OJHGLDPL@?$CInull?$CJ?$AA@ 1005eb94     LIBCMT:output.obj
 0002:00015b9c       ??_C@_1O@CEDCILHN@?$AA?$CI?$AAn?$AAu?$AAl?$AAl?$AA?$CJ?$AA?$AA@ 1005eb9c     LIBCMT:output.obj
 0002:00015bb0       ___lookuptable             1005ebb0     LIBCMT:output.obj
 0002:00015c0c       ??_C@_05KLBDPFGC@e?$CL000?$AA@ 1005ec0c     LIBCMT:cvt.obj
 0002:00015c14       ??_C@_0BE@JOGNEJCI@GetCurrentPackageId?$AA@ 1005ec14     LIBCMT:winapisupp.obj
 0002:00015c28       ??_C@_1BK@MGMFAEKH@?$AAk?$AAe?$AAr?$AAn?$AAe?$AAl?$AA3?$AA2?$AA?4?$AAd?$AAl?$AAl?$AA?$AA@ 1005ec28     LIBCMT:winapisupp.obj
 0002:00015c44       ??_C@_1BK@GAEMIDIL@?$AAA?$AAD?$AAV?$AAA?$AAP?$AAI?$AA3?$AA2?$AA?4?$AAD?$AAL?$AAL?$AA?$AA@ 1005ec44     LIBCMT:rand_s.obj
 0002:00015c60       ??_C@_0BC@JEAENNKH@SystemFunction036?$AA@ 1005ec60     LIBCMT:rand_s.obj
 0002:00015c84       ??_C@_1M@HPNHIDJI@?$AAj?$AAa?$AA?9?$AAJ?$AAP?$AA?$AA@ 1005ec84     LIBCMT:mbctype.obj
 0002:00015c90       ??_C@_1M@BIBDDEMK@?$AAz?$AAh?$AA?9?$AAC?$AAN?$AA?$AA@ 1005ec90     LIBCMT:mbctype.obj
 0002:00015c9c       ??_C@_1M@JLOOOEGK@?$AAk?$AAo?$AA?9?$AAK?$AAR?$AA?$AA@ 1005ec9c     LIBCMT:mbctype.obj
 0002:00015ca8       ??_C@_1M@CLNBBOPM@?$AAz?$AAh?$AA?9?$AAT?$AAW?$AA?$AA@ 1005eca8     LIBCMT:mbctype.obj
 0002:00015cd4       ??_C@_03KHJOGHMM@exp?$AA@  1005ecd4     LIBCMT:fpexcept.obj
 0002:00015cd8       ??_C@_03JGHBODFD@pow?$AA@  1005ecd8     LIBCMT:fpexcept.obj
 0002:00015cdc       ??_C@_03MGHMBJCF@log?$AA@  1005ecdc     LIBCMT:fpexcept.obj
 0002:00015ce0       ??_C@_05HGHHAHAP@log10?$AA@ 1005ece0     LIBCMT:fpexcept.obj
 0002:00015ce8       ??_C@_04COOMCNPB@sinh?$AA@ 1005ece8     LIBCMT:fpexcept.obj
 0002:00015cf0       ??_C@_04HPJJNFIM@cosh?$AA@ 1005ecf0     LIBCMT:fpexcept.obj
 0002:00015cf8       ??_C@_04FJHINJAO@tanh?$AA@ 1005ecf8     LIBCMT:fpexcept.obj
 0002:00015d00       ??_C@_04FIHNOPOL@asin?$AA@ 1005ed00     LIBCMT:fpexcept.obj
 0002:00015d08       ??_C@_04PDIFKINK@acos?$AA@ 1005ed08     LIBCMT:fpexcept.obj
 0002:00015d10       ??_C@_04MLLJIGOK@atan?$AA@ 1005ed10     LIBCMT:fpexcept.obj
 0002:00015d18       ??_C@_05KNGEOGJB@atan2?$AA@ 1005ed18     LIBCMT:fpexcept.obj
 0002:00015d20       ??_C@_04EIAKFFMI@sqrt?$AA@ 1005ed20     LIBCMT:fpexcept.obj
 0002:00015d28       ??_C@_03BLEJJJBH@sin?$AA@  1005ed28     LIBCMT:fpexcept.obj
 0002:00015d2c       ??_C@_03LALBNOCG@cos?$AA@  1005ed2c     LIBCMT:fpexcept.obj
 0002:00015d30       ??_C@_03IIINPABG@tan?$AA@  1005ed30     LIBCMT:fpexcept.obj
 0002:00015d34       ??_C@_04GFPJNGEK@ceil?$AA@ 1005ed34     LIBCMT:fpexcept.obj
 0002:00015d3c       ??_C@_05PBJFFIGL@floor?$AA@ 1005ed3c     LIBCMT:fpexcept.obj
 0002:00015d44       ??_C@_04ODHECPBC@fabs?$AA@ 1005ed44     LIBCMT:fpexcept.obj
 0002:00015d4c       ??_C@_04EHEDPDJG@modf?$AA@ 1005ed4c     LIBCMT:fpexcept.obj
 0002:00015d54       ??_C@_05CEJMAHNP@ldexp?$AA@ 1005ed54     LIBCMT:fpexcept.obj
 0002:00015d5c       ??_C@_05KBKMEMPO@_cabs?$AA@ 1005ed5c     LIBCMT:fpexcept.obj
 0002:00015d64       ??_C@_06MEIMCGCF@_hypot?$AA@ 1005ed64     LIBCMT:fpexcept.obj
 0002:00015d6c       ??_C@_04KEPJIHGP@fmod?$AA@ 1005ed6c     LIBCMT:fpexcept.obj
 0002:00015d74       ??_C@_05GKKHEGJL@frexp?$AA@ 1005ed74     LIBCMT:fpexcept.obj
 0002:00015d7c       ??_C@_03MJLDFKDL@_y0?$AA@  1005ed7c     LIBCMT:fpexcept.obj
 0002:00015d80       ??_C@_03NAKIGLHK@_y1?$AA@  1005ed80     LIBCMT:fpexcept.obj
 0002:00015d84       ??_C@_03ONILCKOB@_yn?$AA@  1005ed84     LIBCMT:fpexcept.obj
 0002:00015d88       ??_C@_05JGDBENOH@_logb?$AA@ 1005ed88     LIBCMT:fpexcept.obj
 0002:00015d90       ??_C@_0L@KDOEJCKC@_nextafter?$AA@ 1005ed90     LIBCMT:fpexcept.obj
 0002:00015d9c       ??_C@_1BG@GOEBHBDC@?$AAU?$AAS?$AAE?$AAR?$AA3?$AA2?$AA?4?$AAD?$AAL?$AAL?$AA?$AA@ 1005ed9c     LIBCMT:crtmboxw.obj
 0002:00015db4       ??_C@_0M@DLDCCGNP@MessageBoxW?$AA@ 1005edb4     LIBCMT:crtmboxw.obj
 0002:00015dc0       ??_C@_0BA@HNOPNCHB@GetActiveWindow?$AA@ 1005edc0     LIBCMT:crtmboxw.obj
 0002:00015dd0       ??_C@_0BD@HHGDFDBJ@GetLastActivePopup?$AA@ 1005edd0     LIBCMT:crtmboxw.obj
 0002:00015de4       ??_C@_0BK@DEKFELLI@GetUserObjectInformationW?$AA@ 1005ede4     LIBCMT:crtmboxw.obj
 0002:00015e00       ??_C@_0BI@DFKBFLJE@GetProcessWindowStation?$AA@ 1005ee00     LIBCMT:crtmboxw.obj
 0002:00015e18       __XcptActTab               1005ee18     LIBCMT:winxfltr.obj
 0002:00015ea8       __XcptActTabCount          1005eea8     LIBCMT:winxfltr.obj
 0002:00015eac       __XcptActTabSize           1005eeac     LIBCMT:winxfltr.obj
 0002:00015eb0       __First_FPE_Indx           1005eeb0     LIBCMT:winxfltr.obj
 0002:00015eb4       __Num_FPE                  1005eeb4     LIBCMT:winxfltr.obj
 0002:00015eb8       ___lookuptable_s           1005eeb8     LIBCMT:outputs.obj
 0002:00015f14       ??_C@_03KOEHGMDN@Sun?$AA@  1005ef14     LIBCMT:nlsdata.obj
 0002:00015f18       ??_C@_03PDAGKDH@Mon?$AA@   1005ef18     LIBCMT:nlsdata.obj
 0002:00015f1c       ??_C@_03NAGEINEP@Tue?$AA@  1005ef1c     LIBCMT:nlsdata.obj
 0002:00015f20       ??_C@_03MHOMLAJA@Wed?$AA@  1005ef20     LIBCMT:nlsdata.obj
 0002:00015f24       ??_C@_03IOFIKPDN@Thu?$AA@  1005ef24     LIBCMT:nlsdata.obj
 0002:00015f28       ??_C@_03IDIOELNC@Fri?$AA@  1005ef28     LIBCMT:nlsdata.obj
 0002:00015f2c       ??_C@_03FEFJNEK@Sat?$AA@   1005ef2c     LIBCMT:nlsdata.obj
 0002:00015f30       ??_C@_06OOPIFAJ@Sunday?$AA@ 1005ef30     LIBCMT:nlsdata.obj
 0002:00015f38       ??_C@_06JLEDEDGH@Monday?$AA@ 1005ef38     LIBCMT:nlsdata.obj
 0002:00015f40       ??_C@_07BAAGCFCM@Tuesday?$AA@ 1005ef40     LIBCMT:nlsdata.obj
 0002:00015f48       ??_C@_09DLIGFAKA@Wednesday?$AA@ 1005ef48     LIBCMT:nlsdata.obj
 0002:00015f54       ??_C@_08HACCIKIA@Thursday?$AA@ 1005ef54     LIBCMT:nlsdata.obj
 0002:00015f60       ??_C@_06JECMNKMI@Friday?$AA@ 1005ef60     LIBCMT:nlsdata.obj
 0002:00015f68       ??_C@_08INBOOONO@Saturday?$AA@ 1005ef68     LIBCMT:nlsdata.obj
 0002:00015f74       ??_C@_03JIHJHPIE@Jan?$AA@  1005ef74     LIBCMT:nlsdata.obj
 0002:00015f78       ??_C@_03HJBDCHOM@Feb?$AA@  1005ef78     LIBCMT:nlsdata.obj
 0002:00015f7c       ??_C@_03ODNJBKGA@Mar?$AA@  1005ef7c     LIBCMT:nlsdata.obj
 0002:00015f80       ??_C@_03LEOLGMJP@Apr?$AA@  1005ef80     LIBCMT:nlsdata.obj
 0002:00015f84       ??_C@_03CNMDKL@May?$AA@    1005ef84     LIBCMT:nlsdata.obj
 0002:00015f88       ??_C@_03IDFGHECI@Jun?$AA@  1005ef88     LIBCMT:nlsdata.obj
 0002:00015f8c       ??_C@_03LBGABGKK@Jul?$AA@  1005ef8c     LIBCMT:nlsdata.obj
 0002:00015f90       ??_C@_03IFJFEIGA@Aug?$AA@  1005ef90     LIBCMT:nlsdata.obj
 0002:00015f94       ??_C@_03GGCAPAJC@Sep?$AA@  1005ef94     LIBCMT:nlsdata.obj
 0002:00015f98       ??_C@_03BMAOKBAD@Oct?$AA@  1005ef98     LIBCMT:nlsdata.obj
 0002:00015f9c       ??_C@_03JPJOFNIA@Nov?$AA@  1005ef9c     LIBCMT:nlsdata.obj
 0002:00015fa0       ??_C@_03MKABNOCG@Dec?$AA@  1005efa0     LIBCMT:nlsdata.obj
 0002:00015fa4       ??_C@_07CGJPFGJA@January?$AA@ 1005efa4     LIBCMT:nlsdata.obj
 0002:00015fac       ??_C@_08GNJGEPFN@February?$AA@ 1005efac     LIBCMT:nlsdata.obj
 0002:00015fb8       ??_C@_05HPCKOFNC@March?$AA@ 1005efb8     LIBCMT:nlsdata.obj
 0002:00015fc0       ??_C@_05DMJDNLEJ@April?$AA@ 1005efc0     LIBCMT:nlsdata.obj
 0002:00015fc8       ??_C@_04CNLMGBGM@June?$AA@ 1005efc8     LIBCMT:nlsdata.obj
 0002:00015fd0       ??_C@_04MIEPOIFP@July?$AA@ 1005efd0     LIBCMT:nlsdata.obj
 0002:00015fd8       ??_C@_06LBBHFDDG@August?$AA@ 1005efd8     LIBCMT:nlsdata.obj
 0002:00015fe0       ??_C@_09BHHEALKD@September?$AA@ 1005efe0     LIBCMT:nlsdata.obj
 0002:00015fec       ??_C@_07JJNFCEND@October?$AA@ 1005efec     LIBCMT:nlsdata.obj
 0002:00015ff4       ??_C@_08HCHEGEOA@November?$AA@ 1005eff4     LIBCMT:nlsdata.obj
 0002:00016000       ??_C@_08EDHMEBNP@December?$AA@ 1005f000     LIBCMT:nlsdata.obj
 0002:0001600c       ??_C@_02DEDBPAFC@AM?$AA@   1005f00c     LIBCMT:nlsdata.obj
 0002:00016010       ??_C@_02CJNFDJBF@PM?$AA@   1005f010     LIBCMT:nlsdata.obj
 0002:00016014       ??_C@_08BPBNCDIB@MM?1dd?1yy?$AA@ 1005f014     LIBCMT:nlsdata.obj
 0002:00016020       ??_C@_0BE@CKGJFCPC@dddd?0?5MMMM?5dd?0?5yyyy?$AA@ 1005f020     LIBCMT:nlsdata.obj
 0002:00016034       ??_C@_08JCCMCCIL@HH?3mm?3ss?$AA@ 1005f034     LIBCMT:nlsdata.obj
 0002:00016040       ??_C@_17MBGCMIPB@?$AAS?$AAu?$AAn?$AA?$AA@ 1005f040     LIBCMT:nlsdata.obj
 0002:00016048       ??_C@_17KBOMKBF@?$AAM?$AAo?$AAn?$AA?$AA@ 1005f048     LIBCMT:nlsdata.obj
 0002:00016050       ??_C@_17BMKGEGOJ@?$AAT?$AAu?$AAe?$AA?$AA@ 1005f050     LIBCMT:nlsdata.obj
 0002:00016058       ??_C@_17CJEDCEPE@?$AAW?$AAe?$AAd?$AA?$AA@ 1005f058     LIBCMT:nlsdata.obj
 0002:00016060       ??_C@_17PDPHAADD@?$AAT?$AAh?$AAu?$AA?$AA@ 1005f060     LIBCMT:nlsdata.obj
 0002:00016068       ??_C@_17HFOLPPLP@?$AAF?$AAr?$AAi?$AA?$AA@ 1005f068     LIBCMT:nlsdata.obj
 0002:00016070       ??_C@_17GGIBDPIH@?$AAS?$AAa?$AAt?$AA?$AA@ 1005f070     LIBCMT:nlsdata.obj
 0002:00016078       ??_C@_1O@IHNHDHPB@?$AAS?$AAu?$AAn?$AAd?$AAa?$AAy?$AA?$AA@ 1005f078     LIBCMT:nlsdata.obj
 0002:00016088       ??_C@_1O@MMNBFLIA@?$AAM?$AAo?$AAn?$AAd?$AAa?$AAy?$AA?$AA@ 1005f088     LIBCMT:nlsdata.obj
 0002:00016098       ??_C@_1BA@ENFBFFEK@?$AAT?$AAu?$AAe?$AAs?$AAd?$AAa?$AAy?$AA?$AA@ 1005f098     LIBCMT:nlsdata.obj
 0002:000160a8       ??_C@_1BE@EBOGMDOH@?$AAW?$AAe?$AAd?$AAn?$AAe?$AAs?$AAd?$AAa?$AAy?$AA?$AA@ 1005f0a8     LIBCMT:nlsdata.obj
 0002:000160bc       ??_C@_1BC@HHMNLIHE@?$AAT?$AAh?$AAu?$AAr?$AAs?$AAd?$AAa?$AAy?$AA?$AA@ 1005f0bc     LIBCMT:nlsdata.obj
 0002:000160d0       ??_C@_1O@PDICJHAG@?$AAF?$AAr?$AAi?$AAd?$AAa?$AAy?$AA?$AA@ 1005f0d0     LIBCMT:nlsdata.obj
 0002:000160e0       ??_C@_1BC@ENMNNPAJ@?$AAS?$AAa?$AAt?$AAu?$AAr?$AAd?$AAa?$AAy?$AA?$AA@ 1005f0e0     LIBCMT:nlsdata.obj
 0002:000160f4       ??_C@_17DKNBKCHM@?$AAJ?$AAa?$AAn?$AA?$AA@ 1005f0f4     LIBCMT:nlsdata.obj
 0002:000160fc       ??_C@_17LMDJEKJN@?$AAF?$AAe?$AAb?$AA?$AA@ 1005f0fc     LIBCMT:nlsdata.obj
 0002:00016104       ??_C@_17CKNLEDEC@?$AAM?$AAa?$AAr?$AA?$AA@ 1005f104     LIBCMT:nlsdata.obj
 0002:0001610c       ??_C@_17LFPOIHDD@?$AAA?$AAp?$AAr?$AA?$AA@ 1005f10c     LIBCMT:nlsdata.obj
 0002:00016114       ??_C@_17PNNKMEED@?$AAM?$AAa?$AAy?$AA?$AA@ 1005f114     LIBCMT:nlsdata.obj
 0002:0001611c       ??_C@_17KCJGOCPB@?$AAJ?$AAu?$AAn?$AA?$AA@ 1005f11c     LIBCMT:nlsdata.obj
 0002:00016124       ??_C@_17IJPCKHK@?$AAJ?$AAu?$AAl?$AA?$AA@ 1005f124     LIBCMT:nlsdata.obj
 0002:0001612c       ??_C@_17ICPELBCN@?$AAA?$AAu?$AAg?$AA?$AA@ 1005f12c     LIBCMT:nlsdata.obj
 0002:00016134       ??_C@_17HCHCOKMG@?$AAS?$AAe?$AAp?$AA?$AA@ 1005f134     LIBCMT:nlsdata.obj
 0002:0001613c       ??_C@_17FNLKOI@?$AAO?$AAc?$AAt?$AA?$AA@ 1005f13c     LIBCMT:nlsdata.obj
 0002:00016144       ??_C@_17BBDMLCIG@?$AAN?$AAo?$AAv?$AA?$AA@ 1005f144     LIBCMT:nlsdata.obj
 0002:0001614c       ??_C@_17EGKACKIF@?$AAD?$AAe?$AAc?$AA?$AA@ 1005f14c     LIBCMT:nlsdata.obj
 0002:00016154       ??_C@_1BA@EFMEIEBA@?$AAJ?$AAa?$AAn?$AAu?$AAa?$AAr?$AAy?$AA?$AA@ 1005f154     LIBCMT:nlsdata.obj
 0002:00016164       ??_C@_1BC@JGDDFFAM@?$AAF?$AAe?$AAb?$AAr?$AAu?$AAa?$AAr?$AAy?$AA?$AA@ 1005f164     LIBCMT:nlsdata.obj
 0002:00016178       ??_C@_1M@IKEENEDF@?$AAM?$AAa?$AAr?$AAc?$AAh?$AA?$AA@ 1005f178     LIBCMT:nlsdata.obj
 0002:00016184       ??_C@_1M@GJNLMHFD@?$AAA?$AAp?$AAr?$AAi?$AAl?$AA?$AA@ 1005f184     LIBCMT:nlsdata.obj
 0002:00016190       ??_C@_19EPFLPGAP@?$AAJ?$AAu?$AAn?$AAe?$AA?$AA@ 1005f190     LIBCMT:nlsdata.obj
 0002:0001619c       ??_C@_19BIFMLPCD@?$AAJ?$AAu?$AAl?$AAy?$AA?$AA@ 1005f19c     LIBCMT:nlsdata.obj
 0002:000161a8       ??_C@_1O@PAHLKOAC@?$AAA?$AAu?$AAg?$AAu?$AAs?$AAt?$AA?$AA@ 1005f1a8     LIBCMT:nlsdata.obj
 0002:000161b8       ??_C@_1BE@DKAAMBJL@?$AAS?$AAe?$AAp?$AAt?$AAe?$AAm?$AAb?$AAe?$AAr?$AA?$AA@ 1005f1b8     LIBCMT:nlsdata.obj
 0002:000161cc       ??_C@_1BA@EPANDLNG@?$AAO?$AAc?$AAt?$AAo?$AAb?$AAe?$AAr?$AA?$AA@ 1005f1cc     LIBCMT:nlsdata.obj
 0002:000161dc       ??_C@_1BC@BGLIFPF@?$AAN?$AAo?$AAv?$AAe?$AAm?$AAb?$AAe?$AAr?$AA?$AA@ 1005f1dc     LIBCMT:nlsdata.obj
 0002:000161f0       ??_C@_1BC@FEMKIFH@?$AAD?$AAe?$AAc?$AAe?$AAm?$AAb?$AAe?$AAr?$AA?$AA@ 1005f1f0     LIBCMT:nlsdata.obj
 0002:00016204       ??_C@_15ODEHAHHF@?$AAA?$AAM?$AA?$AA@ 1005f204     LIBCMT:nlsdata.obj
 0002:0001620c       ??_C@_15CLMNNGEL@?$AAP?$AAM?$AA?$AA@ 1005f20c     LIBCMT:nlsdata.obj
 0002:00016214       ??_C@_1BC@IEBCMHCM@?$AAM?$AAM?$AA?1?$AAd?$AAd?$AA?1?$AAy?$AAy?$AA?$AA@ 1005f214     LIBCMT:nlsdata.obj
 0002:00016228       ??_C@_1CI@KNAKOEBC@?$AAd?$AAd?$AAd?$AAd?$AA?0?$AA?5?$AAM?$AAM?$AAM?$AAM?$AA?5?$AAd?$AAd?$AA?0?$AA?5?$AAy?$AAy?$AAy?$AAy?$AA?$AA@ 1005f228     LIBCMT:nlsdata.obj
 0002:00016250       ??_C@_1BC@GDGBMEMK@?$AAH?$AAH?$AA?3?$AAm?$AAm?$AA?3?$AAs?$AAs?$AA?$AA@ 1005f250     LIBCMT:nlsdata.obj
 0002:00016264       ??_C@_1M@BMHNFIME@?$AAe?$AAn?$AA?9?$AAU?$AAS?$AA?$AA@ 1005f264     LIBCMT:nlsdata.obj
 0002:00016270       ___newctype                1005f270     LIBCMT:ctype.obj
 0002:00016570       __wctype                   1005f570     LIBCMT:ctype.obj
 0002:00016778       ___newclmap                1005f778     LIBCMT:ctype.obj
 0002:000168f8       ___newcumap                1005f8f8     LIBCMT:ctype.obj
 0002:00016a78       ___lc_category             1005fa78     LIBCMT:wsetloca.obj
 0002:00016ac0       ??_C@_1O@GIFLHMA@?$AAL?$AAC?$AA_?$AAA?$AAL?$AAL?$AA?$AA@ 1005fac0     LIBCMT:wsetloca.obj
 0002:00016ad0       ??_C@_1BG@PPOMIBNJ@?$AAL?$AAC?$AA_?$AAC?$AAO?$AAL?$AAL?$AAA?$AAT?$AAE?$AA?$AA@ 1005fad0     LIBCMT:wsetloca.obj
 0002:00016ae8       ??_C@_1BC@FFJGAPJM@?$AAL?$AAC?$AA_?$AAC?$AAT?$AAY?$AAP?$AAE?$AA?$AA@ 1005fae8     LIBCMT:wsetloca.obj
 0002:00016afc       ??_C@_1BI@PCKFNJFB@?$AAL?$AAC?$AA_?$AAM?$AAO?$AAN?$AAE?$AAT?$AAA?$AAR?$AAY?$AA?$AA@ 1005fafc     LIBCMT:wsetloca.obj
 0002:00016b14       ??_C@_1BG@ENIEDKID@?$AAL?$AAC?$AA_?$AAN?$AAU?$AAM?$AAE?$AAR?$AAI?$AAC?$AA?$AA@ 1005fb14     LIBCMT:wsetloca.obj
 0002:00016b2c       ??_C@_1BA@HAAOMIIG@?$AAL?$AAC?$AA_?$AAT?$AAI?$AAM?$AAE?$AA?$AA@ 1005fb2c     LIBCMT:wsetloca.obj
 0002:00016bc0       ??_C@_15NBPDDFIP@?$AA?$DN?$AA?$DL?$AA?$AA@ 1005fbc0     LIBCMT:wsetloca.obj
 0002:00016bc8       ??_C@_13PJJBFPED@?$AA?$DL?$AA?$AA@ 1005fbc8     LIBCMT:wsetloca.obj
 0002:00016bcc       ??_C@_13NMPKAAJP@?$AA?$DN?$AA?$AA@ 1005fbcc     LIBCMT:wsetloca.obj
 0002:00016bd0       ??_C@_13FHBKNHDA@?$AAC?$AA?$AA@ 1005fbd0     LIBCMT:wsetloca.obj
 0002:00016bd4       ??_C@_17MBJJLFDM@?$AA_?$AA?4?$AA?0?$AA?$AA@ 1005fbd4     LIBCMT:wsetloca.obj
 0002:00016bdc       ??_C@_13ENNFDPBH@?$AA_?$AA?$AA@ 1005fbdc     LIBCMT:wsetloca.obj
 0002:00016be0       ??_C@_13JOFGPIOO@?$AA?4?$AA?$AA@ 1005fbe0     LIBCMT:wsetloca.obj
 0002:00016be4       ??_C@_06PGGFOGJG@1?$CDSNAN?$AA@ 1005fbe4     LIBCMT:x10fout.obj
 0002:00016bec       ??_C@_05PHHOCPM@1?$CDIND?$AA@ 1005fbec     LIBCMT:x10fout.obj
 0002:00016bf4       ??_C@_05DNEBIAHO@1?$CDINF?$AA@ 1005fbf4     LIBCMT:x10fout.obj
 0002:00016bfc       ??_C@_06IMKFLFPG@1?$CDQNAN?$AA@ 1005fbfc     LIBCMT:x10fout.obj
 0002:00016c04       ??_C@_0M@HHGEPIBF@CreateFile2?$AA@ 1005fc04     LIBCMT:wopen.obj
 0002:00016c10       ??_C@_1BA@BALFACEM@?$AAC?$AAO?$AAN?$AAO?$AAU?$AAT?$AA$?$AA?$AA@ 1005fc10     LIBCMT:initcon.obj
 0002:00016c20       ___rg_language             1005fc20     LIBCMT:getqloc.obj
 0002:00016f2c       ??_C@_1BC@LLOKLNP@?$AAa?$AAm?$AAe?$AAr?$AAi?$AAc?$AAa?$AAn?$AA?$AA@ 1005ff2c     LIBCMT:getqloc.obj
 0002:00016f40       ??_C@_1CC@HEIGCDGG@?$AAa?$AAm?$AAe?$AAr?$AAi?$AAc?$AAa?$AAn?$AA?5?$AAe?$AAn?$AAg?$AAl?$AAi?$AAs?$AAh?$AA?$AA@ 1005ff40     LIBCMT:getqloc.obj
 0002:00016f64       ??_C@_1CC@IHCNOMIN@?$AAa?$AAm?$AAe?$AAr?$AAi?$AAc?$AAa?$AAn?$AA?9?$AAe?$AAn?$AAg?$AAl?$AAi?$AAs?$AAh?$AA?$AA@ 1005ff64     LIBCMT:getqloc.obj
 0002:00016f88       ??_C@_1BG@GKAGPCGG@?$AAa?$AAu?$AAs?$AAt?$AAr?$AAa?$AAl?$AAi?$AAa?$AAn?$AA?$AA@ 1005ff88     LIBCMT:getqloc.obj
 0002:00016fa0       ??_C@_1BA@GMENCENF@?$AAb?$AAe?$AAl?$AAg?$AAi?$AAa?$AAn?$AA?$AA@ 1005ffa0     LIBCMT:getqloc.obj
 0002:00016fb0       ??_C@_1BC@PJMIIAAN@?$AAc?$AAa?$AAn?$AAa?$AAd?$AAi?$AAa?$AAn?$AA?$AA@ 1005ffb0     LIBCMT:getqloc.obj
 0002:00016fc4       ??_C@_17NOIMNFBF@?$AAc?$AAh?$AAh?$AA?$AA@ 1005ffc4     LIBCMT:getqloc.obj
 0002:00016fcc       ??_C@_17GGDALCHA@?$AAc?$AAh?$AAi?$AA?$AA@ 1005ffcc     LIBCMT:getqloc.obj
 0002:00016fd4       ??_C@_1BA@NPNJKIBL@?$AAc?$AAh?$AAi?$AAn?$AAe?$AAs?$AAe?$AA?$AA@ 1005ffd4     LIBCMT:getqloc.obj
 0002:00016fe4       ??_C@_1CC@DINBAMMJ@?$AAc?$AAh?$AAi?$AAn?$AAe?$AAs?$AAe?$AA?9?$AAh?$AAo?$AAn?$AAg?$AAk?$AAo?$AAn?$AAg?$AA?$AA@ 1005ffe4     LIBCMT:getqloc.obj
 0002:00017008       ??_C@_1CG@IOBJPACO@?$AAc?$AAh?$AAi?$AAn?$AAe?$AAs?$AAe?$AA?9?$AAs?$AAi?$AAm?$AAp?$AAl?$AAi?$AAf?$AAi?$AAe?$AAd?$AA?$AA@ 10060008     LIBCMT:getqloc.obj
 0002:00017030       ??_C@_1CE@GAJNDCKG@?$AAc?$AAh?$AAi?$AAn?$AAe?$AAs?$AAe?$AA?9?$AAs?$AAi?$AAn?$AAg?$AAa?$AAp?$AAo?$AAr?$AAe?$AA?$AA@ 10060030     LIBCMT:getqloc.obj
 0002:00017054       ??_C@_1CI@PAJPIOOD@?$AAc?$AAh?$AAi?$AAn?$AAe?$AAs?$AAe?$AA?9?$AAt?$AAr?$AAa?$AAd?$AAi?$AAt?$AAi?$AAo?$AAn?$AAa?$AAl?$AA?$AA@ 10060054     LIBCMT:getqloc.obj
 0002:0001707c       ??_C@_1BM@NILJBMMD@?$AAd?$AAu?$AAt?$AAc?$AAh?$AA?9?$AAb?$AAe?$AAl?$AAg?$AAi?$AAa?$AAn?$AA?$AA@ 1006007c     LIBCMT:getqloc.obj
 0002:00017098       ??_C@_1CC@OOJPJNEJ@?$AAe?$AAn?$AAg?$AAl?$AAi?$AAs?$AAh?$AA?9?$AAa?$AAm?$AAe?$AAr?$AAi?$AAc?$AAa?$AAn?$AA?$AA@ 10060098     LIBCMT:getqloc.obj
 0002:000170bc       ??_C@_1BI@IOLFEEM@?$AAe?$AAn?$AAg?$AAl?$AAi?$AAs?$AAh?$AA?9?$AAa?$AAu?$AAs?$AA?$AA@ 100600bc     LIBCMT:getqloc.obj
 0002:000170d4       ??_C@_1BO@HFFNLENJ@?$AAe?$AAn?$AAg?$AAl?$AAi?$AAs?$AAh?$AA?9?$AAb?$AAe?$AAl?$AAi?$AAz?$AAe?$AA?$AA@ 100600d4     LIBCMT:getqloc.obj
 0002:000170f4       ??_C@_1BI@HAPKJMPO@?$AAe?$AAn?$AAg?$AAl?$AAi?$AAs?$AAh?$AA?9?$AAc?$AAa?$AAn?$AA?$AA@ 100600f4     LIBCMT:getqloc.obj
 0002:0001710c       ??_C@_1CE@HLNDMIOJ@?$AAe?$AAn?$AAg?$AAl?$AAi?$AAs?$AAh?$AA?9?$AAc?$AAa?$AAr?$AAi?$AAb?$AAb?$AAe?$AAa?$AAn?$AA?$AA@ 1006010c     LIBCMT:getqloc.obj
 0002:00017130       ??_C@_1BI@LDHJHHAC@?$AAe?$AAn?$AAg?$AAl?$AAi?$AAs?$AAh?$AA?9?$AAi?$AAr?$AAe?$AA?$AA@ 10060130     LIBCMT:getqloc.obj
 0002:00017148       ??_C@_1CA@NJMMCFOC@?$AAe?$AAn?$AAg?$AAl?$AAi?$AAs?$AAh?$AA?9?$AAj?$AAa?$AAm?$AAa?$AAi?$AAc?$AAa?$AA?$AA@ 10060148     LIBCMT:getqloc.obj
 0002:00017168       ??_C@_1BG@BHJEBBGG@?$AAe?$AAn?$AAg?$AAl?$AAi?$AAs?$AAh?$AA?9?$AAn?$AAz?$AA?$AA@ 10060168     LIBCMT:getqloc.obj
 0002:00017180       ??_C@_1CK@FGOEJJCO@?$AAe?$AAn?$AAg?$AAl?$AAi?$AAs?$AAh?$AA?9?$AAs?$AAo?$AAu?$AAt?$AAh?$AA?5?$AAa?$AAf?$AAr?$AAi?$AAc?$AAa?$AA?$AA@ 10060180     LIBCMT:getqloc.obj
 0002:000171ac       ??_C@_1DE@PDBJPCJ@?$AAe?$AAn?$AAg?$AAl?$AAi?$AAs?$AAh?$AA?9?$AAt?$AAr?$AAi?$AAn?$AAi?$AAd?$AAa?$AAd?$AA?5?$AAy?$AA?5?$AAt?$AAo?$AAb?$AAa?$AAg?$AAo?$AA?$AA@ 100601ac     LIBCMT:getqloc.obj
 0002:000171e0       ??_C@_1BG@JGCANDME@?$AAe?$AAn?$AAg?$AAl?$AAi?$AAs?$AAh?$AA?9?$AAu?$AAk?$AA?$AA@ 100601e0     LIBCMT:getqloc.obj
 0002:000171f8       ??_C@_1BG@DINKMLE@?$AAe?$AAn?$AAg?$AAl?$AAi?$AAs?$AAh?$AA?9?$AAu?$AAs?$AA?$AA@ 100601f8     LIBCMT:getqloc.obj
 0002:00017210       ??_C@_1BI@NMFDBHJE@?$AAe?$AAn?$AAg?$AAl?$AAi?$AAs?$AAh?$AA?9?$AAu?$AAs?$AAa?$AA?$AA@ 10060210     LIBCMT:getqloc.obj
 0002:00017228       ??_C@_1BO@OIHKJKII@?$AAf?$AAr?$AAe?$AAn?$AAc?$AAh?$AA?9?$AAb?$AAe?$AAl?$AAg?$AAi?$AAa?$AAn?$AA?$AA@ 10060228     LIBCMT:getqloc.obj
 0002:00017248       ??_C@_1CA@NKAELJKI@?$AAf?$AAr?$AAe?$AAn?$AAc?$AAh?$AA?9?$AAc?$AAa?$AAn?$AAa?$AAd?$AAi?$AAa?$AAn?$AA?$AA@ 10060248     LIBCMT:getqloc.obj
 0002:00017268       ??_C@_1CE@MGKCNLGN@?$AAf?$AAr?$AAe?$AAn?$AAc?$AAh?$AA?9?$AAl?$AAu?$AAx?$AAe?$AAm?$AAb?$AAo?$AAu?$AAr?$AAg?$AA?$AA@ 10060268     LIBCMT:getqloc.obj
 0002:0001728c       ??_C@_1BK@CEGEAILM@?$AAf?$AAr?$AAe?$AAn?$AAc?$AAh?$AA?9?$AAs?$AAw?$AAi?$AAs?$AAs?$AA?$AA@ 1006028c     LIBCMT:getqloc.obj
 0002:000172a8       ??_C@_1CA@PAFKEOCC@?$AAg?$AAe?$AAr?$AAm?$AAa?$AAn?$AA?9?$AAa?$AAu?$AAs?$AAt?$AAr?$AAi?$AAa?$AAn?$AA?$AA@ 100602a8     LIBCMT:getqloc.obj
 0002:000172c8       ??_C@_1CI@HCFHGOFD@?$AAg?$AAe?$AAr?$AAm?$AAa?$AAn?$AA?9?$AAl?$AAi?$AAc?$AAh?$AAt?$AAe?$AAn?$AAs?$AAt?$AAe?$AAi?$AAn?$AA?$AA@ 100602c8     LIBCMT:getqloc.obj
 0002:000172f0       ??_C@_1CE@FEDDNPDG@?$AAg?$AAe?$AAr?$AAm?$AAa?$AAn?$AA?9?$AAl?$AAu?$AAx?$AAe?$AAm?$AAb?$AAo?$AAu?$AAr?$AAg?$AA?$AA@ 100602f0     LIBCMT:getqloc.obj
 0002:00017314       ??_C@_1BK@LIMINNMN@?$AAg?$AAe?$AAr?$AAm?$AAa?$AAn?$AA?9?$AAs?$AAw?$AAi?$AAs?$AAs?$AA?$AA@ 10060314     LIBCMT:getqloc.obj
 0002:00017330       ??_C@_1BM@LGMDBEPD@?$AAi?$AAr?$AAi?$AAs?$AAh?$AA?9?$AAe?$AAn?$AAg?$AAl?$AAi?$AAs?$AAh?$AA?$AA@ 10060330     LIBCMT:getqloc.obj
 0002:0001734c       ??_C@_1BM@NNCFBAEE@?$AAi?$AAt?$AAa?$AAl?$AAi?$AAa?$AAn?$AA?9?$AAs?$AAw?$AAi?$AAs?$AAs?$AA?$AA@ 1006034c     LIBCMT:getqloc.obj
 0002:00017368       ??_C@_1BE@FEDJNPIB@?$AAn?$AAo?$AAr?$AAw?$AAe?$AAg?$AAi?$AAa?$AAn?$AA?$AA@ 10060368     LIBCMT:getqloc.obj
 0002:0001737c       ??_C@_1CC@CILKDEIE@?$AAn?$AAo?$AAr?$AAw?$AAe?$AAg?$AAi?$AAa?$AAn?$AA?9?$AAb?$AAo?$AAk?$AAm?$AAa?$AAl?$AA?$AA@ 1006037c     LIBCMT:getqloc.obj
 0002:000173a0       ??_C@_1CE@DHMMHEPL@?$AAn?$AAo?$AAr?$AAw?$AAe?$AAg?$AAi?$AAa?$AAn?$AA?9?$AAn?$AAy?$AAn?$AAo?$AAr?$AAs?$AAk?$AA?$AA@ 100603a0     LIBCMT:getqloc.obj
 0002:000173c4       ??_C@_1CK@OPNMHECD@?$AAp?$AAo?$AAr?$AAt?$AAu?$AAg?$AAu?$AAe?$AAs?$AAe?$AA?9?$AAb?$AAr?$AAa?$AAz?$AAi?$AAl?$AAi?$AAa?$AAn?$AA?$AA@ 100603c4     LIBCMT:getqloc.obj
 0002:000173f0       ??_C@_1CE@KEEHCDB@?$AAs?$AAp?$AAa?$AAn?$AAi?$AAs?$AAh?$AA?9?$AAa?$AAr?$AAg?$AAe?$AAn?$AAt?$AAi?$AAn?$AAa?$AA?$AA@ 100603f0     LIBCMT:getqloc.obj
 0002:00017414       ??_C@_1CA@GIAOLHJD@?$AAs?$AAp?$AAa?$AAn?$AAi?$AAs?$AAh?$AA?9?$AAb?$AAo?$AAl?$AAi?$AAv?$AAi?$AAa?$AA?$AA@ 10060414     LIBCMT:getqloc.obj
 0002:00017434       ??_C@_1BM@OJNDFNPD@?$AAs?$AAp?$AAa?$AAn?$AAi?$AAs?$AAh?$AA?9?$AAc?$AAh?$AAi?$AAl?$AAe?$AA?$AA@ 10060434     LIBCMT:getqloc.obj
 0002:00017450       ??_C@_1CC@OCOLPALL@?$AAs?$AAp?$AAa?$AAn?$AAi?$AAs?$AAh?$AA?9?$AAc?$AAo?$AAl?$AAo?$AAm?$AAb?$AAi?$AAa?$AA?$AA@ 10060450     LIBCMT:getqloc.obj
 0002:00017474       ??_C@_1CG@BPOFMKBB@?$AAs?$AAp?$AAa?$AAn?$AAi?$AAs?$AAh?$AA?9?$AAc?$AAo?$AAs?$AAt?$AAa?$AA?5?$AAr?$AAi?$AAc?$AAa?$AA?$AA@ 10060474     LIBCMT:getqloc.obj
 0002:0001749c       ??_C@_1DG@IGOBAPBB@?$AAs?$AAp?$AAa?$AAn?$AAi?$AAs?$AAh?$AA?9?$AAd?$AAo?$AAm?$AAi?$AAn?$AAi?$AAc?$AAa?$AAn?$AA?5?$AAr?$AAe?$AAp?$AAu?$AAb?$AAl?$AAi?$AAc?$AA?$AA@ 1006049c     LIBCMT:getqloc.obj
 0002:000174d4       ??_C@_1CA@JHAPGEGI@?$AAs?$AAp?$AAa?$AAn?$AAi?$AAs?$AAh?$AA?9?$AAe?$AAc?$AAu?$AAa?$AAd?$AAo?$AAr?$AA?$AA@ 100604d4     LIBCMT:getqloc.obj
 0002:000174f4       ??_C@_1CI@LAPALJPP@?$AAs?$AAp?$AAa?$AAn?$AAi?$AAs?$AAh?$AA?9?$AAe?$AAl?$AA?5?$AAs?$AAa?$AAl?$AAv?$AAa?$AAd?$AAo?$AAr?$AA?$AA@ 100604f4     LIBCMT:getqloc.obj
 0002:0001751c       ??_C@_1CE@PDGBOFOM@?$AAs?$AAp?$AAa?$AAn?$AAi?$AAs?$AAh?$AA?9?$AAg?$AAu?$AAa?$AAt?$AAe?$AAm?$AAa?$AAl?$AAa?$AA?$AA@ 1006051c     LIBCMT:getqloc.obj
 0002:00017540       ??_C@_1CC@NBEBAODI@?$AAs?$AAp?$AAa?$AAn?$AAi?$AAs?$AAh?$AA?9?$AAh?$AAo?$AAn?$AAd?$AAu?$AAr?$AAa?$AAs?$AA?$AA@ 10060540     LIBCMT:getqloc.obj
 0002:00017564       ??_C@_1CA@LLKGHBMF@?$AAs?$AAp?$AAa?$AAn?$AAi?$AAs?$AAh?$AA?9?$AAm?$AAe?$AAx?$AAi?$AAc?$AAa?$AAn?$AA?$AA@ 10060564     LIBCMT:getqloc.obj
 0002:00017584       ??_C@_1BO@LKNDOIGD@?$AAs?$AAp?$AAa?$AAn?$AAi?$AAs?$AAh?$AA?9?$AAm?$AAo?$AAd?$AAe?$AAr?$AAn?$AA?$AA@ 10060584     LIBCMT:getqloc.obj
 0002:000175a4       ??_C@_1CE@NMDMOEEB@?$AAs?$AAp?$AAa?$AAn?$AAi?$AAs?$AAh?$AA?9?$AAn?$AAi?$AAc?$AAa?$AAr?$AAa?$AAg?$AAu?$AAa?$AA?$AA@ 100605a4     LIBCMT:getqloc.obj
 0002:000175c8       ??_C@_1BO@LLCBEJGB@?$AAs?$AAp?$AAa?$AAn?$AAi?$AAs?$AAh?$AA?9?$AAp?$AAa?$AAn?$AAa?$AAm?$AAa?$AA?$AA@ 100605c8     LIBCMT:getqloc.obj
 0002:000175e8       ??_C@_1CC@FKPGGIHO@?$AAs?$AAp?$AAa?$AAn?$AAi?$AAs?$AAh?$AA?9?$AAp?$AAa?$AAr?$AAa?$AAg?$AAu?$AAa?$AAy?$AA?$AA@ 100605e8     LIBCMT:getqloc.obj
 0002:0001760c       ??_C@_1BK@CDEIHOOP@?$AAs?$AAp?$AAa?$AAn?$AAi?$AAs?$AAh?$AA?9?$AAp?$AAe?$AAr?$AAu?$AA?$AA@ 1006060c     LIBCMT:getqloc.obj
 0002:00017628       ??_C@_1CI@GAHAKKGP@?$AAs?$AAp?$AAa?$AAn?$AAi?$AAs?$AAh?$AA?9?$AAp?$AAu?$AAe?$AAr?$AAt?$AAo?$AA?5?$AAr?$AAi?$AAc?$AAo?$AA?$AA@ 10060628     LIBCMT:getqloc.obj
 0002:00017650       ??_C@_1CA@NKJBCAGP@?$AAs?$AAp?$AAa?$AAn?$AAi?$AAs?$AAh?$AA?9?$AAu?$AAr?$AAu?$AAg?$AAu?$AAa?$AAy?$AA?$AA@ 10060650     LIBCMT:getqloc.obj
 0002:00017670       ??_C@_1CE@ODILCONM@?$AAs?$AAp?$AAa?$AAn?$AAi?$AAs?$AAh?$AA?9?$AAv?$AAe?$AAn?$AAe?$AAz?$AAu?$AAe?$AAl?$AAa?$AA?$AA@ 10060670     LIBCMT:getqloc.obj
 0002:00017694       ??_C@_1CA@OBNMCGFO@?$AAs?$AAw?$AAe?$AAd?$AAi?$AAs?$AAh?$AA?9?$AAf?$AAi?$AAn?$AAl?$AAa?$AAn?$AAd?$AA?$AA@ 10060694     LIBCMT:getqloc.obj
 0002:000176b4       ??_C@_1M@PIPDDPPI@?$AAs?$AAw?$AAi?$AAs?$AAs?$AA?$AA@ 100606b4     LIBCMT:getqloc.obj
 0002:000176c0       ??_C@_15PJPFLCCM@?$AAu?$AAk?$AA?$AA@ 100606c0     LIBCMT:getqloc.obj
 0002:000176c8       ??_C@_15GMFIMNFM@?$AAu?$AAs?$AA?$AA@ 100606c8     LIBCMT:getqloc.obj
 0002:000176d0       ??_C@_17HAEBFAGL@?$AAu?$AAs?$AAa?$AA?$AA@ 100606d0     LIBCMT:getqloc.obj
 0002:000176d8       ___rg_country              100606d8     LIBCMT:getqloc.obj
 0002:000177ec       ??_C@_1BA@DPFJEPHB@?$AAa?$AAm?$AAe?$AAr?$AAi?$AAc?$AAa?$AA?$AA@ 100607ec     LIBCMT:getqloc.obj
 0002:000177fc       ??_C@_1BA@ELOGGFK@?$AAb?$AAr?$AAi?$AAt?$AAa?$AAi?$AAn?$AA?$AA@ 100607fc     LIBCMT:getqloc.obj
 0002:0001780c       ??_C@_1M@GHBGIGDA@?$AAc?$AAh?$AAi?$AAn?$AAa?$AA?$AA@ 1006080c     LIBCMT:getqloc.obj
 0002:00017818       ??_C@_1M@NCHEJOPO@?$AAc?$AAz?$AAe?$AAc?$AAh?$AA?$AA@ 10060818     LIBCMT:getqloc.obj
 0002:00017824       ??_C@_1BA@BKPAPBLA@?$AAe?$AAn?$AAg?$AAl?$AAa?$AAn?$AAd?$AA?$AA@ 10060824     LIBCMT:getqloc.obj
 0002:00017834       ??_C@_1BM@HKBCKIPC@?$AAg?$AAr?$AAe?$AAa?$AAt?$AA?5?$AAb?$AAr?$AAi?$AAt?$AAa?$AAi?$AAn?$AA?$AA@ 10060834     LIBCMT:getqloc.obj
 0002:00017850       ??_C@_1BA@PPCHPGJB@?$AAh?$AAo?$AAl?$AAl?$AAa?$AAn?$AAd?$AA?$AA@ 10060850     LIBCMT:getqloc.obj
 0002:00017860       ??_C@_1BE@JBMPEGDG@?$AAh?$AAo?$AAn?$AAg?$AA?9?$AAk?$AAo?$AAn?$AAg?$AA?$AA@ 10060860     LIBCMT:getqloc.obj
 0002:00017874       ??_C@_1BI@KOELBBPJ@?$AAn?$AAe?$AAw?$AA?9?$AAz?$AAe?$AAa?$AAl?$AAa?$AAn?$AAd?$AA?$AA@ 10060874     LIBCMT:getqloc.obj
 0002:0001788c       ??_C@_15HIEBHAIO@?$AAn?$AAz?$AA?$AA@ 1006088c     LIBCMT:getqloc.obj
 0002:00017894       ??_C@_1BC@CHBCPFPI@?$AAp?$AAr?$AA?5?$AAc?$AAh?$AAi?$AAn?$AAa?$AA?$AA@ 10060894     LIBCMT:getqloc.obj
 0002:000178a8       ??_C@_1BC@JAOIIFKD@?$AAp?$AAr?$AA?9?$AAc?$AAh?$AAi?$AAn?$AAa?$AA?$AA@ 100608a8     LIBCMT:getqloc.obj
 0002:000178bc       ??_C@_1BI@BEHPPHKC@?$AAp?$AAu?$AAe?$AAr?$AAt?$AAo?$AA?9?$AAr?$AAi?$AAc?$AAo?$AA?$AA@ 100608bc     LIBCMT:getqloc.obj
 0002:000178d4       ??_C@_1O@PAEOFKDI@?$AAs?$AAl?$AAo?$AAv?$AAa?$AAk?$AA?$AA@ 100608d4     LIBCMT:getqloc.obj
 0002:000178e4       ??_C@_1BK@FIHMCKAM@?$AAs?$AAo?$AAu?$AAt?$AAh?$AA?5?$AAa?$AAf?$AAr?$AAi?$AAc?$AAa?$AA?$AA@ 100608e4     LIBCMT:getqloc.obj
 0002:00017900       ??_C@_1BI@NAEOODKB@?$AAs?$AAo?$AAu?$AAt?$AAh?$AA?5?$AAk?$AAo?$AAr?$AAe?$AAa?$AA?$AA@ 10060900     LIBCMT:getqloc.obj
 0002:00017918       ??_C@_1BK@FBDGGIFF@?$AAs?$AAo?$AAu?$AAt?$AAh?$AA?9?$AAa?$AAf?$AAr?$AAi?$AAc?$AAa?$AA?$AA@ 10060918     LIBCMT:getqloc.obj
 0002:00017934       ??_C@_1BI@GHLEJDPK@?$AAs?$AAo?$AAu?$AAt?$AAh?$AA?9?$AAk?$AAo?$AAr?$AAe?$AAa?$AA?$AA@ 10060934     LIBCMT:getqloc.obj
 0002:0001794c       ??_C@_1CE@PLHLOMJF@?$AAt?$AAr?$AAi?$AAn?$AAi?$AAd?$AAa?$AAd?$AA?5?$AA?$CG?$AA?5?$AAt?$AAo?$AAb?$AAa?$AAg?$AAo?$AA?$AA@ 1006094c     LIBCMT:getqloc.obj
 0002:00017970       ??_C@_1BO@MODIMHHI@?$AAu?$AAn?$AAi?$AAt?$AAe?$AAd?$AA?9?$AAk?$AAi?$AAn?$AAg?$AAd?$AAo?$AAm?$AA?$AA@ 10060970     LIBCMT:getqloc.obj
 0002:00017990       ??_C@_1BM@FFHJONBJ@?$AAu?$AAn?$AAi?$AAt?$AAe?$AAd?$AA?9?$AAs?$AAt?$AAa?$AAt?$AAe?$AAs?$AA?$AA@ 10060990     LIBCMT:getqloc.obj
 0002:000179ac       ??_C@_17DNCLJFIF@?$AAA?$AAC?$AAP?$AA?$AA@ 100609ac     LIBCMT:getqloc.obj
 0002:000179b4       ??_C@_17CIKBIHLH@?$AAO?$AAC?$AAP?$AA?$AA@ 100609b4     LIBCMT:getqloc.obj
 0002:000179c0       __load_config_used         100609c0     LIBCMT:loadcfg.obj
 0002:00018b10       ___safe_se_handler_table   10061b10     <linker-defined>
 0002:00018c20       ___rtc_iaa                 10061c20     LIBCMT:initsect.obj
 0002:00018d24       ___rtc_izz                 10061d24     LIBCMT:initsect.obj
 0002:00018e28       ___rtc_taa                 10061e28     LIBCMT:initsect.obj
 0002:00018f2c       ___rtc_tzz                 10061f2c     LIBCMT:initsect.obj
 0003:00000be0       _kaiguangai1108_P          10063be0     kaiguangai1108_data.obj
 0003:000010b8       _pci20041digout            100640b8     xpctarget.obj
 0003:000010bc       _nipcdio24cnfg             100640bc     xpctarget.obj
 0003:000010c0       _rtddm6604cnfg             100640c0     xpctarget.obj
 0003:000010f4       _DefaultCOMIOBase          100640f4     xpcruntime:xpcimports.obj
 0003:00001104       _DefaultCOMIRQ             10064104     xpcruntime:xpcimports.obj
 0003:00001120       __fltused                  10064120     LIBCMT:fpinit.obj
 0003:00001124       __ldused                   10064124     LIBCMT:fpinit.obj
 0003:00001130       __iob                      10064130     LIBCMT:_file.obj
 0003:000013b0       ___isa_enabled             100643b0     LIBCMT:cpu_disp.obj
 0003:000013b4       ___security_cookie         100643b4     LIBCMT:gs_cookie.obj
 0003:000013b8       ___security_cookie_complement 100643b8     LIBCMT:gs_cookie.obj
 0003:00001590       ___nullstring              10064590     LIBCMT:output.obj
 0003:00001594       ___wnullstring             10064594     LIBCMT:output.obj
 0003:000015a0       __cfltcvt_tab              100645a0     LIBCMT:cmiscdat.obj
 0003:000016f4       ___ptmbcinfo               100646f4     LIBCMT:mbctype.obj
 0003:000017e8       __mbctype                  100647e8     LIBCMT:mbctype.obj
 0003:000018f0       __mbcasemap                100648f0     LIBCMT:mbctype.obj
 0003:000019f0       ___initialmbcinfo          100649f0     LIBCMT:mbctype.obj
 0003:00001c10       ___badioinfo               10064c10     LIBCMT:ioinit.obj
 0003:00001c50       __lookuptrailbytes         10064c50     LIBCMT:read.obj
 0003:00001d50       __d_inf                    10064d50     LIBCMT:util.obj
 0003:00001d58       __d_ind                    10064d58     LIBCMT:util.obj
 0003:00001d60       __d_max                    10064d60     LIBCMT:util.obj
 0003:00001d68       __d_min                    10064d68     LIBCMT:util.obj
 0003:00001d70       __d_mzero                  10064d70     LIBCMT:util.obj
 0003:00001e7c       ___abort_behavior          10064e7c     LIBCMT:abort.obj
 0003:00001e80       ___flsindex                10064e80     LIBCMT:tidtable.obj
 0003:00001e90       ___wclocalestr             10064e90     LIBCMT:nlsdata.obj
 0003:00001e98       ___lc_time_c               10064e98     LIBCMT:nlsdata.obj
 0003:00001ffc       ___ptlocinfo               10064ffc     LIBCMT:nlsdata.obj
 0003:00002000       ___initiallocinfo          10065000     LIBCMT:nlsdata.obj
 0003:000020b8       ___initiallocalestructinfo 100650b8     LIBCMT:nlsdata.obj
 0003:000020c0       ___mb_cur_max              100650c0     LIBCMT:nlsdata.obj
 0003:000020c4       ___globallocalestatus      100650c4     LIBCMT:glstatus.obj
 0003:000020d0       __NLG_Destination          100650d0     LIBCMT:exsup.obj
 0003:000020e0       __matherr_flag             100650e0     LIBCMT:matherr.obj
 0003:000020e8       ___lconv                   100650e8     LIBCMT:lconv.obj
 0003:000020ec       ___lconv_static_decimal    100650ec     LIBCMT:lconv.obj
 0003:000020f0       ___lconv_c                 100650f0     LIBCMT:lconv.obj
 0003:00002140       ___lconv_static_W_decimal  10065140     LIBCMT:lconv.obj
 0003:00002144       __pctype                   10065144     LIBCMT:ctype.obj
 0003:00002148       __pwctype                  10065148     LIBCMT:ctype.obj
 0003:00002180       __confh                    10065180     LIBCMT:initcon.obj
 0003:00002188       __pow10pos                 10065188     LIBCMT:constpow.obj
 0003:000022e8       __pow10neg                 100652e8     LIBCMT:constpow.obj
 0003:0000299c       ___isa_available_default   1006599c     rt_logging.obj
 0003:000029ac       _xmlsize                   100659ac     xpctarget.obj
 0003:000029b0       _pci20098PortA             100659b0     xpctarget.obj
 0003:000029b4       _pci20098PortB             100659b4     xpctarget.obj
 0003:000029b8       _siepowercan_firmware_initialized 100659b8     xpctarget.obj
 0003:000029bc       _siepowercan_port1_configured 100659bc     xpctarget.obj
 0003:000029c0       _siepowercan_port2_configured 100659c0     xpctarget.obj
 0003:000029c4       _CANAC2_FIRMWARE_LOADED    100659c4     xpctarget.obj
 0003:000029c8       _rs232ports                100659c8     xpctarget.obj
 0003:000029d8       _NI_AT_MIO_16F_5_commreg2  100659d8     xpctarget.obj
 0003:000029dc       _RTD_DM6430_init           100659dc     xpctarget.obj
 0003:000029e0       _RTD_DM6420_init           100659e0     xpctarget.obj
 0003:000029e4       _CANAC2_FIRMWARE_LOADED_mb1 100659e4     xpctarget.obj
 0003:000029e8       _CANAC2_FIRMWARE_LOADED_mb2 100659e8     xpctarget.obj
 0003:000029ec       _CANAC2_FIRMWARE_LOADED_mb3 100659ec     xpctarget.obj
 0003:00002b40       ___fastflag                10065b40     LIBCMT:fpinit.obj
 0003:00002e68       __C_Exit_Done              10065e68     LIBCMT:crt0dat.obj
 0003:00002e6c       ___argc                    10065e6c     LIBCMT:crt0dat.obj
 0003:00002e70       ___argv                    10065e70     LIBCMT:crt0dat.obj
 0003:00002e74       ___wargv                   10065e74     LIBCMT:crt0dat.obj
 0003:00002e78       __environ                  10065e78     LIBCMT:crt0dat.obj
 0003:00002e7c       __wenviron                 10065e7c     LIBCMT:crt0dat.obj
 0003:00002e80       __pgmptr                   10065e80     LIBCMT:crt0dat.obj
 0003:00002e84       __wpgmptr                  10065e84     LIBCMT:crt0dat.obj
 0003:00002e88       __umaskval                 10065e88     LIBCMT:crt0dat.obj
 0003:00002e8c       __exitflag                 10065e8c     LIBCMT:crt0dat.obj
 0003:00002e90       __C_Termination_Done       10065e90     LIBCMT:crt0dat.obj
 0003:00002e94       ___winitenv                10065e94     LIBCMT:crt0dat.obj
 0003:00002e98       ___initenv                 10065e98     LIBCMT:crt0dat.obj
 0003:00002e9c       __cflush                   10065e9c     LIBCMT:_file.obj
 0003:00002ea0       ___isa_available           10065ea0     LIBCMT:cpu_disp.obj
 0003:00002ea4       ___favor                   10065ea4     LIBCMT:cpu_disp.obj
 0003:00002ea8       __aenvptr                  10065ea8     LIBCMT:dllcrt0.obj
 0003:00002eac       __wenvptr                  10065eac     LIBCMT:dllcrt0.obj
 0003:00002eb4       ?_pnhHeap@@3P6AHI@ZA       10065eb4     LIBCMT:handler.obj
 0003:00002eb8       ___app_type                10065eb8     LIBCMT:crt0msg.obj
 0003:000034e8       __newmode                  100664e8     LIBCMT:_newmode.obj
 0003:000034ec       __crtheap                  100664ec     LIBCMT:heapinit.obj
 0003:000034f0       ___pInvalidArgHandler      100664f0     LIBCMT:invarg.obj
 0003:000034f4       __stdbuf                   100664f4     LIBCMT:_sftbuf.obj
 0003:00003650       __maxwait                  10066650     LIBCMT:crtheap.obj
 0003:00003654       ?__pInconsistency@@3P6AXXZA 10066654     LIBCMT:hooks.obj
 0003:00003658       ___pPurecall               10066658     LIBCMT:inithelp.obj
 0003:00003674       ___mblocalename            10066674     LIBCMT:mbctype.obj
 0003:00003678       ___mbcodepage              10066678     LIBCMT:mbctype.obj
 0003:0000367c       ___ismbcodepage            1006667c     LIBCMT:mbctype.obj
 0003:00003680       ___mbulinfo                10066680     LIBCMT:mbctype.obj
 0003:00003690       ___ioInitOnce              10066690     LIBCMT:ioinit.obj
 0003:00003694       ___error_mode              10066694     LIBCMT:errmode.obj
 0003:000037b8       __outputformat             100667b8     LIBCMT:outputformat.obj
 0003:000037bc       __commode                  100667bc     LIBCMT:ncommode.obj
 0003:000037c0       ___lconv_static_null       100667c0     LIBCMT:lconv.obj
 0003:000037c4       ___lconv_static_W_null     100667c4     LIBCMT:lconv.obj
 0003:000037c8       ___locale_changed          100667c8     LIBCMT:wsetloca.obj
 0003:000037cc       __fmode                    100667cc     LIBCMT:txtmode.obj
 0003:000037e0       _CANAC2_2_receiveindex_mb3 100667e0     <common>
 0003:000068b4       _CANAC2_2_receivemaxindex_mb3 100698b4     <common>
 0003:000068c0       _CANAC2_2_sendindex_mb3    100698c0     <common>
 0003:00006be0       _CANAC2_2_sendmaxindex_mb3 10069be0     <common>
 0003:00006c00       _CANAC2_1_receiveindex_mb3 10069c00     <common>
 0003:00006f20       _CANAC2_1_receivemaxindex_mb3 10069f20     <common>
 0003:00006f40       _CANAC2_1_sendindex_mb3    10069f40     <common>
 0003:00007260       _CANAC2_1_sendmaxindex_mb3 1006a260     <common>
 0003:00007280       _CANAC2_2_receive_mb3      1006a280     <common>
 0003:000075a0       _CANAC2_2_send_mb3         1006a5a0     <common>
 0003:000078c0       _CANAC2_1_receive_mb3      1006a8c0     <common>
 0003:00007be0       _CANAC2_1_send_mb3         1006abe0     <common>
 0003:00007f00       _CANAC2_2_receiveindex_mb2 1006af00     <common>
 0003:00008220       _CANAC2_2_receivemaxindex_mb2 1006b220     <common>
 0003:00008240       _CANAC2_2_sendindex_mb2    1006b240     <common>
 0003:00008560       _CANAC2_2_sendmaxindex_mb2 1006b560     <common>
 0003:00008580       _CANAC2_1_receiveindex_mb2 1006b580     <common>
 0003:000088a0       _CANAC2_1_receivemaxindex_mb2 1006b8a0     <common>
 0003:000088c0       _CANAC2_1_sendindex_mb2    1006b8c0     <common>
 0003:00008be0       _CANAC2_1_sendmaxindex_mb2 1006bbe0     <common>
 0003:00008c00       _CANAC2_2_receive_mb2      1006bc00     <common>
 0003:00008f20       _CANAC2_2_send_mb2         1006bf20     <common>
 0003:00009240       _CANAC2_1_receive_mb2      1006c240     <common>
 0003:00009560       _CANAC2_1_send_mb2         1006c560     <common>
 0003:00009880       _CANAC2_2_receiveindex_mb1 1006c880     <common>
 0003:00009ba0       _CANAC2_2_receivemaxindex_mb1 1006cba0     <common>
 0003:00009bc0       _CANAC2_2_sendindex_mb1    1006cbc0     <common>
 0003:00009ee0       _CANAC2_2_sendmaxindex_mb1 1006cee0     <common>
 0003:00009f00       _CANAC2_1_receiveindex_mb1 1006cf00     <common>
 0003:0000a220       _CANAC2_1_receivemaxindex_mb1 1006d220     <common>
 0003:0000a240       _CANAC2_1_sendindex_mb1    1006d240     <common>
 0003:0000a560       _CANAC2_1_sendmaxindex_mb1 1006d560     <common>
 0003:0000a580       _CANAC2_2_receive_mb1      1006d580     <common>
 0003:0000a8a0       _CANAC2_2_send_mb1         1006d8a0     <common>
 0003:0000abc0       _CANAC2_1_receive_mb1      1006dbc0     <common>
 0003:0000aee0       _CANAC2_1_send_mb1         1006dee0     <common>
 0003:0000b200       _CANAC2_2_receiveindex     1006e200     <common>
 0003:0000b520       _CANAC2_2_receivemaxindex  1006e520     <common>
 0003:0000b540       _CANAC2_2_sendindex        1006e540     <common>
 0003:0000b860       _CANAC2_2_sendmaxindex     1006e860     <common>
 0003:0000b880       _CANAC2_1_receiveindex     1006e880     <common>
 0003:0000bba0       _CANAC2_1_receivemaxindex  1006eba0     <common>
 0003:0000bbc0       _CANAC2_1_sendindex        1006ebc0     <common>
 0003:0000bee0       _CANAC2_1_sendmaxindex     1006eee0     <common>
 0003:0000bf00       _CANAC2_2_receive          1006ef00     <common>
 0003:0000c220       _CANAC2_2_send             1006f220     <common>
 0003:0000c540       _CANAC2_1_receive          1006f540     <common>
 0003:0000c860       _CANAC2_1_send             1006f860     <common>
 0003:0000cb80       _siepowercan_can_object_buffer_port2 1006fb80     <common>
 0003:00010ba0       _siepowercan_can_object_buffer_port1 10073ba0     <common>
 0003:00014ba0       _rtNaNF                    10077ba0     <common>
 0003:00014bb4       _rtMinusInfF               10077bb4     <common>
 0003:00014bb8       _rtInfF                    10077bb8     <common>
 0003:00014bc0       _rtNaN                     10077bc0     <common>
 0003:00014bc8       _rtMinusInf                10077bc8     <common>
 0003:00014bd0       _rtInf                     10077bd0     <common>
 0003:00014be0       _kaiguangai1108_M_         10077be0     <common>
 0003:00018480       _kaiguangai1108_DW         1007b480     <common>
 0003:000189c0       _kaiguangai1108_B          1007b9c0     <common>
 0003:0001a708       _socket                    1007d708     <common>
 0003:0001a768       _inet_addr                 1007d768     <common>
 0003:0001a76c       _sendto                    1007d76c     <common>
 0003:0001a770       _recvfrom                  1007d770     <common>
 0003:0001a774       _listen                    1007d774     <common>
 0003:0001a778       _ioctlsocket               1007d778     <common>
 0003:0001a77c       _connect                   1007d77c     <common>
 0003:0001a780       _closesocket               1007d780     <common>
 0003:0001a784       _setsockopt                1007d784     <common>
 0003:0001a788       _bind                      1007d788     <common>
 0003:0001a78c       _accept                    1007d78c     <common>
 0003:0001a790       _GetHostTarIPAdd           1007d790     <common>
 0003:0001a794       _GetDCUUsage               1007d794     <common>
 0003:0001a798       _DeleteRoute               1007d798     <common>
 0003:0001a79c       _AddGatewayRoute           1007d79c     <common>
 0003:0001a7a0       _SetIP                     1007d7a0     <common>
 0003:0001a7a4       _CloseInterface            1007d7a4     <common>
 0003:0001a7a8       _OpenInterface             1007d7a8     <common>
 0003:0001a7ac       _SetIPTASKPriority         1007d7ac     <common>
 0003:0001a7b0       _isUsedByRTIP              1007d7b0     <common>
 0003:0001a7b4       _getlasterror              1007d7b4     <common>
 0003:0001a7b8       _slrtfsGetFileStatus       1007d7b8     <common>
 0003:0001a7bc       _slrtfsOpenFileAsync       1007d7bc     <common>
 0003:0001a7c0       _slrtfsCloseFileAsync      1007d7c0     <common>
 0003:0001a7c4       _slrtfsGetFileErrorMessage 1007d7c4     <common>
 0003:0001a7c8       _slrtfsGetFileError        1007d7c8     <common>
 0003:0001a7cc       _slrtfsWriteToFile         1007d7cc     <common>
 0003:0001a7d0       _slrtfsCloseFile           1007d7d0     <common>
 0003:0001a7d4       _slrtfsOpenFile            1007d7d4     <common>
 0003:0001a7d8       _slrtGetSgCRBSpace         1007d7d8     <common>
 0003:0001a7dc       _slrtGetCRBScratchSpace    1007d7dc     <common>
 0003:0001a7e0       _slrteSetupMSI             1007d7e0     <common>
 0003:0001a7e4       _slTestRegAssessment       1007d7e4     <common>
 0003:0001a7e8       _slTestTerminate           1007d7e8     <common>
 0003:0001a7ec       _slTestEvalOnFail          1007d7ec     <common>
 0003:0001a7f0       _slTestLogAssessments      1007d7f0     <common>
 0003:0001a7f4       _slTestInitialize          1007d7f4     <common>
 0003:0001a7f8       _unRegisterPTPTimeRead     1007d7f8     <common>
 0003:0001a7fc       _registerPTPTimeRead       1007d7fc     <common>
 0003:0001a800       _slrteGetCurrentStepSize   1007d800     <common>
 0003:0001a804       _slrteSetStepSizeDelta     1007d804     <common>
 0003:0001a808       _xpceGetIntTimerGranularityNS 1007d808     <common>
 0003:0001a80c       _sendToAsyncQueueTgtAppSvc 1007d80c     <common>
 0003:0001a810       _terminateToAsyncQueueTgtAppSvc 1007d810     <common>
 0003:0001a814       _startToAsyncQueueTgtAppSvc 1007d814     <common>
 0003:0001a818       _getStatusFlags            1007d818     <common>
 0003:0001a81c       _getCommService            1007d81c     <common>
 0003:0001a820       _getMemoryService          1007d820     <common>
 0003:0001a824       _StreamVideo               1007d824     <common>
 0003:0001a828       _StopVideoDisplay          1007d828     <common>
 0003:0001a82c       _StartVideoDisplay         1007d82c     <common>
 0003:0001a830       _DestroyVideoDisplay       1007d830     <common>
 0003:0001a834       _CreateVideoDisplay        1007d834     <common>
 0003:0001a838       _ConvertUImage             1007d838     <common>
 0003:0001a83c       _StopVideo                 1007d83c     <common>
 0003:0001a840       _ReadFrameBuffer           1007d840     <common>
 0003:0001a844       _StartVideo                1007d844     <common>
 0003:0001a848       _GetVideoConfigs           1007d848     <common>
 0003:0001a84c       _FindUsbVideoDevice        1007d84c     <common>
 0003:0001a850       _xpceDeleteSemaphore       1007d850     <common>
 0003:0001a854       _xpceSignalSemaphore       1007d854     <common>
 0003:0001a858       _xpceWaitSemaphore         1007d858     <common>
 0003:0001a85c       _xpceCreateSemaphore       1007d85c     <common>
 0003:0001a860       _TBGiveSpinFast            1007d860     <common>
 0003:0001a864       _TBTakeSpinFast            1007d864     <common>
 0003:0001a868       _TBDeleteSpin              1007d868     <common>
 0003:0001a86c       _TBCreateSpin              1007d86c     <common>
 0003:0001a870       _xpceScopeAcqOK            1007d870     <common>
 0003:0001a874       _rl32eRestartAcquisition   1007d874     <common>
 0003:0001a878       _rl32eSetTargetScopeSigFt  1007d878     <common>
 0003:0001a87c       _rl32eSetTargetScope       1007d87c     <common>
 0003:0001a880       _xpceFSScopeSet            1007d880     <common>
 0003:0001a884       _rl32eSetScope             1007d884     <common>
 0003:0001a888       _rl32eAddSignal            1007d888     <common>
 0003:0001a88c       _rl32eGetSignalNo          1007d88c     <common>
 0003:0001a890       _rl32eDefScope             1007d890     <common>
 0003:0001a894       _rl32eScopeExists          1007d894     <common>
 0003:0001a898       _xpceGetParamDims          1007d898     <common>
 0003:0001a89c       _xpceGetParameter          1007d89c     <common>
 0003:0001a8a0       _xpceSetParameter          1007d8a0     <common>
 0003:0001a8a4       _xpceGetSignalValue        1007d8a4     <common>
 0003:0001a8a8       _xpceAssignPCIInterrupt    1007d8a8     <common>
 0003:0001a8ac       _rl32eGetPCIInfoAtSlot     1007d8ac     <common>
 0003:0001a8b0       _rl32eGetPCIInfo           1007d8b0     <common>
 0003:0001a8b4       _rl32eShowPCIInfo          1007d8b4     <common>
 0003:0001a8b8       _rl32eShowPCIDev           1007d8b8     <common>
 0003:0001a8bc       _xpceGetTET                1007d8bc     <common>
 0003:0001a8c0       _xpceaddEvent              1007d8c0     <common>
 0003:0001a8c4       _xpceDeRegisterISR         1007d8c4     <common>
 0003:0001a8c8       _xpceRegisterISR           1007d8c8     <common>
 0003:0001a8cc       _xpcIsModelInit            1007d8cc     <common>
 0003:0001a8d0       _xpcGetElapsedTime         1007d8d0     <common>
 0003:0001a8d4       _xpcBusyWait               1007d8d4     <common>
 0003:0001a8d8       _xpcFreePhysicalMemory     1007d8d8     <common>
 0003:0001a8dc       _xpcAllocPhysicalMemory    1007d8dc     <common>
 0003:0001a8e0       _xpcReserveMemoryRegion    1007d8e0     <common>
 0003:0001a8e4       _xpcOutpB                  1007d8e4     <common>
 0003:0001a8e8       _xpcOutpW                  1007d8e8     <common>
 0003:0001a8ec       _xpcOutpDW                 1007d8ec     <common>
 0003:0001a8f0       _xpcInpB                   1007d8f0     <common>
 0003:0001a8f4       _xpcInpW                   1007d8f4     <common>
 0003:0001a8f8       _xpcInpDW                  1007d8f8     <common>
 0003:0001a8fc       ___unguarded_readlc_active 1007d8fc     <common>
 0003:0001a90c       ___setlc_active            1007d90c     <common>
 0003:0001a910       __nhandle                  1007d910     <common>
 0003:0001a960       ___pioinfo                 1007d960     <common>
 0003:0001aa60       __debugger_hook_dummy      1007da60     <common>
 0003:0001aa6c       __pDestructExceptionObject 1007da6c     <common>
 0003:0001aa78       __acmdln                   1007da78     <common>
 0003:0001aa84       ___piob                    1007da84     <common>
 0003:0001adc4       __nstream                  1007ddc4     <common>
 0003:0001ade0       __bufin                    1007dde0     <common>
 0003:0001bde0       ___dyn_tls_init_callback   1007ede0     <common>
 0003:0001bdf0       ___onexitend               1007edf0     <common>
 0003:0001bdf4       ___onexitbegin             1007edf4     <common>
 0003:0001bdf8       ___mbctype_initialized     1007edf8     <common>
 0003:0001bdfc       ___env_initialized         1007edfc     <common>
 0004:00000000       __IMPORT_DESCRIPTOR_KERNEL32 1007f000     kernel32:KERNEL32.dll
 0004:00000014       __NULL_IMPORT_DESCRIPTOR   1007f014     kernel32:KERNEL32.dll
 0004:000001e4       __imp__GetModuleHandleA@4  1007f1e4     kernel32:KERNEL32.dll
 0004:000001e8       __imp__GetProcAddress@8    1007f1e8     kernel32:KERNEL32.dll
 0004:000001ec       __imp__HeapAlloc@12        1007f1ec     kernel32:KERNEL32.dll
 0004:000001f0       __imp__IsDebuggerPresent@0 1007f1f0     kernel32:KERNEL32.dll
 0004:000001f4       __imp__IsProcessorFeaturePresent@4 1007f1f4     kernel32:KERNEL32.dll
 0004:000001f8       __imp__EncodePointer@4     1007f1f8     kernel32:KERNEL32.dll
 0004:000001fc       __imp__DecodePointer@4     1007f1fc     kernel32:KERNEL32.dll
 0004:00000200       __imp__GetLastError@0      1007f200     kernel32:KERNEL32.dll
 0004:00000204       __imp__InterlockedDecrement@4 1007f204     kernel32:KERNEL32.dll
 0004:00000208       __imp__ExitProcess@4       1007f208     kernel32:KERNEL32.dll
 0004:0000020c       __imp__GetModuleHandleExW@12 1007f20c     kernel32:KERNEL32.dll
 0004:00000210       __imp__AreFileApisANSI@0   1007f210     kernel32:KERNEL32.dll
 0004:00000214       __imp__MultiByteToWideChar@24 1007f214     kernel32:KERNEL32.dll
 0004:00000218       __imp__HeapFree@12         1007f218     kernel32:KERNEL32.dll
 0004:0000021c       __imp__HeapReAlloc@16      1007f21c     kernel32:KERNEL32.dll
 0004:00000220       __imp__EnterCriticalSection@4 1007f220     kernel32:KERNEL32.dll
 0004:00000224       __imp__LeaveCriticalSection@4 1007f224     kernel32:KERNEL32.dll
 0004:00000228       __imp__GetStdHandle@4      1007f228     kernel32:KERNEL32.dll
 0004:0000022c       __imp__GetFileType@4       1007f22c     kernel32:KERNEL32.dll
 0004:00000230       __imp__GetModuleFileNameW@12 1007f230     kernel32:KERNEL32.dll
 0004:00000234       __imp__WriteConsoleW@20    1007f234     kernel32:KERNEL32.dll
 0004:00000238       __imp__GetCommandLineA@0   1007f238     kernel32:KERNEL32.dll
 0004:0000023c       __imp__GetCurrentThreadId@0 1007f23c     kernel32:KERNEL32.dll
 0004:00000240       __imp__WriteFile@20        1007f240     kernel32:KERNEL32.dll
 0004:00000244       __imp__GetProcessHeap@0    1007f244     kernel32:KERNEL32.dll
 0004:00000248       __imp__UnhandledExceptionFilter@4 1007f248     kernel32:KERNEL32.dll
 0004:0000024c       __imp__SetUnhandledExceptionFilter@4 1007f24c     kernel32:KERNEL32.dll
 0004:00000250       __imp__FlsAlloc@4          1007f250     kernel32:KERNEL32.dll
 0004:00000254       __imp__FlsGetValue@4       1007f254     kernel32:KERNEL32.dll
 0004:00000258       __imp__FlsSetValue@8       1007f258     kernel32:KERNEL32.dll
 0004:0000025c       __imp__FlsFree@4           1007f25c     kernel32:KERNEL32.dll
 0004:00000260       __imp__GetCurrentProcess@0 1007f260     kernel32:KERNEL32.dll
 0004:00000264       __imp__TerminateProcess@8  1007f264     kernel32:KERNEL32.dll
 0004:00000268       __imp__GetStartupInfoW@4   1007f268     kernel32:KERNEL32.dll
 0004:0000026c       __imp__GetModuleHandleW@4  1007f26c     kernel32:KERNEL32.dll
 0004:00000270       __imp__InitializeCriticalSectionAndSpinCount@8 1007f270     kernel32:KERNEL32.dll
 0004:00000274       __imp__DeleteCriticalSection@4 1007f274     kernel32:KERNEL32.dll
 0004:00000278       __imp__FatalAppExitA@8     1007f278     kernel32:KERNEL32.dll
 0004:0000027c       __imp__Sleep@4             1007f27c     kernel32:KERNEL32.dll
 0004:00000280       __imp__InterlockedExchange@8 1007f280     kernel32:KERNEL32.dll
 0004:00000284       __imp__FreeLibrary@4       1007f284     kernel32:KERNEL32.dll
 0004:00000288       __imp__LoadLibraryExW@12   1007f288     kernel32:KERNEL32.dll
 0004:0000028c       __imp__SetConsoleCtrlHandler@8 1007f28c     kernel32:KERNEL32.dll
 0004:00000290       __imp__InterlockedIncrement@4 1007f290     kernel32:KERNEL32.dll
 0004:00000294       __imp__IsValidCodePage@4   1007f294     kernel32:KERNEL32.dll
 0004:00000298       __imp__GetACP@0            1007f298     kernel32:KERNEL32.dll
 0004:0000029c       __imp__GetOEMCP@0          1007f29c     kernel32:KERNEL32.dll
 0004:000002a0       __imp__GetCPInfo@8         1007f2a0     kernel32:KERNEL32.dll
 0004:000002a4       __imp__CloseHandle@4       1007f2a4     kernel32:KERNEL32.dll
 0004:000002a8       __imp__RtlUnwind@16        1007f2a8     kernel32:KERNEL32.dll
 0004:000002ac       __imp__InitOnceExecuteOnce@16 1007f2ac     kernel32:KERNEL32.dll
 0004:000002b0       __imp__ReadFile@20         1007f2b0     kernel32:KERNEL32.dll
 0004:000002b4       __imp__GetConsoleMode@8    1007f2b4     kernel32:KERNEL32.dll
 0004:000002b8       __imp__ReadConsoleW@20     1007f2b8     kernel32:KERNEL32.dll
 0004:000002bc       __imp__WideCharToMultiByte@32 1007f2bc     kernel32:KERNEL32.dll
 0004:000002c0       __imp__GetConsoleCP@0      1007f2c0     kernel32:KERNEL32.dll
 0004:000002c4       __imp__DeleteFileW@4       1007f2c4     kernel32:KERNEL32.dll
 0004:000002c8       __imp__SetFilePointer@16   1007f2c8     kernel32:KERNEL32.dll
 0004:000002cc       __imp__RaiseException@16   1007f2cc     kernel32:KERNEL32.dll
 0004:000002d0       __imp__OutputDebugStringW@4 1007f2d0     kernel32:KERNEL32.dll
 0004:000002d4       __imp__LoadLibraryW@4      1007f2d4     kernel32:KERNEL32.dll
 0004:000002d8       __imp__SetLastError@4      1007f2d8     kernel32:KERNEL32.dll
 0004:000002dc       __imp__GetCurrentThread@0  1007f2dc     kernel32:KERNEL32.dll
 0004:000002e0       __imp__GetModuleFileNameA@12 1007f2e0     kernel32:KERNEL32.dll
 0004:000002e4       __imp__QueryPerformanceCounter@4 1007f2e4     kernel32:KERNEL32.dll
 0004:000002e8       __imp__GetSystemTimeAsFileTime@4 1007f2e8     kernel32:KERNEL32.dll
 0004:000002ec       __imp__GetTickCount64@0    1007f2ec     kernel32:KERNEL32.dll
 0004:000002f0       __imp__GetEnvironmentStringsW@0 1007f2f0     kernel32:KERNEL32.dll
 0004:000002f4       __imp__FreeEnvironmentStringsW@4 1007f2f4     kernel32:KERNEL32.dll
 0004:000002f8       __imp__HeapSize@12         1007f2f8     kernel32:KERNEL32.dll
 0004:000002fc       __imp__GetTimeFormatEx@24  1007f2fc     kernel32:KERNEL32.dll
 0004:00000300       __imp__GetDateFormatEx@28  1007f300     kernel32:KERNEL32.dll
 0004:00000304       __imp__CompareStringEx@36  1007f304     kernel32:KERNEL32.dll
 0004:00000308       __imp__GetLocaleInfoEx@16  1007f308     kernel32:KERNEL32.dll
 0004:0000030c       __imp__GetUserDefaultLocaleName@8 1007f30c     kernel32:KERNEL32.dll
 0004:00000310       __imp__LCMapStringEx@36    1007f310     kernel32:KERNEL32.dll
 0004:00000314       __imp__IsValidLocaleName@4 1007f314     kernel32:KERNEL32.dll
 0004:00000318       __imp__EnumSystemLocalesEx@16 1007f318     kernel32:KERNEL32.dll
 0004:0000031c       __imp__GetStringTypeW@16   1007f31c     kernel32:KERNEL32.dll
 0004:00000320       __imp__FlushFileBuffers@4  1007f320     kernel32:KERNEL32.dll
 0004:00000324       __imp__SetStdHandle@8      1007f324     kernel32:KERNEL32.dll
 0004:00000328       __imp__SetFilePointerEx@20 1007f328     kernel32:KERNEL32.dll
 0004:0000032c       __imp__CreateFileW@28      1007f32c     kernel32:KERNEL32.dll
 0004:00000330       __imp__SetEndOfFile@4      1007f330     kernel32:KERNEL32.dll
 0004:00000334       \177KERNEL32_NULL_THUNK_DATA 1007f334     kernel32:KERNEL32.dll

 entry point at        0001:0002070b

