 untitled20210804_xpc

 Timestamp is 610b4994 (Thu Aug 05 10:14:44 2021)

 Preferred load address is 10000000

 Start         Length     Name                   Class
 0001:00000000 0004231dH .text                   CODE
 0002:00000000 00000104H .CRT$XCA                DATA
 0002:00000104 00000104H .CRT$XCZ                DATA
 0002:00000208 00000104H .CRT$XIA                DATA
 0002:0000030c 00000113H .CRT$XIC                DATA
 0002:00000420 00000104H .CRT$XIZ                DATA
 0002:00000524 00000104H .CRT$XPA                DATA
 0002:00000628 00000109H .CRT$XPX                DATA
 0002:00000734 00000104H .CRT$XPXA               DATA
 0002:00000838 00000104H .CRT$XPZ                DATA
 0002:0000093c 00000104H .CRT$XTA                DATA
 0002:00000a40 00000104H .CRT$XTZ                DATA
 0002:00000b50 00009dc1H .rdata                  DATA
 0002:0000a914 0000018bH .rdata$debug            DATA
 0002:0000aaa0 0000010eH .rdata$sxdata           DATA
 0002:0000abb0 00000104H .rtc$IAA                DATA
 0002:0000acb4 00000104H .rtc$IZZ                DATA
 0002:0000adb8 00000104H .rtc$TAA                DATA
 0002:0000aebc 00000104H .rtc$TZZ                DATA
 0002:0000afc0 00000991H .xdata$x                DATA
 0002:0000b960 000001eaH .edata                  DATA
 0003:00000000 00010585H .data                   DATA
 0003:000105a0 00019380H .bss                    DATA
 0004:00000000 00000014H .idata$2                DATA
 0004:00000014 00000014H .idata$3                DATA
 0004:00000028 000001dcH .idata$4                DATA
 0004:00000204 000001dcH .idata$5                DATA
 0004:000003e0 0000083aH .idata$6                DATA

  Address         Publics by Value              Rva+Base       Lib:Object

 0000:00000000       __except_list              00000000     <absolute>
 0000:00000003       ___safe_se_handler_count   00000003     <absolute>
 0000:00000000       ___ImageBase               10000000     <linker-defined>
 0001:000002e0       _MdlInitialize             100012e0 f   untitled20210804.obj
 0001:000002f0       _MdlInitializeSampleTimes  100012f0 f   untitled20210804.obj
 0001:00000300       _MdlInitializeSizes        10001300 f   untitled20210804.obj
 0001:00000310       _MdlOutputs                10001310 f   untitled20210804.obj
 0001:00000320       _MdlStart                  10001320 f   untitled20210804.obj
 0001:00000330       _MdlTerminate              10001330 f   untitled20210804.obj
 0001:00000350       _MdlUpdate                 10001350 f   untitled20210804.obj
 0001:000003e0       _look1_binlxpw             100013e0 f   untitled20210804.obj
 0001:000004c0       _untitled20210804          100014c0 f   untitled20210804.obj
 0001:00002d90       _rtGetInf                  10003d90 f   rtGetInf.obj
 0001:00002dc0       _rtGetInfF                 10003dc0 f   rtGetInf.obj
 0001:00002de0       _rtGetMinusInf             10003de0 f   rtGetInf.obj
 0001:00002e10       _rtGetMinusInfF            10003e10 f   rtGetInf.obj
 0001:00002e30       _rtGetNaN                  10003e30 f   rtGetNaN.obj
 0001:00002e60       _rtGetNaNF                 10003e60 f   rtGetNaN.obj
 0001:00003740       _rt_CreateLogVar           10004740 f   rt_logging.obj
 0001:000037d0       _rt_CreateLogVarWithConvert 100047d0 f   rt_logging.obj
 0001:000041a0       _rt_CreateStructLogVar     100051a0 f   rt_logging.obj
 0001:00004fb0       _rt_GetMxIdFromDTypeId     10005fb0 f   rt_logging.obj
 0001:00004fe0       _rt_GetMxIdFromDTypeIdForRSim 10005fe0 f   rt_logging.obj
 0001:000078d0       _rt_StartDataLogging       100088d0 f   rt_logging.obj
 0001:00007d90       _rt_StartDataLoggingWithStartTime 10008d90 f   rt_logging.obj
 0001:00008710       _rt_StopDataLogging        10009710 f   rt_logging.obj
 0001:00008730       _rt_StopDataLoggingImpl    10009730 f   rt_logging.obj
 0001:00008a50       _rt_UpdateLogVar           10009a50 f   rt_logging.obj
 0001:00009e50       _rt_UpdateStructLogVar     1000ae50 f   rt_logging.obj
 0001:00009ee0       _rt_UpdateTXXFYLogVars     1000aee0 f   rt_logging.obj
 0001:0000a220       _rt_UpdateTXYLogVars       1000b220 f   rt_logging.obj
 0001:0000a480       _rt_CleanUpForStateLogWithMMI 1000b480 f   rt_logging_mmi.obj
 0001:0000a590       _rt_FillStateSigInfoFromMMI 1000b590 f   rt_logging_mmi.obj
 0001:0000a940       _rt_mxCreateCharMatrixFromStrings 1000b940 f   rt_matrx.obj
 0001:0000aa90       _rt_mxCreateDoubleMatrix   1000ba90 f   rt_matrx.obj
 0001:0000aaf0       _rt_mxCreateNumericArray   1000baf0 f   rt_matrx.obj
 0001:0000ab70       _rt_mxCreateString         1000bb70 f   rt_matrx.obj
 0001:0000ac00       _rt_mxDuplicateArray       1000bc00 f   rt_matrx.obj
 0001:0000ac90       _rt_mxGetDimensions        1000bc90 f   rt_matrx.obj
 0001:0000ad00       _rt_mxGetEps               1000bd00 f   rt_matrx.obj
 0001:0000ad10       _rt_mxGetString            1000bd10 f   rt_matrx.obj
 0001:0000add0       _rtIsInf                   1000bdd0 f   rt_nonfinite.obj
 0001:0000ae10       _rtIsInfF                  1000be10 f   rt_nonfinite.obj
 0001:0000ae50       _rtIsNaN                   1000be50 f   rt_nonfinite.obj
 0001:0000ae70       _rtIsNaNF                  1000be70 f   rt_nonfinite.obj
 0001:0000ae90       _rt_InitInfAndNaN          1000be90 f   rt_nonfinite.obj
 0001:0000aef0       _rtPrintfNoOp              1000bef0 f   rt_printf.obj
 0001:0000af00       _rtwCAPI_CountSysRan       1000bf00 f   rtw_modelmap_utils.obj
 0001:0000afa0       _rtwCAPI_EncodePath        1000bfa0 f   rtw_modelmap_utils.obj
 0001:0000b090       _rtwCAPI_FillSysRan        1000c090 f   rtw_modelmap_utils.obj
 0001:0000b180       _rtwCAPI_FreeFullPaths     1000c180 f   rtw_modelmap_utils.obj
 0001:0000b210       _rtwCAPI_GetFullStateBlockPath 1000c210 f   rtw_modelmap_utils.obj
 0001:0000b3c0       _rtwCAPI_GetNumContStateRecords 1000c3c0 f   rtw_modelmap_utils.obj
 0001:0000b480       _rtwCAPI_GetNumSigLogRecords 1000c480 f   rtw_modelmap_utils.obj
 0001:0000b4d0       _rtwCAPI_GetNumSigLogRecordsForRTWLogging 1000c4d0 f   rtw_modelmap_utils.obj
 0001:0000b560       _rtwCAPI_GetNumStateRecords 1000c560 f   rtw_modelmap_utils.obj
 0001:0000b5b0       _rtwCAPI_GetNumStateRecordsForRTWLogging 1000c5b0 f   rtw_modelmap_utils.obj
 0001:0000b640       _rtwCAPI_GetSigAddrFromMap 1000c640 f   rtw_modelmap_utils.obj
 0001:0000b700       _rtwCAPI_GetSigLogRecordInfo 1000c700 f   rtw_modelmap_utils.obj
 0001:0000bb30       _rtwCAPI_GetStateRecordInfo 1000cb30 f   rtw_modelmap_utils.obj
 0001:0000bfe0       _rtwCAPI_GetStateWidth     1000cfe0 f   rtw_modelmap_utils.obj
 0001:0000c040       _rtwCAPI_HasStates         1000d040 f   rtw_modelmap_utils.obj
 0001:0000c0b0       _rtwCAPI_UpdateFullPaths   1000d0b0 f   rtw_modelmap_utils.obj
 0001:0000c290       _untitled20210804_GetCAPIStaticMap 1000d290 f   untitled20210804_capi.obj
 0001:0000c2a0       _untitled20210804_InitializeDataMapInfo 1000d2a0 f   untitled20210804_capi.obj
 0001:0000c330       _DllMain@12                1000d330 f   xpctarget.obj
 0001:0000c340       _SLRTSetErrorStatus        1000d340 f   xpctarget.obj
 0001:0000c360       _changeStepSize            1000d360 f   xpctarget.obj
 0001:0000c3b0       _getDLMVersion             1000d3b0 f   xpctarget.obj
 0001:0000c3c0       _getRefMdlPath             1000d3c0 f   xpctarget.obj
 0001:0000c440       _getRefMdlSignalNumber     1000d440 f   xpctarget.obj
 0001:0000c4f0       _getrlmdlinfo              1000d4f0 f   xpctarget.obj
 0001:0000c6d0       _untitled20210804_ChangeStepSize 1000d6d0 f   xpctarget.obj
 0001:0000c720       _updateDiscreteEvents      1000d720 f   xpctarget.obj
 0001:0000c730       _getNumRef                 1000d730 f   appmappingData.obj
 0001:0000d430       _canac2pcisetupx           1000e430 f   canac2pcisetupx.obj
 0001:0000e0e0       _CANPC_define_cyclic2_mbx  1000f0e0 f   xpccanac2pci_vc:card_can_mbx.obj
 0001:0000e170       _CANPC_define_cyclic_mbx   1000f170 f   xpccanac2pci_vc:card_can_mbx.obj
 0001:0000e200       _CANPC_define_object2_mbx  1000f200 f   xpccanac2pci_vc:card_can_mbx.obj
 0001:0000e340       _CANPC_define_object_mbx   1000f340 f   xpccanac2pci_vc:card_can_mbx.obj
 0001:0000e480       _CANPC_enable_dde_check_mbx 1000f480 f   xpccanac2pci_vc:card_can_mbx.obj
 0001:0000e590       _CANPC_enable_dyn_obj_buf_mbx 1000f590 f   xpccanac2pci_vc:card_can_mbx.obj
 0001:0000e660       _CANPC_enable_error_frame_detection_mbx 1000f660 f   xpccanac2pci_vc:card_can_mbx.obj
 0001:0000e700       _CANPC_enable_fifo_mbx     1000f700 f   xpccanac2pci_vc:card_can_mbx.obj
 0001:0000e7c0       _CANPC_enable_fifo_transmit_ack2_mbx 1000f7c0 f   xpccanac2pci_vc:card_can_mbx.obj
 0001:0000e820       _CANPC_enable_fifo_transmit_ack_mbx 1000f820 f   xpccanac2pci_vc:card_can_mbx.obj
 0001:0000e880       _CANPC_enable_ivm_check_mbx 1000f880 f   xpccanac2pci_vc:card_can_mbx.obj
 0001:0000e990       _CANPC_enable_j1939_check_mbx 1000f990 f   xpccanac2pci_vc:card_can_mbx.obj
 0001:0000eaa0       _CANPC_enable_timestamps_mb 1000faa0 f   xpccanac2pci_vc:card_can_mbx.obj
 0001:0000eab0       _CANPC_get_bus_state_mbx   1000fab0 f   xpccanac2pci_vc:card_can_mbx.obj
 0001:0000eae0       _CANPC_get_device_id_mbx   1000fae0 f   xpccanac2pci_vc:card_can_mbx.obj
 0001:0000eb00       _CANPC_get_serial_number_mbx 1000fb00 f   xpccanac2pci_vc:card_can_mbx.obj
 0001:0000eb80       _CANPC_get_time1_mbx       1000fb80 f   xpccanac2pci_vc:card_can_mbx.obj
 0001:0000ede0       _CANPC_get_time2_mbx       1000fde0 f   xpccanac2pci_vc:card_can_mbx.obj
 0001:0000f040       _CANPC_get_trigger2_mb     10010040 f   xpccanac2pci_vc:card_can_mbx.obj
 0001:0000f050       _CANPC_get_trigger_mb      10010050 f   xpccanac2pci_vc:card_can_mbx.obj
 0001:0000f060       _CANPC_get_version_mbx     10010060 f   xpccanac2pci_vc:card_can_mbx.obj
 0001:0000f110       _CANPC_init_signals_mbx    10010110 f   xpccanac2pci_vc:card_can_mbx.obj
 0001:0000f2f0       _CANPC_initialize_chip2_mbx 100102f0 f   xpccanac2pci_vc:card_can_mbx.obj
 0001:0000f400       _CANPC_initialize_chip_mbx 10010400 f   xpccanac2pci_vc:card_can_mbx.obj
 0001:0000f510       _CANPC_initialize_interface_mbx 10010510 f   xpccanac2pci_vc:card_can_mbx.obj
 0001:0000f710       _CANPC_optimize_rcv_speed_mb 10010710 f   xpccanac2pci_vc:card_can_mbx.obj
 0001:0000f720       _CANPC_read_ac1_mbx        10010720 f   xpccanac2pci_vc:card_can_mbx.obj
 0001:000102f0       _CANPC_read_ac2_mbx        100112f0 f   xpccanac2pci_vc:card_can_mbx.obj
 0001:00010ed0       _CANPC_read_rcv_data2_mbx  10011ed0 f   xpccanac2pci_vc:card_can_mbx.obj
 0001:00011020       _CANPC_read_rcv_data_mbx   10012020 f   xpccanac2pci_vc:card_can_mbx.obj
 0001:00011170       _CANPC_read_rcv_fifo_level1_mbx 10012170 f   xpccanac2pci_vc:card_can_mbx.obj
 0001:000111e0       _CANPC_read_rcv_fifo_level2_mbx 100121e0 f   xpccanac2pci_vc:card_can_mbx.obj
 0001:00011250       _CANPC_read_signals1_mbx   10012250 f   xpccanac2pci_vc:card_can_mbx.obj
 0001:00011320       _CANPC_read_signals2_mbx   10012320 f   xpccanac2pci_vc:card_can_mbx.obj
 0001:000113f0       _CANPC_read_xmt_data2_mbx  100123f0 f   xpccanac2pci_vc:card_can_mbx.obj
 0001:00011480       _CANPC_read_xmt_data_mbx   10012480 f   xpccanac2pci_vc:card_can_mbx.obj
 0001:00011510       _CANPC_read_xmt_fifo_level1_mbx 10012510 f   xpccanac2pci_vc:card_can_mbx.obj
 0001:00011580       _CANPC_read_xmt_fifo_level2_mbx 10012580 f   xpccanac2pci_vc:card_can_mbx.obj
 0001:000115f0       _CANPC_reinitialize_mbx    100125f0 f   xpccanac2pci_vc:card_can_mbx.obj
 0001:00011630       _CANPC_reset_board_mbx     10012630 f   xpccanac2pci_vc:card_can_mbx.obj
 0001:000116f0       _CANPC_reset_chip_mbx      100126f0 f   xpccanac2pci_vc:card_can_mbx.obj
 0001:00011800       _CANPC_reset_lost_msg_counter_mbx 10012800 f   xpccanac2pci_vc:card_can_mbx.obj
 0001:00011830       _CANPC_reset_rcv_fifo_mbx  10012830 f   xpccanac2pci_vc:card_can_mbx.obj
 0001:000118d0       _CANPC_reset_xmt_fifo_mbx  100128d0 f   xpccanac2pci_vc:card_can_mbx.obj
 0001:00011970       _CANPC_send_data2_mbx      10012970 f   xpccanac2pci_vc:card_can_mbx.obj
 0001:00011a00       _CANPC_send_data_mbx       10012a00 f   xpccanac2pci_vc:card_can_mbx.obj
 0001:00011a90       _CANPC_send_object2_mbx    10012a90 f   xpccanac2pci_vc:card_can_mbx.obj
 0001:00011b10       _CANPC_send_object_mbx     10012b10 f   xpccanac2pci_vc:card_can_mbx.obj
 0001:00011b90       _CANPC_send_remote2_mbx    10012b90 f   xpccanac2pci_vc:card_can_mbx.obj
 0001:00011c10       _CANPC_send_remote_mbx     10012c10 f   xpccanac2pci_vc:card_can_mbx.obj
 0001:00011c90       _CANPC_send_remote_object2_mbx 10012c90 f   xpccanac2pci_vc:card_can_mbx.obj
 0001:00011d10       _CANPC_send_remote_object_mbx 10012d10 f   xpccanac2pci_vc:card_can_mbx.obj
 0001:00011d90       _CANPC_set_acceptance2_mbx 10012d90 f   xpccanac2pci_vc:card_can_mbx.obj
 0001:00011e40       _CANPC_set_acceptance_mbx  10012e40 f   xpccanac2pci_vc:card_can_mbx.obj
 0001:00011ef0       _CANPC_set_irq_number_mbx  10012ef0 f   xpccanac2pci_vc:card_can_mbx.obj
 0001:00011fa0       _CANPC_set_mode2_mbx       10012fa0 f   xpccanac2pci_vc:card_can_mbx.obj
 0001:00012020       _CANPC_set_mode_mbx        10013020 f   xpccanac2pci_vc:card_can_mbx.obj
 0001:000120a0       _CANPC_set_output_control2_mbx 100130a0 f   xpccanac2pci_vc:card_can_mbx.obj
 0001:00012170       _CANPC_set_output_control_mbx 10013170 f   xpccanac2pci_vc:card_can_mbx.obj
 0001:00012250       _CANPC_set_path_mb         10013250 f   xpccanac2pci_vc:card_can_mbx.obj
 0001:000122c0       _CANPC_set_trigger2_mbx    100132c0 f   xpccanac2pci_vc:card_can_mbx.obj
 0001:00012320       _CANPC_set_trigger_mbx     10013320 f   xpccanac2pci_vc:card_can_mbx.obj
 0001:00012380       _CANPC_start_chip_mbx      10013380 f   xpccanac2pci_vc:card_can_mbx.obj
 0001:00012440       _CANPC_supply_object_data2_mbx 10013440 f   xpccanac2pci_vc:card_can_mbx.obj
 0001:000124d0       _CANPC_supply_object_data_mbx 100134d0 f   xpccanac2pci_vc:card_can_mbx.obj
 0001:00012560       _CANPC_supply_rcv_object_data2_mbx 10013560 f   xpccanac2pci_vc:card_can_mbx.obj
 0001:000125f0       _CANPC_supply_rcv_object_data_mbx 100135f0 f   xpccanac2pci_vc:card_can_mbx.obj
 0001:00012680       _CANPC_synch_communication_mbx 10013680 f   xpccanac2pci_vc:card_can_mbx.obj
 0001:00012770       _CANPC_write_object2_mbx   10013770 f   xpccanac2pci_vc:card_can_mbx.obj
 0001:00012800       _CANPC_write_object_mbx    10013800 f   xpccanac2pci_vc:card_can_mbx.obj
 0001:00012890       _CANPC_write_signals1_mbx  10013890 f   xpccanac2pci_vc:card_can_mbx.obj
 0001:000129a0       _CANPC_write_signals2_mbx  100139a0 f   xpccanac2pci_vc:card_can_mbx.obj
 0001:00012ab0       _LoaderPrintMsgCallBack_mb 10013ab0 f   xpccanac2pci_vc:card_can_mbx.obj
 0001:00012ac0       _wait_for_handshake_mbx    10013ac0 f   xpccanac2pci_vc:card_can_mbx.obj
 0001:00012b40       _INIPC_close_board_mbx     10013b40 f   xpccanac2pci_vc:card_ini_mbx.obj
 0001:00012b70       _INIPC_initialize_board_mbx 10013b70 f   xpccanac2pci_vc:card_ini_mbx.obj
 0001:00012c80       _CS_EnableInterrupt_mbx    10013c80 f   xpccanac2pci_vc:devacc32_mbx.obj
 0001:00012ce0       _CS_InitCnfReg_mbx         10013ce0 f   xpccanac2pci_vc:devacc32_mbx.obj
 0001:00012d40       _CS_SetCanCardReset_mbx    10013d40 f   xpccanac2pci_vc:devacc32_mbx.obj
 0001:00012da0       _CloseCANDevice_mbx        10013da0 f   xpccanac2pci_vc:devacc32_mbx.obj
 0001:00012de0       _GetAssignedIRQ_Nr_mbx     10013de0 f   xpccanac2pci_vc:devacc32_mbx.obj
 0001:00012e20       _GetDeviceId_mbx           10013e20 f   xpccanac2pci_vc:devacc32_mbx.obj
 0001:00012e50       _GetDeviceLoadDataPointer_mbx 10013e50 f   xpccanac2pci_vc:devacc32_mbx.obj
 0001:00012e90       _GetSBNBufAppDataFileName_mbx 10013e90 f   xpccanac2pci_vc:devacc32_mbx.obj
 0001:00012ed0       _GetSBNBufAppDataPointer_mbx 10013ed0 f   xpccanac2pci_vc:devacc32_mbx.obj
 0001:00012f10       _GetSBNBufBootDataFileName_mbx 10013f10 f   xpccanac2pci_vc:devacc32_mbx.obj
 0001:00012f50       _GetSBNBufBootDataPointer_mbx 10013f50 f   xpccanac2pci_vc:devacc32_mbx.obj
 0001:00012f90       _GetSBNBufIniFileName_mbx  10013f90 f   xpccanac2pci_vc:devacc32_mbx.obj
 0001:00012fd0       _GetSBNBufLoadDataFileName_mbx 10013fd0 f   xpccanac2pci_vc:devacc32_mbx.obj
 0001:00013010       _GetSBNBufLoadDataPointer_mbx 10014010 f   xpccanac2pci_vc:devacc32_mbx.obj
 0001:00013050       _GetTimeStampType_mbx      10014050 f   xpccanac2pci_vc:devacc32_mbx.obj
 0001:00013090       _Init_devacc32             10014090 f   xpccanac2pci_vc:devacc32_mbx.obj
 0001:000131e0       _OpenCANDevice_mbx         100141e0 f   xpccanac2pci_vc:devacc32_mbx.obj
 0001:000132e0       _PnPFreePhysAccess_mbx     100142e0 f   xpccanac2pci_vc:devacc32_mbx.obj
 0001:00013320       _PnPGetPhysAccess_mbx      10014320 f   xpccanac2pci_vc:devacc32_mbx.obj
 0001:00013390       _ReturnErrorCode_mb        10014390 f   xpccanac2pci_vc:devacc32_mbx.obj
 0001:00013570       _pciEnableInterrupt_mbx    10014570 f   xpccanac2pci_vc:devacc32_mbx.obj
 0001:00013600       _pcireset_mbx              10014600 f   xpccanac2pci_vc:devacc32_mbx.obj
 0001:00013680       _GetAttributeMemoryPtr_mbx 10014680 f   xpccanac2pci_vc:loadcard_mbx.obj
 0001:00013690       _GetDPRAMPtr_mbx           10014690 f   xpccanac2pci_vc:loadcard_mbx.obj
 0001:000136a0       _GetINIData_mbx            100146a0 f   xpccanac2pci_vc:loadcard_mbx.obj
 0001:00013710       _GetINI_IRQ_Nr_mbx         10014710 f   xpccanac2pci_vc:loadcard_mbx.obj
 0001:00013720       _GetINI_Socket_Nr_mbx      10014720 f   xpccanac2pci_vc:loadcard_mbx.obj
 0001:00013ab0       _LCInitialization_mbx      10014ab0 f   xpccanac2pci_vc:loadcard_mbx.obj
 0001:00013f90       _LCSBNFileToDPRAM_mbx      10014f90 f   xpccanac2pci_vc:loadcard_mbx.obj
 0001:00014150       _LoadCard_mbx              10015150 f   xpccanac2pci_vc:loadcard_mbx.obj
 0001:000141e0       _ReadInitialization_mbx    100151e0 f   xpccanac2pci_vc:loadcard_mbx.obj
 0001:000141f0       _SetINIData_mbx            100151f0 f   xpccanac2pci_vc:loadcard_mbx.obj
 0001:00014230       _SetINI_IRQ_Nr_mbx         10015230 f   xpccanac2pci_vc:loadcard_mbx.obj
 0001:00014250       _fmemcmp_byte_mb           10015250 f   xpccanac2pci_vc:loadcard_mbx.obj
 0001:000142a0       _fmemcpy_byte_mb           100152a0 f   xpccanac2pci_vc:loadcard_mbx.obj
 0001:000142d0       _noprintf_mb               100152d0 f   xpccanac2pci_vc:loadcard_mbx.obj
 0001:000142e0       _ReadSBINRecordFromBuffer_mb 100152e0 f   xpccanac2pci_vc:sbn_buf_mbx.obj
 0001:000143c0       _restoreInterrupts         100153c0 f   xpcruntime:xpcPCFunctions.obj
 0001:000143d0       _rl32eGetTicksDouble       100153d0 f   xpcruntime:xpcPCFunctions.obj
 0001:00014440       _saveAndDisableInterrupts  10015440 f   xpcruntime:xpcPCFunctions.obj
 0001:00014460       _xPCSubtractTime           10015460 f   xpcruntime:xpcPCFunctions.obj
 0001:00014480       _xpcSubtractTime           10015480 f   xpcruntime:xpcPCFunctions.obj
 0001:00014530       _GetPCIDeviceFull          10015530 f   xpcruntime:xpcimports.obj
 0001:00014560       _ShowPCIDevice             10015560 f   xpcruntime:xpcimports.obj
 0001:00014bd0       _xpcGetPciConfigAtSlot     10015bd0 f   xpcruntime:xpcimports.obj
 0001:00014e60       _xpcInitProcs              10015e60 f   xpcruntime:xpcimports.obj
 0001:00015c00       _xpceuploadevent           10016c00 f   xpcruntime:xpcimports.obj
 0001:00015c01       __heap_alloc               10016c01 f i LIBCMT:malloc.obj
 0001:00015c3e       _malloc                    10016c3e f   LIBCMT:malloc.obj
 0001:00015cd0       __get_printf_count_output  10016cd0 f   LIBCMT:printf.obj
 0001:00015ce5       __printf_l                 10016ce5 f   LIBCMT:printf.obj
 0001:00015cfc       __printf_p                 10016cfc f   LIBCMT:printf.obj
 0001:00015d12       __printf_p_l               10016d12 f   LIBCMT:printf.obj
 0001:00015d29       __printf_s_l               10016d29 f   LIBCMT:printf.obj
 0001:00015d40       __set_printf_count_output  10016d40 f   LIBCMT:printf.obj
 0001:00015d68       _printf                    10016d68 f   LIBCMT:printf.obj
 0001:00015e14       _printf_s                  10016e14 f   LIBCMT:printf.obj
 0001:00015e2a       @__security_check_cookie@4 10016e2a f   LIBCMT:secchk.obj
 0001:00015e40       _fmod                      10016e40 f   LIBCMT:87fmod.obj
 0001:00015e4a       __CIfmod                   10016e4a f   LIBCMT:87fmod.obj
 0001:00015e70       _memset                    10016e70 f   LIBCMT:memset.obj
 0001:00015f00       __fpmath                   10016f00 f   LIBCMT:fpinit.obj
 0001:00015f17       ___setfflag                10016f17 f   LIBCMT:fpinit.obj
 0001:00015f2a       __cfltcvt_init             10016f2a f   LIBCMT:fpinit.obj
 0001:00015f8a       ___raise_securityfailure   10016f8a f   LIBCMT:gs_report.obj
 0001:00015fc7       ___report_gsfailure        10016fc7 f   LIBCMT:gs_report.obj
 0001:000160c0       ___report_rangecheckfailure 100170c0 f   LIBCMT:gs_report.obj
 0001:000160cc       ___report_securityfailure  100170cc f   LIBCMT:gs_report.obj
 0001:0001619a       ___report_securityfailureEx 1001719a f   LIBCMT:gs_report.obj
 0001:000162ae       ___copy_path_to_wide_string 100172ae f   LIBCMT:crt0dat.obj
 0001:0001635e       ___crtCorExitProcess       1001735e f   LIBCMT:crt0dat.obj
 0001:00016390       ___crtExitProcess          10017390 f   LIBCMT:crt0dat.obj
 0001:000163a6       ___freeCrtMemory           100173a6 f   LIBCMT:crt0dat.obj
 0001:000164ad       __amsg_exit                100174ad f   LIBCMT:crt0dat.obj
 0001:000164c9       __c_exit                   100174c9 f   LIBCMT:crt0dat.obj
 0001:000164d8       __cexit                    100174d8 f   LIBCMT:crt0dat.obj
 0001:000164e7       __cinit                    100174e7 f   LIBCMT:crt0dat.obj
 0001:00016578       __exit                     10017578 f   LIBCMT:crt0dat.obj
 0001:0001658c       __get_pgmptr               1001758c f   LIBCMT:crt0dat.obj
 0001:000165bb       __get_wpgmptr              100175bb f   LIBCMT:crt0dat.obj
 0001:000165ea       __init_pointers            100175ea f   LIBCMT:crt0dat.obj
 0001:0001663a       __initterm_e               1001763a f   LIBCMT:crt0dat.obj
 0001:0001665c       __lockexit                 1001765c f   LIBCMT:crt0dat.obj
 0001:00016665       __unlockexit               10017665 f   LIBCMT:crt0dat.obj
 0001:0001679d       _exit                      1001779d f   LIBCMT:crt0dat.obj
 0001:000167b1       _calloc                    100177b1 f   LIBCMT:calloc.obj
 0001:000167ef       _free                      100177ef f   LIBCMT:free.obj
 0001:00016827       _realloc                   10017827 f   LIBCMT:realloc.obj
 0001:000168e0       _memmove                   100178e0 f   LIBCMT:memmove.obj
 0001:00016f30       _strchr                    10017f30 f   LIBCMT:strchr.obj
 0001:00016f9e       ___from_strstr_to_strchr   10017f9e     LIBCMT:strchr.obj
 0001:00017060       _strncat                   10018060 f   LIBCMT:strncat.obj
 0001:000171a0       _strncpy                   100181a0 f   LIBCMT:strncpy.obj
 0001:000172c4       ___initstdio               100182c4 f   LIBCMT:_file.obj
 0001:00017337       ___endstdio                10018337 f   LIBCMT:_file.obj
 0001:0001735e       ___iob_func                1001835e f   LIBCMT:_file.obj
 0001:00017364       __lock_file                10018364 f   LIBCMT:_file.obj
 0001:000173a3       __lock_file2               100183a3 f   LIBCMT:_file.obj
 0001:000173d3       __unlock_file              100183d3 f   LIBCMT:_file.obj
 0001:0001740d       __unlock_file2             1001840d f   LIBCMT:_file.obj
 0001:0001743a       __fclose_nolock            1001843a f   LIBCMT:fclose.obj
 0001:000174a6       _fclose                    100184a6 f   LIBCMT:fclose.obj
 0001:0001751d       __fsopen                   1001851d f   LIBCMT:fopen.obj
 0001:000175e1       _fopen                     100185e1 f   LIBCMT:fopen.obj
 0001:000175f6       _fopen_s                   100185f6 f   LIBCMT:fopen.obj
 0001:0001763b       __fprintf_l                1001863b f   LIBCMT:fprintf.obj
 0001:00017655       __fprintf_p                10018655 f   LIBCMT:fprintf.obj
 0001:0001766e       __fprintf_p_l              1001866e f   LIBCMT:fprintf.obj
 0001:00017688       __fprintf_s_l              10018688 f   LIBCMT:fprintf.obj
 0001:000176a2       _fprintf                   100186a2 f   LIBCMT:fprintf.obj
 0001:000177bd       _fprintf_s                 100187bd f   LIBCMT:fprintf.obj
 0001:000177d6       __fread_nolock             100187d6 f   LIBCMT:fread.obj
 0001:000177f1       __fread_nolock_s           100187f1 f   LIBCMT:fread.obj
 0001:000179b4       _fread                     100189b4 f   LIBCMT:fread.obj
 0001:000179cf       _fread_s                   100189cf f   LIBCMT:fread.obj
 0001:00017a60       __fwrite_nolock            10018a60 f   LIBCMT:fwrite.obj
 0001:00017bb7       _fwrite                    10018bb7 f   LIBCMT:fwrite.obj
 0001:00017c35       __unlink                   10018c35 f   LIBCMT:unlink.obj
 0001:00017c3e       _remove                    10018c3e f   LIBCMT:unlink.obj
 0001:00017c7e       _rewind                    10018c7e f   LIBCMT:rewind.obj
 0001:00017d46       __scprintf                 10018d46 f   LIBCMT:sprintf.obj
 0001:00017d59       __scprintf_l               10018d59 f   LIBCMT:sprintf.obj
 0001:00017d70       __scprintf_p               10018d70 f   LIBCMT:sprintf.obj
 0001:00017d83       __scprintf_p_l             10018d83 f   LIBCMT:sprintf.obj
 0001:00017d9a       __snprintf_s               10018d9a f   LIBCMT:sprintf.obj
 0001:00017db9       __snprintf_s_l             10018db9 f   LIBCMT:sprintf.obj
 0001:00017dd9       __sprintf_l                10018dd9 f   LIBCMT:sprintf.obj
 0001:00017df3       __sprintf_p                10018df3 f   LIBCMT:sprintf.obj
 0001:00017e0f       __sprintf_p_l              10018e0f f   LIBCMT:sprintf.obj
 0001:00017e2c       __sprintf_s_l              10018e2c f   LIBCMT:sprintf.obj
 0001:00017e49       _sprintf                   10018e49 f   LIBCMT:sprintf.obj
 0001:00017ecb       _sprintf_s                 10018ecb f   LIBCMT:sprintf.obj
 0001:00017ee7       _ldexp                     10018ee7 f   LIBCMT:ldexp.obj
 0001:000180d0       _memcpy                    100190d0 f   LIBCMT:memcpy.obj
 0001:00018714       ___isa_available_init      10019714 f   LIBCMT:cpu_disp.obj
 0001:0001884d       __invoke_watson_if_error   1001984d f i LIBCMT:wassert.obj
 0001:0001886d       __wassert                  1001986d f   LIBCMT:wassert.obj
 0001:00018f0f       __CRT_INIT@12              10019f0f f   LIBCMT:dllcrt0.obj
 0001:0001907b       __DllMainCRTStartup@12     1001a07b f   LIBCMT:dllcrt0.obj
 0001:000191ac       ___DllXcptFilter           1001a1ac f   LIBCMT:dllcrt0.obj
 0001:000191d1       ?_query_new_handler@@YAP6AHI@ZXZ 1001a1d1 f   LIBCMT:handler.obj
 0001:000191de       ?_set_new_handler@@YAP6AHI@ZH@Z 1001a1de f   LIBCMT:handler.obj
 0001:000191e7       ?_set_new_handler@@YAP6AHI@ZP6AHI@Z@Z 1001a1e7 f   LIBCMT:handler.obj
 0001:0001921c       __callnewh                 1001a21c f   LIBCMT:handler.obj
 0001:00019242       __initp_heap_handler       1001a242 f   LIBCMT:handler.obj
 0001:0001924f       __FF_MSGBANNER             1001a24f f   LIBCMT:crt0msg.obj
 0001:00019288       __GET_RTERRMSG             1001a288 f   LIBCMT:crt0msg.obj
 0001:000192ac       __NMSG_WRITE               1001a2ac f   LIBCMT:crt0msg.obj
 0001:00019467       ___doserrno                1001a467 f   LIBCMT:dosmap.obj
 0001:0001947a       __dosmaperr                1001a47a f   LIBCMT:dosmap.obj
 0001:0001949b       __errno                    1001a49b f   LIBCMT:dosmap.obj
 0001:000194ae       __get_doserrno             1001a4ae f   LIBCMT:dosmap.obj
 0001:000194d1       __get_errno                1001a4d1 f   LIBCMT:dosmap.obj
 0001:000194f4       __get_errno_from_oserr     1001a4f4 f   LIBCMT:dosmap.obj
 0001:00019535       __set_doserrno             1001a535 f   LIBCMT:dosmap.obj
 0001:00019554       __set_errno                1001a554 f   LIBCMT:dosmap.obj
 0001:00019573       __get_heap_handle          1001a573 f   LIBCMT:heapinit.obj
 0001:00019579       __heap_init                1001a579 f   LIBCMT:heapinit.obj
 0001:0001958e       __heap_term                1001a58e f   LIBCMT:heapinit.obj
 0001:00019596       ?_invalid_parameter@@YAXPBG00II@Z 1001a596 f   LIBCMT:invarg.obj
 0001:0001959b       ?_invoke_watson@@YAXPBG00II@Z 1001a59b f   LIBCMT:invarg.obj
 0001:000195b3       __call_reportfault         1001a5b3 f   LIBCMT:invarg.obj
 0001:000196d6       __get_invalid_parameter_handler 1001a6d6 f   LIBCMT:invarg.obj
 0001:000196e3       __initp_misc_invarg        1001a6e3 f   LIBCMT:invarg.obj
 0001:000196f0       __invalid_parameter        1001a6f0 f   LIBCMT:invarg.obj
 0001:0001971b       __invalid_parameter_noinfo 1001a71b f   LIBCMT:invarg.obj
 0001:0001972b       __invalid_parameter_noinfo_noreturn 1001a72b f   LIBCMT:invarg.obj
 0001:00019746       __invoke_watson            1001a746 f   LIBCMT:invarg.obj
 0001:00019771       __set_invalid_parameter_handler 1001a771 f   LIBCMT:invarg.obj
 0001:00019796       __vprintf_l                1001a796 f   LIBCMT:vprintf.obj
 0001:000197b1       __vprintf_p                1001a7b1 f   LIBCMT:vprintf.obj
 0001:000197cb       __vprintf_p_l              1001a7cb f   LIBCMT:vprintf.obj
 0001:000197e6       __vprintf_s_l              1001a7e6 f   LIBCMT:vprintf.obj
 0001:00019801       _vprintf                   1001a801 f   LIBCMT:vprintf.obj
 0001:0001981b       _vprintf_helper            1001a81b f   LIBCMT:vprintf.obj
 0001:000198a4       _vprintf_s                 1001a8a4 f   LIBCMT:vprintf.obj
 0001:000198be       __ftbuf                    1001a8be f   LIBCMT:_sftbuf.obj
 0001:000198ef       __stbuf                    1001a8ef f   LIBCMT:_sftbuf.obj
 0001:00019995       ??0_LocaleUpdate@@QAE@PAUlocaleinfo_struct@@@Z 1001a995 f i LIBCMT:output.obj
 0001:00019a1d       ??1_LocaleUpdate@@QAE@XZ   1001aa1d f i LIBCMT:output.obj
 0001:00019a2b       ?GetLocaleT@_LocaleUpdate@@QAEPAUlocaleinfo_struct@@XZ 1001aa2b f i LIBCMT:output.obj
 0001:00019a2e       __output_l                 1001aa2e f   LIBCMT:output.obj
 0001:0001a5d2       _get_int64_arg             1001b5d2 f i LIBCMT:output.obj
 0001:0001a5e5       _get_int_arg               1001b5e5 f i LIBCMT:output.obj
 0001:0001a5f5       _get_short_arg             1001b5f5 f i LIBCMT:output.obj
 0001:0001a6f0       __SEH_prolog4              1001b6f0 f   LIBCMT:sehprolg4.obj
 0001:0001a735       __SEH_epilog4              1001b735 f   LIBCMT:sehprolg4.obj
 0001:0001a790       __except_handler4          1001b790 f   LIBCMT:chandler4.obj
 0001:0001a930       __cintrindisp2             1001b930 f   LIBCMT:87cdisp.obj
 0001:0001a96e       __cintrindisp1             1001b96e f   LIBCMT:87cdisp.obj
 0001:0001a9ab       __ctrandisp2               1001b9ab f   LIBCMT:87cdisp.obj
 0001:0001ab3a       __ctrandisp1               1001bb3a f   LIBCMT:87cdisp.obj
 0001:0001ab6d       __fload                    1001bb6d f   LIBCMT:87cdisp.obj
 0001:0001abb0       __trandisp1                1001bbb0 f   LIBCMT:87disp.obj
 0001:0001ac17       __trandisp2                1001bc17 f   LIBCMT:87disp.obj
 0001:0001aca3       __rttospopde               1001bca3     LIBCMT:87disp.obj
 0001:0001aca8       __rttospop                 1001bca8     LIBCMT:87disp.obj
 0001:0001acaa       __rtnospop                 1001bcaa     LIBCMT:87disp.obj
 0001:0001acac       __rttosnpop                1001bcac     LIBCMT:87disp.obj
 0001:0001acad       __rtnospopde               1001bcad     LIBCMT:87disp.obj
 0001:0001acb4       __rtzeropop                1001bcb4     LIBCMT:87disp.obj
 0001:0001acb6       __rtzeronpop               1001bcb6     LIBCMT:87disp.obj
 0001:0001acbb       __rtonepop                 1001bcbb     LIBCMT:87disp.obj
 0001:0001acbd       __rtonenpop                1001bcbd     LIBCMT:87disp.obj
 0001:0001acc2       __tosnan1                  1001bcc2     LIBCMT:87disp.obj
 0001:0001aced       __nosnan2                  1001bced     LIBCMT:87disp.obj
 0001:0001acef       __tosnan2                  1001bcef     LIBCMT:87disp.obj
 0001:0001ad17       __nan2                     1001bd17     LIBCMT:87disp.obj
 0001:0001ad56       __rtindfpop                1001bd56     LIBCMT:87disp.obj
 0001:0001ad58       __rtindfnpop               1001bd58     LIBCMT:87disp.obj
 0001:0001ad69       __rttosnpopde              1001bd69     LIBCMT:87disp.obj
 0001:0001ad73       __rtchsifneg               1001bd73     LIBCMT:87disp.obj
 0001:0001ad7a       __VEC_memset               1001bd7a f   LIBCMT:p4_memset.obj
 0001:0001ae42       ?strrchr@@YAPADPADH@Z      1001be42 f i LIBCMT:cvt.obj
 0001:0001ae4b       __cfltcvt                  1001be4b f   LIBCMT:cvt.obj
 0001:0001ae6c       __cfltcvt_l                1001be6c f   LIBCMT:cvt.obj
 0001:0001aef2       __cftoa                    1001bef2 f   LIBCMT:cvt.obj
 0001:0001af10       __cftoa_l                  1001bf10 f   LIBCMT:cvt.obj
 0001:0001b26a       __cftoe                    1001c26a f   LIBCMT:cvt.obj
 0001:0001b3d7       __cftoe_l                  1001c3d7 f   LIBCMT:cvt.obj
 0001:0001b4a3       __cftof                    1001c4a3 f   LIBCMT:cvt.obj
 0001:0001b5a8       __cftof_l                  1001c5a8 f   LIBCMT:cvt.obj
 0001:0001b667       __cftog                    1001c667 f   LIBCMT:cvt.obj
 0001:0001b685       __cftog_l                  1001c685 f   LIBCMT:cvt.obj
 0001:0001b782       __cropzeros                1001c782 f   LIBCMT:cvt.obj
 0001:0001b793       __cropzeros_l              1001c793 f   LIBCMT:cvt.obj
 0001:0001b811       __fassign                  1001c811 f   LIBCMT:cvt.obj
 0001:0001b829       __fassign_l                1001c829 f   LIBCMT:cvt.obj
 0001:0001b869       __forcdecpt                1001c869 f   LIBCMT:cvt.obj
 0001:0001b87a       __forcdecpt_l              1001c87a f   LIBCMT:cvt.obj
 0001:0001b8ec       __positive                 1001c8ec f   LIBCMT:cvt.obj
 0001:0001b92e       __setdefaultprecision      1001c92e f   LIBCMT:fp8.obj
 0001:0001b955       __initp_misc_cfltcvt_tab   1001c955 f   LIBCMT:cmiscdat.obj
 0001:0001b974       __crt_debugger_hook        1001c974 f   LIBCMT:dbghook.obj
 0001:0001b9b5       ___crtFlsAlloc             1001c9b5 f   LIBCMT:winapisupp.obj
 0001:0001b9c3       ___crtFlsFree              1001c9c3 f   LIBCMT:winapisupp.obj
 0001:0001b9d1       ___crtFlsGetValue          1001c9d1 f   LIBCMT:winapisupp.obj
 0001:0001b9df       ___crtFlsSetValue          1001c9df f   LIBCMT:winapisupp.obj
 0001:0001b9f0       ___crtGetShowWindowMode    1001c9f0 f   LIBCMT:winapisupp.obj
 0001:0001ba11       ___crtIsPackagedApp        1001ca11 f   LIBCMT:winapisupp.obj
 0001:0001ba5d       ___crtSetUnhandledExceptionFilter 1001ca5d f   LIBCMT:winapisupp.obj
 0001:0001ba6b       ___crtTerminateProcess     1001ca6b f   LIBCMT:winapisupp.obj
 0001:0001ba80       ___crtUnhandledException   1001ca80 f   LIBCMT:winapisupp.obj
 0001:0001ba96       __RTC_Initialize           1001ca96 f   LIBCMT:initsect.obj
 0001:0001bab6       __RTC_Terminate            1001cab6 f   LIBCMT:initsect.obj
 0001:0001bad6       __lock                     1001cad6 f   LIBCMT:mlock.obj
 0001:0001bb0a       __lockerr_exit             1001cb0a f   LIBCMT:mlock.obj
 0001:0001bb2a       __mtdeletelocks            1001cb2a f   LIBCMT:mlock.obj
 0001:0001bb7e       __mtinitlocknum            1001cb7e f   LIBCMT:mlock.obj
 0001:0001bc25       __mtinitlocks              1001cc25 f   LIBCMT:mlock.obj
 0001:0001bc5a       __unlock                   1001cc5a f   LIBCMT:mlock.obj
 0001:0001bc70       __FindPESection            1001cc70 f   LIBCMT:pesect.obj
 0001:0001bcc0       __IsNonwritableInCurrentImage 1001ccc0 f   LIBCMT:pesect.obj
 0001:0001bd80       __ValidateImageBase        1001cd80 f   LIBCMT:pesect.obj
 0001:0001bdb1       ___onexitinit              1001cdb1 f   LIBCMT:onexit.obj
 0001:0001bde0       __onexit                   1001cde0 f   LIBCMT:onexit.obj
 0001:0001bed6       _atexit                    1001ced6 f   LIBCMT:onexit.obj
 0001:0001beeb       __calloc_crt               1001ceeb f   LIBCMT:crtheap.obj
 0001:0001bf35       __malloc_crt               1001cf35 f   LIBCMT:crtheap.obj
 0001:0001bf7e       __realloc_crt              1001cf7e f   LIBCMT:crtheap.obj
 0001:0001bfca       __recalloc_crt             1001cfca f   LIBCMT:crtheap.obj
 0001:0001c01a       __set_malloc_crt_max_wait  1001d01a f   LIBCMT:crtheap.obj
 0001:0001c02d       _wait_a_bit                1001d02d f i LIBCMT:crtheap.obj
 0001:0001c051       ?_inconsistency@@YAXXZ     1001d051 f   LIBCMT:hooks.obj
 0001:0001c089       ?terminate@@YAXXZ          1001d089 f   LIBCMT:hooks.obj
 0001:0001c0bd       ?unexpected@@YAXXZ         1001d0bd f   LIBCMT:hooks.obj
 0001:0001c0d0       __initp_eh_hooks           1001d0d0 f   LIBCMT:hooks.obj
 0001:0001c0e1       ___getlocaleinfo           1001d0e1 f   LIBCMT:inithelp.obj
 0001:0001c2b8       __initp_misc_purevirt      1001d2b8 f   LIBCMT:inithelp.obj
 0001:0001c2c5       __initp_misc_rand_s        1001d2c5 f   LIBCMT:rand_s.obj
 0001:0001c2d2       _rand_s                    1001d2d2 f   LIBCMT:rand_s.obj
 0001:0001c3e0       ___fpecode                 1001d3e0 f   LIBCMT:winsig.obj
 0001:0001c3e9       ___get_sigabrt             1001d3e9 f   LIBCMT:winsig.obj
 0001:0001c3f6       ___pxcptinfoptrs           1001d3f6 f   LIBCMT:winsig.obj
 0001:0001c3ff       __initp_misc_winsig        1001d3ff f   LIBCMT:winsig.obj
 0001:0001c4b4       _raise                     1001d4b4 f   LIBCMT:winsig.obj
 0001:0001c6a5       _signal                    1001d6a5 f   LIBCMT:winsig.obj
 0001:0001c8f7       ___initmbctable            1001d8f7 f   LIBCMT:mbctype.obj
 0001:0001cbb2       ___updatetmbcinfo          1001dbb2 f   LIBCMT:mbctype.obj
 0001:0001cc57       __getmbcp                  1001dc57 f   LIBCMT:mbctype.obj
 0001:0001cc86       __setmbcp                  1001dc86 f   LIBCMT:mbctype.obj
 0001:0001ce34       __setmbcp_nolock           1001de34 f   LIBCMT:mbctype.obj
 0001:0001d029       __calloc_impl              1001e029 f   LIBCMT:calloc_impl.obj
 0001:0001d0a3       __fcloseall                1001e0a3 f   LIBCMT:closeall.obj
 0001:0001d140       __fflush_nolock            1001e140 f   LIBCMT:fflush.obj
 0001:0001d186       __flush                    1001e186 f   LIBCMT:fflush.obj
 0001:0001d1ea       __flushall                 1001e1ea f   LIBCMT:fflush.obj
 0001:0001d1f3       _fflush                    1001e1f3 f   LIBCMT:fflush.obj
 0001:0001d32c       __fileno                   1001e32c f   LIBCMT:fileno.obj
 0001:0001d350       __close                    1001e350 f   LIBCMT:close.obj
 0001:0001d427       __close_nolock             1001e427 f   LIBCMT:close.obj
 0001:0001d4cf       __freebuf                  1001e4cf f   LIBCMT:_freebuf.obj
 0001:0001d4ff       __getstream                1001e4ff f   LIBCMT:stream.obj
 0001:0001d617       __openfile                 1001e617 f   LIBCMT:_open.obj
 0001:0001d890       __local_unwind4            1001e890 f   LIBCMT:exsup4.obj
 0001:0001d966       __seh_longjmp_unwind4@4    1001e966 f   LIBCMT:exsup4.obj
 0001:0001d982       @_EH4_CallFilterFunc@8     1001e982 f   LIBCMT:exsup4.obj
 0001:0001d999       @_EH4_TransferToHandler@8  1001e999 f   LIBCMT:exsup4.obj
 0001:0001d9b2       @_EH4_GlobalUnwind2@8      1001e9b2 f   LIBCMT:exsup4.obj
 0001:0001d9cb       @_EH4_LocalUnwind@16       1001e9cb f   LIBCMT:exsup4.obj
 0001:0001d9e2       __vfprintf_l               1001e9e2 f   LIBCMT:vfprintf.obj
 0001:0001da00       __vfprintf_p               1001ea00 f   LIBCMT:vfprintf.obj
 0001:0001da1d       __vfprintf_p_l             1001ea1d f   LIBCMT:vfprintf.obj
 0001:0001da3b       __vfprintf_s_l             1001ea3b f   LIBCMT:vfprintf.obj
 0001:0001da59       _vfprintf                  1001ea59 f   LIBCMT:vfprintf.obj
 0001:0001da76       _vfprintf_helper           1001ea76 f   LIBCMT:vfprintf.obj
 0001:0001db90       _vfprintf_s                1001eb90 f   LIBCMT:vfprintf.obj
 0001:0001dbad       __ioinit                   1001ebad f   LIBCMT:ioinit.obj
 0001:0001dbc9       __ioinit0                  1001ebc9 f   LIBCMT:ioinit.obj
 0001:0001dbe8       __ioinitCallback@12        1001ebe8 f   LIBCMT:ioinit.obj
 0001:0001deb5       __ioterm                   1001eeb5 f   LIBCMT:ioinit.obj
 0001:0001df07       __filbuf                   1001ef07 f   LIBCMT:_filbuf.obj
 0001:0001e035       _memcpy_s                  1001f035 f   LIBCMT:memcpy_s.obj
 0001:0001e0b4       __read                     1001f0b4 f   LIBCMT:read.obj
 0001:0001e1c9       __read_nolock              1001f1c9 f   LIBCMT:read.obj
 0001:0001e963       __flsbuf                   1001f963 f   LIBCMT:_flsbuf.obj
 0001:0001eabf       __write                    1001fabf f   LIBCMT:write.obj
 0001:0001ebae       __write_nolock             1001fbae f   LIBCMT:write.obj
 0001:0001f42a       __wremove                  1002042a f   LIBCMT:wunlink.obj
 0001:0001f458       __wunlink                  10020458 f   LIBCMT:wunlink.obj
 0001:0001f461       __lseek                    10020461 f   LIBCMT:lseek.obj
 0001:0001f550       __lseek_nolock             10020550 f   LIBCMT:lseek.obj
 0001:0001f5c2       __vscprintf                100205c2 f   LIBCMT:vsprintf.obj
 0001:0001f5dc       __vscprintf_helper         100205dc f   LIBCMT:vsprintf.obj
 0001:0001f636       __vscprintf_l              10020636 f   LIBCMT:vsprintf.obj
 0001:0001f651       __vscprintf_p              10020651 f   LIBCMT:vsprintf.obj
 0001:0001f66b       __vscprintf_p_l            1002066b f   LIBCMT:vsprintf.obj
 0001:0001f686       __vsprintf_l               10020686 f   LIBCMT:vsprintf.obj
 0001:0001f708       _vsprintf                  10020708 f   LIBCMT:vsprintf.obj
 0001:0001f720       __vsnprintf_c              10020720 f   LIBCMT:vsnprnc.obj
 0001:0001f747       __vsnprintf_c_l            10020747 f   LIBCMT:vsnprnc.obj
 0001:0001f76f       __vsnprintf_helper         1002076f f   LIBCMT:vsnprnc.obj
 0001:0001f837       __vsnprintf_s              10020837 f   LIBCMT:vsnprnc.obj
 0001:0001f855       __vsnprintf_s_l            10020855 f   LIBCMT:vsnprnc.obj
 0001:0001f950       __vsprintf_p               10020950 f   LIBCMT:vsnprnc.obj
 0001:0001f977       __vsprintf_p_l             10020977 f   LIBCMT:vsnprnc.obj
 0001:0001f99f       __vsprintf_s_l             1002099f f   LIBCMT:vsnprnc.obj
 0001:0001fa14       _vsprintf_s                10020a14 f   LIBCMT:vsnprnc.obj
 0001:0001fa2f       __chgsign                  10020a2f f   LIBCMT:ieeemisc.obj
 0001:0001fa5a       __copysign                 10020a5a f   LIBCMT:ieeemisc.obj
 0001:0001fa80       __finite                   10020a80 f   LIBCMT:ieeemisc.obj
 0001:0001fa98       __fpclass                  10020a98 f   LIBCMT:ieeemisc.obj
 0001:0001fb34       __isnan                    10020b34 f   LIBCMT:ieeemisc.obj
 0001:0001fb68       __logb                     10020b68 f   LIBCMT:ieeemisc.obj
 0001:0001fc45       __nextafter                10020c45 f   LIBCMT:ieeemisc.obj
 0001:0001fee3       __scalb                    10020ee3 f   LIBCMT:ieeemisc.obj
 0001:0001fefb       __add_exp                  10020efb f   LIBCMT:util.obj
 0001:0001ff28       __decomp                   10020f28 f   LIBCMT:util.obj
 0001:0001fffa       __get_exp                  10020ffa f   LIBCMT:util.obj
 0001:00020011       __set_bexp                 10021011 f   LIBCMT:util.obj
 0001:00020036       __set_exp                  10021036 f   LIBCMT:util.obj
 0001:00020061       __sptype                   10021061 f   LIBCMT:util.obj
 0001:000200bd       __errcode                  100210bd f   LIBCMT:fpexcept.obj
 0001:000200ef       __except1                  100210ef f   LIBCMT:fpexcept.obj
 0001:000201b7       __except2                  100211b7 f   LIBCMT:fpexcept.obj
 0001:000202b7       __handle_exc               100212b7 f   LIBCMT:fpexcept.obj
 0001:00020493       __handle_qnan1             10021493 f   LIBCMT:fpexcept.obj
 0001:000204e3       __handle_qnan2             100214e3 f   LIBCMT:fpexcept.obj
 0001:00020543       __raise_exc                10021543 f   LIBCMT:fpexcept.obj
 0001:00020564       __raise_exc_ex             10021564 f   LIBCMT:fpexcept.obj
 0001:00020849       __raise_excf               10021849 f   LIBCMT:fpexcept.obj
 0001:0002086a       __set_errno_from_matherr   1002186a f   LIBCMT:fpexcept.obj
 0001:00020897       __umatherr                 10021897 f   LIBCMT:fpexcept.obj
 0001:00020935       ___clrfp_sse2              10021935 f   LIBCMT:fpctrl.obj
 0001:00020956       ___ctrlfp_sse2             10021956 f   LIBCMT:fpctrl.obj
 0001:0002098f       ___fclrf_sse2              1002198f f   LIBCMT:fpctrl.obj
 0001:000209aa       ___get_fpsr_sse2           100219aa f   LIBCMT:fpctrl.obj
 0001:000209c4       ___set_fpsr_sse2           100219c4 f   LIBCMT:fpctrl.obj
 0001:00020a3a       ___set_statfp_sse2         10021a3a f   LIBCMT:fpctrl.obj
 0001:00020a53       ___statfp_sse2             10021a53 f   LIBCMT:fpctrl.obj
 0001:00020a68       __clrfp                    10021a68 f   LIBCMT:fpctrl.obj
 0001:00020a77       __ctrlfp                   10021a77 f   LIBCMT:fpctrl.obj
 0001:00020aa0       __set_statfp               10021aa0 f   LIBCMT:fpctrl.obj
 0001:00020af6       __statfp                   10021af6 f   LIBCMT:fpctrl.obj
 0001:00020b04       _wcscat_s                  10021b04 f   LIBCMT:wcscat_s.obj
 0001:00020b70       _wcscpy_s                  10021b70 f   LIBCMT:wcscpy_s.obj
 0001:00020bcc       _wcslen                    10021bcc f   LIBCMT:wcslen.obj
 0001:00020be5       _wcsncat_s                 10021be5 f   LIBCMT:wcsncat_s.obj
 0001:00020cb3       __set_abort_behavior       10021cb3 f   LIBCMT:abort.obj
 0001:00020cd2       _abort                     10021cd2 f   LIBCMT:abort.obj
 0001:00020d15       ___set_app_type            10021d15 f   LIBCMT:errmode.obj
 0001:00020d22       __set_error_mode           10021d22 f   LIBCMT:errmode.obj
 0001:00020e7c       __i64tow_s                 10021e7c f   LIBCMT:xtows.obj
 0001:00020ead       __itow_s                   10021ead f   LIBCMT:xtows.obj
 0001:00020ed6       __ltow_s                   10021ed6 f   LIBCMT:xtows.obj
 0001:00020f00       __ui64tow_s                10021f00 f   LIBCMT:xtows.obj
 0001:00020f1b       __ultow_s                  10021f1b f   LIBCMT:xtows.obj
 0001:00021026       _setvbuf                   10022026 f   LIBCMT:setvbuf.obj
 0001:0002112c       __fwprintf_l               1002212c f   LIBCMT:fwprintf.obj
 0001:00021146       __fwprintf_p               10022146 f   LIBCMT:fwprintf.obj
 0001:0002115f       __fwprintf_p_l             1002215f f   LIBCMT:fwprintf.obj
 0001:00021179       __fwprintf_s_l             10022179 f   LIBCMT:fwprintf.obj
 0001:00021193       _fwprintf                  10022193 f   LIBCMT:fwprintf.obj
 0001:00021224       _fwprintf_s                10022224 f   LIBCMT:fwprintf.obj
 0001:0002123d       __vsnwprintf_s             1002223d f   LIBCMT:vswprnc.obj
 0001:0002125b       __vsnwprintf_s_l           1002225b f   LIBCMT:vswprnc.obj
 0001:0002135a       __vswprintf_c              1002235a f   LIBCMT:vswprnc.obj
 0001:00021381       __vswprintf_c_l            10022381 f   LIBCMT:vswprnc.obj
 0001:000213a9       __vswprintf_helper         100223a9 f   LIBCMT:vswprnc.obj
 0001:000214a2       __vswprintf_p              100224a2 f   LIBCMT:vswprnc.obj
 0001:000214c9       __vswprintf_p_l            100224c9 f   LIBCMT:vswprnc.obj
 0001:000214f1       __vswprintf_s_l            100224f1 f   LIBCMT:vswprnc.obj
 0001:00021568       _vswprintf_s               10022568 f   LIBCMT:vswprnc.obj
 0001:00021583       ___crtMessageBoxW          10022583 f   LIBCMT:crtmboxw.obj
 0001:00021765       ___crtMessageBoxWaitThreadW@4 10022765 f   LIBCMT:crtmboxw.obj
 0001:00021783       __XcptFilter               10022783 f   LIBCMT:winxfltr.obj
 0001:000218de       ___CppXcptFilter           100228de f   LIBCMT:winxfltr.obj
 0001:00021930       ___get_flsindex            10022930 f   LIBCMT:tidtable.obj
 0001:00021936       ___threadhandle            10022936 f   LIBCMT:tidtable.obj
 0001:0002193c       ___threadid                1002293c f   LIBCMT:tidtable.obj
 0001:00021942       __freefls@4                10022942 f   LIBCMT:tidtable.obj
 0001:00021a79       __freeptd                  10022a79 f   LIBCMT:tidtable.obj
 0001:00021aaf       __getptd                   10022aaf f   LIBCMT:tidtable.obj
 0001:00021ac7       __getptd_noexit            10022ac7 f   LIBCMT:tidtable.obj
 0001:00021b36       __initptd                  10022b36 f   LIBCMT:tidtable.obj
 0001:00021be2       __mtinit                   10022be2 f   LIBCMT:tidtable.obj
 0001:00021c58       __mtterm                   10022c58 f   LIBCMT:tidtable.obj
 0001:00021c75       __set_pgmptr               10022c75 f i LIBCMT:stdargv.obj
 0001:00021c82       __setargv                  10022c82 f   LIBCMT:stdargv.obj
 0001:00021eaf       __setenvp                  10022eaf f   LIBCMT:stdenvp.obj
 0001:00021f90       ___security_init_cookie    10022f90 f   LIBCMT:gs_support.obj
 0001:0002202a       ___crtGetEnvironmentStringsA 1002302a f   LIBCMT:a_env.obj
 0001:000220c0       _strlen                    100230c0 f   LIBCMT:strlen.obj
 0001:0002214b       _wcsncpy_s                 1002314b f   LIBCMT:wcsncpy_s.obj
 0001:00022209       __output_s_l               10023209 f   LIBCMT:outputs.obj
 0001:00022eaf       __output_p_l               10023eaf f   LIBCMT:outputp.obj
 0001:00024223       __validate_param_reuseA    10025223 f   LIBCMT:outputp.obj
 0001:00024359       _get_crtdouble_arg         10025359 f i LIBCMT:outputp.obj
 0001:00024456       __isatty                   10025456 f   LIBCMT:isatty.obj
 0001:000244ba       ___addlocaleref            100254ba f   LIBCMT:localref.obj
 0001:0002454a       ___freetlocinfo            1002554a f   LIBCMT:localref.obj
 0001:000246a4       ___removelocaleref         100256a4 f   LIBCMT:localref.obj
 0001:0002473f       ___updatetlocinfo          1002573f f   LIBCMT:localref.obj
 0001:000247bb       __updatetlocinfoEx_nolock  100257bb f   LIBCMT:localref.obj
 0001:00024806       ___iswcsym                 10025806 f i LIBCMT:_wctype.obj
 0001:0002482a       ___iswcsymf                1002582a f i LIBCMT:_wctype.obj
 0001:0002484e       __isleadbyte_l             1002584e f i LIBCMT:_wctype.obj
 0001:00024884       __iswalnum_l               10025884 f i LIBCMT:_wctype.obj
 0001:00024898       __iswalpha_l               10025898 f i LIBCMT:_wctype.obj
 0001:000248ac       __iswcntrl_l               100258ac f i LIBCMT:_wctype.obj
 0001:000248bd       __iswcsym_l                100258bd f i LIBCMT:_wctype.obj
 0001:000248e1       __iswcsymf_l               100258e1 f i LIBCMT:_wctype.obj
 0001:00024905       __iswdigit_l               10025905 f i LIBCMT:_wctype.obj
 0001:00024916       __iswgraph_l               10025916 f i LIBCMT:_wctype.obj
 0001:0002492a       __iswlower_l               1002592a f i LIBCMT:_wctype.obj
 0001:0002493b       __iswprint_l               1002593b f i LIBCMT:_wctype.obj
 0001:0002494f       __iswpunct_l               1002594f f i LIBCMT:_wctype.obj
 0001:00024960       __iswspace_l               10025960 f i LIBCMT:_wctype.obj
 0001:00024971       __iswupper_l               10025971 f i LIBCMT:_wctype.obj
 0001:00024982       __iswxdigit_l              10025982 f i LIBCMT:_wctype.obj
 0001:00024996       _isleadbyte                10025996 f i LIBCMT:_wctype.obj
 0001:000249a7       _iswalnum                  100259a7 f i LIBCMT:_wctype.obj
 0001:000249bb       _iswalpha                  100259bb f i LIBCMT:_wctype.obj
 0001:000249cf       _iswascii                  100259cf f i LIBCMT:_wctype.obj
 0001:000249e1       _iswcntrl                  100259e1 f i LIBCMT:_wctype.obj
 0001:000249f2       _iswdigit                  100259f2 f i LIBCMT:_wctype.obj
 0001:00024a03       _iswgraph                  10025a03 f i LIBCMT:_wctype.obj
 0001:00024a17       _iswlower                  10025a17 f i LIBCMT:_wctype.obj
 0001:00024a28       _iswprint                  10025a28 f i LIBCMT:_wctype.obj
 0001:00024a3c       _iswpunct                  10025a3c f i LIBCMT:_wctype.obj
 0001:00024a4d       _iswspace                  10025a4d f i LIBCMT:_wctype.obj
 0001:00024a5e       _iswupper                  10025a5e f i LIBCMT:_wctype.obj
 0001:00024a6f       _iswxdigit                 10025a6f f i LIBCMT:_wctype.obj
 0001:00024a83       __wctomb_l                 10025a83 f   LIBCMT:wctomb.obj
 0001:00024ad0       __wctomb_s_l               10025ad0 f   LIBCMT:wctomb.obj
 0001:00024bf2       _wctomb                    10025bf2 f   LIBCMT:wctomb.obj
 0001:00024c23       _wctomb_s                  10025c23 f   LIBCMT:wctomb.obj
 0001:00024c40       __aulldvrm                 10025c40 f   LIBCMT:ulldvrm.obj
 0001:00024cd5       __87except                 10025cd5 f   LIBCMT:87except.obj
 0001:00024dde       ___isascii                 10025dde f i LIBCMT:_ctype.obj
 0001:00024dee       ___iscsym                  10025dee f i LIBCMT:_ctype.obj
 0001:00024e0e       ___iscsymf                 10025e0e f i LIBCMT:_ctype.obj
 0001:00024e2b       ___toascii                 10025e2b f i LIBCMT:_ctype.obj
 0001:00024e36       __isalnum_l                10025e36 f i LIBCMT:_ctype.obj
 0001:00024e8c       __isalpha_l                10025e8c f i LIBCMT:_ctype.obj
 0001:00024ee2       __iscntrl_l                10025ee2 f i LIBCMT:_ctype.obj
 0001:00024f32       __iscsym_l                 10025f32 f i LIBCMT:_ctype.obj
 0001:00024f53       __iscsymf_l                10025f53 f i LIBCMT:_ctype.obj
 0001:00024f74       __isdigit_l                10025f74 f i LIBCMT:_ctype.obj
 0001:00024fc4       __isgraph_l                10025fc4 f i LIBCMT:_ctype.obj
 0001:0002501a       __islower_l                1002601a f i LIBCMT:_ctype.obj
 0001:0002506a       __isprint_l                1002606a f i LIBCMT:_ctype.obj
 0001:000250c0       __ispunct_l                100260c0 f i LIBCMT:_ctype.obj
 0001:00025110       __isspace_l                10026110 f i LIBCMT:_ctype.obj
 0001:00025160       __isupper_l                10026160 f i LIBCMT:_ctype.obj
 0001:000251b0       __isxdigit_l               100261b0 f i LIBCMT:_ctype.obj
 0001:00025206       _isalnum                   10026206 f i LIBCMT:_ctype.obj
 0001:00025233       _isalpha                   10026233 f i LIBCMT:_ctype.obj
 0001:00025260       _iscntrl                   10026260 f i LIBCMT:_ctype.obj
 0001:0002528b       _isdigit                   1002628b f i LIBCMT:_ctype.obj
 0001:000252b6       _isgraph                   100262b6 f i LIBCMT:_ctype.obj
 0001:000252e3       _islower                   100262e3 f i LIBCMT:_ctype.obj
 0001:0002530e       _isprint                   1002630e f i LIBCMT:_ctype.obj
 0001:0002533b       _ispunct                   1002633b f i LIBCMT:_ctype.obj
 0001:00025366       _isspace                   10026366 f i LIBCMT:_ctype.obj
 0001:00025391       _isupper                   10026391 f i LIBCMT:_ctype.obj
 0001:000253bc       _isxdigit                  100263bc f i LIBCMT:_ctype.obj
 0001:000253e9       __tolower                  100263e9 f   LIBCMT:tolower.obj
 0001:000253f4       __tolower_l                100263f4 f   LIBCMT:tolower.obj
 0001:00025535       _tolower                   10026535 f   LIBCMT:tolower.obj
 0001:00025561       _strcpy_s                  10026561 f   LIBCMT:strcpy_s.obj
 0001:000255c0       _strrchr                   100265c0 f   LIBCMT:strrchr.obj
 0001:000256f7       __fptostr                  100266f7 f   LIBCMT:_fptostr.obj
 0001:000257a7       __atodbl                   100267a7 f   LIBCMT:atodbl.obj
 0001:000257bc       __atodbl_l                 100267bc f   LIBCMT:atodbl.obj
 0001:00025848       __atoflt                   10026848 f   LIBCMT:atodbl.obj
 0001:0002585d       __atoflt_l                 1002685d f   LIBCMT:atodbl.obj
 0001:000258e9       __atoldbl                  100268e9 f   LIBCMT:atodbl.obj
 0001:000258fe       __atoldbl_l                100268fe f   LIBCMT:atodbl.obj
 0001:0002598b       ___dtold                   1002698b f   LIBCMT:cfout.obj
 0001:00025a51       __fltout2                  10026a51 f   LIBCMT:cfout.obj
 0001:00025ae0       __alldvrm                  10026ae0 f   LIBCMT:lldvrm.obj
 0001:00025bc0       __aullshr                  10026bc0 f   LIBCMT:ullshr.obj
 0001:00025bdf       __get_output_format        10026bdf f   LIBCMT:outputformat.obj
 0001:00025be5       __set_output_format        10026be5 f   LIBCMT:outputformat.obj
 0001:00025c17       __controlfp_s              10026c17 f   LIBCMT:contrlfp.obj
 0001:00025c74       __fptrap                   10026c74 f   LIBCMT:crt0fp.obj
 0001:00025c7d       __msize                    10026c7d f   LIBCMT:msize.obj
 0001:00025cae       __recalloc                 10026cae f   LIBCMT:recalloc.obj
 0001:00025d17       _strncpy_s                 10026d17 f   LIBCMT:strncpy_s.obj
 0001:00025e93       __MarkAllocaS              10026e93 f i LIBCMT:a_loc.obj
 0001:00025ea7       ___crtGetLocaleInfoA       10026ea7 f   LIBCMT:a_loc.obj
 0001:00025edf       __freea                    10026edf f i LIBCMT:a_loc.obj
 0001:00025efd       ___crtCompareStringEx      10026efd f   LIBCMT:winapinls.obj
 0001:00025f1f       ___crtEnumSystemLocalesEx  10026f1f f   LIBCMT:winapinls.obj
 0001:00025f35       ___crtGetDateFormatEx      10026f35 f   LIBCMT:winapinls.obj
 0001:00025f54       ___crtGetLocaleInfoEx      10026f54 f   LIBCMT:winapinls.obj
 0001:00025f6b       ___crtGetTimeFormatEx      10026f6b f   LIBCMT:winapinls.obj
 0001:00025f88       ___crtGetUserDefaultLocaleName 10026f88 f   LIBCMT:winapinls.obj
 0001:00025f99       ___crtIsValidLocaleName    10026f99 f   LIBCMT:winapinls.obj
 0001:00025fa7       ___crtLCMapStringEx        10026fa7 f   LIBCMT:winapinls.obj
 0001:000261d2       ___crtLCMapStringA         100271d2 f   LIBCMT:a_map.obj
 0001:00026302       ___crtGetStringTypeA       10027302 f   LIBCMT:a_str.obj
 0001:00026340       __commit                   10027340 f   LIBCMT:commit.obj
 0001:00026437       ___lock_fhandle            10027437 f   LIBCMT:osfinfo.obj
 0001:000264c3       __alloc_osfhnd             100274c3 f   LIBCMT:osfinfo.obj
 0001:00026672       __free_osfhnd              10027672 f   LIBCMT:osfinfo.obj
 0001:000266f8       __get_osfhandle            100276f8 f   LIBCMT:osfinfo.obj
 0001:0002676a       __open_osfhandle           1002776a f   LIBCMT:osfinfo.obj
 0001:00026880       __set_osfhnd               10027880 f   LIBCMT:osfinfo.obj
 0001:00026902       __unlock_fhandle           10027902 f   LIBCMT:osfinfo.obj
 0001:00026928       __open                     10027928 f   LIBCMT:open.obj
 0001:000269d5       __sopen                    100279d5 f   LIBCMT:open.obj
 0001:00026a06       __sopen_helper             10027a06 f   LIBCMT:open.obj
 0001:00026acd       __sopen_nolock             10027acd f   LIBCMT:open.obj
 0001:00026b19       __sopen_s                  10027b19 f   LIBCMT:open.obj
 0001:00026b37       __mbsnbcmp                 10027b37 f   LIBCMT:mbsnbcmp.obj
 0001:00026b4f       __mbsnbcmp_l               10027b4f f   LIBCMT:mbsnbcmp.obj
 0001:00026c64       __mbsnbicmp                10027c64 f   LIBCMT:mbsnbicm.obj
 0001:00026c7c       __mbsnbicmp_l              10027c7c f   LIBCMT:mbsnbicm.obj
 0001:00026e40       __global_unwind2           10027e40 f   LIBCMT:exsup.obj
 0001:00026ea5       __local_unwind2            10027ea5 f   LIBCMT:exsup.obj
 0001:00026f29       __abnormal_termination     10027f29 f   LIBCMT:exsup.obj
 0001:00026f4c       __NLG_Notify1              10027f4c f   LIBCMT:exsup.obj
 0001:00026f55       __NLG_Notify               10027f55 f   LIBCMT:exsup.obj
 0001:00026f6c       __NLG_Dispatch             10027f6c     LIBCMT:exsup.obj
 0001:00026f6c       __NLG_Dispatch2            10027f6c     LIBCMT:exsup.obj
 0001:00026f74       __NLG_Call                 10027f74 f   LIBCMT:exsup.obj
 0001:00026f76       __NLG_Return2              10027f76     LIBCMT:exsup.obj
 0001:00026f77       __getbuf                   10027f77 f   LIBCMT:_getbuf.obj
 0001:00026fbd       __lseeki64                 10027fbd f   LIBCMT:lseeki64.obj
 0001:000270c6       __lseeki64_nolock          100280c6 f   LIBCMT:lseeki64.obj
 0001:00027137       __mbtowc_l                 10028137 f   LIBCMT:mbtowc.obj
 0001:0002722a       _mbtowc                    1002822a f   LIBCMT:mbtowc.obj
 0001:00027242       __putwch                   10028242 f   LIBCMT:putwch.obj
 0001:0002728a       __putwch_nolock            1002828a f   LIBCMT:putwch.obj
 0001:000272d0       __chkstk                   100282d0 f   LIBCMT:chkstk.obj
 0001:000272d0       __alloca_probe             100282d0     LIBCMT:chkstk.obj
 0001:000272fb       __matherr                  100282fb f   LIBCMT:matherr.obj
 0001:000272fe       __vfwprintf_l              100282fe f   LIBCMT:vfwprint.obj
 0001:0002731c       __vfwprintf_p              1002831c f   LIBCMT:vfwprint.obj
 0001:00027339       __vfwprintf_p_l            10028339 f   LIBCMT:vfwprint.obj
 0001:00027357       __vfwprintf_s_l            10028357 f   LIBCMT:vfwprint.obj
 0001:00027375       _vfwprintf                 10028375 f   LIBCMT:vfwprint.obj
 0001:00027392       _vfwprintf_helper          10028392 f   LIBCMT:vfwprint.obj
 0001:00027421       _vfwprintf_s               10028421 f   LIBCMT:vfwprint.obj
 0001:0002743e       __woutput_l                1002843e f   LIBCMT:woutput.obj
 0001:00028141       __woutput_s_l              10029141 f   LIBCMT:woutputs.obj
 0001:00028e78       __validate_param_reuseW    10029e78 f   LIBCMT:woutputp.obj
 0001:00028fee       __woutput_p_l              10029fee f   LIBCMT:woutputp.obj
 0001:0002a423       __ismbbalnum               1002b423 f   LIBCMT:ismbbyte.obj
 0001:0002a43c       __ismbbalnum_l             1002b43c f   LIBCMT:ismbbyte.obj
 0001:0002a456       __ismbbalpha               1002b456 f   LIBCMT:ismbbyte.obj
 0001:0002a46f       __ismbbalpha_l             1002b46f f   LIBCMT:ismbbyte.obj
 0001:0002a489       __ismbbgraph               1002b489 f   LIBCMT:ismbbyte.obj
 0001:0002a4a2       __ismbbgraph_l             1002b4a2 f   LIBCMT:ismbbyte.obj
 0001:0002a4bc       __ismbbkalnum              1002b4bc f   LIBCMT:ismbbyte.obj
 0001:0002a4d2       __ismbbkalnum_l            1002b4d2 f   LIBCMT:ismbbyte.obj
 0001:0002a4e9       __ismbbkana                1002b4e9 f   LIBCMT:ismbbyte.obj
 0001:0002a4fa       __ismbbkana_l              1002b4fa f   LIBCMT:ismbbyte.obj
 0001:0002a544       __ismbbkprint              1002b544 f   LIBCMT:ismbbyte.obj
 0001:0002a55a       __ismbbkprint_l            1002b55a f   LIBCMT:ismbbyte.obj
 0001:0002a571       __ismbbkpunct              1002b571 f   LIBCMT:ismbbyte.obj
 0001:0002a587       __ismbbkpunct_l            1002b587 f   LIBCMT:ismbbyte.obj
 0001:0002a59e       __ismbblead                1002b59e f   LIBCMT:ismbbyte.obj
 0001:0002a5b4       __ismbblead_l              1002b5b4 f   LIBCMT:ismbbyte.obj
 0001:0002a5cb       __ismbbprint               1002b5cb f   LIBCMT:ismbbyte.obj
 0001:0002a5e4       __ismbbprint_l             1002b5e4 f   LIBCMT:ismbbyte.obj
 0001:0002a5fe       __ismbbpunct               1002b5fe f   LIBCMT:ismbbyte.obj
 0001:0002a614       __ismbbpunct_l             1002b614 f   LIBCMT:ismbbyte.obj
 0001:0002a62b       __ismbbtrail               1002b62b f   LIBCMT:ismbbyte.obj
 0001:0002a641       __ismbbtrail_l             1002b641 f   LIBCMT:ismbbyte.obj
 0001:0002a87c       __strtol_l                 1002b87c f   LIBCMT:strtol.obj
 0001:0002a897       __strtoul_l                1002b897 f   LIBCMT:strtol.obj
 0001:0002a8b2       _strtol                    1002b8b2 f   LIBCMT:strtol.obj
 0001:0002a8dc       _strtoul                   1002b8dc f   LIBCMT:strtol.obj
 0001:0002a906       ___free_lconv_mon          1002b906 f   LIBCMT:initmon.obj
 0001:0002aa02       ___init_monetary           1002ba02 f   LIBCMT:initmon.obj
 0001:0002addc       ___free_lconv_num          1002bddc f   LIBCMT:initnum.obj
 0001:0002ae43       ___init_numeric            1002be43 f   LIBCMT:initnum.obj
 0001:0002b083       ___free_lc_time            1002c083 f   LIBCMT:inittime.obj
 0001:0002b403       ___init_time               1002c403 f   LIBCMT:inittime.obj
 0001:0002bc70       _localeconv                1002cc70 f   LIBCMT:lconv.obj
 0001:0002bc96       __iswctype_l               1002cc96 f   LIBCMT:iswctype.obj
 0001:0002bca8       _is_wctype                 1002cca8 f   LIBCMT:iswctype.obj
 0001:0002bcb1       _iswctype                  1002ccb1 f   LIBCMT:iswctype.obj
 0001:0002bd03       ____lc_codepage_func       1002cd03 f   LIBCMT:initctyp.obj
 0001:0002bd29       ____lc_collate_cp_func     1002cd29 f   LIBCMT:initctyp.obj
 0001:0002bd4f       ____lc_locale_name_func    1002cd4f f   LIBCMT:initctyp.obj
 0001:0002bd77       ____mb_cur_max_func        1002cd77 f   LIBCMT:initctyp.obj
 0001:0002bd9d       ____mb_cur_max_l_func      1002cd9d f   LIBCMT:initctyp.obj
 0001:0002bdb4       ___init_ctype              1002cdb4 f   LIBCMT:initctyp.obj
 0001:0002c14c       ___pctype_func             1002d14c f   LIBCMT:ctype.obj
 0001:0002c175       ___pwctype_func            1002d175 f   LIBCMT:ctype.obj
 0001:0002c17b       __isctype                  1002d17b f   LIBCMT:isctype.obj
 0001:0002c1aa       __isctype_l                1002d1aa f   LIBCMT:isctype.obj
 0001:0002c259       __locterm                  1002d259 f   LIBCMT:wsetloca.obj
 0001:0002c2ab       ___init_dummy              1002d2ab f   LIBCMT:wsetloca.obj
 0001:0002c2ae       ____setlc_active_func      1002d2ae f   LIBCMT:wsetloca.obj
 0001:0002c2b4       ____unguarded_readlc_active_add_func 1002d2b4 f   LIBCMT:wsetloca.obj
 0001:0002c2ba       ___copy_locale_name        1002d2ba f   LIBCMT:wsetloca.obj
 0001:0002c31e       ___create_locale           1002d31e f   LIBCMT:wsetloca.obj
 0001:0002c327       ___free_locale             1002d327 f   LIBCMT:wsetloca.obj
 0001:0002c32c       ___get_current_locale      1002d32c f   LIBCMT:wsetloca.obj
 0001:0002c331       ___lc_lctowcs              1002d331 f   LIBCMT:wsetloca.obj
 0001:0002c39f       ___lc_wcstolc              1002d39f f   LIBCMT:wsetloca.obj
 0001:0002c4c9       __configthreadlocale       1002d4c9 f   LIBCMT:wsetloca.obj
 0001:0002c54f       __create_locale            1002d54f f   LIBCMT:wsetloca.obj
 0001:0002c5af       __expandlocale             1002d5af f   LIBCMT:wsetloca.obj
 0001:0002c892       __free_locale              1002d892 f   LIBCMT:wsetloca.obj
 0001:0002c94c       __get_current_locale       1002d94c f   LIBCMT:wsetloca.obj
 0001:0002c9fb       __wcreate_locale           1002d9fb f   LIBCMT:wsetloca.obj
 0001:0002caeb       __wcscats                  1002daeb f   LIBCMT:wsetloca.obj
 0001:0002cb2a       __wsetlocale               1002db2a f   LIBCMT:wsetloca.obj
 0001:0002d45f       __CopyMan                  1002e45f f i LIBCMT:intrncvt.obj
 0001:0002d47c       __FillZeroMan              1002e47c f i LIBCMT:intrncvt.obj
 0001:0002d48b       __IncMan                   1002e48b f i LIBCMT:intrncvt.obj
 0001:0002d4ed       __IsZeroMan                1002e4ed f i LIBCMT:intrncvt.obj
 0001:0002d50a       __RoundMan                 1002e50a f i LIBCMT:intrncvt.obj
 0001:0002d609       __ShrMan                   1002e609 f i LIBCMT:intrncvt.obj
 0001:0002d695       __ZeroTail                 1002e695 f i LIBCMT:intrncvt.obj
 0001:0002d6dd       ___addl                    1002e6dd f i LIBCMT:intrncvt.obj
 0001:0002d701       __ld12cvt                  1002e701 f i LIBCMT:intrncvt.obj
 0001:0002dc6a       __ld12tod                  1002ec6a f   LIBCMT:intrncvt.obj
 0001:0002e1da       __ld12tof                  1002f1da f   LIBCMT:intrncvt.obj
 0001:0002e74a       __ld12told                 1002f74a f   LIBCMT:intrncvt.obj
 0001:0002e817       ___STRINGTOLD_L            1002f817 f   LIBCMT:strgtold.obj
 0001:0002e870       ___ld12mul                 1002f870 f i LIBCMT:strgtold.obj
 0001:0002eb39       ___multtenpow12            1002fb39 f i LIBCMT:strgtold.obj
 0001:0002ee97       ___shl_12                  1002fe97 f i LIBCMT:strgtold.obj
 0001:0002eec8       ___shr_12                  1002fec8 f i LIBCMT:strgtold.obj
 0001:0002eef8       ___strgtold12_l            1002fef8 f   LIBCMT:strgtold.obj
 0001:0002f674       _$I10_OUTPUT               10030674 f   LIBCMT:x10fout.obj
 0001:00030038       ___add_12                  10031038 f i LIBCMT:x10fout.obj
 0001:000301e2       ___control87_2             100311e2 f   LIBCMT:ieee87.obj
 0001:00030852       __clearfp                  10031852 f   LIBCMT:ieee87.obj
 0001:00030930       __control87                10031930 f i LIBCMT:ieee87.obj
 0001:00030c30       __controlfp                10031c30 f   LIBCMT:ieee87.obj
 0001:00030f39       __fpreset                  10031f39 f   LIBCMT:ieee87.obj
 0001:00031006       __set_controlfp            10032006 f   LIBCMT:ieee87.obj
 0001:00031077       __statusfp                 10032077 f   LIBCMT:ieee87.obj
 0001:0003110f       __statusfp2                1003210f f   LIBCMT:ieee87.obj
 0001:00031170       __alloca_probe_16          10032170 f   LIBCMT:alloca16.obj
 0001:00031186       __alloca_probe_8           10032186     LIBCMT:alloca16.obj
 0001:0003122d       __wopen                    1003222d f   LIBCMT:wopen.obj
 0001:000312da       __wsopen                   100322da f   LIBCMT:wopen.obj
 0001:0003130b       __wsopen_helper            1003230b f   LIBCMT:wopen.obj
 0001:000313d2       __wsopen_nolock            100323d2 f   LIBCMT:wopen.obj
 0001:00031b4b       __wsopen_s                 10032b4b f   LIBCMT:wopen.obj
 0001:00031b70       _strncmp                   10032b70 f   LIBCMT:strncmp.obj
 0001:00031be8       __strnicmp                 10032be8 f   LIBCMT:strnicmp.obj
 0001:00031c53       __strnicmp_l               10032c53 f   LIBCMT:strnicmp.obj
 0001:00031d02       ___termconout              10032d02 f   LIBCMT:initcon.obj
 0001:00031d19       ___initconout              10032d19 f   LIBCMT:initcon.obj
 0001:00031d38       __fputwc_nolock            10032d38 f   LIBCMT:fputwc.obj
 0001:00031ebd       _fputwc                    10032ebd f   LIBCMT:fputwc.obj
 0001:00031f3e       _putwc                     10032f3e f   LIBCMT:fputwc.obj
 0001:00032123       __wcstol_l                 10033123 f   LIBCMT:wcstol.obj
 0001:0003213b       __wcstoul_l                1003313b f   LIBCMT:wcstol.obj
 0001:00032153       _wcstol                    10033153 f   LIBCMT:wcstol.obj
 0001:0003216b       _wcstoul                   1003316b f   LIBCMT:wcstol.obj
 0001:00032183       ___init_collate            10033183 f   LIBCMT:initcoll.obj
 0001:000322a3       _memcmp                    100332a3 f   LIBCMT:memcmp.obj
 0001:000351b7       _wcscmp                    100361b7 f   LIBCMT:wcscmp.obj
 0001:000351f5       _wcscspn                   100361f5 f   LIBCMT:wcscspn.obj
 0001:00035244       _wcsnlen                   10036244 f   LIBCMT:wcslen_s.obj
 0001:00035263       _wcsncmp                   10036263 f   LIBCMT:wcsncmp.obj
 0001:00035299       _wcspbrk                   10036299 f   LIBCMT:wcspbrk.obj
 0001:00035895       ___get_qualified_locale    10036895 f   LIBCMT:getqloc.obj
 0001:00035a57       ___mtold12                 10036a57 f   LIBCMT:mantold.obj
 0001:00035c39       __chsize                   10036c39 f   LIBCMT:chsize.obj
 0001:00035c53       __chsize_nolock            10036c53 f   LIBCMT:chsize.obj
 0001:00035e07       __chsize_s                 10036e07 f   LIBCMT:chsize.obj
 0001:00035efb       __get_fmode                10036efb f   LIBCMT:setmode.obj
 0001:00035f25       __set_fmode                10036f25 f   LIBCMT:setmode.obj
 0001:00035f65       __setmode                  10036f65 f   LIBCMT:setmode.obj
 0001:00036073       __setmode_nolock           10037073 f   LIBCMT:setmode.obj
 0001:00036140       ___ascii_strnicmp          10037140 f   LIBCMT:_strnicm.obj
 0001:000361a1       __flswbuf                  100371a1 f   LIBCMT:_flswbuf.obj
 0001:00036310       __wchartodigit             10037310 f   LIBCMT:wchtodig.obj
 0001:000364af       __wtoi                     100374af f   LIBCMT:wtox.obj
 0001:000364b8       __wtoi64                   100374b8 f   LIBCMT:wtox.obj
 0001:000364cc       __wtoi64_l                 100374cc f   LIBCMT:wtox.obj
 0001:000364e3       __wtoi_l                   100374e3 f   LIBCMT:wtox.obj
 0001:000364ec       __wtol                     100374ec f   LIBCMT:wtox.obj
 0001:00036500       __wtol_l                   10037500 f   LIBCMT:wtox.obj
 0001:00036517       _wcschr                    10037517 f   LIBCMT:wcschr.obj
 0001:000365c5       __wcsicmp                  100375c5 f   LIBCMT:wcsicmp.obj
 0001:00036658       __wcsicmp_l                10037658 f   LIBCMT:wcsicmp.obj
 0001:00036731       __wcsnicmp                 10037731 f   LIBCMT:wcsnicmp.obj
 0001:000367e5       __wcsnicmp_l               100377e5 f   LIBCMT:wcsnicmp.obj
 0001:00036baa       __wcstoi64                 10037baa f   LIBCMT:wcstoq.obj
 0001:00036bd4       __wcstoi64_l               10037bd4 f   LIBCMT:wcstoq.obj
 0001:00036bef       __wcstoui64                10037bef f   LIBCMT:wcstoq.obj
 0001:00036c19       __wcstoui64_l              10037c19 f   LIBCMT:wcstoq.obj
 0001:00036c34       __towlower_l               10037c34 f   LIBCMT:towlower.obj
 0001:00036ce6       _towlower                  10037ce6 f   LIBCMT:towlower.obj
 0001:00036d00       __allmul                   10037d00 f   LIBCMT:llmul.obj
 0001:00036d34       ___crtLCMapStringW         10037d34 f   LIBCMT:w_map.obj
 0001:00036d64       _GetModuleHandleA@4        10037d64 f   kernel32:KERNEL32.dll
 0001:00036d6a       _GetProcAddress@8          10037d6a f   kernel32:KERNEL32.dll
 0001:00036d70       _CloseHandle@4             10037d70 f   kernel32:KERNEL32.dll
 0001:00036d76       _ReleaseSemaphore@12       10037d76 f   kernel32:KERNEL32.dll
 0001:00036d7c       _WaitForSingleObject@8     10037d7c f   kernel32:KERNEL32.dll
 0001:00036d82       _Sleep@4                   10037d82 f   kernel32:KERNEL32.dll
 0001:00036d88       _CreateThread@24           10037d88 f   kernel32:KERNEL32.dll
 0001:00036d8e       _TerminateThread@8         10037d8e f   kernel32:KERNEL32.dll
 0001:00036d94       _GetSystemTimeAsFileTime@4 10037d94 f   kernel32:KERNEL32.dll
 0001:00036d9a       _CreateSemaphoreA@16       10037d9a f   kernel32:KERNEL32.dll
 0001:00036da0       _lstrlenA@4                10037da0 f   kernel32:KERNEL32.dll
 0001:00036da6       _HeapAlloc@12              10037da6 f   kernel32:KERNEL32.dll
 0001:00036dac       _IsDebuggerPresent@0       10037dac f   kernel32:KERNEL32.dll
 0001:00036db2       _IsProcessorFeaturePresent@4 10037db2 f   kernel32:KERNEL32.dll
 0001:00036db8       _EncodePointer@4           10037db8 f   kernel32:KERNEL32.dll
 0001:00036dbe       _DecodePointer@4           10037dbe f   kernel32:KERNEL32.dll
 0001:00036dc4       _GetLastError@0            10037dc4 f   kernel32:KERNEL32.dll
 0001:00036dca       _InterlockedDecrement@4    10037dca f   kernel32:KERNEL32.dll
 0001:00036dd0       _ExitProcess@4             10037dd0 f   kernel32:KERNEL32.dll
 0001:00036dd6       _GetModuleHandleExW@12     10037dd6 f   kernel32:KERNEL32.dll
 0001:00036ddc       _AreFileApisANSI@0         10037ddc f   kernel32:KERNEL32.dll
 0001:00036de2       _MultiByteToWideChar@24    10037de2 f   kernel32:KERNEL32.dll
 0001:00036de8       _HeapFree@12               10037de8 f   kernel32:KERNEL32.dll
 0001:00036dee       _HeapReAlloc@16            10037dee f   kernel32:KERNEL32.dll
 0001:00036df4       _EnterCriticalSection@4    10037df4 f   kernel32:KERNEL32.dll
 0001:00036dfa       _LeaveCriticalSection@4    10037dfa f   kernel32:KERNEL32.dll
 0001:00036e00       _GetStdHandle@4            10037e00 f   kernel32:KERNEL32.dll
 0001:00036e06       _GetFileType@4             10037e06 f   kernel32:KERNEL32.dll
 0001:00036e0c       _GetModuleFileNameW@12     10037e0c f   kernel32:KERNEL32.dll
 0001:00036e12       _WriteConsoleW@20          10037e12 f   kernel32:KERNEL32.dll
 0001:00036e18       _GetCommandLineA@0         10037e18 f   kernel32:KERNEL32.dll
 0001:00036e1e       _GetCurrentThreadId@0      10037e1e f   kernel32:KERNEL32.dll
 0001:00036e24       _WriteFile@20              10037e24 f   kernel32:KERNEL32.dll
 0001:00036e2a       _GetProcessHeap@0          10037e2a f   kernel32:KERNEL32.dll
 0001:00036e30       _UnhandledExceptionFilter@4 10037e30 f   kernel32:KERNEL32.dll
 0001:00036e36       _SetUnhandledExceptionFilter@4 10037e36 f   kernel32:KERNEL32.dll
 0001:00036e3c       _FlsAlloc@4                10037e3c f   kernel32:KERNEL32.dll
 0001:00036e42       _FlsGetValue@4             10037e42 f   kernel32:KERNEL32.dll
 0001:00036e48       _FlsSetValue@8             10037e48 f   kernel32:KERNEL32.dll
 0001:00036e4e       _FlsFree@4                 10037e4e f   kernel32:KERNEL32.dll
 0001:00036e54       _GetCurrentProcess@0       10037e54 f   kernel32:KERNEL32.dll
 0001:00036e5a       _TerminateProcess@8        10037e5a f   kernel32:KERNEL32.dll
 0001:00036e60       _GetStartupInfoW@4         10037e60 f   kernel32:KERNEL32.dll
 0001:00036e66       _GetModuleHandleW@4        10037e66 f   kernel32:KERNEL32.dll
 0001:00036e6c       _InitializeCriticalSectionAndSpinCount@8 10037e6c f   kernel32:KERNEL32.dll
 0001:00036e72       _DeleteCriticalSection@4   10037e72 f   kernel32:KERNEL32.dll
 0001:00036e78       _FatalAppExitA@8           10037e78 f   kernel32:KERNEL32.dll
 0001:00036e7e       _InterlockedExchange@8     10037e7e f   kernel32:KERNEL32.dll
 0001:00036e84       _FreeLibrary@4             10037e84 f   kernel32:KERNEL32.dll
 0001:00036e8a       _LoadLibraryExW@12         10037e8a f   kernel32:KERNEL32.dll
 0001:00036e90       _SetConsoleCtrlHandler@8   10037e90 f   kernel32:KERNEL32.dll
 0001:00036e96       _InterlockedIncrement@4    10037e96 f   kernel32:KERNEL32.dll
 0001:00036e9c       _IsValidCodePage@4         10037e9c f   kernel32:KERNEL32.dll
 0001:00036ea2       _GetACP@0                  10037ea2 f   kernel32:KERNEL32.dll
 0001:00036ea8       _GetOEMCP@0                10037ea8 f   kernel32:KERNEL32.dll
 0001:00036eae       _GetCPInfo@8               10037eae f   kernel32:KERNEL32.dll
 0001:00036eb4       _RtlUnwind@16              10037eb4 f   kernel32:KERNEL32.dll
 0001:00036eba       _InitOnceExecuteOnce@16    10037eba f   kernel32:KERNEL32.dll
 0001:00036ec0       _ReadFile@20               10037ec0 f   kernel32:KERNEL32.dll
 0001:00036ec6       _GetConsoleMode@8          10037ec6 f   kernel32:KERNEL32.dll
 0001:00036ecc       _ReadConsoleW@20           10037ecc f   kernel32:KERNEL32.dll
 0001:00036ed2       _WideCharToMultiByte@32    10037ed2 f   kernel32:KERNEL32.dll
 0001:00036ed8       _GetConsoleCP@0            10037ed8 f   kernel32:KERNEL32.dll
 0001:00036ede       _DeleteFileW@4             10037ede f   kernel32:KERNEL32.dll
 0001:00036ee4       _SetFilePointer@16         10037ee4 f   kernel32:KERNEL32.dll
 0001:00036eea       _RaiseException@16         10037eea f   kernel32:KERNEL32.dll
 0001:00036ef0       _OutputDebugStringW@4      10037ef0 f   kernel32:KERNEL32.dll
 0001:00036ef6       _LoadLibraryW@4            10037ef6 f   kernel32:KERNEL32.dll
 0001:00036efc       _SetLastError@4            10037efc f   kernel32:KERNEL32.dll
 0001:00036f02       _GetCurrentThread@0        10037f02 f   kernel32:KERNEL32.dll
 0001:00036f08       _GetModuleFileNameA@12     10037f08 f   kernel32:KERNEL32.dll
 0001:00036f0e       _QueryPerformanceCounter@4 10037f0e f   kernel32:KERNEL32.dll
 0001:00036f14       _GetTickCount64@0          10037f14 f   kernel32:KERNEL32.dll
 0001:00036f1a       _GetEnvironmentStringsW@0  10037f1a f   kernel32:KERNEL32.dll
 0001:00036f20       _FreeEnvironmentStringsW@4 10037f20 f   kernel32:KERNEL32.dll
 0001:00036f26       _HeapSize@12               10037f26 f   kernel32:KERNEL32.dll
 0001:00036f2c       _GetTimeFormatEx@24        10037f2c f   kernel32:KERNEL32.dll
 0001:00036f32       _GetDateFormatEx@28        10037f32 f   kernel32:KERNEL32.dll
 0001:00036f38       _CompareStringEx@36        10037f38 f   kernel32:KERNEL32.dll
 0001:00036f3e       _GetLocaleInfoEx@16        10037f3e f   kernel32:KERNEL32.dll
 0001:00036f44       _GetUserDefaultLocaleName@8 10037f44 f   kernel32:KERNEL32.dll
 0001:00036f4a       _LCMapStringEx@36          10037f4a f   kernel32:KERNEL32.dll
 0001:00036f50       _IsValidLocaleName@4       10037f50 f   kernel32:KERNEL32.dll
 0001:00036f56       _EnumSystemLocalesEx@16    10037f56 f   kernel32:KERNEL32.dll
 0001:00036f5c       _GetStringTypeW@16         10037f5c f   kernel32:KERNEL32.dll
 0001:00036f62       _FlushFileBuffers@4        10037f62 f   kernel32:KERNEL32.dll
 0001:00036f68       _SetStdHandle@8            10037f68 f   kernel32:KERNEL32.dll
 0001:00036f6e       _SetFilePointerEx@20       10037f6e f   kernel32:KERNEL32.dll
 0001:00036f74       _CreateFileW@28            10037f74 f   kernel32:KERNEL32.dll
 0001:00036f7a       _SetEndOfFile@4            10037f7a f   kernel32:KERNEL32.dll
 0002:00000000       ___xc_a                    10044000     LIBCMT:crt0init.obj
 0002:00000104       ___xc_z                    10044104     LIBCMT:crt0init.obj
 0002:00000208       ___xi_a                    10044208     LIBCMT:crt0init.obj
 0002:00000420       ___xi_z                    10044420     LIBCMT:crt0init.obj
 0002:00000524       ___xp_a                    10044524     LIBCMT:crt0init.obj
 0002:00000838       ___xp_z                    10044838     LIBCMT:crt0init.obj
 0002:0000093c       ___xt_a                    1004493c     LIBCMT:crt0init.obj
 0002:00000a40       ___xt_z                    10044a40     LIBCMT:crt0init.obj
 0002:00000b88       _untitled20210804_M        10044b88     untitled20210804.obj
 0002:00000b8c       ??_C@_0BI@PEBACBDB@Error?5creating?5scope?53?6?$AA@ 10044b8c     untitled20210804.obj
 0002:00000ba8       ??_C@_04OMOMKKFL@Gain?$AA@ 10044ba8     untitled20210804.obj
 0002:00000bb0       ??_C@_06KFNFIEK@?$CF15?46f?$AA@ 10044bb0     untitled20210804.obj
 0002:00000bb8       ??_C@_0BC@OJJPBDHH@FixedStepDiscrete?$AA@ 10044bb8     untitled20210804.obj
 0002:00000bd0       ??_C@_04EPKDLPPB@tout?$AA@ 10044bd0     untitled20210804.obj
 0002:00000bd6       ??_C@_00CNPNBAHC@?$AA@     10044bd6     untitled20210804.obj
 0002:00000bd8       ??_C@_03HBFGMJOD@rt_?$AA@  10044bd8     untitled20210804.obj
 0002:00000bdc       ??_C@_06LJFBBHBB@Setup?5?$AA@ 10044bdc     untitled20210804.obj
 0002:00000be4       ??_C@_0BI@NCGCEFFK@untitled20210804?1Setup?5?$AA@ 10044be4     untitled20210804.obj
 0002:00000c00       __real@3f60624dd2f1a9fc    10044c00     untitled20210804.obj
 0002:00000c10       __real@3ff0000000000000    10044c10     untitled20210804.obj
 0002:00000c20       __real@406f400000000000    10044c20     untitled20210804.obj
 0002:00000c30       __real@4070000000000000    10044c30     untitled20210804.obj
 0002:00000c40       __real@41f0000000000000    10044c40     untitled20210804.obj
 0002:00000c50       __real@4330000000000000    10044c50     untitled20210804.obj
 0002:00000c60       __real@8000000000000000    10044c60     untitled20210804.obj
 0002:00000c70       __real@bff0000000000000    10044c70     untitled20210804.obj
 0002:00000c80       __xmm@41f00000000000000000000000000000 10044c80     untitled20210804.obj
 0002:00000ca0       __xmm@80000000000000008000000000000000 10044ca0     untitled20210804.obj
 0002:00001518       ??_C@_0DJ@FHKINPLE@Unexpected?5itemKind?5?$DN?5DATA_ITEM?5@ 10045518     rt_logging.obj
 0002:0000155c       ??_C@_0DA@IEHFPFCJ@Unexpected?5itemKind?$DN?$CFd?5in?5rt_Pro@ 1004555c     rt_logging.obj
 0002:00001598       ??_C@_0DA@IFLHJPBO@Unexpected?5itemKind?$DN?$CFd?5in?5rt_Pro@ 10045598     rt_logging.obj
 0002:000015d4       ??_C@_0DA@IAPIIJJL@Unexpected?5itemKind?$DN?$CFd?5in?5rt_Pro@ 100455d4     rt_logging.obj
 0002:00001610       ??_C@_0BE@LCIGPJIG@MATLAB?55?40?5MAT?9file?$AA@ 10045610     rt_logging.obj
 0002:00001628       ??_C@_0FB@PCJEAJIB@?$CK?$CK?$CK?5Log?5variable?5?$CFs?5has?5wrapped?5@ 10045628     rt_logging.obj
 0002:00001690       ??_C@_0MG@NKMLMOGF@?$CK?$CK?$CK?5To?5avoid?5wrapping?0?5explicitl@ 10045690     rt_logging.obj
 0002:00001780       ??_C@_0N@IPAEOLLP@_rtw_tmw?4tmw?$AA@ 10045780     rt_logging.obj
 0002:00001790       ??_C@_04HDOCAJNK@?$CFs?$CFs?$AA@ 10045790     rt_logging.obj
 0002:00001798       ??_C@_03ELIABIOC@w?$CLb?$AA@ 10045798     rt_logging.obj
 0002:0000179c       ??_C@_0BF@JPILDDFA@?$CK?$CK?$CK?5Error?5opening?5?$CFs?$AA@ 1004579c     rt_logging.obj
 0002:000017b8       ??_C@_0BK@EEMDELA@unable?5to?5open?5data?5file?6?$AA@ 100457b8     rt_logging.obj
 0002:000017d8       ??_C@_04CGFJFPFD@none?$AA@ 100457d8     rt_logging.obj
 0002:000017e0       ??_C@_0EE@LCGFPNON@?$CK?$CK?$CK?5Error?5creating?5signals?5struc@ 100457e0     rt_logging.obj
 0002:00001834       ??_C@_0CE@NHECEDMK@?$CK?$CK?$CK?5Error?5creating?5log?5variable?5@ 10045834     rt_logging.obj
 0002:00001860       ??_C@_0DB@IOCGKAGH@?$CK?$CK?$CK?5Errors?5occurred?5when?5startin@ 10045860     rt_logging.obj
 0002:0000189c       ??_C@_0BO@BBLOGEBK@?$CK?$CK?$CK?5Memory?5allocation?5error?4?6?$AA@ 1004589c     rt_logging.obj
 0002:000018c0       ??_C@_0N@LGFBAGEL@?5?$CIreal?5part?$CJ?$AA@ 100458c0     rt_logging.obj
 0002:000018d0       ??_C@_0KH@CGNMHNFE@?5?5?5?5varName?5?5?5?5?5?5?5?5?5?5?$DN?5?$CFs?$CFs?6?5?5?5?5@ 100458d0     rt_logging.obj
 0002:00001998       ??_C@_0LE@OALKKEFM@?5?5?5?5varName?5?5?5?5?5?5?5?5?5?5?$DN?5?$CFs?5?$CIcompl@ 10045998     rt_logging.obj
 0002:00001a70       ??_C@_0KF@JDDLEOKO@?5?5?5?5varName?5?5?5?5?5?5?5?5?5?5?$DN?5?$CFs?6?5?5?5?5nR@ 10045a70     rt_logging.obj
 0002:00001b38       ??_C@_0DP@HPDMIOFM@?$CK?$CK?$CK?5Using?5a?5default?5buffer?5of?5si@ 10045b38     rt_logging.obj
 0002:00001b88       ??_C@_0KE@JEFOLKNF@?6?$CK?$CK?$CK?5Memory?5required?5to?5log?5vari@ 10045b88     rt_logging.obj
 0002:00001c50       ??_C@_0JP@DKLMHCBI@?$CK?$CK?$CK?5Details?3?6?5?5?5?5?5?5?5varName?5?5?5?5?5@ 10045c50     rt_logging.obj
 0002:00001d10       ??_C@_0CM@CAMILBED@?$CK?$CK?$CK?5Error?5allocating?5memory?5for?5@ 10045d10     rt_logging.obj
 0002:00001d44       ??_C@_0DF@BBCNMOPM@?$CK?$CK?$CK?5Error?5allocating?5memory?5for?5@ 10045d44     rt_logging.obj
 0002:00001d88       ??_C@_0JP@DBCLPCCI@?$CK?$CK?$CK?5Details?3?6?5?5?5?5?5?5?5varName?5?5?5?5?5@ 10045d88     rt_logging.obj
 0002:00001e48       ??_C@_0FK@DPGAOBGA@?$CK?$CK?$CK?5Error?5allocating?5memory?5for?5@ 10045e48     rt_logging.obj
 0002:00001eb4       ??_C@_0BI@GGDNPHLJ@?$CK?$CK?$CK?5Error?5writing?5to?5?$CFs?$AA@ 10045eb4     rt_logging.obj
 0002:00001ed0       ??_C@_0CB@IBGJGELG@?$CK?$CK?$CK?5Error?5writing?5?$CFs?5due?5to?3?5?$CFs?6@ 10045ed0     rt_logging.obj
 0002:00001ef8       ??_C@_0CN@FLMCHCPB@?$CK?$CK?$CK?5Error?5writing?5log?5variable?5?$CF@ 10045ef8     rt_logging.obj
 0002:00001f30       ??_C@_0DH@GAJCNOJP@?$CK?$CK?$CK?5Error?5writing?5structure?5log?5@ 10045f30     rt_logging.obj
 0002:00001f74       ??_C@_0BD@POEALECL@?$CK?$CK?5created?5?$CFs?5?$CK?$CK?6?6?$AA@ 10045f74     rt_logging.obj
 0002:00001f90       __real@0000000000000000    10045f90     rt_logging.obj
 0002:00001fa0       __real@4020000000000000    10045fa0     rt_logging.obj
 0002:00001fb0       __real@41dfffffffc00000    10045fb0     rt_logging.obj
 0002:00001fc0       __real@41efffffffe00000    10045fc0     rt_logging.obj
 0002:00001fd0       __real@bfbf9add3afd2773    10045fd0     rt_logging.obj
 0002:00001fe0       __real@c000000000000000    10045fe0     rt_logging.obj
 0002:00002008       __real@3cb0000000000000    10046008     rt_matrx.obj
 0002:00002018       __real@3fe0000000000000    10046018     rt_matrx.obj
 0002:00002024       ??_C@_0BI@INNPNFJN@Memory?5Allocation?5Error?$AA@ 10046024     rtw_modelmap_utils.obj
 0002:00002040       ??_C@_1FC@IMCOBDGH@?$AAG?$AA?3?$AA?2?$AAR?$AA2?$AA0?$AA1?$AA6?$AAb?$AA?2?$AAr?$AAt?$AAw?$AA?2?$AAc?$AA?2?$AAs?$AAr?$AAc?$AA?2?$AAr?$AAt?$AAw?$AA_?$AAm?$AAo?$AAd?$AAe?$AAl?$AAm?$AAa?$AAp@ 10046040     rtw_modelmap_utils.obj
 0002:000020a4       ??_C@_1CI@OEAJCJND@?$AAj?$AA?5?$AA?$DN?$AA?$DN?$AA?5?$AAe?$AAn?$AAc?$AAo?$AAd?$AAe?$AAd?$AAP?$AAa?$AAt?$AAh?$AAL?$AAe?$AAn?$AA?$AA@ 100460a4     rtw_modelmap_utils.obj
 0002:000020d4       ??_C@_1DC@NFAOIFKB@?$AAe?$AAn?$AAc?$AAo?$AAd?$AAe?$AAd?$AAP?$AAa?$AAt?$AAh?$AA?$FL?$AAj?$AA?9?$AA1?$AA?$FN?$AA?5?$AA?$DN?$AA?$DN?$AA?5?$AA?8?$AA?2?$AA0?$AA?8?$AA?$AA@ 100460d4     rtw_modelmap_utils.obj
 0002:00002110       ??_C@_1DI@FLNJGPEE@?$AAs?$AAi?$AAg?$AAC?$AAo?$AAm?$AAp?$AAl?$AAe?$AAx?$AAi?$AAt?$AAy?$AA?$FL?$AA?$CK?$AAs?$AAi?$AAg?$AAI?$AAd?$AAx?$AA?$FN?$AA?5?$AA?$CB?$AA?$DN?$AA?5?$AA1?$AA?$AA@ 10046110     rtw_modelmap_utils.obj
 0002:00002158       ??_C@_1KI@OFELMGBG@?$AA?$CI?$AA?$CI?$AA?$CI?$AAd?$AAa?$AAt?$AAa?$AAT?$AAy?$AAp?$AAe?$AAM?$AAa?$AAp?$AA?$CJ?$AA?$FL?$AA?$CI?$AA?$CI?$AA?$CI?$AAs?$AAt?$AAa?$AAt?$AAe?$AAs?$AA?$CJ?$AA?$FL?$AA?$CI?$AAi?$AA?$CJ?$AA?$FN?$AA?4@ 10046158     rtw_modelmap_utils.obj
 0002:00002224       ??_C@_1DA@ILCMPHNE@?$AAf?$AAu?$AAl?$AAl?$AAP?$AAa?$AAt?$AAh?$AA?5?$AA?$CB?$AA?$DN?$AA?5?$AA?$CI?$AA?$CI?$AAv?$AAo?$AAi?$AAd?$AA?5?$AA?$CK?$AA?$CJ?$AA0?$AA?$CJ?$AA?$AA@ 10046224     rtw_modelmap_utils.obj
 0002:00002260       ??_C@_1CI@OEPPFCCA@?$AAp?$AAa?$AAt?$AAh?$AA?5?$AA?$CB?$AA?$DN?$AA?5?$AA?$CI?$AA?$CI?$AAv?$AAo?$AAi?$AAd?$AA?5?$AA?$CK?$AA?$CJ?$AA0?$AA?$CJ?$AA?$AA@ 10046260     rtw_modelmap_utils.obj
 0002:00002290       ??_C@_1FK@GLJIMFHB@?$AA?$CI?$AA?$CI?$AAm?$AAm?$AAi?$AA?$CJ?$AA?9?$AA?$DO?$AAI?$AAn?$AAs?$AAt?$AAa?$AAn?$AAc?$AAe?$AAM?$AAa?$AAp?$AA?4?$AAf?$AAu?$AAl?$AAl?$AAP?$AAa?$AAt?$AAh?$AA?$CJ?$AA?5?$AA?$DN?$AA?$DN@ 10046290     rtw_modelmap_utils.obj
 0002:000022fc       ??_C@_1DG@HPCJGNCE@?$AAm?$AAm?$AAi?$AAP?$AAa?$AAt?$AAh?$AA?$FL?$AAp?$AAa?$AAt?$AAh?$AAL?$AAe?$AAn?$AA?9?$AA1?$AA?$FN?$AA?5?$AA?$DN?$AA?$DN?$AA?5?$AA?8?$AA?2?$AA0?$AA?8?$AA?$AA@ 100462fc     rtw_modelmap_utils.obj
 0002:0000233c       ??_C@_1DM@DBAOGGOO@?$AAm?$AAm?$AAi?$AAP?$AAa?$AAt?$AAh?$AA?$FL?$AAm?$AAm?$AAi?$AAP?$AAa?$AAt?$AAh?$AAL?$AAe?$AAn?$AA?9?$AA1?$AA?$FN?$AA?5?$AA?$DN?$AA?$DN?$AA?5?$AA?8?$AA?2?$AA0?$AA?8?$AA?$AA@ 1004633c     rtw_modelmap_utils.obj
 0002:00002384       ??_C@_1DC@LHIAKAFE@?$AAb?$AAl?$AAo?$AAc?$AAk?$AAP?$AAa?$AAt?$AAh?$AA?5?$AA?$CB?$AA?$DN?$AA?5?$AA?$CI?$AA?$CI?$AAv?$AAo?$AAi?$AAd?$AA?5?$AA?$CK?$AA?$CJ?$AA0?$AA?$CJ?$AA?$AA@ 10046384     rtw_modelmap_utils.obj
 0002:000023c0       ??_C@_1GI@KIEJKPGC@?$AAf?$AAu?$AAl?$AAl?$AAS?$AAt?$AAa?$AAt?$AAe?$AAB?$AAl?$AAo?$AAc?$AAk?$AAP?$AAa?$AAt?$AAh?$AA?$FL?$AAf?$AAu?$AAl?$AAl?$AAS?$AAt?$AAa?$AAt?$AAe?$AAB?$AAl?$AAo?$AAc@ 100463c0     rtw_modelmap_utils.obj
 0002:00002440       ??_C@_1EE@DNPIBJHC@?$AA?$CI?$AA?$CI?$AAd?$AAi?$AAm?$AAM?$AAa?$AAp?$AA?$CJ?$AA?$FL?$AA?$CI?$AAm?$AAa?$AAp?$AAI?$AAd?$AAx?$AA?$CJ?$AA?$FN?$AA?4?$AAn?$AAu?$AAm?$AAD?$AAi?$AAm?$AAs?$AA?$CJ?$AA?5?$AA?$DN?$AA?$DN?$AA?5@ 10046440     rtw_modelmap_utils.obj
 0002:00002494       ??_C@_06JFOKFOED@CSTATE?$AA@ 10046494     rtw_modelmap_utils.obj
 0002:0000249c       ??_C@_06FAENGAMN@DSTATE?$AA@ 1004649c     rtw_modelmap_utils.obj
 0002:000024a4       ??_C@_1BI@LEBJNOGG@?$AAc?$AAs?$AAv?$AAI?$AAd?$AAx?$AA?5?$AA?$DO?$AA?$DN?$AA?5?$AA0?$AA?$AA@ 100464a4     rtw_modelmap_utils.obj
 0002:000024c0       ??_C@_1BA@KDMGHCHP@?$AAT?$AAI?$AAD?$AA?$DN?$AA?$DN?$AA?9?$AA1?$AA?$AA@ 100464c0     rtw_modelmap_utils.obj
 0002:000024d4       ??_C@_1DM@DHGKBPCE@?$AAs?$AAi?$AAg?$AAP?$AAa?$AAt?$AAh?$AA?$FL?$AAs?$AAi?$AAg?$AAP?$AAa?$AAt?$AAh?$AAL?$AAe?$AAn?$AA?9?$AA1?$AA?$FN?$AA?5?$AA?$DN?$AA?$DN?$AA?5?$AA?8?$AA?2?$AA0?$AA?8?$AA?$AA@ 100464d4     rtw_modelmap_utils.obj
 0002:000031fc       ??_C@_0BF@GGMNNFDC@Data?5Type?5Conversion?$AA@ 100471fc     untitled20210804_capi.obj
 0002:00003218       ??_C@_0BG@OOMJLOH@Data?5Type?5Conversion1?$AA@ 10047218     untitled20210804_capi.obj
 0002:00003234       ??_C@_0BH@OBCGKNLD@Data?5Type?5Conversion10?$AA@ 10047234     untitled20210804_capi.obj
 0002:00003250       ??_C@_0BH@PIDNJMPC@Data?5Type?5Conversion11?$AA@ 10047250     untitled20210804_capi.obj
 0002:0000326c       ??_C@_0BH@NDBAMPDB@Data?5Type?5Conversion12?$AA@ 1004726c     untitled20210804_capi.obj
 0002:00003288       ??_C@_0BH@MKALPOHA@Data?5Type?5Conversion13?$AA@ 10047288     untitled20210804_capi.obj
 0002:000032a4       ??_C@_0BH@IFEKGILH@Data?5Type?5Conversion14?$AA@ 100472a4     untitled20210804_capi.obj
 0002:000032c0       ??_C@_0BH@JMFBFJPG@Data?5Type?5Conversion15?$AA@ 100472c0     untitled20210804_capi.obj
 0002:000032dc       ??_C@_0BH@LHHMAKDF@Data?5Type?5Conversion16?$AA@ 100472dc     untitled20210804_capi.obj
 0002:000032f8       ??_C@_0BH@KOGHDLHE@Data?5Type?5Conversion17?$AA@ 100472f8     untitled20210804_capi.obj
 0002:00003314       ??_C@_0BH@CJPPCHLL@Data?5Type?5Conversion18?$AA@ 10047314     untitled20210804_capi.obj
 0002:00003330       ??_C@_0BH@DAOEBGPK@Data?5Type?5Conversion19?$AA@ 10047330     untitled20210804_capi.obj
 0002:0000334c       ??_C@_0BG@CFMBMICE@Data?5Type?5Conversion2?$AA@ 1004734c     untitled20210804_capi.obj
 0002:00003368       ??_C@_0BH@ODGABDOK@Data?5Type?5Conversion20?$AA@ 10047368     untitled20210804_capi.obj
 0002:00003384       ??_C@_0BH@PKHLCCKL@Data?5Type?5Conversion21?$AA@ 10047384     untitled20210804_capi.obj
 0002:000033a0       ??_C@_0BH@NBFGHBGI@Data?5Type?5Conversion22?$AA@ 100473a0     untitled20210804_capi.obj
 0002:000033bc       ??_C@_0BH@MIENEACJ@Data?5Type?5Conversion23?$AA@ 100473bc     untitled20210804_capi.obj
 0002:000033d8       ??_C@_0BG@DMNKPJGF@Data?5Type?5Conversion3?$AA@ 100473d8     untitled20210804_capi.obj
 0002:000033f4       ??_C@_0BG@HDJLGPKC@Data?5Type?5Conversion4?$AA@ 100473f4     untitled20210804_capi.obj
 0002:00003410       ??_C@_0BH@CPDEOFFA@Data?5Type?5Conversion48?$AA@ 10047410     untitled20210804_capi.obj
 0002:0000342c       ??_C@_0BG@GKIAFOOD@Data?5Type?5Conversion5?$AA@ 1004742c     untitled20210804_capi.obj
 0002:00003448       ??_C@_0BG@EBKNANCA@Data?5Type?5Conversion6?$AA@ 10047448     untitled20210804_capi.obj
 0002:00003464       ??_C@_0BG@FILGDMGB@Data?5Type?5Conversion7?$AA@ 10047464     untitled20210804_capi.obj
 0002:00003480       ??_C@_0BG@NPCOCAKO@Data?5Type?5Conversion8?$AA@ 10047480     untitled20210804_capi.obj
 0002:0000349c       ??_C@_0BG@MGDFBBOP@Data?5Type?5Conversion9?$AA@ 1004749c     untitled20210804_capi.obj
 0002:000034b8       ??_C@_0BC@JJEKBIMF@Logical?5Operator2?$AA@ 100474b8     untitled20210804_capi.obj
 0002:000034d0       ??_C@_0BB@KOPENPJA@1?9D?5Lookup?5Table?$AA@ 100474d0     untitled20210804_capi.obj
 0002:000034e4       ??_C@_0BB@NOHCHKAO@CAN?5bit?9packing?5?$AA@ 100474e4     untitled20210804_capi.obj
 0002:000034f8       ??_C@_0BC@CBDLFIMP@CAN?5bit?9packing?51?$AA@ 100474f8     untitled20210804_capi.obj
 0002:00003510       ??_C@_0BH@GPCGPFH@CAN?5bit?9unpacking?51?1p1?$AA@ 10047510     untitled20210804_capi.obj
 0002:0000352c       ??_C@_0BH@CNNPDMJE@CAN?5bit?9unpacking?51?1p2?$AA@ 1004752c     untitled20210804_capi.obj
 0002:00003548       ??_C@_0BH@DEMEANNF@CAN?5bit?9unpacking?51?1p3?$AA@ 10047548     untitled20210804_capi.obj
 0002:00003564       ??_C@_0BH@HLIFJLBC@CAN?5bit?9unpacking?51?1p4?$AA@ 10047564     untitled20210804_capi.obj
 0002:00003580       ??_C@_0BH@GCJOKKFD@CAN?5bit?9unpacking?51?1p5?$AA@ 10047580     untitled20210804_capi.obj
 0002:0000359c       ??_C@_0BH@EJLDPJJA@CAN?5bit?9unpacking?51?1p6?$AA@ 1004759c     untitled20210804_capi.obj
 0002:000035b8       ??_C@_0BH@FAKIMINB@CAN?5bit?9unpacking?51?1p7?$AA@ 100475b8     untitled20210804_capi.obj
 0002:000035d4       ??_C@_0BH@NHDANEBO@CAN?5bit?9unpacking?51?1p8?$AA@ 100475d4     untitled20210804_capi.obj
 0002:000035f0       ??_C@_0BH@MOCLOFFP@CAN?5bit?9unpacking?51?1p9?$AA@ 100475f0     untitled20210804_capi.obj
 0002:0000360c       ??_C@_0BI@CKEPAAML@CAN?5bit?9unpacking?51?1p10?$AA@ 1004760c     untitled20210804_capi.obj
 0002:00003628       ??_C@_0BI@DDFEDBIK@CAN?5bit?9unpacking?51?1p11?$AA@ 10047628     untitled20210804_capi.obj
 0002:00003644       ??_C@_0BI@BIHJGCEJ@CAN?5bit?9unpacking?51?1p12?$AA@ 10047644     untitled20210804_capi.obj
 0002:00003660       ??_C@_0BI@BGCFDAI@CAN?5bit?9unpacking?51?1p13?$AA@ 10047660     untitled20210804_capi.obj
 0002:0000367c       ??_C@_0BI@EOCDMFMP@CAN?5bit?9unpacking?51?1p14?$AA@ 1004767c     untitled20210804_capi.obj
 0002:00003698       ??_C@_0BI@FHDIPEIO@CAN?5bit?9unpacking?51?1p15?$AA@ 10047698     untitled20210804_capi.obj
 0002:000036b4       ??_C@_0BI@HMBFKHEN@CAN?5bit?9unpacking?51?1p16?$AA@ 100476b4     untitled20210804_capi.obj
 0002:000036d0       ??_C@_0BH@HMDCDMDH@CAN?5bit?9unpacking?53?1p1?$AA@ 100476d0     untitled20210804_capi.obj
 0002:000036ec       ??_C@_0BH@FHBPGPPE@CAN?5bit?9unpacking?53?1p2?$AA@ 100476ec     untitled20210804_capi.obj
 0002:00003708       ??_C@_0BH@EOAEFOLF@CAN?5bit?9unpacking?53?1p3?$AA@ 10047708     untitled20210804_capi.obj
 0002:00003724       ??_C@_0BH@BEFMIHC@CAN?5bit?9unpacking?53?1p4?$AA@ 10047724     untitled20210804_capi.obj
 0002:00003740       ??_C@_0BE@GAKKENG@tonggai1808Receive1?$AA@ 10047740     untitled20210804_capi.obj
 0002:00003758       ??_C@_0BD@JOMAEPLJ@tonggai3402Receive?$AA@ 10047758     untitled20210804_capi.obj
 0002:00003770       ??_C@_0O@KLKAEEDE@Manual?5Switch?$AA@ 10047770     untitled20210804_capi.obj
 0002:00003780       ??_C@_0P@OHECFDED@Manual?5Switch1?$AA@ 10047780     untitled20210804_capi.obj
 0002:00003794       ??_C@_08CHMPKCOC@Constant?$AA@ 10047794     untitled20210804_capi.obj
 0002:000037a0       ??_C@_05LPIJGKJ@Value?$AA@ 100477a0     untitled20210804_capi.obj
 0002:000037a8       ??_C@_09IIHOELEE@Constant1?$AA@ 100477a8     untitled20210804_capi.obj
 0002:000037b4       ??_C@_0L@KOHPMNDB@Constant10?$AA@ 100477b4     untitled20210804_capi.obj
 0002:000037c4       ??_C@_0L@LHGEPMHA@Constant11?$AA@ 100477c4     untitled20210804_capi.obj
 0002:000037d4       ??_C@_0L@JMEJKPLD@Constant12?$AA@ 100477d4     untitled20210804_capi.obj
 0002:000037e4       ??_C@_0L@IFFCJOPC@Constant13?$AA@ 100477e4     untitled20210804_capi.obj
 0002:000037f4       ??_C@_0L@MKBDAIDF@Constant14?$AA@ 100477f4     untitled20210804_capi.obj
 0002:00003804       ??_C@_0L@NDAIDJHE@Constant15?$AA@ 10047804     untitled20210804_capi.obj
 0002:00003814       ??_C@_0L@PICFGKLH@Constant16?$AA@ 10047814     untitled20210804_capi.obj
 0002:00003824       ??_C@_0L@OBDOFLPG@Constant17?$AA@ 10047824     untitled20210804_capi.obj
 0002:00003834       ??_C@_0L@GGKGEHDJ@Constant18?$AA@ 10047834     untitled20210804_capi.obj
 0002:00003844       ??_C@_0L@HPLNHGHI@Constant19?$AA@ 10047844     untitled20210804_capi.obj
 0002:00003854       ??_C@_09KDFDBIIH@Constant2?$AA@ 10047854     untitled20210804_capi.obj
 0002:00003860       ??_C@_0L@KMDJHDGI@Constant20?$AA@ 10047860     untitled20210804_capi.obj
 0002:00003870       ??_C@_0L@LFCCECCJ@Constant21?$AA@ 10047870     untitled20210804_capi.obj
 0002:00003880       ??_C@_0L@JOAPBBOK@Constant22?$AA@ 10047880     untitled20210804_capi.obj
 0002:00003890       ??_C@_0L@IHBECAKL@Constant23?$AA@ 10047890     untitled20210804_capi.obj
 0002:000038a0       ??_C@_09LKEICJMG@Constant3?$AA@ 100478a0     untitled20210804_capi.obj
 0002:000038ac       ??_C@_09PFAJLPAB@Constant4?$AA@ 100478ac     untitled20210804_capi.obj
 0002:000038b8       ??_C@_09OMBCIOEA@Constant5?$AA@ 100478b8     untitled20210804_capi.obj
 0002:000038c4       ??_C@_09MHDPNNID@Constant6?$AA@ 100478c4     untitled20210804_capi.obj
 0002:000038d0       ??_C@_09NOCEOMMC@Constant7?$AA@ 100478d0     untitled20210804_capi.obj
 0002:000038dc       ??_C@_09FJLMPAAN@Constant8?$AA@ 100478dc     untitled20210804_capi.obj
 0002:000038e8       ??_C@_09EAKHMBEM@Constant9?$AA@ 100478e8     untitled20210804_capi.obj
 0002:000038f4       ??_C@_05LFBINIGO@Table?$AA@ 100478f4     untitled20210804_capi.obj
 0002:000038fc       ??_C@_0BJ@GCDCIOIA@BreakpointsForDimension1?$AA@ 100478fc     untitled20210804_capi.obj
 0002:0000391c       ??_C@_02KKFPAPOP@P1?$AA@   1004791c     untitled20210804_capi.obj
 0002:00003920       ??_C@_02IBHCFMCM@P2?$AA@   10047920     untitled20210804_capi.obj
 0002:00003924       ??_C@_02JIGJGNGN@P3?$AA@   10047924     untitled20210804_capi.obj
 0002:00003928       ??_C@_02NHCIPLKK@P4?$AA@   10047928     untitled20210804_capi.obj
 0002:0000392c       ??_C@_03PGECKHFE@P11?$AA@  1004792c     untitled20210804_capi.obj
 0002:00003930       ??_C@_03JCCOGCFA@P15?$AA@  10047930     untitled20210804_capi.obj
 0002:00003934       ??_C@_03LJADDBJD@P16?$AA@  10047934     untitled20210804_capi.obj
 0002:00003938       ??_C@_03KABIAANC@P17?$AA@  10047938     untitled20210804_capi.obj
 0002:0000393c       ??_C@_03CHIABMBN@P18?$AA@  1004793c     untitled20210804_capi.obj
 0002:00003940       ??_C@_03DOJLCNFM@P19?$AA@  10047940     untitled20210804_capi.obj
 0002:00003944       ??_C@_03ONBPCIEM@P20?$AA@  10047944     untitled20210804_capi.obj
 0002:00003948       ??_C@_03PEAEBJAN@P21?$AA@  10047948     untitled20210804_capi.obj
 0002:0000394c       ??_C@_03NPCJEKMO@P22?$AA@  1004794c     untitled20210804_capi.obj
 0002:00003950       ??_C@_03MGDCHLIP@P23?$AA@  10047950     untitled20210804_capi.obj
 0002:00003954       ??_C@_03IJHDONEI@P24?$AA@  10047954     untitled20210804_capi.obj
 0002:00003958       ??_C@_0P@HMEAEHIM@CurrentSetting?$AA@ 10047958     untitled20210804_capi.obj
 0002:0000396c       ??_C@_0O@PPAIJIHF@unsigned?5char?$AA@ 1004796c     untitled20210804_capi.obj
 0002:0000397c       ??_C@_07NCEHLPOC@uint8_T?$AA@ 1004797c     untitled20210804_capi.obj
 0002:00003988       ??_C@_06BNJCAIGJ@double?$AA@ 10047988     untitled20210804_capi.obj
 0002:00003990       ??_C@_06CNMIJIPB@real_T?$AA@ 10047990     untitled20210804_capi.obj
 0002:00003998       ??_C@_09JBMFCIMO@boolean_T?$AA@ 10047998     untitled20210804_capi.obj
 0002:000039a4       ??_C@_0P@IIMKEEHB@unsigned?5short?$AA@ 100479a4     untitled20210804_capi.obj
 0002:000039b8       ??_C@_08NHGKGJKC@uint16_T?$AA@ 100479b8     untitled20210804_capi.obj
 0002:000039c4       ??_C@_05KNFBNCOH@float?$AA@ 100479c4     untitled20210804_capi.obj
 0002:000039cc       _serialfifoground          100479cc     xpc_datatype_ground.obj
 0002:000039d8       _bcmsg1553ground           100479d8     xpc_datatype_ground.obj
 0002:000039e8       _bcstatground              100479e8     xpc_datatype_ground.obj
 0002:00003a00       _bmmsg1553ground           10047a00     xpc_datatype_ground.obj
 0002:00003a20       _ptsetfilename             10047a20     xpctarget.obj
 0002:00003a24       _xmlfile                   10047a24     xpctarget.obj
 0002:00003a2c       ??_C@_0BB@MBNHJECJ@untitled20210804?$AA@ 10047a2c     xpctarget.obj
 0002:00003a40       ??_C@_0L@CHBJKKFC@xpceSetVar?$AA@ 10047a40     xpctarget.obj
 0002:00003a50       ??_C@_03JLBJCOMC@6?45?$AA@ 10047a50     xpctarget.obj
 0002:00003a58       __real@3fb999999999999a    10047a58     xpctarget.obj
 0002:00003a68       __real@407f400000000000    10047a68     xpctarget.obj
 0002:00003a78       _untitled20210804_BIOMAP   10047a78     appmappingData.obj
 0002:00003d10       _untitled20210804_LBLMAP   10047d10     appmappingData.obj
 0002:00003fa8       _untitled20210804_SIDMAP   10047fa8     appmappingData.obj
 0002:00004240       _untitled20210804_SBIO     10048240     appmappingData.obj
 0002:00004320       _untitled20210804_SLBL     10048320     appmappingData.obj
 0002:00004400       _untitled20210804_PTIDSMAP 10048400     appmappingData.obj
 0002:00004568       _untitled20210804_PTNAMESMAP 10048568     appmappingData.obj
 0002:000046d0       _untitled20210804_SPTMAP   100486d0     appmappingData.obj
 0002:00004784       _untitled20210804_dtmap    10048784     appmappingData.obj
 0002:000047b8       _appInfo                   100487b8     appmappingData.obj
 0002:00004abc       ??_C@_0BK@LNMFPOJE@ErrorCode?$DN?$CFd?5?5Error?5Text?3?$AA@ 10048abc     canac2pcisetupx.obj
 0002:00004adc       ??_C@_0BL@LBDCLEE@?5can?8t?5open?5IniFile?5?5?5?5?5?5?5?$AA@ 10048adc     canac2pcisetupx.obj
 0002:00004afc       ??_C@_0BL@GMCJFMGA@?5format?5error?5in?5INI?9file?5?$AA@ 10048afc     canac2pcisetupx.obj
 0002:00004b1c       ??_C@_0BL@EIFEICM@?5error?5opening?5binary?9file?$AA@ 10048b1c     canac2pcisetupx.obj
 0002:00004b3c       ??_C@_0BL@EGFOFLEL@?5error?5reading?5binary?9file?$AA@ 10048b3c     canac2pcisetupx.obj
 0002:00004b5c       ??_C@_0BL@JCLHGCOK@?5binary?9file?5too?5long?5?5?5?5?5?$AA@ 10048b5c     canac2pcisetupx.obj
 0002:00004b7c       ??_C@_0BL@DKMABEA@?5binary?9data?5format?5error?5?$AA@ 10048b7c     canac2pcisetupx.obj
 0002:00004b9c       ??_C@_0CC@NKNABABE@?5binary?9data?5checksum?5error?5?5?5?5?5@ 10048b9c     canac2pcisetupx.obj
 0002:00004bc4       ??_C@_0BL@IANOGCDJ@?5no?5card?5present?5?5?5?5?5?5?5?5?5?5?$AA@ 10048bc4     canac2pcisetupx.obj
 0002:00004be4       ??_C@_0BL@DEPHJBMB@?5no?5physical?5memory?5?5?5?5?5?5?5?$AA@ 10048be4     canac2pcisetupx.obj
 0002:00004c04       ??_C@_0BL@NKJKAOEG@?5invalid?5IRQ?9number?5?5?5?5?5?5?5?$AA@ 10048c04     canac2pcisetupx.obj
 0002:00004c24       ??_C@_0BL@DHOAIMOD@?5error?5accessing?5dpram?5?5?5?5?$AA@ 10048c24     canac2pcisetupx.obj
 0002:00004c44       ??_C@_0BL@BHDCLMIJ@?5bad?5response?5from?5card?5?5?5?$AA@ 10048c44     canac2pcisetupx.obj
 0002:00004c64       ??_C@_0BL@HECAOICO@?5sram?5seems?5to?5be?5damaged?5?$AA@ 10048c64     canac2pcisetupx.obj
 0002:00004c84       ??_C@_0CC@BLEKLLPB@?5invalid?5program?5start?5address?5?5@ 10048c84     canac2pcisetupx.obj
 0002:00004cac       ??_C@_0BL@OGENALEB@?5invalid?5record?5type?5?5?5?5?5?5?$AA@ 10048cac     canac2pcisetupx.obj
 0002:00004ccc       ??_C@_0CC@LLIEHGNJ@?5no?5response?5after?5program?5start@ 10048ccc     canac2pcisetupx.obj
 0002:00004cf4       ??_C@_0CC@EHIDOFAK@?5bad?5response?5after?5program?5star@ 10048cf4     canac2pcisetupx.obj
 0002:00004d1c       ??_C@_0BL@JLDDBAKE@?5pcmcia?5chip?5not?5supported?$AA@ 10048d1c     canac2pcisetupx.obj
 0002:00004d3c       ??_C@_0CC@MLFENEO@?5error?5reading?5ocmcia?5parameters@ 10048d3c     canac2pcisetupx.obj
 0002:00004d64       ??_C@_0BL@LGEMKKDE@?5error?5initializing?5chip?5?5?$AA@ 10048d64     canac2pcisetupx.obj
 0002:00004d84       ??_C@_0O@JGGAGPAH@return?5value?5?$AA@ 10048d84     canac2pcisetupx.obj
 0002:00004d94       ??_C@_01EEMJAFIK@?6?$AA@   10048d94     canac2pcisetupx.obj
 0002:00004d98       ??_C@_0CL@LLBFOOA@?9?9?$DOError?5in?5CANPC_start_chip_mbx@ 10048d98     canac2pcisetupx.obj
 0002:00004dcc       ??_C@_0DE@GGIMIOBE@?9?9?$DOError?5in?5CANPC_enable_dyn_obj@ 10048dcc     canac2pcisetupx.obj
 0002:00004e0c       ??_C@_0DG@JCBGLGDJ@?9?9?$DOError?5in?5CANPC_initialize_int@ 10048e0c     canac2pcisetupx.obj
 0002:00004e50       ??_C@_0EF@CKEKFKJF@?9?9?$DOError?5in?5CANPC_define_object_@ 10048e50     canac2pcisetupx.obj
 0002:00004ea4       ??_C@_0BL@LJLMJMND@indexing?5assumption?5failed?$AA@ 10048ea4     canac2pcisetupx.obj
 0002:00004ec4       ??_C@_0DP@KBMGJHFI@?9?9?$DOError?5in?5CANPC_define_object_@ 10048ec4     canac2pcisetupx.obj
 0002:00004f10       ??_C@_0DN@MLCNOCPB@?9?9?$DOError?5in?5CANPC_define_object2@ 10048f10     canac2pcisetupx.obj
 0002:00004f60       ??_C@_0EA@MEKOONNL@?9?9?$DOError?5in?5CANPC_define_object2@ 10048f60     canac2pcisetupx.obj
 0002:00004fac       ??_C@_0CN@FHALBPDL@?9?9?$DOError?5in?5CANPC_reset_chip_mbx@ 10048fac     canac2pcisetupx.obj
 0002:00004fe4       ??_C@_0CP@JPNCEBFF@?9?9?$DOError?5in?5CANPC_init_signals_m@ 10048fe4     canac2pcisetupx.obj
 0002:0000501c       ??_C@_0DA@CNNNEDOA@?9?9?$DOError?5in?5CANPC_read_signals1_@ 1004901c     canac2pcisetupx.obj
 0002:00005058       ??_C@_0DA@MHFLJOIC@?9?9?$DOError?5in?5CANPC_read_signals2_@ 10049058     canac2pcisetupx.obj
 0002:00005094       ??_C@_0DB@EGCEMPCG@?9?9?$DOError?5in?5CANPC_write_signals1@ 10049094     canac2pcisetupx.obj
 0002:000050d0       ??_C@_0DB@FBLNJFFM@?5?5?5?5?5?5?5?5CAN?51?3?5Physical?5bus?5chan@ 100490d0     canac2pcisetupx.obj
 0002:0000510c       ??_C@_0CM@BFGEKPCM@?5?5?5?5?5?5?5?5CAN?51?3?5Lowspeed?5module?5n@ 1004910c     canac2pcisetupx.obj
 0002:00005140       ??_C@_0DB@KMKCBCEE@?9?9?$DOError?5in?5CANPC_write_signals2@ 10049140     canac2pcisetupx.obj
 0002:0000517c       ??_C@_0DB@LNMKKDM@?5?5?5?5?5?5?5?5CAN?52?3?5Physical?5bus?5chan@ 1004917c     canac2pcisetupx.obj
 0002:000051b8       ??_C@_0CM@NMHLKHJD@?5?5?5?5?5?5?5?5CAN?52?3?5Lowspeed?5module?5n@ 100491b8     canac2pcisetupx.obj
 0002:000051ec       ??_C@_0DC@FADAOIKF@?9?9?$DOError?5in?5CANPC_initialize_chi@ 100491ec     canac2pcisetupx.obj
 0002:00005228       ??_C@_0DD@COBNGEFP@?9?9?$DOError?5in?5CANPC_initialize_chi@ 10049228     canac2pcisetupx.obj
 0002:00005268       ??_C@_0DB@EKIEPFNP@?9?9?$DOError?5in?5CANPC_set_acceptance@ 10049268     canac2pcisetupx.obj
 0002:000052a4       ??_C@_0DC@JONHEIGA@?9?9?$DOError?5in?5CANPC_set_acceptance@ 100492a4     canac2pcisetupx.obj
 0002:000052e0       ??_C@_0CL@DEKLAPHL@?9?9?$DOError?5in?5CANPC_set_mode_mbx?0?5@ 100492e0     canac2pcisetupx.obj
 0002:00005314       ??_C@_0CM@EPBCAAGL@?9?9?$DOError?5in?5CANPC_set_mode2_mbx?0@ 10049314     canac2pcisetupx.obj
 0002:00005348       ??_C@_0DF@HHJLLCJD@?9?9?$DOError?5in?5CANPC_set_output_con@ 10049348     canac2pcisetupx.obj
 0002:00005388       ??_C@_0DG@OBIAFKJM@?9?9?$DOError?5in?5CANPC_set_output_con@ 10049388     canac2pcisetupx.obj
 0002:000053c8       ??_C@_0ED@LKHIFFLC@Wrong?5number?5of?5input?5arguments?5@ 100493c8     canac2pcisetupx.obj
 0002:00005418       ??_C@_0BE@EGCKDKDM@init?5ret?5code?50x?$CFx?6?$AA@ 10049418     canac2pcisetupx.obj
 0002:00005430       ??_C@_0CM@DJALBMJK@CAN?9AC2?9PCI?5Board?5?$CFd?3?5Initializa@ 10049430     canac2pcisetupx.obj
 0002:00005464       ??_C@_0DG@IKMIDPHG@?5?5?5?5?5?5?5?5downloading?5CAN?9AC2?9PCI?5@ 10049464     canac2pcisetupx.obj
 0002:000054a4       ??_C@_0CE@MOOIFDOM@?9?9?$DOError?5in?5CANPC_reset_board_mb@ 100494a4     canac2pcisetupx.obj
 0002:000054d0       ??_C@_0DD@EAPAOCNE@?5?5?5?5?5?5?5?5downloading?5CAN?9AC2?9PCI?5@ 100494d0     canac2pcisetupx.obj
 0002:00005510       ??_C@_0CF@IJHBPDBG@?9?9?$DOInitialize_can_parameter?5fail@ 10049510     canac2pcisetupx.obj
 0002:0000553c       ??_C@_0CA@PAJEMEGP@?9?9?$DOInitialize_DOB_mode?5failed?5?6?$AA@ 1004953c     canac2pcisetupx.obj
 0002:00005564       ??_C@_0BH@DGCALJLI@?9?9?$DOStart_chip?5failed?5?6?$AA@ 10049564     canac2pcisetupx.obj
 0002:00005580       ??_C@_0CK@CFMOHDPD@ERROR?3?5?5CANPC_write_object_mbx?5C@ 10049580     canac2pcisetupx.obj
 0002:000055b4       ??_C@_0CK@BECGGJGO@ERROR?3?5?5CANPC_write_object_mbx?5C@ 100495b4     canac2pcisetupx.obj
 0002:000055e8       ??_C@_0O@KDNHLNEN@canac2_sem_?$CFd?$AA@ 100495e8     canac2pcisetupx.obj
 0002:000055f8       ??_C@_0CP@OANLNPFC@?9?9?$DOError?5in?5CANPC_reinitialize_m@ 100495f8     canac2pcisetupx.obj
 0002:00005630       __real@4000000000000000    10049630     canac2pcisetupx.obj
 0002:00005640       __real@4008000000000000    10049640     canac2pcisetupx.obj
 0002:0000564c       ??_C@_0O@CHBECCKN@?2LOADCARD?4INI?$AA@ 1004964c     xpccanac2pci_vc:card_can_mbx.obj
 0002:0000565c       ??_C@_02CEGDFPFP@?4?2?$AA@ 1004965c     xpccanac2pci_vc:card_can_mbx.obj
 0002:00005660       __real@408f400000000000    10049660     xpccanac2pci_vc:card_can_mbx.obj
 0002:00005668       __real@4132342800000000    10049668     xpccanac2pci_vc:card_can_mbx.obj
 0002:00005670       ??_C@_07JJGBLIAE@PCI?2VEN?$AA@ 10049670     xpccanac2pci_vc:devacc32_mbx.obj
 0002:00005678       ??_C@_0CC@KFAPHHGD@SOFTING?5GmbH?5CAN?9AC?5PCI?5Interfac@ 10049678     xpccanac2pci_vc:devacc32_mbx.obj
 0002:0000569c       ??_C@_0M@EKFABCAE@LDBOARD?4INI?$AA@ 1004969c     xpccanac2pci_vc:devacc32_mbx.obj
 0002:000056a8       ??_C@_0M@BCALDNPE@BOOT_CP?4SBN?$AA@ 100496a8     xpccanac2pci_vc:devacc32_mbx.obj
 0002:000056b4       ??_C@_0M@DDKPMKFM@LDBOARD?4SBN?$AA@ 100496b4     xpccanac2pci_vc:devacc32_mbx.obj
 0002:000056c0       ??_C@_0L@OMFEIHM@CANPCI?4SBN?$AA@ 100496c0     xpccanac2pci_vc:devacc32_mbx.obj
 0002:000056cc       ??_C@_08DCGOAHCE@VCANPCID?$AA@ 100496cc     xpccanac2pci_vc:devacc32_mbx.obj
 0002:000056d8       ??_C@_0M@IANJNLEG@enable?5IRQ?6?$AA@ 100496d8     xpccanac2pci_vc:devacc32_mbx.obj
 0002:000056e8       ??_C@_0EK@HKKPIPEA@?6ERROR?5in?5a?5CAN?9AC2?9PCI?5driver?3?5@ 100496e8     xpccanac2pci_vc:devacc32_mbx.obj
 0002:00005738       ??_C@_0FF@COKCEECK@?6ERROR?5in?5?5CAN?9AC2?9PCI?5driver?3?5C@ 10049738     xpccanac2pci_vc:devacc32_mbx.obj
 0002:00005790       ??_C@_07KAJBENLI@Error?3?5?$AA@ 10049790     xpccanac2pci_vc:loadcard_mbx.obj
 0002:00005798       ??_C@_09CKCJCCOK@Warning?3?5?$AA@ 10049798     xpccanac2pci_vc:loadcard_mbx.obj
 0002:000057a4       ??_C@_0CH@GIHNHFPH@Structured?5Binary?5Format?0?5Softin@ 100497a4     xpccanac2pci_vc:loadcard_mbx.obj
 0002:000057cc       ??_C@_0CK@OALHOBHI@?$CFscard?5DPRAM?5cannot?5be?5accessed?5@ 100497cc     xpccanac2pci_vc:loadcard_mbx.obj
 0002:000057f8       ??_C@_0BL@DNJKJNDF@?$CFscan?8t?5open?5BootFile?5?8?$CFs?8?$AA@ 100497f8     xpccanac2pci_vc:loadcard_mbx.obj
 0002:00005814       ??_C@_0BL@FEBBJGBM@?$CFscan?8t?5read?5BootFile?5?8?$CFs?8?$AA@ 10049814     xpccanac2pci_vc:loadcard_mbx.obj
 0002:00005830       ??_C@_0CH@LHLLKLCM@?$CFsBootFile?5size?5exceeds?5DPRAM?5si@ 10049830     xpccanac2pci_vc:loadcard_mbx.obj
 0002:00005858       ??_C@_0DA@JPMOGDAF@?$CFsBootFile?5?8?$CFs?8?5has?5no?5Structure@ 10049858     xpccanac2pci_vc:loadcard_mbx.obj
 0002:00005888       ??_C@_0CC@IGEBFOHK@?$CFswrong?5checksum?5in?5BootFile?5?8?$CFs@ 10049888     xpccanac2pci_vc:loadcard_mbx.obj
 0002:000058ac       ??_C@_0BL@LBMGNPGA@?$CFscan?8t?5open?5LoadFile?5?8?$CFs?8?$AA@ 100498ac     xpccanac2pci_vc:loadcard_mbx.obj
 0002:000058c8       ??_C@_0BL@NIENNEEJ@?$CFscan?8t?5read?5LoadFile?5?8?$CFs?8?$AA@ 100498c8     xpccanac2pci_vc:loadcard_mbx.obj
 0002:000058e4       ??_C@_0CH@PMPLLKEH@?$CFsLoadFile?5size?5exceeds?5DPRAM?5si@ 100498e4     xpccanac2pci_vc:loadcard_mbx.obj
 0002:0000590c       ??_C@_0DA@NAHNMCBP@?$CFsLoadFile?5?8?$CFs?8?5has?5no?5Structure@ 1004990c     xpccanac2pci_vc:loadcard_mbx.obj
 0002:0000593c       ??_C@_0CC@KBNBMCP@?$CFswrong?5checksum?5in?5LoadFile?5?8?$CFs@ 1004993c     xpccanac2pci_vc:loadcard_mbx.obj
 0002:00005960       ??_C@_0CG@DEOKDKBE@?$CFsno?5response?5from?5card?5after?5bo@ 10049960     xpccanac2pci_vc:loadcard_mbx.obj
 0002:00005988       ??_C@_0CG@DDJEONLI@?$CFsno?5response?5from?5card?5while?5lo@ 10049988     xpccanac2pci_vc:loadcard_mbx.obj
 0002:000059b0       ??_C@_0CN@MNKDHG@?$CFsbad?5response?5from?5card?5after?5b@ 100499b0     xpccanac2pci_vc:loadcard_mbx.obj
 0002:000059e0       ??_C@_0CH@PJFOINGG@?$CFsbad?5response?5from?5card?5while?5l@ 100499e0     xpccanac2pci_vc:loadcard_mbx.obj
 0002:00005a08       ??_C@_0CA@NFABAKKG@?$CFscard?5SRAM?5seems?5to?5be?5damaged?$AA@ 10049a08     xpccanac2pci_vc:loadcard_mbx.obj
 0002:00005a28       ??_C@_0CM@OKEHKJEF@?$CFsno?5response?5from?5card?5after?5pr@ 10049a28     xpccanac2pci_vc:loadcard_mbx.obj
 0002:00005a54       ??_C@_0CN@NOIJLOKD@?$CFsbad?5response?5from?5card?5after?5p@ 10049a54     xpccanac2pci_vc:loadcard_mbx.obj
 0002:00005a84       ??_C@_0BB@NFIGKIIA@card?5not?5booted?6?$AA@ 10049a84     xpccanac2pci_vc:loadcard_mbx.obj
 0002:00005a98       __real@3e112e0be826d695    10049a98     xpcruntime:xpcPCFunctions.obj
 0002:00005aa0       __real@3f538bcdfefbf402    10049aa0     xpcruntime:xpcPCFunctions.obj
 0002:00005aa8       __real@40112e0be826d695    10049aa8     xpcruntime:xpcPCFunctions.obj
 0002:00005ab0       __real@40f0000000000000    10049ab0     xpcruntime:xpcPCFunctions.obj
 0002:00005ab8       ??_C@_0CC@DMFKNLL@VendorId?5?$DN?50x?$CFx?0?5DeviceId?5?$DN?50x?$CFx@ 10049ab8     xpcruntime:xpcimports.obj
 0002:00005adc       ??_C@_0DH@OHCBLNMG@Subsystem?5Device?5ID?5?$DN?50x?$CFx?6Subsy@ 10049adc     xpcruntime:xpcimports.obj
 0002:00005b14       ??_C@_0BD@MMMMEFCM@Class?5Code?5?$DN?50x?$CFx?6?$AA@ 10049b14     xpcruntime:xpcimports.obj
 0002:00005b28       ??_C@_0BE@OLDDDNHM@InterruptLine?5?$DN?5?$CFd?6?$AA@ 10049b28     xpcruntime:xpcimports.obj
 0002:00005b3c       ??_C@_0BF@OLKLEKBD@bus?5?$DN?5?$CFd?0?5slot?5?$DN?5?$CFd?6?$AA@ 10049b3c     xpcruntime:xpcimports.obj
 0002:00005b54       ??_C@_0CE@DGLLGDFH@?5?5?5?5Phys?5?5?5Virtual?5?5?5Length?5IO?1M@ 10049b54     xpcruntime:xpcimports.obj
 0002:00005b78       ??_C@_0BI@FEOPLEMG@?$CF08x?5?$CF08x?5?$CF08x?5?5?5?5?5?5?$CFc?6?$AA@ 10049b78     xpcruntime:xpcimports.obj
 0002:00005b90       ??_C@_0BB@BNNCEDPC@rl32eScopeExists?$AA@ 10049b90     xpcruntime:xpcimports.obj
 0002:00005ba4       ??_C@_0BM@FJBFEGFG@rl32eScopeExists?5not?5found?6?$AA@ 10049ba4     xpcruntime:xpcimports.obj
 0002:00005bc0       ??_C@_0O@BNNGKJEA@rl32eDefScope?$AA@ 10049bc0     xpcruntime:xpcimports.obj
 0002:00005bd0       ??_C@_0BJ@CDNOENKA@rl32eDefScope?5not?5found?6?$AA@ 10049bd0     xpcruntime:xpcimports.obj
 0002:00005bec       ??_C@_0P@CKNKILDP@rl32eAddSignal?$AA@ 10049bec     xpcruntime:xpcimports.obj
 0002:00005bfc       ??_C@_0BK@GMJAJBAI@rl32eAddSignal?5not?5found?6?$AA@ 10049bfc     xpcruntime:xpcimports.obj
 0002:00005c18       ??_C@_0BB@LDMIHGCE@rl32eGetSignalNo?$AA@ 10049c18     xpcruntime:xpcimports.obj
 0002:00005c2c       ??_C@_0BM@LGAMBAID@rl32eGetSignalNo?5not?5found?6?$AA@ 10049c2c     xpcruntime:xpcimports.obj
 0002:00005c48       ??_C@_0O@CFDGALBP@rl32eSetScope?$AA@ 10049c48     xpcruntime:xpcimports.obj
 0002:00005c58       ??_C@_0BJ@JCLHHIN@rl32eSetScope?5not?5found?6?$AA@ 10049c58     xpcruntime:xpcimports.obj
 0002:00005c74       ??_C@_0P@IKMCBMHH@xpceFSScopeSet?$AA@ 10049c74     xpcruntime:xpcimports.obj
 0002:00005c84       ??_C@_0BK@JODJPNNH@xpceFSScopeSet?5not?5found?6?$AA@ 10049c84     xpcruntime:xpcimports.obj
 0002:00005ca0       ??_C@_0BE@DLACEEJM@rl32eSetTargetScope?$AA@ 10049ca0     xpcruntime:xpcimports.obj
 0002:00005cb4       ??_C@_0BP@JCHFMKPJ@rl32eSetTargetScope?5not?5found?6?$AA@ 10049cb4     xpcruntime:xpcimports.obj
 0002:00005cd4       ??_C@_0BJ@LIDLNDHC@rl32eSetTargetScopeSigFt?$AA@ 10049cd4     xpcruntime:xpcimports.obj
 0002:00005cf0       ??_C@_0CE@JLGHCFHI@rl32eSetTargetScopeSigFt?5not?5fou@ 10049cf0     xpcruntime:xpcimports.obj
 0002:00005d14       ??_C@_0BI@JAPOIDNG@rl32eRestartAcquisition?$AA@ 10049d14     xpcruntime:xpcimports.obj
 0002:00005d2c       ??_C@_0CD@LLBEFFBO@rl32eRestartAcquisition?5not?5foun@ 10049d2c     xpcruntime:xpcimports.obj
 0002:00005d50       ??_C@_0P@IEIIADJB@xpceScopeAcqOK?$AA@ 10049d50     xpcruntime:xpcimports.obj
 0002:00005d60       ??_C@_0BK@NJCKNFPN@xpceScopeAcqOK?5not?5found?6?$AA@ 10049d60     xpcruntime:xpcimports.obj
 0002:00005d7c       ??_C@_0BA@IJINKAHF@xpceRegisterISR?$AA@ 10049d7c     xpcruntime:xpcimports.obj
 0002:00005d8c       ??_C@_0BL@NNDLOEJE@xpceRegisterISR?5not?5found?6?$AA@ 10049d8c     xpcruntime:xpcimports.obj
 0002:00005da8       ??_C@_0BC@NLBADGKF@xpceDeRegisterISR?$AA@ 10049da8     xpcruntime:xpcimports.obj
 0002:00005dbc       ??_C@_0BN@DCAIKFFD@xpceDeRegisterISR?5not?5found?6?$AA@ 10049dbc     xpcruntime:xpcimports.obj
 0002:00005ddc       ??_C@_07JPMEPILD@xpcInpB?$AA@ 10049ddc     xpcruntime:xpcimports.obj
 0002:00005de4       ??_C@_0BD@PGABEJOL@xpcInpB?5not?5found?6?$AA@ 10049de4     xpcruntime:xpcimports.obj
 0002:00005df8       ??_C@_07KIHBBOKH@xpcInpW?$AA@ 10049df8     xpcruntime:xpcimports.obj
 0002:00005e00       ??_C@_0BD@FPCJFMCC@xpcInpW?5not?5found?6?$AA@ 10049e00     xpcruntime:xpcimports.obj
 0002:00005e14       ??_C@_08KDIAJBOP@xpcInpDW?$AA@ 10049e14     xpcruntime:xpcimports.obj
 0002:00005e20       ??_C@_0BE@PIELDNIL@xpcInpDW?5not?5found?6?$AA@ 10049e20     xpcruntime:xpcimports.obj
 0002:00005e34       ??_C@_08PJFMOIGO@xpcOutpB?$AA@ 10049e34     xpcruntime:xpcimports.obj
 0002:00005e40       ??_C@_0BE@HCKNCEKF@xpcOutpB?5not?5found?6?$AA@ 10049e40     xpcruntime:xpcimports.obj
 0002:00005e54       ??_C@_08MOOJAOHK@xpcOutpW?$AA@ 10049e54     xpcruntime:xpcimports.obj
 0002:00005e60       ??_C@_0BE@NLIFDBGM@xpcOutpW?5not?5found?6?$AA@ 10049e60     xpcruntime:xpcimports.obj
 0002:00005e74       ??_C@_09FLIEKHJG@xpcOutpDW?$AA@ 10049e74     xpcruntime:xpcimports.obj
 0002:00005e80       ??_C@_0BF@GJKLPNHB@xpcOutpDW?5not?5found?6?$AA@ 10049e80     xpcruntime:xpcimports.obj
 0002:00005e98       ??_C@_0BH@EHOLELHH@xpcReserveMemoryRegion?$AA@ 10049e98     xpcruntime:xpcimports.obj
 0002:00005eb0       ??_C@_0CC@KAAAGPI@xpcReserveMemoryRegion?5not?5found@ 10049eb0     xpcruntime:xpcimports.obj
 0002:00005ed4       ??_C@_0BA@JGPMHGAF@rl32eShowPCIDev?$AA@ 10049ed4     xpcruntime:xpcimports.obj
 0002:00005ee4       ??_C@_0BL@DDFFLNHI@rl32eShowPCIDev?5not?5found?6?$AA@ 10049ee4     xpcruntime:xpcimports.obj
 0002:00005f00       ??_C@_0BB@KBCOJPFB@rl32eShowPCIInfo?$AA@ 10049f00     xpcruntime:xpcimports.obj
 0002:00005f14       ??_C@_0BM@IFDMAGLO@rl32eShowPCIInfo?5not?5found?6?$AA@ 10049f14     xpcruntime:xpcimports.obj
 0002:00005f30       ??_C@_0BA@BGPAADB@rl32eGetPCIInfo?$AA@ 10049f30     xpcruntime:xpcimports.obj
 0002:00005f40       ??_C@_0BL@IGOMLDCK@rl32eGetPCIInfo?5not?5found?6?$AA@ 10049f40     xpcruntime:xpcimports.obj
 0002:00005f5c       ??_C@_0BG@NJPFKFDP@rl32eGetPCIInfoAtSlot?$AA@ 10049f5c     xpcruntime:xpcimports.obj
 0002:00005f74       ??_C@_0CB@BBKIPMLA@rl32eGetPCIInfoAtSlot?5not?5found?6@ 10049f74     xpcruntime:xpcimports.obj
 0002:00005f98       ??_C@_0BH@OKBOPNFG@xpceAssignPCIInterrupt?$AA@ 10049f98     xpcruntime:xpcimports.obj
 0002:00005fb0       ??_C@_0CC@CDNDNJBJ@xpceAssignPCIInterrupt?5not?5found@ 10049fb0     xpcruntime:xpcimports.obj
 0002:00005fd4       ??_C@_0BD@PCKOKHO@xpceGetSignalValue?$AA@ 10049fd4     xpcruntime:xpcimports.obj
 0002:00005fe8       ??_C@_0BO@GCBDJHMB@xpceGetSignalValue?5not?5found?6?$AA@ 10049fe8     xpcruntime:xpcimports.obj
 0002:00006008       ??_C@_0BB@BJONJAGA@xpceSetParameter?$AA@ 1004a008     xpcruntime:xpcimports.obj
 0002:0000601c       ??_C@_0BM@BJIKDLHA@xpceSetParameter?5not?5found?6?$AA@ 1004a01c     xpcruntime:xpcimports.obj
 0002:00006038       ??_C@_0BB@GNFDFMCM@xpceGetParameter?$AA@ 1004a038     xpcruntime:xpcimports.obj
 0002:0000604c       ??_C@_0BM@POHNKBC@xpceGetParameter?5not?5found?6?$AA@ 1004a04c     xpcruntime:xpcimports.obj
 0002:00006068       ??_C@_0BB@CEIJLFCD@xpceGetParamDims?$AA@ 1004a068     xpcruntime:xpcimports.obj
 0002:0000607c       ??_C@_0BM@OABDBKAO@xpceGetParamDims?5not?5found?6?$AA@ 1004a07c     xpcruntime:xpcimports.obj
 0002:00006098       ??_C@_0L@OCBLLHBM@xpceGetTET?$AA@ 1004a098     xpcruntime:xpcimports.obj
 0002:000060a4       ??_C@_0BG@HNOFBOB@xpceGetTET?5not?5found?6?$AA@ 1004a0a4     xpcruntime:xpcimports.obj
 0002:000060bc       ??_C@_0P@OKGNGAGH@xpcIsModelInit?$AA@ 1004a0bc     xpcruntime:xpcimports.obj
 0002:000060cc       ??_C@_0BK@DHEMLBIM@xpcIsModelInit?5not?5found?6?$AA@ 1004a0cc     xpcruntime:xpcimports.obj
 0002:000060e8       ??_C@_0BH@KJJLCAOJ@xpcAllocPhysicalMemory?$AA@ 1004a0e8     xpcruntime:xpcimports.obj
 0002:00006100       ??_C@_0CC@MOJPNHKL@xpcAllocPhysicalMemory?5not?5found@ 1004a100     xpcruntime:xpcimports.obj
 0002:00006124       ??_C@_0BG@CBNPGAEL@xpcFreePhysicalMemory?$AA@ 1004a124     xpcruntime:xpcimports.obj
 0002:0000613c       ??_C@_0CB@PKJEBPOG@xpcFreePhysicalMemory?5not?5found?6@ 1004a13c     xpcruntime:xpcimports.obj
 0002:00006160       ??_C@_0BC@JGKNLICL@xpcGetElapsedTime?$AA@ 1004a160     xpcruntime:xpcimports.obj
 0002:00006174       ??_C@_0BN@OEOAHCIO@xpcGetElapsedTime?5not?5found?6?$AA@ 1004a174     xpcruntime:xpcimports.obj
 0002:00006194       ??_C@_0M@ICBLMODA@xpcBusyWait?$AA@ 1004a194     xpcruntime:xpcimports.obj
 0002:000061a0       ??_C@_0BH@FBOPECBI@xpcBusyWait?5not?5found?6?$AA@ 1004a1a0     xpcruntime:xpcimports.obj
 0002:000061b8       ??_C@_0N@LKKJEKKA@TBCreateSpin?$AA@ 1004a1b8     xpcruntime:xpcimports.obj
 0002:000061c8       ??_C@_0BI@FHKMLKOE@TBCreateSpin?5not?5found?6?$AA@ 1004a1c8     xpcruntime:xpcimports.obj
 0002:000061e0       ??_C@_0N@HOAJHNBD@TBDeleteSpin?$AA@ 1004a1e0     xpcruntime:xpcimports.obj
 0002:000061f0       ??_C@_0BI@BKCPAAG@TBDeleteSpin?5not?5found?6?$AA@ 1004a1f0     xpcruntime:xpcimports.obj
 0002:00006208       ??_C@_0P@DAHDDBJG@TBTakeSpinFast?$AA@ 1004a208     xpcruntime:xpcimports.obj
 0002:00006218       ??_C@_0BK@NKAIBHGB@TBTakeSpinFast?5not?5found?6?$AA@ 1004a218     xpcruntime:xpcimports.obj
 0002:00006234       ??_C@_0P@FKNAAELA@TBGiveSpinFast?$AA@ 1004a234     xpcruntime:xpcimports.obj
 0002:00006244       ??_C@_0BK@KGPJBJND@TBGiveSpinFast?5not?5found?6?$AA@ 1004a244     xpcruntime:xpcimports.obj
 0002:00006260       ??_C@_0BE@IIGBFDHK@xpceCreateSemaphore?$AA@ 1004a260     xpcruntime:xpcimports.obj
 0002:00006274       ??_C@_0BP@KFBAFFKJ@xpceCreateSemaphore?5not?5found?6?$AA@ 1004a274     xpcruntime:xpcimports.obj
 0002:00006294       ??_C@_0BC@IFNIONKJ@xpceWaitSemaphore?$AA@ 1004a294     xpcruntime:xpcimports.obj
 0002:000062a8       ??_C@_0BN@NMFAADIO@xpceWaitSemaphore?5not?5found?6?$AA@ 1004a2a8     xpcruntime:xpcimports.obj
 0002:000062c8       ??_C@_0BE@NNDIOBKE@xpceSignalSemaphore?$AA@ 1004a2c8     xpcruntime:xpcimports.obj
 0002:000062dc       ??_C@_0BP@LBANMHJP@xpceSignalSemaphore?5not?5found?6?$AA@ 1004a2dc     xpcruntime:xpcimports.obj
 0002:000062fc       ??_C@_0BE@MEBEKOIM@xpceDeleteSemaphore?$AA@ 1004a2fc     xpcruntime:xpcimports.obj
 0002:00006310       ??_C@_0BP@OFNCKOJH@xpceDeleteSemaphore?5not?5found?6?$AA@ 1004a310     xpcruntime:xpcimports.obj
 0002:00006330       ??_C@_0BD@MFNDMBOF@FindUsbVideoDevice?$AA@ 1004a330     xpcruntime:xpcimports.obj
 0002:00006344       ??_C@_0BO@POKLDHMI@FindUsbVideoDevice?5not?5found?6?$AA@ 1004a344     xpcruntime:xpcimports.obj
 0002:00006364       ??_C@_0BA@PLPAPNAB@GetVideoConfigs?$AA@ 1004a364     xpcruntime:xpcimports.obj
 0002:00006374       ??_C@_0BL@DALDHKHC@GetVideoConfigs?5not?5found?6?$AA@ 1004a374     xpcruntime:xpcimports.obj
 0002:00006390       ??_C@_0L@GBAEMHMH@StartVideo?$AA@ 1004a390     xpcruntime:xpcimports.obj
 0002:0000639c       ??_C@_0BG@HDCELEBP@StartVideo?5not?5found?6?$AA@ 1004a39c     xpcruntime:xpcimports.obj
 0002:000063b4       ??_C@_0BA@FDNPOCLN@ReadFrameBuffer?$AA@ 1004a3b4     xpcruntime:xpcimports.obj
 0002:000063c4       ??_C@_0BL@JHGHPNBI@ReadFrameBuffer?5not?5found?6?$AA@ 1004a3c4     xpcruntime:xpcimports.obj
 0002:000063e0       ??_C@_09FAHCLKAG@StopVideo?$AA@ 1004a3e0     xpcruntime:xpcimports.obj
 0002:000063ec       ??_C@_0BF@NKGKKADL@StopVideo?5not?5found?6?$AA@ 1004a3ec     xpcruntime:xpcimports.obj
 0002:00006404       ??_C@_0O@MCPKDLLL@ConvertUImage?$AA@ 1004a404     xpcruntime:xpcimports.obj
 0002:00006414       ??_C@_0BJ@PHJKOAFL@ConvertUImage?5not?5found?6?$AA@ 1004a414     xpcruntime:xpcimports.obj
 0002:00006430       ??_C@_0BD@NKCBPBJJ@CreateVideoDisplay?$AA@ 1004a430     xpcruntime:xpcimports.obj
 0002:00006444       ??_C@_0BO@HPPLLNFP@CreateVideoDisplay?5not?5found?6?$AA@ 1004a444     xpcruntime:xpcimports.obj
 0002:00006464       ??_C@_0BE@KJCKGPHA@DestroyVideoDisplay?$AA@ 1004a464     xpcruntime:xpcimports.obj
 0002:00006478       ??_C@_0BP@FMGLJAIJ@DestroyVideoDisplay?5not?5found?6?$AA@ 1004a478     xpcruntime:xpcimports.obj
 0002:00006498       ??_C@_0BC@HCMIMIDN@StartVideoDisplay?$AA@ 1004a498     xpcruntime:xpcimports.obj
 0002:000064ac       ??_C@_0BN@EFIEBGOO@StartVideoDisplay?5not?5found?6?$AA@ 1004a4ac     xpcruntime:xpcimports.obj
 0002:000064cc       ??_C@_0BB@JBBLMILG@StopVideoDisplay?$AA@ 1004a4cc     xpcruntime:xpcimports.obj
 0002:000064e0       ??_C@_0BM@DBJBPLEL@StopVideoDisplay?5not?5found?6?$AA@ 1004a4e0     xpcruntime:xpcimports.obj
 0002:000064fc       ??_C@_0M@MFJEGMHC@StreamVideo?$AA@ 1004a4fc     xpcruntime:xpcimports.obj
 0002:00006508       ??_C@_0BH@OINCDMLA@StreamVideo?5not?5found?6?$AA@ 1004a508     xpcruntime:xpcimports.obj
 0002:00006520       ??_C@_0N@IGGLCIGE@xpceaddEvent?$AA@ 1004a520     xpcruntime:xpcimports.obj
 0002:00006530       ??_C@_0BI@NHJNFMKH@xpceaddEvent?5not?5found?6?$AA@ 1004a530     xpcruntime:xpcimports.obj
 0002:00006548       ??_C@_0BB@LCMHHHFN@getMemoryService?$AA@ 1004a548     xpcruntime:xpcimports.obj
 0002:0000655c       ??_C@_0BM@MPLCNIIE@getMemoryService?5not?5found?6?$AA@ 1004a55c     xpcruntime:xpcimports.obj
 0002:00006578       ??_C@_0P@KIKONDKK@getCommService?$AA@ 1004a578     xpcruntime:xpcimports.obj
 0002:00006588       ??_C@_0BK@NCECBKNM@getCommService?5not?5found?6?$AA@ 1004a588     xpcruntime:xpcimports.obj
 0002:000065a4       ??_C@_0P@GDLHFECE@getStatusFlags?$AA@ 1004a5a4     xpcruntime:xpcimports.obj
 0002:000065b4       ??_C@_0BK@NEKDLJHG@getStatusFlags?5not?5found?6?$AA@ 1004a5b4     xpcruntime:xpcimports.obj
 0002:000065d0       ??_C@_0BL@CDFCLKOL@startToAsyncQueueTgtAppSvc?$AA@ 1004a5d0     xpcruntime:xpcimports.obj
 0002:000065ec       ??_C@_0CG@JGOFFKEL@startToAsyncQueueTgtAppSvc?5not?5f@ 1004a5ec     xpcruntime:xpcimports.obj
 0002:00006614       ??_C@_0BP@IJNGPPPE@terminateToAsyncQueueTgtAppSvc?$AA@ 1004a614     xpcruntime:xpcimports.obj
 0002:00006634       ??_C@_0CK@NDEMAMKF@terminateToAsyncQueueTgtAppSvc?5n@ 1004a634     xpcruntime:xpcimports.obj
 0002:00006660       ??_C@_0BK@IDACEHAO@sendToAsyncQueueTgtAppSvc?$AA@ 1004a660     xpcruntime:xpcimports.obj
 0002:0000667c       ??_C@_0CF@PNCKPEHN@sendToAsyncQueueTgtAppSvc?5not?5fo@ 1004a67c     xpcruntime:xpcimports.obj
 0002:000066a4       ??_C@_0BN@HJOHIFOM@xpceGetIntTimerGranularityNS?$AA@ 1004a6a4     xpcruntime:xpcimports.obj
 0002:000066c4       ??_C@_0CI@OADDPMKB@xpceGetIntTimerGranularityNS?5not@ 1004a6c4     xpcruntime:xpcimports.obj
 0002:000066ec       ??_C@_0BG@CCHICKPN@slrteSetStepSizeDelta?$AA@ 1004a6ec     xpcruntime:xpcimports.obj
 0002:00006704       ??_C@_0CB@MKHINEIJ@slrteSetStepSizeDelta?5not?5found?6@ 1004a704     xpcruntime:xpcimports.obj
 0002:00006728       ??_C@_0BI@CLNBLDKJ@slrteGetCurrentStepSize?$AA@ 1004a728     xpcruntime:xpcimports.obj
 0002:00006740       ??_C@_0CD@GIOJPGJA@slrteGetCurrentStepSize?5not?5foun@ 1004a740     xpcruntime:xpcimports.obj
 0002:00006764       ??_C@_0BE@FCLCBOC@registerPTPTimeRead?$AA@ 1004a764     xpcruntime:xpcimports.obj
 0002:00006778       ??_C@_0BP@LHPKAJIP@registerPTPTimeRead?5not?5found?6?$AA@ 1004a778     xpcruntime:xpcimports.obj
 0002:00006798       ??_C@_0BG@KIGCDDJI@unRegisterPTPTimeRead?$AA@ 1004a798     xpcruntime:xpcimports.obj
 0002:000067b0       ??_C@_0CB@MLFFBFCM@unRegisterPTPTimeRead?5not?5found?6@ 1004a7b0     xpcruntime:xpcimports.obj
 0002:000067d4       ??_C@_0BB@IPMDDBHK@slTestInitialize?$AA@ 1004a7d4     xpcruntime:xpcimports.obj
 0002:000067e8       ??_C@_0BM@LAJFCCJH@slTestInitialize?5not?5found?6?$AA@ 1004a7e8     xpcruntime:xpcimports.obj
 0002:00006804       ??_C@_0BF@OOMPMEBC@slTestLogAssessments?$AA@ 1004a804     xpcruntime:xpcimports.obj
 0002:0000681c       ??_C@_0CA@FGJCEBAG@slTestLogAssessments?5not?5found?6?$AA@ 1004a81c     xpcruntime:xpcimports.obj
 0002:0000683c       ??_C@_0BB@HJHKONHO@slTestEvalOnFail?$AA@ 1004a83c     xpcruntime:xpcimports.obj
 0002:00006850       ??_C@_0BM@JIKCFFNJ@slTestEvalOnFail?5not?5found?6?$AA@ 1004a850     xpcruntime:xpcimports.obj
 0002:0000686c       ??_C@_0BA@LBHLABFP@slTestTerminate?$AA@ 1004a86c     xpcruntime:xpcimports.obj
 0002:0000687c       ??_C@_0BL@EMFGKAPA@slTestTerminate?5not?5found?6?$AA@ 1004a87c     xpcruntime:xpcimports.obj
 0002:00006898       ??_C@_0BE@JPNPBBEO@slTestRegAssessment?$AA@ 1004a898     xpcruntime:xpcimports.obj
 0002:000068ac       ??_C@_0BP@FBDEJJJH@slTestRegAssessment?5not?5found?6?$AA@ 1004a8ac     xpcruntime:xpcimports.obj
 0002:000068cc       ??_C@_0O@NCLGDNIB@slrteSetupMSI?$AA@ 1004a8cc     xpcruntime:xpcimports.obj
 0002:000068dc       ??_C@_0BJ@HEFMECLM@slrteSetupMSI?5not?5found?6?$AA@ 1004a8dc     xpcruntime:xpcimports.obj
 0002:000068f8       ??_C@_0BH@BPOLALHD@slrtGetCRBScratchSpace?$AA@ 1004a8f8     xpcruntime:xpcimports.obj
 0002:00006910       ??_C@_0CC@KCKAJKKJ@slrtGetCRBScratchSpace?5not?5found@ 1004a910     xpcruntime:xpcimports.obj
 0002:00006934       ??_C@_0BC@MKFDAKOL@slrtGetSgCRBSpace?$AA@ 1004a934     xpcruntime:xpcimports.obj
 0002:00006948       ??_C@_0BN@JDPHPLHL@slrtGetSgCRBSpace?5not?5found?6?$AA@ 1004a948     xpcruntime:xpcimports.obj
 0002:00006968       ??_C@_0P@EPAPKLIF@slrtfsOpenFile?$AA@ 1004a968     xpcruntime:xpcimports.obj
 0002:00006978       ??_C@_0BK@FIHCBOHG@slrtfsOpenFile?5not?5found?6?$AA@ 1004a978     xpcruntime:xpcimports.obj
 0002:00006994       ??_C@_0BA@LILAFDDL@slrtfsCloseFile?$AA@ 1004a994     xpcruntime:xpcimports.obj
 0002:000069a4       ??_C@_0BL@DEGHJFIB@slrtfsCloseFile?5not?5found?6?$AA@ 1004a9a4     xpcruntime:xpcimports.obj
 0002:000069c0       ??_C@_0BC@OKMJDIEH@slrtfsWriteToFile?$AA@ 1004a9c0     xpcruntime:xpcimports.obj
 0002:000069d4       ??_C@_0BN@KCFLCLAH@slrtfsWriteToFile?5not?5found?6?$AA@ 1004a9d4     xpcruntime:xpcimports.obj
 0002:000069f4       ??_C@_0BK@GIPNFFFF@slrtfsGetFileErrorMessage?$AA@ 1004a9f4     xpcruntime:xpcimports.obj
 0002:00006a10       ??_C@_0CF@BCBLMKLE@slrtfsGetFileErrorMessage?5not?5fo@ 1004aa10     xpcruntime:xpcimports.obj
 0002:00006a38       ??_C@_0BD@ICBOKMK@slrtfsGetFileError?$AA@ 1004aa38     xpcruntime:xpcimports.obj
 0002:00006a4c       ??_C@_0BO@FNBANAE@slrtfsGetFileError?5not?5found?6?$AA@ 1004aa4c     xpcruntime:xpcimports.obj
 0002:00006a6c       ??_C@_0BE@PPAJMHJP@slrtfsOpenFileAsync?$AA@ 1004aa6c     xpcruntime:xpcimports.obj
 0002:00006a80       ??_C@_0BP@HKBMMJOK@slrtfsOpenFileAsync?5not?5found?6?$AA@ 1004aa80     xpcruntime:xpcimports.obj
 0002:00006aa0       ??_C@_0BF@IGNDIBPF@slrtfsCloseFileAsync?$AA@ 1004aaa0     xpcruntime:xpcimports.obj
 0002:00006ab8       ??_C@_0CA@GJPFDBKN@slrtfsCloseFileAsync?5not?5found?6?$AA@ 1004aab8     xpcruntime:xpcimports.obj
 0002:00006ad8       ??_C@_0BE@IOLEBNB@slrtfsGetFileStatus?$AA@ 1004aad8     xpcruntime:xpcimports.obj
 0002:00006aec       ??_C@_0BP@PEFHDGHL@slrtfsGetFileStatus?5not?5found?6?$AA@ 1004aaec     xpcruntime:xpcimports.obj
 0002:00006b0c       ??_C@_0N@IDKFJOHI@getlasterror?$AA@ 1004ab0c     xpcruntime:xpcimports.obj
 0002:00006b1c       ??_C@_0BI@MIHMCHGL@getlasterror?5not?5found?6?$AA@ 1004ab1c     xpcruntime:xpcimports.obj
 0002:00006b34       ??_C@_0N@EAAOMIIE@isUsedByRTIP?$AA@ 1004ab34     xpcruntime:xpcimports.obj
 0002:00006b44       ??_C@_0BI@GNHHHICK@isUsedByRTIP?5not?5found?6?$AA@ 1004ab44     xpcruntime:xpcimports.obj
 0002:00006b5c       ??_C@_0BC@HLDKJAG@SetIPTASKPriority?$AA@ 1004ab5c     xpcruntime:xpcimports.obj
 0002:00006b70       ??_C@_0BN@OGKMHHAE@SetIPTASKPriority?5not?5found?6?$AA@ 1004ab70     xpcruntime:xpcimports.obj
 0002:00006b90       ??_C@_0O@LHENMBDD@OpenInterface?$AA@ 1004ab90     xpcruntime:xpcimports.obj
 0002:00006ba0       ??_C@_0BJ@PFGDBKHB@OpenInterface?5not?5found?6?$AA@ 1004aba0     xpcruntime:xpcimports.obj
 0002:00006bbc       ??_C@_0P@IINFELKD@CloseInterface?$AA@ 1004abbc     xpcruntime:xpcimports.obj
 0002:00006bcc       ??_C@_0BK@PAPDNDBK@CloseInterface?5not?5found?6?$AA@ 1004abcc     xpcruntime:xpcimports.obj
 0002:00006be8       ??_C@_05LEFIAAOI@SetIP?$AA@ 1004abe8     xpcruntime:xpcimports.obj
 0002:00006bf0       ??_C@_0BB@CGLIBAMM@SetIP?5not?5found?6?$AA@ 1004abf0     xpcruntime:xpcimports.obj
 0002:00006c04       ??_C@_0BA@HIJJHHMD@AddGatewayRoute?$AA@ 1004ac04     xpcruntime:xpcimports.obj
 0002:00006c14       ??_C@_0BL@BFCFMDMN@AddGatewayRoute?5not?5found?6?$AA@ 1004ac14     xpcruntime:xpcimports.obj
 0002:00006c30       ??_C@_0M@PHMABFPI@DeleteRoute?$AA@ 1004ac30     xpcruntime:xpcimports.obj
 0002:00006c3c       ??_C@_0BH@JPJGLLID@DeleteRoute?5not?5found?6?$AA@ 1004ac3c     xpcruntime:xpcimports.obj
 0002:00006c54       ??_C@_0BA@FCDIMKIJ@GetHostTarIPAdd?$AA@ 1004ac54     xpcruntime:xpcimports.obj
 0002:00006c64       ??_C@_0BL@MBKDGKBO@GetHostTarIPAdd?5not?5found?6?$AA@ 1004ac64     xpcruntime:xpcimports.obj
 0002:00006c80       ??_C@_0M@HPMIPIBI@GetDCUUsage?$AA@ 1004ac80     xpcruntime:xpcimports.obj
 0002:00006c8c       ??_C@_0BH@EBLJKCJC@GetDCUUsage?5not?5found?6?$AA@ 1004ac8c     xpcruntime:xpcimports.obj
 0002:00006ca4       ??_C@_06MPKMECK@accept?$AA@ 1004aca4     xpcruntime:xpcimports.obj
 0002:00006cac       ??_C@_0BC@GBGIEMNO@accept?5not?5found?6?$AA@ 1004acac     xpcruntime:xpcimports.obj
 0002:00006cc0       ??_C@_04NPNJNMMP@bind?$AA@ 1004acc0     xpcruntime:xpcimports.obj
 0002:00006cc8       ??_C@_0BA@DAJNENLO@bind?5not?5found?6?$AA@ 1004acc8     xpcruntime:xpcimports.obj
 0002:00006cd8       ??_C@_0L@CKHNIFCM@setsockopt?$AA@ 1004acd8     xpcruntime:xpcimports.obj
 0002:00006ce4       ??_C@_0BG@MFIIOMFE@setsockopt?5not?5found?6?$AA@ 1004ace4     xpcruntime:xpcimports.obj
 0002:00006cfc       ??_C@_0M@ODDJDCDK@closesocket?$AA@ 1004acfc     xpcruntime:xpcimports.obj
 0002:00006d08       ??_C@_0BH@JHGHMIL@closesocket?5not?5found?6?$AA@ 1004ad08     xpcruntime:xpcimports.obj
 0002:00006d20       ??_C@_07KAIBNCHO@connect?$AA@ 1004ad20     xpcruntime:xpcimports.obj
 0002:00006d28       ??_C@_0BD@MKLLMBM@connect?5not?5found?6?$AA@ 1004ad28     xpcruntime:xpcimports.obj
 0002:00006d3c       ??_C@_0M@PBPOCKDG@ioctlsocket?$AA@ 1004ad3c     xpcruntime:xpcimports.obj
 0002:00006d48       ??_C@_0BH@NFCNHHIH@ioctlsocket?5not?5found?6?$AA@ 1004ad48     xpcruntime:xpcimports.obj
 0002:00006d60       ??_C@_06OODDLKLE@listen?$AA@ 1004ad60     xpcruntime:xpcimports.obj
 0002:00006d68       ??_C@_0BC@NHBILEKI@listen?5not?5found?6?$AA@ 1004ad68     xpcruntime:xpcimports.obj
 0002:00006d7c       ??_C@_08HMBBGFHE@recvfrom?$AA@ 1004ad7c     xpcruntime:xpcimports.obj
 0002:00006d88       ??_C@_0BE@BJAJFFLF@recvfrom?5not?5found?6?$AA@ 1004ad88     xpcruntime:xpcimports.obj
 0002:00006d9c       ??_C@_06MEPBGKEC@sendto?$AA@ 1004ad9c     xpcruntime:xpcimports.obj
 0002:00006da4       ??_C@_0BC@BHPIMDJO@sendto?5not?5found?6?$AA@ 1004ada4     xpcruntime:xpcimports.obj
 0002:00006db8       ??_C@_09JKBDEEOB@inet_addr?$AA@ 1004adb8     xpcruntime:xpcimports.obj
 0002:00006dc4       ??_C@_0BF@HKJPGECN@inet_addr?5not?5found?6?$AA@ 1004adc4     xpcruntime:xpcimports.obj
 0002:00006ddc       ??_C@_06HBELJPBO@socket?$AA@ 1004addc     xpcruntime:xpcimports.obj
 0002:00006de4       ??_C@_0BC@NAGFFJGA@socket?5not?5found?6?$AA@ 1004ade4     xpcruntime:xpcimports.obj
 0002:00006e00       __OP_FMODjmptab            1004ae00     LIBCMT:87fmod.obj
 0002:00006e50       __FPinit                   1004ae50     LIBCMT:fpinit.obj
 0002:00006e5c       ??_C@_1BI@BGOHAHKC@?$AAm?$AAs?$AAc?$AAo?$AAr?$AAe?$AAe?$AA?4?$AAd?$AAl?$AAl?$AA?$AA@ 1004ae5c     LIBCMT:crt0dat.obj
 0002:00006e74       ??_C@_0P@MIGLKIOC@CorExitProcess?$AA@ 1004ae74     LIBCMT:crt0dat.obj
 0002:00006e84       ??_C@_17LGKOMLJ@?$AA?4?$AA?4?$AA?4?$AA?$AA@ 1004ae84     LIBCMT:wassert.obj
 0002:00006e8c       ??_C@_13LBAGMAIH@?$AA?6?$AA?$AA@ 1004ae8c     LIBCMT:wassert.obj
 0002:00006e90       ??_C@_15IABLJNFO@?$AA?6?$AA?6?$AA?$AA@ 1004ae90     LIBCMT:wassert.obj
 0002:00006e98       ??_C@_1CE@OJBNHDMO@?$AAA?$AAs?$AAs?$AAe?$AAr?$AAt?$AAi?$AAo?$AAn?$AA?5?$AAf?$AAa?$AAi?$AAl?$AAe?$AAd?$AA?$CB?$AA?$AA@ 1004ae98     LIBCMT:wassert.obj
 0002:00006ebc       ??_C@_1BE@PHKBBGE@?$AAP?$AAr?$AAo?$AAg?$AAr?$AAa?$AAm?$AA?3?$AA?5?$AA?$AA@ 1004aebc     LIBCMT:wassert.obj
 0002:00006ed0       ??_C@_1CO@EAEJAADC@?$AA?$DM?$AAp?$AAr?$AAo?$AAg?$AAr?$AAa?$AAm?$AA?5?$AAn?$AAa?$AAm?$AAe?$AA?5?$AAu?$AAn?$AAk?$AAn?$AAo?$AAw?$AAn?$AA?$DO?$AA?$AA@ 1004aed0     LIBCMT:wassert.obj
 0002:00006f00       ??_C@_1O@HEMHKNDC@?$AAF?$AAi?$AAl?$AAe?$AA?3?$AA?5?$AA?$AA@ 1004af00     LIBCMT:wassert.obj
 0002:00006f10       ??_C@_1O@KCAFKHJE@?$AAL?$AAi?$AAn?$AAe?$AA?3?$AA?5?$AA?$AA@ 1004af10     LIBCMT:wassert.obj
 0002:00006f20       ??_C@_1BK@PEDCIPMA@?$AAE?$AAx?$AAp?$AAr?$AAe?$AAs?$AAs?$AAi?$AAo?$AAn?$AA?3?$AA?5?$AA?$AA@ 1004af20     LIBCMT:wassert.obj
 0002:00006f40       ??_C@_1OA@EGMLFBHJ@?$AAF?$AAo?$AAr?$AA?5?$AAi?$AAn?$AAf?$AAo?$AAr?$AAm?$AAa?$AAt?$AAi?$AAo?$AAn?$AA?5?$AAo?$AAn?$AA?5?$AAh?$AAo?$AAw?$AA?5?$AAy?$AAo?$AAu?$AAr?$AA?5?$AAp?$AAr?$AAo?$AAg@ 1004af40     LIBCMT:wassert.obj
 0002:00007020       ??_C@_1HK@POCJMFGK@?$AA?$CI?$AAP?$AAr?$AAe?$AAs?$AAs?$AA?5?$AAR?$AAe?$AAt?$AAr?$AAy?$AA?5?$AAt?$AAo?$AA?5?$AAd?$AAe?$AAb?$AAu?$AAg?$AA?5?$AAt?$AAh?$AAe?$AA?5?$AAa?$AAp?$AAp?$AAl?$AAi?$AAc@ 1004b020     LIBCMT:wassert.obj
 0002:000070a0       ??_C@_1EK@MBDPDCGA@?$AAM?$AAi?$AAc?$AAr?$AAo?$AAs?$AAo?$AAf?$AAt?$AA?5?$AAV?$AAi?$AAs?$AAu?$AAa?$AAl?$AA?5?$AAC?$AA?$CL?$AA?$CL?$AA?5?$AAR?$AAu?$AAn?$AAt?$AAi?$AAm?$AAe?$AA?5?$AAL?$AAi?$AAb@ 1004b0a0     LIBCMT:wassert.obj
 0002:000070ec       __pRawDllMain              1004b0ec     LIBCMT:dllcrt0.obj
 0002:000070ec       __pDefaultRawDllMain       1004b0ec     LIBCMT:dllcrt0.obj
 0002:000070f0       ?ProcessDetach@NativeDll@<CrtImplementationDetails>@@0IB 1004b0f0     LIBCMT:handler.obj
 0002:000070f4       ?ProcessAttach@NativeDll@<CrtImplementationDetails>@@0IB 1004b0f4     LIBCMT:handler.obj
 0002:000070f8       ?ThreadAttach@NativeDll@<CrtImplementationDetails>@@0IB 1004b0f8     LIBCMT:handler.obj
 0002:000070fc       ?ThreadDetach@NativeDll@<CrtImplementationDetails>@@0IB 1004b0fc     LIBCMT:handler.obj
 0002:00007100       ?ProcessVerifier@NativeDll@<CrtImplementationDetails>@@0IB 1004b100     LIBCMT:handler.obj
 0002:000071c0       ??_C@_1FK@PGACCAFB@?$AAR?$AA6?$AA0?$AA0?$AA2?$AA?$AN?$AA?6?$AA?9?$AA?5?$AAf?$AAl?$AAo?$AAa?$AAt?$AAi?$AAn?$AAg?$AA?5?$AAp?$AAo?$AAi?$AAn?$AAt?$AA?5?$AAs?$AAu?$AAp?$AAp?$AAo?$AAr?$AAt?$AA?5@ 1004b1c0     LIBCMT:crt0msg.obj
 0002:00007220       ??_C@_1FE@LLNEDJMD@?$AAR?$AA6?$AA0?$AA0?$AA8?$AA?$AN?$AA?6?$AA?9?$AA?5?$AAn?$AAo?$AAt?$AA?5?$AAe?$AAn?$AAo?$AAu?$AAg?$AAh?$AA?5?$AAs?$AAp?$AAa?$AAc?$AAe?$AA?5?$AAf?$AAo?$AAr?$AA?5?$AAa?$AAr@ 1004b220     LIBCMT:crt0msg.obj
 0002:00007278       ??_C@_1FI@HONFMGBI@?$AAR?$AA6?$AA0?$AA0?$AA9?$AA?$AN?$AA?6?$AA?9?$AA?5?$AAn?$AAo?$AAt?$AA?5?$AAe?$AAn?$AAo?$AAu?$AAg?$AAh?$AA?5?$AAs?$AAp?$AAa?$AAc?$AAe?$AA?5?$AAf?$AAo?$AAr?$AA?5?$AAe?$AAn@ 1004b278     LIBCMT:crt0msg.obj
 0002:000072d0       ??_C@_1EG@BEHAGFJD@?$AAR?$AA6?$AA0?$AA1?$AA0?$AA?$AN?$AA?6?$AA?9?$AA?5?$AAa?$AAb?$AAo?$AAr?$AAt?$AA?$CI?$AA?$CJ?$AA?5?$AAh?$AAa?$AAs?$AA?5?$AAb?$AAe?$AAe?$AAn?$AA?5?$AAc?$AAa?$AAl?$AAl?$AAe?$AAd@ 1004b2d0     LIBCMT:crt0msg.obj
 0002:00007318       ??_C@_1FI@LOGNIKDM@?$AAR?$AA6?$AA0?$AA1?$AA6?$AA?$AN?$AA?6?$AA?9?$AA?5?$AAn?$AAo?$AAt?$AA?5?$AAe?$AAn?$AAo?$AAu?$AAg?$AAh?$AA?5?$AAs?$AAp?$AAa?$AAc?$AAe?$AA?5?$AAf?$AAo?$AAr?$AA?5?$AAt?$AAh@ 1004b318     LIBCMT:crt0msg.obj
 0002:00007370       ??_C@_1FK@BEOGODMC@?$AAR?$AA6?$AA0?$AA1?$AA7?$AA?$AN?$AA?6?$AA?9?$AA?5?$AAu?$AAn?$AAe?$AAx?$AAp?$AAe?$AAc?$AAt?$AAe?$AAd?$AA?5?$AAm?$AAu?$AAl?$AAt?$AAi?$AAt?$AAh?$AAr?$AAe?$AAa?$AAd?$AA?5@ 1004b370     LIBCMT:crt0msg.obj
 0002:000073d0       ??_C@_1EC@JIBHAOPH@?$AAR?$AA6?$AA0?$AA1?$AA8?$AA?$AN?$AA?6?$AA?9?$AA?5?$AAu?$AAn?$AAe?$AAx?$AAp?$AAe?$AAc?$AAt?$AAe?$AAd?$AA?5?$AAh?$AAe?$AAa?$AAp?$AA?5?$AAe?$AAr?$AAr?$AAo?$AAr?$AA?$AN?$AA?6@ 1004b3d0     LIBCMT:crt0msg.obj
 0002:00007418       ??_C@_1FC@ECHBIFBC@?$AAR?$AA6?$AA0?$AA1?$AA9?$AA?$AN?$AA?6?$AA?9?$AA?5?$AAu?$AAn?$AAa?$AAb?$AAl?$AAe?$AA?5?$AAt?$AAo?$AA?5?$AAo?$AAp?$AAe?$AAn?$AA?5?$AAc?$AAo?$AAn?$AAs?$AAo?$AAl?$AAe?$AA?5@ 1004b418     LIBCMT:crt0msg.obj
 0002:00007470       ??_C@_1GK@FHCKBEFA@?$AAR?$AA6?$AA0?$AA2?$AA4?$AA?$AN?$AA?6?$AA?9?$AA?5?$AAn?$AAo?$AAt?$AA?5?$AAe?$AAn?$AAo?$AAu?$AAg?$AAh?$AA?5?$AAs?$AAp?$AAa?$AAc?$AAe?$AA?5?$AAf?$AAo?$AAr?$AA?5?$AA_?$AAo@ 1004b470     LIBCMT:crt0msg.obj
 0002:000074e0       ??_C@_1EM@MAADIHMB@?$AAR?$AA6?$AA0?$AA2?$AA5?$AA?$AN?$AA?6?$AA?9?$AA?5?$AAp?$AAu?$AAr?$AAe?$AA?5?$AAv?$AAi?$AAr?$AAt?$AAu?$AAa?$AAl?$AA?5?$AAf?$AAu?$AAn?$AAc?$AAt?$AAi?$AAo?$AAn?$AA?5?$AAc@ 1004b4e0     LIBCMT:crt0msg.obj
 0002:00007530       ??_C@_1GK@MCAAGJMO@?$AAR?$AA6?$AA0?$AA2?$AA6?$AA?$AN?$AA?6?$AA?9?$AA?5?$AAn?$AAo?$AAt?$AA?5?$AAe?$AAn?$AAo?$AAu?$AAg?$AAh?$AA?5?$AAs?$AAp?$AAa?$AAc?$AAe?$AA?5?$AAf?$AAo?$AAr?$AA?5?$AAs?$AAt@ 1004b530     LIBCMT:crt0msg.obj
 0002:000075a0       ??_C@_1GK@MFGOKLAG@?$AAR?$AA6?$AA0?$AA2?$AA7?$AA?$AN?$AA?6?$AA?9?$AA?5?$AAn?$AAo?$AAt?$AA?5?$AAe?$AAn?$AAo?$AAu?$AAg?$AAh?$AA?5?$AAs?$AAp?$AAa?$AAc?$AAe?$AA?5?$AAf?$AAo?$AAr?$AA?5?$AAl?$AAo@ 1004b5a0     LIBCMT:crt0msg.obj
 0002:00007610       ??_C@_1EK@HHFLMAOL@?$AAR?$AA6?$AA0?$AA2?$AA8?$AA?$AN?$AA?6?$AA?9?$AA?5?$AAu?$AAn?$AAa?$AAb?$AAl?$AAe?$AA?5?$AAt?$AAo?$AA?5?$AAi?$AAn?$AAi?$AAt?$AAi?$AAa?$AAl?$AAi?$AAz?$AAe?$AA?5?$AAh?$AAe@ 1004b610     LIBCMT:crt0msg.obj
 0002:0000765c       ??_C@_1DO@BMFCDCD@?$AAR?$AA6?$AA0?$AA3?$AA0?$AA?$AN?$AA?6?$AA?9?$AA?5?$AAC?$AAR?$AAT?$AA?5?$AAn?$AAo?$AAt?$AA?5?$AAi?$AAn?$AAi?$AAt?$AAi?$AAa?$AAl?$AAi?$AAz?$AAe?$AAd?$AA?$AN?$AA?6?$AA?$AA@ 1004b65c     LIBCMT:crt0msg.obj
 0002:000076a0       ??_C@_1MG@ENCOOIDF@?$AAR?$AA6?$AA0?$AA3?$AA1?$AA?$AN?$AA?6?$AA?9?$AA?5?$AAA?$AAt?$AAt?$AAe?$AAm?$AAp?$AAt?$AA?5?$AAt?$AAo?$AA?5?$AAi?$AAn?$AAi?$AAt?$AAi?$AAa?$AAl?$AAi?$AAz?$AAe?$AA?5?$AAt@ 1004b6a0     LIBCMT:crt0msg.obj
 0002:00007768       ??_C@_1GG@GOPILAJP@?$AAR?$AA6?$AA0?$AA3?$AA2?$AA?$AN?$AA?6?$AA?9?$AA?5?$AAn?$AAo?$AAt?$AA?5?$AAe?$AAn?$AAo?$AAu?$AAg?$AAh?$AA?5?$AAs?$AAp?$AAa?$AAc?$AAe?$AA?5?$AAf?$AAo?$AAr?$AA?5?$AAl?$AAo@ 1004b768     LIBCMT:crt0msg.obj
 0002:000077d0       ??_C@_1BOO@KGEDBGAJ@?$AAR?$AA6?$AA0?$AA3?$AA3?$AA?$AN?$AA?6?$AA?9?$AA?5?$AAA?$AAt?$AAt?$AAe?$AAm?$AAp?$AAt?$AA?5?$AAt?$AAo?$AA?5?$AAu?$AAs?$AAe?$AA?5?$AAM?$AAS?$AAI?$AAL?$AA?5?$AAc?$AAo?$AAd@ 1004b7d0     LIBCMT:crt0msg.obj
 0002:000079c0       ??_C@_1GG@MKFPEKFO@?$AAR?$AA6?$AA0?$AA3?$AA4?$AA?$AN?$AA?6?$AA?9?$AA?5?$AAi?$AAn?$AAc?$AAo?$AAn?$AAs?$AAi?$AAs?$AAt?$AAe?$AAn?$AAt?$AA?5?$AAo?$AAn?$AAe?$AAx?$AAi?$AAt?$AA?5?$AAb?$AAe?$AAg@ 1004b9c0     LIBCMT:crt0msg.obj
 0002:00007a28       ??_C@_1BO@BFCDCGC@?$AAD?$AAO?$AAM?$AAA?$AAI?$AAN?$AA?5?$AAe?$AAr?$AAr?$AAo?$AAr?$AA?$AN?$AA?6?$AA?$AA@ 1004ba28     LIBCMT:crt0msg.obj
 0002:00007a48       ??_C@_1BK@KMOMNAAI@?$AAS?$AAI?$AAN?$AAG?$AA?5?$AAe?$AAr?$AAr?$AAo?$AAr?$AA?$AN?$AA?6?$AA?$AA@ 1004ba48     LIBCMT:crt0msg.obj
 0002:00007a64       ??_C@_1BM@JBBEPPHI@?$AAT?$AAL?$AAO?$AAS?$AAS?$AA?5?$AAe?$AAr?$AAr?$AAo?$AAr?$AA?$AN?$AA?6?$AA?$AA@ 1004ba64     LIBCMT:crt0msg.obj
 0002:00007a80       ??_C@_15JNBOKNOG@?$AA?$AN?$AA?6?$AA?$AA@ 1004ba80     LIBCMT:crt0msg.obj
 0002:00007a88       ??_C@_1BO@BKOMIGKJ@?$AAr?$AAu?$AAn?$AAt?$AAi?$AAm?$AAe?$AA?5?$AAe?$AAr?$AAr?$AAo?$AAr?$AA?5?$AA?$AA@ 1004ba88     LIBCMT:crt0msg.obj
 0002:00007aa8       ??_C@_1DE@JNGNBFGO@?$AAR?$AAu?$AAn?$AAt?$AAi?$AAm?$AAe?$AA?5?$AAE?$AAr?$AAr?$AAo?$AAr?$AA?$CB?$AA?6?$AA?6?$AAP?$AAr?$AAo?$AAg?$AAr?$AAa?$AAm?$AA?3?$AA?5?$AA?$AA@ 1004baa8     LIBCMT:crt0msg.obj
 0002:00007adc       ??_C@_06OJHGLDPL@?$CInull?$CJ?$AA@ 1004badc     LIBCMT:output.obj
 0002:00007ae4       ??_C@_1O@CEDCILHN@?$AA?$CI?$AAn?$AAu?$AAl?$AAl?$AA?$CJ?$AA?$AA@ 1004bae4     LIBCMT:output.obj
 0002:00007af8       ___lookuptable             1004baf8     LIBCMT:output.obj
 0002:00007b90       __indefinite               1004bb90     LIBCMT:87disp.obj
 0002:00007b9a       __piby2                    1004bb9a     LIBCMT:87disp.obj
 0002:00007bbc       ??_C@_05KLBDPFGC@e?$CL000?$AA@ 1004bbbc     LIBCMT:cvt.obj
 0002:00007bc4       ??_C@_0BE@JOGNEJCI@GetCurrentPackageId?$AA@ 1004bbc4     LIBCMT:winapisupp.obj
 0002:00007bd8       ??_C@_1BK@MGMFAEKH@?$AAk?$AAe?$AAr?$AAn?$AAe?$AAl?$AA3?$AA2?$AA?4?$AAd?$AAl?$AAl?$AA?$AA@ 1004bbd8     LIBCMT:winapisupp.obj
 0002:00007bf4       ??_C@_1BK@GAEMIDIL@?$AAA?$AAD?$AAV?$AAA?$AAP?$AAI?$AA3?$AA2?$AA?4?$AAD?$AAL?$AAL?$AA?$AA@ 1004bbf4     LIBCMT:rand_s.obj
 0002:00007c10       ??_C@_0BC@JEAENNKH@SystemFunction036?$AA@ 1004bc10     LIBCMT:rand_s.obj
 0002:00007c34       ??_C@_1M@HPNHIDJI@?$AAj?$AAa?$AA?9?$AAJ?$AAP?$AA?$AA@ 1004bc34     LIBCMT:mbctype.obj
 0002:00007c40       ??_C@_1M@BIBDDEMK@?$AAz?$AAh?$AA?9?$AAC?$AAN?$AA?$AA@ 1004bc40     LIBCMT:mbctype.obj
 0002:00007c4c       ??_C@_1M@JLOOOEGK@?$AAk?$AAo?$AA?9?$AAK?$AAR?$AA?$AA@ 1004bc4c     LIBCMT:mbctype.obj
 0002:00007c58       ??_C@_1M@CLNBBOPM@?$AAz?$AAh?$AA?9?$AAT?$AAW?$AA?$AA@ 1004bc58     LIBCMT:mbctype.obj
 0002:00007c84       ??_C@_03KHJOGHMM@exp?$AA@  1004bc84     LIBCMT:fpexcept.obj
 0002:00007c88       ??_C@_03JGHBODFD@pow?$AA@  1004bc88     LIBCMT:fpexcept.obj
 0002:00007c8c       ??_C@_03MGHMBJCF@log?$AA@  1004bc8c     LIBCMT:fpexcept.obj
 0002:00007c90       ??_C@_05HGHHAHAP@log10?$AA@ 1004bc90     LIBCMT:fpexcept.obj
 0002:00007c98       ??_C@_04COOMCNPB@sinh?$AA@ 1004bc98     LIBCMT:fpexcept.obj
 0002:00007ca0       ??_C@_04HPJJNFIM@cosh?$AA@ 1004bca0     LIBCMT:fpexcept.obj
 0002:00007ca8       ??_C@_04FJHINJAO@tanh?$AA@ 1004bca8     LIBCMT:fpexcept.obj
 0002:00007cb0       ??_C@_04FIHNOPOL@asin?$AA@ 1004bcb0     LIBCMT:fpexcept.obj
 0002:00007cb8       ??_C@_04PDIFKINK@acos?$AA@ 1004bcb8     LIBCMT:fpexcept.obj
 0002:00007cc0       ??_C@_04MLLJIGOK@atan?$AA@ 1004bcc0     LIBCMT:fpexcept.obj
 0002:00007cc8       ??_C@_05KNGEOGJB@atan2?$AA@ 1004bcc8     LIBCMT:fpexcept.obj
 0002:00007cd0       ??_C@_04EIAKFFMI@sqrt?$AA@ 1004bcd0     LIBCMT:fpexcept.obj
 0002:00007cd8       ??_C@_03BLEJJJBH@sin?$AA@  1004bcd8     LIBCMT:fpexcept.obj
 0002:00007cdc       ??_C@_03LALBNOCG@cos?$AA@  1004bcdc     LIBCMT:fpexcept.obj
 0002:00007ce0       ??_C@_03IIINPABG@tan?$AA@  1004bce0     LIBCMT:fpexcept.obj
 0002:00007ce4       ??_C@_04GFPJNGEK@ceil?$AA@ 1004bce4     LIBCMT:fpexcept.obj
 0002:00007cec       ??_C@_05PBJFFIGL@floor?$AA@ 1004bcec     LIBCMT:fpexcept.obj
 0002:00007cf4       ??_C@_04ODHECPBC@fabs?$AA@ 1004bcf4     LIBCMT:fpexcept.obj
 0002:00007cfc       ??_C@_04EHEDPDJG@modf?$AA@ 1004bcfc     LIBCMT:fpexcept.obj
 0002:00007d04       ??_C@_05CEJMAHNP@ldexp?$AA@ 1004bd04     LIBCMT:fpexcept.obj
 0002:00007d0c       ??_C@_05KBKMEMPO@_cabs?$AA@ 1004bd0c     LIBCMT:fpexcept.obj
 0002:00007d14       ??_C@_06MEIMCGCF@_hypot?$AA@ 1004bd14     LIBCMT:fpexcept.obj
 0002:00007d1c       ??_C@_04KEPJIHGP@fmod?$AA@ 1004bd1c     LIBCMT:fpexcept.obj
 0002:00007d24       ??_C@_05GKKHEGJL@frexp?$AA@ 1004bd24     LIBCMT:fpexcept.obj
 0002:00007d2c       ??_C@_03MJLDFKDL@_y0?$AA@  1004bd2c     LIBCMT:fpexcept.obj
 0002:00007d30       ??_C@_03NAKIGLHK@_y1?$AA@  1004bd30     LIBCMT:fpexcept.obj
 0002:00007d34       ??_C@_03ONILCKOB@_yn?$AA@  1004bd34     LIBCMT:fpexcept.obj
 0002:00007d38       ??_C@_05JGDBENOH@_logb?$AA@ 1004bd38     LIBCMT:fpexcept.obj
 0002:00007d40       ??_C@_0L@KDOEJCKC@_nextafter?$AA@ 1004bd40     LIBCMT:fpexcept.obj
 0002:00007d4c       ??_C@_1BG@GOEBHBDC@?$AAU?$AAS?$AAE?$AAR?$AA3?$AA2?$AA?4?$AAD?$AAL?$AAL?$AA?$AA@ 1004bd4c     LIBCMT:crtmboxw.obj
 0002:00007d64       ??_C@_0M@DLDCCGNP@MessageBoxW?$AA@ 1004bd64     LIBCMT:crtmboxw.obj
 0002:00007d70       ??_C@_0BA@HNOPNCHB@GetActiveWindow?$AA@ 1004bd70     LIBCMT:crtmboxw.obj
 0002:00007d80       ??_C@_0BD@HHGDFDBJ@GetLastActivePopup?$AA@ 1004bd80     LIBCMT:crtmboxw.obj
 0002:00007d94       ??_C@_0BK@DEKFELLI@GetUserObjectInformationW?$AA@ 1004bd94     LIBCMT:crtmboxw.obj
 0002:00007db0       ??_C@_0BI@DFKBFLJE@GetProcessWindowStation?$AA@ 1004bdb0     LIBCMT:crtmboxw.obj
 0002:00007dc8       __XcptActTab               1004bdc8     LIBCMT:winxfltr.obj
 0002:00007e58       __XcptActTabCount          1004be58     LIBCMT:winxfltr.obj
 0002:00007e5c       __XcptActTabSize           1004be5c     LIBCMT:winxfltr.obj
 0002:00007e60       __First_FPE_Indx           1004be60     LIBCMT:winxfltr.obj
 0002:00007e64       __Num_FPE                  1004be64     LIBCMT:winxfltr.obj
 0002:00007e68       ___lookuptable_s           1004be68     LIBCMT:outputs.obj
 0002:00007ec4       ??_C@_03KOEHGMDN@Sun?$AA@  1004bec4     LIBCMT:nlsdata.obj
 0002:00007ec8       ??_C@_03PDAGKDH@Mon?$AA@   1004bec8     LIBCMT:nlsdata.obj
 0002:00007ecc       ??_C@_03NAGEINEP@Tue?$AA@  1004becc     LIBCMT:nlsdata.obj
 0002:00007ed0       ??_C@_03MHOMLAJA@Wed?$AA@  1004bed0     LIBCMT:nlsdata.obj
 0002:00007ed4       ??_C@_03IOFIKPDN@Thu?$AA@  1004bed4     LIBCMT:nlsdata.obj
 0002:00007ed8       ??_C@_03IDIOELNC@Fri?$AA@  1004bed8     LIBCMT:nlsdata.obj
 0002:00007edc       ??_C@_03FEFJNEK@Sat?$AA@   1004bedc     LIBCMT:nlsdata.obj
 0002:00007ee0       ??_C@_06OOPIFAJ@Sunday?$AA@ 1004bee0     LIBCMT:nlsdata.obj
 0002:00007ee8       ??_C@_06JLEDEDGH@Monday?$AA@ 1004bee8     LIBCMT:nlsdata.obj
 0002:00007ef0       ??_C@_07BAAGCFCM@Tuesday?$AA@ 1004bef0     LIBCMT:nlsdata.obj
 0002:00007ef8       ??_C@_09DLIGFAKA@Wednesday?$AA@ 1004bef8     LIBCMT:nlsdata.obj
 0002:00007f04       ??_C@_08HACCIKIA@Thursday?$AA@ 1004bf04     LIBCMT:nlsdata.obj
 0002:00007f10       ??_C@_06JECMNKMI@Friday?$AA@ 1004bf10     LIBCMT:nlsdata.obj
 0002:00007f18       ??_C@_08INBOOONO@Saturday?$AA@ 1004bf18     LIBCMT:nlsdata.obj
 0002:00007f24       ??_C@_03JIHJHPIE@Jan?$AA@  1004bf24     LIBCMT:nlsdata.obj
 0002:00007f28       ??_C@_03HJBDCHOM@Feb?$AA@  1004bf28     LIBCMT:nlsdata.obj
 0002:00007f2c       ??_C@_03ODNJBKGA@Mar?$AA@  1004bf2c     LIBCMT:nlsdata.obj
 0002:00007f30       ??_C@_03LEOLGMJP@Apr?$AA@  1004bf30     LIBCMT:nlsdata.obj
 0002:00007f34       ??_C@_03CNMDKL@May?$AA@    1004bf34     LIBCMT:nlsdata.obj
 0002:00007f38       ??_C@_03IDFGHECI@Jun?$AA@  1004bf38     LIBCMT:nlsdata.obj
 0002:00007f3c       ??_C@_03LBGABGKK@Jul?$AA@  1004bf3c     LIBCMT:nlsdata.obj
 0002:00007f40       ??_C@_03IFJFEIGA@Aug?$AA@  1004bf40     LIBCMT:nlsdata.obj
 0002:00007f44       ??_C@_03GGCAPAJC@Sep?$AA@  1004bf44     LIBCMT:nlsdata.obj
 0002:00007f48       ??_C@_03BMAOKBAD@Oct?$AA@  1004bf48     LIBCMT:nlsdata.obj
 0002:00007f4c       ??_C@_03JPJOFNIA@Nov?$AA@  1004bf4c     LIBCMT:nlsdata.obj
 0002:00007f50       ??_C@_03MKABNOCG@Dec?$AA@  1004bf50     LIBCMT:nlsdata.obj
 0002:00007f54       ??_C@_07CGJPFGJA@January?$AA@ 1004bf54     LIBCMT:nlsdata.obj
 0002:00007f5c       ??_C@_08GNJGEPFN@February?$AA@ 1004bf5c     LIBCMT:nlsdata.obj
 0002:00007f68       ??_C@_05HPCKOFNC@March?$AA@ 1004bf68     LIBCMT:nlsdata.obj
 0002:00007f70       ??_C@_05DMJDNLEJ@April?$AA@ 1004bf70     LIBCMT:nlsdata.obj
 0002:00007f78       ??_C@_04CNLMGBGM@June?$AA@ 1004bf78     LIBCMT:nlsdata.obj
 0002:00007f80       ??_C@_04MIEPOIFP@July?$AA@ 1004bf80     LIBCMT:nlsdata.obj
 0002:00007f88       ??_C@_06LBBHFDDG@August?$AA@ 1004bf88     LIBCMT:nlsdata.obj
 0002:00007f90       ??_C@_09BHHEALKD@September?$AA@ 1004bf90     LIBCMT:nlsdata.obj
 0002:00007f9c       ??_C@_07JJNFCEND@October?$AA@ 1004bf9c     LIBCMT:nlsdata.obj
 0002:00007fa4       ??_C@_08HCHEGEOA@November?$AA@ 1004bfa4     LIBCMT:nlsdata.obj
 0002:00007fb0       ??_C@_08EDHMEBNP@December?$AA@ 1004bfb0     LIBCMT:nlsdata.obj
 0002:00007fbc       ??_C@_02DEDBPAFC@AM?$AA@   1004bfbc     LIBCMT:nlsdata.obj
 0002:00007fc0       ??_C@_02CJNFDJBF@PM?$AA@   1004bfc0     LIBCMT:nlsdata.obj
 0002:00007fc4       ??_C@_08BPBNCDIB@MM?1dd?1yy?$AA@ 1004bfc4     LIBCMT:nlsdata.obj
 0002:00007fd0       ??_C@_0BE@CKGJFCPC@dddd?0?5MMMM?5dd?0?5yyyy?$AA@ 1004bfd0     LIBCMT:nlsdata.obj
 0002:00007fe4       ??_C@_08JCCMCCIL@HH?3mm?3ss?$AA@ 1004bfe4     LIBCMT:nlsdata.obj
 0002:00007ff0       ??_C@_17MBGCMIPB@?$AAS?$AAu?$AAn?$AA?$AA@ 1004bff0     LIBCMT:nlsdata.obj
 0002:00007ff8       ??_C@_17KBOMKBF@?$AAM?$AAo?$AAn?$AA?$AA@ 1004bff8     LIBCMT:nlsdata.obj
 0002:00008000       ??_C@_17BMKGEGOJ@?$AAT?$AAu?$AAe?$AA?$AA@ 1004c000     LIBCMT:nlsdata.obj
 0002:00008008       ??_C@_17CJEDCEPE@?$AAW?$AAe?$AAd?$AA?$AA@ 1004c008     LIBCMT:nlsdata.obj
 0002:00008010       ??_C@_17PDPHAADD@?$AAT?$AAh?$AAu?$AA?$AA@ 1004c010     LIBCMT:nlsdata.obj
 0002:00008018       ??_C@_17HFOLPPLP@?$AAF?$AAr?$AAi?$AA?$AA@ 1004c018     LIBCMT:nlsdata.obj
 0002:00008020       ??_C@_17GGIBDPIH@?$AAS?$AAa?$AAt?$AA?$AA@ 1004c020     LIBCMT:nlsdata.obj
 0002:00008028       ??_C@_1O@IHNHDHPB@?$AAS?$AAu?$AAn?$AAd?$AAa?$AAy?$AA?$AA@ 1004c028     LIBCMT:nlsdata.obj
 0002:00008038       ??_C@_1O@MMNBFLIA@?$AAM?$AAo?$AAn?$AAd?$AAa?$AAy?$AA?$AA@ 1004c038     LIBCMT:nlsdata.obj
 0002:00008048       ??_C@_1BA@ENFBFFEK@?$AAT?$AAu?$AAe?$AAs?$AAd?$AAa?$AAy?$AA?$AA@ 1004c048     LIBCMT:nlsdata.obj
 0002:00008058       ??_C@_1BE@EBOGMDOH@?$AAW?$AAe?$AAd?$AAn?$AAe?$AAs?$AAd?$AAa?$AAy?$AA?$AA@ 1004c058     LIBCMT:nlsdata.obj
 0002:0000806c       ??_C@_1BC@HHMNLIHE@?$AAT?$AAh?$AAu?$AAr?$AAs?$AAd?$AAa?$AAy?$AA?$AA@ 1004c06c     LIBCMT:nlsdata.obj
 0002:00008080       ??_C@_1O@PDICJHAG@?$AAF?$AAr?$AAi?$AAd?$AAa?$AAy?$AA?$AA@ 1004c080     LIBCMT:nlsdata.obj
 0002:00008090       ??_C@_1BC@ENMNNPAJ@?$AAS?$AAa?$AAt?$AAu?$AAr?$AAd?$AAa?$AAy?$AA?$AA@ 1004c090     LIBCMT:nlsdata.obj
 0002:000080a4       ??_C@_17DKNBKCHM@?$AAJ?$AAa?$AAn?$AA?$AA@ 1004c0a4     LIBCMT:nlsdata.obj
 0002:000080ac       ??_C@_17LMDJEKJN@?$AAF?$AAe?$AAb?$AA?$AA@ 1004c0ac     LIBCMT:nlsdata.obj
 0002:000080b4       ??_C@_17CKNLEDEC@?$AAM?$AAa?$AAr?$AA?$AA@ 1004c0b4     LIBCMT:nlsdata.obj
 0002:000080bc       ??_C@_17LFPOIHDD@?$AAA?$AAp?$AAr?$AA?$AA@ 1004c0bc     LIBCMT:nlsdata.obj
 0002:000080c4       ??_C@_17PNNKMEED@?$AAM?$AAa?$AAy?$AA?$AA@ 1004c0c4     LIBCMT:nlsdata.obj
 0002:000080cc       ??_C@_17KCJGOCPB@?$AAJ?$AAu?$AAn?$AA?$AA@ 1004c0cc     LIBCMT:nlsdata.obj
 0002:000080d4       ??_C@_17IJPCKHK@?$AAJ?$AAu?$AAl?$AA?$AA@ 1004c0d4     LIBCMT:nlsdata.obj
 0002:000080dc       ??_C@_17ICPELBCN@?$AAA?$AAu?$AAg?$AA?$AA@ 1004c0dc     LIBCMT:nlsdata.obj
 0002:000080e4       ??_C@_17HCHCOKMG@?$AAS?$AAe?$AAp?$AA?$AA@ 1004c0e4     LIBCMT:nlsdata.obj
 0002:000080ec       ??_C@_17FNLKOI@?$AAO?$AAc?$AAt?$AA?$AA@ 1004c0ec     LIBCMT:nlsdata.obj
 0002:000080f4       ??_C@_17BBDMLCIG@?$AAN?$AAo?$AAv?$AA?$AA@ 1004c0f4     LIBCMT:nlsdata.obj
 0002:000080fc       ??_C@_17EGKACKIF@?$AAD?$AAe?$AAc?$AA?$AA@ 1004c0fc     LIBCMT:nlsdata.obj
 0002:00008104       ??_C@_1BA@EFMEIEBA@?$AAJ?$AAa?$AAn?$AAu?$AAa?$AAr?$AAy?$AA?$AA@ 1004c104     LIBCMT:nlsdata.obj
 0002:00008114       ??_C@_1BC@JGDDFFAM@?$AAF?$AAe?$AAb?$AAr?$AAu?$AAa?$AAr?$AAy?$AA?$AA@ 1004c114     LIBCMT:nlsdata.obj
 0002:00008128       ??_C@_1M@IKEENEDF@?$AAM?$AAa?$AAr?$AAc?$AAh?$AA?$AA@ 1004c128     LIBCMT:nlsdata.obj
 0002:00008134       ??_C@_1M@GJNLMHFD@?$AAA?$AAp?$AAr?$AAi?$AAl?$AA?$AA@ 1004c134     LIBCMT:nlsdata.obj
 0002:00008140       ??_C@_19EPFLPGAP@?$AAJ?$AAu?$AAn?$AAe?$AA?$AA@ 1004c140     LIBCMT:nlsdata.obj
 0002:0000814c       ??_C@_19BIFMLPCD@?$AAJ?$AAu?$AAl?$AAy?$AA?$AA@ 1004c14c     LIBCMT:nlsdata.obj
 0002:00008158       ??_C@_1O@PAHLKOAC@?$AAA?$AAu?$AAg?$AAu?$AAs?$AAt?$AA?$AA@ 1004c158     LIBCMT:nlsdata.obj
 0002:00008168       ??_C@_1BE@DKAAMBJL@?$AAS?$AAe?$AAp?$AAt?$AAe?$AAm?$AAb?$AAe?$AAr?$AA?$AA@ 1004c168     LIBCMT:nlsdata.obj
 0002:0000817c       ??_C@_1BA@EPANDLNG@?$AAO?$AAc?$AAt?$AAo?$AAb?$AAe?$AAr?$AA?$AA@ 1004c17c     LIBCMT:nlsdata.obj
 0002:0000818c       ??_C@_1BC@BGLIFPF@?$AAN?$AAo?$AAv?$AAe?$AAm?$AAb?$AAe?$AAr?$AA?$AA@ 1004c18c     LIBCMT:nlsdata.obj
 0002:000081a0       ??_C@_1BC@FEMKIFH@?$AAD?$AAe?$AAc?$AAe?$AAm?$AAb?$AAe?$AAr?$AA?$AA@ 1004c1a0     LIBCMT:nlsdata.obj
 0002:000081b4       ??_C@_15ODEHAHHF@?$AAA?$AAM?$AA?$AA@ 1004c1b4     LIBCMT:nlsdata.obj
 0002:000081bc       ??_C@_15CLMNNGEL@?$AAP?$AAM?$AA?$AA@ 1004c1bc     LIBCMT:nlsdata.obj
 0002:000081c4       ??_C@_1BC@IEBCMHCM@?$AAM?$AAM?$AA?1?$AAd?$AAd?$AA?1?$AAy?$AAy?$AA?$AA@ 1004c1c4     LIBCMT:nlsdata.obj
 0002:000081d8       ??_C@_1CI@KNAKOEBC@?$AAd?$AAd?$AAd?$AAd?$AA?0?$AA?5?$AAM?$AAM?$AAM?$AAM?$AA?5?$AAd?$AAd?$AA?0?$AA?5?$AAy?$AAy?$AAy?$AAy?$AA?$AA@ 1004c1d8     LIBCMT:nlsdata.obj
 0002:00008200       ??_C@_1BC@GDGBMEMK@?$AAH?$AAH?$AA?3?$AAm?$AAm?$AA?3?$AAs?$AAs?$AA?$AA@ 1004c200     LIBCMT:nlsdata.obj
 0002:00008214       ??_C@_1M@BMHNFIME@?$AAe?$AAn?$AA?9?$AAU?$AAS?$AA?$AA@ 1004c214     LIBCMT:nlsdata.obj
 0002:00008220       ___newctype                1004c220     LIBCMT:ctype.obj
 0002:00008520       __wctype                   1004c520     LIBCMT:ctype.obj
 0002:00008728       ___newclmap                1004c728     LIBCMT:ctype.obj
 0002:000088a8       ___newcumap                1004c8a8     LIBCMT:ctype.obj
 0002:00008a28       ___lc_category             1004ca28     LIBCMT:wsetloca.obj
 0002:00008a70       ??_C@_1O@GIFLHMA@?$AAL?$AAC?$AA_?$AAA?$AAL?$AAL?$AA?$AA@ 1004ca70     LIBCMT:wsetloca.obj
 0002:00008a80       ??_C@_1BG@PPOMIBNJ@?$AAL?$AAC?$AA_?$AAC?$AAO?$AAL?$AAL?$AAA?$AAT?$AAE?$AA?$AA@ 1004ca80     LIBCMT:wsetloca.obj
 0002:00008a98       ??_C@_1BC@FFJGAPJM@?$AAL?$AAC?$AA_?$AAC?$AAT?$AAY?$AAP?$AAE?$AA?$AA@ 1004ca98     LIBCMT:wsetloca.obj
 0002:00008aac       ??_C@_1BI@PCKFNJFB@?$AAL?$AAC?$AA_?$AAM?$AAO?$AAN?$AAE?$AAT?$AAA?$AAR?$AAY?$AA?$AA@ 1004caac     LIBCMT:wsetloca.obj
 0002:00008ac4       ??_C@_1BG@ENIEDKID@?$AAL?$AAC?$AA_?$AAN?$AAU?$AAM?$AAE?$AAR?$AAI?$AAC?$AA?$AA@ 1004cac4     LIBCMT:wsetloca.obj
 0002:00008adc       ??_C@_1BA@HAAOMIIG@?$AAL?$AAC?$AA_?$AAT?$AAI?$AAM?$AAE?$AA?$AA@ 1004cadc     LIBCMT:wsetloca.obj
 0002:00008b70       ??_C@_15NBPDDFIP@?$AA?$DN?$AA?$DL?$AA?$AA@ 1004cb70     LIBCMT:wsetloca.obj
 0002:00008b78       ??_C@_13PJJBFPED@?$AA?$DL?$AA?$AA@ 1004cb78     LIBCMT:wsetloca.obj
 0002:00008b7c       ??_C@_13NMPKAAJP@?$AA?$DN?$AA?$AA@ 1004cb7c     LIBCMT:wsetloca.obj
 0002:00008b80       ??_C@_13FHBKNHDA@?$AAC?$AA?$AA@ 1004cb80     LIBCMT:wsetloca.obj
 0002:00008b84       ??_C@_17MBJJLFDM@?$AA_?$AA?4?$AA?0?$AA?$AA@ 1004cb84     LIBCMT:wsetloca.obj
 0002:00008b8c       ??_C@_13ENNFDPBH@?$AA_?$AA?$AA@ 1004cb8c     LIBCMT:wsetloca.obj
 0002:00008b90       ??_C@_13JOFGPIOO@?$AA?4?$AA?$AA@ 1004cb90     LIBCMT:wsetloca.obj
 0002:00008b94       ??_C@_06PGGFOGJG@1?$CDSNAN?$AA@ 1004cb94     LIBCMT:x10fout.obj
 0002:00008b9c       ??_C@_05PHHOCPM@1?$CDIND?$AA@ 1004cb9c     LIBCMT:x10fout.obj
 0002:00008ba4       ??_C@_05DNEBIAHO@1?$CDINF?$AA@ 1004cba4     LIBCMT:x10fout.obj
 0002:00008bac       ??_C@_06IMKFLFPG@1?$CDQNAN?$AA@ 1004cbac     LIBCMT:x10fout.obj
 0002:00008bb4       ??_C@_0M@HHGEPIBF@CreateFile2?$AA@ 1004cbb4     LIBCMT:wopen.obj
 0002:00008bc0       ??_C@_1BA@BALFACEM@?$AAC?$AAO?$AAN?$AAO?$AAU?$AAT?$AA$?$AA?$AA@ 1004cbc0     LIBCMT:initcon.obj
 0002:00008bd0       ___rg_language             1004cbd0     LIBCMT:getqloc.obj
 0002:00008edc       ??_C@_1BC@LLOKLNP@?$AAa?$AAm?$AAe?$AAr?$AAi?$AAc?$AAa?$AAn?$AA?$AA@ 1004cedc     LIBCMT:getqloc.obj
 0002:00008ef0       ??_C@_1CC@HEIGCDGG@?$AAa?$AAm?$AAe?$AAr?$AAi?$AAc?$AAa?$AAn?$AA?5?$AAe?$AAn?$AAg?$AAl?$AAi?$AAs?$AAh?$AA?$AA@ 1004cef0     LIBCMT:getqloc.obj
 0002:00008f14       ??_C@_1CC@IHCNOMIN@?$AAa?$AAm?$AAe?$AAr?$AAi?$AAc?$AAa?$AAn?$AA?9?$AAe?$AAn?$AAg?$AAl?$AAi?$AAs?$AAh?$AA?$AA@ 1004cf14     LIBCMT:getqloc.obj
 0002:00008f38       ??_C@_1BG@GKAGPCGG@?$AAa?$AAu?$AAs?$AAt?$AAr?$AAa?$AAl?$AAi?$AAa?$AAn?$AA?$AA@ 1004cf38     LIBCMT:getqloc.obj
 0002:00008f50       ??_C@_1BA@GMENCENF@?$AAb?$AAe?$AAl?$AAg?$AAi?$AAa?$AAn?$AA?$AA@ 1004cf50     LIBCMT:getqloc.obj
 0002:00008f60       ??_C@_1BC@PJMIIAAN@?$AAc?$AAa?$AAn?$AAa?$AAd?$AAi?$AAa?$AAn?$AA?$AA@ 1004cf60     LIBCMT:getqloc.obj
 0002:00008f74       ??_C@_17NOIMNFBF@?$AAc?$AAh?$AAh?$AA?$AA@ 1004cf74     LIBCMT:getqloc.obj
 0002:00008f7c       ??_C@_17GGDALCHA@?$AAc?$AAh?$AAi?$AA?$AA@ 1004cf7c     LIBCMT:getqloc.obj
 0002:00008f84       ??_C@_1BA@NPNJKIBL@?$AAc?$AAh?$AAi?$AAn?$AAe?$AAs?$AAe?$AA?$AA@ 1004cf84     LIBCMT:getqloc.obj
 0002:00008f94       ??_C@_1CC@DINBAMMJ@?$AAc?$AAh?$AAi?$AAn?$AAe?$AAs?$AAe?$AA?9?$AAh?$AAo?$AAn?$AAg?$AAk?$AAo?$AAn?$AAg?$AA?$AA@ 1004cf94     LIBCMT:getqloc.obj
 0002:00008fb8       ??_C@_1CG@IOBJPACO@?$AAc?$AAh?$AAi?$AAn?$AAe?$AAs?$AAe?$AA?9?$AAs?$AAi?$AAm?$AAp?$AAl?$AAi?$AAf?$AAi?$AAe?$AAd?$AA?$AA@ 1004cfb8     LIBCMT:getqloc.obj
 0002:00008fe0       ??_C@_1CE@GAJNDCKG@?$AAc?$AAh?$AAi?$AAn?$AAe?$AAs?$AAe?$AA?9?$AAs?$AAi?$AAn?$AAg?$AAa?$AAp?$AAo?$AAr?$AAe?$AA?$AA@ 1004cfe0     LIBCMT:getqloc.obj
 0002:00009004       ??_C@_1CI@PAJPIOOD@?$AAc?$AAh?$AAi?$AAn?$AAe?$AAs?$AAe?$AA?9?$AAt?$AAr?$AAa?$AAd?$AAi?$AAt?$AAi?$AAo?$AAn?$AAa?$AAl?$AA?$AA@ 1004d004     LIBCMT:getqloc.obj
 0002:0000902c       ??_C@_1BM@NILJBMMD@?$AAd?$AAu?$AAt?$AAc?$AAh?$AA?9?$AAb?$AAe?$AAl?$AAg?$AAi?$AAa?$AAn?$AA?$AA@ 1004d02c     LIBCMT:getqloc.obj
 0002:00009048       ??_C@_1CC@OOJPJNEJ@?$AAe?$AAn?$AAg?$AAl?$AAi?$AAs?$AAh?$AA?9?$AAa?$AAm?$AAe?$AAr?$AAi?$AAc?$AAa?$AAn?$AA?$AA@ 1004d048     LIBCMT:getqloc.obj
 0002:0000906c       ??_C@_1BI@IOLFEEM@?$AAe?$AAn?$AAg?$AAl?$AAi?$AAs?$AAh?$AA?9?$AAa?$AAu?$AAs?$AA?$AA@ 1004d06c     LIBCMT:getqloc.obj
 0002:00009084       ??_C@_1BO@HFFNLENJ@?$AAe?$AAn?$AAg?$AAl?$AAi?$AAs?$AAh?$AA?9?$AAb?$AAe?$AAl?$AAi?$AAz?$AAe?$AA?$AA@ 1004d084     LIBCMT:getqloc.obj
 0002:000090a4       ??_C@_1BI@HAPKJMPO@?$AAe?$AAn?$AAg?$AAl?$AAi?$AAs?$AAh?$AA?9?$AAc?$AAa?$AAn?$AA?$AA@ 1004d0a4     LIBCMT:getqloc.obj
 0002:000090bc       ??_C@_1CE@HLNDMIOJ@?$AAe?$AAn?$AAg?$AAl?$AAi?$AAs?$AAh?$AA?9?$AAc?$AAa?$AAr?$AAi?$AAb?$AAb?$AAe?$AAa?$AAn?$AA?$AA@ 1004d0bc     LIBCMT:getqloc.obj
 0002:000090e0       ??_C@_1BI@LDHJHHAC@?$AAe?$AAn?$AAg?$AAl?$AAi?$AAs?$AAh?$AA?9?$AAi?$AAr?$AAe?$AA?$AA@ 1004d0e0     LIBCMT:getqloc.obj
 0002:000090f8       ??_C@_1CA@NJMMCFOC@?$AAe?$AAn?$AAg?$AAl?$AAi?$AAs?$AAh?$AA?9?$AAj?$AAa?$AAm?$AAa?$AAi?$AAc?$AAa?$AA?$AA@ 1004d0f8     LIBCMT:getqloc.obj
 0002:00009118       ??_C@_1BG@BHJEBBGG@?$AAe?$AAn?$AAg?$AAl?$AAi?$AAs?$AAh?$AA?9?$AAn?$AAz?$AA?$AA@ 1004d118     LIBCMT:getqloc.obj
 0002:00009130       ??_C@_1CK@FGOEJJCO@?$AAe?$AAn?$AAg?$AAl?$AAi?$AAs?$AAh?$AA?9?$AAs?$AAo?$AAu?$AAt?$AAh?$AA?5?$AAa?$AAf?$AAr?$AAi?$AAc?$AAa?$AA?$AA@ 1004d130     LIBCMT:getqloc.obj
 0002:0000915c       ??_C@_1DE@PDBJPCJ@?$AAe?$AAn?$AAg?$AAl?$AAi?$AAs?$AAh?$AA?9?$AAt?$AAr?$AAi?$AAn?$AAi?$AAd?$AAa?$AAd?$AA?5?$AAy?$AA?5?$AAt?$AAo?$AAb?$AAa?$AAg?$AAo?$AA?$AA@ 1004d15c     LIBCMT:getqloc.obj
 0002:00009190       ??_C@_1BG@JGCANDME@?$AAe?$AAn?$AAg?$AAl?$AAi?$AAs?$AAh?$AA?9?$AAu?$AAk?$AA?$AA@ 1004d190     LIBCMT:getqloc.obj
 0002:000091a8       ??_C@_1BG@DINKMLE@?$AAe?$AAn?$AAg?$AAl?$AAi?$AAs?$AAh?$AA?9?$AAu?$AAs?$AA?$AA@ 1004d1a8     LIBCMT:getqloc.obj
 0002:000091c0       ??_C@_1BI@NMFDBHJE@?$AAe?$AAn?$AAg?$AAl?$AAi?$AAs?$AAh?$AA?9?$AAu?$AAs?$AAa?$AA?$AA@ 1004d1c0     LIBCMT:getqloc.obj
 0002:000091d8       ??_C@_1BO@OIHKJKII@?$AAf?$AAr?$AAe?$AAn?$AAc?$AAh?$AA?9?$AAb?$AAe?$AAl?$AAg?$AAi?$AAa?$AAn?$AA?$AA@ 1004d1d8     LIBCMT:getqloc.obj
 0002:000091f8       ??_C@_1CA@NKAELJKI@?$AAf?$AAr?$AAe?$AAn?$AAc?$AAh?$AA?9?$AAc?$AAa?$AAn?$AAa?$AAd?$AAi?$AAa?$AAn?$AA?$AA@ 1004d1f8     LIBCMT:getqloc.obj
 0002:00009218       ??_C@_1CE@MGKCNLGN@?$AAf?$AAr?$AAe?$AAn?$AAc?$AAh?$AA?9?$AAl?$AAu?$AAx?$AAe?$AAm?$AAb?$AAo?$AAu?$AAr?$AAg?$AA?$AA@ 1004d218     LIBCMT:getqloc.obj
 0002:0000923c       ??_C@_1BK@CEGEAILM@?$AAf?$AAr?$AAe?$AAn?$AAc?$AAh?$AA?9?$AAs?$AAw?$AAi?$AAs?$AAs?$AA?$AA@ 1004d23c     LIBCMT:getqloc.obj
 0002:00009258       ??_C@_1CA@PAFKEOCC@?$AAg?$AAe?$AAr?$AAm?$AAa?$AAn?$AA?9?$AAa?$AAu?$AAs?$AAt?$AAr?$AAi?$AAa?$AAn?$AA?$AA@ 1004d258     LIBCMT:getqloc.obj
 0002:00009278       ??_C@_1CI@HCFHGOFD@?$AAg?$AAe?$AAr?$AAm?$AAa?$AAn?$AA?9?$AAl?$AAi?$AAc?$AAh?$AAt?$AAe?$AAn?$AAs?$AAt?$AAe?$AAi?$AAn?$AA?$AA@ 1004d278     LIBCMT:getqloc.obj
 0002:000092a0       ??_C@_1CE@FEDDNPDG@?$AAg?$AAe?$AAr?$AAm?$AAa?$AAn?$AA?9?$AAl?$AAu?$AAx?$AAe?$AAm?$AAb?$AAo?$AAu?$AAr?$AAg?$AA?$AA@ 1004d2a0     LIBCMT:getqloc.obj
 0002:000092c4       ??_C@_1BK@LIMINNMN@?$AAg?$AAe?$AAr?$AAm?$AAa?$AAn?$AA?9?$AAs?$AAw?$AAi?$AAs?$AAs?$AA?$AA@ 1004d2c4     LIBCMT:getqloc.obj
 0002:000092e0       ??_C@_1BM@LGMDBEPD@?$AAi?$AAr?$AAi?$AAs?$AAh?$AA?9?$AAe?$AAn?$AAg?$AAl?$AAi?$AAs?$AAh?$AA?$AA@ 1004d2e0     LIBCMT:getqloc.obj
 0002:000092fc       ??_C@_1BM@NNCFBAEE@?$AAi?$AAt?$AAa?$AAl?$AAi?$AAa?$AAn?$AA?9?$AAs?$AAw?$AAi?$AAs?$AAs?$AA?$AA@ 1004d2fc     LIBCMT:getqloc.obj
 0002:00009318       ??_C@_1BE@FEDJNPIB@?$AAn?$AAo?$AAr?$AAw?$AAe?$AAg?$AAi?$AAa?$AAn?$AA?$AA@ 1004d318     LIBCMT:getqloc.obj
 0002:0000932c       ??_C@_1CC@CILKDEIE@?$AAn?$AAo?$AAr?$AAw?$AAe?$AAg?$AAi?$AAa?$AAn?$AA?9?$AAb?$AAo?$AAk?$AAm?$AAa?$AAl?$AA?$AA@ 1004d32c     LIBCMT:getqloc.obj
 0002:00009350       ??_C@_1CE@DHMMHEPL@?$AAn?$AAo?$AAr?$AAw?$AAe?$AAg?$AAi?$AAa?$AAn?$AA?9?$AAn?$AAy?$AAn?$AAo?$AAr?$AAs?$AAk?$AA?$AA@ 1004d350     LIBCMT:getqloc.obj
 0002:00009374       ??_C@_1CK@OPNMHECD@?$AAp?$AAo?$AAr?$AAt?$AAu?$AAg?$AAu?$AAe?$AAs?$AAe?$AA?9?$AAb?$AAr?$AAa?$AAz?$AAi?$AAl?$AAi?$AAa?$AAn?$AA?$AA@ 1004d374     LIBCMT:getqloc.obj
 0002:000093a0       ??_C@_1CE@KEEHCDB@?$AAs?$AAp?$AAa?$AAn?$AAi?$AAs?$AAh?$AA?9?$AAa?$AAr?$AAg?$AAe?$AAn?$AAt?$AAi?$AAn?$AAa?$AA?$AA@ 1004d3a0     LIBCMT:getqloc.obj
 0002:000093c4       ??_C@_1CA@GIAOLHJD@?$AAs?$AAp?$AAa?$AAn?$AAi?$AAs?$AAh?$AA?9?$AAb?$AAo?$AAl?$AAi?$AAv?$AAi?$AAa?$AA?$AA@ 1004d3c4     LIBCMT:getqloc.obj
 0002:000093e4       ??_C@_1BM@OJNDFNPD@?$AAs?$AAp?$AAa?$AAn?$AAi?$AAs?$AAh?$AA?9?$AAc?$AAh?$AAi?$AAl?$AAe?$AA?$AA@ 1004d3e4     LIBCMT:getqloc.obj
 0002:00009400       ??_C@_1CC@OCOLPALL@?$AAs?$AAp?$AAa?$AAn?$AAi?$AAs?$AAh?$AA?9?$AAc?$AAo?$AAl?$AAo?$AAm?$AAb?$AAi?$AAa?$AA?$AA@ 1004d400     LIBCMT:getqloc.obj
 0002:00009424       ??_C@_1CG@BPOFMKBB@?$AAs?$AAp?$AAa?$AAn?$AAi?$AAs?$AAh?$AA?9?$AAc?$AAo?$AAs?$AAt?$AAa?$AA?5?$AAr?$AAi?$AAc?$AAa?$AA?$AA@ 1004d424     LIBCMT:getqloc.obj
 0002:0000944c       ??_C@_1DG@IGOBAPBB@?$AAs?$AAp?$AAa?$AAn?$AAi?$AAs?$AAh?$AA?9?$AAd?$AAo?$AAm?$AAi?$AAn?$AAi?$AAc?$AAa?$AAn?$AA?5?$AAr?$AAe?$AAp?$AAu?$AAb?$AAl?$AAi?$AAc?$AA?$AA@ 1004d44c     LIBCMT:getqloc.obj
 0002:00009484       ??_C@_1CA@JHAPGEGI@?$AAs?$AAp?$AAa?$AAn?$AAi?$AAs?$AAh?$AA?9?$AAe?$AAc?$AAu?$AAa?$AAd?$AAo?$AAr?$AA?$AA@ 1004d484     LIBCMT:getqloc.obj
 0002:000094a4       ??_C@_1CI@LAPALJPP@?$AAs?$AAp?$AAa?$AAn?$AAi?$AAs?$AAh?$AA?9?$AAe?$AAl?$AA?5?$AAs?$AAa?$AAl?$AAv?$AAa?$AAd?$AAo?$AAr?$AA?$AA@ 1004d4a4     LIBCMT:getqloc.obj
 0002:000094cc       ??_C@_1CE@PDGBOFOM@?$AAs?$AAp?$AAa?$AAn?$AAi?$AAs?$AAh?$AA?9?$AAg?$AAu?$AAa?$AAt?$AAe?$AAm?$AAa?$AAl?$AAa?$AA?$AA@ 1004d4cc     LIBCMT:getqloc.obj
 0002:000094f0       ??_C@_1CC@NBEBAODI@?$AAs?$AAp?$AAa?$AAn?$AAi?$AAs?$AAh?$AA?9?$AAh?$AAo?$AAn?$AAd?$AAu?$AAr?$AAa?$AAs?$AA?$AA@ 1004d4f0     LIBCMT:getqloc.obj
 0002:00009514       ??_C@_1CA@LLKGHBMF@?$AAs?$AAp?$AAa?$AAn?$AAi?$AAs?$AAh?$AA?9?$AAm?$AAe?$AAx?$AAi?$AAc?$AAa?$AAn?$AA?$AA@ 1004d514     LIBCMT:getqloc.obj
 0002:00009534       ??_C@_1BO@LKNDOIGD@?$AAs?$AAp?$AAa?$AAn?$AAi?$AAs?$AAh?$AA?9?$AAm?$AAo?$AAd?$AAe?$AAr?$AAn?$AA?$AA@ 1004d534     LIBCMT:getqloc.obj
 0002:00009554       ??_C@_1CE@NMDMOEEB@?$AAs?$AAp?$AAa?$AAn?$AAi?$AAs?$AAh?$AA?9?$AAn?$AAi?$AAc?$AAa?$AAr?$AAa?$AAg?$AAu?$AAa?$AA?$AA@ 1004d554     LIBCMT:getqloc.obj
 0002:00009578       ??_C@_1BO@LLCBEJGB@?$AAs?$AAp?$AAa?$AAn?$AAi?$AAs?$AAh?$AA?9?$AAp?$AAa?$AAn?$AAa?$AAm?$AAa?$AA?$AA@ 1004d578     LIBCMT:getqloc.obj
 0002:00009598       ??_C@_1CC@FKPGGIHO@?$AAs?$AAp?$AAa?$AAn?$AAi?$AAs?$AAh?$AA?9?$AAp?$AAa?$AAr?$AAa?$AAg?$AAu?$AAa?$AAy?$AA?$AA@ 1004d598     LIBCMT:getqloc.obj
 0002:000095bc       ??_C@_1BK@CDEIHOOP@?$AAs?$AAp?$AAa?$AAn?$AAi?$AAs?$AAh?$AA?9?$AAp?$AAe?$AAr?$AAu?$AA?$AA@ 1004d5bc     LIBCMT:getqloc.obj
 0002:000095d8       ??_C@_1CI@GAHAKKGP@?$AAs?$AAp?$AAa?$AAn?$AAi?$AAs?$AAh?$AA?9?$AAp?$AAu?$AAe?$AAr?$AAt?$AAo?$AA?5?$AAr?$AAi?$AAc?$AAo?$AA?$AA@ 1004d5d8     LIBCMT:getqloc.obj
 0002:00009600       ??_C@_1CA@NKJBCAGP@?$AAs?$AAp?$AAa?$AAn?$AAi?$AAs?$AAh?$AA?9?$AAu?$AAr?$AAu?$AAg?$AAu?$AAa?$AAy?$AA?$AA@ 1004d600     LIBCMT:getqloc.obj
 0002:00009620       ??_C@_1CE@ODILCONM@?$AAs?$AAp?$AAa?$AAn?$AAi?$AAs?$AAh?$AA?9?$AAv?$AAe?$AAn?$AAe?$AAz?$AAu?$AAe?$AAl?$AAa?$AA?$AA@ 1004d620     LIBCMT:getqloc.obj
 0002:00009644       ??_C@_1CA@OBNMCGFO@?$AAs?$AAw?$AAe?$AAd?$AAi?$AAs?$AAh?$AA?9?$AAf?$AAi?$AAn?$AAl?$AAa?$AAn?$AAd?$AA?$AA@ 1004d644     LIBCMT:getqloc.obj
 0002:00009664       ??_C@_1M@PIPDDPPI@?$AAs?$AAw?$AAi?$AAs?$AAs?$AA?$AA@ 1004d664     LIBCMT:getqloc.obj
 0002:00009670       ??_C@_15PJPFLCCM@?$AAu?$AAk?$AA?$AA@ 1004d670     LIBCMT:getqloc.obj
 0002:00009678       ??_C@_15GMFIMNFM@?$AAu?$AAs?$AA?$AA@ 1004d678     LIBCMT:getqloc.obj
 0002:00009680       ??_C@_17HAEBFAGL@?$AAu?$AAs?$AAa?$AA?$AA@ 1004d680     LIBCMT:getqloc.obj
 0002:00009688       ___rg_country              1004d688     LIBCMT:getqloc.obj
 0002:0000979c       ??_C@_1BA@DPFJEPHB@?$AAa?$AAm?$AAe?$AAr?$AAi?$AAc?$AAa?$AA?$AA@ 1004d79c     LIBCMT:getqloc.obj
 0002:000097ac       ??_C@_1BA@ELOGGFK@?$AAb?$AAr?$AAi?$AAt?$AAa?$AAi?$AAn?$AA?$AA@ 1004d7ac     LIBCMT:getqloc.obj
 0002:000097bc       ??_C@_1M@GHBGIGDA@?$AAc?$AAh?$AAi?$AAn?$AAa?$AA?$AA@ 1004d7bc     LIBCMT:getqloc.obj
 0002:000097c8       ??_C@_1M@NCHEJOPO@?$AAc?$AAz?$AAe?$AAc?$AAh?$AA?$AA@ 1004d7c8     LIBCMT:getqloc.obj
 0002:000097d4       ??_C@_1BA@BKPAPBLA@?$AAe?$AAn?$AAg?$AAl?$AAa?$AAn?$AAd?$AA?$AA@ 1004d7d4     LIBCMT:getqloc.obj
 0002:000097e4       ??_C@_1BM@HKBCKIPC@?$AAg?$AAr?$AAe?$AAa?$AAt?$AA?5?$AAb?$AAr?$AAi?$AAt?$AAa?$AAi?$AAn?$AA?$AA@ 1004d7e4     LIBCMT:getqloc.obj
 0002:00009800       ??_C@_1BA@PPCHPGJB@?$AAh?$AAo?$AAl?$AAl?$AAa?$AAn?$AAd?$AA?$AA@ 1004d800     LIBCMT:getqloc.obj
 0002:00009810       ??_C@_1BE@JBMPEGDG@?$AAh?$AAo?$AAn?$AAg?$AA?9?$AAk?$AAo?$AAn?$AAg?$AA?$AA@ 1004d810     LIBCMT:getqloc.obj
 0002:00009824       ??_C@_1BI@KOELBBPJ@?$AAn?$AAe?$AAw?$AA?9?$AAz?$AAe?$AAa?$AAl?$AAa?$AAn?$AAd?$AA?$AA@ 1004d824     LIBCMT:getqloc.obj
 0002:0000983c       ??_C@_15HIEBHAIO@?$AAn?$AAz?$AA?$AA@ 1004d83c     LIBCMT:getqloc.obj
 0002:00009844       ??_C@_1BC@CHBCPFPI@?$AAp?$AAr?$AA?5?$AAc?$AAh?$AAi?$AAn?$AAa?$AA?$AA@ 1004d844     LIBCMT:getqloc.obj
 0002:00009858       ??_C@_1BC@JAOIIFKD@?$AAp?$AAr?$AA?9?$AAc?$AAh?$AAi?$AAn?$AAa?$AA?$AA@ 1004d858     LIBCMT:getqloc.obj
 0002:0000986c       ??_C@_1BI@BEHPPHKC@?$AAp?$AAu?$AAe?$AAr?$AAt?$AAo?$AA?9?$AAr?$AAi?$AAc?$AAo?$AA?$AA@ 1004d86c     LIBCMT:getqloc.obj
 0002:00009884       ??_C@_1O@PAEOFKDI@?$AAs?$AAl?$AAo?$AAv?$AAa?$AAk?$AA?$AA@ 1004d884     LIBCMT:getqloc.obj
 0002:00009894       ??_C@_1BK@FIHMCKAM@?$AAs?$AAo?$AAu?$AAt?$AAh?$AA?5?$AAa?$AAf?$AAr?$AAi?$AAc?$AAa?$AA?$AA@ 1004d894     LIBCMT:getqloc.obj
 0002:000098b0       ??_C@_1BI@NAEOODKB@?$AAs?$AAo?$AAu?$AAt?$AAh?$AA?5?$AAk?$AAo?$AAr?$AAe?$AAa?$AA?$AA@ 1004d8b0     LIBCMT:getqloc.obj
 0002:000098c8       ??_C@_1BK@FBDGGIFF@?$AAs?$AAo?$AAu?$AAt?$AAh?$AA?9?$AAa?$AAf?$AAr?$AAi?$AAc?$AAa?$AA?$AA@ 1004d8c8     LIBCMT:getqloc.obj
 0002:000098e4       ??_C@_1BI@GHLEJDPK@?$AAs?$AAo?$AAu?$AAt?$AAh?$AA?9?$AAk?$AAo?$AAr?$AAe?$AAa?$AA?$AA@ 1004d8e4     LIBCMT:getqloc.obj
 0002:000098fc       ??_C@_1CE@PLHLOMJF@?$AAt?$AAr?$AAi?$AAn?$AAi?$AAd?$AAa?$AAd?$AA?5?$AA?$CG?$AA?5?$AAt?$AAo?$AAb?$AAa?$AAg?$AAo?$AA?$AA@ 1004d8fc     LIBCMT:getqloc.obj
 0002:00009920       ??_C@_1BO@MODIMHHI@?$AAu?$AAn?$AAi?$AAt?$AAe?$AAd?$AA?9?$AAk?$AAi?$AAn?$AAg?$AAd?$AAo?$AAm?$AA?$AA@ 1004d920     LIBCMT:getqloc.obj
 0002:00009940       ??_C@_1BM@FFHJONBJ@?$AAu?$AAn?$AAi?$AAt?$AAe?$AAd?$AA?9?$AAs?$AAt?$AAa?$AAt?$AAe?$AAs?$AA?$AA@ 1004d940     LIBCMT:getqloc.obj
 0002:0000995c       ??_C@_17DNCLJFIF@?$AAA?$AAC?$AAP?$AA?$AA@ 1004d95c     LIBCMT:getqloc.obj
 0002:00009964       ??_C@_17CIKBIHLH@?$AAO?$AAC?$AAP?$AA?$AA@ 1004d964     LIBCMT:getqloc.obj
 0002:00009970       __load_config_used         1004d970     LIBCMT:loadcfg.obj
 0002:0000aaa0       ___safe_se_handler_table   1004eaa0     <linker-defined>
 0002:0000abb0       ___rtc_iaa                 1004ebb0     LIBCMT:initsect.obj
 0002:0000acb4       ___rtc_izz                 1004ecb4     LIBCMT:initsect.obj
 0002:0000adb8       ___rtc_taa                 1004edb8     LIBCMT:initsect.obj
 0002:0000aebc       ___rtc_tzz                 1004eebc     LIBCMT:initsect.obj
 0003:00000260       _untitled20210804_P        10050260     untitled20210804_data.obj
 0003:00000720       _pci20041digout            10050720     xpctarget.obj
 0003:00000724       _nipcdio24cnfg             10050724     xpctarget.obj
 0003:00000728       _rtddm6604cnfg             10050728     xpctarget.obj
 0003:00000760       _sysPath_mb                10050760     xpccanac2pci_vc:card_can_mbx.obj
 0003:000007b0       _dldDeviceLoadData_pcmcia8_mb 100507b0     xpccanac2pci_vc:loadcard_mbx.obj
 0003:000007d0       _dldDeviceLoadData_pcmcia16_mb 100507d0     xpccanac2pci_vc:loadcard_mbx.obj
 0003:000007f0       _dldDeviceLoadData_pci_mb  100507f0     xpccanac2pci_vc:loadcard_mbx.obj
 0003:00000810       _dldDeviceLoadData_pc104_mb 10050810     xpccanac2pci_vc:loadcard_mbx.obj
 0003:00000840       _TimeoutCard_mb            10050840     xpccanac2pci_vc:loadcard_mbx.obj
 0003:00000848       _wboot_cpBytes_mb          10050848     xpccanac2pci_vc:fboot_cp_mbx.obj
 0003:00000850       _bboot_cpData_mb           10050850     xpccanac2pci_vc:fboot_cp_mbx.obj
 0003:00000908       _wldboardBytes_mb          10050908     xpccanac2pci_vc:fldboard_mbx.obj
 0003:00000910       _bldboardData_mb           10050910     xpccanac2pci_vc:fldboard_mbx.obj
 0003:00000e48       _wcanpciBytes_mb           10050e48     xpccanac2pci_vc:fcanpci_mbx.obj
 0003:00000e50       _bcanpciData_mb            10050e50     xpccanac2pci_vc:fcanpci_mbx.obj
 0003:0000c708       _DefaultCOMIOBase          1005c708     xpcruntime:xpcimports.obj
 0003:0000c718       _DefaultCOMIRQ             1005c718     xpcruntime:xpcimports.obj
 0003:0000c730       ___security_cookie         1005c730     LIBCMT:gs_cookie.obj
 0003:0000c734       ___security_cookie_complement 1005c734     LIBCMT:gs_cookie.obj
 0003:0000c738       __fltused                  1005c738     LIBCMT:fpinit.obj
 0003:0000c73c       __ldused                   1005c73c     LIBCMT:fpinit.obj
 0003:0000c740       __iob                      1005c740     LIBCMT:_file.obj
 0003:0000c9c0       ___isa_enabled             1005c9c0     LIBCMT:cpu_disp.obj
 0003:0000cb98       ___nullstring              1005cb98     LIBCMT:output.obj
 0003:0000cb9c       ___wnullstring             1005cb9c     LIBCMT:output.obj
 0003:0000cba0       __cfltcvt_tab              1005cba0     LIBCMT:cmiscdat.obj
 0003:0000ccf4       ___ptmbcinfo               1005ccf4     LIBCMT:mbctype.obj
 0003:0000cde8       __mbctype                  1005cde8     LIBCMT:mbctype.obj
 0003:0000cef0       __mbcasemap                1005cef0     LIBCMT:mbctype.obj
 0003:0000cff0       ___initialmbcinfo          1005cff0     LIBCMT:mbctype.obj
 0003:0000d210       ___badioinfo               1005d210     LIBCMT:ioinit.obj
 0003:0000d250       __lookuptrailbytes         1005d250     LIBCMT:read.obj
 0003:0000d350       __d_inf                    1005d350     LIBCMT:util.obj
 0003:0000d358       __d_ind                    1005d358     LIBCMT:util.obj
 0003:0000d360       __d_max                    1005d360     LIBCMT:util.obj
 0003:0000d368       __d_min                    1005d368     LIBCMT:util.obj
 0003:0000d370       __d_mzero                  1005d370     LIBCMT:util.obj
 0003:0000d47c       ___abort_behavior          1005d47c     LIBCMT:abort.obj
 0003:0000d480       ___flsindex                1005d480     LIBCMT:tidtable.obj
 0003:0000d490       ___wclocalestr             1005d490     LIBCMT:nlsdata.obj
 0003:0000d498       ___lc_time_c               1005d498     LIBCMT:nlsdata.obj
 0003:0000d5fc       ___ptlocinfo               1005d5fc     LIBCMT:nlsdata.obj
 0003:0000d600       ___initiallocinfo          1005d600     LIBCMT:nlsdata.obj
 0003:0000d6b8       ___initiallocalestructinfo 1005d6b8     LIBCMT:nlsdata.obj
 0003:0000d6c0       ___mb_cur_max              1005d6c0     LIBCMT:nlsdata.obj
 0003:0000d6c4       ___globallocalestatus      1005d6c4     LIBCMT:glstatus.obj
 0003:0000d6d0       __NLG_Destination          1005d6d0     LIBCMT:exsup.obj
 0003:0000d6e0       __matherr_flag             1005d6e0     LIBCMT:matherr.obj
 0003:0000d6e8       ___lconv                   1005d6e8     LIBCMT:lconv.obj
 0003:0000d6ec       ___lconv_static_decimal    1005d6ec     LIBCMT:lconv.obj
 0003:0000d6f0       ___lconv_c                 1005d6f0     LIBCMT:lconv.obj
 0003:0000d740       ___lconv_static_W_decimal  1005d740     LIBCMT:lconv.obj
 0003:0000d744       __pctype                   1005d744     LIBCMT:ctype.obj
 0003:0000d748       __pwctype                  1005d748     LIBCMT:ctype.obj
 0003:0000d780       __confh                    1005d780     LIBCMT:initcon.obj
 0003:0000d788       __pow10pos                 1005d788     LIBCMT:constpow.obj
 0003:0000d8e8       __pow10neg                 1005d8e8     LIBCMT:constpow.obj
 0003:000105f8       ___isa_available_default   100605f8     rt_logging.obj
 0003:0001060c       _xmlsize                   1006060c     xpctarget.obj
 0003:00010610       _pci20098PortA             10060610     xpctarget.obj
 0003:00010614       _pci20098PortB             10060614     xpctarget.obj
 0003:00010618       _siepowercan_firmware_initialized 10060618     xpctarget.obj
 0003:0001061c       _siepowercan_port1_configured 1006061c     xpctarget.obj
 0003:00010620       _siepowercan_port2_configured 10060620     xpctarget.obj
 0003:00010624       _CANAC2_FIRMWARE_LOADED    10060624     xpctarget.obj
 0003:00010628       _rs232ports                10060628     xpctarget.obj
 0003:00010638       _NI_AT_MIO_16F_5_commreg2  10060638     xpctarget.obj
 0003:0001063c       _RTD_DM6430_init           1006063c     xpctarget.obj
 0003:00010640       _RTD_DM6420_init           10060640     xpctarget.obj
 0003:00010644       _CANAC2_FIRMWARE_LOADED_mb1 10060644     xpctarget.obj
 0003:00010648       _CANAC2_FIRMWARE_LOADED_mb2 10060648     xpctarget.obj
 0003:0001064c       _CANAC2_FIRMWARE_LOADED_mb3 1006064c     xpctarget.obj
 0003:00010840       _SignalsDefined_mbx        10060840     xpccanac2pci_vc:card_can_mbx.obj
 0003:00010858       _bus_state1_mbx            10060858     xpccanac2pci_vc:card_can_mbx.obj
 0003:000108a0       _bus_state2_mbx            100608a0     xpccanac2pci_vc:card_can_mbx.obj
 0003:000108e4       _old_status_reg1_mbx       100608e4     xpccanac2pci_vc:card_can_mbx.obj
 0003:000108f8       _old_status_reg2_mbx       100608f8     xpccanac2pci_vc:card_can_mbx.obj
 0003:00010910       _boLoadCardSuccessful_mbx  10060910     xpccanac2pci_vc:card_ini_mbx.obj
 0003:00010958       _PnPPhysAccessHandle_mbx   10060958     xpccanac2pci_vc:card_ini_mbx.obj
 0003:000109a0       _dpram_ptr_mbx             100609a0     xpccanac2pci_vc:card_ini_mbx.obj
 0003:000109e8       _attribute_ptr_mbx         100609e8     xpccanac2pci_vc:card_ini_mbx.obj
 0003:00011ce4       ___fastflag                10061ce4     LIBCMT:fpinit.obj
 0003:00012008       __C_Exit_Done              10062008     LIBCMT:crt0dat.obj
 0003:0001200c       ___argc                    1006200c     LIBCMT:crt0dat.obj
 0003:00012010       ___argv                    10062010     LIBCMT:crt0dat.obj
 0003:00012014       ___wargv                   10062014     LIBCMT:crt0dat.obj
 0003:00012018       __environ                  10062018     LIBCMT:crt0dat.obj
 0003:0001201c       __wenviron                 1006201c     LIBCMT:crt0dat.obj
 0003:00012020       __pgmptr                   10062020     LIBCMT:crt0dat.obj
 0003:00012024       __wpgmptr                  10062024     LIBCMT:crt0dat.obj
 0003:00012028       __umaskval                 10062028     LIBCMT:crt0dat.obj
 0003:0001202c       __exitflag                 1006202c     LIBCMT:crt0dat.obj
 0003:00012030       __C_Termination_Done       10062030     LIBCMT:crt0dat.obj
 0003:00012034       ___winitenv                10062034     LIBCMT:crt0dat.obj
 0003:00012038       ___initenv                 10062038     LIBCMT:crt0dat.obj
 0003:0001203c       __cflush                   1006203c     LIBCMT:_file.obj
 0003:00012040       ___isa_available           10062040     LIBCMT:cpu_disp.obj
 0003:00012044       ___favor                   10062044     LIBCMT:cpu_disp.obj
 0003:00012048       __aenvptr                  10062048     LIBCMT:dllcrt0.obj
 0003:0001204c       __wenvptr                  1006204c     LIBCMT:dllcrt0.obj
 0003:00012054       ?_pnhHeap@@3P6AHI@ZA       10062054     LIBCMT:handler.obj
 0003:00012058       ___app_type                10062058     LIBCMT:crt0msg.obj
 0003:00012688       __newmode                  10062688     LIBCMT:_newmode.obj
 0003:0001268c       __crtheap                  1006268c     LIBCMT:heapinit.obj
 0003:00012690       ___pInvalidArgHandler      10062690     LIBCMT:invarg.obj
 0003:00012694       __stdbuf                   10062694     LIBCMT:_sftbuf.obj
 0003:000127f0       __maxwait                  100627f0     LIBCMT:crtheap.obj
 0003:000127f4       ?__pInconsistency@@3P6AXXZA 100627f4     LIBCMT:hooks.obj
 0003:000127f8       ___pPurecall               100627f8     LIBCMT:inithelp.obj
 0003:00012814       ___mblocalename            10062814     LIBCMT:mbctype.obj
 0003:00012818       ___mbcodepage              10062818     LIBCMT:mbctype.obj
 0003:0001281c       ___ismbcodepage            1006281c     LIBCMT:mbctype.obj
 0003:00012820       ___mbulinfo                10062820     LIBCMT:mbctype.obj
 0003:00012830       ___ioInitOnce              10062830     LIBCMT:ioinit.obj
 0003:00012834       ___error_mode              10062834     LIBCMT:errmode.obj
 0003:00012958       __outputformat             10062958     LIBCMT:outputformat.obj
 0003:0001295c       __commode                  1006295c     LIBCMT:ncommode.obj
 0003:00012960       ___lconv_static_null       10062960     LIBCMT:lconv.obj
 0003:00012964       ___lconv_static_W_null     10062964     LIBCMT:lconv.obj
 0003:00012968       ___locale_changed          10062968     LIBCMT:wsetloca.obj
 0003:0001296c       __fmode                    1006296c     LIBCMT:txtmode.obj
 0003:00012980       _g_xpccanac2busstatusx     10062980     <common>
 0003:000129e0       _CANAC2_2_receiveindex_mb3 100629e0     <common>
 0003:00015ab4       _CANAC2_2_receivemaxindex_mb3 10065ab4     <common>
 0003:00015ac0       _CANAC2_2_sendindex_mb3    10065ac0     <common>
 0003:00015de0       _CANAC2_2_sendmaxindex_mb3 10065de0     <common>
 0003:00015e00       _CANAC2_1_receiveindex_mb3 10065e00     <common>
 0003:00016120       _CANAC2_1_receivemaxindex_mb3 10066120     <common>
 0003:00016140       _CANAC2_1_sendindex_mb3    10066140     <common>
 0003:00016460       _CANAC2_1_sendmaxindex_mb3 10066460     <common>
 0003:00016480       _CANAC2_2_receive_mb3      10066480     <common>
 0003:000167a0       _CANAC2_2_send_mb3         100667a0     <common>
 0003:00016ac0       _CANAC2_1_receive_mb3      10066ac0     <common>
 0003:00016de0       _CANAC2_1_send_mb3         10066de0     <common>
 0003:00017100       _CANAC2_2_receiveindex_mb2 10067100     <common>
 0003:00017420       _CANAC2_2_receivemaxindex_mb2 10067420     <common>
 0003:00017440       _CANAC2_2_sendindex_mb2    10067440     <common>
 0003:00017760       _CANAC2_2_sendmaxindex_mb2 10067760     <common>
 0003:00017780       _CANAC2_1_receiveindex_mb2 10067780     <common>
 0003:00017aa0       _CANAC2_1_receivemaxindex_mb2 10067aa0     <common>
 0003:00017ac0       _CANAC2_1_sendindex_mb2    10067ac0     <common>
 0003:00017de0       _CANAC2_1_sendmaxindex_mb2 10067de0     <common>
 0003:00017e00       _CANAC2_2_receive_mb2      10067e00     <common>
 0003:00018120       _CANAC2_2_send_mb2         10068120     <common>
 0003:00018440       _CANAC2_1_receive_mb2      10068440     <common>
 0003:00018760       _CANAC2_1_send_mb2         10068760     <common>
 0003:00018a80       _CANAC2_2_receiveindex_mb1 10068a80     <common>
 0003:00018da0       _CANAC2_2_receivemaxindex_mb1 10068da0     <common>
 0003:00018dc0       _CANAC2_2_sendindex_mb1    10068dc0     <common>
 0003:000190e0       _CANAC2_2_sendmaxindex_mb1 100690e0     <common>
 0003:00019100       _CANAC2_1_receiveindex_mb1 10069100     <common>
 0003:00019420       _CANAC2_1_receivemaxindex_mb1 10069420     <common>
 0003:00019440       _CANAC2_1_sendindex_mb1    10069440     <common>
 0003:00019760       _CANAC2_1_sendmaxindex_mb1 10069760     <common>
 0003:00019780       _CANAC2_2_receive_mb1      10069780     <common>
 0003:00019aa0       _CANAC2_2_send_mb1         10069aa0     <common>
 0003:00019dc0       _CANAC2_1_receive_mb1      10069dc0     <common>
 0003:0001a0e0       _CANAC2_1_send_mb1         1006a0e0     <common>
 0003:0001a400       _CANAC2_2_receiveindex     1006a400     <common>
 0003:0001a720       _CANAC2_2_receivemaxindex  1006a720     <common>
 0003:0001a740       _CANAC2_2_sendindex        1006a740     <common>
 0003:0001aa60       _CANAC2_2_sendmaxindex     1006aa60     <common>
 0003:0001aa80       _CANAC2_1_receiveindex     1006aa80     <common>
 0003:0001ada0       _CANAC2_1_receivemaxindex  1006ada0     <common>
 0003:0001adc0       _CANAC2_1_sendindex        1006adc0     <common>
 0003:0001b0e0       _CANAC2_1_sendmaxindex     1006b0e0     <common>
 0003:0001b100       _CANAC2_2_receive          1006b100     <common>
 0003:0001b420       _CANAC2_2_send             1006b420     <common>
 0003:0001b740       _CANAC2_1_receive          1006b740     <common>
 0003:0001ba60       _CANAC2_1_send             1006ba60     <common>
 0003:0001bd80       _siepowercan_can_object_buffer_port2 1006bd80     <common>
 0003:0001fda0       _siepowercan_can_object_buffer_port1 1006fda0     <common>
 0003:00023da0       _rtNaNF                    10073da0     <common>
 0003:00023db4       _rtMinusInfF               10073db4     <common>
 0003:00023db8       _rtInfF                    10073db8     <common>
 0003:00023dc0       _rtNaN                     10073dc0     <common>
 0003:00023dc8       _rtMinusInf                10073dc8     <common>
 0003:00023dd0       _rtInf                     10073dd0     <common>
 0003:00023de0       _untitled20210804_M_       10073de0     <common>
 0003:00024680       _untitled20210804_DW       10074680     <common>
 0003:000246a0       _untitled20210804_B        100746a0     <common>
 0003:00024760       _ToutStartTime_mbx         10074760     <common>
 0003:00024860       _CanCardINIData_mbx        10074860     <common>
 0003:000249c0       _CSnotused_mbx             100749c0     <common>
 0003:00024a20       _odOpenDevices_mbx         10074a20     <common>
 0003:00026c60       _ditDeviceList_mbx         10076c60     <common>
 0003:000270a0       _strDriverDLLName_mbx      100770a0     <common>
 0003:000271c0       _memBase_mbx               100771c0     <common>
 0003:00027220       _access_mbx                10077220     <common>
 0003:00027260       _intNo_mbx                 10077260     <common>
 0003:000272a0       _ioBase_mbx                100772a0     <common>
 0003:000272e0       _bcancrd2Data_mbx          100772e0     <common>
 0003:00027300       _bcansjaData_mbx           10077300     <common>
 0003:00027311       _bcancardData_mb           10077311     <common>
 0003:00027320       _bldcard2Data_mbx          10077320     <common>
 0003:00027340       _bldcardData_mbx           10077340     <common>
 0003:00027360       _bbcard2Data_mbx           10077360     <common>
 0003:00027380       _bbcardData_mbx            10077380     <common>
 0003:000273a0       _Intr_mbx                  100773a0     <common>
 0003:00027420       _IoAddress_mbx             10077420     <common>
 0003:00027480       _int_regs2_mbx             10077480     <common>
 0003:000276a0       _info2_mbx                 100776a0     <common>
 0003:00027700       _int_regs1_mbx             10077700     <common>
 0003:00027760       _info1_mbx                 10077760     <common>
 0003:000277c0       _fct2_mbx                  100777c0     <common>
 0003:00027820       _fct1_mbx                  10077820     <common>
 0003:00027880       _xmt_fifo2_mbx             10077880     <common>
 0003:000278e0       _rcv_fifo2_mbx             100778e0     <common>
 0003:00027940       _xmt_fifo1_mbx             10077940     <common>
 0003:000279a0       _rcv_fifo1_mbx             100779a0     <common>
 0003:00027a00       _temp2_mbx                 10077a00     <common>
 0003:00027a20       _temp1_mbx                 10077a20     <common>
 0003:00027a40       _object_buffer_enable2_mbx 10077a40     <common>
 0003:00027aa0       _dyn_enable2_mbx           10077aa0     <common>
 0003:00027b00       _object_buffer_enable1_mbx 10077b00     <common>
 0003:00027b60       _dyn_enable1_mbx           10077b60     <common>
 0003:00027bc0       _number_of_xmt_objects2_mbx 10077bc0     <common>
 0003:00027c20       _number_of_xmt_objects1_mbx 10077c20     <common>
 0003:00027c80       _number_of_rcv_objects2_mbx 10077c80     <common>
 0003:00027ce0       _number_of_rcv_objects1_mbx 10077ce0     <common>
 0003:00027d40       _pb_mbx                    10077d40     <common>
 0003:00027e20       _TimeStampType_mbx         10077e20     <common>
 0003:00027e80       _time2_temp3A_mbx          10077e80     <common>
 0003:00027ee0       _time2_temp1A_mbx          10077ee0     <common>
 0003:00027f40       _time2_temp3_mbx           10077f40     <common>
 0003:00027fa0       _time2_temp2_mbx           10077fa0     <common>
 0003:00028000       _time2_temp1_mbx           10078000     <common>
 0003:00028060       _time1_temp3A_mbx          10078060     <common>
 0003:000280c0       _time1_temp1A_mbx          100780c0     <common>
 0003:00028120       _time1_temp3_mbx           10078120     <common>
 0003:00028180       _time1_temp2_mbx           10078180     <common>
 0003:000281e0       _time1_temp1_mbx           100781e0     <common>
 0003:00028224       _socket                    10078224     <common>
 0003:00028284       _inet_addr                 10078284     <common>
 0003:00028288       _sendto                    10078288     <common>
 0003:0002828c       _recvfrom                  1007828c     <common>
 0003:00028290       _listen                    10078290     <common>
 0003:00028294       _ioctlsocket               10078294     <common>
 0003:00028298       _connect                   10078298     <common>
 0003:0002829c       _closesocket               1007829c     <common>
 0003:000282a0       _setsockopt                100782a0     <common>
 0003:000282a4       _bind                      100782a4     <common>
 0003:000282a8       _accept                    100782a8     <common>
 0003:000282ac       _GetHostTarIPAdd           100782ac     <common>
 0003:000282b0       _GetDCUUsage               100782b0     <common>
 0003:000282b4       _DeleteRoute               100782b4     <common>
 0003:000282b8       _AddGatewayRoute           100782b8     <common>
 0003:000282bc       _SetIP                     100782bc     <common>
 0003:000282c0       _CloseInterface            100782c0     <common>
 0003:000282c4       _OpenInterface             100782c4     <common>
 0003:000282c8       _SetIPTASKPriority         100782c8     <common>
 0003:000282cc       _isUsedByRTIP              100782cc     <common>
 0003:000282d0       _getlasterror              100782d0     <common>
 0003:000282d4       _slrtfsGetFileStatus       100782d4     <common>
 0003:000282d8       _slrtfsOpenFileAsync       100782d8     <common>
 0003:000282dc       _slrtfsCloseFileAsync      100782dc     <common>
 0003:000282e0       _slrtfsGetFileErrorMessage 100782e0     <common>
 0003:000282e4       _slrtfsGetFileError        100782e4     <common>
 0003:000282e8       _slrtfsWriteToFile         100782e8     <common>
 0003:000282ec       _slrtfsCloseFile           100782ec     <common>
 0003:000282f0       _slrtfsOpenFile            100782f0     <common>
 0003:000282f4       _slrtGetSgCRBSpace         100782f4     <common>
 0003:000282f8       _slrtGetCRBScratchSpace    100782f8     <common>
 0003:000282fc       _slrteSetupMSI             100782fc     <common>
 0003:00028300       _slTestRegAssessment       10078300     <common>
 0003:00028304       _slTestTerminate           10078304     <common>
 0003:00028308       _slTestEvalOnFail          10078308     <common>
 0003:0002830c       _slTestLogAssessments      1007830c     <common>
 0003:00028310       _slTestInitialize          10078310     <common>
 0003:00028314       _unRegisterPTPTimeRead     10078314     <common>
 0003:00028318       _registerPTPTimeRead       10078318     <common>
 0003:0002831c       _slrteGetCurrentStepSize   1007831c     <common>
 0003:00028320       _slrteSetStepSizeDelta     10078320     <common>
 0003:00028324       _xpceGetIntTimerGranularityNS 10078324     <common>
 0003:00028328       _sendToAsyncQueueTgtAppSvc 10078328     <common>
 0003:0002832c       _terminateToAsyncQueueTgtAppSvc 1007832c     <common>
 0003:00028330       _startToAsyncQueueTgtAppSvc 10078330     <common>
 0003:00028334       _getStatusFlags            10078334     <common>
 0003:00028338       _getCommService            10078338     <common>
 0003:0002833c       _getMemoryService          1007833c     <common>
 0003:00028340       _StreamVideo               10078340     <common>
 0003:00028344       _StopVideoDisplay          10078344     <common>
 0003:00028348       _StartVideoDisplay         10078348     <common>
 0003:0002834c       _DestroyVideoDisplay       1007834c     <common>
 0003:00028350       _CreateVideoDisplay        10078350     <common>
 0003:00028354       _ConvertUImage             10078354     <common>
 0003:00028358       _StopVideo                 10078358     <common>
 0003:0002835c       _ReadFrameBuffer           1007835c     <common>
 0003:00028360       _StartVideo                10078360     <common>
 0003:00028364       _GetVideoConfigs           10078364     <common>
 0003:00028368       _FindUsbVideoDevice        10078368     <common>
 0003:0002836c       _xpceDeleteSemaphore       1007836c     <common>
 0003:00028370       _xpceSignalSemaphore       10078370     <common>
 0003:00028374       _xpceWaitSemaphore         10078374     <common>
 0003:00028378       _xpceCreateSemaphore       10078378     <common>
 0003:0002837c       _TBGiveSpinFast            1007837c     <common>
 0003:00028380       _TBTakeSpinFast            10078380     <common>
 0003:00028384       _TBDeleteSpin              10078384     <common>
 0003:00028388       _TBCreateSpin              10078388     <common>
 0003:0002838c       _xpceScopeAcqOK            1007838c     <common>
 0003:00028390       _rl32eRestartAcquisition   10078390     <common>
 0003:00028394       _rl32eSetTargetScopeSigFt  10078394     <common>
 0003:00028398       _rl32eSetTargetScope       10078398     <common>
 0003:0002839c       _xpceFSScopeSet            1007839c     <common>
 0003:000283a0       _rl32eSetScope             100783a0     <common>
 0003:000283a4       _rl32eAddSignal            100783a4     <common>
 0003:000283a8       _rl32eGetSignalNo          100783a8     <common>
 0003:000283ac       _rl32eDefScope             100783ac     <common>
 0003:000283b0       _rl32eScopeExists          100783b0     <common>
 0003:000283b4       _xpceGetParamDims          100783b4     <common>
 0003:000283b8       _xpceGetParameter          100783b8     <common>
 0003:000283bc       _xpceSetParameter          100783bc     <common>
 0003:000283c0       _xpceGetSignalValue        100783c0     <common>
 0003:000283c4       _xpceAssignPCIInterrupt    100783c4     <common>
 0003:000283c8       _rl32eGetPCIInfoAtSlot     100783c8     <common>
 0003:000283cc       _rl32eGetPCIInfo           100783cc     <common>
 0003:000283d0       _rl32eShowPCIInfo          100783d0     <common>
 0003:000283d4       _rl32eShowPCIDev           100783d4     <common>
 0003:000283d8       _xpceGetTET                100783d8     <common>
 0003:000283dc       _xpceaddEvent              100783dc     <common>
 0003:000283e0       _xpceDeRegisterISR         100783e0     <common>
 0003:000283e4       _xpceRegisterISR           100783e4     <common>
 0003:000283e8       _xpcIsModelInit            100783e8     <common>
 0003:000283ec       _xpcGetElapsedTime         100783ec     <common>
 0003:000283f0       _xpcBusyWait               100783f0     <common>
 0003:000283f4       _xpcFreePhysicalMemory     100783f4     <common>
 0003:000283f8       _xpcAllocPhysicalMemory    100783f8     <common>
 0003:000283fc       _xpcReserveMemoryRegion    100783fc     <common>
 0003:00028400       _xpcOutpB                  10078400     <common>
 0003:00028404       _xpcOutpW                  10078404     <common>
 0003:00028408       _xpcOutpDW                 10078408     <common>
 0003:0002840c       _xpcInpB                   1007840c     <common>
 0003:00028410       _xpcInpW                   10078410     <common>
 0003:00028414       _xpcInpDW                  10078414     <common>
 0003:00028418       ___unguarded_readlc_active 10078418     <common>
 0003:00028428       ___setlc_active            10078428     <common>
 0003:0002842c       __nhandle                  1007842c     <common>
 0003:00028480       ___pioinfo                 10078480     <common>
 0003:00028580       __debugger_hook_dummy      10078580     <common>
 0003:0002858c       __pDestructExceptionObject 1007858c     <common>
 0003:00028598       __acmdln                   10078598     <common>
 0003:000285a4       ___piob                    100785a4     <common>
 0003:000288e4       __nstream                  100788e4     <common>
 0003:00028900       __bufin                    10078900     <common>
 0003:00029900       ___dyn_tls_init_callback   10079900     <common>
 0003:00029910       ___onexitend               10079910     <common>
 0003:00029914       ___onexitbegin             10079914     <common>
 0003:00029918       ___mbctype_initialized     10079918     <common>
 0003:0002991c       ___env_initialized         1007991c     <common>
 0004:00000000       __IMPORT_DESCRIPTOR_KERNEL32 1007a000     kernel32:KERNEL32.dll
 0004:00000014       __NULL_IMPORT_DESCRIPTOR   1007a014     kernel32:KERNEL32.dll
 0004:00000204       __imp__GetModuleHandleA@4  1007a204     kernel32:KERNEL32.dll
 0004:00000208       __imp__GetProcAddress@8    1007a208     kernel32:KERNEL32.dll
 0004:0000020c       __imp__CloseHandle@4       1007a20c     kernel32:KERNEL32.dll
 0004:00000210       __imp__ReleaseSemaphore@12 1007a210     kernel32:KERNEL32.dll
 0004:00000214       __imp__WaitForSingleObject@8 1007a214     kernel32:KERNEL32.dll
 0004:00000218       __imp__Sleep@4             1007a218     kernel32:KERNEL32.dll
 0004:0000021c       __imp__CreateThread@24     1007a21c     kernel32:KERNEL32.dll
 0004:00000220       __imp__TerminateThread@8   1007a220     kernel32:KERNEL32.dll
 0004:00000224       __imp__GetSystemTimeAsFileTime@4 1007a224     kernel32:KERNEL32.dll
 0004:00000228       __imp__CreateSemaphoreA@16 1007a228     kernel32:KERNEL32.dll
 0004:0000022c       __imp__lstrlenA@4          1007a22c     kernel32:KERNEL32.dll
 0004:00000230       __imp__HeapAlloc@12        1007a230     kernel32:KERNEL32.dll
 0004:00000234       __imp__IsDebuggerPresent@0 1007a234     kernel32:KERNEL32.dll
 0004:00000238       __imp__IsProcessorFeaturePresent@4 1007a238     kernel32:KERNEL32.dll
 0004:0000023c       __imp__EncodePointer@4     1007a23c     kernel32:KERNEL32.dll
 0004:00000240       __imp__DecodePointer@4     1007a240     kernel32:KERNEL32.dll
 0004:00000244       __imp__GetLastError@0      1007a244     kernel32:KERNEL32.dll
 0004:00000248       __imp__InterlockedDecrement@4 1007a248     kernel32:KERNEL32.dll
 0004:0000024c       __imp__ExitProcess@4       1007a24c     kernel32:KERNEL32.dll
 0004:00000250       __imp__GetModuleHandleExW@12 1007a250     kernel32:KERNEL32.dll
 0004:00000254       __imp__AreFileApisANSI@0   1007a254     kernel32:KERNEL32.dll
 0004:00000258       __imp__MultiByteToWideChar@24 1007a258     kernel32:KERNEL32.dll
 0004:0000025c       __imp__HeapFree@12         1007a25c     kernel32:KERNEL32.dll
 0004:00000260       __imp__HeapReAlloc@16      1007a260     kernel32:KERNEL32.dll
 0004:00000264       __imp__EnterCriticalSection@4 1007a264     kernel32:KERNEL32.dll
 0004:00000268       __imp__LeaveCriticalSection@4 1007a268     kernel32:KERNEL32.dll
 0004:0000026c       __imp__GetStdHandle@4      1007a26c     kernel32:KERNEL32.dll
 0004:00000270       __imp__GetFileType@4       1007a270     kernel32:KERNEL32.dll
 0004:00000274       __imp__GetModuleFileNameW@12 1007a274     kernel32:KERNEL32.dll
 0004:00000278       __imp__WriteConsoleW@20    1007a278     kernel32:KERNEL32.dll
 0004:0000027c       __imp__GetCommandLineA@0   1007a27c     kernel32:KERNEL32.dll
 0004:00000280       __imp__GetCurrentThreadId@0 1007a280     kernel32:KERNEL32.dll
 0004:00000284       __imp__WriteFile@20        1007a284     kernel32:KERNEL32.dll
 0004:00000288       __imp__GetProcessHeap@0    1007a288     kernel32:KERNEL32.dll
 0004:0000028c       __imp__UnhandledExceptionFilter@4 1007a28c     kernel32:KERNEL32.dll
 0004:00000290       __imp__SetUnhandledExceptionFilter@4 1007a290     kernel32:KERNEL32.dll
 0004:00000294       __imp__FlsAlloc@4          1007a294     kernel32:KERNEL32.dll
 0004:00000298       __imp__FlsGetValue@4       1007a298     kernel32:KERNEL32.dll
 0004:0000029c       __imp__FlsSetValue@8       1007a29c     kernel32:KERNEL32.dll
 0004:000002a0       __imp__FlsFree@4           1007a2a0     kernel32:KERNEL32.dll
 0004:000002a4       __imp__GetCurrentProcess@0 1007a2a4     kernel32:KERNEL32.dll
 0004:000002a8       __imp__TerminateProcess@8  1007a2a8     kernel32:KERNEL32.dll
 0004:000002ac       __imp__GetStartupInfoW@4   1007a2ac     kernel32:KERNEL32.dll
 0004:000002b0       __imp__GetModuleHandleW@4  1007a2b0     kernel32:KERNEL32.dll
 0004:000002b4       __imp__InitializeCriticalSectionAndSpinCount@8 1007a2b4     kernel32:KERNEL32.dll
 0004:000002b8       __imp__DeleteCriticalSection@4 1007a2b8     kernel32:KERNEL32.dll
 0004:000002bc       __imp__FatalAppExitA@8     1007a2bc     kernel32:KERNEL32.dll
 0004:000002c0       __imp__InterlockedExchange@8 1007a2c0     kernel32:KERNEL32.dll
 0004:000002c4       __imp__FreeLibrary@4       1007a2c4     kernel32:KERNEL32.dll
 0004:000002c8       __imp__LoadLibraryExW@12   1007a2c8     kernel32:KERNEL32.dll
 0004:000002cc       __imp__SetConsoleCtrlHandler@8 1007a2cc     kernel32:KERNEL32.dll
 0004:000002d0       __imp__InterlockedIncrement@4 1007a2d0     kernel32:KERNEL32.dll
 0004:000002d4       __imp__IsValidCodePage@4   1007a2d4     kernel32:KERNEL32.dll
 0004:000002d8       __imp__GetACP@0            1007a2d8     kernel32:KERNEL32.dll
 0004:000002dc       __imp__GetOEMCP@0          1007a2dc     kernel32:KERNEL32.dll
 0004:000002e0       __imp__GetCPInfo@8         1007a2e0     kernel32:KERNEL32.dll
 0004:000002e4       __imp__RtlUnwind@16        1007a2e4     kernel32:KERNEL32.dll
 0004:000002e8       __imp__InitOnceExecuteOnce@16 1007a2e8     kernel32:KERNEL32.dll
 0004:000002ec       __imp__ReadFile@20         1007a2ec     kernel32:KERNEL32.dll
 0004:000002f0       __imp__GetConsoleMode@8    1007a2f0     kernel32:KERNEL32.dll
 0004:000002f4       __imp__ReadConsoleW@20     1007a2f4     kernel32:KERNEL32.dll
 0004:000002f8       __imp__WideCharToMultiByte@32 1007a2f8     kernel32:KERNEL32.dll
 0004:000002fc       __imp__GetConsoleCP@0      1007a2fc     kernel32:KERNEL32.dll
 0004:00000300       __imp__DeleteFileW@4       1007a300     kernel32:KERNEL32.dll
 0004:00000304       __imp__SetFilePointer@16   1007a304     kernel32:KERNEL32.dll
 0004:00000308       __imp__RaiseException@16   1007a308     kernel32:KERNEL32.dll
 0004:0000030c       __imp__OutputDebugStringW@4 1007a30c     kernel32:KERNEL32.dll
 0004:00000310       __imp__LoadLibraryW@4      1007a310     kernel32:KERNEL32.dll
 0004:00000314       __imp__SetLastError@4      1007a314     kernel32:KERNEL32.dll
 0004:00000318       __imp__GetCurrentThread@0  1007a318     kernel32:KERNEL32.dll
 0004:0000031c       __imp__GetModuleFileNameA@12 1007a31c     kernel32:KERNEL32.dll
 0004:00000320       __imp__QueryPerformanceCounter@4 1007a320     kernel32:KERNEL32.dll
 0004:00000324       __imp__GetTickCount64@0    1007a324     kernel32:KERNEL32.dll
 0004:00000328       __imp__GetEnvironmentStringsW@0 1007a328     kernel32:KERNEL32.dll
 0004:0000032c       __imp__FreeEnvironmentStringsW@4 1007a32c     kernel32:KERNEL32.dll
 0004:00000330       __imp__HeapSize@12         1007a330     kernel32:KERNEL32.dll
 0004:00000334       __imp__GetTimeFormatEx@24  1007a334     kernel32:KERNEL32.dll
 0004:00000338       __imp__GetDateFormatEx@28  1007a338     kernel32:KERNEL32.dll
 0004:0000033c       __imp__CompareStringEx@36  1007a33c     kernel32:KERNEL32.dll
 0004:00000340       __imp__GetLocaleInfoEx@16  1007a340     kernel32:KERNEL32.dll
 0004:00000344       __imp__GetUserDefaultLocaleName@8 1007a344     kernel32:KERNEL32.dll
 0004:00000348       __imp__LCMapStringEx@36    1007a348     kernel32:KERNEL32.dll
 0004:0000034c       __imp__IsValidLocaleName@4 1007a34c     kernel32:KERNEL32.dll
 0004:00000350       __imp__EnumSystemLocalesEx@16 1007a350     kernel32:KERNEL32.dll
 0004:00000354       __imp__GetStringTypeW@16   1007a354     kernel32:KERNEL32.dll
 0004:00000358       __imp__FlushFileBuffers@4  1007a358     kernel32:KERNEL32.dll
 0004:0000035c       __imp__SetStdHandle@8      1007a35c     kernel32:KERNEL32.dll
 0004:00000360       __imp__SetFilePointerEx@20 1007a360     kernel32:KERNEL32.dll
 0004:00000364       __imp__CreateFileW@28      1007a364     kernel32:KERNEL32.dll
 0004:00000368       __imp__SetEndOfFile@4      1007a368     kernel32:KERNEL32.dll
 0004:0000036c       \177KERNEL32_NULL_THUNK_DATA 1007a36c     kernel32:KERNEL32.dll

 entry point at        0001:0001907b

