 ceshi20210224_17_xpc

 Timestamp is 609bc68a (Wed May 12 20:14:02 2021)

 Preferred load address is 10000000

 Start         Length     Name                   Class
 0001:00000000 0000df90H .text                   CODE
 0001:0000df90 00067cf7H .text$mn                CODE
 0002:00000000 00000104H .CRT$XCA                DATA
 0002:00000104 00000104H .CRT$XCZ                DATA
 0002:00000208 00000104H .CRT$XIA                DATA
 0002:0000030c 00000110H .CRT$XIC                DATA
 0002:0000041c 00000104H .CRT$XIZ                DATA
 0002:00000520 00000104H .CRT$XPA                DATA
 0002:00000624 0000010cH .CRT$XPX                DATA
 0002:00000730 00000104H .CRT$XPXA               DATA
 0002:00000834 00000104H .CRT$XPZ                DATA
 0002:00000938 00000104H .CRT$XTA                DATA
 0002:00000a3c 00000104H .CRT$XTZ                DATA
 0002:00000b40 000178c0H .rdata                  DATA
 0002:00018400 00000390H .rdata$r                DATA
 0002:00018790 00000110H .rdata$sxdata           DATA
 0002:000188a0 000001a4H .rdata$zzzdbg           DATA
 0002:00018a44 00000104H .rtc$IAA                DATA
 0002:00018b48 00000104H .rtc$IZZ                DATA
 0002:00018c4c 00000104H .rtc$TAA                DATA
 0002:00018d50 00000108H .rtc$TZZ                DATA
 0002:00018e58 00000ac8H .xdata$x                DATA
 0002:00019920 000001eaH .edata                  DATA
 0003:00000000 00475894H .data                   DATA
 0003:00475894 000001ecH .data$r                 DATA
 0003:00475a80 001924f4H .bss                    DATA
 0004:00000000 000001f4H .idata$5                DATA
 0004:000001f4 00000014H .idata$2                DATA
 0004:00000208 00000014H .idata$3                DATA
 0004:0000021c 000001f4H .idata$4                DATA
 0004:00000410 000008b1H .idata$6                DATA
 0005:00000000 00000224H .gfids$x                DATA
 0005:00000224 000001a5H .gfids$y                DATA
 0006:00000000 00000104H .00cfg                  DATA

  Address         Publics by Value              Rva+Base       Lib:Object

 0000:00000000       ___guard_longjmp_count     00000000     <absolute>
 0000:00000000       ___dynamic_value_reloc_table 00000000     <absolute>
 0000:00000000       ___guard_iat_count         00000000     <absolute>
 0000:00000000       __except_list              00000000     <absolute>
 0000:00000000       ___guard_fids_count        00000000     <absolute>
 0000:00000000       ___guard_fids_table        00000000     <absolute>
 0000:00000000       ___guard_iat_table         00000000     <absolute>
 0000:00000000       ___guard_longjmp_table     00000000     <absolute>
 0000:00000003       ___safe_se_handler_count   00000003     <absolute>
 0000:00000100       ___guard_flags             00000100     <absolute>
 0000:00000000       ___ImageBase               10000000     <linker-defined>
 0001:00006470       _CANPC_define_cyclic2_mbx  10007470 f   xpccanac2pci_vc:card_can_mbx.obj
 0001:00006520       _CANPC_define_cyclic_mbx   10007520 f   xpccanac2pci_vc:card_can_mbx.obj
 0001:000065d0       _CANPC_define_object2_mbx  100075d0 f   xpccanac2pci_vc:card_can_mbx.obj
 0001:00006760       _CANPC_define_object_mbx   10007760 f   xpccanac2pci_vc:card_can_mbx.obj
 0001:000068f0       _CANPC_enable_dde_check_mbx 100078f0 f   xpccanac2pci_vc:card_can_mbx.obj
 0001:00006a50       _CANPC_enable_dyn_obj_buf_mbx 10007a50 f   xpccanac2pci_vc:card_can_mbx.obj
 0001:00006b50       _CANPC_enable_error_frame_detection_mbx 10007b50 f   xpccanac2pci_vc:card_can_mbx.obj
 0001:00006c10       _CANPC_enable_fifo_mbx     10007c10 f   xpccanac2pci_vc:card_can_mbx.obj
 0001:00006d00       _CANPC_enable_fifo_transmit_ack2_mbx 10007d00 f   xpccanac2pci_vc:card_can_mbx.obj
 0001:00006d70       _CANPC_enable_fifo_transmit_ack_mbx 10007d70 f   xpccanac2pci_vc:card_can_mbx.obj
 0001:00006de0       _CANPC_enable_ivm_check_mbx 10007de0 f   xpccanac2pci_vc:card_can_mbx.obj
 0001:00006f40       _CANPC_enable_j1939_check_mbx 10007f40 f   xpccanac2pci_vc:card_can_mbx.obj
 0001:000070a0       _CANPC_enable_timestamps_mb 100080a0 f   xpccanac2pci_vc:card_can_mbx.obj
 0001:000070b0       _CANPC_get_bus_state_mbx   100080b0 f   xpccanac2pci_vc:card_can_mbx.obj
 0001:000070e0       _CANPC_get_device_id_mbx   100080e0 f   xpccanac2pci_vc:card_can_mbx.obj
 0001:00007110       _CANPC_get_serial_number_mbx 10008110 f   xpccanac2pci_vc:card_can_mbx.obj
 0001:000071b0       _CANPC_get_time1_mbx       100081b0 f   xpccanac2pci_vc:card_can_mbx.obj
 0001:000074b0       _CANPC_get_time2_mbx       100084b0 f   xpccanac2pci_vc:card_can_mbx.obj
 0001:000077b0       _CANPC_get_trigger2_mb     100087b0 f   xpccanac2pci_vc:card_can_mbx.obj
 0001:000077c0       _CANPC_get_trigger_mb      100087c0 f   xpccanac2pci_vc:card_can_mbx.obj
 0001:000077d0       _CANPC_get_version_mbx     100087d0 f   xpccanac2pci_vc:card_can_mbx.obj
 0001:000078b0       _CANPC_init_signals_mbx    100088b0 f   xpccanac2pci_vc:card_can_mbx.obj
 0001:00007b00       _CANPC_initialize_chip2_mbx 10008b00 f   xpccanac2pci_vc:card_can_mbx.obj
 0001:00007c50       _CANPC_initialize_chip_mbx 10008c50 f   xpccanac2pci_vc:card_can_mbx.obj
 0001:00007da0       _CANPC_initialize_interface_mbx 10008da0 f   xpccanac2pci_vc:card_can_mbx.obj
 0001:00008020       _CANPC_optimize_rcv_speed_mb 10009020 f   xpccanac2pci_vc:card_can_mbx.obj
 0001:00008030       _CANPC_read_ac1_mbx        10009030 f   xpccanac2pci_vc:card_can_mbx.obj
 0001:00008ef0       _CANPC_read_ac2_mbx        10009ef0 f   xpccanac2pci_vc:card_can_mbx.obj
 0001:00009dc0       _CANPC_read_rcv_data2_mbx  1000adc0 f   xpccanac2pci_vc:card_can_mbx.obj
 0001:00009f70       _CANPC_read_rcv_data_mbx   1000af70 f   xpccanac2pci_vc:card_can_mbx.obj
 0001:0000a120       _CANPC_read_rcv_fifo_level1_mbx 1000b120 f   xpccanac2pci_vc:card_can_mbx.obj
 0001:0000a1a0       _CANPC_read_rcv_fifo_level2_mbx 1000b1a0 f   xpccanac2pci_vc:card_can_mbx.obj
 0001:0000a220       _CANPC_read_signals1_mbx   1000b220 f   xpccanac2pci_vc:card_can_mbx.obj
 0001:0000a320       _CANPC_read_signals2_mbx   1000b320 f   xpccanac2pci_vc:card_can_mbx.obj
 0001:0000a420       _CANPC_read_xmt_data2_mbx  1000b420 f   xpccanac2pci_vc:card_can_mbx.obj
 0001:0000a4e0       _CANPC_read_xmt_data_mbx   1000b4e0 f   xpccanac2pci_vc:card_can_mbx.obj
 0001:0000a5a0       _CANPC_read_xmt_fifo_level1_mbx 1000b5a0 f   xpccanac2pci_vc:card_can_mbx.obj
 0001:0000a620       _CANPC_read_xmt_fifo_level2_mbx 1000b620 f   xpccanac2pci_vc:card_can_mbx.obj
 0001:0000a6a0       _CANPC_reinitialize_mbx    1000b6a0 f   xpccanac2pci_vc:card_can_mbx.obj
 0001:0000a6f0       _CANPC_reset_board_mbx     1000b6f0 f   xpccanac2pci_vc:card_can_mbx.obj
 0001:0000a7e0       _CANPC_reset_chip_mbx      1000b7e0 f   xpccanac2pci_vc:card_can_mbx.obj
 0001:0000a930       _CANPC_reset_lost_msg_counter_mbx 1000b930 f   xpccanac2pci_vc:card_can_mbx.obj
 0001:0000a970       _CANPC_reset_rcv_fifo_mbx  1000b970 f   xpccanac2pci_vc:card_can_mbx.obj
 0001:0000aa30       _CANPC_reset_xmt_fifo_mbx  1000ba30 f   xpccanac2pci_vc:card_can_mbx.obj
 0001:0000ab00       _CANPC_send_data2_mbx      1000bb00 f   xpccanac2pci_vc:card_can_mbx.obj
 0001:0000abc0       _CANPC_send_data_mbx       1000bbc0 f   xpccanac2pci_vc:card_can_mbx.obj
 0001:0000ac80       _CANPC_send_object2_mbx    1000bc80 f   xpccanac2pci_vc:card_can_mbx.obj
 0001:0000ad10       _CANPC_send_object_mbx     1000bd10 f   xpccanac2pci_vc:card_can_mbx.obj
 0001:0000ada0       _CANPC_send_remote2_mbx    1000bda0 f   xpccanac2pci_vc:card_can_mbx.obj
 0001:0000ae40       _CANPC_send_remote_mbx     1000be40 f   xpccanac2pci_vc:card_can_mbx.obj
 0001:0000aee0       _CANPC_send_remote_object2_mbx 1000bee0 f   xpccanac2pci_vc:card_can_mbx.obj
 0001:0000af70       _CANPC_send_remote_object_mbx 1000bf70 f   xpccanac2pci_vc:card_can_mbx.obj
 0001:0000b000       _CANPC_set_acceptance2_mbx 1000c000 f   xpccanac2pci_vc:card_can_mbx.obj
 0001:0000b0e0       _CANPC_set_acceptance_mbx  1000c0e0 f   xpccanac2pci_vc:card_can_mbx.obj
 0001:0000b1c0       _CANPC_set_irq_number_mbx  1000c1c0 f   xpccanac2pci_vc:card_can_mbx.obj
 0001:0000b2a0       _CANPC_set_mode2_mbx       1000c2a0 f   xpccanac2pci_vc:card_can_mbx.obj
 0001:0000b330       _CANPC_set_mode_mbx        1000c330 f   xpccanac2pci_vc:card_can_mbx.obj
 0001:0000b3c0       _CANPC_set_output_control2_mbx 1000c3c0 f   xpccanac2pci_vc:card_can_mbx.obj
 0001:0000b4c0       _CANPC_set_output_control_mbx 1000c4c0 f   xpccanac2pci_vc:card_can_mbx.obj
 0001:0000b5e0       _CANPC_set_path_mb         1000c5e0 f   xpccanac2pci_vc:card_can_mbx.obj
 0001:0000b660       _CANPC_set_trigger2_mbx    1000c660 f   xpccanac2pci_vc:card_can_mbx.obj
 0001:0000b6e0       _CANPC_set_trigger_mbx     1000c6e0 f   xpccanac2pci_vc:card_can_mbx.obj
 0001:0000b760       _CANPC_start_chip_mbx      1000c760 f   xpccanac2pci_vc:card_can_mbx.obj
 0001:0000b850       _CANPC_supply_object_data2_mbx 1000c850 f   xpccanac2pci_vc:card_can_mbx.obj
 0001:0000b910       _CANPC_supply_object_data_mbx 1000c910 f   xpccanac2pci_vc:card_can_mbx.obj
 0001:0000b9d0       _CANPC_supply_rcv_object_data2_mbx 1000c9d0 f   xpccanac2pci_vc:card_can_mbx.obj
 0001:0000ba90       _CANPC_supply_rcv_object_data_mbx 1000ca90 f   xpccanac2pci_vc:card_can_mbx.obj
 0001:0000bb50       _CANPC_synch_communication_mbx 1000cb50 f   xpccanac2pci_vc:card_can_mbx.obj
 0001:0000bc70       _CANPC_write_object2_mbx   1000cc70 f   xpccanac2pci_vc:card_can_mbx.obj
 0001:0000bd30       _CANPC_write_object_mbx    1000cd30 f   xpccanac2pci_vc:card_can_mbx.obj
 0001:0000bdf0       _CANPC_write_signals1_mbx  1000cdf0 f   xpccanac2pci_vc:card_can_mbx.obj
 0001:0000bf40       _CANPC_write_signals2_mbx  1000cf40 f   xpccanac2pci_vc:card_can_mbx.obj
 0001:0000c090       _LoaderPrintMsgCallBack_mb 1000d090 f   xpccanac2pci_vc:card_can_mbx.obj
 0001:0000c0a0       _wait_for_handshake_mbx    1000d0a0 f   xpccanac2pci_vc:card_can_mbx.obj
 0001:0000c140       _INIPC_close_board_mbx     1000d140 f   xpccanac2pci_vc:card_ini_mbx.obj
 0001:0000c170       _INIPC_initialize_board_mbx 1000d170 f   xpccanac2pci_vc:card_ini_mbx.obj
 0001:0000c2c0       _CS_EnableInterrupt_mbx    1000d2c0 f   xpccanac2pci_vc:devacc32_mbx.obj
 0001:0000c330       _CS_InitCnfReg_mbx         1000d330 f   xpccanac2pci_vc:devacc32_mbx.obj
 0001:0000c3a0       _CS_SetCanCardReset_mbx    1000d3a0 f   xpccanac2pci_vc:devacc32_mbx.obj
 0001:0000c410       _CloseCANDevice_mbx        1000d410 f   xpccanac2pci_vc:devacc32_mbx.obj
 0001:0000c460       _GetAssignedIRQ_Nr_mbx     1000d460 f   xpccanac2pci_vc:devacc32_mbx.obj
 0001:0000c4b0       _GetDeviceId_mbx           1000d4b0 f   xpccanac2pci_vc:devacc32_mbx.obj
 0001:0000c4f0       _GetDeviceLoadDataPointer_mbx 1000d4f0 f   xpccanac2pci_vc:devacc32_mbx.obj
 0001:0000c540       _GetSBNBufAppDataFileName_mbx 1000d540 f   xpccanac2pci_vc:devacc32_mbx.obj
 0001:0000c590       _GetSBNBufAppDataPointer_mbx 1000d590 f   xpccanac2pci_vc:devacc32_mbx.obj
 0001:0000c5e0       _GetSBNBufBootDataFileName_mbx 1000d5e0 f   xpccanac2pci_vc:devacc32_mbx.obj
 0001:0000c630       _GetSBNBufBootDataPointer_mbx 1000d630 f   xpccanac2pci_vc:devacc32_mbx.obj
 0001:0000c680       _GetSBNBufIniFileName_mbx  1000d680 f   xpccanac2pci_vc:devacc32_mbx.obj
 0001:0000c6d0       _GetSBNBufLoadDataFileName_mbx 1000d6d0 f   xpccanac2pci_vc:devacc32_mbx.obj
 0001:0000c720       _GetSBNBufLoadDataPointer_mbx 1000d720 f   xpccanac2pci_vc:devacc32_mbx.obj
 0001:0000c770       _GetTimeStampType_mbx      1000d770 f   xpccanac2pci_vc:devacc32_mbx.obj
 0001:0000c7c0       _Init_devacc32             1000d7c0 f   xpccanac2pci_vc:devacc32_mbx.obj
 0001:0000c960       _OpenCANDevice_mbx         1000d960 f   xpccanac2pci_vc:devacc32_mbx.obj
 0001:0000caa0       _PnPFreePhysAccess_mbx     1000daa0 f   xpccanac2pci_vc:devacc32_mbx.obj
 0001:0000caf0       _PnPGetPhysAccess_mbx      1000daf0 f   xpccanac2pci_vc:devacc32_mbx.obj
 0001:0000cb80       _ReturnErrorCode_mb        1000db80 f   xpccanac2pci_vc:devacc32_mbx.obj
 0001:0000cdc0       _pciEnableInterrupt_mbx    1000ddc0 f   xpccanac2pci_vc:devacc32_mbx.obj
 0001:0000ce70       _pcireset_mbx              1000de70 f   xpccanac2pci_vc:devacc32_mbx.obj
 0001:0000cf10       _GetAttributeMemoryPtr_mbx 1000df10 f   xpccanac2pci_vc:loadcard_mbx.obj
 0001:0000cf30       _GetDPRAMPtr_mbx           1000df30 f   xpccanac2pci_vc:loadcard_mbx.obj
 0001:0000cf50       _GetINIData_mbx            1000df50 f   xpccanac2pci_vc:loadcard_mbx.obj
 0001:0000cfe0       _GetINI_IRQ_Nr_mbx         1000dfe0 f   xpccanac2pci_vc:loadcard_mbx.obj
 0001:0000d000       _GetINI_Socket_Nr_mbx      1000e000 f   xpccanac2pci_vc:loadcard_mbx.obj
 0001:0000d470       _LCInitialization_mbx      1000e470 f   xpccanac2pci_vc:loadcard_mbx.obj
 0001:0000da80       _LCSBNFileToDPRAM_mbx      1000ea80 f   xpccanac2pci_vc:loadcard_mbx.obj
 0001:0000dca0       _LoadCard_mbx              1000eca0 f   xpccanac2pci_vc:loadcard_mbx.obj
 0001:0000dd50       _ReadInitialization_mbx    1000ed50 f   xpccanac2pci_vc:loadcard_mbx.obj
 0001:0000dd60       _SetINIData_mbx            1000ed60 f   xpccanac2pci_vc:loadcard_mbx.obj
 0001:0000ddb0       _SetINI_IRQ_Nr_mbx         1000edb0 f   xpccanac2pci_vc:loadcard_mbx.obj
 0001:0000ddd0       _fmemcmp_byte_mb           1000edd0 f   xpccanac2pci_vc:loadcard_mbx.obj
 0001:0000de30       _fmemcpy_byte_mb           1000ee30 f   xpccanac2pci_vc:loadcard_mbx.obj
 0001:0000de60       _noprintf_mb               1000ee60 f   xpccanac2pci_vc:loadcard_mbx.obj
 0001:0000de70       _ReadSBINRecordFromBuffer_mb 1000ee70 f   xpccanac2pci_vc:sbn_buf_mbx.obj
 0001:0000df90       _BINARYSEARCH_real_T       1000ef90 f   ceshi20210224_17.obj
 0001:0000e010       _LookUp_real_T_real_T      1000f010 f   ceshi20210224_17.obj
 0001:0000e0d0       _MdlInitialize             1000f0d0 f   ceshi20210224_17.obj
 0001:0000e0e0       _MdlInitializeSampleTimes  1000f0e0 f   ceshi20210224_17.obj
 0001:0000e0f0       _MdlInitializeSizes        1000f0f0 f   ceshi20210224_17.obj
 0001:0000e100       _MdlOutputs                1000f100 f   ceshi20210224_17.obj
 0001:0000e110       _MdlStart                  1000f110 f   ceshi20210224_17.obj
 0001:0000e120       _MdlTerminate              1000f120 f   ceshi20210224_17.obj
 0001:0000e170       _MdlUpdate                 1000f170 f   ceshi20210224_17.obj
 0001:0000e180       ___local_stdio_printf_options 1000f180 f i ceshi20210224_17.obj
 0001:0000e190       __vfprintf_l               1000f190 f i ceshi20210224_17.obj
 0001:0000e1c0       _ceshi20210224_17          1000f1c0 f   ceshi20210224_17.obj
 0001:0000f6f0       _ceshi20210224_17_Subsystem 100106f0 f   ceshi20210224_17.obj
 0001:0000f7d0       _ceshi20210224_17_Subsystem_Init 100107d0 f   ceshi20210224_17.obj
 0001:0000f800       _ceshi20210224_17_derivatives 10010800 f   ceshi20210224_17.obj
 0001:0000fa10       _ceshi20210224_17_initialize 10010a10 f   ceshi20210224_17.obj
 0001:00011070       _ceshi20210224_17_output   10012070 f   ceshi20210224_17.obj
 0001:00016ca0       _ceshi20210224_17_terminate 10017ca0 f   ceshi20210224_17.obj
 0001:00016cf0       _ceshi20210224_17_update   10017cf0 f   ceshi20210224_17.obj
 0001:000171f0       _ceshi20210224_1_Subsystem_Deriv 100181f0 f   ceshi20210224_17.obj
 0001:00017220       _ceshi20210224_1_Subsystem_Start 10018220 f   ceshi20210224_17.obj
 0001:00017230       _ceshi20210224_Subsystem_Disable 10018230 f   ceshi20210224_17.obj
 0001:00017240       _look1_binlxpw             10018240 f   ceshi20210224_17.obj
 0001:00017320       _printf                    10018320 f i ceshi20210224_17.obj
 0001:00017360       _rt_ODECreateIntegrationData 10018360 f   ceshi20210224_17.obj
 0001:00017370       _rt_ODEDestroyIntegrationData 10018370 f   ceshi20210224_17.obj
 0001:00017380       _rt_ODEUpdateContinuousStates 10018380 f   ceshi20210224_17.obj
 0001:00017980       _ceshi20210224_17_GetCAPIStaticMap 10018980 f   ceshi20210224_17_capi.obj
 0001:00017990       _ceshi20210224_17_InitializeDataMapInfo 10018990 f   ceshi20210224_17_capi.obj
 0001:00017a20       _rtGetInf                  10018a20 f   rtGetInf.obj
 0001:00017a50       _rtGetInfF                 10018a50 f   rtGetInf.obj
 0001:00017a70       _rtGetMinusInf             10018a70 f   rtGetInf.obj
 0001:00017aa0       _rtGetMinusInfF            10018aa0 f   rtGetInf.obj
 0001:00017ac0       _rtGetNaN                  10018ac0 f   rtGetNaN.obj
 0001:00017af0       _rtGetNaNF                 10018af0 f   rtGetNaN.obj
 0001:00017b10       __vsnprintf_l              10018b10 f i rt_logging.obj
 0001:00017b50       __vsprintf_l               10018b50 f i rt_logging.obj
 0001:00017b90       _fprintf                   10018b90 f i rt_logging.obj
 0001:000184a0       _rt_CreateLogVar           100194a0 f   rt_logging.obj
 0001:00018530       _rt_CreateLogVarWithConvert 10019530 f   rt_logging.obj
 0001:00018eb0       _rt_CreateStructLogVar     10019eb0 f   rt_logging.obj
 0001:00019c10       _rt_GetMxIdFromDTypeId     1001ac10 f   rt_logging.obj
 0001:00019c40       _rt_GetMxIdFromDTypeIdForRSim 1001ac40 f   rt_logging.obj
 0001:0001c510       _rt_StartDataLogging       1001d510 f   rt_logging.obj
 0001:0001c9d0       _rt_StartDataLoggingWithStartTime 1001d9d0 f   rt_logging.obj
 0001:0001d330       _rt_StopDataLogging        1001e330 f   rt_logging.obj
 0001:0001d350       _rt_StopDataLoggingImpl    1001e350 f   rt_logging.obj
 0001:0001d680       _rt_UpdateLogVar           1001e680 f   rt_logging.obj
 0001:0001e7a0       _rt_UpdateStructLogVar     1001f7a0 f   rt_logging.obj
 0001:0001e830       _rt_UpdateTXXFYLogVars     1001f830 f   rt_logging.obj
 0001:0001eb60       _rt_UpdateTXYLogVars       1001fb60 f   rt_logging.obj
 0001:0001edb0       _sprintf                   1001fdb0 f i rt_logging.obj
 0001:0001edf0       _rt_CleanUpForStateLogWithMMI 1001fdf0 f   rt_logging_mmi.obj
 0001:0001ef00       _rt_FillStateSigInfoFromMMI 1001ff00 f   rt_logging_mmi.obj
 0001:0001f2a0       _rt_GetLookupIndex         100202a0 f   rt_look.obj
 0001:0001f350       _rt_Lookup                 10020350 f   rt_look1d.obj
 0001:0001f3d0       _rt_mxCreateCharMatrixFromStrings 100203d0 f   rt_matrx.obj
 0001:0001f530       _rt_mxCreateDoubleMatrix   10020530 f   rt_matrx.obj
 0001:0001f590       _rt_mxCreateNumericArray   10020590 f   rt_matrx.obj
 0001:0001f610       _rt_mxCreateString         10020610 f   rt_matrx.obj
 0001:0001f6a0       _rt_mxDuplicateArray       100206a0 f   rt_matrx.obj
 0001:0001f700       _rt_mxGetDimensions        10020700 f   rt_matrx.obj
 0001:0001f740       _rt_mxGetEps               10020740 f   rt_matrx.obj
 0001:0001f750       _rt_mxGetString            10020750 f   rt_matrx.obj
 0001:0001f7d0       _rtIsInf                   100207d0 f   rt_nonfinite.obj
 0001:0001f810       _rtIsInfF                  10020810 f   rt_nonfinite.obj
 0001:0001f850       _rtIsNaN                   10020850 f   rt_nonfinite.obj
 0001:0001f870       _rtIsNaNF                  10020870 f   rt_nonfinite.obj
 0001:0001f890       _rt_InitInfAndNaN          10020890 f   rt_nonfinite.obj
 0001:0001f8f0       _rtPrintfNoOp              100208f0 f   rt_printf.obj
 0001:0001f900       _rt_ZCFcn                  10020900 f   rt_zcfcn.obj
 0001:0001f9c0       _rtwCAPI_CountSysRan       100209c0 f   rtw_modelmap_utils.obj
 0001:0001fa60       _rtwCAPI_EncodePath        10020a60 f   rtw_modelmap_utils.obj
 0001:0001fb60       _rtwCAPI_FillSysRan        10020b60 f   rtw_modelmap_utils.obj
 0001:0001fc50       _rtwCAPI_FreeFullPaths     10020c50 f   rtw_modelmap_utils.obj
 0001:0001fce0       _rtwCAPI_GetFullStateBlockPath 10020ce0 f   rtw_modelmap_utils.obj
 0001:0001fe90       _rtwCAPI_GetNumContStateRecords 10020e90 f   rtw_modelmap_utils.obj
 0001:0001ff50       _rtwCAPI_GetNumSigLogRecords 10020f50 f   rtw_modelmap_utils.obj
 0001:0001ffa0       _rtwCAPI_GetNumSigLogRecordsForRTWLogging 10020fa0 f   rtw_modelmap_utils.obj
 0001:00020040       _rtwCAPI_GetNumStateRecords 10021040 f   rtw_modelmap_utils.obj
 0001:00020090       _rtwCAPI_GetNumStateRecordsForRTWLogging 10021090 f   rtw_modelmap_utils.obj
 0001:00020130       _rtwCAPI_GetSigAddrFromMap 10021130 f   rtw_modelmap_utils.obj
 0001:000201f0       _rtwCAPI_GetSigLogRecordInfo 100211f0 f   rtw_modelmap_utils.obj
 0001:00020620       _rtwCAPI_GetStateRecordInfo 10021620 f   rtw_modelmap_utils.obj
 0001:00020ad0       _rtwCAPI_GetStateWidth     10021ad0 f   rtw_modelmap_utils.obj
 0001:00020b30       _rtwCAPI_HasStates         10021b30 f   rtw_modelmap_utils.obj
 0001:00020ba0       _rtwCAPI_UpdateFullPaths   10021ba0 f   rtw_modelmap_utils.obj
 0001:00020d80       _DllMain@12                10021d80 f   xpctarget.obj
 0001:00020d90       _SLRTSetErrorStatus        10021d90 f   xpctarget.obj
 0001:00020db0       _ceshi20210224_17_ChangeStepSize 10021db0 f   xpctarget.obj
 0001:00020e20       _changeStepSize            10021e20 f   xpctarget.obj
 0001:00020e90       _getDLMVersion             10021e90 f   xpctarget.obj
 0001:00020ea0       _getRefMdlPath             10021ea0 f   xpctarget.obj
 0001:00020f20       _getRefMdlSignalNumber     10021f20 f   xpctarget.obj
 0001:00020fd0       _getrlmdlinfo              10021fd0 f   xpctarget.obj
 0001:000211b0       _updateDiscreteEvents      100221b0 f   xpctarget.obj
 0001:000211c0       _getNumRef                 100221c0 f   appmappingData.obj
 0001:000211d0       _vprintf                   100221d0 f i legacy_stdio.obj
 0001:00021d90       _canac2pcisetupx           10022d90 f   canac2pcisetupx.obj
 0001:00022a30       _da6208                    10023a30 f   da6208.obj
 0001:00023be0       _pci1716DIO                10024be0 f   pci1716DIO.obj
 0001:00023c40       _restoreInterrupts         10024c40 f   xpcruntime:xpcPCFunctions.obj
 0001:00023c50       _rl32eGetTicksDouble       10024c50 f   xpcruntime:xpcPCFunctions.obj
 0001:00023cd0       _saveAndDisableInterrupts  10024cd0 f   xpcruntime:xpcPCFunctions.obj
 0001:00023cf0       _xPCSubtractTime           10024cf0 f   xpcruntime:xpcPCFunctions.obj
 0001:00023d20       _xpcSubtractTime           10024d20 f   xpcruntime:xpcPCFunctions.obj
 0001:00023e00       _GetPCIDeviceFull          10024e00 f   xpcruntime:xpcimports.obj
 0001:00023e40       _ShowPCIDevice             10024e40 f   xpcruntime:xpcimports.obj
 0001:00024600       _xpcGetPciConfigAtSlot     10025600 f   xpcruntime:xpcimports.obj
 0001:00024910       _xpcInitProcs              10025910 f   xpcruntime:xpcimports.obj
 0001:00025a20       _xpceuploadevent           10026a20 f   xpcruntime:xpcimports.obj
 0001:00025a21       @__security_check_cookie@4 10026a21 f   LIBCMT:_secchk_.obj
 0001:00025a36       ___raise_securityfailure   10026a36 f   LIBCMT:gs_report.obj
 0001:00025a68       ___report_gsfailure        10026a68 f   LIBCMT:gs_report.obj
 0001:00025ba1       ___report_rangecheckfailure 10026ba1 f   LIBCMT:gs_report.obj
 0001:00025bb0       ___report_securityfailure  10026bb0 f   LIBCMT:gs_report.obj
 0001:00025cb4       ___report_securityfailureEx 10026cb4 f   LIBCMT:gs_report.obj
 0001:00025e10       __ftoui3                   10026e10 f   LIBCMT:_ftol3_.obj
 0001:00025e1f       __ftoul3                   10026e1f f   LIBCMT:_ftol3_.obj
 0001:00025e2e       __ftol3                    10026e2e f   LIBCMT:_ftol3_.obj
 0001:00025e3b       __ftol3_NaN                10026e3b f   LIBCMT:_ftol3_.obj
 0001:00025e53       __ftol3_work               10026e53 f   LIBCMT:_ftol3_.obj
 0001:00025ed9       __ftol3_common             10026ed9 f   LIBCMT:_ftol3_.obj
 0001:00025f9b       __ftol3_arg_error          10026f9b f   LIBCMT:_ftol3_.obj
 0001:00025fad       __ftol3_except             10026fad f   LIBCMT:_ftol3_.obj
 0001:00025ff1       __dtoui3                   10026ff1 f   LIBCMT:_ftol3_.obj
 0001:00026000       __dtoul3                   10027000 f   LIBCMT:_ftol3_.obj
 0001:0002600f       __dtol3                    1002700f f   LIBCMT:_ftol3_.obj
 0001:0002601c       __dtol3_NaN                1002701c f   LIBCMT:_ftol3_.obj
 0001:00026039       __dtol3_work               10027039 f   LIBCMT:_ftol3_.obj
 0001:00026120       __ultod3                   10027120 f   LIBCMT:_ftol3_.obj
 0001:00026160       __ltod3                    10027160 f   LIBCMT:_ftol3_.obj
 0001:00026264       ___isa_available_init      10027264 f   LIBCMT:_cpu_disp_.obj
 0001:0002682c       __CRT_INIT@12              1002782c f   LIBCMT:dll_dllmain.obj
 0001:00026837       __DllMainCRTStartup@12     10027837 f   LIBCMT:dll_dllmain.obj
 0001:00026862       ??$__crt_fast_decode_pointer@PAP6AXXZ@@YAPAP6AXXZQAP6AXXZ@Z 10027862 f i LIBCMT:utility.obj
 0001:0002687b       ??$__crt_fast_encode_pointer@PAP6AXXZ@@YAPAP6AXXZQAP6AXXZ@Z 1002787b f i LIBCMT:utility.obj
 0001:0002689f       ?__crt_rotate_pointer_value@@YAIIH@Z 1002789f f i LIBCMT:utility.obj
 0001:000268af       ?configure_argv@__scrt_narrow_argv_policy@@SAHXZ 100278af f i LIBCMT:utility.obj
 0001:00026953       _NtCurrentTeb              10027953 f i LIBCMT:utility.obj
 0001:0002695a       ___scrt_acquire_startup_lock 1002795a f   LIBCMT:utility.obj
 0001:0002699c       ___scrt_dllmain_after_initialize_c 1002799c f   LIBCMT:utility.obj
 0001:000269d1       ___scrt_dllmain_before_initialize_c 100279d1 f   LIBCMT:utility.obj
 0001:000269e2       ___scrt_dllmain_crt_thread_attach 100279e2 f   LIBCMT:utility.obj
 0001:00026a08       ___scrt_dllmain_crt_thread_detach 10027a08 f   LIBCMT:utility.obj
 0001:00026a18       ___scrt_dllmain_exception_filter 10027a18 f   LIBCMT:utility.obj
 0001:00026a57       ___scrt_dllmain_uninitialize_c 10027a57 f   LIBCMT:utility.obj
 0001:00026a82       ___scrt_dllmain_uninitialize_critical 10027a82 f   LIBCMT:utility.obj
 0001:00026a92       ___scrt_initialize_crt     10027a92 f   LIBCMT:utility.obj
 0001:00026ad9       ___scrt_initialize_onexit_tables 10027ad9 f   LIBCMT:utility.obj
 0001:00026b95       ___scrt_is_nonwritable_in_current_image 10027b95 f   LIBCMT:utility.obj
 0001:00026c41       ___scrt_release_startup_lock 10027c41 f   LIBCMT:utility.obj
 0001:00026c65       ___scrt_uninitialize_crt   10027c65 f   LIBCMT:utility.obj
 0001:00026c97       __onexit                   10027c97 f   LIBCMT:utility.obj
 0001:00026ce0       _at_quick_exit             10027ce0 f   LIBCMT:utility.obj
 0001:00026d1d       _atexit                    10027d1d f   LIBCMT:utility.obj
 0001:00026d37       ___security_init_cookie    10027d37 f   LIBCMT:gs_support.obj
 0001:00026dfa       ?__scrt_initialize_type_info@@YAXXZ 10027dfa f   LIBCMT:tncleanup.obj
 0001:00026e09       ?__scrt_uninitialize_type_info@@YAXXZ 10027e09 f   LIBCMT:tncleanup.obj
 0001:00026e18       ___local_stdio_scanf_options 10027e18 f i LIBCMT:default_local_stdio_options.obj
 0001:00026e1e       ___scrt_initialize_default_local_stdio_options 10027e1e f   LIBCMT:default_local_stdio_options.obj
 0001:00026e42       ___scrt_get_dyn_tls_init_callback 10027e42 f   LIBCMT:dyn_tls_init.obj
 0001:00026e48       ___scrt_fastfail           10027e48 f   LIBCMT:utility_desktop.obj
 0001:00026fa9       ___scrt_get_show_window_mode 10027fa9 f   LIBCMT:utility_desktop.obj
 0001:00026fe8       ___scrt_initialize_winrt   10027fe8 f   LIBCMT:utility_desktop.obj
 0001:00026feb       ___scrt_is_managed_app     10027feb f   LIBCMT:utility_desktop.obj
 0001:00027040       ___scrt_set_unhandled_exception_filter 10028040 f   LIBCMT:utility_desktop.obj
 0001:0002704f       ___scrt_unhandled_exception_filter@4 1002804f f   LIBCMT:utility_desktop.obj
 0001:000270a0       __crt_debugger_hook        100280a0 f   LIBCMT:utility_desktop.obj
 0001:000270aa       __RTC_Initialize           100280aa f   LIBCMT:_initsect_.obj
 0001:000270df       __RTC_Terminate            100280df f   LIBCMT:_initsect_.obj
 0001:00027114       @_guard_check_icall@4      10028114 f i LIBCMT:checkcfg.obj
 0001:00027120       __SEH_prolog4              10028120 f   LIBCMT:_sehprolg4_.obj
 0001:00027166       __SEH_epilog4              10028166 f   LIBCMT:_sehprolg4_.obj
 0001:00027191       __get_startup_argv_mode    10028191 f   LIBCMT:argv_mode.obj
 0001:00027195       ___scrt_is_ucrt_dll_in_use 10028195 f   LIBCMT:ucrt_detection.obj
 0001:000271a4       @_guard_check_icall_nop@4  100281a4 f i LIBCMT:guard_support.obj
 0001:000271a5       __guard_icall_checks_enforced 100281a5 f i LIBCMT:guard_support.obj
 0001:000271bc       _GetModuleHandleA@4        100281bc f   kernel32:KERNEL32.dll
 0001:000271c2       _GetProcAddress@8          100281c2 f   kernel32:KERNEL32.dll
 0001:000271c8       _CloseHandle@4             100281c8 f   kernel32:KERNEL32.dll
 0001:000271ce       _ReleaseSemaphore@12       100281ce f   kernel32:KERNEL32.dll
 0001:000271d4       _WaitForSingleObject@8     100281d4 f   kernel32:KERNEL32.dll
 0001:000271da       _Sleep@4                   100281da f   kernel32:KERNEL32.dll
 0001:000271e0       _CreateThread@24           100281e0 f   kernel32:KERNEL32.dll
 0001:000271e6       _TerminateThread@8         100281e6 f   kernel32:KERNEL32.dll
 0001:000271ec       _GetSystemTimeAsFileTime@4 100281ec f   kernel32:KERNEL32.dll
 0001:000271f2       _CreateSemaphoreA@16       100281f2 f   kernel32:KERNEL32.dll
 0001:000271f8       _lstrlenA@4                100281f8 f   kernel32:KERNEL32.dll
 0001:000271fe       _UnhandledExceptionFilter@4 100281fe f   kernel32:KERNEL32.dll
 0001:00027204       _SetUnhandledExceptionFilter@4 10028204 f   kernel32:KERNEL32.dll
 0001:0002720a       _GetCurrentProcess@0       1002820a f   kernel32:KERNEL32.dll
 0001:00027210       _TerminateProcess@8        10028210 f   kernel32:KERNEL32.dll
 0001:00027216       _IsProcessorFeaturePresent@4 10028216 f   kernel32:KERNEL32.dll
 0001:0002721c       _QueryPerformanceCounter@4 1002821c f   kernel32:KERNEL32.dll
 0001:00027222       _GetCurrentProcessId@0     10028222 f   kernel32:KERNEL32.dll
 0001:00027228       _GetCurrentThreadId@0      10028228 f   kernel32:KERNEL32.dll
 0001:0002722e       _InitializeSListHead@4     1002822e f   kernel32:KERNEL32.dll
 0001:00027234       _IsDebuggerPresent@0       10028234 f   kernel32:KERNEL32.dll
 0001:0002723a       _GetStartupInfoW@4         1002823a f   kernel32:KERNEL32.dll
 0001:00027240       _GetModuleHandleW@4        10028240 f   kernel32:KERNEL32.dll
 0001:00027250       _memcpy                    10028250 f   libvcruntime:memcpy.obj
 0001:00027930       _memset                    10028930 f   libvcruntime:memset.obj
 0001:00027ae0       _memmove                   10028ae0 f   libvcruntime:memmove.obj
 0001:000281c0       _strchr                    100291c0 f   libvcruntime:strchr.obj
 0001:0002822e       ___from_strstr_to_strchr   1002922e     libvcruntime:strchr.obj
 0001:00028380       __except_handler4          10029380 f   libvcruntime:_chandler4_.obj
 0001:0002853f       ___vcrt_initialize         1002953f f   libvcruntime:initialization.obj
 0001:00028572       ___vcrt_thread_attach      10029572 f   libvcruntime:initialization.obj
 0001:0002857f       ___vcrt_thread_detach      1002957f f   libvcruntime:initialization.obj
 0001:0002858c       ___vcrt_uninitialize       1002958c f   libvcruntime:initialization.obj
 0001:000285b2       ___vcrt_uninitialize_critical 100295b2 f   libvcruntime:initialization.obj
 0001:000285cd       ??$?RD@__crt_internal_free_policy@@QBEXQBD@Z 100295cd f i libvcruntime:std_type_info.obj
 0001:000285e1       ??$?RX@__crt_internal_free_policy@@QBEXQBX@Z 100295e1 f i libvcruntime:std_type_info.obj
 0001:000285f5       ??$__crt_interlocked_compare_exchange_pointer@$$CBD$$T$$T@@YAPBDPDSBD$$T1@Z 100295f5 f i libvcruntime:std_type_info.obj
 0001:0002860b       ??$__crt_interlocked_compare_exchange_pointer@$$CBDPAD$$T@@YAPBDPDSBDQAD$$T@Z 1002960b f i libvcruntime:std_type_info.obj
 0001:00028621       ??$__crt_interlocked_read_pointer@$$CBD@@YAPBDPDSBD@Z 10029621 f i libvcruntime:std_type_info.obj
 0001:00028635       ??0?$__crt_unique_heap_ptr@DU__crt_internal_free_policy@@@@QAE@QAD@Z 10029635 f i libvcruntime:std_type_info.obj
 0001:00028646       ??0?$__crt_unique_heap_ptr@XU__crt_internal_free_policy@@@@QAE@QAX@Z 10029646 f i libvcruntime:std_type_info.obj
 0001:00028657       ??1?$__crt_unique_heap_ptr@DU__crt_internal_free_policy@@@@QAE@XZ 10029657 f i libvcruntime:std_type_info.obj
 0001:0002866b       ??1?$__crt_unique_heap_ptr@XU__crt_internal_free_policy@@@@QAE@XZ 1002966b f i libvcruntime:std_type_info.obj
 0001:0002868b       ??B?$__crt_unique_heap_ptr@DU__crt_internal_free_policy@@@@QBE_NXZ 1002968b f i libvcruntime:std_type_info.obj
 0001:00028692       ??B?$__crt_unique_heap_ptr@XU__crt_internal_free_policy@@@@QBE_NXZ 10029692 f i libvcruntime:std_type_info.obj
 0001:000286c1       ?detach@?$__crt_unique_heap_ptr@XU__crt_internal_free_policy@@@@QAEPAXXZ 100296c1 f i libvcruntime:std_type_info.obj
 0001:000286c7       ?get@?$__crt_unique_heap_ptr@DU__crt_internal_free_policy@@@@QBEPADXZ 100296c7 f i libvcruntime:std_type_info.obj
 0001:000286ca       ?get@?$__crt_unique_heap_ptr@XU__crt_internal_free_policy@@@@QBEPAXXZ 100296ca f i libvcruntime:std_type_info.obj
 0001:000286cd       ?is_valid@?$__crt_unique_heap_ptr@DU__crt_internal_free_policy@@@@QBE_NXZ 100296cd f i libvcruntime:std_type_info.obj
 0001:000286d4       ?is_valid@?$__crt_unique_heap_ptr@XU__crt_internal_free_policy@@@@QBE_NXZ 100296d4 f i libvcruntime:std_type_info.obj
 0001:000286db       ?release@?$__crt_unique_heap_ptr@DU__crt_internal_free_policy@@@@QAEXXZ 100296db f i libvcruntime:std_type_info.obj
 0001:000286ef       ?release@?$__crt_unique_heap_ptr@XU__crt_internal_free_policy@@@@QAEXXZ 100296ef f i libvcruntime:std_type_info.obj
 0001:00028703       ___std_type_info_compare   10029703 f   libvcruntime:std_type_info.obj
 0001:0002874e       ___std_type_info_destroy_list 1002974e f   libvcruntime:std_type_info.obj
 0001:00028779       ___std_type_info_hash      10029779 f   libvcruntime:std_type_info.obj
 0001:000287a8       ___std_type_info_name      100297a8 f   libvcruntime:std_type_info.obj
 0001:000288b0       __local_unwind4            100298b0 f   libvcruntime:_exsup4_.obj
 0001:00028986       __seh_longjmp_unwind4@4    10029986 f   libvcruntime:_exsup4_.obj
 0001:000289ae       @_EH4_CallFilterFunc@8     100299ae f   libvcruntime:_exsup4_.obj
 0001:000289c5       @_EH4_TransferToHandler@8  100299c5 f   libvcruntime:_exsup4_.obj
 0001:000289de       @_EH4_GlobalUnwind2@8      100299de f   libvcruntime:_exsup4_.obj
 0001:000289f7       @_EH4_LocalUnwind@16       100299f7 f   libvcruntime:_exsup4_.obj
 0001:00028a65       ___except_validate_context_record 10029a65 f   libvcruntime:jbcxrval.obj
 0001:00028a66       ___except_validate_jump_buffer 10029a66 f   libvcruntime:jbcxrval.obj
 0001:00028a67       ??$?RU__vcrt_ptd@@@__crt_internal_free_policy@@QBEXQBU__vcrt_ptd@@@Z 10029a67 f i libvcruntime:per_thread_data.obj
 0001:00028a7b       ??0?$__crt_unique_heap_ptr@U__vcrt_ptd@@U__crt_internal_free_policy@@@@QAE@QAU__vcrt_ptd@@@Z 10029a7b f i libvcruntime:per_thread_data.obj
 0001:00028a9e       ??1?$__crt_unique_heap_ptr@U__vcrt_ptd@@U__crt_internal_free_policy@@@@QAE@XZ 10029a9e f i libvcruntime:per_thread_data.obj
 0001:00028abd       ??B?$__crt_unique_heap_ptr@U__vcrt_ptd@@U__crt_internal_free_policy@@@@QBE_NXZ 10029abd f i libvcruntime:per_thread_data.obj
 0001:00028ac4       ?detach@?$__crt_unique_heap_ptr@U__vcrt_ptd@@U__crt_internal_free_policy@@@@QAEPAU__vcrt_ptd@@XZ 10029ac4 f i libvcruntime:per_thread_data.obj
 0001:00028aca       ?get@?$__crt_unique_heap_ptr@U__vcrt_ptd@@U__crt_internal_free_policy@@@@QBEPAU__vcrt_ptd@@XZ 10029aca f i libvcruntime:per_thread_data.obj
 0001:00028acd       ?is_valid@?$__crt_unique_heap_ptr@U__vcrt_ptd@@U__crt_internal_free_policy@@@@QBE_NXZ 10029acd f i libvcruntime:per_thread_data.obj
 0001:00028ad4       ?release@?$__crt_unique_heap_ptr@U__vcrt_ptd@@U__crt_internal_free_policy@@@@QAEXXZ 10029ad4 f i libvcruntime:per_thread_data.obj
 0001:00028b08       ___vcrt_freefls@4          10029b08 f   libvcruntime:per_thread_data.obj
 0001:00028b2b       ___vcrt_freeptd            10029b2b f   libvcruntime:per_thread_data.obj
 0001:00028b6e       ___vcrt_getptd             10029b6e f   libvcruntime:per_thread_data.obj
 0001:00028b7f       ___vcrt_getptd_noexit      10029b7f f   libvcruntime:per_thread_data.obj
 0001:00028c35       ___vcrt_initialize_ptd     10029c35 f   libvcruntime:per_thread_data.obj
 0001:00028c74       ___vcrt_uninitialize_ptd   10029c74 f   libvcruntime:per_thread_data.obj
 0001:00028c95       ___vcrt_initialize_locks   10029c95 f   libvcruntime:locks.obj
 0001:00028ce0       ___vcrt_lock               10029ce0 f   libvcruntime:locks.obj
 0001:00028cfa       ___vcrt_uninitialize_locks 10029cfa f   libvcruntime:locks.obj
 0001:00028d34       ___vcrt_unlock             10029d34 f   libvcruntime:locks.obj
 0001:00028d4e       ??$?BX@__crt_fast_encoded_nullptr_t@@QBEPAXXZ 10029d4e f i libvcruntime:winapi_downlevel.obj
 0001:00028d6c       ??$__crt_fast_decode_pointer@PAX@@YAPAXQAX@Z 10029d6c f i libvcruntime:winapi_downlevel.obj
 0001:00028d85       ??$__crt_fast_encode_pointer@PAX@@YAPAXQAX@Z 10029d85 f i libvcruntime:winapi_downlevel.obj
 0001:00028da9       ??$__crt_interlocked_compare_exchange_pointer@UHINSTANCE__@@$$T$$T@@YAPAUHINSTANCE__@@PDSAU0@$$T1@Z 10029da9 f i libvcruntime:winapi_downlevel.obj
 0001:00028dbf       ??$__crt_interlocked_compare_exchange_pointer@X$$T$$T@@YAPAXPDSAX$$T1@Z 10029dbf f i libvcruntime:winapi_downlevel.obj
 0001:00028dd5       ??$__crt_interlocked_exchange_pointer@UHINSTANCE__@@PAU1@@@YAPAUHINSTANCE__@@PDSAU0@QAU0@@Z 10029dd5 f i libvcruntime:winapi_downlevel.obj
 0001:00028de5       ??$__crt_interlocked_exchange_pointer@UHINSTANCE__@@PAX@@YAPAUHINSTANCE__@@PDSAU0@QAX@Z 10029de5 f i libvcruntime:winapi_downlevel.obj
 0001:00028df5       ??$__crt_interlocked_exchange_pointer@XPAX@@YAPAXPDSAXQAX@Z 10029df5 f i libvcruntime:winapi_downlevel.obj
 0001:00028e05       ??$__crt_interlocked_read_pointer@UHINSTANCE__@@@@YAPAUHINSTANCE__@@PDSAU0@@Z 10029e05 f i libvcruntime:winapi_downlevel.obj
 0001:00028e19       ??$__crt_interlocked_read_pointer@X@@YAPAXPDSAX@Z 10029e19 f i libvcruntime:winapi_downlevel.obj
 0001:00028e2d       ?__crt_fast_encode_pointer@@YA?AU__crt_fast_encoded_nullptr_t@@$$T@Z 10029e2d f i libvcruntime:winapi_downlevel.obj
 0001:00029171       ___vcrt_EventRegister      1002a171 f   libvcruntime:winapi_downlevel.obj
 0001:000291c1       ___vcrt_EventSetInformation 1002a1c1 f   libvcruntime:winapi_downlevel.obj
 0001:00029214       ___vcrt_EventUnregister    1002a214 f   libvcruntime:winapi_downlevel.obj
 0001:0002925c       ___vcrt_EventWriteTransfer 1002a25c f   libvcruntime:winapi_downlevel.obj
 0001:000292b7       ___vcrt_FlsAlloc           1002a2b7 f   libvcruntime:winapi_downlevel.obj
 0001:000292ff       ___vcrt_FlsFree            1002a2ff f   libvcruntime:winapi_downlevel.obj
 0001:00029347       ___vcrt_FlsGetValue        1002a347 f   libvcruntime:winapi_downlevel.obj
 0001:0002938f       ___vcrt_FlsSetValue        1002a38f f   libvcruntime:winapi_downlevel.obj
 0001:000293db       ___vcrt_InitializeCriticalSectionEx 1002a3db f   libvcruntime:winapi_downlevel.obj
 0001:00029432       ___vcrt_initialize_winapi_thunks 1002a432 f   libvcruntime:winapi_downlevel.obj
 0001:0002947a       ___vcrt_uninitialize_winapi_thunks 1002a47a f   libvcruntime:winapi_downlevel.obj
 0001:000294b8       ??$?B$$A6AXXZ@__crt_fast_encoded_nullptr_t@@QBEP6AXXZXZ 1002a4b8 f i libvcruntime:purevirt_data.obj
 0001:000294d6       ??$__crt_fast_encode_pointer@P6AXXZ@@YAP6AXXZQ6AXXZ@Z 1002a4d6 f i libvcruntime:purevirt_data.obj
 0001:000294fa       ___vcrt_initialize_pure_virtual_call_handler 1002a4fa f   libvcruntime:purevirt_data.obj
 0001:0002951e       ??$__vcrt_va_start_verify_argument_type@QBD@@YAXXZ 1002a51e f i libvcruntime:undname.obj
 0001:0002951f       ??0Block@_HeapManager@@QAE@XZ 1002a51f f i libvcruntime:undname.obj
 0001:00029525       ??0DName@@QAE@AAPBDD@Z     1002a525 f   libvcruntime:undname.obj
 0001:0002960c       ??0DName@@QAE@ABV0@@Z      1002a60c f i libvcruntime:undname.obj
 0001:00029627       ??0DName@@QAE@D@Z          1002a627 f   libvcruntime:undname.obj
 0001:0002965e       ??0DName@@QAE@PAV0@@Z      1002a65e f   libvcruntime:undname.obj
 0001:000296be       ??0DName@@QAE@PBD@Z        1002a6be f   libvcruntime:undname.obj
 0001:00029706       ??0DName@@QAE@W4DNameStatus@@@Z 1002a706 f   libvcruntime:undname.obj
 0001:00029759       ??0DName@@QAE@XZ           1002a759 f i libvcruntime:undname.obj
 0001:0002976e       ??0DName@@QAE@_J@Z         1002a76e f   libvcruntime:undname.obj
 0001:00029828       ??0DName@@QAE@_K@Z         1002a828 f   libvcruntime:undname.obj
 0001:000298b2       ??0DNameNode@@IAE@XZ       1002a8b2 f   libvcruntime:undname.obj
 0001:000298bd       ??0DNameStatusNode@@AAE@W4DNameStatus@@@Z 1002a8bd f   libvcruntime:undname.obj
 0001:000298e8       ??0Replicator@@QAE@XZ      1002a8e8 f i libvcruntime:undname.obj
 0001:000298ee       ??0UnDecorator@@QAE@PADPBDHP6APADJ@ZK@Z 1002a8ee f i libvcruntime:undname.obj
 0001:00029971       ??0charNode@@QAE@D@Z       1002a971 f   libvcruntime:undname.obj
 0001:0002998b       ??0pDNameNode@@QAE@PAVDName@@@Z 1002a98b f   libvcruntime:undname.obj
 0001:000299bd       ??0pairNode@@QAE@PAVDNameNode@@0@Z 1002a9bd f   libvcruntime:undname.obj
 0001:000299e3       ??0pcharNode@@QAE@PBDH@Z   1002a9e3 f   libvcruntime:undname.obj
 0001:00029a52       ??2@YAPAXIAAV_HeapManager@@H@Z 1002aa52 f i libvcruntime:undname.obj
 0001:00029a6c       ??4DName@@QAEAAV0@ABV0@@Z  1002aa6c f   libvcruntime:undname.obj
 0001:00029a87       ??4DName@@QAEAAV0@D@Z      1002aa87 f i libvcruntime:undname.obj
 0001:00029abe       ??4DName@@QAEAAV0@PAV0@@Z  1002aabe f   libvcruntime:undname.obj
 0001:00029b19       ??4DName@@QAEAAV0@PBD@Z    1002ab19 f   libvcruntime:undname.obj
 0001:00029b57       ??4DName@@QAEAAV0@W4DNameStatus@@@Z 1002ab57 f   libvcruntime:undname.obj
 0001:00029b99       ??AReplicator@@QBE?AVDName@@H@Z 1002ab99 f   libvcruntime:undname.obj
 0001:00029be4       ??BUnDecorator@@QAEPADXZ   1002abe4 f i libvcruntime:undname.obj
 0001:00029dbb       ??H@YA?AVDName@@DABV0@@Z   1002adbb f i libvcruntime:undname.obj
 0001:00029de8       ??H@YA?AVDName@@PBDABV0@@Z 1002ade8 f i libvcruntime:undname.obj
 0001:00029e15       ??H@YA?AVDName@@W4DNameStatus@@ABV0@@Z 1002ae15 f i libvcruntime:undname.obj
 0001:00029e42       ??HDName@@QBE?AV0@ABV0@@Z  1002ae42 f   libvcruntime:undname.obj
 0001:00029e6c       ??HDName@@QBE?AV0@D@Z      1002ae6c f   libvcruntime:undname.obj
 0001:00029e96       ??HDName@@QBE?AV0@PAV0@@Z  1002ae96 f   libvcruntime:undname.obj
 0001:00029ec0       ??HDName@@QBE?AV0@PBD@Z    1002aec0 f   libvcruntime:undname.obj
 0001:00029eea       ??HDName@@QBE?AV0@W4DNameStatus@@@Z 1002aeea f   libvcruntime:undname.obj
 0001:00029f14       ??YDName@@QAEAAV0@ABV0@@Z  1002af14 f   libvcruntime:undname.obj
 0001:00029f67       ??YDName@@QAEAAV0@D@Z      1002af67 f   libvcruntime:undname.obj
 0001:00029fcb       ??YDName@@QAEAAV0@PAV0@@Z  1002afcb f   libvcruntime:undname.obj
 0001:0002a049       ??YDName@@QAEAAV0@PBD@Z    1002b049 f   libvcruntime:undname.obj
 0001:0002a0c2       ??YDName@@QAEAAV0@W4DNameStatus@@@Z 1002b0c2 f   libvcruntime:undname.obj
 0001:0002a112       ??YReplicator@@QAEAAV0@ABVDName@@@Z 1002b112 f   libvcruntime:undname.obj
 0001:0002a16e       ??_5DName@@QAEAAV0@ABV0@@Z 1002b16e f   libvcruntime:undname.obj
 0001:0002a191       ?Constructor@_HeapManager@@QAEXP6APAXI@ZP6AXPAX@Z@Z 1002b191 f i libvcruntime:undname.obj
 0001:0002a1b5       ?Destructor@_HeapManager@@QAEXXZ 1002b1b5 f i libvcruntime:undname.obj
 0001:0002a1fc       ?UScore@UnDecorator@@SAPBDW4Tokens@@@Z 1002b1fc f   libvcruntime:undname.obj
 0001:0002a220       ?append@DName@@AAEXPAVDNameNode@@@Z 1002b220 f   libvcruntime:undname.obj
 0001:0002a277       ?composeDeclaration@UnDecorator@@CA?AVDName@@ABV2@@Z 1002b277 f i libvcruntime:undname.obj
 0001:0002b2b2       ?doAccessSpecifiers@UnDecorator@@SAHXZ 1002c2b2 f i libvcruntime:undname.obj
 0001:0002b2c3       ?doAllocationLanguage@UnDecorator@@SAHXZ 1002c2c3 f i libvcruntime:undname.obj
 0001:0002b2d4       ?doAllocationModel@UnDecorator@@SAHXZ 1002c2d4 f i libvcruntime:undname.obj
 0001:0002b2e5       ?doEcsu@UnDecorator@@SAHXZ 1002c2e5 f i libvcruntime:undname.obj
 0001:0002b2f6       ?doEllipsis@UnDecorator@@SAHXZ 1002c2f6 f i libvcruntime:undname.obj
 0001:0002b307       ?doFunctionReturns@UnDecorator@@SAHXZ 1002c307 f i libvcruntime:undname.obj
 0001:0002b318       ?doMSKeywords@UnDecorator@@SAHXZ 1002c318 f i libvcruntime:undname.obj
 0001:0002b328       ?doMemberTypes@UnDecorator@@SAHXZ 1002c328 f i libvcruntime:undname.obj
 0001:0002b339       ?doNameOnly@UnDecorator@@SAHXZ 1002c339 f i libvcruntime:undname.obj
 0001:0002b346       ?doNoIdentCharCheck@UnDecorator@@SAHXZ 1002c346 f i libvcruntime:undname.obj
 0001:0002b353       ?doPchar@DName@@AAEXPBDH@Z 1002c353 f   libvcruntime:undname.obj
 0001:0002b3ff       ?doPtr64@UnDecorator@@SAHXZ 1002c3ff f i libvcruntime:undname.obj
 0001:0002b410       ?doRestrictionSpec@UnDecorator@@SAHXZ 1002c410 f i libvcruntime:undname.obj
 0001:0002b421       ?doThisTypes@UnDecorator@@SAHXZ 1002c421 f i libvcruntime:undname.obj
 0001:0002b437       ?doThrowTypes@UnDecorator@@SAHXZ 1002c437 f i libvcruntime:undname.obj
 0001:0002b448       ?doTypeOnly@UnDecorator@@SAHXZ 1002c448 f i libvcruntime:undname.obj
 0001:0002b455       ?doUnderScore@UnDecorator@@SAHXZ 1002c455 f i libvcruntime:undname.obj
 0001:0002b462       ?getArgumentList@UnDecorator@@CA?AVDName@@XZ 1002c462 f   libvcruntime:undname.obj
 0001:0002b5b1       ?getArgumentTypes@UnDecorator@@CA?AVDName@@XZ 1002c5b1 f   libvcruntime:undname.obj
 0001:0002b6c9       ?getArrayType@UnDecorator@@CA?AVDName@@ABV2@@Z 1002c6c9 f i libvcruntime:undname.obj
 0001:0002b94b       ?getBasedType@UnDecorator@@CA?AVDName@@XZ 1002c94b f   libvcruntime:undname.obj
 0001:0002ba0a       ?getBasicDataType@UnDecorator@@CA?AVDName@@ABV2@@Z 1002ca0a f   libvcruntime:undname.obj
 0001:0002bef4       ?getCallIndex@UnDecorator@@CA?AVDName@@XZ 1002cef4 f i libvcruntime:undname.obj
 0001:0002bf0d       ?getCallingConvention@UnDecorator@@CA?AVDName@@XZ 1002cf0d f   libvcruntime:undname.obj
 0001:0002bffb       ?getDataIndirectType@UnDecorator@@CA?AVDName@@ABV2@PBD0H@Z 1002cffb f   libvcruntime:undname.obj
 0001:0002c7a6       ?getDataIndirectType@UnDecorator@@CA?AVDName@@XZ 1002d7a6 f i libvcruntime:undname.obj
 0001:0002c7ed       ?getDataType@UnDecorator@@CA?AVDName@@PAV2@@Z 1002d7ed f   libvcruntime:undname.obj
 0001:0002c8f3       ?getDecoratedName@UnDecorator@@CA?AVDName@@XZ 1002d8f3 f   libvcruntime:undname.obj
 0001:0002cbd2       ?getDimension@UnDecorator@@CA?AVDName@@_N@Z 1002dbd2 f   libvcruntime:undname.obj
 0001:0002cd56       ?getDispatchTarget@UnDecorator@@CA?AVDName@@XZ 1002dd56 f   libvcruntime:undname.obj
 0001:0002cdc7       ?getDisplacement@UnDecorator@@CA?AVDName@@XZ 1002ddc7 f i libvcruntime:undname.obj
 0001:0002cde0       ?getECSUDataType@UnDecorator@@CA?AVDName@@XZ 1002dde0 f   libvcruntime:undname.obj
 0001:0002cf44       ?getECSUName@UnDecorator@@CA?AVDName@@XZ 1002df44 f i libvcruntime:undname.obj
 0001:0002cf59       ?getEnumType@UnDecorator@@CA?AVDName@@XZ 1002df59 f i libvcruntime:undname.obj
 0001:0002d080       ?getExtendedDataIndirectType@UnDecorator@@CA?AVDName@@AAPBDAA_NH@Z 1002e080 f   libvcruntime:undname.obj
 0001:0002d293       ?getExternalDataType@UnDecorator@@CA?AVDName@@ABV2@@Z 1002e293 f i libvcruntime:undname.obj
 0001:0002d32a       ?getFunctionIndirectType@UnDecorator@@CA?AVDName@@ABV2@@Z 1002e32a f   libvcruntime:undname.obj
 0001:0002d835       ?getGuardNumber@UnDecorator@@CA?AVDName@@XZ 1002e835 f i libvcruntime:undname.obj
 0001:0002d84e       ?getLastChar@DName@@QBEDXZ 1002e84e f i libvcruntime:undname.obj
 0001:0002d874       ?getLastChar@DNameStatusNode@@UBEDXZ 1002e874 f i libvcruntime:undname.obj
 0001:0002d883       ?getLastChar@charNode@@UBEDXZ 1002e883 f i libvcruntime:undname.obj
 0001:0002d887       ?getLastChar@pDNameNode@@UBEDXZ 1002e887 f i libvcruntime:undname.obj
 0001:0002d898       ?getLastChar@pairNode@@UBEDXZ 1002e898 f i libvcruntime:undname.obj
 0001:0002d8d7       ?getLastChar@pcharNode@@UBEDXZ 1002e8d7 f i libvcruntime:undname.obj
 0001:0002d8ed       ?getLexicalFrame@UnDecorator@@CA?AVDName@@XZ 1002e8ed f i libvcruntime:undname.obj
 0001:0002d939       ?getMemory@_HeapManager@@QAEPAXIH@Z 1002e939 f   libvcruntime:undname.obj
 0001:0002d9ea       ?getNumberOfDimensions@UnDecorator@@CAHXZ 1002e9ea f   libvcruntime:undname.obj
 0001:0002da63       ?getOperatorName@UnDecorator@@CA?AVDName@@_NPA_N@Z 1002ea63 f i libvcruntime:undname.obj
 0001:0002e213       ?getPointerType@UnDecorator@@CA?AVDName@@ABV2@0@Z 1002f213 f i libvcruntime:undname.obj
 0001:0002e238       ?getPointerTypeArray@UnDecorator@@CA?AVDName@@ABV2@0@Z 1002f238 f i libvcruntime:undname.obj
 0001:0002e25d       ?getPrimaryDataType@UnDecorator@@CA?AVDName@@ABV2@@Z 1002f25d f   libvcruntime:undname.obj
 0001:0002e4ce       ?getPtrRefDataType@UnDecorator@@CA?AVDName@@ABV2@H@Z 1002f4ce f   libvcruntime:undname.obj
 0001:0002e610       ?getPtrRefType@UnDecorator@@CA?AVDName@@ABV2@0PBD@Z 1002f610 f   libvcruntime:undname.obj
 0001:0002e74b       ?getReferenceType@UnDecorator@@CA?AVDName@@ABV2@0PBD@Z 1002f74b f i libvcruntime:undname.obj
 0001:0002e76e       ?getRestrictionSpec@UnDecorator@@CA?AVDName@@XZ 1002f76e f   libvcruntime:undname.obj
 0001:0002e89c       ?getReturnType@UnDecorator@@CA?AVDName@@PAV2@@Z 1002f89c f   libvcruntime:undname.obj
 0001:0002e8d6       ?getScope@UnDecorator@@CA?AVDName@@XZ 1002f8d6 f   libvcruntime:undname.obj
 0001:0002edab       ?getScopedName@UnDecorator@@CA?AVDName@@XZ 1002fdab f   libvcruntime:undname.obj
 0001:0002eee4       ?getSignedDimension@UnDecorator@@CA?AVDName@@XZ 1002fee4 f   libvcruntime:undname.obj
 0001:0002ef4b       ?getStorageConvention@UnDecorator@@CA?AVDName@@XZ 1002ff4b f i libvcruntime:undname.obj
 0001:0002ef60       ?getString@DName@@QBEPADPAD0@Z 1002ff60 f i libvcruntime:undname.obj
 0001:0002ef97       ?getString@DName@@QBEPADPADH@Z 1002ff97 f i libvcruntime:undname.obj
 0001:0002f002       ?getString@DNameStatusNode@@UBEPADPAD0@Z 10030002 f i libvcruntime:undname.obj
 0001:0002f032       ?getString@charNode@@UBEPADPAD0@Z 10030032 f i libvcruntime:undname.obj
 0001:0002f04c       ?getString@pDNameNode@@UBEPADPAD0@Z 1003004c f i libvcruntime:undname.obj
 0001:0002f068       ?getString@pairNode@@UBEPADPAD0@Z 10030068 f i libvcruntime:undname.obj
 0001:0002f0bd       ?getString@pcharNode@@UBEPADPAD0@Z 100300bd f i libvcruntime:undname.obj
 0001:0002f0de       ?getStringEncoding@UnDecorator@@CA?AVDName@@PADH@Z 100300de f   libvcruntime:undname.obj
 0001:0002f1a9       ?getStringHelper@@YAPADPAD00H@Z 100301a9 f i libvcruntime:undname.obj
 0001:0002f1ed       ?getSymbolName@UnDecorator@@CA?AVDName@@XZ 100301ed f i libvcruntime:undname.obj
 0001:0002f247       ?getTemplateArgumentList@UnDecorator@@CA?AVDName@@XZ 10030247 f   libvcruntime:undname.obj
 0001:0002f594       ?getTemplateConstant@UnDecorator@@CA?AVDName@@XZ 10030594 f   libvcruntime:undname.obj
 0001:0002f9a9       ?getTemplateName@UnDecorator@@CA?AVDName@@_N@Z 100309a9 f   libvcruntime:undname.obj
 0001:0002fb54       ?getThisType@UnDecorator@@CA?AVDName@@XZ 10030b54 f i libvcruntime:undname.obj
 0001:0002fb9c       ?getThrowTypes@UnDecorator@@CA?AVDName@@XZ 10030b9c f   libvcruntime:undname.obj
 0001:0002fc48       ?getTypeEncoding@UnDecorator@@CAHXZ 10030c48 f i libvcruntime:undname.obj
 0001:00030044       ?getVCallThunkType@UnDecorator@@CA?AVDName@@XZ 10031044 f i libvcruntime:undname.obj
 0001:0003008d       ?getVbTableType@UnDecorator@@CA?AVDName@@ABV2@@Z 1003108d f i libvcruntime:undname.obj
 0001:000300a7       ?getVdispMapType@UnDecorator@@CA?AVDName@@ABV2@@Z 100310a7 f i libvcruntime:undname.obj
 0001:00030112       ?getVfTableType@UnDecorator@@CA?AVDName@@ABV2@@Z 10031112 f i libvcruntime:undname.obj
 0001:000302d0       ?getZName@UnDecorator@@CA?AVDName@@_N0@Z 100312d0 f   libvcruntime:undname.obj
 0001:000305a0       ?haveTemplateParameters@UnDecorator@@SAHXZ 100315a0 f i libvcruntime:undname.obj
 0001:000305ad       ?isArray@DName@@QBEHXZ     100315ad f i libvcruntime:undname.obj
 0001:000305b9       ?isComArray@DName@@QBEHXZ  100315b9 f i libvcruntime:undname.obj
 0001:000305c5       ?isEmpty@DName@@QBEHXZ     100315c5 f i libvcruntime:undname.obj
 0001:000305cf       ?isFull@Replicator@@QBEHXZ 100315cf f i libvcruntime:undname.obj
 0001:000305da       ?isNoTE@DName@@QBEHXZ      100315da f i libvcruntime:undname.obj
 0001:000305e6       ?isPinPtr@DName@@QBEHXZ    100315e6 f i libvcruntime:undname.obj
 0001:000305f2       ?isPtrRef@DName@@QBEHXZ    100315f2 f i libvcruntime:undname.obj
 0001:000305fe       ?isUDC@DName@@QBEHXZ       100315fe f i libvcruntime:undname.obj
 0001:00030613       ?isUDTThunk@DName@@QBEHXZ  10031613 f i libvcruntime:undname.obj
 0001:00030628       ?isVCallThunk@DName@@QBEHXZ 10031628 f i libvcruntime:undname.obj
 0001:00030634       ?isValid@DName@@QBEHXZ     10031634 f i libvcruntime:undname.obj
 0001:00030640       ?length@DName@@QBEHXZ      10031640 f i libvcruntime:undname.obj
 0001:00030665       ?length@DNameStatusNode@@UBEHXZ 10031665 f i libvcruntime:undname.obj
 0001:00030669       ?length@charNode@@UBEHXZ   10031669 f i libvcruntime:undname.obj
 0001:0003066d       ?length@pDNameNode@@UBEHXZ 1003166d f i libvcruntime:undname.obj
 0001:0003067e       ?length@pairNode@@UBEHXZ   1003167e f i libvcruntime:undname.obj
 0001:000306da       ?length@pcharNode@@UBEHXZ  100316da f i libvcruntime:undname.obj
 0001:000306de       ?make@DNameStatusNode@@SAPAV1@W4DNameStatus@@@Z 100316de f i libvcruntime:undname.obj
 0001:00030785       ?setIsArray@DName@@QAEXXZ  10031785 f i libvcruntime:undname.obj
 0001:0003078f       ?setIsComArray@DName@@QAEXXZ 1003178f f i libvcruntime:undname.obj
 0001:00030799       ?setIsNoTE@DName@@QAEXXZ   10031799 f i libvcruntime:undname.obj
 0001:000307a3       ?setIsPinPtr@DName@@QAEXXZ 100317a3 f i libvcruntime:undname.obj
 0001:000307ad       ?setIsUDC@DName@@QAEXXZ    100317ad f i libvcruntime:undname.obj
 0001:000307bd       ?setIsVCallThunk@DName@@QAEXXZ 100317bd f i libvcruntime:undname.obj
 0001:000307c7       ?setPtrRef@DName@@QAEAAV1@XZ 100317c7 f i libvcruntime:undname.obj
 0001:000307d3       ?status@DName@@QBE?AW4DNameStatus@@XZ 100317d3 f i libvcruntime:undname.obj
 0001:00030858       ___unDName                 10031858 f   libvcruntime:undname.obj
 0001:00030912       ___unDNameEx               10031912 f   libvcruntime:undname.obj
 0001:000309cc       __vsprintf_s_l             100319cc f i libvcruntime:undname.obj
 0001:00030a04       _sprintf_s                 10031a04 f i libvcruntime:undname.obj
 0001:00030a30       __global_unwind2           10031a30 f   libvcruntime:_exsup_.obj
 0001:00030a95       __local_unwind2            10031a95 f   libvcruntime:_exsup_.obj
 0001:00030b19       __abnormal_termination     10031b19 f   libvcruntime:_exsup_.obj
 0001:00030b3c       __NLG_Notify1              10031b3c f   libvcruntime:_exsup_.obj
 0001:00030b45       __NLG_Notify               10031b45 f   libvcruntime:_exsup_.obj
 0001:00030b5c       __NLG_Dispatch2            10031b5c     libvcruntime:_exsup_.obj
 0001:00030b5c       __NLG_Dispatch             10031b5c     libvcruntime:_exsup_.obj
 0001:00030b64       __NLG_Call                 10031b64 f   libvcruntime:_exsup_.obj
 0001:00030b66       __NLG_Return2              10031b66     libvcruntime:_exsup_.obj
 0001:00030bb4       ??$__crt_fast_decode_pointer@P6AXXZ@@YAP6AXXZQ6AXXZ@Z 10031bb4 f i libvcruntime:purevirt.obj
 0001:00030bcd       ??$__crt_interlocked_compare_exchange_pointer@$$A6AXXZ$$T$$T@@YAP6AXXZPDS6AXXZ$$T1@Z 10031bcd f i libvcruntime:purevirt.obj
 0001:00030be3       ??$__crt_interlocked_exchange_pointer@$$A6AXXZP6AXXZ@@YAP6AXXZPDS6AXXZQ6AXXZ@Z 10031be3 f i libvcruntime:purevirt.obj
 0001:00030bf3       ??$__crt_interlocked_read_pointer@$$A6AXXZ@@YAP6AXXZPDS6AXXZ@Z 10031bf3 f i libvcruntime:purevirt.obj
 0001:00030c07       __get_purecall_handler     10031c07 f   libvcruntime:purevirt.obj
 0001:00030c2d       __purecall                 10031c2d f   libvcruntime:purevirt.obj
 0001:00030c4e       __set_purecall_handler     10031c4e f   libvcruntime:purevirt.obj
 0001:00030c7c       _malloc                    10031c7c f   libucrt:malloc.obj
 0001:00030c89       ??$?RPAU__crt_stdio_stream_data@@@__crt_internal_free_policy@@QBEXQBQAU__crt_stdio_stream_data@@@Z 10031c89 f i libucrt:_file.obj
 0001:00030c9f       ??0?$__crt_unique_heap_ptr@PAU__crt_stdio_stream_data@@U__crt_internal_free_policy@@@@QAE@QAPAU__crt_stdio_stream_data@@@Z 10031c9f f i libucrt:_file.obj
 0001:00030cb3       ??0__crt_stdio_stream@@QAE@QAU_iobuf@@@Z 10031cb3 f i libucrt:_file.obj
 0001:00030cc7       ??1?$__crt_unique_heap_ptr@PAU__crt_stdio_stream_data@@U__crt_internal_free_policy@@@@QAE@XZ 10031cc7 f i libucrt:_file.obj
 0001:00030cdd       ??C__crt_stdio_stream@@QBEPAU__crt_stdio_stream_data@@XZ 10031cdd f i libucrt:_file.obj
 0001:00030ce0       ?detach@?$__crt_unique_heap_ptr@PAU__crt_stdio_stream_data@@U__crt_internal_free_policy@@@@QAEPAPAU__crt_stdio_stream_data@@XZ 10031ce0 f i libucrt:_file.obj
 0001:00030ce6       ?release@?$__crt_unique_heap_ptr@PAU__crt_stdio_stream_data@@U__crt_internal_free_policy@@@@QAEXXZ 10031ce6 f i libucrt:_file.obj
 0001:00030cfc       ___acrt_initialize_stdio   10031cfc f   libucrt:_file.obj
 0001:00030df6       ___acrt_iob_func           10031df6 f   libucrt:_file.obj
 0001:00030e0a       ___acrt_uninitialize_stdio 10031e0a f   libucrt:_file.obj
 0001:00030e69       __get_stream_buffer_pointers 10031e69 f   libucrt:_file.obj
 0001:00030ec0       __lock_file                10031ec0 f   libucrt:_file.obj
 0001:00030ed9       __unlock_file              10031ed9 f   libucrt:_file.obj
 0001:00030ef2       ??$?0ABV?$stream_output_adapter@D@__crt_stdio_output@@AB_KABQBDABQAU__crt_locale_pointers@@ABQAD@?$format_validation_base@DV?$stream_output_adapter@D@__crt_stdio_output@@@__crt_stdio_output@@IAE@ABV?$stream_output_adapter@D@1@AB_KABQBDABQAU__crt_locale_pointers@@ABQAD@Z 10031ef2 f i libucrt:output.obj
 0001:00030f1d       ??$?0ABV?$stream_output_adapter@D@__crt_stdio_output@@AB_KABQBDABQAU__crt_locale_pointers@@ABQAD@?$positional_parameter_base@DV?$stream_output_adapter@D@__crt_stdio_output@@@__crt_stdio_output@@IAE@ABV?$stream_output_adapter@D@1@AB_KABQBDABQAU__crt_locale_pointers@@ABQAD@Z 10031f1d f i libucrt:output.obj
 0001:00030f77       ??$?0ABV?$stream_output_adapter@D@__crt_stdio_output@@AB_KABQBDABQAU__crt_locale_pointers@@ABQAD@?$standard_base@DV?$stream_output_adapter@D@__crt_stdio_output@@@__crt_stdio_output@@IAE@ABV?$stream_output_adapter@D@1@AB_KABQBDABQAU__crt_locale_pointers@@ABQAD@Z 10031f77 f i libucrt:output.obj
 0001:00030fb9       ??$?0ABV?$stream_output_adapter@_W@__crt_stdio_output@@AB_KABQB_WABQAU__crt_locale_pointers@@ABQAD@?$format_validation_base@_WV?$stream_output_adapter@_W@__crt_stdio_output@@@__crt_stdio_output@@IAE@ABV?$stream_output_adapter@_W@1@AB_KABQB_WABQAU__crt_locale_pointers@@ABQAD@Z 10031fb9 f i libucrt:output.obj
 0001:00030fe4       ??$?0ABV?$stream_output_adapter@_W@__crt_stdio_output@@AB_KABQB_WABQAU__crt_locale_pointers@@ABQAD@?$positional_parameter_base@_WV?$stream_output_adapter@_W@__crt_stdio_output@@@__crt_stdio_output@@IAE@ABV?$stream_output_adapter@_W@1@AB_KABQB_WABQAU__crt_locale_pointers@@ABQAD@Z 10031fe4 f i libucrt:output.obj
 0001:0003103e       ??$?0ABV?$stream_output_adapter@_W@__crt_stdio_output@@AB_KABQB_WABQAU__crt_locale_pointers@@ABQAD@?$standard_base@_WV?$stream_output_adapter@_W@__crt_stdio_output@@@__crt_stdio_output@@IAE@ABV?$stream_output_adapter@_W@1@AB_KABQB_WABQAU__crt_locale_pointers@@ABQAD@Z 1003203e f i libucrt:output.obj
 0001:00031080       ??$?0ABV?$string_output_adapter@D@__crt_stdio_output@@AB_KABQBDABQAU__crt_locale_pointers@@ABQAD@?$format_validation_base@DV?$string_output_adapter@D@__crt_stdio_output@@@__crt_stdio_output@@IAE@ABV?$string_output_adapter@D@1@AB_KABQBDABQAU__crt_locale_pointers@@ABQAD@Z 10032080 f i libucrt:output.obj
 0001:000310ab       ??$?0ABV?$string_output_adapter@D@__crt_stdio_output@@AB_KABQBDABQAU__crt_locale_pointers@@ABQAD@?$positional_parameter_base@DV?$string_output_adapter@D@__crt_stdio_output@@@__crt_stdio_output@@IAE@ABV?$string_output_adapter@D@1@AB_KABQBDABQAU__crt_locale_pointers@@ABQAD@Z 100320ab f i libucrt:output.obj
 0001:00031105       ??$?0ABV?$string_output_adapter@D@__crt_stdio_output@@AB_KABQBDABQAU__crt_locale_pointers@@ABQAD@?$standard_base@DV?$string_output_adapter@D@__crt_stdio_output@@@__crt_stdio_output@@IAE@ABV?$string_output_adapter@D@1@AB_KABQBDABQAU__crt_locale_pointers@@ABQAD@Z 10032105 f i libucrt:output.obj
 0001:00031147       ??$?0ABV?$string_output_adapter@_W@__crt_stdio_output@@AB_KABQB_WABQAU__crt_locale_pointers@@ABQAD@?$format_validation_base@_WV?$string_output_adapter@_W@__crt_stdio_output@@@__crt_stdio_output@@IAE@ABV?$string_output_adapter@_W@1@AB_KABQB_WABQAU__crt_locale_pointers@@ABQAD@Z 10032147 f i libucrt:output.obj
 0001:00031172       ??$?0ABV?$string_output_adapter@_W@__crt_stdio_output@@AB_KABQB_WABQAU__crt_locale_pointers@@ABQAD@?$positional_parameter_base@_WV?$string_output_adapter@_W@__crt_stdio_output@@@__crt_stdio_output@@IAE@ABV?$string_output_adapter@_W@1@AB_KABQB_WABQAU__crt_locale_pointers@@ABQAD@Z 10032172 f i libucrt:output.obj
 0001:000311cc       ??$?0ABV?$string_output_adapter@_W@__crt_stdio_output@@AB_KABQB_WABQAU__crt_locale_pointers@@ABQAD@?$standard_base@_WV?$string_output_adapter@_W@__crt_stdio_output@@@__crt_stdio_output@@IAE@ABV?$string_output_adapter@_W@1@AB_KABQB_WABQAU__crt_locale_pointers@@ABQAD@Z 100321cc f i libucrt:output.obj
 0001:0003120e       ??$?RV<lambda_2293f24e3ce1ad6fe22ccfb9dec07671>@@AAV<lambda_2565fc715a641e539f44ad02d6823606>@@V<lambda_d3217f279b832965d9ca670dc2993570>@@@?$__crt_seh_guarded_call@H@@QAEH$$QAV<lambda_2293f24e3ce1ad6fe22ccfb9dec07671>@@AAV<lambda_2565fc715a641e539f44ad02d6823606>@@$$QAV<lambda_d3217f279b832965d9ca670dc2993570>@@@Z 1003220e f i libucrt:output.obj
 0001:00031273       ??$?RV<lambda_4d4ac866be0fa3c441830420fabdd2cb>@@AAV<lambda_63a10c2dc8dbb9e4dd1890be52af7c93>@@V<lambda_002af9fa0f8fe472b648c51882d4fc32>@@@?$__crt_seh_guarded_call@H@@QAEH$$QAV<lambda_4d4ac866be0fa3c441830420fabdd2cb>@@AAV<lambda_63a10c2dc8dbb9e4dd1890be52af7c93>@@$$QAV<lambda_002af9fa0f8fe472b648c51882d4fc32>@@@Z 10032273 f i libucrt:output.obj
 0001:000312d8       ??$?RV<lambda_5be909dfbae0a631386585770cd7b676>@@AAV<lambda_e516058a9c289d98c8ca9fea99247804>@@V<lambda_afe2e0cdc5e0ecf6f0d6f5e2f8985e38>@@@?$__crt_seh_guarded_call@H@@QAEH$$QAV<lambda_5be909dfbae0a631386585770cd7b676>@@AAV<lambda_e516058a9c289d98c8ca9fea99247804>@@$$QAV<lambda_afe2e0cdc5e0ecf6f0d6f5e2f8985e38>@@@Z 100322d8 f i libucrt:output.obj
 0001:0003133d       ??$?RV<lambda_823d65812123d985753d53e2a8c25d20>@@AAV<lambda_0a97c9e57da7be065955385c79108ff2>@@V<lambda_4d2973f3ad2d226f00468307185dca1b>@@@?$__crt_seh_guarded_call@H@@QAEH$$QAV<lambda_823d65812123d985753d53e2a8c25d20>@@AAV<lambda_0a97c9e57da7be065955385c79108ff2>@@$$QAV<lambda_4d2973f3ad2d226f00468307185dca1b>@@@Z 1003233d f i libucrt:output.obj
 0001:000313a2       ??$?RV<lambda_ab9923ffb5d694ec0d78876dd103e44f>@@AAV<lambda_481dd5778c961fbcd3b60b650e9b9dc4>@@V<lambda_7923d86c9e3f319b415918ec4b39749c>@@@?$__crt_seh_guarded_call@H@@QAEH$$QAV<lambda_ab9923ffb5d694ec0d78876dd103e44f>@@AAV<lambda_481dd5778c961fbcd3b60b650e9b9dc4>@@$$QAV<lambda_7923d86c9e3f319b415918ec4b39749c>@@@Z 100323a2 f i libucrt:output.obj
 0001:00031407       ??$?RV<lambda_db08b09ef7aa9d4f8620ce68402612bc>@@AAV<lambda_4f2c1eaeead2a5fc776db5b62ea0fb9b>@@V<lambda_3ae262bc35d4ba6a3825c4f6bcaaf95c>@@@?$__crt_seh_guarded_call@H@@QAEH$$QAV<lambda_db08b09ef7aa9d4f8620ce68402612bc>@@AAV<lambda_4f2c1eaeead2a5fc776db5b62ea0fb9b>@@$$QAV<lambda_3ae262bc35d4ba6a3825c4f6bcaaf95c>@@@Z 10032407 f i libucrt:output.obj
 0001:0003146c       ??$__acrt_lock_stream_and_call@V<lambda_0a97c9e57da7be065955385c79108ff2>@@@@YAHQAU_iobuf@@$$QAV<lambda_0a97c9e57da7be065955385c79108ff2>@@@Z 1003246c f i libucrt:output.obj
 0001:0003149e       ??$__acrt_lock_stream_and_call@V<lambda_2565fc715a641e539f44ad02d6823606>@@@@YAHQAU_iobuf@@$$QAV<lambda_2565fc715a641e539f44ad02d6823606>@@@Z 1003249e f i libucrt:output.obj
 0001:000314d0       ??$__acrt_lock_stream_and_call@V<lambda_481dd5778c961fbcd3b60b650e9b9dc4>@@@@YAHQAU_iobuf@@$$QAV<lambda_481dd5778c961fbcd3b60b650e9b9dc4>@@@Z 100324d0 f i libucrt:output.obj
 0001:00031502       ??$__acrt_lock_stream_and_call@V<lambda_4f2c1eaeead2a5fc776db5b62ea0fb9b>@@@@YAHQAU_iobuf@@$$QAV<lambda_4f2c1eaeead2a5fc776db5b62ea0fb9b>@@@Z 10032502 f i libucrt:output.obj
 0001:00031534       ??$__acrt_lock_stream_and_call@V<lambda_63a10c2dc8dbb9e4dd1890be52af7c93>@@@@YAHQAU_iobuf@@$$QAV<lambda_63a10c2dc8dbb9e4dd1890be52af7c93>@@@Z 10032534 f i libucrt:output.obj
 0001:00031566       ??$__acrt_lock_stream_and_call@V<lambda_e516058a9c289d98c8ca9fea99247804>@@@@YAHQAU_iobuf@@$$QAV<lambda_e516058a9c289d98c8ca9fea99247804>@@@Z 10032566 f i libucrt:output.obj
 0001:00031598       ??$__crt_interlocked_read@J@@YAJPDJ@Z 10032598 f i libucrt:output.obj
 0001:000327e3       ??$count@D@formatting_buffer@__crt_stdio_output@@QBEIXZ 100337e3 f i libucrt:output.obj
 0001:00032801       ??$data@D@formatting_buffer@__crt_stdio_output@@QAEPADXZ 10033801 f i libucrt:output.obj
 0001:00032811       ??$data@_W@formatting_buffer@__crt_stdio_output@@QAEPA_WXZ 10033811 f i libucrt:output.obj
 0001:00032821       ??$ensure_buffer_is_big_enough@D@formatting_buffer@__crt_stdio_output@@QAE_NI@Z 10033821 f i libucrt:output.obj
 0001:000328c8       ??$extract_argument_from_va_list@C_J@?$positional_parameter_base@DV?$stream_output_adapter@D@__crt_stdio_output@@@__crt_stdio_output@@IAE_NAA_J@Z 100338c8 f i libucrt:output.obj
 0001:00032966       ??$extract_argument_from_va_list@C_J@?$positional_parameter_base@DV?$string_output_adapter@D@__crt_stdio_output@@@__crt_stdio_output@@IAE_NAA_J@Z 10033966 f i libucrt:output.obj
 0001:00032a04       ??$extract_argument_from_va_list@C_J@?$positional_parameter_base@_WV?$stream_output_adapter@_W@__crt_stdio_output@@@__crt_stdio_output@@IAE_NAA_J@Z 10033a04 f i libucrt:output.obj
 0001:00032aa2       ??$extract_argument_from_va_list@C_J@?$positional_parameter_base@_WV?$string_output_adapter@_W@__crt_stdio_output@@@__crt_stdio_output@@IAE_NAA_J@Z 10033aa2 f i libucrt:output.obj
 0001:00032b40       ??$extract_argument_from_va_list@C_J@?$standard_base@DV?$stream_output_adapter@D@__crt_stdio_output@@@__crt_stdio_output@@IAE_NAA_J@Z 10033b40 f i libucrt:output.obj
 0001:00032b66       ??$extract_argument_from_va_list@C_J@?$standard_base@DV?$string_output_adapter@D@__crt_stdio_output@@@__crt_stdio_output@@IAE_NAA_J@Z 10033b66 f i libucrt:output.obj
 0001:00032b8c       ??$extract_argument_from_va_list@C_J@?$standard_base@_WV?$stream_output_adapter@_W@__crt_stdio_output@@@__crt_stdio_output@@IAE_NAA_J@Z 10033b8c f i libucrt:output.obj
 0001:00032bb2       ??$extract_argument_from_va_list@C_J@?$standard_base@_WV?$string_output_adapter@_W@__crt_stdio_output@@@__crt_stdio_output@@IAE_NAA_J@Z 10033bb2 f i libucrt:output.obj
 0001:00032bd8       ??$extract_argument_from_va_list@E_J@?$positional_parameter_base@DV?$stream_output_adapter@D@__crt_stdio_output@@@__crt_stdio_output@@IAE_NAA_J@Z 10033bd8 f i libucrt:output.obj
 0001:00032c76       ??$extract_argument_from_va_list@E_J@?$positional_parameter_base@DV?$string_output_adapter@D@__crt_stdio_output@@@__crt_stdio_output@@IAE_NAA_J@Z 10033c76 f i libucrt:output.obj
 0001:00032d14       ??$extract_argument_from_va_list@E_J@?$positional_parameter_base@_WV?$stream_output_adapter@_W@__crt_stdio_output@@@__crt_stdio_output@@IAE_NAA_J@Z 10033d14 f i libucrt:output.obj
 0001:00032db2       ??$extract_argument_from_va_list@E_J@?$positional_parameter_base@_WV?$string_output_adapter@_W@__crt_stdio_output@@@__crt_stdio_output@@IAE_NAA_J@Z 10033db2 f i libucrt:output.obj
 0001:00032e50       ??$extract_argument_from_va_list@E_J@?$standard_base@DV?$stream_output_adapter@D@__crt_stdio_output@@@__crt_stdio_output@@IAE_NAA_J@Z 10033e50 f i libucrt:output.obj
 0001:00032e76       ??$extract_argument_from_va_list@E_J@?$standard_base@DV?$string_output_adapter@D@__crt_stdio_output@@@__crt_stdio_output@@IAE_NAA_J@Z 10033e76 f i libucrt:output.obj
 0001:00032e9c       ??$extract_argument_from_va_list@E_J@?$standard_base@_WV?$stream_output_adapter@_W@__crt_stdio_output@@@__crt_stdio_output@@IAE_NAA_J@Z 10033e9c f i libucrt:output.obj
 0001:00032ec2       ??$extract_argument_from_va_list@E_J@?$standard_base@_WV?$string_output_adapter@_W@__crt_stdio_output@@@__crt_stdio_output@@IAE_NAA_J@Z 10033ec2 f i libucrt:output.obj
 0001:00032ee8       ??$extract_argument_from_va_list@F_J@?$positional_parameter_base@DV?$stream_output_adapter@D@__crt_stdio_output@@@__crt_stdio_output@@IAE_NAA_J@Z 10033ee8 f i libucrt:output.obj
 0001:00032f86       ??$extract_argument_from_va_list@F_J@?$positional_parameter_base@DV?$string_output_adapter@D@__crt_stdio_output@@@__crt_stdio_output@@IAE_NAA_J@Z 10033f86 f i libucrt:output.obj
 0001:00033024       ??$extract_argument_from_va_list@F_J@?$positional_parameter_base@_WV?$stream_output_adapter@_W@__crt_stdio_output@@@__crt_stdio_output@@IAE_NAA_J@Z 10034024 f i libucrt:output.obj
 0001:000330c2       ??$extract_argument_from_va_list@F_J@?$positional_parameter_base@_WV?$string_output_adapter@_W@__crt_stdio_output@@@__crt_stdio_output@@IAE_NAA_J@Z 100340c2 f i libucrt:output.obj
 0001:00033160       ??$extract_argument_from_va_list@F_J@?$standard_base@DV?$stream_output_adapter@D@__crt_stdio_output@@@__crt_stdio_output@@IAE_NAA_J@Z 10034160 f i libucrt:output.obj
 0001:00033186       ??$extract_argument_from_va_list@F_J@?$standard_base@DV?$string_output_adapter@D@__crt_stdio_output@@@__crt_stdio_output@@IAE_NAA_J@Z 10034186 f i libucrt:output.obj
 0001:000331ac       ??$extract_argument_from_va_list@F_J@?$standard_base@_WV?$stream_output_adapter@_W@__crt_stdio_output@@@__crt_stdio_output@@IAE_NAA_J@Z 100341ac f i libucrt:output.obj
 0001:000331d2       ??$extract_argument_from_va_list@F_J@?$standard_base@_WV?$string_output_adapter@_W@__crt_stdio_output@@@__crt_stdio_output@@IAE_NAA_J@Z 100341d2 f i libucrt:output.obj
 0001:000331f8       ??$extract_argument_from_va_list@GD@?$positional_parameter_base@DV?$stream_output_adapter@D@__crt_stdio_output@@@__crt_stdio_output@@IAE_NAAD@Z 100341f8 f i libucrt:output.obj
 0001:00033295       ??$extract_argument_from_va_list@GD@?$positional_parameter_base@DV?$string_output_adapter@D@__crt_stdio_output@@@__crt_stdio_output@@IAE_NAAD@Z 10034295 f i libucrt:output.obj
 0001:00033332       ??$extract_argument_from_va_list@GD@?$standard_base@DV?$stream_output_adapter@D@__crt_stdio_output@@@__crt_stdio_output@@IAE_NAAD@Z 10034332 f i libucrt:output.obj
 0001:00033352       ??$extract_argument_from_va_list@GD@?$standard_base@DV?$string_output_adapter@D@__crt_stdio_output@@@__crt_stdio_output@@IAE_NAAD@Z 10034352 f i libucrt:output.obj
 0001:00033372       ??$extract_argument_from_va_list@G_J@?$positional_parameter_base@DV?$stream_output_adapter@D@__crt_stdio_output@@@__crt_stdio_output@@IAE_NAA_J@Z 10034372 f i libucrt:output.obj
 0001:00033410       ??$extract_argument_from_va_list@G_J@?$positional_parameter_base@DV?$string_output_adapter@D@__crt_stdio_output@@@__crt_stdio_output@@IAE_NAA_J@Z 10034410 f i libucrt:output.obj
 0001:000334ae       ??$extract_argument_from_va_list@G_J@?$positional_parameter_base@_WV?$stream_output_adapter@_W@__crt_stdio_output@@@__crt_stdio_output@@IAE_NAA_J@Z 100344ae f i libucrt:output.obj
 0001:0003354c       ??$extract_argument_from_va_list@G_J@?$positional_parameter_base@_WV?$string_output_adapter@_W@__crt_stdio_output@@@__crt_stdio_output@@IAE_NAA_J@Z 1003454c f i libucrt:output.obj
 0001:000335ea       ??$extract_argument_from_va_list@G_J@?$standard_base@DV?$stream_output_adapter@D@__crt_stdio_output@@@__crt_stdio_output@@IAE_NAA_J@Z 100345ea f i libucrt:output.obj
 0001:00033610       ??$extract_argument_from_va_list@G_J@?$standard_base@DV?$string_output_adapter@D@__crt_stdio_output@@@__crt_stdio_output@@IAE_NAA_J@Z 10034610 f i libucrt:output.obj
 0001:00033636       ??$extract_argument_from_va_list@G_J@?$standard_base@_WV?$stream_output_adapter@_W@__crt_stdio_output@@@__crt_stdio_output@@IAE_NAA_J@Z 10034636 f i libucrt:output.obj
 0001:0003365c       ??$extract_argument_from_va_list@G_J@?$standard_base@_WV?$string_output_adapter@_W@__crt_stdio_output@@@__crt_stdio_output@@IAE_NAA_J@Z 1003465c f i libucrt:output.obj
 0001:00033682       ??$extract_argument_from_va_list@H_J@?$positional_parameter_base@DV?$stream_output_adapter@D@__crt_stdio_output@@@__crt_stdio_output@@IAE_NAA_J@Z 10034682 f i libucrt:output.obj
 0001:0003371e       ??$extract_argument_from_va_list@H_J@?$positional_parameter_base@DV?$string_output_adapter@D@__crt_stdio_output@@@__crt_stdio_output@@IAE_NAA_J@Z 1003471e f i libucrt:output.obj
 0001:000337ba       ??$extract_argument_from_va_list@H_J@?$positional_parameter_base@_WV?$stream_output_adapter@_W@__crt_stdio_output@@@__crt_stdio_output@@IAE_NAA_J@Z 100347ba f i libucrt:output.obj
 0001:00033856       ??$extract_argument_from_va_list@H_J@?$positional_parameter_base@_WV?$string_output_adapter@_W@__crt_stdio_output@@@__crt_stdio_output@@IAE_NAA_J@Z 10034856 f i libucrt:output.obj
 0001:000338f2       ??$extract_argument_from_va_list@H_J@?$standard_base@DV?$stream_output_adapter@D@__crt_stdio_output@@@__crt_stdio_output@@IAE_NAA_J@Z 100348f2 f i libucrt:output.obj
 0001:00033917       ??$extract_argument_from_va_list@H_J@?$standard_base@DV?$string_output_adapter@D@__crt_stdio_output@@@__crt_stdio_output@@IAE_NAA_J@Z 10034917 f i libucrt:output.obj
 0001:0003393c       ??$extract_argument_from_va_list@H_J@?$standard_base@_WV?$stream_output_adapter@_W@__crt_stdio_output@@@__crt_stdio_output@@IAE_NAA_J@Z 1003493c f i libucrt:output.obj
 0001:00033961       ??$extract_argument_from_va_list@H_J@?$standard_base@_WV?$string_output_adapter@_W@__crt_stdio_output@@@__crt_stdio_output@@IAE_NAA_J@Z 10034961 f i libucrt:output.obj
 0001:00033986       ??$extract_argument_from_va_list@I_J@?$positional_parameter_base@DV?$stream_output_adapter@D@__crt_stdio_output@@@__crt_stdio_output@@IAE_NAA_J@Z 10034986 f i libucrt:output.obj
 0001:00033a2d       ??$extract_argument_from_va_list@I_J@?$positional_parameter_base@DV?$string_output_adapter@D@__crt_stdio_output@@@__crt_stdio_output@@IAE_NAA_J@Z 10034a2d f i libucrt:output.obj
 0001:00033ad4       ??$extract_argument_from_va_list@I_J@?$positional_parameter_base@_WV?$stream_output_adapter@_W@__crt_stdio_output@@@__crt_stdio_output@@IAE_NAA_J@Z 10034ad4 f i libucrt:output.obj
 0001:00033b7b       ??$extract_argument_from_va_list@I_J@?$positional_parameter_base@_WV?$string_output_adapter@_W@__crt_stdio_output@@@__crt_stdio_output@@IAE_NAA_J@Z 10034b7b f i libucrt:output.obj
 0001:00033c22       ??$extract_argument_from_va_list@I_J@?$standard_base@DV?$stream_output_adapter@D@__crt_stdio_output@@@__crt_stdio_output@@IAE_NAA_J@Z 10034c22 f i libucrt:output.obj
 0001:00033c47       ??$extract_argument_from_va_list@I_J@?$standard_base@DV?$string_output_adapter@D@__crt_stdio_output@@@__crt_stdio_output@@IAE_NAA_J@Z 10034c47 f i libucrt:output.obj
 0001:00033c6c       ??$extract_argument_from_va_list@I_J@?$standard_base@_WV?$stream_output_adapter@_W@__crt_stdio_output@@@__crt_stdio_output@@IAE_NAA_J@Z 10034c6c f i libucrt:output.obj
 0001:00033c91       ??$extract_argument_from_va_list@I_J@?$standard_base@_WV?$string_output_adapter@_W@__crt_stdio_output@@@__crt_stdio_output@@IAE_NAA_J@Z 10034c91 f i libucrt:output.obj
 0001:00033cb6       ??$extract_argument_from_va_list@PADPAD@?$positional_parameter_base@DV?$stream_output_adapter@D@__crt_stdio_output@@@__crt_stdio_output@@IAE_NAAPAD@Z 10034cb6 f i libucrt:output.obj
 0001:00033d53       ??$extract_argument_from_va_list@PADPAD@?$positional_parameter_base@DV?$string_output_adapter@D@__crt_stdio_output@@@__crt_stdio_output@@IAE_NAAPAD@Z 10034d53 f i libucrt:output.obj
 0001:00033df0       ??$extract_argument_from_va_list@PADPAD@?$positional_parameter_base@_WV?$stream_output_adapter@_W@__crt_stdio_output@@@__crt_stdio_output@@IAE_NAAPAD@Z 10034df0 f i libucrt:output.obj
 0001:00033e8d       ??$extract_argument_from_va_list@PADPAD@?$positional_parameter_base@_WV?$string_output_adapter@_W@__crt_stdio_output@@@__crt_stdio_output@@IAE_NAAPAD@Z 10034e8d f i libucrt:output.obj
 0001:00033f2a       ??$extract_argument_from_va_list@PADPAD@?$standard_base@DV?$stream_output_adapter@D@__crt_stdio_output@@@__crt_stdio_output@@IAE_NAAPAD@Z 10034f2a f i libucrt:output.obj
 0001:00033f4a       ??$extract_argument_from_va_list@PADPAD@?$standard_base@DV?$string_output_adapter@D@__crt_stdio_output@@@__crt_stdio_output@@IAE_NAAPAD@Z 10034f4a f i libucrt:output.obj
 0001:00033f6a       ??$extract_argument_from_va_list@PADPAD@?$standard_base@_WV?$stream_output_adapter@_W@__crt_stdio_output@@@__crt_stdio_output@@IAE_NAAPAD@Z 10034f6a f i libucrt:output.obj
 0001:00033f8a       ??$extract_argument_from_va_list@PADPAD@?$standard_base@_WV?$string_output_adapter@_W@__crt_stdio_output@@@__crt_stdio_output@@IAE_NAAPAD@Z 10034f8a f i libucrt:output.obj
 0001:00033faa       ??$extract_argument_from_va_list@PAUansi_string@?1??type_case_Z@?$output_processor@DV?$stream_output_adapter@D@__crt_stdio_output@@V?$format_validation_base@DV?$stream_output_adapter@D@__crt_stdio_output@@@2@@__crt_stdio_output@@AAE_NXZ@PAU1?1??234@AAE_NXZ@@?$standard_base@DV?$stream_output_adapter@D@__crt_stdio_output@@@__crt_stdio_output@@IAE_NAAPAUansi_string@?1??type_case_Z@?$output_processor@DV?$stream_output_adapter@D@__crt_stdio_output@@V?$format_validation_base@DV?$stream_output_adapter@D@__crt_stdio_output@@@2@@1@AAE_NXZ@@Z 10034faa f i libucrt:output.obj
 0001:00033fca       ??$extract_argument_from_va_list@PAUansi_string@?1??type_case_Z@?$output_processor@DV?$stream_output_adapter@D@__crt_stdio_output@@V?$positional_parameter_base@DV?$stream_output_adapter@D@__crt_stdio_output@@@2@@__crt_stdio_output@@AAE_NXZ@PAU1?1??234@AAE_NXZ@@?$positional_parameter_base@DV?$stream_output_adapter@D@__crt_stdio_output@@@__crt_stdio_output@@IAE_NAAPAUansi_string@?1??type_case_Z@?$output_processor@DV?$stream_output_adapter@D@__crt_stdio_output@@V?$positional_parameter_base@DV?$stream_output_adapter@D@__crt_stdio_output@@@2@@1@AAE_NXZ@@Z 10034fca f i libucrt:output.obj
 0001:00034067       ??$extract_argument_from_va_list@PAUansi_string@?1??type_case_Z@?$output_processor@DV?$stream_output_adapter@D@__crt_stdio_output@@V?$positional_parameter_base@DV?$stream_output_adapter@D@__crt_stdio_output@@@2@@__crt_stdio_output@@AAE_NXZ@PAU1?1??234@AAE_NXZ@@?$standard_base@DV?$stream_output_adapter@D@__crt_stdio_output@@@__crt_stdio_output@@IAE_NAAPAUansi_string@?1??type_case_Z@?$output_processor@DV?$stream_output_adapter@D@__crt_stdio_output@@V?$positional_parameter_base@DV?$stream_output_adapter@D@__crt_stdio_output@@@2@@1@AAE_NXZ@@Z 10035067 f i libucrt:output.obj
 0001:00034087       ??$extract_argument_from_va_list@PAUansi_string@?1??type_case_Z@?$output_processor@DV?$stream_output_adapter@D@__crt_stdio_output@@V?$standard_base@DV?$stream_output_adapter@D@__crt_stdio_output@@@2@@__crt_stdio_output@@AAE_NXZ@PAU1?1??234@AAE_NXZ@@?$standard_base@DV?$stream_output_adapter@D@__crt_stdio_output@@@__crt_stdio_output@@IAE_NAAPAUansi_string@?1??type_case_Z@?$output_processor@DV?$stream_output_adapter@D@__crt_stdio_output@@V?$standard_base@DV?$stream_output_adapter@D@__crt_stdio_output@@@2@@1@AAE_NXZ@@Z 10035087 f i libucrt:output.obj
 0001:000340a7       ??$extract_argument_from_va_list@PAUansi_string@?1??type_case_Z@?$output_processor@DV?$string_output_adapter@D@__crt_stdio_output@@V?$format_validation_base@DV?$string_output_adapter@D@__crt_stdio_output@@@2@@__crt_stdio_output@@AAE_NXZ@PAU1?1??234@AAE_NXZ@@?$standard_base@DV?$string_output_adapter@D@__crt_stdio_output@@@__crt_stdio_output@@IAE_NAAPAUansi_string@?1??type_case_Z@?$output_processor@DV?$string_output_adapter@D@__crt_stdio_output@@V?$format_validation_base@DV?$string_output_adapter@D@__crt_stdio_output@@@2@@1@AAE_NXZ@@Z 100350a7 f i libucrt:output.obj
 0001:000340c7       ??$extract_argument_from_va_list@PAUansi_string@?1??type_case_Z@?$output_processor@DV?$string_output_adapter@D@__crt_stdio_output@@V?$positional_parameter_base@DV?$string_output_adapter@D@__crt_stdio_output@@@2@@__crt_stdio_output@@AAE_NXZ@PAU1?1??234@AAE_NXZ@@?$positional_parameter_base@DV?$string_output_adapter@D@__crt_stdio_output@@@__crt_stdio_output@@IAE_NAAPAUansi_string@?1??type_case_Z@?$output_processor@DV?$string_output_adapter@D@__crt_stdio_output@@V?$positional_parameter_base@DV?$string_output_adapter@D@__crt_stdio_output@@@2@@1@AAE_NXZ@@Z 100350c7 f i libucrt:output.obj
 0001:00034164       ??$extract_argument_from_va_list@PAUansi_string@?1??type_case_Z@?$output_processor@DV?$string_output_adapter@D@__crt_stdio_output@@V?$positional_parameter_base@DV?$string_output_adapter@D@__crt_stdio_output@@@2@@__crt_stdio_output@@AAE_NXZ@PAU1?1??234@AAE_NXZ@@?$standard_base@DV?$string_output_adapter@D@__crt_stdio_output@@@__crt_stdio_output@@IAE_NAAPAUansi_string@?1??type_case_Z@?$output_processor@DV?$string_output_adapter@D@__crt_stdio_output@@V?$positional_parameter_base@DV?$string_output_adapter@D@__crt_stdio_output@@@2@@1@AAE_NXZ@@Z 10035164 f i libucrt:output.obj
 0001:00034184       ??$extract_argument_from_va_list@PAUansi_string@?1??type_case_Z@?$output_processor@DV?$string_output_adapter@D@__crt_stdio_output@@V?$standard_base@DV?$string_output_adapter@D@__crt_stdio_output@@@2@@__crt_stdio_output@@AAE_NXZ@PAU1?1??234@AAE_NXZ@@?$standard_base@DV?$string_output_adapter@D@__crt_stdio_output@@@__crt_stdio_output@@IAE_NAAPAUansi_string@?1??type_case_Z@?$output_processor@DV?$string_output_adapter@D@__crt_stdio_output@@V?$standard_base@DV?$string_output_adapter@D@__crt_stdio_output@@@2@@1@AAE_NXZ@@Z 10035184 f i libucrt:output.obj
 0001:000341a4       ??$extract_argument_from_va_list@PAUansi_string@?1??type_case_Z@?$output_processor@_WV?$stream_output_adapter@_W@__crt_stdio_output@@V?$format_validation_base@_WV?$stream_output_adapter@_W@__crt_stdio_output@@@2@@__crt_stdio_output@@AAE_NXZ@PAU1?1??234@AAE_NXZ@@?$standard_base@_WV?$stream_output_adapter@_W@__crt_stdio_output@@@__crt_stdio_output@@IAE_NAAPAUansi_string@?1??type_case_Z@?$output_processor@_WV?$stream_output_adapter@_W@__crt_stdio_output@@V?$format_validation_base@_WV?$stream_output_adapter@_W@__crt_stdio_output@@@2@@1@AAE_NXZ@@Z 100351a4 f i libucrt:output.obj
 0001:000341c4       ??$extract_argument_from_va_list@PAUansi_string@?1??type_case_Z@?$output_processor@_WV?$stream_output_adapter@_W@__crt_stdio_output@@V?$positional_parameter_base@_WV?$stream_output_adapter@_W@__crt_stdio_output@@@2@@__crt_stdio_output@@AAE_NXZ@PAU1?1??234@AAE_NXZ@@?$positional_parameter_base@_WV?$stream_output_adapter@_W@__crt_stdio_output@@@__crt_stdio_output@@IAE_NAAPAUansi_string@?1??type_case_Z@?$output_processor@_WV?$stream_output_adapter@_W@__crt_stdio_output@@V?$positional_parameter_base@_WV?$stream_output_adapter@_W@__crt_stdio_output@@@2@@1@AAE_NXZ@@Z 100351c4 f i libucrt:output.obj
 0001:00034261       ??$extract_argument_from_va_list@PAUansi_string@?1??type_case_Z@?$output_processor@_WV?$stream_output_adapter@_W@__crt_stdio_output@@V?$positional_parameter_base@_WV?$stream_output_adapter@_W@__crt_stdio_output@@@2@@__crt_stdio_output@@AAE_NXZ@PAU1?1??234@AAE_NXZ@@?$standard_base@_WV?$stream_output_adapter@_W@__crt_stdio_output@@@__crt_stdio_output@@IAE_NAAPAUansi_string@?1??type_case_Z@?$output_processor@_WV?$stream_output_adapter@_W@__crt_stdio_output@@V?$positional_parameter_base@_WV?$stream_output_adapter@_W@__crt_stdio_output@@@2@@1@AAE_NXZ@@Z 10035261 f i libucrt:output.obj
 0001:00034281       ??$extract_argument_from_va_list@PAUansi_string@?1??type_case_Z@?$output_processor@_WV?$stream_output_adapter@_W@__crt_stdio_output@@V?$standard_base@_WV?$stream_output_adapter@_W@__crt_stdio_output@@@2@@__crt_stdio_output@@AAE_NXZ@PAU1?1??234@AAE_NXZ@@?$standard_base@_WV?$stream_output_adapter@_W@__crt_stdio_output@@@__crt_stdio_output@@IAE_NAAPAUansi_string@?1??type_case_Z@?$output_processor@_WV?$stream_output_adapter@_W@__crt_stdio_output@@V?$standard_base@_WV?$stream_output_adapter@_W@__crt_stdio_output@@@2@@1@AAE_NXZ@@Z 10035281 f i libucrt:output.obj
 0001:000342a1       ??$extract_argument_from_va_list@PAUansi_string@?1??type_case_Z@?$output_processor@_WV?$string_output_adapter@_W@__crt_stdio_output@@V?$format_validation_base@_WV?$string_output_adapter@_W@__crt_stdio_output@@@2@@__crt_stdio_output@@AAE_NXZ@PAU1?1??234@AAE_NXZ@@?$standard_base@_WV?$string_output_adapter@_W@__crt_stdio_output@@@__crt_stdio_output@@IAE_NAAPAUansi_string@?1??type_case_Z@?$output_processor@_WV?$string_output_adapter@_W@__crt_stdio_output@@V?$format_validation_base@_WV?$string_output_adapter@_W@__crt_stdio_output@@@2@@1@AAE_NXZ@@Z 100352a1 f i libucrt:output.obj
 0001:000342c1       ??$extract_argument_from_va_list@PAUansi_string@?1??type_case_Z@?$output_processor@_WV?$string_output_adapter@_W@__crt_stdio_output@@V?$positional_parameter_base@_WV?$string_output_adapter@_W@__crt_stdio_output@@@2@@__crt_stdio_output@@AAE_NXZ@PAU1?1??234@AAE_NXZ@@?$positional_parameter_base@_WV?$string_output_adapter@_W@__crt_stdio_output@@@__crt_stdio_output@@IAE_NAAPAUansi_string@?1??type_case_Z@?$output_processor@_WV?$string_output_adapter@_W@__crt_stdio_output@@V?$positional_parameter_base@_WV?$string_output_adapter@_W@__crt_stdio_output@@@2@@1@AAE_NXZ@@Z 100352c1 f i libucrt:output.obj
 0001:0003435e       ??$extract_argument_from_va_list@PAUansi_string@?1??type_case_Z@?$output_processor@_WV?$string_output_adapter@_W@__crt_stdio_output@@V?$positional_parameter_base@_WV?$string_output_adapter@_W@__crt_stdio_output@@@2@@__crt_stdio_output@@AAE_NXZ@PAU1?1??234@AAE_NXZ@@?$standard_base@_WV?$string_output_adapter@_W@__crt_stdio_output@@@__crt_stdio_output@@IAE_NAAPAUansi_string@?1??type_case_Z@?$output_processor@_WV?$string_output_adapter@_W@__crt_stdio_output@@V?$positional_parameter_base@_WV?$string_output_adapter@_W@__crt_stdio_output@@@2@@1@AAE_NXZ@@Z 1003535e f i libucrt:output.obj
 0001:0003437e       ??$extract_argument_from_va_list@PAUansi_string@?1??type_case_Z@?$output_processor@_WV?$string_output_adapter@_W@__crt_stdio_output@@V?$standard_base@_WV?$string_output_adapter@_W@__crt_stdio_output@@@2@@__crt_stdio_output@@AAE_NXZ@PAU1?1??234@AAE_NXZ@@?$standard_base@_WV?$string_output_adapter@_W@__crt_stdio_output@@@__crt_stdio_output@@IAE_NAAPAUansi_string@?1??type_case_Z@?$output_processor@_WV?$string_output_adapter@_W@__crt_stdio_output@@V?$standard_base@_WV?$string_output_adapter@_W@__crt_stdio_output@@@2@@1@AAE_NXZ@@Z 1003537e f i libucrt:output.obj
 0001:0003439e       ??$extract_argument_from_va_list@PAXPAX@?$positional_parameter_base@DV?$stream_output_adapter@D@__crt_stdio_output@@@__crt_stdio_output@@IAE_NAAPAX@Z 1003539e f i libucrt:output.obj
 0001:0003443b       ??$extract_argument_from_va_list@PAXPAX@?$positional_parameter_base@DV?$string_output_adapter@D@__crt_stdio_output@@@__crt_stdio_output@@IAE_NAAPAX@Z 1003543b f i libucrt:output.obj
 0001:000344d8       ??$extract_argument_from_va_list@PAXPAX@?$positional_parameter_base@_WV?$stream_output_adapter@_W@__crt_stdio_output@@@__crt_stdio_output@@IAE_NAAPAX@Z 100354d8 f i libucrt:output.obj
 0001:00034575       ??$extract_argument_from_va_list@PAXPAX@?$positional_parameter_base@_WV?$string_output_adapter@_W@__crt_stdio_output@@@__crt_stdio_output@@IAE_NAAPAX@Z 10035575 f i libucrt:output.obj
 0001:00034612       ??$extract_argument_from_va_list@PAXPAX@?$standard_base@DV?$stream_output_adapter@D@__crt_stdio_output@@@__crt_stdio_output@@IAE_NAAPAX@Z 10035612 f i libucrt:output.obj
 0001:00034632       ??$extract_argument_from_va_list@PAXPAX@?$standard_base@DV?$string_output_adapter@D@__crt_stdio_output@@@__crt_stdio_output@@IAE_NAAPAX@Z 10035632 f i libucrt:output.obj
 0001:00034652       ??$extract_argument_from_va_list@PAXPAX@?$standard_base@_WV?$stream_output_adapter@_W@__crt_stdio_output@@@__crt_stdio_output@@IAE_NAAPAX@Z 10035652 f i libucrt:output.obj
 0001:00034672       ??$extract_argument_from_va_list@PAXPAX@?$standard_base@_WV?$string_output_adapter@_W@__crt_stdio_output@@@__crt_stdio_output@@IAE_NAAPAX@Z 10035672 f i libucrt:output.obj
 0001:00034692       ??$extract_argument_from_va_list@U_CRT_DOUBLE@@U1@@?$positional_parameter_base@DV?$stream_output_adapter@D@__crt_stdio_output@@@__crt_stdio_output@@IAE_NAAU_CRT_DOUBLE@@@Z 10035692 f i libucrt:output.obj
 0001:00034743       ??$extract_argument_from_va_list@U_CRT_DOUBLE@@U1@@?$positional_parameter_base@DV?$string_output_adapter@D@__crt_stdio_output@@@__crt_stdio_output@@IAE_NAAU_CRT_DOUBLE@@@Z 10035743 f i libucrt:output.obj
 0001:000347f4       ??$extract_argument_from_va_list@U_CRT_DOUBLE@@U1@@?$positional_parameter_base@_WV?$stream_output_adapter@_W@__crt_stdio_output@@@__crt_stdio_output@@IAE_NAAU_CRT_DOUBLE@@@Z 100357f4 f i libucrt:output.obj
 0001:000348a5       ??$extract_argument_from_va_list@U_CRT_DOUBLE@@U1@@?$positional_parameter_base@_WV?$string_output_adapter@_W@__crt_stdio_output@@@__crt_stdio_output@@IAE_NAAU_CRT_DOUBLE@@@Z 100358a5 f i libucrt:output.obj
 0001:00034956       ??$extract_argument_from_va_list@U_CRT_DOUBLE@@U1@@?$standard_base@DV?$stream_output_adapter@D@__crt_stdio_output@@@__crt_stdio_output@@IAE_NAAU_CRT_DOUBLE@@@Z 10035956 f i libucrt:output.obj
 0001:0003497e       ??$extract_argument_from_va_list@U_CRT_DOUBLE@@U1@@?$standard_base@DV?$string_output_adapter@D@__crt_stdio_output@@@__crt_stdio_output@@IAE_NAAU_CRT_DOUBLE@@@Z 1003597e f i libucrt:output.obj
 0001:000349a6       ??$extract_argument_from_va_list@U_CRT_DOUBLE@@U1@@?$standard_base@_WV?$stream_output_adapter@_W@__crt_stdio_output@@@__crt_stdio_output@@IAE_NAAU_CRT_DOUBLE@@@Z 100359a6 f i libucrt:output.obj
 0001:000349ce       ??$extract_argument_from_va_list@U_CRT_DOUBLE@@U1@@?$standard_base@_WV?$string_output_adapter@_W@__crt_stdio_output@@@__crt_stdio_output@@IAE_NAAU_CRT_DOUBLE@@@Z 100359ce f i libucrt:output.obj
 0001:000349f6       ??$extract_argument_from_va_list@_J_J@?$positional_parameter_base@DV?$stream_output_adapter@D@__crt_stdio_output@@@__crt_stdio_output@@IAE_NAA_J@Z 100359f6 f i libucrt:output.obj
 0001:00034aa7       ??$extract_argument_from_va_list@_J_J@?$positional_parameter_base@DV?$string_output_adapter@D@__crt_stdio_output@@@__crt_stdio_output@@IAE_NAA_J@Z 10035aa7 f i libucrt:output.obj
 0001:00034b58       ??$extract_argument_from_va_list@_J_J@?$positional_parameter_base@_WV?$stream_output_adapter@_W@__crt_stdio_output@@@__crt_stdio_output@@IAE_NAA_J@Z 10035b58 f i libucrt:output.obj
 0001:00034c09       ??$extract_argument_from_va_list@_J_J@?$positional_parameter_base@_WV?$string_output_adapter@_W@__crt_stdio_output@@@__crt_stdio_output@@IAE_NAA_J@Z 10035c09 f i libucrt:output.obj
 0001:00034cba       ??$extract_argument_from_va_list@_J_J@?$standard_base@DV?$stream_output_adapter@D@__crt_stdio_output@@@__crt_stdio_output@@IAE_NAA_J@Z 10035cba f i libucrt:output.obj
 0001:00034ce2       ??$extract_argument_from_va_list@_J_J@?$standard_base@DV?$string_output_adapter@D@__crt_stdio_output@@@__crt_stdio_output@@IAE_NAA_J@Z 10035ce2 f i libucrt:output.obj
 0001:00034d0a       ??$extract_argument_from_va_list@_J_J@?$standard_base@_WV?$stream_output_adapter@_W@__crt_stdio_output@@@__crt_stdio_output@@IAE_NAA_J@Z 10035d0a f i libucrt:output.obj
 0001:00034d32       ??$extract_argument_from_va_list@_J_J@?$standard_base@_WV?$string_output_adapter@_W@__crt_stdio_output@@@__crt_stdio_output@@IAE_NAA_J@Z 10035d32 f i libucrt:output.obj
 0001:00034d5a       ??$extract_argument_from_va_list@_K_J@?$positional_parameter_base@DV?$stream_output_adapter@D@__crt_stdio_output@@@__crt_stdio_output@@IAE_NAA_J@Z 10035d5a f i libucrt:output.obj
 0001:00034e0b       ??$extract_argument_from_va_list@_K_J@?$positional_parameter_base@DV?$string_output_adapter@D@__crt_stdio_output@@@__crt_stdio_output@@IAE_NAA_J@Z 10035e0b f i libucrt:output.obj
 0001:00034ebc       ??$extract_argument_from_va_list@_K_J@?$positional_parameter_base@_WV?$stream_output_adapter@_W@__crt_stdio_output@@@__crt_stdio_output@@IAE_NAA_J@Z 10035ebc f i libucrt:output.obj
 0001:00034f6d       ??$extract_argument_from_va_list@_K_J@?$positional_parameter_base@_WV?$string_output_adapter@_W@__crt_stdio_output@@@__crt_stdio_output@@IAE_NAA_J@Z 10035f6d f i libucrt:output.obj
 0001:0003501e       ??$extract_argument_from_va_list@_K_J@?$standard_base@DV?$stream_output_adapter@D@__crt_stdio_output@@@__crt_stdio_output@@IAE_NAA_J@Z 1003601e f i libucrt:output.obj
 0001:00035046       ??$extract_argument_from_va_list@_K_J@?$standard_base@DV?$string_output_adapter@D@__crt_stdio_output@@@__crt_stdio_output@@IAE_NAA_J@Z 10036046 f i libucrt:output.obj
 0001:0003506e       ??$extract_argument_from_va_list@_K_J@?$standard_base@_WV?$stream_output_adapter@_W@__crt_stdio_output@@@__crt_stdio_output@@IAE_NAA_J@Z 1003606e f i libucrt:output.obj
 0001:00035096       ??$extract_argument_from_va_list@_K_J@?$standard_base@_WV?$string_output_adapter@_W@__crt_stdio_output@@@__crt_stdio_output@@IAE_NAA_J@Z 10036096 f i libucrt:output.obj
 0001:000350be       ??$extract_argument_from_va_list@_W_W@?$positional_parameter_base@DV?$stream_output_adapter@D@__crt_stdio_output@@@__crt_stdio_output@@IAE_NAA_W@Z 100360be f i libucrt:output.obj
 0001:00035160       ??$extract_argument_from_va_list@_W_W@?$positional_parameter_base@DV?$string_output_adapter@D@__crt_stdio_output@@@__crt_stdio_output@@IAE_NAA_W@Z 10036160 f i libucrt:output.obj
 0001:00035202       ??$extract_argument_from_va_list@_W_W@?$positional_parameter_base@_WV?$stream_output_adapter@_W@__crt_stdio_output@@@__crt_stdio_output@@IAE_NAA_W@Z 10036202 f i libucrt:output.obj
 0001:000352a4       ??$extract_argument_from_va_list@_W_W@?$positional_parameter_base@_WV?$string_output_adapter@_W@__crt_stdio_output@@@__crt_stdio_output@@IAE_NAA_W@Z 100362a4 f i libucrt:output.obj
 0001:00035346       ??$extract_argument_from_va_list@_W_W@?$standard_base@DV?$stream_output_adapter@D@__crt_stdio_output@@@__crt_stdio_output@@IAE_NAA_W@Z 10036346 f i libucrt:output.obj
 0001:00035369       ??$extract_argument_from_va_list@_W_W@?$standard_base@DV?$string_output_adapter@D@__crt_stdio_output@@@__crt_stdio_output@@IAE_NAA_W@Z 10036369 f i libucrt:output.obj
 0001:0003538c       ??$extract_argument_from_va_list@_W_W@?$standard_base@_WV?$stream_output_adapter@_W@__crt_stdio_output@@@__crt_stdio_output@@IAE_NAA_W@Z 1003638c f i libucrt:output.obj
 0001:000353af       ??$extract_argument_from_va_list@_W_W@?$standard_base@_WV?$string_output_adapter@_W@__crt_stdio_output@@@__crt_stdio_output@@IAE_NAA_W@Z 100363af f i libucrt:output.obj
 0001:000353d2       ??$get_parameter_type@D@?$positional_parameter_base@DV?$stream_output_adapter@D@__crt_stdio_output@@@__crt_stdio_output@@CA?AW4parameter_type@01@PAD@Z 100363d2 f i libucrt:output.obj
 0001:000353d6       ??$get_parameter_type@D@?$positional_parameter_base@DV?$string_output_adapter@D@__crt_stdio_output@@@__crt_stdio_output@@CA?AW4parameter_type@01@PAD@Z 100363d6 f i libucrt:output.obj
 0001:000353da       ??$get_parameter_type@D@?$positional_parameter_base@_WV?$stream_output_adapter@_W@__crt_stdio_output@@@__crt_stdio_output@@CA?AW4parameter_type@01@PAD@Z 100363da f i libucrt:output.obj
 0001:000353de       ??$get_parameter_type@D@?$positional_parameter_base@_WV?$string_output_adapter@_W@__crt_stdio_output@@@__crt_stdio_output@@CA?AW4parameter_type@01@PAD@Z 100363de f i libucrt:output.obj
 0001:000353e2       ??$get_parameter_type@Uansi_string@?1??type_case_Z@?$output_processor@DV?$stream_output_adapter@D@__crt_stdio_output@@V?$positional_parameter_base@DV?$stream_output_adapter@D@__crt_stdio_output@@@2@@__crt_stdio_output@@AAE_NXZ@@?$positional_parameter_base@DV?$stream_output_adapter@D@__crt_stdio_output@@@__crt_stdio_output@@CA?AW4parameter_type@01@PAUansi_string@?1??type_case_Z@?$output_processor@DV?$stream_output_adapter@D@__crt_stdio_output@@V?$positional_parameter_base@DV?$stream_output_adapter@D@__crt_stdio_output@@@2@@1@AAE_NXZ@@Z 100363e2 f i libucrt:output.obj
 0001:000353e6       ??$get_parameter_type@Uansi_string@?1??type_case_Z@?$output_processor@DV?$string_output_adapter@D@__crt_stdio_output@@V?$positional_parameter_base@DV?$string_output_adapter@D@__crt_stdio_output@@@2@@__crt_stdio_output@@AAE_NXZ@@?$positional_parameter_base@DV?$string_output_adapter@D@__crt_stdio_output@@@__crt_stdio_output@@CA?AW4parameter_type@01@PAUansi_string@?1??type_case_Z@?$output_processor@DV?$string_output_adapter@D@__crt_stdio_output@@V?$positional_parameter_base@DV?$string_output_adapter@D@__crt_stdio_output@@@2@@1@AAE_NXZ@@Z 100363e6 f i libucrt:output.obj
 0001:000353ea       ??$get_parameter_type@Uansi_string@?1??type_case_Z@?$output_processor@_WV?$stream_output_adapter@_W@__crt_stdio_output@@V?$positional_parameter_base@_WV?$stream_output_adapter@_W@__crt_stdio_output@@@2@@__crt_stdio_output@@AAE_NXZ@@?$positional_parameter_base@_WV?$stream_output_adapter@_W@__crt_stdio_output@@@__crt_stdio_output@@CA?AW4parameter_type@01@PAUansi_string@?1??type_case_Z@?$output_processor@_WV?$stream_output_adapter@_W@__crt_stdio_output@@V?$positional_parameter_base@_WV?$stream_output_adapter@_W@__crt_stdio_output@@@2@@1@AAE_NXZ@@Z 100363ea f i libucrt:output.obj
 0001:000353ee       ??$get_parameter_type@Uansi_string@?1??type_case_Z@?$output_processor@_WV?$string_output_adapter@_W@__crt_stdio_output@@V?$positional_parameter_base@_WV?$string_output_adapter@_W@__crt_stdio_output@@@2@@__crt_stdio_output@@AAE_NXZ@@?$positional_parameter_base@_WV?$string_output_adapter@_W@__crt_stdio_output@@@__crt_stdio_output@@CA?AW4parameter_type@01@PAUansi_string@?1??type_case_Z@?$output_processor@_WV?$string_output_adapter@_W@__crt_stdio_output@@V?$positional_parameter_base@_WV?$string_output_adapter@_W@__crt_stdio_output@@@2@@1@AAE_NXZ@@Z 100363ee f i libucrt:output.obj
 0001:000353f2       ??$get_parameter_type@X@?$positional_parameter_base@DV?$stream_output_adapter@D@__crt_stdio_output@@@__crt_stdio_output@@CA?AW4parameter_type@01@PAX@Z 100363f2 f i libucrt:output.obj
 0001:000353f6       ??$get_parameter_type@X@?$positional_parameter_base@DV?$string_output_adapter@D@__crt_stdio_output@@@__crt_stdio_output@@CA?AW4parameter_type@01@PAX@Z 100363f6 f i libucrt:output.obj
 0001:000353fa       ??$get_parameter_type@X@?$positional_parameter_base@_WV?$stream_output_adapter@_W@__crt_stdio_output@@@__crt_stdio_output@@CA?AW4parameter_type@01@PAX@Z 100363fa f i libucrt:output.obj
 0001:000353fe       ??$get_parameter_type@X@?$positional_parameter_base@_WV?$string_output_adapter@_W@__crt_stdio_output@@@__crt_stdio_output@@CA?AW4parameter_type@01@PAX@Z 100363fe f i libucrt:output.obj
 0001:00035402       ??$is_character_specifier@D@?$positional_parameter_base@DV?$stream_output_adapter@D@__crt_stdio_output@@@__crt_stdio_output@@CA_ND@Z 10036402 f i libucrt:output.obj
 0001:00035421       ??$is_character_specifier@D@?$positional_parameter_base@DV?$string_output_adapter@D@__crt_stdio_output@@@__crt_stdio_output@@CA_ND@Z 10036421 f i libucrt:output.obj
 0001:00035440       ??$is_character_specifier@_W@?$positional_parameter_base@_WV?$stream_output_adapter@_W@__crt_stdio_output@@@__crt_stdio_output@@CA_N_W@Z 10036440 f i libucrt:output.obj
 0001:00035463       ??$is_character_specifier@_W@?$positional_parameter_base@_WV?$string_output_adapter@_W@__crt_stdio_output@@@__crt_stdio_output@@CA_N_W@Z 10036463 f i libucrt:output.obj
 0001:00035486       ??$is_integral_specifier@D@?$positional_parameter_base@DV?$stream_output_adapter@D@__crt_stdio_output@@@__crt_stdio_output@@CA_ND@Z 10036486 f i libucrt:output.obj
 0001:000354be       ??$is_integral_specifier@D@?$positional_parameter_base@DV?$string_output_adapter@D@__crt_stdio_output@@@__crt_stdio_output@@CA_ND@Z 100364be f i libucrt:output.obj
 0001:000354f6       ??$is_integral_specifier@_W@?$positional_parameter_base@_WV?$stream_output_adapter@_W@__crt_stdio_output@@@__crt_stdio_output@@CA_N_W@Z 100364f6 f i libucrt:output.obj
 0001:00035541       ??$is_integral_specifier@_W@?$positional_parameter_base@_WV?$string_output_adapter@_W@__crt_stdio_output@@@__crt_stdio_output@@CA_N_W@Z 10036541 f i libucrt:output.obj
 0001:0003558c       ??$is_pointer_specifier@D@?$positional_parameter_base@DV?$stream_output_adapter@D@__crt_stdio_output@@@__crt_stdio_output@@CA_ND@Z 1003658c f i libucrt:output.obj
 0001:000355a0       ??$is_pointer_specifier@D@?$positional_parameter_base@DV?$string_output_adapter@D@__crt_stdio_output@@@__crt_stdio_output@@CA_ND@Z 100365a0 f i libucrt:output.obj
 0001:000355b4       ??$is_pointer_specifier@_W@?$positional_parameter_base@_WV?$stream_output_adapter@_W@__crt_stdio_output@@@__crt_stdio_output@@CA_N_W@Z 100365b4 f i libucrt:output.obj
 0001:000355c9       ??$is_pointer_specifier@_W@?$positional_parameter_base@_WV?$string_output_adapter@_W@__crt_stdio_output@@@__crt_stdio_output@@CA_N_W@Z 100365c9 f i libucrt:output.obj
 0001:000355de       ??$is_string_specifier@D@?$positional_parameter_base@DV?$stream_output_adapter@D@__crt_stdio_output@@@__crt_stdio_output@@CA_ND@Z 100365de f i libucrt:output.obj
 0001:000355fd       ??$is_string_specifier@D@?$positional_parameter_base@DV?$string_output_adapter@D@__crt_stdio_output@@@__crt_stdio_output@@CA_ND@Z 100365fd f i libucrt:output.obj
 0001:0003561c       ??$is_string_specifier@_W@?$positional_parameter_base@_WV?$stream_output_adapter@_W@__crt_stdio_output@@@__crt_stdio_output@@CA_N_W@Z 1003661c f i libucrt:output.obj
 0001:0003563f       ??$is_string_specifier@_W@?$positional_parameter_base@_WV?$string_output_adapter@_W@__crt_stdio_output@@@__crt_stdio_output@@CA_N_W@Z 1003663f f i libucrt:output.obj
 0001:00035662       ??$is_wide_character_specifier@D@__crt_stdio_output@@YA_N_KDW4length_modifier@0@@Z 10036662 f i libucrt:output.obj
 0001:000356b2       ??$is_wide_character_specifier@_W@__crt_stdio_output@@YA_N_K_WW4length_modifier@0@@Z 100366b2 f i libucrt:output.obj
 0001:00035714       ??$peek_va_arg@C@__crt_stdio_output@@YACPAD@Z 10036714 f i libucrt:output.obj
 0001:00035723       ??$peek_va_arg@E@__crt_stdio_output@@YAEPAD@Z 10036723 f i libucrt:output.obj
 0001:00035732       ??$peek_va_arg@F@__crt_stdio_output@@YAFPAD@Z 10036732 f i libucrt:output.obj
 0001:00035742       ??$peek_va_arg@G@__crt_stdio_output@@YAGPAD@Z 10036742 f i libucrt:output.obj
 0001:00035752       ??$peek_va_arg@H@__crt_stdio_output@@YAHPAD@Z 10036752 f i libucrt:output.obj
 0001:00035761       ??$peek_va_arg@I@__crt_stdio_output@@YAIPAD@Z 10036761 f i libucrt:output.obj
 0001:00035770       ??$peek_va_arg@PAD@__crt_stdio_output@@YAPADPAD@Z 10036770 f i libucrt:output.obj
 0001:0003577f       ??$peek_va_arg@PAUansi_string@?1??type_case_Z@?$output_processor@DV?$stream_output_adapter@D@__crt_stdio_output@@V?$positional_parameter_base@DV?$stream_output_adapter@D@__crt_stdio_output@@@2@@__crt_stdio_output@@AAE_NXZ@@__crt_stdio_output@@YAPAUansi_string@?1??type_case_Z@?$output_processor@DV?$stream_output_adapter@D@__crt_stdio_output@@V?$positional_parameter_base@DV?$stream_output_adapter@D@__crt_stdio_output@@@2@@0@AAE_NXZ@PAD@Z 1003677f f i libucrt:output.obj
 0001:0003578e       ??$peek_va_arg@PAUansi_string@?1??type_case_Z@?$output_processor@DV?$string_output_adapter@D@__crt_stdio_output@@V?$positional_parameter_base@DV?$string_output_adapter@D@__crt_stdio_output@@@2@@__crt_stdio_output@@AAE_NXZ@@__crt_stdio_output@@YAPAUansi_string@?1??type_case_Z@?$output_processor@DV?$string_output_adapter@D@__crt_stdio_output@@V?$positional_parameter_base@DV?$string_output_adapter@D@__crt_stdio_output@@@2@@0@AAE_NXZ@PAD@Z 1003678e f i libucrt:output.obj
 0001:0003579d       ??$peek_va_arg@PAUansi_string@?1??type_case_Z@?$output_processor@_WV?$stream_output_adapter@_W@__crt_stdio_output@@V?$positional_parameter_base@_WV?$stream_output_adapter@_W@__crt_stdio_output@@@2@@__crt_stdio_output@@AAE_NXZ@@__crt_stdio_output@@YAPAUansi_string@?1??type_case_Z@?$output_processor@_WV?$stream_output_adapter@_W@__crt_stdio_output@@V?$positional_parameter_base@_WV?$stream_output_adapter@_W@__crt_stdio_output@@@2@@0@AAE_NXZ@PAD@Z 1003679d f i libucrt:output.obj
 0001:000357ac       ??$peek_va_arg@PAUansi_string@?1??type_case_Z@?$output_processor@_WV?$string_output_adapter@_W@__crt_stdio_output@@V?$positional_parameter_base@_WV?$string_output_adapter@_W@__crt_stdio_output@@@2@@__crt_stdio_output@@AAE_NXZ@@__crt_stdio_output@@YAPAUansi_string@?1??type_case_Z@?$output_processor@_WV?$string_output_adapter@_W@__crt_stdio_output@@V?$positional_parameter_base@_WV?$string_output_adapter@_W@__crt_stdio_output@@@2@@0@AAE_NXZ@PAD@Z 100367ac f i libucrt:output.obj
 0001:000357bb       ??$peek_va_arg@PAX@__crt_stdio_output@@YAPAXPAD@Z 100367bb f i libucrt:output.obj
 0001:000357ca       ??$peek_va_arg@U_CRT_DOUBLE@@@__crt_stdio_output@@YA?AU_CRT_DOUBLE@@PAD@Z 100367ca f i libucrt:output.obj
 0001:000357dc       ??$peek_va_arg@_J@__crt_stdio_output@@YA_JPAD@Z 100367dc f i libucrt:output.obj
 0001:000357ee       ??$peek_va_arg@_K@__crt_stdio_output@@YA_KPAD@Z 100367ee f i libucrt:output.obj
 0001:00035800       ??$peek_va_arg@_W@__crt_stdio_output@@YA_WPAD@Z 10036800 f i libucrt:output.obj
 0001:00035810       ??$puttc_nolock@ABDPAU_iobuf@@@?$__crt_char_traits@D@@SAHABD$$QAPAU_iobuf@@@Z 10036810 f i libucrt:output.obj
 0001:00035830       ??$puttc_nolock@AB_WPAU_iobuf@@@?$__crt_char_traits@_W@@SAGAB_W$$QAPAU_iobuf@@@Z 10036830 f i libucrt:output.obj
 0001:00035850       ??$read_va_arg@C@__crt_stdio_output@@YACAAPAD@Z 10036850 f i libucrt:output.obj
 0001:00035866       ??$read_va_arg@E@__crt_stdio_output@@YAEAAPAD@Z 10036866 f i libucrt:output.obj
 0001:0003587c       ??$read_va_arg@F@__crt_stdio_output@@YAFAAPAD@Z 1003687c f i libucrt:output.obj
 0001:00035893       ??$read_va_arg@G@__crt_stdio_output@@YAGAAPAD@Z 10036893 f i libucrt:output.obj
 0001:000358aa       ??$read_va_arg@H@__crt_stdio_output@@YAHAAPAD@Z 100368aa f i libucrt:output.obj
 0001:000358c0       ??$read_va_arg@I@__crt_stdio_output@@YAIAAPAD@Z 100368c0 f i libucrt:output.obj
 0001:000358d6       ??$read_va_arg@PAD@__crt_stdio_output@@YAPADAAPAD@Z 100368d6 f i libucrt:output.obj
 0001:000358ec       ??$read_va_arg@PAUansi_string@?1??type_case_Z@?$output_processor@DV?$stream_output_adapter@D@__crt_stdio_output@@V?$format_validation_base@DV?$stream_output_adapter@D@__crt_stdio_output@@@2@@__crt_stdio_output@@AAE_NXZ@@__crt_stdio_output@@YAPAUansi_string@?1??type_case_Z@?$output_processor@DV?$stream_output_adapter@D@__crt_stdio_output@@V?$format_validation_base@DV?$stream_output_adapter@D@__crt_stdio_output@@@2@@0@AAE_NXZ@AAPAD@Z 100368ec f i libucrt:output.obj
 0001:00035902       ??$read_va_arg@PAUansi_string@?1??type_case_Z@?$output_processor@DV?$stream_output_adapter@D@__crt_stdio_output@@V?$positional_parameter_base@DV?$stream_output_adapter@D@__crt_stdio_output@@@2@@__crt_stdio_output@@AAE_NXZ@@__crt_stdio_output@@YAPAUansi_string@?1??type_case_Z@?$output_processor@DV?$stream_output_adapter@D@__crt_stdio_output@@V?$positional_parameter_base@DV?$stream_output_adapter@D@__crt_stdio_output@@@2@@0@AAE_NXZ@AAPAD@Z 10036902 f i libucrt:output.obj
 0001:00035918       ??$read_va_arg@PAUansi_string@?1??type_case_Z@?$output_processor@DV?$stream_output_adapter@D@__crt_stdio_output@@V?$standard_base@DV?$stream_output_adapter@D@__crt_stdio_output@@@2@@__crt_stdio_output@@AAE_NXZ@@__crt_stdio_output@@YAPAUansi_string@?1??type_case_Z@?$output_processor@DV?$stream_output_adapter@D@__crt_stdio_output@@V?$standard_base@DV?$stream_output_adapter@D@__crt_stdio_output@@@2@@0@AAE_NXZ@AAPAD@Z 10036918 f i libucrt:output.obj
 0001:0003592e       ??$read_va_arg@PAUansi_string@?1??type_case_Z@?$output_processor@DV?$string_output_adapter@D@__crt_stdio_output@@V?$format_validation_base@DV?$string_output_adapter@D@__crt_stdio_output@@@2@@__crt_stdio_output@@AAE_NXZ@@__crt_stdio_output@@YAPAUansi_string@?1??type_case_Z@?$output_processor@DV?$string_output_adapter@D@__crt_stdio_output@@V?$format_validation_base@DV?$string_output_adapter@D@__crt_stdio_output@@@2@@0@AAE_NXZ@AAPAD@Z 1003692e f i libucrt:output.obj
 0001:00035944       ??$read_va_arg@PAUansi_string@?1??type_case_Z@?$output_processor@DV?$string_output_adapter@D@__crt_stdio_output@@V?$positional_parameter_base@DV?$string_output_adapter@D@__crt_stdio_output@@@2@@__crt_stdio_output@@AAE_NXZ@@__crt_stdio_output@@YAPAUansi_string@?1??type_case_Z@?$output_processor@DV?$string_output_adapter@D@__crt_stdio_output@@V?$positional_parameter_base@DV?$string_output_adapter@D@__crt_stdio_output@@@2@@0@AAE_NXZ@AAPAD@Z 10036944 f i libucrt:output.obj
 0001:0003595a       ??$read_va_arg@PAUansi_string@?1??type_case_Z@?$output_processor@DV?$string_output_adapter@D@__crt_stdio_output@@V?$standard_base@DV?$string_output_adapter@D@__crt_stdio_output@@@2@@__crt_stdio_output@@AAE_NXZ@@__crt_stdio_output@@YAPAUansi_string@?1??type_case_Z@?$output_processor@DV?$string_output_adapter@D@__crt_stdio_output@@V?$standard_base@DV?$string_output_adapter@D@__crt_stdio_output@@@2@@0@AAE_NXZ@AAPAD@Z 1003695a f i libucrt:output.obj
 0001:00035970       ??$read_va_arg@PAUansi_string@?1??type_case_Z@?$output_processor@_WV?$stream_output_adapter@_W@__crt_stdio_output@@V?$format_validation_base@_WV?$stream_output_adapter@_W@__crt_stdio_output@@@2@@__crt_stdio_output@@AAE_NXZ@@__crt_stdio_output@@YAPAUansi_string@?1??type_case_Z@?$output_processor@_WV?$stream_output_adapter@_W@__crt_stdio_output@@V?$format_validation_base@_WV?$stream_output_adapter@_W@__crt_stdio_output@@@2@@0@AAE_NXZ@AAPAD@Z 10036970 f i libucrt:output.obj
 0001:00035986       ??$read_va_arg@PAUansi_string@?1??type_case_Z@?$output_processor@_WV?$stream_output_adapter@_W@__crt_stdio_output@@V?$positional_parameter_base@_WV?$stream_output_adapter@_W@__crt_stdio_output@@@2@@__crt_stdio_output@@AAE_NXZ@@__crt_stdio_output@@YAPAUansi_string@?1??type_case_Z@?$output_processor@_WV?$stream_output_adapter@_W@__crt_stdio_output@@V?$positional_parameter_base@_WV?$stream_output_adapter@_W@__crt_stdio_output@@@2@@0@AAE_NXZ@AAPAD@Z 10036986 f i libucrt:output.obj
 0001:0003599c       ??$read_va_arg@PAUansi_string@?1??type_case_Z@?$output_processor@_WV?$stream_output_adapter@_W@__crt_stdio_output@@V?$standard_base@_WV?$stream_output_adapter@_W@__crt_stdio_output@@@2@@__crt_stdio_output@@AAE_NXZ@@__crt_stdio_output@@YAPAUansi_string@?1??type_case_Z@?$output_processor@_WV?$stream_output_adapter@_W@__crt_stdio_output@@V?$standard_base@_WV?$stream_output_adapter@_W@__crt_stdio_output@@@2@@0@AAE_NXZ@AAPAD@Z 1003699c f i libucrt:output.obj
 0001:000359b2       ??$read_va_arg@PAUansi_string@?1??type_case_Z@?$output_processor@_WV?$string_output_adapter@_W@__crt_stdio_output@@V?$format_validation_base@_WV?$string_output_adapter@_W@__crt_stdio_output@@@2@@__crt_stdio_output@@AAE_NXZ@@__crt_stdio_output@@YAPAUansi_string@?1??type_case_Z@?$output_processor@_WV?$string_output_adapter@_W@__crt_stdio_output@@V?$format_validation_base@_WV?$string_output_adapter@_W@__crt_stdio_output@@@2@@0@AAE_NXZ@AAPAD@Z 100369b2 f i libucrt:output.obj
 0001:000359c8       ??$read_va_arg@PAUansi_string@?1??type_case_Z@?$output_processor@_WV?$string_output_adapter@_W@__crt_stdio_output@@V?$positional_parameter_base@_WV?$string_output_adapter@_W@__crt_stdio_output@@@2@@__crt_stdio_output@@AAE_NXZ@@__crt_stdio_output@@YAPAUansi_string@?1??type_case_Z@?$output_processor@_WV?$string_output_adapter@_W@__crt_stdio_output@@V?$positional_parameter_base@_WV?$string_output_adapter@_W@__crt_stdio_output@@@2@@0@AAE_NXZ@AAPAD@Z 100369c8 f i libucrt:output.obj
 0001:000359de       ??$read_va_arg@PAUansi_string@?1??type_case_Z@?$output_processor@_WV?$string_output_adapter@_W@__crt_stdio_output@@V?$standard_base@_WV?$string_output_adapter@_W@__crt_stdio_output@@@2@@__crt_stdio_output@@AAE_NXZ@@__crt_stdio_output@@YAPAUansi_string@?1??type_case_Z@?$output_processor@_WV?$string_output_adapter@_W@__crt_stdio_output@@V?$standard_base@_WV?$string_output_adapter@_W@__crt_stdio_output@@@2@@0@AAE_NXZ@AAPAD@Z 100369de f i libucrt:output.obj
 0001:000359f4       ??$read_va_arg@PAX@__crt_stdio_output@@YAPAXAAPAD@Z 100369f4 f i libucrt:output.obj
 0001:00035a0a       ??$read_va_arg@U_CRT_DOUBLE@@@__crt_stdio_output@@YA?AU_CRT_DOUBLE@@AAPAD@Z 10036a0a f i libucrt:output.obj
 0001:00035a24       ??$read_va_arg@_J@__crt_stdio_output@@YA_JAAPAD@Z 10036a24 f i libucrt:output.obj
 0001:00035a3e       ??$read_va_arg@_K@__crt_stdio_output@@YA_KAAPAD@Z 10036a3e f i libucrt:output.obj
 0001:00035a58       ??$read_va_arg@_W@__crt_stdio_output@@YA_WAAPAD@Z 10036a58 f i libucrt:output.obj
 0001:00035a6f       ??$scratch_count@D@formatting_buffer@__crt_stdio_output@@QBEIXZ 10036a6f f i libucrt:output.obj
 0001:00035a74       ??$scratch_data@D@formatting_buffer@__crt_stdio_output@@QAEPADXZ 10036a74 f i libucrt:output.obj
 0001:00035a99       ??$tcstol@AAPBDPAPADH@?$__crt_char_traits@D@@SAJAAPBD$$QAPAPAD$$QAH@Z 10036a99 f i libucrt:output.obj
 0001:00035abe       ??$tcstol@AAPB_WPAPA_WH@?$__crt_char_traits@_W@@SAJAAPB_W$$QAPAPA_W$$QAH@Z 10036abe f i libucrt:output.obj
 0001:00035ae3       ??$tcstol@PBDPAPADH@?$__crt_char_traits@D@@SAJ$$QAPBD$$QAPAPAD$$QAH@Z 10036ae3 f i libucrt:output.obj
 0001:00035b08       ??$tcstol@PB_WPAPA_WH@?$__crt_char_traits@_W@@SAJ$$QAPB_W$$QAPAPA_W$$QAH@Z 10036b08 f i libucrt:output.obj
 0001:00035b2d       ??$type_case_integer_parse_into_buffer@I@?$output_processor@DV?$stream_output_adapter@D@__crt_stdio_output@@V?$format_validation_base@DV?$stream_output_adapter@D@__crt_stdio_output@@@2@@__crt_stdio_output@@AAEXII_N@Z 10036b2d f i libucrt:output.obj
 0001:00035bbf       ??$type_case_integer_parse_into_buffer@I@?$output_processor@DV?$stream_output_adapter@D@__crt_stdio_output@@V?$positional_parameter_base@DV?$stream_output_adapter@D@__crt_stdio_output@@@2@@__crt_stdio_output@@AAEXII_N@Z 10036bbf f i libucrt:output.obj
 0001:00035c51       ??$type_case_integer_parse_into_buffer@I@?$output_processor@DV?$stream_output_adapter@D@__crt_stdio_output@@V?$standard_base@DV?$stream_output_adapter@D@__crt_stdio_output@@@2@@__crt_stdio_output@@AAEXII_N@Z 10036c51 f i libucrt:output.obj
 0001:00035ce3       ??$type_case_integer_parse_into_buffer@I@?$output_processor@DV?$string_output_adapter@D@__crt_stdio_output@@V?$format_validation_base@DV?$string_output_adapter@D@__crt_stdio_output@@@2@@__crt_stdio_output@@AAEXII_N@Z 10036ce3 f i libucrt:output.obj
 0001:00035d75       ??$type_case_integer_parse_into_buffer@I@?$output_processor@DV?$string_output_adapter@D@__crt_stdio_output@@V?$positional_parameter_base@DV?$string_output_adapter@D@__crt_stdio_output@@@2@@__crt_stdio_output@@AAEXII_N@Z 10036d75 f i libucrt:output.obj
 0001:00035e07       ??$type_case_integer_parse_into_buffer@I@?$output_processor@DV?$string_output_adapter@D@__crt_stdio_output@@V?$standard_base@DV?$string_output_adapter@D@__crt_stdio_output@@@2@@__crt_stdio_output@@AAEXII_N@Z 10036e07 f i libucrt:output.obj
 0001:00035e99       ??$type_case_integer_parse_into_buffer@I@?$output_processor@_WV?$stream_output_adapter@_W@__crt_stdio_output@@V?$format_validation_base@_WV?$stream_output_adapter@_W@__crt_stdio_output@@@2@@__crt_stdio_output@@AAEXII_N@Z 10036e99 f i libucrt:output.obj
 0001:00035f2b       ??$type_case_integer_parse_into_buffer@I@?$output_processor@_WV?$stream_output_adapter@_W@__crt_stdio_output@@V?$positional_parameter_base@_WV?$stream_output_adapter@_W@__crt_stdio_output@@@2@@__crt_stdio_output@@AAEXII_N@Z 10036f2b f i libucrt:output.obj
 0001:00035fbd       ??$type_case_integer_parse_into_buffer@I@?$output_processor@_WV?$stream_output_adapter@_W@__crt_stdio_output@@V?$standard_base@_WV?$stream_output_adapter@_W@__crt_stdio_output@@@2@@__crt_stdio_output@@AAEXII_N@Z 10036fbd f i libucrt:output.obj
 0001:0003604f       ??$type_case_integer_parse_into_buffer@I@?$output_processor@_WV?$string_output_adapter@_W@__crt_stdio_output@@V?$format_validation_base@_WV?$string_output_adapter@_W@__crt_stdio_output@@@2@@__crt_stdio_output@@AAEXII_N@Z 1003704f f i libucrt:output.obj
 0001:000360e1       ??$type_case_integer_parse_into_buffer@I@?$output_processor@_WV?$string_output_adapter@_W@__crt_stdio_output@@V?$positional_parameter_base@_WV?$string_output_adapter@_W@__crt_stdio_output@@@2@@__crt_stdio_output@@AAEXII_N@Z 100370e1 f i libucrt:output.obj
 0001:00036173       ??$type_case_integer_parse_into_buffer@I@?$output_processor@_WV?$string_output_adapter@_W@__crt_stdio_output@@V?$standard_base@_WV?$string_output_adapter@_W@__crt_stdio_output@@@2@@__crt_stdio_output@@AAEXII_N@Z 10037173 f i libucrt:output.obj
 0001:00036205       ??$type_case_integer_parse_into_buffer@_K@?$output_processor@DV?$stream_output_adapter@D@__crt_stdio_output@@V?$format_validation_base@DV?$stream_output_adapter@D@__crt_stdio_output@@@2@@__crt_stdio_output@@AAEX_KI_N@Z 10037205 f i libucrt:output.obj
 0001:000362af       ??$type_case_integer_parse_into_buffer@_K@?$output_processor@DV?$stream_output_adapter@D@__crt_stdio_output@@V?$positional_parameter_base@DV?$stream_output_adapter@D@__crt_stdio_output@@@2@@__crt_stdio_output@@AAEX_KI_N@Z 100372af f i libucrt:output.obj
 0001:00036359       ??$type_case_integer_parse_into_buffer@_K@?$output_processor@DV?$stream_output_adapter@D@__crt_stdio_output@@V?$standard_base@DV?$stream_output_adapter@D@__crt_stdio_output@@@2@@__crt_stdio_output@@AAEX_KI_N@Z 10037359 f i libucrt:output.obj
 0001:00036403       ??$type_case_integer_parse_into_buffer@_K@?$output_processor@DV?$string_output_adapter@D@__crt_stdio_output@@V?$format_validation_base@DV?$string_output_adapter@D@__crt_stdio_output@@@2@@__crt_stdio_output@@AAEX_KI_N@Z 10037403 f i libucrt:output.obj
 0001:000364ad       ??$type_case_integer_parse_into_buffer@_K@?$output_processor@DV?$string_output_adapter@D@__crt_stdio_output@@V?$positional_parameter_base@DV?$string_output_adapter@D@__crt_stdio_output@@@2@@__crt_stdio_output@@AAEX_KI_N@Z 100374ad f i libucrt:output.obj
 0001:00036557       ??$type_case_integer_parse_into_buffer@_K@?$output_processor@DV?$string_output_adapter@D@__crt_stdio_output@@V?$standard_base@DV?$string_output_adapter@D@__crt_stdio_output@@@2@@__crt_stdio_output@@AAEX_KI_N@Z 10037557 f i libucrt:output.obj
 0001:00036601       ??$type_case_integer_parse_into_buffer@_K@?$output_processor@_WV?$stream_output_adapter@_W@__crt_stdio_output@@V?$format_validation_base@_WV?$stream_output_adapter@_W@__crt_stdio_output@@@2@@__crt_stdio_output@@AAEX_KI_N@Z 10037601 f i libucrt:output.obj
 0001:000366ab       ??$type_case_integer_parse_into_buffer@_K@?$output_processor@_WV?$stream_output_adapter@_W@__crt_stdio_output@@V?$positional_parameter_base@_WV?$stream_output_adapter@_W@__crt_stdio_output@@@2@@__crt_stdio_output@@AAEX_KI_N@Z 100376ab f i libucrt:output.obj
 0001:00036755       ??$type_case_integer_parse_into_buffer@_K@?$output_processor@_WV?$stream_output_adapter@_W@__crt_stdio_output@@V?$standard_base@_WV?$stream_output_adapter@_W@__crt_stdio_output@@@2@@__crt_stdio_output@@AAEX_KI_N@Z 10037755 f i libucrt:output.obj
 0001:000367ff       ??$type_case_integer_parse_into_buffer@_K@?$output_processor@_WV?$string_output_adapter@_W@__crt_stdio_output@@V?$format_validation_base@_WV?$string_output_adapter@_W@__crt_stdio_output@@@2@@__crt_stdio_output@@AAEX_KI_N@Z 100377ff f i libucrt:output.obj
 0001:000368a9       ??$type_case_integer_parse_into_buffer@_K@?$output_processor@_WV?$string_output_adapter@_W@__crt_stdio_output@@V?$positional_parameter_base@_WV?$string_output_adapter@_W@__crt_stdio_output@@@2@@__crt_stdio_output@@AAEX_KI_N@Z 100378a9 f i libucrt:output.obj
 0001:00036953       ??$type_case_integer_parse_into_buffer@_K@?$output_processor@_WV?$string_output_adapter@_W@__crt_stdio_output@@V?$standard_base@_WV?$string_output_adapter@_W@__crt_stdio_output@@@2@@__crt_stdio_output@@AAEX_KI_N@Z 10037953 f i libucrt:output.obj
 0001:000369fd       ??$write_multiple_characters@V?$stream_output_adapter@D@__crt_stdio_output@@D@__crt_stdio_output@@YAXABV?$stream_output_adapter@D@0@DHQAH@Z 100379fd f i libucrt:output.obj
 0001:00036a34       ??$write_multiple_characters@V?$stream_output_adapter@_W@__crt_stdio_output@@D@__crt_stdio_output@@YAXABV?$stream_output_adapter@_W@0@DHQAH@Z 10037a34 f i libucrt:output.obj
 0001:00036a71       ??$write_multiple_characters@V?$string_output_adapter@D@__crt_stdio_output@@D@__crt_stdio_output@@YAXABV?$string_output_adapter@D@0@DHQAH@Z 10037a71 f i libucrt:output.obj
 0001:00036aa8       ??$write_multiple_characters@V?$string_output_adapter@_W@__crt_stdio_output@@D@__crt_stdio_output@@YAXABV?$string_output_adapter@_W@0@DHQAH@Z 10037aa8 f i libucrt:output.obj
 0001:00036d19       ??0?$common_data@D@__crt_stdio_output@@IAE@XZ 10037d19 f i libucrt:output.obj
 0001:00036d71       ??0?$common_data@_W@__crt_stdio_output@@IAE@XZ 10037d71 f i libucrt:output.obj
 0001:00036dd0       ??0?$output_adapter_data@DV?$stream_output_adapter@D@__crt_stdio_output@@@__crt_stdio_output@@IAE@ABV?$stream_output_adapter@D@1@_KQBDQAU__crt_locale_pointers@@QAD@Z 10037dd0 f i libucrt:output.obj
 0001:00036e1b       ??0?$output_adapter_data@DV?$string_output_adapter@D@__crt_stdio_output@@@__crt_stdio_output@@IAE@ABV?$string_output_adapter@D@1@_KQBDQAU__crt_locale_pointers@@QAD@Z 10037e1b f i libucrt:output.obj
 0001:00036e66       ??0?$output_adapter_data@_WV?$stream_output_adapter@_W@__crt_stdio_output@@@__crt_stdio_output@@IAE@ABV?$stream_output_adapter@_W@1@_KQB_WQAU__crt_locale_pointers@@QAD@Z 10037e66 f i libucrt:output.obj
 0001:00036eb1       ??0?$output_adapter_data@_WV?$string_output_adapter@_W@__crt_stdio_output@@@__crt_stdio_output@@IAE@ABV?$string_output_adapter@_W@1@_KQB_WQAU__crt_locale_pointers@@QAD@Z 10037eb1 f i libucrt:output.obj
 0001:00036efc       ??0?$output_processor@DV?$stream_output_adapter@D@__crt_stdio_output@@V?$format_validation_base@DV?$stream_output_adapter@D@__crt_stdio_output@@@2@@__crt_stdio_output@@QAE@ABV?$stream_output_adapter@D@1@_KQBDQAU__crt_locale_pointers@@QAD@Z 10037efc f i libucrt:output.obj
 0001:00036f3e       ??0?$output_processor@DV?$stream_output_adapter@D@__crt_stdio_output@@V?$positional_parameter_base@DV?$stream_output_adapter@D@__crt_stdio_output@@@2@@__crt_stdio_output@@QAE@ABV?$stream_output_adapter@D@1@_KQBDQAU__crt_locale_pointers@@QAD@Z 10037f3e f i libucrt:output.obj
 0001:00036f78       ??0?$output_processor@DV?$stream_output_adapter@D@__crt_stdio_output@@V?$standard_base@DV?$stream_output_adapter@D@__crt_stdio_output@@@2@@__crt_stdio_output@@QAE@ABV?$stream_output_adapter@D@1@_KQBDQAU__crt_locale_pointers@@QAD@Z 10037f78 f i libucrt:output.obj
 0001:00036fba       ??0?$output_processor@DV?$string_output_adapter@D@__crt_stdio_output@@V?$format_validation_base@DV?$string_output_adapter@D@__crt_stdio_output@@@2@@__crt_stdio_output@@QAE@ABV?$string_output_adapter@D@1@_KQBDQAU__crt_locale_pointers@@QAD@Z 10037fba f i libucrt:output.obj
 0001:00036ffc       ??0?$output_processor@DV?$string_output_adapter@D@__crt_stdio_output@@V?$positional_parameter_base@DV?$string_output_adapter@D@__crt_stdio_output@@@2@@__crt_stdio_output@@QAE@ABV?$string_output_adapter@D@1@_KQBDQAU__crt_locale_pointers@@QAD@Z 10037ffc f i libucrt:output.obj
 0001:00037036       ??0?$output_processor@DV?$string_output_adapter@D@__crt_stdio_output@@V?$standard_base@DV?$string_output_adapter@D@__crt_stdio_output@@@2@@__crt_stdio_output@@QAE@ABV?$string_output_adapter@D@1@_KQBDQAU__crt_locale_pointers@@QAD@Z 10038036 f i libucrt:output.obj
 0001:00037078       ??0?$output_processor@_WV?$stream_output_adapter@_W@__crt_stdio_output@@V?$format_validation_base@_WV?$stream_output_adapter@_W@__crt_stdio_output@@@2@@__crt_stdio_output@@QAE@ABV?$stream_output_adapter@_W@1@_KQB_WQAU__crt_locale_pointers@@QAD@Z 10038078 f i libucrt:output.obj
 0001:000370ba       ??0?$output_processor@_WV?$stream_output_adapter@_W@__crt_stdio_output@@V?$positional_parameter_base@_WV?$stream_output_adapter@_W@__crt_stdio_output@@@2@@__crt_stdio_output@@QAE@ABV?$stream_output_adapter@_W@1@_KQB_WQAU__crt_locale_pointers@@QAD@Z 100380ba f i libucrt:output.obj
 0001:000370f4       ??0?$output_processor@_WV?$stream_output_adapter@_W@__crt_stdio_output@@V?$standard_base@_WV?$stream_output_adapter@_W@__crt_stdio_output@@@2@@__crt_stdio_output@@QAE@ABV?$stream_output_adapter@_W@1@_KQB_WQAU__crt_locale_pointers@@QAD@Z 100380f4 f i libucrt:output.obj
 0001:00037136       ??0?$output_processor@_WV?$string_output_adapter@_W@__crt_stdio_output@@V?$format_validation_base@_WV?$string_output_adapter@_W@__crt_stdio_output@@@2@@__crt_stdio_output@@QAE@ABV?$string_output_adapter@_W@1@_KQB_WQAU__crt_locale_pointers@@QAD@Z 10038136 f i libucrt:output.obj
 0001:00037178       ??0?$output_processor@_WV?$string_output_adapter@_W@__crt_stdio_output@@V?$positional_parameter_base@_WV?$string_output_adapter@_W@__crt_stdio_output@@@2@@__crt_stdio_output@@QAE@ABV?$string_output_adapter@_W@1@_KQB_WQAU__crt_locale_pointers@@QAD@Z 10038178 f i libucrt:output.obj
 0001:000371b2       ??0?$output_processor@_WV?$string_output_adapter@_W@__crt_stdio_output@@V?$standard_base@_WV?$string_output_adapter@_W@__crt_stdio_output@@@2@@__crt_stdio_output@@QAE@ABV?$string_output_adapter@_W@1@_KQB_WQAU__crt_locale_pointers@@QAD@Z 100381b2 f i libucrt:output.obj
 0001:000371f4       ??0?$stream_output_adapter@D@__crt_stdio_output@@QAE@QAU_iobuf@@@Z 100381f4 f i libucrt:output.obj
 0001:00037208       ??0?$stream_output_adapter@_W@__crt_stdio_output@@QAE@QAU_iobuf@@@Z 10038208 f i libucrt:output.obj
 0001:0003721c       ??0?$string_output_adapter@D@__crt_stdio_output@@QAE@QAU?$string_output_adapter_context@D@1@@Z 1003821c f i libucrt:output.obj
 0001:00037230       ??0?$string_output_adapter@_W@__crt_stdio_output@@QAE@QAU?$string_output_adapter_context@_W@1@@Z 10038230 f i libucrt:output.obj
 0001:00037244       ??0_LocaleUpdate@@QAE@QAU__crt_locale_pointers@@@Z 10038244 f i libucrt:output.obj
 0001:000372e7       ??0__acrt_stdio_temporary_buffering_guard@@QAE@QAU_iobuf@@@Z 100382e7 f i libucrt:output.obj
 0001:0003730c       ??0__crt_errno_guard@@QAE@QAH@Z 1003830c f i libucrt:output.obj
 0001:0003732a       ??0formatting_buffer@__crt_stdio_output@@QAE@XZ 1003832a f i libucrt:output.obj
 0001:0003733f       ??1?$common_data@D@__crt_stdio_output@@QAE@XZ 1003833f f i libucrt:output.obj
 0001:00037349       ??1?$common_data@_W@__crt_stdio_output@@QAE@XZ 10038349 f i libucrt:output.obj
 0001:00037353       ??1?$format_validation_base@DV?$stream_output_adapter@D@__crt_stdio_output@@@__crt_stdio_output@@QAE@XZ 10038353 f i libucrt:output.obj
 0001:0003735d       ??1?$format_validation_base@DV?$string_output_adapter@D@__crt_stdio_output@@@__crt_stdio_output@@QAE@XZ 1003835d f i libucrt:output.obj
 0001:00037367       ??1?$format_validation_base@_WV?$stream_output_adapter@_W@__crt_stdio_output@@@__crt_stdio_output@@QAE@XZ 10038367 f i libucrt:output.obj
 0001:00037371       ??1?$format_validation_base@_WV?$string_output_adapter@_W@__crt_stdio_output@@@__crt_stdio_output@@QAE@XZ 10038371 f i libucrt:output.obj
 0001:0003737b       ??1?$output_adapter_data@DV?$stream_output_adapter@D@__crt_stdio_output@@@__crt_stdio_output@@QAE@XZ 1003837b f i libucrt:output.obj
 0001:00037385       ??1?$output_adapter_data@DV?$string_output_adapter@D@__crt_stdio_output@@@__crt_stdio_output@@QAE@XZ 10038385 f i libucrt:output.obj
 0001:0003738f       ??1?$output_adapter_data@_WV?$stream_output_adapter@_W@__crt_stdio_output@@@__crt_stdio_output@@QAE@XZ 1003838f f i libucrt:output.obj
 0001:00037399       ??1?$output_adapter_data@_WV?$string_output_adapter@_W@__crt_stdio_output@@@__crt_stdio_output@@QAE@XZ 10038399 f i libucrt:output.obj
 0001:000373a3       ??1?$output_processor@DV?$stream_output_adapter@D@__crt_stdio_output@@V?$format_validation_base@DV?$stream_output_adapter@D@__crt_stdio_output@@@2@@__crt_stdio_output@@QAE@XZ 100383a3 f i libucrt:output.obj
 0001:000373ad       ??1?$output_processor@DV?$stream_output_adapter@D@__crt_stdio_output@@V?$positional_parameter_base@DV?$stream_output_adapter@D@__crt_stdio_output@@@2@@__crt_stdio_output@@QAE@XZ 100383ad f i libucrt:output.obj
 0001:000373b7       ??1?$output_processor@DV?$stream_output_adapter@D@__crt_stdio_output@@V?$standard_base@DV?$stream_output_adapter@D@__crt_stdio_output@@@2@@__crt_stdio_output@@QAE@XZ 100383b7 f i libucrt:output.obj
 0001:000373c1       ??1?$output_processor@DV?$string_output_adapter@D@__crt_stdio_output@@V?$format_validation_base@DV?$string_output_adapter@D@__crt_stdio_output@@@2@@__crt_stdio_output@@QAE@XZ 100383c1 f i libucrt:output.obj
 0001:000373cb       ??1?$output_processor@DV?$string_output_adapter@D@__crt_stdio_output@@V?$positional_parameter_base@DV?$string_output_adapter@D@__crt_stdio_output@@@2@@__crt_stdio_output@@QAE@XZ 100383cb f i libucrt:output.obj
 0001:000373d5       ??1?$output_processor@DV?$string_output_adapter@D@__crt_stdio_output@@V?$standard_base@DV?$string_output_adapter@D@__crt_stdio_output@@@2@@__crt_stdio_output@@QAE@XZ 100383d5 f i libucrt:output.obj
 0001:000373df       ??1?$output_processor@_WV?$stream_output_adapter@_W@__crt_stdio_output@@V?$format_validation_base@_WV?$stream_output_adapter@_W@__crt_stdio_output@@@2@@__crt_stdio_output@@QAE@XZ 100383df f i libucrt:output.obj
 0001:000373e9       ??1?$output_processor@_WV?$stream_output_adapter@_W@__crt_stdio_output@@V?$positional_parameter_base@_WV?$stream_output_adapter@_W@__crt_stdio_output@@@2@@__crt_stdio_output@@QAE@XZ 100383e9 f i libucrt:output.obj
 0001:000373f3       ??1?$output_processor@_WV?$stream_output_adapter@_W@__crt_stdio_output@@V?$standard_base@_WV?$stream_output_adapter@_W@__crt_stdio_output@@@2@@__crt_stdio_output@@QAE@XZ 100383f3 f i libucrt:output.obj
 0001:000373fd       ??1?$output_processor@_WV?$string_output_adapter@_W@__crt_stdio_output@@V?$format_validation_base@_WV?$string_output_adapter@_W@__crt_stdio_output@@@2@@__crt_stdio_output@@QAE@XZ 100383fd f i libucrt:output.obj
 0001:00037407       ??1?$output_processor@_WV?$string_output_adapter@_W@__crt_stdio_output@@V?$positional_parameter_base@_WV?$string_output_adapter@_W@__crt_stdio_output@@@2@@__crt_stdio_output@@QAE@XZ 10038407 f i libucrt:output.obj
 0001:00037411       ??1?$output_processor@_WV?$string_output_adapter@_W@__crt_stdio_output@@V?$standard_base@_WV?$string_output_adapter@_W@__crt_stdio_output@@@2@@__crt_stdio_output@@QAE@XZ 10038411 f i libucrt:output.obj
 0001:0003741b       ??1?$positional_parameter_base@DV?$stream_output_adapter@D@__crt_stdio_output@@@__crt_stdio_output@@QAE@XZ 1003841b f i libucrt:output.obj
 0001:00037425       ??1?$positional_parameter_base@DV?$string_output_adapter@D@__crt_stdio_output@@@__crt_stdio_output@@QAE@XZ 10038425 f i libucrt:output.obj
 0001:0003742f       ??1?$positional_parameter_base@_WV?$stream_output_adapter@_W@__crt_stdio_output@@@__crt_stdio_output@@QAE@XZ 1003842f f i libucrt:output.obj
 0001:00037439       ??1?$positional_parameter_base@_WV?$string_output_adapter@_W@__crt_stdio_output@@@__crt_stdio_output@@QAE@XZ 10038439 f i libucrt:output.obj
 0001:00037443       ??1?$standard_base@DV?$stream_output_adapter@D@__crt_stdio_output@@@__crt_stdio_output@@QAE@XZ 10038443 f i libucrt:output.obj
 0001:0003744d       ??1?$standard_base@DV?$string_output_adapter@D@__crt_stdio_output@@@__crt_stdio_output@@QAE@XZ 1003844d f i libucrt:output.obj
 0001:00037457       ??1?$standard_base@_WV?$stream_output_adapter@_W@__crt_stdio_output@@@__crt_stdio_output@@QAE@XZ 10038457 f i libucrt:output.obj
 0001:00037461       ??1?$standard_base@_WV?$string_output_adapter@_W@__crt_stdio_output@@@__crt_stdio_output@@QAE@XZ 10038461 f i libucrt:output.obj
 0001:0003746b       ??1_LocaleUpdate@@QAE@XZ   1003846b f i libucrt:output.obj
 0001:0003747f       ??1__acrt_stdio_temporary_buffering_guard@@QAE@XZ 1003847f f i libucrt:output.obj
 0001:00037491       ??1__crt_errno_guard@@QAE@XZ 10038491 f i libucrt:output.obj
 0001:000374a6       ??1formatting_buffer@__crt_stdio_output@@QAE@XZ 100384a6 f i libucrt:output.obj
 0001:000374c6       ??4?$__crt_unique_heap_ptr@DU__crt_internal_free_policy@@@@QAEAAV0@$$QAV0@@Z 100384c6 f i libucrt:output.obj
 0001:00037ba9       ?GetLocaleT@_LocaleUpdate@@QAEPAU__crt_locale_pointers@@XZ 10038ba9 f i libucrt:output.obj
 0001:00037bad       ?__crt_interlocked_read_32@@YAHPDH@Z 10038bad f i libucrt:output.obj
 0001:00037bbc       ?adjust_hexit@?$output_processor@DV?$stream_output_adapter@D@__crt_stdio_output@@V?$format_validation_base@DV?$stream_output_adapter@D@__crt_stdio_output@@@2@@__crt_stdio_output@@CADH_N@Z 10038bbc f i libucrt:output.obj
 0001:00037be1       ?adjust_hexit@?$output_processor@DV?$stream_output_adapter@D@__crt_stdio_output@@V?$positional_parameter_base@DV?$stream_output_adapter@D@__crt_stdio_output@@@2@@__crt_stdio_output@@CADH_N@Z 10038be1 f i libucrt:output.obj
 0001:00037c06       ?adjust_hexit@?$output_processor@DV?$stream_output_adapter@D@__crt_stdio_output@@V?$standard_base@DV?$stream_output_adapter@D@__crt_stdio_output@@@2@@__crt_stdio_output@@CADH_N@Z 10038c06 f i libucrt:output.obj
 0001:00037c2b       ?adjust_hexit@?$output_processor@DV?$string_output_adapter@D@__crt_stdio_output@@V?$format_validation_base@DV?$string_output_adapter@D@__crt_stdio_output@@@2@@__crt_stdio_output@@CADH_N@Z 10038c2b f i libucrt:output.obj
 0001:00037c50       ?adjust_hexit@?$output_processor@DV?$string_output_adapter@D@__crt_stdio_output@@V?$positional_parameter_base@DV?$string_output_adapter@D@__crt_stdio_output@@@2@@__crt_stdio_output@@CADH_N@Z 10038c50 f i libucrt:output.obj
 0001:00037c75       ?adjust_hexit@?$output_processor@DV?$string_output_adapter@D@__crt_stdio_output@@V?$standard_base@DV?$string_output_adapter@D@__crt_stdio_output@@@2@@__crt_stdio_output@@CADH_N@Z 10038c75 f i libucrt:output.obj
 0001:00037c9a       ?adjust_hexit@?$output_processor@_WV?$stream_output_adapter@_W@__crt_stdio_output@@V?$format_validation_base@_WV?$stream_output_adapter@_W@__crt_stdio_output@@@2@@__crt_stdio_output@@CADH_N@Z 10038c9a f i libucrt:output.obj
 0001:00037cbf       ?adjust_hexit@?$output_processor@_WV?$stream_output_adapter@_W@__crt_stdio_output@@V?$positional_parameter_base@_WV?$stream_output_adapter@_W@__crt_stdio_output@@@2@@__crt_stdio_output@@CADH_N@Z 10038cbf f i libucrt:output.obj
 0001:00037ce4       ?adjust_hexit@?$output_processor@_WV?$stream_output_adapter@_W@__crt_stdio_output@@V?$standard_base@_WV?$stream_output_adapter@_W@__crt_stdio_output@@@2@@__crt_stdio_output@@CADH_N@Z 10038ce4 f i libucrt:output.obj
 0001:00037d09       ?adjust_hexit@?$output_processor@_WV?$string_output_adapter@_W@__crt_stdio_output@@V?$format_validation_base@_WV?$string_output_adapter@_W@__crt_stdio_output@@@2@@__crt_stdio_output@@CADH_N@Z 10038d09 f i libucrt:output.obj
 0001:00037d2e       ?adjust_hexit@?$output_processor@_WV?$string_output_adapter@_W@__crt_stdio_output@@V?$positional_parameter_base@_WV?$string_output_adapter@_W@__crt_stdio_output@@@2@@__crt_stdio_output@@CADH_N@Z 10038d2e f i libucrt:output.obj
 0001:00037d53       ?adjust_hexit@?$output_processor@_WV?$string_output_adapter@_W@__crt_stdio_output@@V?$standard_base@_WV?$string_output_adapter@_W@__crt_stdio_output@@@2@@__crt_stdio_output@@CADH_N@Z 10038d53 f i libucrt:output.obj
 0001:00037d78       ?advance_to_next_pass@?$positional_parameter_base@DV?$stream_output_adapter@D@__crt_stdio_output@@@__crt_stdio_output@@IAE_NXZ 10038d78 f i libucrt:output.obj
 0001:00037dd7       ?advance_to_next_pass@?$positional_parameter_base@DV?$string_output_adapter@D@__crt_stdio_output@@@__crt_stdio_output@@IAE_NXZ 10038dd7 f i libucrt:output.obj
 0001:00037e36       ?advance_to_next_pass@?$positional_parameter_base@_WV?$stream_output_adapter@_W@__crt_stdio_output@@@__crt_stdio_output@@IAE_NXZ 10038e36 f i libucrt:output.obj
 0001:00037e95       ?advance_to_next_pass@?$positional_parameter_base@_WV?$string_output_adapter@_W@__crt_stdio_output@@@__crt_stdio_output@@IAE_NXZ 10038e95 f i libucrt:output.obj
 0001:00037ef4       ?advance_to_next_pass@?$standard_base@DV?$stream_output_adapter@D@__crt_stdio_output@@@__crt_stdio_output@@IAE_NXZ 10038ef4 f i libucrt:output.obj
 0001:00037f0b       ?advance_to_next_pass@?$standard_base@DV?$string_output_adapter@D@__crt_stdio_output@@@__crt_stdio_output@@IAE_NXZ 10038f0b f i libucrt:output.obj
 0001:00037f22       ?advance_to_next_pass@?$standard_base@_WV?$stream_output_adapter@_W@__crt_stdio_output@@@__crt_stdio_output@@IAE_NXZ 10038f22 f i libucrt:output.obj
 0001:00037f39       ?advance_to_next_pass@?$standard_base@_WV?$string_output_adapter@_W@__crt_stdio_output@@@__crt_stdio_output@@IAE_NXZ 10038f39 f i libucrt:output.obj
 0001:00037f50       ?crop_zeroes@__crt_stdio_output@@YAXPADQAU__crt_locale_pointers@@@Z 10038f50 f i libucrt:output.obj
 0001:00037fbc       ?find_next_state@?$output_processor@DV?$stream_output_adapter@D@__crt_stdio_output@@V?$format_validation_base@DV?$stream_output_adapter@D@__crt_stdio_output@@@2@@__crt_stdio_output@@ABE?AW4state@2@DW432@@Z 10038fbc f i libucrt:output.obj
 0001:00037ffe       ?find_next_state@?$output_processor@DV?$stream_output_adapter@D@__crt_stdio_output@@V?$positional_parameter_base@DV?$stream_output_adapter@D@__crt_stdio_output@@@2@@__crt_stdio_output@@ABE?AW4state@2@DW432@@Z 10038ffe f i libucrt:output.obj
 0001:00038040       ?find_next_state@?$output_processor@DV?$stream_output_adapter@D@__crt_stdio_output@@V?$standard_base@DV?$stream_output_adapter@D@__crt_stdio_output@@@2@@__crt_stdio_output@@ABE?AW4state@2@DW432@@Z 10039040 f i libucrt:output.obj
 0001:0003807e       ?find_next_state@?$output_processor@DV?$string_output_adapter@D@__crt_stdio_output@@V?$format_validation_base@DV?$string_output_adapter@D@__crt_stdio_output@@@2@@__crt_stdio_output@@ABE?AW4state@2@DW432@@Z 1003907e f i libucrt:output.obj
 0001:000380c0       ?find_next_state@?$output_processor@DV?$string_output_adapter@D@__crt_stdio_output@@V?$positional_parameter_base@DV?$string_output_adapter@D@__crt_stdio_output@@@2@@__crt_stdio_output@@ABE?AW4state@2@DW432@@Z 100390c0 f i libucrt:output.obj
 0001:00038102       ?find_next_state@?$output_processor@DV?$string_output_adapter@D@__crt_stdio_output@@V?$standard_base@DV?$string_output_adapter@D@__crt_stdio_output@@@2@@__crt_stdio_output@@ABE?AW4state@2@DW432@@Z 10039102 f i libucrt:output.obj
 0001:00038140       ?find_next_state@?$output_processor@_WV?$stream_output_adapter@_W@__crt_stdio_output@@V?$format_validation_base@_WV?$stream_output_adapter@_W@__crt_stdio_output@@@2@@__crt_stdio_output@@ABE?AW4state@2@_WW432@@Z 10039140 f i libucrt:output.obj
 0001:00038184       ?find_next_state@?$output_processor@_WV?$stream_output_adapter@_W@__crt_stdio_output@@V?$positional_parameter_base@_WV?$stream_output_adapter@_W@__crt_stdio_output@@@2@@__crt_stdio_output@@ABE?AW4state@2@_WW432@@Z 10039184 f i libucrt:output.obj
 0001:000381c8       ?find_next_state@?$output_processor@_WV?$stream_output_adapter@_W@__crt_stdio_output@@V?$standard_base@_WV?$stream_output_adapter@_W@__crt_stdio_output@@@2@@__crt_stdio_output@@ABE?AW4state@2@_WW432@@Z 100391c8 f i libucrt:output.obj
 0001:00038209       ?find_next_state@?$output_processor@_WV?$string_output_adapter@_W@__crt_stdio_output@@V?$format_validation_base@_WV?$string_output_adapter@_W@__crt_stdio_output@@@2@@__crt_stdio_output@@ABE?AW4state@2@_WW432@@Z 10039209 f i libucrt:output.obj
 0001:0003824d       ?find_next_state@?$output_processor@_WV?$string_output_adapter@_W@__crt_stdio_output@@V?$positional_parameter_base@_WV?$string_output_adapter@_W@__crt_stdio_output@@@2@@__crt_stdio_output@@ABE?AW4state@2@_WW432@@Z 1003924d f i libucrt:output.obj
 0001:00038291       ?find_next_state@?$output_processor@_WV?$string_output_adapter@_W@__crt_stdio_output@@V?$standard_base@_WV?$string_output_adapter@_W@__crt_stdio_output@@@2@@__crt_stdio_output@@ABE?AW4state@2@_WW432@@Z 10039291 f i libucrt:output.obj
 0001:000382d2       ?force_decimal_point@__crt_stdio_output@@YAXPADQAU__crt_locale_pointers@@@Z 100392d2 f i libucrt:output.obj
 0001:00038345       ?get_flags@__crt_stdio_stream@@QBEJXZ 10039345 f i libucrt:output.obj
 0001:0003834b       ?get_parameter_type@?$positional_parameter_base@DV?$stream_output_adapter@D@__crt_stdio_output@@@__crt_stdio_output@@CA?AW4parameter_type@12@F@Z 1003934b f i libucrt:output.obj
 0001:0003834f       ?get_parameter_type@?$positional_parameter_base@DV?$stream_output_adapter@D@__crt_stdio_output@@@__crt_stdio_output@@CA?AW4parameter_type@12@G@Z 1003934f f i libucrt:output.obj
 0001:00038353       ?get_parameter_type@?$positional_parameter_base@DV?$stream_output_adapter@D@__crt_stdio_output@@@__crt_stdio_output@@CA?AW4parameter_type@12@H@Z 10039353 f i libucrt:output.obj
 0001:00038357       ?get_parameter_type@?$positional_parameter_base@DV?$stream_output_adapter@D@__crt_stdio_output@@@__crt_stdio_output@@CA?AW4parameter_type@12@I@Z 10039357 f i libucrt:output.obj
 0001:0003835b       ?get_parameter_type@?$positional_parameter_base@DV?$stream_output_adapter@D@__crt_stdio_output@@@__crt_stdio_output@@CA?AW4parameter_type@12@U_CRT_DOUBLE@@@Z 1003935b f i libucrt:output.obj
 0001:0003835f       ?get_parameter_type@?$positional_parameter_base@DV?$stream_output_adapter@D@__crt_stdio_output@@@__crt_stdio_output@@CA?AW4parameter_type@12@_J@Z 1003935f f i libucrt:output.obj
 0001:00038363       ?get_parameter_type@?$positional_parameter_base@DV?$stream_output_adapter@D@__crt_stdio_output@@@__crt_stdio_output@@CA?AW4parameter_type@12@_K@Z 10039363 f i libucrt:output.obj
 0001:00038367       ?get_parameter_type@?$positional_parameter_base@DV?$stream_output_adapter@D@__crt_stdio_output@@@__crt_stdio_output@@CA?AW4parameter_type@12@_W@Z 10039367 f i libucrt:output.obj
 0001:0003836b       ?get_parameter_type@?$positional_parameter_base@DV?$string_output_adapter@D@__crt_stdio_output@@@__crt_stdio_output@@CA?AW4parameter_type@12@F@Z 1003936b f i libucrt:output.obj
 0001:0003836f       ?get_parameter_type@?$positional_parameter_base@DV?$string_output_adapter@D@__crt_stdio_output@@@__crt_stdio_output@@CA?AW4parameter_type@12@G@Z 1003936f f i libucrt:output.obj
 0001:00038373       ?get_parameter_type@?$positional_parameter_base@DV?$string_output_adapter@D@__crt_stdio_output@@@__crt_stdio_output@@CA?AW4parameter_type@12@H@Z 10039373 f i libucrt:output.obj
 0001:00038377       ?get_parameter_type@?$positional_parameter_base@DV?$string_output_adapter@D@__crt_stdio_output@@@__crt_stdio_output@@CA?AW4parameter_type@12@I@Z 10039377 f i libucrt:output.obj
 0001:0003837b       ?get_parameter_type@?$positional_parameter_base@DV?$string_output_adapter@D@__crt_stdio_output@@@__crt_stdio_output@@CA?AW4parameter_type@12@U_CRT_DOUBLE@@@Z 1003937b f i libucrt:output.obj
 0001:0003837f       ?get_parameter_type@?$positional_parameter_base@DV?$string_output_adapter@D@__crt_stdio_output@@@__crt_stdio_output@@CA?AW4parameter_type@12@_J@Z 1003937f f i libucrt:output.obj
 0001:00038383       ?get_parameter_type@?$positional_parameter_base@DV?$string_output_adapter@D@__crt_stdio_output@@@__crt_stdio_output@@CA?AW4parameter_type@12@_K@Z 10039383 f i libucrt:output.obj
 0001:00038387       ?get_parameter_type@?$positional_parameter_base@DV?$string_output_adapter@D@__crt_stdio_output@@@__crt_stdio_output@@CA?AW4parameter_type@12@_W@Z 10039387 f i libucrt:output.obj
 0001:0003838b       ?get_parameter_type@?$positional_parameter_base@_WV?$stream_output_adapter@_W@__crt_stdio_output@@@__crt_stdio_output@@CA?AW4parameter_type@12@F@Z 1003938b f i libucrt:output.obj
 0001:0003838f       ?get_parameter_type@?$positional_parameter_base@_WV?$stream_output_adapter@_W@__crt_stdio_output@@@__crt_stdio_output@@CA?AW4parameter_type@12@G@Z 1003938f f i libucrt:output.obj
 0001:00038393       ?get_parameter_type@?$positional_parameter_base@_WV?$stream_output_adapter@_W@__crt_stdio_output@@@__crt_stdio_output@@CA?AW4parameter_type@12@H@Z 10039393 f i libucrt:output.obj
 0001:00038397       ?get_parameter_type@?$positional_parameter_base@_WV?$stream_output_adapter@_W@__crt_stdio_output@@@__crt_stdio_output@@CA?AW4parameter_type@12@I@Z 10039397 f i libucrt:output.obj
 0001:0003839b       ?get_parameter_type@?$positional_parameter_base@_WV?$stream_output_adapter@_W@__crt_stdio_output@@@__crt_stdio_output@@CA?AW4parameter_type@12@U_CRT_DOUBLE@@@Z 1003939b f i libucrt:output.obj
 0001:0003839f       ?get_parameter_type@?$positional_parameter_base@_WV?$stream_output_adapter@_W@__crt_stdio_output@@@__crt_stdio_output@@CA?AW4parameter_type@12@_J@Z 1003939f f i libucrt:output.obj
 0001:000383a3       ?get_parameter_type@?$positional_parameter_base@_WV?$stream_output_adapter@_W@__crt_stdio_output@@@__crt_stdio_output@@CA?AW4parameter_type@12@_K@Z 100393a3 f i libucrt:output.obj
 0001:000383a7       ?get_parameter_type@?$positional_parameter_base@_WV?$stream_output_adapter@_W@__crt_stdio_output@@@__crt_stdio_output@@CA?AW4parameter_type@12@_W@Z 100393a7 f i libucrt:output.obj
 0001:000383ab       ?get_parameter_type@?$positional_parameter_base@_WV?$string_output_adapter@_W@__crt_stdio_output@@@__crt_stdio_output@@CA?AW4parameter_type@12@F@Z 100393ab f i libucrt:output.obj
 0001:000383af       ?get_parameter_type@?$positional_parameter_base@_WV?$string_output_adapter@_W@__crt_stdio_output@@@__crt_stdio_output@@CA?AW4parameter_type@12@G@Z 100393af f i libucrt:output.obj
 0001:000383b3       ?get_parameter_type@?$positional_parameter_base@_WV?$string_output_adapter@_W@__crt_stdio_output@@@__crt_stdio_output@@CA?AW4parameter_type@12@H@Z 100393b3 f i libucrt:output.obj
 0001:000383b7       ?get_parameter_type@?$positional_parameter_base@_WV?$string_output_adapter@_W@__crt_stdio_output@@@__crt_stdio_output@@CA?AW4parameter_type@12@I@Z 100393b7 f i libucrt:output.obj
 0001:000383bb       ?get_parameter_type@?$positional_parameter_base@_WV?$string_output_adapter@_W@__crt_stdio_output@@@__crt_stdio_output@@CA?AW4parameter_type@12@U_CRT_DOUBLE@@@Z 100393bb f i libucrt:output.obj
 0001:000383bf       ?get_parameter_type@?$positional_parameter_base@_WV?$string_output_adapter@_W@__crt_stdio_output@@@__crt_stdio_output@@CA?AW4parameter_type@12@_J@Z 100393bf f i libucrt:output.obj
 0001:000383c3       ?get_parameter_type@?$positional_parameter_base@_WV?$string_output_adapter@_W@__crt_stdio_output@@@__crt_stdio_output@@CA?AW4parameter_type@12@_K@Z 100393c3 f i libucrt:output.obj
 0001:000383c7       ?get_parameter_type@?$positional_parameter_base@_WV?$string_output_adapter@_W@__crt_stdio_output@@@__crt_stdio_output@@CA?AW4parameter_type@12@_W@Z 100393c7 f i libucrt:output.obj
 0001:000383cb       ?has_flag@?$output_processor@DV?$stream_output_adapter@D@__crt_stdio_output@@V?$format_validation_base@DV?$stream_output_adapter@D@__crt_stdio_output@@@2@@__crt_stdio_output@@ABE_NI@Z 100393cb f i libucrt:output.obj
 0001:000383e5       ?has_flag@?$output_processor@DV?$stream_output_adapter@D@__crt_stdio_output@@V?$positional_parameter_base@DV?$stream_output_adapter@D@__crt_stdio_output@@@2@@__crt_stdio_output@@ABE_NI@Z 100393e5 f i libucrt:output.obj
 0001:000383ff       ?has_flag@?$output_processor@DV?$stream_output_adapter@D@__crt_stdio_output@@V?$standard_base@DV?$stream_output_adapter@D@__crt_stdio_output@@@2@@__crt_stdio_output@@ABE_NI@Z 100393ff f i libucrt:output.obj
 0001:00038419       ?has_flag@?$output_processor@DV?$string_output_adapter@D@__crt_stdio_output@@V?$format_validation_base@DV?$string_output_adapter@D@__crt_stdio_output@@@2@@__crt_stdio_output@@ABE_NI@Z 10039419 f i libucrt:output.obj
 0001:00038433       ?has_flag@?$output_processor@DV?$string_output_adapter@D@__crt_stdio_output@@V?$positional_parameter_base@DV?$string_output_adapter@D@__crt_stdio_output@@@2@@__crt_stdio_output@@ABE_NI@Z 10039433 f i libucrt:output.obj
 0001:0003844d       ?has_flag@?$output_processor@DV?$string_output_adapter@D@__crt_stdio_output@@V?$standard_base@DV?$string_output_adapter@D@__crt_stdio_output@@@2@@__crt_stdio_output@@ABE_NI@Z 1003944d f i libucrt:output.obj
 0001:00038467       ?has_flag@?$output_processor@_WV?$stream_output_adapter@_W@__crt_stdio_output@@V?$format_validation_base@_WV?$stream_output_adapter@_W@__crt_stdio_output@@@2@@__crt_stdio_output@@ABE_NI@Z 10039467 f i libucrt:output.obj
 0001:00038481       ?has_flag@?$output_processor@_WV?$stream_output_adapter@_W@__crt_stdio_output@@V?$positional_parameter_base@_WV?$stream_output_adapter@_W@__crt_stdio_output@@@2@@__crt_stdio_output@@ABE_NI@Z 10039481 f i libucrt:output.obj
 0001:0003849b       ?has_flag@?$output_processor@_WV?$stream_output_adapter@_W@__crt_stdio_output@@V?$standard_base@_WV?$stream_output_adapter@_W@__crt_stdio_output@@@2@@__crt_stdio_output@@ABE_NI@Z 1003949b f i libucrt:output.obj
 0001:000384b5       ?has_flag@?$output_processor@_WV?$string_output_adapter@_W@__crt_stdio_output@@V?$format_validation_base@_WV?$string_output_adapter@_W@__crt_stdio_output@@@2@@__crt_stdio_output@@ABE_NI@Z 100394b5 f i libucrt:output.obj
 0001:000384cf       ?has_flag@?$output_processor@_WV?$string_output_adapter@_W@__crt_stdio_output@@V?$positional_parameter_base@_WV?$string_output_adapter@_W@__crt_stdio_output@@@2@@__crt_stdio_output@@ABE_NI@Z 100394cf f i libucrt:output.obj
 0001:000384e9       ?has_flag@?$output_processor@_WV?$string_output_adapter@_W@__crt_stdio_output@@V?$standard_base@_WV?$string_output_adapter@_W@__crt_stdio_output@@@2@@__crt_stdio_output@@ABE_NI@Z 100394e9 f i libucrt:output.obj
 0001:00038503       ?is_positional_parameter_reappearance_consistent@?$positional_parameter_base@DV?$stream_output_adapter@D@__crt_stdio_output@@@__crt_stdio_output@@AAE_NABUparameter_data@12@W4parameter_type@12@DW4length_modifier@2@@Z 10039503 f i libucrt:output.obj
 0001:0003867c       ?is_positional_parameter_reappearance_consistent@?$positional_parameter_base@DV?$string_output_adapter@D@__crt_stdio_output@@@__crt_stdio_output@@AAE_NABUparameter_data@12@W4parameter_type@12@DW4length_modifier@2@@Z 1003967c f i libucrt:output.obj
 0001:000387f5       ?is_positional_parameter_reappearance_consistent@?$positional_parameter_base@_WV?$stream_output_adapter@_W@__crt_stdio_output@@@__crt_stdio_output@@AAE_NABUparameter_data@12@W4parameter_type@12@_WW4length_modifier@2@@Z 100397f5 f i libucrt:output.obj
 0001:00038960       ?is_positional_parameter_reappearance_consistent@?$positional_parameter_base@_WV?$string_output_adapter@_W@__crt_stdio_output@@@__crt_stdio_output@@AAE_NABUparameter_data@12@W4parameter_type@12@_WW4length_modifier@2@@Z 10039960 f i libucrt:output.obj
 0001:00038acb       ?is_string_backed@__crt_stdio_stream@@QBE_NXZ 10039acb f i libucrt:output.obj
 0001:00038ada       ?narrow_null_string@?$output_processor@DV?$stream_output_adapter@D@__crt_stdio_output@@V?$format_validation_base@DV?$stream_output_adapter@D@__crt_stdio_output@@@2@@__crt_stdio_output@@CAPADXZ 10039ada f i libucrt:output.obj
 0001:00038ae0       ?narrow_null_string@?$output_processor@DV?$stream_output_adapter@D@__crt_stdio_output@@V?$positional_parameter_base@DV?$stream_output_adapter@D@__crt_stdio_output@@@2@@__crt_stdio_output@@CAPADXZ 10039ae0 f i libucrt:output.obj
 0001:00038ae6       ?narrow_null_string@?$output_processor@DV?$stream_output_adapter@D@__crt_stdio_output@@V?$standard_base@DV?$stream_output_adapter@D@__crt_stdio_output@@@2@@__crt_stdio_output@@CAPADXZ 10039ae6 f i libucrt:output.obj
 0001:00038aec       ?narrow_null_string@?$output_processor@DV?$string_output_adapter@D@__crt_stdio_output@@V?$format_validation_base@DV?$string_output_adapter@D@__crt_stdio_output@@@2@@__crt_stdio_output@@CAPADXZ 10039aec f i libucrt:output.obj
 0001:00038af2       ?narrow_null_string@?$output_processor@DV?$string_output_adapter@D@__crt_stdio_output@@V?$positional_parameter_base@DV?$string_output_adapter@D@__crt_stdio_output@@@2@@__crt_stdio_output@@CAPADXZ 10039af2 f i libucrt:output.obj
 0001:00038af8       ?narrow_null_string@?$output_processor@DV?$string_output_adapter@D@__crt_stdio_output@@V?$standard_base@DV?$string_output_adapter@D@__crt_stdio_output@@@2@@__crt_stdio_output@@CAPADXZ 10039af8 f i libucrt:output.obj
 0001:00038afe       ?narrow_null_string@?$output_processor@_WV?$stream_output_adapter@_W@__crt_stdio_output@@V?$format_validation_base@_WV?$stream_output_adapter@_W@__crt_stdio_output@@@2@@__crt_stdio_output@@CAPADXZ 10039afe f i libucrt:output.obj
 0001:00038b04       ?narrow_null_string@?$output_processor@_WV?$stream_output_adapter@_W@__crt_stdio_output@@V?$positional_parameter_base@_WV?$stream_output_adapter@_W@__crt_stdio_output@@@2@@__crt_stdio_output@@CAPADXZ 10039b04 f i libucrt:output.obj
 0001:00038b0a       ?narrow_null_string@?$output_processor@_WV?$stream_output_adapter@_W@__crt_stdio_output@@V?$standard_base@_WV?$stream_output_adapter@_W@__crt_stdio_output@@@2@@__crt_stdio_output@@CAPADXZ 10039b0a f i libucrt:output.obj
 0001:00038b10       ?narrow_null_string@?$output_processor@_WV?$string_output_adapter@_W@__crt_stdio_output@@V?$format_validation_base@_WV?$string_output_adapter@_W@__crt_stdio_output@@@2@@__crt_stdio_output@@CAPADXZ 10039b10 f i libucrt:output.obj
 0001:00038b16       ?narrow_null_string@?$output_processor@_WV?$string_output_adapter@_W@__crt_stdio_output@@V?$positional_parameter_base@_WV?$string_output_adapter@_W@__crt_stdio_output@@@2@@__crt_stdio_output@@CAPADXZ 10039b16 f i libucrt:output.obj
 0001:00038b1c       ?narrow_null_string@?$output_processor@_WV?$string_output_adapter@_W@__crt_stdio_output@@V?$standard_base@_WV?$string_output_adapter@_W@__crt_stdio_output@@@2@@__crt_stdio_output@@CAPADXZ 10039b1c f i libucrt:output.obj
 0001:00038b22       ?parse_int_from_format_string@?$output_processor@DV?$stream_output_adapter@D@__crt_stdio_output@@V?$format_validation_base@DV?$stream_output_adapter@D@__crt_stdio_output@@@2@@__crt_stdio_output@@AAE_NQAH@Z 10039b22 f i libucrt:output.obj
 0001:00038b95       ?parse_int_from_format_string@?$output_processor@DV?$stream_output_adapter@D@__crt_stdio_output@@V?$positional_parameter_base@DV?$stream_output_adapter@D@__crt_stdio_output@@@2@@__crt_stdio_output@@AAE_NQAH@Z 10039b95 f i libucrt:output.obj
 0001:00038c08       ?parse_int_from_format_string@?$output_processor@DV?$stream_output_adapter@D@__crt_stdio_output@@V?$standard_base@DV?$stream_output_adapter@D@__crt_stdio_output@@@2@@__crt_stdio_output@@AAE_NQAH@Z 10039c08 f i libucrt:output.obj
 0001:00038c7b       ?parse_int_from_format_string@?$output_processor@DV?$string_output_adapter@D@__crt_stdio_output@@V?$format_validation_base@DV?$string_output_adapter@D@__crt_stdio_output@@@2@@__crt_stdio_output@@AAE_NQAH@Z 10039c7b f i libucrt:output.obj
 0001:00038cee       ?parse_int_from_format_string@?$output_processor@DV?$string_output_adapter@D@__crt_stdio_output@@V?$positional_parameter_base@DV?$string_output_adapter@D@__crt_stdio_output@@@2@@__crt_stdio_output@@AAE_NQAH@Z 10039cee f i libucrt:output.obj
 0001:00038d61       ?parse_int_from_format_string@?$output_processor@DV?$string_output_adapter@D@__crt_stdio_output@@V?$standard_base@DV?$string_output_adapter@D@__crt_stdio_output@@@2@@__crt_stdio_output@@AAE_NQAH@Z 10039d61 f i libucrt:output.obj
 0001:00038dd4       ?parse_int_from_format_string@?$output_processor@_WV?$stream_output_adapter@_W@__crt_stdio_output@@V?$format_validation_base@_WV?$stream_output_adapter@_W@__crt_stdio_output@@@2@@__crt_stdio_output@@AAE_NQAH@Z 10039dd4 f i libucrt:output.obj
 0001:00038e49       ?parse_int_from_format_string@?$output_processor@_WV?$stream_output_adapter@_W@__crt_stdio_output@@V?$positional_parameter_base@_WV?$stream_output_adapter@_W@__crt_stdio_output@@@2@@__crt_stdio_output@@AAE_NQAH@Z 10039e49 f i libucrt:output.obj
 0001:00038ebe       ?parse_int_from_format_string@?$output_processor@_WV?$stream_output_adapter@_W@__crt_stdio_output@@V?$standard_base@_WV?$stream_output_adapter@_W@__crt_stdio_output@@@2@@__crt_stdio_output@@AAE_NQAH@Z 10039ebe f i libucrt:output.obj
 0001:00038f33       ?parse_int_from_format_string@?$output_processor@_WV?$string_output_adapter@_W@__crt_stdio_output@@V?$format_validation_base@_WV?$string_output_adapter@_W@__crt_stdio_output@@@2@@__crt_stdio_output@@AAE_NQAH@Z 10039f33 f i libucrt:output.obj
 0001:00038fa8       ?parse_int_from_format_string@?$output_processor@_WV?$string_output_adapter@_W@__crt_stdio_output@@V?$positional_parameter_base@_WV?$string_output_adapter@_W@__crt_stdio_output@@@2@@__crt_stdio_output@@AAE_NQAH@Z 10039fa8 f i libucrt:output.obj
 0001:0003901d       ?parse_int_from_format_string@?$output_processor@_WV?$string_output_adapter@_W@__crt_stdio_output@@V?$standard_base@_WV?$string_output_adapter@_W@__crt_stdio_output@@@2@@__crt_stdio_output@@AAE_NQAH@Z 1003a01d f i libucrt:output.obj
 0001:00039092       ?process@?$output_processor@DV?$stream_output_adapter@D@__crt_stdio_output@@V?$format_validation_base@DV?$stream_output_adapter@D@__crt_stdio_output@@@2@@__crt_stdio_output@@QAEHXZ 1003a092 f i libucrt:output.obj
 0001:00039204       ?process@?$output_processor@DV?$stream_output_adapter@D@__crt_stdio_output@@V?$positional_parameter_base@DV?$stream_output_adapter@D@__crt_stdio_output@@@2@@__crt_stdio_output@@QAEHXZ 1003a204 f i libucrt:output.obj
 0001:000393b7       ?process@?$output_processor@DV?$stream_output_adapter@D@__crt_stdio_output@@V?$standard_base@DV?$stream_output_adapter@D@__crt_stdio_output@@@2@@__crt_stdio_output@@QAEHXZ 1003a3b7 f i libucrt:output.obj
 0001:0003951a       ?process@?$output_processor@DV?$string_output_adapter@D@__crt_stdio_output@@V?$format_validation_base@DV?$string_output_adapter@D@__crt_stdio_output@@@2@@__crt_stdio_output@@QAEHXZ 1003a51a f i libucrt:output.obj
 0001:0003968c       ?process@?$output_processor@DV?$string_output_adapter@D@__crt_stdio_output@@V?$positional_parameter_base@DV?$string_output_adapter@D@__crt_stdio_output@@@2@@__crt_stdio_output@@QAEHXZ 1003a68c f i libucrt:output.obj
 0001:0003983f       ?process@?$output_processor@DV?$string_output_adapter@D@__crt_stdio_output@@V?$standard_base@DV?$string_output_adapter@D@__crt_stdio_output@@@2@@__crt_stdio_output@@QAEHXZ 1003a83f f i libucrt:output.obj
 0001:000399a2       ?process@?$output_processor@_WV?$stream_output_adapter@_W@__crt_stdio_output@@V?$format_validation_base@_WV?$stream_output_adapter@_W@__crt_stdio_output@@@2@@__crt_stdio_output@@QAEHXZ 1003a9a2 f i libucrt:output.obj
 0001:00039b1e       ?process@?$output_processor@_WV?$stream_output_adapter@_W@__crt_stdio_output@@V?$positional_parameter_base@_WV?$stream_output_adapter@_W@__crt_stdio_output@@@2@@__crt_stdio_output@@QAEHXZ 1003ab1e f i libucrt:output.obj
 0001:00039cd6       ?process@?$output_processor@_WV?$stream_output_adapter@_W@__crt_stdio_output@@V?$standard_base@_WV?$stream_output_adapter@_W@__crt_stdio_output@@@2@@__crt_stdio_output@@QAEHXZ 1003acd6 f i libucrt:output.obj
 0001:00039e3e       ?process@?$output_processor@_WV?$string_output_adapter@_W@__crt_stdio_output@@V?$format_validation_base@_WV?$string_output_adapter@_W@__crt_stdio_output@@@2@@__crt_stdio_output@@QAEHXZ 1003ae3e f i libucrt:output.obj
 0001:00039fba       ?process@?$output_processor@_WV?$string_output_adapter@_W@__crt_stdio_output@@V?$positional_parameter_base@_WV?$string_output_adapter@_W@__crt_stdio_output@@@2@@__crt_stdio_output@@QAEHXZ 1003afba f i libucrt:output.obj
 0001:0003a172       ?process@?$output_processor@_WV?$string_output_adapter@_W@__crt_stdio_output@@V?$standard_base@_WV?$string_output_adapter@_W@__crt_stdio_output@@@2@@__crt_stdio_output@@QAEHXZ 1003b172 f i libucrt:output.obj
 0001:0003a2da       ?public_stream@__crt_stdio_stream@@QBEPAU_iobuf@@XZ 1003b2da f i libucrt:output.obj
 0001:0003a2dd       ?set_flag@?$output_processor@DV?$stream_output_adapter@D@__crt_stdio_output@@V?$format_validation_base@DV?$stream_output_adapter@D@__crt_stdio_output@@@2@@__crt_stdio_output@@AAEXI@Z 1003b2dd f i libucrt:output.obj
 0001:0003a2ef       ?set_flag@?$output_processor@DV?$stream_output_adapter@D@__crt_stdio_output@@V?$positional_parameter_base@DV?$stream_output_adapter@D@__crt_stdio_output@@@2@@__crt_stdio_output@@AAEXI@Z 1003b2ef f i libucrt:output.obj
 0001:0003a301       ?set_flag@?$output_processor@DV?$stream_output_adapter@D@__crt_stdio_output@@V?$standard_base@DV?$stream_output_adapter@D@__crt_stdio_output@@@2@@__crt_stdio_output@@AAEXI@Z 1003b301 f i libucrt:output.obj
 0001:0003a313       ?set_flag@?$output_processor@DV?$string_output_adapter@D@__crt_stdio_output@@V?$format_validation_base@DV?$string_output_adapter@D@__crt_stdio_output@@@2@@__crt_stdio_output@@AAEXI@Z 1003b313 f i libucrt:output.obj
 0001:0003a325       ?set_flag@?$output_processor@DV?$string_output_adapter@D@__crt_stdio_output@@V?$positional_parameter_base@DV?$string_output_adapter@D@__crt_stdio_output@@@2@@__crt_stdio_output@@AAEXI@Z 1003b325 f i libucrt:output.obj
 0001:0003a337       ?set_flag@?$output_processor@DV?$string_output_adapter@D@__crt_stdio_output@@V?$standard_base@DV?$string_output_adapter@D@__crt_stdio_output@@@2@@__crt_stdio_output@@AAEXI@Z 1003b337 f i libucrt:output.obj
 0001:0003a349       ?set_flag@?$output_processor@_WV?$stream_output_adapter@_W@__crt_stdio_output@@V?$format_validation_base@_WV?$stream_output_adapter@_W@__crt_stdio_output@@@2@@__crt_stdio_output@@AAEXI@Z 1003b349 f i libucrt:output.obj
 0001:0003a35b       ?set_flag@?$output_processor@_WV?$stream_output_adapter@_W@__crt_stdio_output@@V?$positional_parameter_base@_WV?$stream_output_adapter@_W@__crt_stdio_output@@@2@@__crt_stdio_output@@AAEXI@Z 1003b35b f i libucrt:output.obj
 0001:0003a36d       ?set_flag@?$output_processor@_WV?$stream_output_adapter@_W@__crt_stdio_output@@V?$standard_base@_WV?$stream_output_adapter@_W@__crt_stdio_output@@@2@@__crt_stdio_output@@AAEXI@Z 1003b36d f i libucrt:output.obj
 0001:0003a37f       ?set_flag@?$output_processor@_WV?$string_output_adapter@_W@__crt_stdio_output@@V?$format_validation_base@_WV?$string_output_adapter@_W@__crt_stdio_output@@@2@@__crt_stdio_output@@AAEXI@Z 1003b37f f i libucrt:output.obj
 0001:0003a391       ?set_flag@?$output_processor@_WV?$string_output_adapter@_W@__crt_stdio_output@@V?$positional_parameter_base@_WV?$string_output_adapter@_W@__crt_stdio_output@@@2@@__crt_stdio_output@@AAEXI@Z 1003b391 f i libucrt:output.obj
 0001:0003a3a3       ?set_flag@?$output_processor@_WV?$string_output_adapter@_W@__crt_stdio_output@@V?$standard_base@_WV?$string_output_adapter@_W@__crt_stdio_output@@@2@@__crt_stdio_output@@AAEXI@Z 1003b3a3 f i libucrt:output.obj
 0001:0003a3b5       ?should_format@?$positional_parameter_base@DV?$stream_output_adapter@D@__crt_stdio_output@@@__crt_stdio_output@@IAE_NXZ 1003b3b5 f i libucrt:output.obj
 0001:0003a3d0       ?should_format@?$positional_parameter_base@DV?$string_output_adapter@D@__crt_stdio_output@@@__crt_stdio_output@@IAE_NXZ 1003b3d0 f i libucrt:output.obj
 0001:0003a3eb       ?should_format@?$positional_parameter_base@_WV?$stream_output_adapter@_W@__crt_stdio_output@@@__crt_stdio_output@@IAE_NXZ 1003b3eb f i libucrt:output.obj
 0001:0003a406       ?should_format@?$positional_parameter_base@_WV?$string_output_adapter@_W@__crt_stdio_output@@@__crt_stdio_output@@IAE_NXZ 1003b406 f i libucrt:output.obj
 0001:0003a421       ?should_format@?$standard_base@DV?$stream_output_adapter@D@__crt_stdio_output@@@__crt_stdio_output@@IAE_NXZ 1003b421 f i libucrt:output.obj
 0001:0003a424       ?should_format@?$standard_base@DV?$string_output_adapter@D@__crt_stdio_output@@@__crt_stdio_output@@IAE_NXZ 1003b424 f i libucrt:output.obj
 0001:0003a427       ?should_format@?$standard_base@_WV?$stream_output_adapter@_W@__crt_stdio_output@@@__crt_stdio_output@@IAE_NXZ 1003b427 f i libucrt:output.obj
 0001:0003a42a       ?should_format@?$standard_base@_WV?$string_output_adapter@_W@__crt_stdio_output@@@__crt_stdio_output@@IAE_NXZ 1003b42a f i libucrt:output.obj
 0001:0003a42d       ?should_skip_normal_state_processing@?$positional_parameter_base@DV?$stream_output_adapter@D@__crt_stdio_output@@@__crt_stdio_output@@IAE_NXZ 1003b42d f i libucrt:output.obj
 0001:0003a45f       ?should_skip_normal_state_processing@?$positional_parameter_base@DV?$string_output_adapter@D@__crt_stdio_output@@@__crt_stdio_output@@IAE_NXZ 1003b45f f i libucrt:output.obj
 0001:0003a491       ?should_skip_normal_state_processing@?$positional_parameter_base@_WV?$stream_output_adapter@_W@__crt_stdio_output@@@__crt_stdio_output@@IAE_NXZ 1003b491 f i libucrt:output.obj
 0001:0003a4c3       ?should_skip_normal_state_processing@?$positional_parameter_base@_WV?$string_output_adapter@_W@__crt_stdio_output@@@__crt_stdio_output@@IAE_NXZ 1003b4c3 f i libucrt:output.obj
 0001:0003a4f5       ?should_skip_normal_state_processing@?$standard_base@DV?$stream_output_adapter@D@__crt_stdio_output@@@__crt_stdio_output@@IAE_NXZ 1003b4f5 f i libucrt:output.obj
 0001:0003a4f8       ?should_skip_normal_state_processing@?$standard_base@DV?$string_output_adapter@D@__crt_stdio_output@@@__crt_stdio_output@@IAE_NXZ 1003b4f8 f i libucrt:output.obj
 0001:0003a4fb       ?should_skip_normal_state_processing@?$standard_base@_WV?$stream_output_adapter@_W@__crt_stdio_output@@@__crt_stdio_output@@IAE_NXZ 1003b4fb f i libucrt:output.obj
 0001:0003a4fe       ?should_skip_normal_state_processing@?$standard_base@_WV?$string_output_adapter@_W@__crt_stdio_output@@@__crt_stdio_output@@IAE_NXZ 1003b4fe f i libucrt:output.obj
 0001:0003a501       ?should_skip_type_state_output@?$positional_parameter_base@DV?$stream_output_adapter@D@__crt_stdio_output@@@__crt_stdio_output@@IBE_NXZ 1003b501 f i libucrt:output.obj
 0001:0003a51d       ?should_skip_type_state_output@?$positional_parameter_base@DV?$string_output_adapter@D@__crt_stdio_output@@@__crt_stdio_output@@IBE_NXZ 1003b51d f i libucrt:output.obj
 0001:0003a539       ?should_skip_type_state_output@?$positional_parameter_base@_WV?$stream_output_adapter@_W@__crt_stdio_output@@@__crt_stdio_output@@IBE_NXZ 1003b539 f i libucrt:output.obj
 0001:0003a555       ?should_skip_type_state_output@?$positional_parameter_base@_WV?$string_output_adapter@_W@__crt_stdio_output@@@__crt_stdio_output@@IBE_NXZ 1003b555 f i libucrt:output.obj
 0001:0003a571       ?should_skip_type_state_output@?$standard_base@DV?$stream_output_adapter@D@__crt_stdio_output@@@__crt_stdio_output@@IBE_NXZ 1003b571 f i libucrt:output.obj
 0001:0003a574       ?should_skip_type_state_output@?$standard_base@DV?$string_output_adapter@D@__crt_stdio_output@@@__crt_stdio_output@@IBE_NXZ 1003b574 f i libucrt:output.obj
 0001:0003a577       ?should_skip_type_state_output@?$standard_base@_WV?$stream_output_adapter@_W@__crt_stdio_output@@@__crt_stdio_output@@IBE_NXZ 1003b577 f i libucrt:output.obj
 0001:0003a57a       ?should_skip_type_state_output@?$standard_base@_WV?$string_output_adapter@_W@__crt_stdio_output@@@__crt_stdio_output@@IBE_NXZ 1003b57a f i libucrt:output.obj
 0001:0003a57d       ?state_case_dot@?$output_processor@DV?$stream_output_adapter@D@__crt_stdio_output@@V?$format_validation_base@DV?$stream_output_adapter@D@__crt_stdio_output@@@2@@__crt_stdio_output@@AAE_NXZ 1003b57d f i libucrt:output.obj
 0001:0003a584       ?state_case_dot@?$output_processor@DV?$stream_output_adapter@D@__crt_stdio_output@@V?$positional_parameter_base@DV?$stream_output_adapter@D@__crt_stdio_output@@@2@@__crt_stdio_output@@AAE_NXZ 1003b584 f i libucrt:output.obj
 0001:0003a58b       ?state_case_dot@?$output_processor@DV?$stream_output_adapter@D@__crt_stdio_output@@V?$standard_base@DV?$stream_output_adapter@D@__crt_stdio_output@@@2@@__crt_stdio_output@@AAE_NXZ 1003b58b f i libucrt:output.obj
 0001:0003a592       ?state_case_dot@?$output_processor@DV?$string_output_adapter@D@__crt_stdio_output@@V?$format_validation_base@DV?$string_output_adapter@D@__crt_stdio_output@@@2@@__crt_stdio_output@@AAE_NXZ 1003b592 f i libucrt:output.obj
 0001:0003a599       ?state_case_dot@?$output_processor@DV?$string_output_adapter@D@__crt_stdio_output@@V?$positional_parameter_base@DV?$string_output_adapter@D@__crt_stdio_output@@@2@@__crt_stdio_output@@AAE_NXZ 1003b599 f i libucrt:output.obj
 0001:0003a5a0       ?state_case_dot@?$output_processor@DV?$string_output_adapter@D@__crt_stdio_output@@V?$standard_base@DV?$string_output_adapter@D@__crt_stdio_output@@@2@@__crt_stdio_output@@AAE_NXZ 1003b5a0 f i libucrt:output.obj
 0001:0003a5a7       ?state_case_dot@?$output_processor@_WV?$stream_output_adapter@_W@__crt_stdio_output@@V?$format_validation_base@_WV?$stream_output_adapter@_W@__crt_stdio_output@@@2@@__crt_stdio_output@@AAE_NXZ 1003b5a7 f i libucrt:output.obj
 0001:0003a5ae       ?state_case_dot@?$output_processor@_WV?$stream_output_adapter@_W@__crt_stdio_output@@V?$positional_parameter_base@_WV?$stream_output_adapter@_W@__crt_stdio_output@@@2@@__crt_stdio_output@@AAE_NXZ 1003b5ae f i libucrt:output.obj
 0001:0003a5b5       ?state_case_dot@?$output_processor@_WV?$stream_output_adapter@_W@__crt_stdio_output@@V?$standard_base@_WV?$stream_output_adapter@_W@__crt_stdio_output@@@2@@__crt_stdio_output@@AAE_NXZ 1003b5b5 f i libucrt:output.obj
 0001:0003a5bc       ?state_case_dot@?$output_processor@_WV?$string_output_adapter@_W@__crt_stdio_output@@V?$format_validation_base@_WV?$string_output_adapter@_W@__crt_stdio_output@@@2@@__crt_stdio_output@@AAE_NXZ 1003b5bc f i libucrt:output.obj
 0001:0003a5c3       ?state_case_dot@?$output_processor@_WV?$string_output_adapter@_W@__crt_stdio_output@@V?$positional_parameter_base@_WV?$string_output_adapter@_W@__crt_stdio_output@@@2@@__crt_stdio_output@@AAE_NXZ 1003b5c3 f i libucrt:output.obj
 0001:0003a5ca       ?state_case_dot@?$output_processor@_WV?$string_output_adapter@_W@__crt_stdio_output@@V?$standard_base@_WV?$string_output_adapter@_W@__crt_stdio_output@@@2@@__crt_stdio_output@@AAE_NXZ 1003b5ca f i libucrt:output.obj
 0001:0003a5d1       ?state_case_flag@?$output_processor@DV?$stream_output_adapter@D@__crt_stdio_output@@V?$format_validation_base@DV?$stream_output_adapter@D@__crt_stdio_output@@@2@@__crt_stdio_output@@AAE_NXZ 1003b5d1 f i libucrt:output.obj
 0001:0003a61d       ?state_case_flag@?$output_processor@DV?$stream_output_adapter@D@__crt_stdio_output@@V?$positional_parameter_base@DV?$stream_output_adapter@D@__crt_stdio_output@@@2@@__crt_stdio_output@@AAE_NXZ 1003b61d f i libucrt:output.obj
 0001:0003a669       ?state_case_flag@?$output_processor@DV?$stream_output_adapter@D@__crt_stdio_output@@V?$standard_base@DV?$stream_output_adapter@D@__crt_stdio_output@@@2@@__crt_stdio_output@@AAE_NXZ 1003b669 f i libucrt:output.obj
 0001:0003a6b5       ?state_case_flag@?$output_processor@DV?$string_output_adapter@D@__crt_stdio_output@@V?$format_validation_base@DV?$string_output_adapter@D@__crt_stdio_output@@@2@@__crt_stdio_output@@AAE_NXZ 1003b6b5 f i libucrt:output.obj
 0001:0003a701       ?state_case_flag@?$output_processor@DV?$string_output_adapter@D@__crt_stdio_output@@V?$positional_parameter_base@DV?$string_output_adapter@D@__crt_stdio_output@@@2@@__crt_stdio_output@@AAE_NXZ 1003b701 f i libucrt:output.obj
 0001:0003a74d       ?state_case_flag@?$output_processor@DV?$string_output_adapter@D@__crt_stdio_output@@V?$standard_base@DV?$string_output_adapter@D@__crt_stdio_output@@@2@@__crt_stdio_output@@AAE_NXZ 1003b74d f i libucrt:output.obj
 0001:0003a799       ?state_case_flag@?$output_processor@_WV?$stream_output_adapter@_W@__crt_stdio_output@@V?$format_validation_base@_WV?$stream_output_adapter@_W@__crt_stdio_output@@@2@@__crt_stdio_output@@AAE_NXZ 1003b799 f i libucrt:output.obj
 0001:0003a7e5       ?state_case_flag@?$output_processor@_WV?$stream_output_adapter@_W@__crt_stdio_output@@V?$positional_parameter_base@_WV?$stream_output_adapter@_W@__crt_stdio_output@@@2@@__crt_stdio_output@@AAE_NXZ 1003b7e5 f i libucrt:output.obj
 0001:0003a831       ?state_case_flag@?$output_processor@_WV?$stream_output_adapter@_W@__crt_stdio_output@@V?$standard_base@_WV?$stream_output_adapter@_W@__crt_stdio_output@@@2@@__crt_stdio_output@@AAE_NXZ 1003b831 f i libucrt:output.obj
 0001:0003a87d       ?state_case_flag@?$output_processor@_WV?$string_output_adapter@_W@__crt_stdio_output@@V?$format_validation_base@_WV?$string_output_adapter@_W@__crt_stdio_output@@@2@@__crt_stdio_output@@AAE_NXZ 1003b87d f i libucrt:output.obj
 0001:0003a8c9       ?state_case_flag@?$output_processor@_WV?$string_output_adapter@_W@__crt_stdio_output@@V?$positional_parameter_base@_WV?$string_output_adapter@_W@__crt_stdio_output@@@2@@__crt_stdio_output@@AAE_NXZ 1003b8c9 f i libucrt:output.obj
 0001:0003a915       ?state_case_flag@?$output_processor@_WV?$string_output_adapter@_W@__crt_stdio_output@@V?$standard_base@_WV?$string_output_adapter@_W@__crt_stdio_output@@@2@@__crt_stdio_output@@AAE_NXZ 1003b915 f i libucrt:output.obj
 0001:0003a961       ?state_case_normal@?$output_processor@DV?$stream_output_adapter@D@__crt_stdio_output@@V?$format_validation_base@DV?$stream_output_adapter@D@__crt_stdio_output@@@2@@__crt_stdio_output@@AAE_NXZ 1003b961 f i libucrt:output.obj
 0001:0003a987       ?state_case_normal@?$output_processor@DV?$stream_output_adapter@D@__crt_stdio_output@@V?$positional_parameter_base@DV?$stream_output_adapter@D@__crt_stdio_output@@@2@@__crt_stdio_output@@AAE_NXZ 1003b987 f i libucrt:output.obj
 0001:0003a9c4       ?state_case_normal@?$output_processor@DV?$stream_output_adapter@D@__crt_stdio_output@@V?$standard_base@DV?$stream_output_adapter@D@__crt_stdio_output@@@2@@__crt_stdio_output@@AAE_NXZ 1003b9c4 f i libucrt:output.obj
 0001:0003a9ea       ?state_case_normal@?$output_processor@DV?$string_output_adapter@D@__crt_stdio_output@@V?$format_validation_base@DV?$string_output_adapter@D@__crt_stdio_output@@@2@@__crt_stdio_output@@AAE_NXZ 1003b9ea f i libucrt:output.obj
 0001:0003aa10       ?state_case_normal@?$output_processor@DV?$string_output_adapter@D@__crt_stdio_output@@V?$positional_parameter_base@DV?$string_output_adapter@D@__crt_stdio_output@@@2@@__crt_stdio_output@@AAE_NXZ 1003ba10 f i libucrt:output.obj
 0001:0003aa4d       ?state_case_normal@?$output_processor@DV?$string_output_adapter@D@__crt_stdio_output@@V?$standard_base@DV?$string_output_adapter@D@__crt_stdio_output@@@2@@__crt_stdio_output@@AAE_NXZ 1003ba4d f i libucrt:output.obj
 0001:0003aa73       ?state_case_normal@?$output_processor@_WV?$stream_output_adapter@_W@__crt_stdio_output@@V?$format_validation_base@_WV?$stream_output_adapter@_W@__crt_stdio_output@@@2@@__crt_stdio_output@@AAE_NXZ 1003ba73 f i libucrt:output.obj
 0001:0003aa99       ?state_case_normal@?$output_processor@_WV?$stream_output_adapter@_W@__crt_stdio_output@@V?$positional_parameter_base@_WV?$stream_output_adapter@_W@__crt_stdio_output@@@2@@__crt_stdio_output@@AAE_NXZ 1003ba99 f i libucrt:output.obj
 0001:0003aad6       ?state_case_normal@?$output_processor@_WV?$stream_output_adapter@_W@__crt_stdio_output@@V?$standard_base@_WV?$stream_output_adapter@_W@__crt_stdio_output@@@2@@__crt_stdio_output@@AAE_NXZ 1003bad6 f i libucrt:output.obj
 0001:0003aafc       ?state_case_normal@?$output_processor@_WV?$string_output_adapter@_W@__crt_stdio_output@@V?$format_validation_base@_WV?$string_output_adapter@_W@__crt_stdio_output@@@2@@__crt_stdio_output@@AAE_NXZ 1003bafc f i libucrt:output.obj
 0001:0003ab22       ?state_case_normal@?$output_processor@_WV?$string_output_adapter@_W@__crt_stdio_output@@V?$positional_parameter_base@_WV?$string_output_adapter@_W@__crt_stdio_output@@@2@@__crt_stdio_output@@AAE_NXZ 1003bb22 f i libucrt:output.obj
 0001:0003ab5f       ?state_case_normal@?$output_processor@_WV?$string_output_adapter@_W@__crt_stdio_output@@V?$standard_base@_WV?$string_output_adapter@_W@__crt_stdio_output@@@2@@__crt_stdio_output@@AAE_NXZ 1003bb5f f i libucrt:output.obj
 0001:0003ab85       ?state_case_normal_common@?$output_processor@DV?$stream_output_adapter@D@__crt_stdio_output@@V?$format_validation_base@DV?$stream_output_adapter@D@__crt_stdio_output@@@2@@__crt_stdio_output@@AAE_NXZ 1003bb85 f i libucrt:output.obj
 0001:0003abb9       ?state_case_normal_common@?$output_processor@DV?$stream_output_adapter@D@__crt_stdio_output@@V?$positional_parameter_base@DV?$stream_output_adapter@D@__crt_stdio_output@@@2@@__crt_stdio_output@@AAE_NXZ 1003bbb9 f i libucrt:output.obj
 0001:0003abed       ?state_case_normal_common@?$output_processor@DV?$stream_output_adapter@D@__crt_stdio_output@@V?$standard_base@DV?$stream_output_adapter@D@__crt_stdio_output@@@2@@__crt_stdio_output@@AAE_NXZ 1003bbed f i libucrt:output.obj
 0001:0003ac21       ?state_case_normal_common@?$output_processor@DV?$string_output_adapter@D@__crt_stdio_output@@V?$format_validation_base@DV?$string_output_adapter@D@__crt_stdio_output@@@2@@__crt_stdio_output@@AAE_NXZ 1003bc21 f i libucrt:output.obj
 0001:0003ac55       ?state_case_normal_common@?$output_processor@DV?$string_output_adapter@D@__crt_stdio_output@@V?$positional_parameter_base@DV?$string_output_adapter@D@__crt_stdio_output@@@2@@__crt_stdio_output@@AAE_NXZ 1003bc55 f i libucrt:output.obj
 0001:0003ac89       ?state_case_normal_common@?$output_processor@DV?$string_output_adapter@D@__crt_stdio_output@@V?$standard_base@DV?$string_output_adapter@D@__crt_stdio_output@@@2@@__crt_stdio_output@@AAE_NXZ 1003bc89 f i libucrt:output.obj
 0001:0003acbd       ?state_case_normal_common@?$output_processor@_WV?$stream_output_adapter@_W@__crt_stdio_output@@V?$format_validation_base@_WV?$stream_output_adapter@_W@__crt_stdio_output@@@2@@__crt_stdio_output@@AAE_NXZ 1003bcbd f i libucrt:output.obj
 0001:0003acde       ?state_case_normal_common@?$output_processor@_WV?$stream_output_adapter@_W@__crt_stdio_output@@V?$positional_parameter_base@_WV?$stream_output_adapter@_W@__crt_stdio_output@@@2@@__crt_stdio_output@@AAE_NXZ 1003bcde f i libucrt:output.obj
 0001:0003acff       ?state_case_normal_common@?$output_processor@_WV?$stream_output_adapter@_W@__crt_stdio_output@@V?$standard_base@_WV?$stream_output_adapter@_W@__crt_stdio_output@@@2@@__crt_stdio_output@@AAE_NXZ 1003bcff f i libucrt:output.obj
 0001:0003ad20       ?state_case_normal_common@?$output_processor@_WV?$string_output_adapter@_W@__crt_stdio_output@@V?$format_validation_base@_WV?$string_output_adapter@_W@__crt_stdio_output@@@2@@__crt_stdio_output@@AAE_NXZ 1003bd20 f i libucrt:output.obj
 0001:0003ad41       ?state_case_normal_common@?$output_processor@_WV?$string_output_adapter@_W@__crt_stdio_output@@V?$positional_parameter_base@_WV?$string_output_adapter@_W@__crt_stdio_output@@@2@@__crt_stdio_output@@AAE_NXZ 1003bd41 f i libucrt:output.obj
 0001:0003ad62       ?state_case_normal_common@?$output_processor@_WV?$string_output_adapter@_W@__crt_stdio_output@@V?$standard_base@_WV?$string_output_adapter@_W@__crt_stdio_output@@@2@@__crt_stdio_output@@AAE_NXZ 1003bd62 f i libucrt:output.obj
 0001:0003ad83       ?state_case_normal_tchar@?$output_processor@DV?$stream_output_adapter@D@__crt_stdio_output@@V?$format_validation_base@DV?$stream_output_adapter@D@__crt_stdio_output@@@2@@__crt_stdio_output@@AAE_ND@Z 1003bd83 f i libucrt:output.obj
 0001:0003adfc       ?state_case_normal_tchar@?$output_processor@DV?$stream_output_adapter@D@__crt_stdio_output@@V?$positional_parameter_base@DV?$stream_output_adapter@D@__crt_stdio_output@@@2@@__crt_stdio_output@@AAE_ND@Z 1003bdfc f i libucrt:output.obj
 0001:0003ae75       ?state_case_normal_tchar@?$output_processor@DV?$stream_output_adapter@D@__crt_stdio_output@@V?$standard_base@DV?$stream_output_adapter@D@__crt_stdio_output@@@2@@__crt_stdio_output@@AAE_ND@Z 1003be75 f i libucrt:output.obj
 0001:0003aeee       ?state_case_normal_tchar@?$output_processor@DV?$string_output_adapter@D@__crt_stdio_output@@V?$format_validation_base@DV?$string_output_adapter@D@__crt_stdio_output@@@2@@__crt_stdio_output@@AAE_ND@Z 1003beee f i libucrt:output.obj
 0001:0003af67       ?state_case_normal_tchar@?$output_processor@DV?$string_output_adapter@D@__crt_stdio_output@@V?$positional_parameter_base@DV?$string_output_adapter@D@__crt_stdio_output@@@2@@__crt_stdio_output@@AAE_ND@Z 1003bf67 f i libucrt:output.obj
 0001:0003afe0       ?state_case_normal_tchar@?$output_processor@DV?$string_output_adapter@D@__crt_stdio_output@@V?$standard_base@DV?$string_output_adapter@D@__crt_stdio_output@@@2@@__crt_stdio_output@@AAE_ND@Z 1003bfe0 f i libucrt:output.obj
 0001:0003b059       ?state_case_normal_tchar@?$output_processor@_WV?$stream_output_adapter@_W@__crt_stdio_output@@V?$format_validation_base@_WV?$stream_output_adapter@_W@__crt_stdio_output@@@2@@__crt_stdio_output@@AAE_N_W@Z 1003c059 f i libucrt:output.obj
 0001:0003b064       ?state_case_normal_tchar@?$output_processor@_WV?$stream_output_adapter@_W@__crt_stdio_output@@V?$positional_parameter_base@_WV?$stream_output_adapter@_W@__crt_stdio_output@@@2@@__crt_stdio_output@@AAE_N_W@Z 1003c064 f i libucrt:output.obj
 0001:0003b06f       ?state_case_normal_tchar@?$output_processor@_WV?$stream_output_adapter@_W@__crt_stdio_output@@V?$standard_base@_WV?$stream_output_adapter@_W@__crt_stdio_output@@@2@@__crt_stdio_output@@AAE_N_W@Z 1003c06f f i libucrt:output.obj
 0001:0003b07a       ?state_case_normal_tchar@?$output_processor@_WV?$string_output_adapter@_W@__crt_stdio_output@@V?$format_validation_base@_WV?$string_output_adapter@_W@__crt_stdio_output@@@2@@__crt_stdio_output@@AAE_N_W@Z 1003c07a f i libucrt:output.obj
 0001:0003b085       ?state_case_normal_tchar@?$output_processor@_WV?$string_output_adapter@_W@__crt_stdio_output@@V?$positional_parameter_base@_WV?$string_output_adapter@_W@__crt_stdio_output@@@2@@__crt_stdio_output@@AAE_N_W@Z 1003c085 f i libucrt:output.obj
 0001:0003b090       ?state_case_normal_tchar@?$output_processor@_WV?$string_output_adapter@_W@__crt_stdio_output@@V?$standard_base@_WV?$string_output_adapter@_W@__crt_stdio_output@@@2@@__crt_stdio_output@@AAE_N_W@Z 1003c090 f i libucrt:output.obj
 0001:0003b09b       ?state_case_percent@?$output_processor@DV?$stream_output_adapter@D@__crt_stdio_output@@V?$format_validation_base@DV?$stream_output_adapter@D@__crt_stdio_output@@@2@@__crt_stdio_output@@AAE_NXZ 1003c09b f i libucrt:output.obj
 0001:0003b0b9       ?state_case_percent@?$output_processor@DV?$stream_output_adapter@D@__crt_stdio_output@@V?$positional_parameter_base@DV?$stream_output_adapter@D@__crt_stdio_output@@@2@@__crt_stdio_output@@AAE_NXZ 1003c0b9 f i libucrt:output.obj
 0001:0003b0d7       ?state_case_percent@?$output_processor@DV?$stream_output_adapter@D@__crt_stdio_output@@V?$standard_base@DV?$stream_output_adapter@D@__crt_stdio_output@@@2@@__crt_stdio_output@@AAE_NXZ 1003c0d7 f i libucrt:output.obj
 0001:0003b0f5       ?state_case_percent@?$output_processor@DV?$string_output_adapter@D@__crt_stdio_output@@V?$format_validation_base@DV?$string_output_adapter@D@__crt_stdio_output@@@2@@__crt_stdio_output@@AAE_NXZ 1003c0f5 f i libucrt:output.obj
 0001:0003b113       ?state_case_percent@?$output_processor@DV?$string_output_adapter@D@__crt_stdio_output@@V?$positional_parameter_base@DV?$string_output_adapter@D@__crt_stdio_output@@@2@@__crt_stdio_output@@AAE_NXZ 1003c113 f i libucrt:output.obj
 0001:0003b131       ?state_case_percent@?$output_processor@DV?$string_output_adapter@D@__crt_stdio_output@@V?$standard_base@DV?$string_output_adapter@D@__crt_stdio_output@@@2@@__crt_stdio_output@@AAE_NXZ 1003c131 f i libucrt:output.obj
 0001:0003b14f       ?state_case_percent@?$output_processor@_WV?$stream_output_adapter@_W@__crt_stdio_output@@V?$format_validation_base@_WV?$stream_output_adapter@_W@__crt_stdio_output@@@2@@__crt_stdio_output@@AAE_NXZ 1003c14f f i libucrt:output.obj
 0001:0003b16d       ?state_case_percent@?$output_processor@_WV?$stream_output_adapter@_W@__crt_stdio_output@@V?$positional_parameter_base@_WV?$stream_output_adapter@_W@__crt_stdio_output@@@2@@__crt_stdio_output@@AAE_NXZ 1003c16d f i libucrt:output.obj
 0001:0003b18b       ?state_case_percent@?$output_processor@_WV?$stream_output_adapter@_W@__crt_stdio_output@@V?$standard_base@_WV?$stream_output_adapter@_W@__crt_stdio_output@@@2@@__crt_stdio_output@@AAE_NXZ 1003c18b f i libucrt:output.obj
 0001:0003b1a9       ?state_case_percent@?$output_processor@_WV?$string_output_adapter@_W@__crt_stdio_output@@V?$format_validation_base@_WV?$string_output_adapter@_W@__crt_stdio_output@@@2@@__crt_stdio_output@@AAE_NXZ 1003c1a9 f i libucrt:output.obj
 0001:0003b1c7       ?state_case_percent@?$output_processor@_WV?$string_output_adapter@_W@__crt_stdio_output@@V?$positional_parameter_base@_WV?$string_output_adapter@_W@__crt_stdio_output@@@2@@__crt_stdio_output@@AAE_NXZ 1003c1c7 f i libucrt:output.obj
 0001:0003b1e5       ?state_case_percent@?$output_processor@_WV?$string_output_adapter@_W@__crt_stdio_output@@V?$standard_base@_WV?$string_output_adapter@_W@__crt_stdio_output@@@2@@__crt_stdio_output@@AAE_NXZ 1003c1e5 f i libucrt:output.obj
 0001:0003b203       ?state_case_precision@?$output_processor@DV?$stream_output_adapter@D@__crt_stdio_output@@V?$format_validation_base@DV?$stream_output_adapter@D@__crt_stdio_output@@@2@@__crt_stdio_output@@AAE_NXZ 1003c203 f i libucrt:output.obj
 0001:0003b235       ?state_case_precision@?$output_processor@DV?$stream_output_adapter@D@__crt_stdio_output@@V?$positional_parameter_base@DV?$stream_output_adapter@D@__crt_stdio_output@@@2@@__crt_stdio_output@@AAE_NXZ 1003c235 f i libucrt:output.obj
 0001:0003b27d       ?state_case_precision@?$output_processor@DV?$stream_output_adapter@D@__crt_stdio_output@@V?$standard_base@DV?$stream_output_adapter@D@__crt_stdio_output@@@2@@__crt_stdio_output@@AAE_NXZ 1003c27d f i libucrt:output.obj
 0001:0003b2af       ?state_case_precision@?$output_processor@DV?$string_output_adapter@D@__crt_stdio_output@@V?$format_validation_base@DV?$string_output_adapter@D@__crt_stdio_output@@@2@@__crt_stdio_output@@AAE_NXZ 1003c2af f i libucrt:output.obj
 0001:0003b2e1       ?state_case_precision@?$output_processor@DV?$string_output_adapter@D@__crt_stdio_output@@V?$positional_parameter_base@DV?$string_output_adapter@D@__crt_stdio_output@@@2@@__crt_stdio_output@@AAE_NXZ 1003c2e1 f i libucrt:output.obj
 0001:0003b329       ?state_case_precision@?$output_processor@DV?$string_output_adapter@D@__crt_stdio_output@@V?$standard_base@DV?$string_output_adapter@D@__crt_stdio_output@@@2@@__crt_stdio_output@@AAE_NXZ 1003c329 f i libucrt:output.obj
 0001:0003b35b       ?state_case_precision@?$output_processor@_WV?$stream_output_adapter@_W@__crt_stdio_output@@V?$format_validation_base@_WV?$stream_output_adapter@_W@__crt_stdio_output@@@2@@__crt_stdio_output@@AAE_NXZ 1003c35b f i libucrt:output.obj
 0001:0003b38e       ?state_case_precision@?$output_processor@_WV?$stream_output_adapter@_W@__crt_stdio_output@@V?$positional_parameter_base@_WV?$stream_output_adapter@_W@__crt_stdio_output@@@2@@__crt_stdio_output@@AAE_NXZ 1003c38e f i libucrt:output.obj
 0001:0003b3d7       ?state_case_precision@?$output_processor@_WV?$stream_output_adapter@_W@__crt_stdio_output@@V?$standard_base@_WV?$stream_output_adapter@_W@__crt_stdio_output@@@2@@__crt_stdio_output@@AAE_NXZ 1003c3d7 f i libucrt:output.obj
 0001:0003b40a       ?state_case_precision@?$output_processor@_WV?$string_output_adapter@_W@__crt_stdio_output@@V?$format_validation_base@_WV?$string_output_adapter@_W@__crt_stdio_output@@@2@@__crt_stdio_output@@AAE_NXZ 1003c40a f i libucrt:output.obj
 0001:0003b43d       ?state_case_precision@?$output_processor@_WV?$string_output_adapter@_W@__crt_stdio_output@@V?$positional_parameter_base@_WV?$string_output_adapter@_W@__crt_stdio_output@@@2@@__crt_stdio_output@@AAE_NXZ 1003c43d f i libucrt:output.obj
 0001:0003b486       ?state_case_precision@?$output_processor@_WV?$string_output_adapter@_W@__crt_stdio_output@@V?$standard_base@_WV?$string_output_adapter@_W@__crt_stdio_output@@@2@@__crt_stdio_output@@AAE_NXZ 1003c486 f i libucrt:output.obj
 0001:0003b4b9       ?state_case_size@?$output_processor@DV?$stream_output_adapter@D@__crt_stdio_output@@V?$format_validation_base@DV?$stream_output_adapter@D@__crt_stdio_output@@@2@@__crt_stdio_output@@AAE_NXZ 1003c4b9 f i libucrt:output.obj
 0001:0003b67c       ?state_case_size@?$output_processor@DV?$stream_output_adapter@D@__crt_stdio_output@@V?$positional_parameter_base@DV?$stream_output_adapter@D@__crt_stdio_output@@@2@@__crt_stdio_output@@AAE_NXZ 1003c67c f i libucrt:output.obj
 0001:0003b83f       ?state_case_size@?$output_processor@DV?$stream_output_adapter@D@__crt_stdio_output@@V?$standard_base@DV?$stream_output_adapter@D@__crt_stdio_output@@@2@@__crt_stdio_output@@AAE_NXZ 1003c83f f i libucrt:output.obj
 0001:0003ba02       ?state_case_size@?$output_processor@DV?$string_output_adapter@D@__crt_stdio_output@@V?$format_validation_base@DV?$string_output_adapter@D@__crt_stdio_output@@@2@@__crt_stdio_output@@AAE_NXZ 1003ca02 f i libucrt:output.obj
 0001:0003bbc5       ?state_case_size@?$output_processor@DV?$string_output_adapter@D@__crt_stdio_output@@V?$positional_parameter_base@DV?$string_output_adapter@D@__crt_stdio_output@@@2@@__crt_stdio_output@@AAE_NXZ 1003cbc5 f i libucrt:output.obj
 0001:0003bd88       ?state_case_size@?$output_processor@DV?$string_output_adapter@D@__crt_stdio_output@@V?$standard_base@DV?$string_output_adapter@D@__crt_stdio_output@@@2@@__crt_stdio_output@@AAE_NXZ 1003cd88 f i libucrt:output.obj
 0001:0003bf4b       ?state_case_size@?$output_processor@_WV?$stream_output_adapter@_W@__crt_stdio_output@@V?$format_validation_base@_WV?$stream_output_adapter@_W@__crt_stdio_output@@@2@@__crt_stdio_output@@AAE_NXZ 1003cf4b f i libucrt:output.obj
 0001:0003c126       ?state_case_size@?$output_processor@_WV?$stream_output_adapter@_W@__crt_stdio_output@@V?$positional_parameter_base@_WV?$stream_output_adapter@_W@__crt_stdio_output@@@2@@__crt_stdio_output@@AAE_NXZ 1003d126 f i libucrt:output.obj
 0001:0003c301       ?state_case_size@?$output_processor@_WV?$stream_output_adapter@_W@__crt_stdio_output@@V?$standard_base@_WV?$stream_output_adapter@_W@__crt_stdio_output@@@2@@__crt_stdio_output@@AAE_NXZ 1003d301 f i libucrt:output.obj
 0001:0003c4dc       ?state_case_size@?$output_processor@_WV?$string_output_adapter@_W@__crt_stdio_output@@V?$format_validation_base@_WV?$string_output_adapter@_W@__crt_stdio_output@@@2@@__crt_stdio_output@@AAE_NXZ 1003d4dc f i libucrt:output.obj
 0001:0003c6b7       ?state_case_size@?$output_processor@_WV?$string_output_adapter@_W@__crt_stdio_output@@V?$positional_parameter_base@_WV?$string_output_adapter@_W@__crt_stdio_output@@@2@@__crt_stdio_output@@AAE_NXZ 1003d6b7 f i libucrt:output.obj
 0001:0003c892       ?state_case_size@?$output_processor@_WV?$string_output_adapter@_W@__crt_stdio_output@@V?$standard_base@_WV?$string_output_adapter@_W@__crt_stdio_output@@@2@@__crt_stdio_output@@AAE_NXZ 1003d892 f i libucrt:output.obj
 0001:0003ca6d       ?state_case_type@?$output_processor@DV?$stream_output_adapter@D@__crt_stdio_output@@V?$format_validation_base@DV?$stream_output_adapter@D@__crt_stdio_output@@@2@@__crt_stdio_output@@AAE_NXZ 1003da6d f i libucrt:output.obj
 0001:0003cd27       ?state_case_type@?$output_processor@DV?$stream_output_adapter@D@__crt_stdio_output@@V?$positional_parameter_base@DV?$stream_output_adapter@D@__crt_stdio_output@@@2@@__crt_stdio_output@@AAE_NXZ 1003dd27 f i libucrt:output.obj
 0001:0003cfef       ?state_case_type@?$output_processor@DV?$stream_output_adapter@D@__crt_stdio_output@@V?$standard_base@DV?$stream_output_adapter@D@__crt_stdio_output@@@2@@__crt_stdio_output@@AAE_NXZ 1003dfef f i libucrt:output.obj
 0001:0003d2a9       ?state_case_type@?$output_processor@DV?$string_output_adapter@D@__crt_stdio_output@@V?$format_validation_base@DV?$string_output_adapter@D@__crt_stdio_output@@@2@@__crt_stdio_output@@AAE_NXZ 1003e2a9 f i libucrt:output.obj
 0001:0003d563       ?state_case_type@?$output_processor@DV?$string_output_adapter@D@__crt_stdio_output@@V?$positional_parameter_base@DV?$string_output_adapter@D@__crt_stdio_output@@@2@@__crt_stdio_output@@AAE_NXZ 1003e563 f i libucrt:output.obj
 0001:0003d82b       ?state_case_type@?$output_processor@DV?$string_output_adapter@D@__crt_stdio_output@@V?$standard_base@DV?$string_output_adapter@D@__crt_stdio_output@@@2@@__crt_stdio_output@@AAE_NXZ 1003e82b f i libucrt:output.obj
 0001:0003dae5       ?state_case_type@?$output_processor@_WV?$stream_output_adapter@_W@__crt_stdio_output@@V?$format_validation_base@_WV?$stream_output_adapter@_W@__crt_stdio_output@@@2@@__crt_stdio_output@@AAE_NXZ 1003eae5 f i libucrt:output.obj
 0001:0003ddd9       ?state_case_type@?$output_processor@_WV?$stream_output_adapter@_W@__crt_stdio_output@@V?$positional_parameter_base@_WV?$stream_output_adapter@_W@__crt_stdio_output@@@2@@__crt_stdio_output@@AAE_NXZ 1003edd9 f i libucrt:output.obj
 0001:0003e0e0       ?state_case_type@?$output_processor@_WV?$stream_output_adapter@_W@__crt_stdio_output@@V?$standard_base@_WV?$stream_output_adapter@_W@__crt_stdio_output@@@2@@__crt_stdio_output@@AAE_NXZ 1003f0e0 f i libucrt:output.obj
 0001:0003e3d4       ?state_case_type@?$output_processor@_WV?$string_output_adapter@_W@__crt_stdio_output@@V?$format_validation_base@_WV?$string_output_adapter@_W@__crt_stdio_output@@@2@@__crt_stdio_output@@AAE_NXZ 1003f3d4 f i libucrt:output.obj
 0001:0003e6c8       ?state_case_type@?$output_processor@_WV?$string_output_adapter@_W@__crt_stdio_output@@V?$positional_parameter_base@_WV?$string_output_adapter@_W@__crt_stdio_output@@@2@@__crt_stdio_output@@AAE_NXZ 1003f6c8 f i libucrt:output.obj
 0001:0003e9cf       ?state_case_type@?$output_processor@_WV?$string_output_adapter@_W@__crt_stdio_output@@V?$standard_base@_WV?$string_output_adapter@_W@__crt_stdio_output@@@2@@__crt_stdio_output@@AAE_NXZ 1003f9cf f i libucrt:output.obj
 0001:0003ecc3       ?state_case_width@?$output_processor@DV?$stream_output_adapter@D@__crt_stdio_output@@V?$format_validation_base@DV?$stream_output_adapter@D@__crt_stdio_output@@@2@@__crt_stdio_output@@AAE_NXZ 1003fcc3 f i libucrt:output.obj
 0001:0003ecf8       ?state_case_width@?$output_processor@DV?$stream_output_adapter@D@__crt_stdio_output@@V?$positional_parameter_base@DV?$stream_output_adapter@D@__crt_stdio_output@@@2@@__crt_stdio_output@@AAE_NXZ 1003fcf8 f i libucrt:output.obj
 0001:0003ed48       ?state_case_width@?$output_processor@DV?$stream_output_adapter@D@__crt_stdio_output@@V?$standard_base@DV?$stream_output_adapter@D@__crt_stdio_output@@@2@@__crt_stdio_output@@AAE_NXZ 1003fd48 f i libucrt:output.obj
 0001:0003ed7d       ?state_case_width@?$output_processor@DV?$string_output_adapter@D@__crt_stdio_output@@V?$format_validation_base@DV?$string_output_adapter@D@__crt_stdio_output@@@2@@__crt_stdio_output@@AAE_NXZ 1003fd7d f i libucrt:output.obj
 0001:0003edb2       ?state_case_width@?$output_processor@DV?$string_output_adapter@D@__crt_stdio_output@@V?$positional_parameter_base@DV?$string_output_adapter@D@__crt_stdio_output@@@2@@__crt_stdio_output@@AAE_NXZ 1003fdb2 f i libucrt:output.obj
 0001:0003ee02       ?state_case_width@?$output_processor@DV?$string_output_adapter@D@__crt_stdio_output@@V?$standard_base@DV?$string_output_adapter@D@__crt_stdio_output@@@2@@__crt_stdio_output@@AAE_NXZ 1003fe02 f i libucrt:output.obj
 0001:0003ee37       ?state_case_width@?$output_processor@_WV?$stream_output_adapter@_W@__crt_stdio_output@@V?$format_validation_base@_WV?$stream_output_adapter@_W@__crt_stdio_output@@@2@@__crt_stdio_output@@AAE_NXZ 1003fe37 f i libucrt:output.obj
 0001:0003ee6e       ?state_case_width@?$output_processor@_WV?$stream_output_adapter@_W@__crt_stdio_output@@V?$positional_parameter_base@_WV?$stream_output_adapter@_W@__crt_stdio_output@@@2@@__crt_stdio_output@@AAE_NXZ 1003fe6e f i libucrt:output.obj
 0001:0003eebf       ?state_case_width@?$output_processor@_WV?$stream_output_adapter@_W@__crt_stdio_output@@V?$standard_base@_WV?$stream_output_adapter@_W@__crt_stdio_output@@@2@@__crt_stdio_output@@AAE_NXZ 1003febf f i libucrt:output.obj
 0001:0003eef6       ?state_case_width@?$output_processor@_WV?$string_output_adapter@_W@__crt_stdio_output@@V?$format_validation_base@_WV?$string_output_adapter@_W@__crt_stdio_output@@@2@@__crt_stdio_output@@AAE_NXZ 1003fef6 f i libucrt:output.obj
 0001:0003ef2d       ?state_case_width@?$output_processor@_WV?$string_output_adapter@_W@__crt_stdio_output@@V?$positional_parameter_base@_WV?$string_output_adapter@_W@__crt_stdio_output@@@2@@__crt_stdio_output@@AAE_NXZ 1003ff2d f i libucrt:output.obj
 0001:0003ef7e       ?state_case_width@?$output_processor@_WV?$string_output_adapter@_W@__crt_stdio_output@@V?$standard_base@_WV?$string_output_adapter@_W@__crt_stdio_output@@@2@@__crt_stdio_output@@AAE_NXZ 1003ff7e f i libucrt:output.obj
 0001:0003efb5       ?state_count@?$format_validation_base@DV?$stream_output_adapter@D@__crt_stdio_output@@@__crt_stdio_output@@KAIXZ 1003ffb5 f i libucrt:output.obj
 0001:0003efb9       ?state_count@?$format_validation_base@DV?$string_output_adapter@D@__crt_stdio_output@@@__crt_stdio_output@@KAIXZ 1003ffb9 f i libucrt:output.obj
 0001:0003efbd       ?state_count@?$format_validation_base@_WV?$stream_output_adapter@_W@__crt_stdio_output@@@__crt_stdio_output@@KAIXZ 1003ffbd f i libucrt:output.obj
 0001:0003efc1       ?state_count@?$format_validation_base@_WV?$string_output_adapter@_W@__crt_stdio_output@@@__crt_stdio_output@@KAIXZ 1003ffc1 f i libucrt:output.obj
 0001:0003efc5       ?state_count@?$standard_base@DV?$stream_output_adapter@D@__crt_stdio_output@@@__crt_stdio_output@@KAIXZ 1003ffc5 f i libucrt:output.obj
 0001:0003efc9       ?state_count@?$standard_base@DV?$string_output_adapter@D@__crt_stdio_output@@@__crt_stdio_output@@KAIXZ 1003ffc9 f i libucrt:output.obj
 0001:0003efcd       ?state_count@?$standard_base@_WV?$stream_output_adapter@_W@__crt_stdio_output@@@__crt_stdio_output@@KAIXZ 1003ffcd f i libucrt:output.obj
 0001:0003efd1       ?state_count@?$standard_base@_WV?$string_output_adapter@_W@__crt_stdio_output@@@__crt_stdio_output@@KAIXZ 1003ffd1 f i libucrt:output.obj
 0001:0003efd5       ?state_transition_table@?$format_validation_base@DV?$stream_output_adapter@D@__crt_stdio_output@@@__crt_stdio_output@@KAPBEXZ 1003ffd5 f i libucrt:output.obj
 0001:0003efdb       ?state_transition_table@?$format_validation_base@DV?$string_output_adapter@D@__crt_stdio_output@@@__crt_stdio_output@@KAPBEXZ 1003ffdb f i libucrt:output.obj
 0001:0003efe1       ?state_transition_table@?$format_validation_base@_WV?$stream_output_adapter@_W@__crt_stdio_output@@@__crt_stdio_output@@KAPBEXZ 1003ffe1 f i libucrt:output.obj
 0001:0003efe7       ?state_transition_table@?$format_validation_base@_WV?$string_output_adapter@_W@__crt_stdio_output@@@__crt_stdio_output@@KAPBEXZ 1003ffe7 f i libucrt:output.obj
 0001:0003efed       ?state_transition_table@?$standard_base@DV?$stream_output_adapter@D@__crt_stdio_output@@@__crt_stdio_output@@KAPBEXZ 1003ffed f i libucrt:output.obj
 0001:0003eff3       ?state_transition_table@?$standard_base@DV?$string_output_adapter@D@__crt_stdio_output@@@__crt_stdio_output@@KAPBEXZ 1003fff3 f i libucrt:output.obj
 0001:0003eff9       ?state_transition_table@?$standard_base@_WV?$stream_output_adapter@_W@__crt_stdio_output@@@__crt_stdio_output@@KAPBEXZ 1003fff9 f i libucrt:output.obj
 0001:0003efff       ?state_transition_table@?$standard_base@_WV?$string_output_adapter@_W@__crt_stdio_output@@@__crt_stdio_output@@KAPBEXZ 1003ffff f i libucrt:output.obj
 0001:0003f005       ?to_integer_size@__crt_stdio_output@@YAIW4length_modifier@1@@Z 10040005 f i libucrt:output.obj
 0001:0003f078       ?type_case_X@?$output_processor@DV?$stream_output_adapter@D@__crt_stdio_output@@V?$format_validation_base@DV?$stream_output_adapter@D@__crt_stdio_output@@@2@@__crt_stdio_output@@AAE_NXZ 10040078 f i libucrt:output.obj
 0001:0003f084       ?type_case_X@?$output_processor@DV?$stream_output_adapter@D@__crt_stdio_output@@V?$positional_parameter_base@DV?$stream_output_adapter@D@__crt_stdio_output@@@2@@__crt_stdio_output@@AAE_NXZ 10040084 f i libucrt:output.obj
 0001:0003f090       ?type_case_X@?$output_processor@DV?$stream_output_adapter@D@__crt_stdio_output@@V?$standard_base@DV?$stream_output_adapter@D@__crt_stdio_output@@@2@@__crt_stdio_output@@AAE_NXZ 10040090 f i libucrt:output.obj
 0001:0003f09c       ?type_case_X@?$output_processor@DV?$string_output_adapter@D@__crt_stdio_output@@V?$format_validation_base@DV?$string_output_adapter@D@__crt_stdio_output@@@2@@__crt_stdio_output@@AAE_NXZ 1004009c f i libucrt:output.obj
 0001:0003f0a8       ?type_case_X@?$output_processor@DV?$string_output_adapter@D@__crt_stdio_output@@V?$positional_parameter_base@DV?$string_output_adapter@D@__crt_stdio_output@@@2@@__crt_stdio_output@@AAE_NXZ 100400a8 f i libucrt:output.obj
 0001:0003f0b4       ?type_case_X@?$output_processor@DV?$string_output_adapter@D@__crt_stdio_output@@V?$standard_base@DV?$string_output_adapter@D@__crt_stdio_output@@@2@@__crt_stdio_output@@AAE_NXZ 100400b4 f i libucrt:output.obj
 0001:0003f0c0       ?type_case_X@?$output_processor@_WV?$stream_output_adapter@_W@__crt_stdio_output@@V?$format_validation_base@_WV?$stream_output_adapter@_W@__crt_stdio_output@@@2@@__crt_stdio_output@@AAE_NXZ 100400c0 f i libucrt:output.obj
 0001:0003f0cc       ?type_case_X@?$output_processor@_WV?$stream_output_adapter@_W@__crt_stdio_output@@V?$positional_parameter_base@_WV?$stream_output_adapter@_W@__crt_stdio_output@@@2@@__crt_stdio_output@@AAE_NXZ 100400cc f i libucrt:output.obj
 0001:0003f0d8       ?type_case_X@?$output_processor@_WV?$stream_output_adapter@_W@__crt_stdio_output@@V?$standard_base@_WV?$stream_output_adapter@_W@__crt_stdio_output@@@2@@__crt_stdio_output@@AAE_NXZ 100400d8 f i libucrt:output.obj
 0001:0003f0e4       ?type_case_X@?$output_processor@_WV?$string_output_adapter@_W@__crt_stdio_output@@V?$format_validation_base@_WV?$string_output_adapter@_W@__crt_stdio_output@@@2@@__crt_stdio_output@@AAE_NXZ 100400e4 f i libucrt:output.obj
 0001:0003f0f0       ?type_case_X@?$output_processor@_WV?$string_output_adapter@_W@__crt_stdio_output@@V?$positional_parameter_base@_WV?$string_output_adapter@_W@__crt_stdio_output@@@2@@__crt_stdio_output@@AAE_NXZ 100400f0 f i libucrt:output.obj
 0001:0003f0fc       ?type_case_X@?$output_processor@_WV?$string_output_adapter@_W@__crt_stdio_output@@V?$standard_base@_WV?$string_output_adapter@_W@__crt_stdio_output@@@2@@__crt_stdio_output@@AAE_NXZ 100400fc f i libucrt:output.obj
 0001:0003f108       ?type_case_Z@?$output_processor@DV?$stream_output_adapter@D@__crt_stdio_output@@V?$format_validation_base@DV?$stream_output_adapter@D@__crt_stdio_output@@@2@@__crt_stdio_output@@AAE_NXZ 10040108 f i libucrt:output.obj
 0001:0003f183       ?type_case_Z@?$output_processor@DV?$stream_output_adapter@D@__crt_stdio_output@@V?$positional_parameter_base@DV?$stream_output_adapter@D@__crt_stdio_output@@@2@@__crt_stdio_output@@AAE_NXZ 10040183 f i libucrt:output.obj
 0001:0003f221       ?type_case_Z@?$output_processor@DV?$stream_output_adapter@D@__crt_stdio_output@@V?$standard_base@DV?$stream_output_adapter@D@__crt_stdio_output@@@2@@__crt_stdio_output@@AAE_NXZ 10040221 f i libucrt:output.obj
 0001:0003f29c       ?type_case_Z@?$output_processor@DV?$string_output_adapter@D@__crt_stdio_output@@V?$format_validation_base@DV?$string_output_adapter@D@__crt_stdio_output@@@2@@__crt_stdio_output@@AAE_NXZ 1004029c f i libucrt:output.obj
 0001:0003f317       ?type_case_Z@?$output_processor@DV?$string_output_adapter@D@__crt_stdio_output@@V?$positional_parameter_base@DV?$string_output_adapter@D@__crt_stdio_output@@@2@@__crt_stdio_output@@AAE_NXZ 10040317 f i libucrt:output.obj
 0001:0003f3b5       ?type_case_Z@?$output_processor@DV?$string_output_adapter@D@__crt_stdio_output@@V?$standard_base@DV?$string_output_adapter@D@__crt_stdio_output@@@2@@__crt_stdio_output@@AAE_NXZ 100403b5 f i libucrt:output.obj
 0001:0003f430       ?type_case_Z@?$output_processor@_WV?$stream_output_adapter@_W@__crt_stdio_output@@V?$format_validation_base@_WV?$stream_output_adapter@_W@__crt_stdio_output@@@2@@__crt_stdio_output@@AAE_NXZ 10040430 f i libucrt:output.obj
 0001:0003f4ab       ?type_case_Z@?$output_processor@_WV?$stream_output_adapter@_W@__crt_stdio_output@@V?$positional_parameter_base@_WV?$stream_output_adapter@_W@__crt_stdio_output@@@2@@__crt_stdio_output@@AAE_NXZ 100404ab f i libucrt:output.obj
 0001:0003f549       ?type_case_Z@?$output_processor@_WV?$stream_output_adapter@_W@__crt_stdio_output@@V?$standard_base@_WV?$stream_output_adapter@_W@__crt_stdio_output@@@2@@__crt_stdio_output@@AAE_NXZ 10040549 f i libucrt:output.obj
 0001:0003f5c4       ?type_case_Z@?$output_processor@_WV?$string_output_adapter@_W@__crt_stdio_output@@V?$format_validation_base@_WV?$string_output_adapter@_W@__crt_stdio_output@@@2@@__crt_stdio_output@@AAE_NXZ 100405c4 f i libucrt:output.obj
 0001:0003f63f       ?type_case_Z@?$output_processor@_WV?$string_output_adapter@_W@__crt_stdio_output@@V?$positional_parameter_base@_WV?$string_output_adapter@_W@__crt_stdio_output@@@2@@__crt_stdio_output@@AAE_NXZ 1004063f f i libucrt:output.obj
 0001:0003f6dd       ?type_case_Z@?$output_processor@_WV?$string_output_adapter@_W@__crt_stdio_output@@V?$standard_base@_WV?$string_output_adapter@_W@__crt_stdio_output@@@2@@__crt_stdio_output@@AAE_NXZ 100406dd f i libucrt:output.obj
 0001:0003f758       ?type_case_a@?$output_processor@DV?$stream_output_adapter@D@__crt_stdio_output@@V?$format_validation_base@DV?$stream_output_adapter@D@__crt_stdio_output@@@2@@__crt_stdio_output@@AAE_NXZ 10040758 f i libucrt:output.obj
 0001:0003f908       ?type_case_a@?$output_processor@DV?$stream_output_adapter@D@__crt_stdio_output@@V?$positional_parameter_base@DV?$stream_output_adapter@D@__crt_stdio_output@@@2@@__crt_stdio_output@@AAE_NXZ 10040908 f i libucrt:output.obj
 0001:0003fadf       ?type_case_a@?$output_processor@DV?$stream_output_adapter@D@__crt_stdio_output@@V?$standard_base@DV?$stream_output_adapter@D@__crt_stdio_output@@@2@@__crt_stdio_output@@AAE_NXZ 10040adf f i libucrt:output.obj
 0001:0003fc8f       ?type_case_a@?$output_processor@DV?$string_output_adapter@D@__crt_stdio_output@@V?$format_validation_base@DV?$string_output_adapter@D@__crt_stdio_output@@@2@@__crt_stdio_output@@AAE_NXZ 10040c8f f i libucrt:output.obj
 0001:0003fe3f       ?type_case_a@?$output_processor@DV?$string_output_adapter@D@__crt_stdio_output@@V?$positional_parameter_base@DV?$string_output_adapter@D@__crt_stdio_output@@@2@@__crt_stdio_output@@AAE_NXZ 10040e3f f i libucrt:output.obj
 0001:00040016       ?type_case_a@?$output_processor@DV?$string_output_adapter@D@__crt_stdio_output@@V?$standard_base@DV?$string_output_adapter@D@__crt_stdio_output@@@2@@__crt_stdio_output@@AAE_NXZ 10041016 f i libucrt:output.obj
 0001:000401c6       ?type_case_a@?$output_processor@_WV?$stream_output_adapter@_W@__crt_stdio_output@@V?$format_validation_base@_WV?$stream_output_adapter@_W@__crt_stdio_output@@@2@@__crt_stdio_output@@AAE_NXZ 100411c6 f i libucrt:output.obj
 0001:00040394       ?type_case_a@?$output_processor@_WV?$stream_output_adapter@_W@__crt_stdio_output@@V?$positional_parameter_base@_WV?$stream_output_adapter@_W@__crt_stdio_output@@@2@@__crt_stdio_output@@AAE_NXZ 10041394 f i libucrt:output.obj
 0001:00040589       ?type_case_a@?$output_processor@_WV?$stream_output_adapter@_W@__crt_stdio_output@@V?$standard_base@_WV?$stream_output_adapter@_W@__crt_stdio_output@@@2@@__crt_stdio_output@@AAE_NXZ 10041589 f i libucrt:output.obj
 0001:00040757       ?type_case_a@?$output_processor@_WV?$string_output_adapter@_W@__crt_stdio_output@@V?$format_validation_base@_WV?$string_output_adapter@_W@__crt_stdio_output@@@2@@__crt_stdio_output@@AAE_NXZ 10041757 f i libucrt:output.obj
 0001:00040925       ?type_case_a@?$output_processor@_WV?$string_output_adapter@_W@__crt_stdio_output@@V?$positional_parameter_base@_WV?$string_output_adapter@_W@__crt_stdio_output@@@2@@__crt_stdio_output@@AAE_NXZ 10041925 f i libucrt:output.obj
 0001:00040b1a       ?type_case_a@?$output_processor@_WV?$string_output_adapter@_W@__crt_stdio_output@@V?$standard_base@_WV?$string_output_adapter@_W@__crt_stdio_output@@@2@@__crt_stdio_output@@AAE_NXZ 10041b1a f i libucrt:output.obj
 0001:00040ce8       ?type_case_c@?$output_processor@DV?$stream_output_adapter@D@__crt_stdio_output@@V?$format_validation_base@DV?$stream_output_adapter@D@__crt_stdio_output@@@2@@__crt_stdio_output@@AAE_NXZ 10041ce8 f i libucrt:output.obj
 0001:00040cf2       ?type_case_c@?$output_processor@DV?$stream_output_adapter@D@__crt_stdio_output@@V?$positional_parameter_base@DV?$stream_output_adapter@D@__crt_stdio_output@@@2@@__crt_stdio_output@@AAE_NXZ 10041cf2 f i libucrt:output.obj
 0001:00040cfc       ?type_case_c@?$output_processor@DV?$stream_output_adapter@D@__crt_stdio_output@@V?$standard_base@DV?$stream_output_adapter@D@__crt_stdio_output@@@2@@__crt_stdio_output@@AAE_NXZ 10041cfc f i libucrt:output.obj
 0001:00040d06       ?type_case_c@?$output_processor@DV?$string_output_adapter@D@__crt_stdio_output@@V?$format_validation_base@DV?$string_output_adapter@D@__crt_stdio_output@@@2@@__crt_stdio_output@@AAE_NXZ 10041d06 f i libucrt:output.obj
 0001:00040d10       ?type_case_c@?$output_processor@DV?$string_output_adapter@D@__crt_stdio_output@@V?$positional_parameter_base@DV?$string_output_adapter@D@__crt_stdio_output@@@2@@__crt_stdio_output@@AAE_NXZ 10041d10 f i libucrt:output.obj
 0001:00040d1a       ?type_case_c@?$output_processor@DV?$string_output_adapter@D@__crt_stdio_output@@V?$standard_base@DV?$string_output_adapter@D@__crt_stdio_output@@@2@@__crt_stdio_output@@AAE_NXZ 10041d1a f i libucrt:output.obj
 0001:00040d24       ?type_case_c@?$output_processor@_WV?$stream_output_adapter@_W@__crt_stdio_output@@V?$format_validation_base@_WV?$stream_output_adapter@_W@__crt_stdio_output@@@2@@__crt_stdio_output@@AAE_NXZ 10041d24 f i libucrt:output.obj
 0001:00040d2e       ?type_case_c@?$output_processor@_WV?$stream_output_adapter@_W@__crt_stdio_output@@V?$positional_parameter_base@_WV?$stream_output_adapter@_W@__crt_stdio_output@@@2@@__crt_stdio_output@@AAE_NXZ 10041d2e f i libucrt:output.obj
 0001:00040d38       ?type_case_c@?$output_processor@_WV?$stream_output_adapter@_W@__crt_stdio_output@@V?$standard_base@_WV?$stream_output_adapter@_W@__crt_stdio_output@@@2@@__crt_stdio_output@@AAE_NXZ 10041d38 f i libucrt:output.obj
 0001:00040d42       ?type_case_c@?$output_processor@_WV?$string_output_adapter@_W@__crt_stdio_output@@V?$format_validation_base@_WV?$string_output_adapter@_W@__crt_stdio_output@@@2@@__crt_stdio_output@@AAE_NXZ 10041d42 f i libucrt:output.obj
 0001:00040d4c       ?type_case_c@?$output_processor@_WV?$string_output_adapter@_W@__crt_stdio_output@@V?$positional_parameter_base@_WV?$string_output_adapter@_W@__crt_stdio_output@@@2@@__crt_stdio_output@@AAE_NXZ 10041d4c f i libucrt:output.obj
 0001:00040d56       ?type_case_c@?$output_processor@_WV?$string_output_adapter@_W@__crt_stdio_output@@V?$standard_base@_WV?$string_output_adapter@_W@__crt_stdio_output@@@2@@__crt_stdio_output@@AAE_NXZ 10041d56 f i libucrt:output.obj
 0001:00040d60       ?type_case_c_tchar@?$output_processor@DV?$stream_output_adapter@D@__crt_stdio_output@@V?$format_validation_base@DV?$stream_output_adapter@D@__crt_stdio_output@@@2@@__crt_stdio_output@@AAE_ND@Z 10041d60 f i libucrt:output.obj
 0001:00040e14       ?type_case_c_tchar@?$output_processor@DV?$stream_output_adapter@D@__crt_stdio_output@@V?$positional_parameter_base@DV?$stream_output_adapter@D@__crt_stdio_output@@@2@@__crt_stdio_output@@AAE_ND@Z 10041e14 f i libucrt:output.obj
 0001:00040f04       ?type_case_c_tchar@?$output_processor@DV?$stream_output_adapter@D@__crt_stdio_output@@V?$standard_base@DV?$stream_output_adapter@D@__crt_stdio_output@@@2@@__crt_stdio_output@@AAE_ND@Z 10041f04 f i libucrt:output.obj
 0001:00040fb8       ?type_case_c_tchar@?$output_processor@DV?$string_output_adapter@D@__crt_stdio_output@@V?$format_validation_base@DV?$string_output_adapter@D@__crt_stdio_output@@@2@@__crt_stdio_output@@AAE_ND@Z 10041fb8 f i libucrt:output.obj
 0001:0004106c       ?type_case_c_tchar@?$output_processor@DV?$string_output_adapter@D@__crt_stdio_output@@V?$positional_parameter_base@DV?$string_output_adapter@D@__crt_stdio_output@@@2@@__crt_stdio_output@@AAE_ND@Z 1004206c f i libucrt:output.obj
 0001:0004115c       ?type_case_c_tchar@?$output_processor@DV?$string_output_adapter@D@__crt_stdio_output@@V?$standard_base@DV?$string_output_adapter@D@__crt_stdio_output@@@2@@__crt_stdio_output@@AAE_ND@Z 1004215c f i libucrt:output.obj
 0001:00041210       ?type_case_c_tchar@?$output_processor@_WV?$stream_output_adapter@_W@__crt_stdio_output@@V?$format_validation_base@_WV?$stream_output_adapter@_W@__crt_stdio_output@@@2@@__crt_stdio_output@@AAE_N_W@Z 10042210 f i libucrt:output.obj
 0001:000412ce       ?type_case_c_tchar@?$output_processor@_WV?$stream_output_adapter@_W@__crt_stdio_output@@V?$positional_parameter_base@_WV?$stream_output_adapter@_W@__crt_stdio_output@@@2@@__crt_stdio_output@@AAE_N_W@Z 100422ce f i libucrt:output.obj
 0001:000413a8       ?type_case_c_tchar@?$output_processor@_WV?$stream_output_adapter@_W@__crt_stdio_output@@V?$standard_base@_WV?$stream_output_adapter@_W@__crt_stdio_output@@@2@@__crt_stdio_output@@AAE_N_W@Z 100423a8 f i libucrt:output.obj
 0001:00041466       ?type_case_c_tchar@?$output_processor@_WV?$string_output_adapter@_W@__crt_stdio_output@@V?$format_validation_base@_WV?$string_output_adapter@_W@__crt_stdio_output@@@2@@__crt_stdio_output@@AAE_N_W@Z 10042466 f i libucrt:output.obj
 0001:00041524       ?type_case_c_tchar@?$output_processor@_WV?$string_output_adapter@_W@__crt_stdio_output@@V?$positional_parameter_base@_WV?$string_output_adapter@_W@__crt_stdio_output@@@2@@__crt_stdio_output@@AAE_N_W@Z 10042524 f i libucrt:output.obj
 0001:000415fe       ?type_case_c_tchar@?$output_processor@_WV?$string_output_adapter@_W@__crt_stdio_output@@V?$standard_base@_WV?$string_output_adapter@_W@__crt_stdio_output@@@2@@__crt_stdio_output@@AAE_N_W@Z 100425fe f i libucrt:output.obj
 0001:000416bc       ?type_case_d@?$output_processor@DV?$stream_output_adapter@D@__crt_stdio_output@@V?$format_validation_base@DV?$stream_output_adapter@D@__crt_stdio_output@@@2@@__crt_stdio_output@@AAE_NXZ 100426bc f i libucrt:output.obj
 0001:000416cd       ?type_case_d@?$output_processor@DV?$stream_output_adapter@D@__crt_stdio_output@@V?$positional_parameter_base@DV?$stream_output_adapter@D@__crt_stdio_output@@@2@@__crt_stdio_output@@AAE_NXZ 100426cd f i libucrt:output.obj
 0001:000416de       ?type_case_d@?$output_processor@DV?$stream_output_adapter@D@__crt_stdio_output@@V?$standard_base@DV?$stream_output_adapter@D@__crt_stdio_output@@@2@@__crt_stdio_output@@AAE_NXZ 100426de f i libucrt:output.obj
 0001:000416ef       ?type_case_d@?$output_processor@DV?$string_output_adapter@D@__crt_stdio_output@@V?$format_validation_base@DV?$string_output_adapter@D@__crt_stdio_output@@@2@@__crt_stdio_output@@AAE_NXZ 100426ef f i libucrt:output.obj
 0001:00041700       ?type_case_d@?$output_processor@DV?$string_output_adapter@D@__crt_stdio_output@@V?$positional_parameter_base@DV?$string_output_adapter@D@__crt_stdio_output@@@2@@__crt_stdio_output@@AAE_NXZ 10042700 f i libucrt:output.obj
 0001:00041711       ?type_case_d@?$output_processor@DV?$string_output_adapter@D@__crt_stdio_output@@V?$standard_base@DV?$string_output_adapter@D@__crt_stdio_output@@@2@@__crt_stdio_output@@AAE_NXZ 10042711 f i libucrt:output.obj
 0001:00041722       ?type_case_d@?$output_processor@_WV?$stream_output_adapter@_W@__crt_stdio_output@@V?$format_validation_base@_WV?$stream_output_adapter@_W@__crt_stdio_output@@@2@@__crt_stdio_output@@AAE_NXZ 10042722 f i libucrt:output.obj
 0001:00041733       ?type_case_d@?$output_processor@_WV?$stream_output_adapter@_W@__crt_stdio_output@@V?$positional_parameter_base@_WV?$stream_output_adapter@_W@__crt_stdio_output@@@2@@__crt_stdio_output@@AAE_NXZ 10042733 f i libucrt:output.obj
 0001:00041744       ?type_case_d@?$output_processor@_WV?$stream_output_adapter@_W@__crt_stdio_output@@V?$standard_base@_WV?$stream_output_adapter@_W@__crt_stdio_output@@@2@@__crt_stdio_output@@AAE_NXZ 10042744 f i libucrt:output.obj
 0001:00041755       ?type_case_d@?$output_processor@_WV?$string_output_adapter@_W@__crt_stdio_output@@V?$format_validation_base@_WV?$string_output_adapter@_W@__crt_stdio_output@@@2@@__crt_stdio_output@@AAE_NXZ 10042755 f i libucrt:output.obj
 0001:00041766       ?type_case_d@?$output_processor@_WV?$string_output_adapter@_W@__crt_stdio_output@@V?$positional_parameter_base@_WV?$string_output_adapter@_W@__crt_stdio_output@@@2@@__crt_stdio_output@@AAE_NXZ 10042766 f i libucrt:output.obj
 0001:00041777       ?type_case_d@?$output_processor@_WV?$string_output_adapter@_W@__crt_stdio_output@@V?$standard_base@_WV?$string_output_adapter@_W@__crt_stdio_output@@@2@@__crt_stdio_output@@AAE_NXZ 10042777 f i libucrt:output.obj
 0001:00041788       ?type_case_integer@?$output_processor@DV?$stream_output_adapter@D@__crt_stdio_output@@V?$format_validation_base@DV?$stream_output_adapter@D@__crt_stdio_output@@@2@@__crt_stdio_output@@AAE_NI_N@Z 10042788 f i libucrt:output.obj
 0001:00041924       ?type_case_integer@?$output_processor@DV?$stream_output_adapter@D@__crt_stdio_output@@V?$positional_parameter_base@DV?$stream_output_adapter@D@__crt_stdio_output@@@2@@__crt_stdio_output@@AAE_NI_N@Z 10042924 f i libucrt:output.obj
 0001:00041b01       ?type_case_integer@?$output_processor@DV?$stream_output_adapter@D@__crt_stdio_output@@V?$standard_base@DV?$stream_output_adapter@D@__crt_stdio_output@@@2@@__crt_stdio_output@@AAE_NI_N@Z 10042b01 f i libucrt:output.obj
 0001:00041c9d       ?type_case_integer@?$output_processor@DV?$string_output_adapter@D@__crt_stdio_output@@V?$format_validation_base@DV?$string_output_adapter@D@__crt_stdio_output@@@2@@__crt_stdio_output@@AAE_NI_N@Z 10042c9d f i libucrt:output.obj
 0001:00041e39       ?type_case_integer@?$output_processor@DV?$string_output_adapter@D@__crt_stdio_output@@V?$positional_parameter_base@DV?$string_output_adapter@D@__crt_stdio_output@@@2@@__crt_stdio_output@@AAE_NI_N@Z 10042e39 f i libucrt:output.obj
 0001:00042016       ?type_case_integer@?$output_processor@DV?$string_output_adapter@D@__crt_stdio_output@@V?$standard_base@DV?$string_output_adapter@D@__crt_stdio_output@@@2@@__crt_stdio_output@@AAE_NI_N@Z 10043016 f i libucrt:output.obj
 0001:000421b2       ?type_case_integer@?$output_processor@_WV?$stream_output_adapter@_W@__crt_stdio_output@@V?$format_validation_base@_WV?$stream_output_adapter@_W@__crt_stdio_output@@@2@@__crt_stdio_output@@AAE_NI_N@Z 100431b2 f i libucrt:output.obj
 0001:0004234e       ?type_case_integer@?$output_processor@_WV?$stream_output_adapter@_W@__crt_stdio_output@@V?$positional_parameter_base@_WV?$stream_output_adapter@_W@__crt_stdio_output@@@2@@__crt_stdio_output@@AAE_NI_N@Z 1004334e f i libucrt:output.obj
 0001:0004252b       ?type_case_integer@?$output_processor@_WV?$stream_output_adapter@_W@__crt_stdio_output@@V?$standard_base@_WV?$stream_output_adapter@_W@__crt_stdio_output@@@2@@__crt_stdio_output@@AAE_NI_N@Z 1004352b f i libucrt:output.obj
 0001:000426c7       ?type_case_integer@?$output_processor@_WV?$string_output_adapter@_W@__crt_stdio_output@@V?$format_validation_base@_WV?$string_output_adapter@_W@__crt_stdio_output@@@2@@__crt_stdio_output@@AAE_NI_N@Z 100436c7 f i libucrt:output.obj
 0001:00042863       ?type_case_integer@?$output_processor@_WV?$string_output_adapter@_W@__crt_stdio_output@@V?$positional_parameter_base@_WV?$string_output_adapter@_W@__crt_stdio_output@@@2@@__crt_stdio_output@@AAE_NI_N@Z 10043863 f i libucrt:output.obj
 0001:00042a40       ?type_case_integer@?$output_processor@_WV?$string_output_adapter@_W@__crt_stdio_output@@V?$standard_base@_WV?$string_output_adapter@_W@__crt_stdio_output@@@2@@__crt_stdio_output@@AAE_NI_N@Z 10043a40 f i libucrt:output.obj
 0001:00042bdc       ?type_case_n@?$output_processor@DV?$stream_output_adapter@D@__crt_stdio_output@@V?$format_validation_base@DV?$stream_output_adapter@D@__crt_stdio_output@@@2@@__crt_stdio_output@@AAE_NXZ 10043bdc f i libucrt:output.obj
 0001:00042c6d       ?type_case_n@?$output_processor@DV?$stream_output_adapter@D@__crt_stdio_output@@V?$positional_parameter_base@DV?$stream_output_adapter@D@__crt_stdio_output@@@2@@__crt_stdio_output@@AAE_NXZ 10043c6d f i libucrt:output.obj
 0001:00042d2c       ?type_case_n@?$output_processor@DV?$stream_output_adapter@D@__crt_stdio_output@@V?$standard_base@DV?$stream_output_adapter@D@__crt_stdio_output@@@2@@__crt_stdio_output@@AAE_NXZ 10043d2c f i libucrt:output.obj
 0001:00042dbd       ?type_case_n@?$output_processor@DV?$string_output_adapter@D@__crt_stdio_output@@V?$format_validation_base@DV?$string_output_adapter@D@__crt_stdio_output@@@2@@__crt_stdio_output@@AAE_NXZ 10043dbd f i libucrt:output.obj
 0001:00042e4e       ?type_case_n@?$output_processor@DV?$string_output_adapter@D@__crt_stdio_output@@V?$positional_parameter_base@DV?$string_output_adapter@D@__crt_stdio_output@@@2@@__crt_stdio_output@@AAE_NXZ 10043e4e f i libucrt:output.obj
 0001:00042f0d       ?type_case_n@?$output_processor@DV?$string_output_adapter@D@__crt_stdio_output@@V?$standard_base@DV?$string_output_adapter@D@__crt_stdio_output@@@2@@__crt_stdio_output@@AAE_NXZ 10043f0d f i libucrt:output.obj
 0001:00042f9e       ?type_case_n@?$output_processor@_WV?$stream_output_adapter@_W@__crt_stdio_output@@V?$format_validation_base@_WV?$stream_output_adapter@_W@__crt_stdio_output@@@2@@__crt_stdio_output@@AAE_NXZ 10043f9e f i libucrt:output.obj
 0001:0004302f       ?type_case_n@?$output_processor@_WV?$stream_output_adapter@_W@__crt_stdio_output@@V?$positional_parameter_base@_WV?$stream_output_adapter@_W@__crt_stdio_output@@@2@@__crt_stdio_output@@AAE_NXZ 1004402f f i libucrt:output.obj
 0001:000430ee       ?type_case_n@?$output_processor@_WV?$stream_output_adapter@_W@__crt_stdio_output@@V?$standard_base@_WV?$stream_output_adapter@_W@__crt_stdio_output@@@2@@__crt_stdio_output@@AAE_NXZ 100440ee f i libucrt:output.obj
 0001:0004317f       ?type_case_n@?$output_processor@_WV?$string_output_adapter@_W@__crt_stdio_output@@V?$format_validation_base@_WV?$string_output_adapter@_W@__crt_stdio_output@@@2@@__crt_stdio_output@@AAE_NXZ 1004417f f i libucrt:output.obj
 0001:00043210       ?type_case_n@?$output_processor@_WV?$string_output_adapter@_W@__crt_stdio_output@@V?$positional_parameter_base@_WV?$string_output_adapter@_W@__crt_stdio_output@@@2@@__crt_stdio_output@@AAE_NXZ 10044210 f i libucrt:output.obj
 0001:000432cf       ?type_case_n@?$output_processor@_WV?$string_output_adapter@_W@__crt_stdio_output@@V?$standard_base@_WV?$string_output_adapter@_W@__crt_stdio_output@@@2@@__crt_stdio_output@@AAE_NXZ 100442cf f i libucrt:output.obj
 0001:00043360       ?type_case_o@?$output_processor@DV?$stream_output_adapter@D@__crt_stdio_output@@V?$format_validation_base@DV?$stream_output_adapter@D@__crt_stdio_output@@@2@@__crt_stdio_output@@AAE_NXZ 10044360 f i libucrt:output.obj
 0001:00043386       ?type_case_o@?$output_processor@DV?$stream_output_adapter@D@__crt_stdio_output@@V?$positional_parameter_base@DV?$stream_output_adapter@D@__crt_stdio_output@@@2@@__crt_stdio_output@@AAE_NXZ 10044386 f i libucrt:output.obj
 0001:000433ac       ?type_case_o@?$output_processor@DV?$stream_output_adapter@D@__crt_stdio_output@@V?$standard_base@DV?$stream_output_adapter@D@__crt_stdio_output@@@2@@__crt_stdio_output@@AAE_NXZ 100443ac f i libucrt:output.obj
 0001:000433d2       ?type_case_o@?$output_processor@DV?$string_output_adapter@D@__crt_stdio_output@@V?$format_validation_base@DV?$string_output_adapter@D@__crt_stdio_output@@@2@@__crt_stdio_output@@AAE_NXZ 100443d2 f i libucrt:output.obj
 0001:000433f8       ?type_case_o@?$output_processor@DV?$string_output_adapter@D@__crt_stdio_output@@V?$positional_parameter_base@DV?$string_output_adapter@D@__crt_stdio_output@@@2@@__crt_stdio_output@@AAE_NXZ 100443f8 f i libucrt:output.obj
 0001:0004341e       ?type_case_o@?$output_processor@DV?$string_output_adapter@D@__crt_stdio_output@@V?$standard_base@DV?$string_output_adapter@D@__crt_stdio_output@@@2@@__crt_stdio_output@@AAE_NXZ 1004441e f i libucrt:output.obj
 0001:00043444       ?type_case_o@?$output_processor@_WV?$stream_output_adapter@_W@__crt_stdio_output@@V?$format_validation_base@_WV?$stream_output_adapter@_W@__crt_stdio_output@@@2@@__crt_stdio_output@@AAE_NXZ 10044444 f i libucrt:output.obj
 0001:0004346a       ?type_case_o@?$output_processor@_WV?$stream_output_adapter@_W@__crt_stdio_output@@V?$positional_parameter_base@_WV?$stream_output_adapter@_W@__crt_stdio_output@@@2@@__crt_stdio_output@@AAE_NXZ 1004446a f i libucrt:output.obj
 0001:00043490       ?type_case_o@?$output_processor@_WV?$stream_output_adapter@_W@__crt_stdio_output@@V?$standard_base@_WV?$stream_output_adapter@_W@__crt_stdio_output@@@2@@__crt_stdio_output@@AAE_NXZ 10044490 f i libucrt:output.obj
 0001:000434b6       ?type_case_o@?$output_processor@_WV?$string_output_adapter@_W@__crt_stdio_output@@V?$format_validation_base@_WV?$string_output_adapter@_W@__crt_stdio_output@@@2@@__crt_stdio_output@@AAE_NXZ 100444b6 f i libucrt:output.obj
 0001:000434dc       ?type_case_o@?$output_processor@_WV?$string_output_adapter@_W@__crt_stdio_output@@V?$positional_parameter_base@_WV?$string_output_adapter@_W@__crt_stdio_output@@@2@@__crt_stdio_output@@AAE_NXZ 100444dc f i libucrt:output.obj
 0001:00043502       ?type_case_o@?$output_processor@_WV?$string_output_adapter@_W@__crt_stdio_output@@V?$standard_base@_WV?$string_output_adapter@_W@__crt_stdio_output@@@2@@__crt_stdio_output@@AAE_NXZ 10044502 f i libucrt:output.obj
 0001:00043528       ?type_case_p@?$output_processor@DV?$stream_output_adapter@D@__crt_stdio_output@@V?$format_validation_base@DV?$stream_output_adapter@D@__crt_stdio_output@@@2@@__crt_stdio_output@@AAE_NXZ 10044528 f i libucrt:output.obj
 0001:00043546       ?type_case_p@?$output_processor@DV?$stream_output_adapter@D@__crt_stdio_output@@V?$positional_parameter_base@DV?$stream_output_adapter@D@__crt_stdio_output@@@2@@__crt_stdio_output@@AAE_NXZ 10044546 f i libucrt:output.obj
 0001:00043564       ?type_case_p@?$output_processor@DV?$stream_output_adapter@D@__crt_stdio_output@@V?$standard_base@DV?$stream_output_adapter@D@__crt_stdio_output@@@2@@__crt_stdio_output@@AAE_NXZ 10044564 f i libucrt:output.obj
 0001:00043582       ?type_case_p@?$output_processor@DV?$string_output_adapter@D@__crt_stdio_output@@V?$format_validation_base@DV?$string_output_adapter@D@__crt_stdio_output@@@2@@__crt_stdio_output@@AAE_NXZ 10044582 f i libucrt:output.obj
 0001:000435a0       ?type_case_p@?$output_processor@DV?$string_output_adapter@D@__crt_stdio_output@@V?$positional_parameter_base@DV?$string_output_adapter@D@__crt_stdio_output@@@2@@__crt_stdio_output@@AAE_NXZ 100445a0 f i libucrt:output.obj
 0001:000435be       ?type_case_p@?$output_processor@DV?$string_output_adapter@D@__crt_stdio_output@@V?$standard_base@DV?$string_output_adapter@D@__crt_stdio_output@@@2@@__crt_stdio_output@@AAE_NXZ 100445be f i libucrt:output.obj
 0001:000435dc       ?type_case_p@?$output_processor@_WV?$stream_output_adapter@_W@__crt_stdio_output@@V?$format_validation_base@_WV?$stream_output_adapter@_W@__crt_stdio_output@@@2@@__crt_stdio_output@@AAE_NXZ 100445dc f i libucrt:output.obj
 0001:000435fa       ?type_case_p@?$output_processor@_WV?$stream_output_adapter@_W@__crt_stdio_output@@V?$positional_parameter_base@_WV?$stream_output_adapter@_W@__crt_stdio_output@@@2@@__crt_stdio_output@@AAE_NXZ 100445fa f i libucrt:output.obj
 0001:00043618       ?type_case_p@?$output_processor@_WV?$stream_output_adapter@_W@__crt_stdio_output@@V?$standard_base@_WV?$stream_output_adapter@_W@__crt_stdio_output@@@2@@__crt_stdio_output@@AAE_NXZ 10044618 f i libucrt:output.obj
 0001:00043636       ?type_case_p@?$output_processor@_WV?$string_output_adapter@_W@__crt_stdio_output@@V?$format_validation_base@_WV?$string_output_adapter@_W@__crt_stdio_output@@@2@@__crt_stdio_output@@AAE_NXZ 10044636 f i libucrt:output.obj
 0001:00043654       ?type_case_p@?$output_processor@_WV?$string_output_adapter@_W@__crt_stdio_output@@V?$positional_parameter_base@_WV?$string_output_adapter@_W@__crt_stdio_output@@@2@@__crt_stdio_output@@AAE_NXZ 10044654 f i libucrt:output.obj
 0001:00043672       ?type_case_p@?$output_processor@_WV?$string_output_adapter@_W@__crt_stdio_output@@V?$standard_base@_WV?$string_output_adapter@_W@__crt_stdio_output@@@2@@__crt_stdio_output@@AAE_NXZ 10044672 f i libucrt:output.obj
 0001:00043690       ?type_case_s@?$output_processor@DV?$stream_output_adapter@D@__crt_stdio_output@@V?$format_validation_base@DV?$stream_output_adapter@D@__crt_stdio_output@@@2@@__crt_stdio_output@@AAE_NXZ 10044690 f i libucrt:output.obj
 0001:0004371f       ?type_case_s@?$output_processor@DV?$stream_output_adapter@D@__crt_stdio_output@@V?$positional_parameter_base@DV?$stream_output_adapter@D@__crt_stdio_output@@@2@@__crt_stdio_output@@AAE_NXZ 1004471f f i libucrt:output.obj
 0001:000437ba       ?type_case_s@?$output_processor@DV?$stream_output_adapter@D@__crt_stdio_output@@V?$standard_base@DV?$stream_output_adapter@D@__crt_stdio_output@@@2@@__crt_stdio_output@@AAE_NXZ 100447ba f i libucrt:output.obj
 0001:00043849       ?type_case_s@?$output_processor@DV?$string_output_adapter@D@__crt_stdio_output@@V?$format_validation_base@DV?$string_output_adapter@D@__crt_stdio_output@@@2@@__crt_stdio_output@@AAE_NXZ 10044849 f i libucrt:output.obj
 0001:000438d8       ?type_case_s@?$output_processor@DV?$string_output_adapter@D@__crt_stdio_output@@V?$positional_parameter_base@DV?$string_output_adapter@D@__crt_stdio_output@@@2@@__crt_stdio_output@@AAE_NXZ 100448d8 f i libucrt:output.obj
 0001:00043973       ?type_case_s@?$output_processor@DV?$string_output_adapter@D@__crt_stdio_output@@V?$standard_base@DV?$string_output_adapter@D@__crt_stdio_output@@@2@@__crt_stdio_output@@AAE_NXZ 10044973 f i libucrt:output.obj
 0001:00043a02       ?type_case_s@?$output_processor@_WV?$stream_output_adapter@_W@__crt_stdio_output@@V?$format_validation_base@_WV?$stream_output_adapter@_W@__crt_stdio_output@@@2@@__crt_stdio_output@@AAE_NXZ 10044a02 f i libucrt:output.obj
 0001:00043a93       ?type_case_s@?$output_processor@_WV?$stream_output_adapter@_W@__crt_stdio_output@@V?$positional_parameter_base@_WV?$stream_output_adapter@_W@__crt_stdio_output@@@2@@__crt_stdio_output@@AAE_NXZ 10044a93 f i libucrt:output.obj
 0001:00043b30       ?type_case_s@?$output_processor@_WV?$stream_output_adapter@_W@__crt_stdio_output@@V?$standard_base@_WV?$stream_output_adapter@_W@__crt_stdio_output@@@2@@__crt_stdio_output@@AAE_NXZ 10044b30 f i libucrt:output.obj
 0001:00043bc1       ?type_case_s@?$output_processor@_WV?$string_output_adapter@_W@__crt_stdio_output@@V?$format_validation_base@_WV?$string_output_adapter@_W@__crt_stdio_output@@@2@@__crt_stdio_output@@AAE_NXZ 10044bc1 f i libucrt:output.obj
 0001:00043c52       ?type_case_s@?$output_processor@_WV?$string_output_adapter@_W@__crt_stdio_output@@V?$positional_parameter_base@_WV?$string_output_adapter@_W@__crt_stdio_output@@@2@@__crt_stdio_output@@AAE_NXZ 10044c52 f i libucrt:output.obj
 0001:00043cef       ?type_case_s@?$output_processor@_WV?$string_output_adapter@_W@__crt_stdio_output@@V?$standard_base@_WV?$string_output_adapter@_W@__crt_stdio_output@@@2@@__crt_stdio_output@@AAE_NXZ 10044cef f i libucrt:output.obj
 0001:00043d80       ?type_case_s_compute_narrow_string_length@?$output_processor@DV?$stream_output_adapter@D@__crt_stdio_output@@V?$format_validation_base@DV?$stream_output_adapter@D@__crt_stdio_output@@@2@@__crt_stdio_output@@ABEHHD@Z 10044d80 f i libucrt:output.obj
 0001:00043d9b       ?type_case_s_compute_narrow_string_length@?$output_processor@DV?$stream_output_adapter@D@__crt_stdio_output@@V?$positional_parameter_base@DV?$stream_output_adapter@D@__crt_stdio_output@@@2@@__crt_stdio_output@@ABEHHD@Z 10044d9b f i libucrt:output.obj
 0001:00043db6       ?type_case_s_compute_narrow_string_length@?$output_processor@DV?$stream_output_adapter@D@__crt_stdio_output@@V?$standard_base@DV?$stream_output_adapter@D@__crt_stdio_output@@@2@@__crt_stdio_output@@ABEHHD@Z 10044db6 f i libucrt:output.obj
 0001:00043dd1       ?type_case_s_compute_narrow_string_length@?$output_processor@DV?$string_output_adapter@D@__crt_stdio_output@@V?$format_validation_base@DV?$string_output_adapter@D@__crt_stdio_output@@@2@@__crt_stdio_output@@ABEHHD@Z 10044dd1 f i libucrt:output.obj
 0001:00043dec       ?type_case_s_compute_narrow_string_length@?$output_processor@DV?$string_output_adapter@D@__crt_stdio_output@@V?$positional_parameter_base@DV?$string_output_adapter@D@__crt_stdio_output@@@2@@__crt_stdio_output@@ABEHHD@Z 10044dec f i libucrt:output.obj
 0001:00043e07       ?type_case_s_compute_narrow_string_length@?$output_processor@DV?$string_output_adapter@D@__crt_stdio_output@@V?$standard_base@DV?$string_output_adapter@D@__crt_stdio_output@@@2@@__crt_stdio_output@@ABEHHD@Z 10044e07 f i libucrt:output.obj
 0001:00043e22       ?type_case_s_compute_narrow_string_length@?$output_processor@_WV?$stream_output_adapter@_W@__crt_stdio_output@@V?$format_validation_base@_WV?$stream_output_adapter@_W@__crt_stdio_output@@@2@@__crt_stdio_output@@ABEHH_W@Z 10044e22 f i libucrt:output.obj
 0001:00043e72       ?type_case_s_compute_narrow_string_length@?$output_processor@_WV?$stream_output_adapter@_W@__crt_stdio_output@@V?$positional_parameter_base@_WV?$stream_output_adapter@_W@__crt_stdio_output@@@2@@__crt_stdio_output@@ABEHH_W@Z 10044e72 f i libucrt:output.obj
 0001:00043ec2       ?type_case_s_compute_narrow_string_length@?$output_processor@_WV?$stream_output_adapter@_W@__crt_stdio_output@@V?$standard_base@_WV?$stream_output_adapter@_W@__crt_stdio_output@@@2@@__crt_stdio_output@@ABEHH_W@Z 10044ec2 f i libucrt:output.obj
 0001:00043f12       ?type_case_s_compute_narrow_string_length@?$output_processor@_WV?$string_output_adapter@_W@__crt_stdio_output@@V?$format_validation_base@_WV?$string_output_adapter@_W@__crt_stdio_output@@@2@@__crt_stdio_output@@ABEHH_W@Z 10044f12 f i libucrt:output.obj
 0001:00043f62       ?type_case_s_compute_narrow_string_length@?$output_processor@_WV?$string_output_adapter@_W@__crt_stdio_output@@V?$positional_parameter_base@_WV?$string_output_adapter@_W@__crt_stdio_output@@@2@@__crt_stdio_output@@ABEHH_W@Z 10044f62 f i libucrt:output.obj
 0001:00043fb2       ?type_case_s_compute_narrow_string_length@?$output_processor@_WV?$string_output_adapter@_W@__crt_stdio_output@@V?$standard_base@_WV?$string_output_adapter@_W@__crt_stdio_output@@@2@@__crt_stdio_output@@ABEHH_W@Z 10044fb2 f i libucrt:output.obj
 0001:00044002       ?type_case_u@?$output_processor@DV?$stream_output_adapter@D@__crt_stdio_output@@V?$format_validation_base@DV?$stream_output_adapter@D@__crt_stdio_output@@@2@@__crt_stdio_output@@AAE_NXZ 10045002 f i libucrt:output.obj
 0001:0004400e       ?type_case_u@?$output_processor@DV?$stream_output_adapter@D@__crt_stdio_output@@V?$positional_parameter_base@DV?$stream_output_adapter@D@__crt_stdio_output@@@2@@__crt_stdio_output@@AAE_NXZ 1004500e f i libucrt:output.obj
 0001:0004401a       ?type_case_u@?$output_processor@DV?$stream_output_adapter@D@__crt_stdio_output@@V?$standard_base@DV?$stream_output_adapter@D@__crt_stdio_output@@@2@@__crt_stdio_output@@AAE_NXZ 1004501a f i libucrt:output.obj
 0001:00044026       ?type_case_u@?$output_processor@DV?$string_output_adapter@D@__crt_stdio_output@@V?$format_validation_base@DV?$string_output_adapter@D@__crt_stdio_output@@@2@@__crt_stdio_output@@AAE_NXZ 10045026 f i libucrt:output.obj
 0001:00044032       ?type_case_u@?$output_processor@DV?$string_output_adapter@D@__crt_stdio_output@@V?$positional_parameter_base@DV?$string_output_adapter@D@__crt_stdio_output@@@2@@__crt_stdio_output@@AAE_NXZ 10045032 f i libucrt:output.obj
 0001:0004403e       ?type_case_u@?$output_processor@DV?$string_output_adapter@D@__crt_stdio_output@@V?$standard_base@DV?$string_output_adapter@D@__crt_stdio_output@@@2@@__crt_stdio_output@@AAE_NXZ 1004503e f i libucrt:output.obj
 0001:0004404a       ?type_case_u@?$output_processor@_WV?$stream_output_adapter@_W@__crt_stdio_output@@V?$format_validation_base@_WV?$stream_output_adapter@_W@__crt_stdio_output@@@2@@__crt_stdio_output@@AAE_NXZ 1004504a f i libucrt:output.obj
 0001:00044056       ?type_case_u@?$output_processor@_WV?$stream_output_adapter@_W@__crt_stdio_output@@V?$positional_parameter_base@_WV?$stream_output_adapter@_W@__crt_stdio_output@@@2@@__crt_stdio_output@@AAE_NXZ 10045056 f i libucrt:output.obj
 0001:00044062       ?type_case_u@?$output_processor@_WV?$stream_output_adapter@_W@__crt_stdio_output@@V?$standard_base@_WV?$stream_output_adapter@_W@__crt_stdio_output@@@2@@__crt_stdio_output@@AAE_NXZ 10045062 f i libucrt:output.obj
 0001:0004406e       ?type_case_u@?$output_processor@_WV?$string_output_adapter@_W@__crt_stdio_output@@V?$format_validation_base@_WV?$string_output_adapter@_W@__crt_stdio_output@@@2@@__crt_stdio_output@@AAE_NXZ 1004506e f i libucrt:output.obj
 0001:0004407a       ?type_case_u@?$output_processor@_WV?$string_output_adapter@_W@__crt_stdio_output@@V?$positional_parameter_base@_WV?$string_output_adapter@_W@__crt_stdio_output@@@2@@__crt_stdio_output@@AAE_NXZ 1004507a f i libucrt:output.obj
 0001:00044086       ?type_case_u@?$output_processor@_WV?$string_output_adapter@_W@__crt_stdio_output@@V?$standard_base@_WV?$string_output_adapter@_W@__crt_stdio_output@@@2@@__crt_stdio_output@@AAE_NXZ 10045086 f i libucrt:output.obj
 0001:00044092       ?type_case_x@?$output_processor@DV?$stream_output_adapter@D@__crt_stdio_output@@V?$format_validation_base@DV?$stream_output_adapter@D@__crt_stdio_output@@@2@@__crt_stdio_output@@AAE_NXZ 10045092 f i libucrt:output.obj
 0001:0004409e       ?type_case_x@?$output_processor@DV?$stream_output_adapter@D@__crt_stdio_output@@V?$positional_parameter_base@DV?$stream_output_adapter@D@__crt_stdio_output@@@2@@__crt_stdio_output@@AAE_NXZ 1004509e f i libucrt:output.obj
 0001:000440aa       ?type_case_x@?$output_processor@DV?$stream_output_adapter@D@__crt_stdio_output@@V?$standard_base@DV?$stream_output_adapter@D@__crt_stdio_output@@@2@@__crt_stdio_output@@AAE_NXZ 100450aa f i libucrt:output.obj
 0001:000440b6       ?type_case_x@?$output_processor@DV?$string_output_adapter@D@__crt_stdio_output@@V?$format_validation_base@DV?$string_output_adapter@D@__crt_stdio_output@@@2@@__crt_stdio_output@@AAE_NXZ 100450b6 f i libucrt:output.obj
 0001:000440c2       ?type_case_x@?$output_processor@DV?$string_output_adapter@D@__crt_stdio_output@@V?$positional_parameter_base@DV?$string_output_adapter@D@__crt_stdio_output@@@2@@__crt_stdio_output@@AAE_NXZ 100450c2 f i libucrt:output.obj
 0001:000440ce       ?type_case_x@?$output_processor@DV?$string_output_adapter@D@__crt_stdio_output@@V?$standard_base@DV?$string_output_adapter@D@__crt_stdio_output@@@2@@__crt_stdio_output@@AAE_NXZ 100450ce f i libucrt:output.obj
 0001:000440da       ?type_case_x@?$output_processor@_WV?$stream_output_adapter@_W@__crt_stdio_output@@V?$format_validation_base@_WV?$stream_output_adapter@_W@__crt_stdio_output@@@2@@__crt_stdio_output@@AAE_NXZ 100450da f i libucrt:output.obj
 0001:000440e6       ?type_case_x@?$output_processor@_WV?$stream_output_adapter@_W@__crt_stdio_output@@V?$positional_parameter_base@_WV?$stream_output_adapter@_W@__crt_stdio_output@@@2@@__crt_stdio_output@@AAE_NXZ 100450e6 f i libucrt:output.obj
 0001:000440f2       ?type_case_x@?$output_processor@_WV?$stream_output_adapter@_W@__crt_stdio_output@@V?$standard_base@_WV?$stream_output_adapter@_W@__crt_stdio_output@@@2@@__crt_stdio_output@@AAE_NXZ 100450f2 f i libucrt:output.obj
 0001:000440fe       ?type_case_x@?$output_processor@_WV?$string_output_adapter@_W@__crt_stdio_output@@V?$format_validation_base@_WV?$string_output_adapter@_W@__crt_stdio_output@@@2@@__crt_stdio_output@@AAE_NXZ 100450fe f i libucrt:output.obj
 0001:0004410a       ?type_case_x@?$output_processor@_WV?$string_output_adapter@_W@__crt_stdio_output@@V?$positional_parameter_base@_WV?$string_output_adapter@_W@__crt_stdio_output@@@2@@__crt_stdio_output@@AAE_NXZ 1004510a f i libucrt:output.obj
 0001:00044116       ?type_case_x@?$output_processor@_WV?$string_output_adapter@_W@__crt_stdio_output@@V?$standard_base@_WV?$string_output_adapter@_W@__crt_stdio_output@@@2@@__crt_stdio_output@@AAE_NXZ 10045116 f i libucrt:output.obj
 0001:00044122       ?unset_flag@?$output_processor@DV?$stream_output_adapter@D@__crt_stdio_output@@V?$format_validation_base@DV?$stream_output_adapter@D@__crt_stdio_output@@@2@@__crt_stdio_output@@AAEXI@Z 10045122 f i libucrt:output.obj
 0001:00044137       ?unset_flag@?$output_processor@DV?$stream_output_adapter@D@__crt_stdio_output@@V?$positional_parameter_base@DV?$stream_output_adapter@D@__crt_stdio_output@@@2@@__crt_stdio_output@@AAEXI@Z 10045137 f i libucrt:output.obj
 0001:0004414c       ?unset_flag@?$output_processor@DV?$stream_output_adapter@D@__crt_stdio_output@@V?$standard_base@DV?$stream_output_adapter@D@__crt_stdio_output@@@2@@__crt_stdio_output@@AAEXI@Z 1004514c f i libucrt:output.obj
 0001:00044161       ?unset_flag@?$output_processor@DV?$string_output_adapter@D@__crt_stdio_output@@V?$format_validation_base@DV?$string_output_adapter@D@__crt_stdio_output@@@2@@__crt_stdio_output@@AAEXI@Z 10045161 f i libucrt:output.obj
 0001:00044176       ?unset_flag@?$output_processor@DV?$string_output_adapter@D@__crt_stdio_output@@V?$positional_parameter_base@DV?$string_output_adapter@D@__crt_stdio_output@@@2@@__crt_stdio_output@@AAEXI@Z 10045176 f i libucrt:output.obj
 0001:0004418b       ?unset_flag@?$output_processor@DV?$string_output_adapter@D@__crt_stdio_output@@V?$standard_base@DV?$string_output_adapter@D@__crt_stdio_output@@@2@@__crt_stdio_output@@AAEXI@Z 1004518b f i libucrt:output.obj
 0001:000441a0       ?unset_flag@?$output_processor@_WV?$stream_output_adapter@_W@__crt_stdio_output@@V?$format_validation_base@_WV?$stream_output_adapter@_W@__crt_stdio_output@@@2@@__crt_stdio_output@@AAEXI@Z 100451a0 f i libucrt:output.obj
 0001:000441b5       ?unset_flag@?$output_processor@_WV?$stream_output_adapter@_W@__crt_stdio_output@@V?$positional_parameter_base@_WV?$stream_output_adapter@_W@__crt_stdio_output@@@2@@__crt_stdio_output@@AAEXI@Z 100451b5 f i libucrt:output.obj
 0001:000441ca       ?unset_flag@?$output_processor@_WV?$stream_output_adapter@_W@__crt_stdio_output@@V?$standard_base@_WV?$stream_output_adapter@_W@__crt_stdio_output@@@2@@__crt_stdio_output@@AAEXI@Z 100451ca f i libucrt:output.obj
 0001:000441df       ?unset_flag@?$output_processor@_WV?$string_output_adapter@_W@__crt_stdio_output@@V?$format_validation_base@_WV?$string_output_adapter@_W@__crt_stdio_output@@@2@@__crt_stdio_output@@AAEXI@Z 100451df f i libucrt:output.obj
 0001:000441f4       ?unset_flag@?$output_processor@_WV?$string_output_adapter@_W@__crt_stdio_output@@V?$positional_parameter_base@_WV?$string_output_adapter@_W@__crt_stdio_output@@@2@@__crt_stdio_output@@AAEXI@Z 100451f4 f i libucrt:output.obj
 0001:00044209       ?unset_flag@?$output_processor@_WV?$string_output_adapter@_W@__crt_stdio_output@@V?$standard_base@_WV?$string_output_adapter@_W@__crt_stdio_output@@@2@@__crt_stdio_output@@AAEXI@Z 10045209 f i libucrt:output.obj
 0001:0004421e       ?update_field_width@?$positional_parameter_base@DV?$stream_output_adapter@D@__crt_stdio_output@@@__crt_stdio_output@@IAE_NXZ 1004521e f i libucrt:output.obj
 0001:00044301       ?update_field_width@?$positional_parameter_base@DV?$string_output_adapter@D@__crt_stdio_output@@@__crt_stdio_output@@IAE_NXZ 10045301 f i libucrt:output.obj
 0001:000443e4       ?update_field_width@?$positional_parameter_base@_WV?$stream_output_adapter@_W@__crt_stdio_output@@@__crt_stdio_output@@IAE_NXZ 100453e4 f i libucrt:output.obj
 0001:000444c8       ?update_field_width@?$positional_parameter_base@_WV?$string_output_adapter@_W@__crt_stdio_output@@@__crt_stdio_output@@IAE_NXZ 100454c8 f i libucrt:output.obj
 0001:000445ac       ?update_field_width@?$standard_base@DV?$stream_output_adapter@D@__crt_stdio_output@@@__crt_stdio_output@@IAE_NXZ 100455ac f i libucrt:output.obj
 0001:000445c0       ?update_field_width@?$standard_base@DV?$string_output_adapter@D@__crt_stdio_output@@@__crt_stdio_output@@IAE_NXZ 100455c0 f i libucrt:output.obj
 0001:000445d4       ?update_field_width@?$standard_base@_WV?$stream_output_adapter@_W@__crt_stdio_output@@@__crt_stdio_output@@IAE_NXZ 100455d4 f i libucrt:output.obj
 0001:000445e8       ?update_field_width@?$standard_base@_WV?$string_output_adapter@_W@__crt_stdio_output@@@__crt_stdio_output@@IAE_NXZ 100455e8 f i libucrt:output.obj
 0001:000445fc       ?update_precision@?$positional_parameter_base@DV?$stream_output_adapter@D@__crt_stdio_output@@@__crt_stdio_output@@IAE_NXZ 100455fc f i libucrt:output.obj
 0001:000446df       ?update_precision@?$positional_parameter_base@DV?$string_output_adapter@D@__crt_stdio_output@@@__crt_stdio_output@@IAE_NXZ 100456df f i libucrt:output.obj
 0001:000447c2       ?update_precision@?$positional_parameter_base@_WV?$stream_output_adapter@_W@__crt_stdio_output@@@__crt_stdio_output@@IAE_NXZ 100457c2 f i libucrt:output.obj
 0001:000448a6       ?update_precision@?$positional_parameter_base@_WV?$string_output_adapter@_W@__crt_stdio_output@@@__crt_stdio_output@@IAE_NXZ 100458a6 f i libucrt:output.obj
 0001:0004498a       ?update_precision@?$standard_base@DV?$stream_output_adapter@D@__crt_stdio_output@@@__crt_stdio_output@@IAE_NXZ 1004598a f i libucrt:output.obj
 0001:0004499e       ?update_precision@?$standard_base@DV?$string_output_adapter@D@__crt_stdio_output@@@__crt_stdio_output@@IAE_NXZ 1004599e f i libucrt:output.obj
 0001:000449b2       ?update_precision@?$standard_base@_WV?$stream_output_adapter@_W@__crt_stdio_output@@@__crt_stdio_output@@IAE_NXZ 100459b2 f i libucrt:output.obj
 0001:000449c6       ?update_precision@?$standard_base@_WV?$string_output_adapter@_W@__crt_stdio_output@@@__crt_stdio_output@@IAE_NXZ 100459c6 f i libucrt:output.obj
 0001:000449da       ?valid@__crt_stdio_stream@@QBE_NXZ 100459da f i libucrt:output.obj
 0001:000449e4       ?validate@?$stream_output_adapter@D@__crt_stdio_output@@QBE_NXZ 100459e4 f i libucrt:output.obj
 0001:00044a0d       ?validate@?$stream_output_adapter@_W@__crt_stdio_output@@QBE_NXZ 10045a0d f i libucrt:output.obj
 0001:00044a2e       ?validate@?$string_output_adapter@D@__crt_stdio_output@@QBE_NXZ 10045a2e f i libucrt:output.obj
 0001:00044a4f       ?validate@?$string_output_adapter@_W@__crt_stdio_output@@QBE_NXZ 10045a4f f i libucrt:output.obj
 0001:00044a70       ?validate_and_store_parameter_data@?$positional_parameter_base@DV?$stream_output_adapter@D@__crt_stdio_output@@@__crt_stdio_output@@AAE_NAAUparameter_data@12@W4parameter_type@12@DW4length_modifier@2@@Z 10045a70 f i libucrt:output.obj
 0001:00044acd       ?validate_and_store_parameter_data@?$positional_parameter_base@DV?$string_output_adapter@D@__crt_stdio_output@@@__crt_stdio_output@@AAE_NAAUparameter_data@12@W4parameter_type@12@DW4length_modifier@2@@Z 10045acd f i libucrt:output.obj
 0001:00044b2a       ?validate_and_store_parameter_data@?$positional_parameter_base@_WV?$stream_output_adapter@_W@__crt_stdio_output@@@__crt_stdio_output@@AAE_NAAUparameter_data@12@W4parameter_type@12@_WW4length_modifier@2@@Z 10045b2a f i libucrt:output.obj
 0001:00044b8a       ?validate_and_store_parameter_data@?$positional_parameter_base@_WV?$string_output_adapter@_W@__crt_stdio_output@@@__crt_stdio_output@@AAE_NAAUparameter_data@12@W4parameter_type@12@_WW4length_modifier@2@@Z 10045b8a f i libucrt:output.obj
 0001:00044bea       ?validate_and_update_state_at_beginning_of_format_character@?$positional_parameter_base@DV?$stream_output_adapter@D@__crt_stdio_output@@@__crt_stdio_output@@IAE_NXZ 10045bea f i libucrt:output.obj
 0001:00044d20       ?validate_and_update_state_at_beginning_of_format_character@?$positional_parameter_base@DV?$string_output_adapter@D@__crt_stdio_output@@@__crt_stdio_output@@IAE_NXZ 10045d20 f i libucrt:output.obj
 0001:00044e56       ?validate_and_update_state_at_beginning_of_format_character@?$positional_parameter_base@_WV?$stream_output_adapter@_W@__crt_stdio_output@@@__crt_stdio_output@@IAE_NXZ 10045e56 f i libucrt:output.obj
 0001:00044f98       ?validate_and_update_state_at_beginning_of_format_character@?$positional_parameter_base@_WV?$string_output_adapter@_W@__crt_stdio_output@@@__crt_stdio_output@@IAE_NXZ 10045f98 f i libucrt:output.obj
 0001:000450da       ?validate_and_update_state_at_beginning_of_format_character@?$standard_base@DV?$stream_output_adapter@D@__crt_stdio_output@@@__crt_stdio_output@@IAE_NXZ 100460da f i libucrt:output.obj
 0001:000450dd       ?validate_and_update_state_at_beginning_of_format_character@?$standard_base@DV?$string_output_adapter@D@__crt_stdio_output@@@__crt_stdio_output@@IAE_NXZ 100460dd f i libucrt:output.obj
 0001:000450e0       ?validate_and_update_state_at_beginning_of_format_character@?$standard_base@_WV?$stream_output_adapter@_W@__crt_stdio_output@@@__crt_stdio_output@@IAE_NXZ 100460e0 f i libucrt:output.obj
 0001:000450e3       ?validate_and_update_state_at_beginning_of_format_character@?$standard_base@_WV?$string_output_adapter@_W@__crt_stdio_output@@@__crt_stdio_output@@IAE_NXZ 100460e3 f i libucrt:output.obj
 0001:000450e6       ?validate_and_update_state_at_end_of_format_string@?$format_validation_base@DV?$stream_output_adapter@D@__crt_stdio_output@@@__crt_stdio_output@@IBE_NXZ 100460e6 f i libucrt:output.obj
 0001:00045110       ?validate_and_update_state_at_end_of_format_string@?$format_validation_base@DV?$string_output_adapter@D@__crt_stdio_output@@@__crt_stdio_output@@IBE_NXZ 10046110 f i libucrt:output.obj
 0001:0004513a       ?validate_and_update_state_at_end_of_format_string@?$format_validation_base@_WV?$stream_output_adapter@_W@__crt_stdio_output@@@__crt_stdio_output@@IBE_NXZ 1004613a f i libucrt:output.obj
 0001:00045164       ?validate_and_update_state_at_end_of_format_string@?$format_validation_base@_WV?$string_output_adapter@_W@__crt_stdio_output@@@__crt_stdio_output@@IBE_NXZ 10046164 f i libucrt:output.obj
 0001:0004518e       ?validate_and_update_state_at_end_of_format_string@?$positional_parameter_base@DV?$stream_output_adapter@D@__crt_stdio_output@@@__crt_stdio_output@@IAE_NXZ 1004618e f i libucrt:output.obj
 0001:0004522e       ?validate_and_update_state_at_end_of_format_string@?$positional_parameter_base@DV?$string_output_adapter@D@__crt_stdio_output@@@__crt_stdio_output@@IAE_NXZ 1004622e f i libucrt:output.obj
 0001:000452ce       ?validate_and_update_state_at_end_of_format_string@?$positional_parameter_base@_WV?$stream_output_adapter@_W@__crt_stdio_output@@@__crt_stdio_output@@IAE_NXZ 100462ce f i libucrt:output.obj
 0001:0004536e       ?validate_and_update_state_at_end_of_format_string@?$positional_parameter_base@_WV?$string_output_adapter@_W@__crt_stdio_output@@@__crt_stdio_output@@IAE_NXZ 1004636e f i libucrt:output.obj
 0001:0004540e       ?validate_and_update_state_at_end_of_format_string@?$standard_base@DV?$stream_output_adapter@D@__crt_stdio_output@@@__crt_stdio_output@@IBE_NXZ 1004640e f i libucrt:output.obj
 0001:00045411       ?validate_and_update_state_at_end_of_format_string@?$standard_base@DV?$string_output_adapter@D@__crt_stdio_output@@@__crt_stdio_output@@IBE_NXZ 10046411 f i libucrt:output.obj
 0001:00045414       ?validate_and_update_state_at_end_of_format_string@?$standard_base@_WV?$stream_output_adapter@_W@__crt_stdio_output@@@__crt_stdio_output@@IBE_NXZ 10046414 f i libucrt:output.obj
 0001:00045417       ?validate_and_update_state_at_end_of_format_string@?$standard_base@_WV?$string_output_adapter@_W@__crt_stdio_output@@@__crt_stdio_output@@IBE_NXZ 10046417 f i libucrt:output.obj
 0001:0004541a       ?validate_state_for_type_case_a@?$positional_parameter_base@DV?$stream_output_adapter@D@__crt_stdio_output@@@__crt_stdio_output@@IAE_NXZ 1004641a f i libucrt:output.obj
 0001:00045481       ?validate_state_for_type_case_a@?$positional_parameter_base@DV?$string_output_adapter@D@__crt_stdio_output@@@__crt_stdio_output@@IAE_NXZ 10046481 f i libucrt:output.obj
 0001:000454e8       ?validate_state_for_type_case_a@?$positional_parameter_base@_WV?$stream_output_adapter@_W@__crt_stdio_output@@@__crt_stdio_output@@IAE_NXZ 100464e8 f i libucrt:output.obj
 0001:0004554f       ?validate_state_for_type_case_a@?$positional_parameter_base@_WV?$string_output_adapter@_W@__crt_stdio_output@@@__crt_stdio_output@@IAE_NXZ 1004654f f i libucrt:output.obj
 0001:000455b6       ?validate_state_for_type_case_a@?$standard_base@DV?$stream_output_adapter@D@__crt_stdio_output@@@__crt_stdio_output@@IBE_NXZ 100465b6 f i libucrt:output.obj
 0001:000455b9       ?validate_state_for_type_case_a@?$standard_base@DV?$string_output_adapter@D@__crt_stdio_output@@@__crt_stdio_output@@IBE_NXZ 100465b9 f i libucrt:output.obj
 0001:000455bc       ?validate_state_for_type_case_a@?$standard_base@_WV?$stream_output_adapter@_W@__crt_stdio_output@@@__crt_stdio_output@@IBE_NXZ 100465bc f i libucrt:output.obj
 0001:000455bf       ?validate_state_for_type_case_a@?$standard_base@_WV?$string_output_adapter@_W@__crt_stdio_output@@@__crt_stdio_output@@IBE_NXZ 100465bf f i libucrt:output.obj
 0001:000455c2       ?validate_stream_is_ansi_if_required@?$__acrt_stdio_char_traits@D@@SA_NQAU_iobuf@@@Z 100465c2 f i libucrt:output.obj
 0001:00045664       ?validate_stream_is_ansi_if_required@?$__acrt_stdio_char_traits@_W@@SA_NQAU_iobuf@@@Z 10046664 f i libucrt:output.obj
 0001:00045667       ?wide_null_string@?$output_processor@DV?$stream_output_adapter@D@__crt_stdio_output@@V?$format_validation_base@DV?$stream_output_adapter@D@__crt_stdio_output@@@2@@__crt_stdio_output@@CAPA_WXZ 10046667 f i libucrt:output.obj
 0001:0004566d       ?wide_null_string@?$output_processor@DV?$stream_output_adapter@D@__crt_stdio_output@@V?$positional_parameter_base@DV?$stream_output_adapter@D@__crt_stdio_output@@@2@@__crt_stdio_output@@CAPA_WXZ 1004666d f i libucrt:output.obj
 0001:00045673       ?wide_null_string@?$output_processor@DV?$stream_output_adapter@D@__crt_stdio_output@@V?$standard_base@DV?$stream_output_adapter@D@__crt_stdio_output@@@2@@__crt_stdio_output@@CAPA_WXZ 10046673 f i libucrt:output.obj
 0001:00045679       ?wide_null_string@?$output_processor@DV?$string_output_adapter@D@__crt_stdio_output@@V?$format_validation_base@DV?$string_output_adapter@D@__crt_stdio_output@@@2@@__crt_stdio_output@@CAPA_WXZ 10046679 f i libucrt:output.obj
 0001:0004567f       ?wide_null_string@?$output_processor@DV?$string_output_adapter@D@__crt_stdio_output@@V?$positional_parameter_base@DV?$string_output_adapter@D@__crt_stdio_output@@@2@@__crt_stdio_output@@CAPA_WXZ 1004667f f i libucrt:output.obj
 0001:00045685       ?wide_null_string@?$output_processor@DV?$string_output_adapter@D@__crt_stdio_output@@V?$standard_base@DV?$string_output_adapter@D@__crt_stdio_output@@@2@@__crt_stdio_output@@CAPA_WXZ 10046685 f i libucrt:output.obj
 0001:0004568b       ?wide_null_string@?$output_processor@_WV?$stream_output_adapter@_W@__crt_stdio_output@@V?$format_validation_base@_WV?$stream_output_adapter@_W@__crt_stdio_output@@@2@@__crt_stdio_output@@CAPA_WXZ 1004668b f i libucrt:output.obj
 0001:00045691       ?wide_null_string@?$output_processor@_WV?$stream_output_adapter@_W@__crt_stdio_output@@V?$positional_parameter_base@_WV?$stream_output_adapter@_W@__crt_stdio_output@@@2@@__crt_stdio_output@@CAPA_WXZ 10046691 f i libucrt:output.obj
 0001:00045697       ?wide_null_string@?$output_processor@_WV?$stream_output_adapter@_W@__crt_stdio_output@@V?$standard_base@_WV?$stream_output_adapter@_W@__crt_stdio_output@@@2@@__crt_stdio_output@@CAPA_WXZ 10046697 f i libucrt:output.obj
 0001:0004569d       ?wide_null_string@?$output_processor@_WV?$string_output_adapter@_W@__crt_stdio_output@@V?$format_validation_base@_WV?$string_output_adapter@_W@__crt_stdio_output@@@2@@__crt_stdio_output@@CAPA_WXZ 1004669d f i libucrt:output.obj
 0001:000456a3       ?wide_null_string@?$output_processor@_WV?$string_output_adapter@_W@__crt_stdio_output@@V?$positional_parameter_base@_WV?$string_output_adapter@_W@__crt_stdio_output@@@2@@__crt_stdio_output@@CAPA_WXZ 100466a3 f i libucrt:output.obj
 0001:000456a9       ?wide_null_string@?$output_processor@_WV?$string_output_adapter@_W@__crt_stdio_output@@V?$standard_base@_WV?$string_output_adapter@_W@__crt_stdio_output@@@2@@__crt_stdio_output@@CAPA_WXZ 100466a9 f i libucrt:output.obj
 0001:000456af       ?write_character@?$stream_output_adapter@D@__crt_stdio_output@@QBEXDQAH@Z 100466af f i libucrt:output.obj
 0001:000456fb       ?write_character@?$stream_output_adapter@_W@__crt_stdio_output@@QBEX_WQAH@Z 100466fb f i libucrt:output.obj
 0001:0004574b       ?write_character@?$string_output_adapter@D@__crt_stdio_output@@QBE_NDQAH@Z 1004674b f i libucrt:output.obj
 0001:0004579d       ?write_character@?$string_output_adapter@_W@__crt_stdio_output@@QBE_N_WQAH@Z 1004679d f i libucrt:output.obj
 0001:000457f3       ?write_stored_string_tchar@?$output_processor@DV?$stream_output_adapter@D@__crt_stdio_output@@V?$format_validation_base@DV?$stream_output_adapter@D@__crt_stdio_output@@@2@@__crt_stdio_output@@AAE_ND@Z 100467f3 f i libucrt:output.obj
 0001:000458c3       ?write_stored_string_tchar@?$output_processor@DV?$stream_output_adapter@D@__crt_stdio_output@@V?$positional_parameter_base@DV?$stream_output_adapter@D@__crt_stdio_output@@@2@@__crt_stdio_output@@AAE_ND@Z 100468c3 f i libucrt:output.obj
 0001:00045993       ?write_stored_string_tchar@?$output_processor@DV?$stream_output_adapter@D@__crt_stdio_output@@V?$standard_base@DV?$stream_output_adapter@D@__crt_stdio_output@@@2@@__crt_stdio_output@@AAE_ND@Z 10046993 f i libucrt:output.obj
 0001:00045a63       ?write_stored_string_tchar@?$output_processor@DV?$string_output_adapter@D@__crt_stdio_output@@V?$format_validation_base@DV?$string_output_adapter@D@__crt_stdio_output@@@2@@__crt_stdio_output@@AAE_ND@Z 10046a63 f i libucrt:output.obj
 0001:00045b33       ?write_stored_string_tchar@?$output_processor@DV?$string_output_adapter@D@__crt_stdio_output@@V?$positional_parameter_base@DV?$string_output_adapter@D@__crt_stdio_output@@@2@@__crt_stdio_output@@AAE_ND@Z 10046b33 f i libucrt:output.obj
 0001:00045c03       ?write_stored_string_tchar@?$output_processor@DV?$string_output_adapter@D@__crt_stdio_output@@V?$standard_base@DV?$string_output_adapter@D@__crt_stdio_output@@@2@@__crt_stdio_output@@AAE_ND@Z 10046c03 f i libucrt:output.obj
 0001:00045cd3       ?write_stored_string_tchar@?$output_processor@_WV?$stream_output_adapter@_W@__crt_stdio_output@@V?$format_validation_base@_WV?$stream_output_adapter@_W@__crt_stdio_output@@@2@@__crt_stdio_output@@AAE_N_W@Z 10046cd3 f i libucrt:output.obj
 0001:00045d80       ?write_stored_string_tchar@?$output_processor@_WV?$stream_output_adapter@_W@__crt_stdio_output@@V?$positional_parameter_base@_WV?$stream_output_adapter@_W@__crt_stdio_output@@@2@@__crt_stdio_output@@AAE_N_W@Z 10046d80 f i libucrt:output.obj
 0001:00045e2d       ?write_stored_string_tchar@?$output_processor@_WV?$stream_output_adapter@_W@__crt_stdio_output@@V?$standard_base@_WV?$stream_output_adapter@_W@__crt_stdio_output@@@2@@__crt_stdio_output@@AAE_N_W@Z 10046e2d f i libucrt:output.obj
 0001:00045eda       ?write_stored_string_tchar@?$output_processor@_WV?$string_output_adapter@_W@__crt_stdio_output@@V?$format_validation_base@_WV?$string_output_adapter@_W@__crt_stdio_output@@@2@@__crt_stdio_output@@AAE_N_W@Z 10046eda f i libucrt:output.obj
 0001:00045f87       ?write_stored_string_tchar@?$output_processor@_WV?$string_output_adapter@_W@__crt_stdio_output@@V?$positional_parameter_base@_WV?$string_output_adapter@_W@__crt_stdio_output@@@2@@__crt_stdio_output@@AAE_N_W@Z 10046f87 f i libucrt:output.obj
 0001:00046034       ?write_stored_string_tchar@?$output_processor@_WV?$string_output_adapter@_W@__crt_stdio_output@@V?$standard_base@_WV?$string_output_adapter@_W@__crt_stdio_output@@@2@@__crt_stdio_output@@AAE_N_W@Z 10047034 f i libucrt:output.obj
 0001:000460e1       ?write_string@?$stream_output_adapter@D@__crt_stdio_output@@QBEXQBDHQAH1@Z 100470e1 f i libucrt:output.obj
 0001:0004618d       ?write_string@?$stream_output_adapter@_W@__crt_stdio_output@@QBEXQB_WHQAH1@Z 1004718d f i libucrt:output.obj
 0001:0004623d       ?write_string@?$string_output_adapter@D@__crt_stdio_output@@QBEXQBDHQAH1@Z 1004723d f i libucrt:output.obj
 0001:000462f4       ?write_string@?$string_output_adapter@_W@__crt_stdio_output@@QBEXQB_WHQAH1@Z 100472f4 f i libucrt:output.obj
 0001:000463b4       ___acrt_isleadbyte_l_noupdate 100473b4 f i libucrt:output.obj
 0001:000463d5       ___acrt_locale_changed     100473d5 f i libucrt:output.obj
 0001:000463e6       ___stdio_common_vfprintf   100473e6 f   libucrt:output.obj
 0001:0004647a       ___stdio_common_vfprintf_p 1004747a f   libucrt:output.obj
 0001:0004650e       ___stdio_common_vfprintf_s 1004750e f   libucrt:output.obj
 0001:000465a2       ___stdio_common_vfwprintf  100475a2 f   libucrt:output.obj
 0001:00046636       ___stdio_common_vfwprintf_p 10047636 f   libucrt:output.obj
 0001:000466ca       ___stdio_common_vfwprintf_s 100476ca f   libucrt:output.obj
 0001:0004675e       ___stdio_common_vsnprintf_s 1004775e f   libucrt:output.obj
 0001:0004678e       ___stdio_common_vsnwprintf_s 1004778e f   libucrt:output.obj
 0001:000467be       ___stdio_common_vsprintf   100477be f   libucrt:output.obj
 0001:000467eb       ___stdio_common_vsprintf_p 100477eb f   libucrt:output.obj
 0001:00046818       ___stdio_common_vsprintf_s 10047818 f   libucrt:output.obj
 0001:00046845       ___stdio_common_vswprintf  10047845 f   libucrt:output.obj
 0001:00046872       ___stdio_common_vswprintf_p 10047872 f   libucrt:output.obj
 0001:0004689f       ___stdio_common_vswprintf_s 1004789f f   libucrt:output.obj
 0001:000468d0       _fmod                      100478d0 f   libucrt:87fmod.obj
 0001:000468da       __CIfmod                   100478da f   libucrt:87fmod.obj
 0001:000468fa       _calloc                    100478fa f   libucrt:calloc.obj
 0001:00046907       _free                      10047907 f   libucrt:free.obj
 0001:0004690c       _realloc                   1004790c f   libucrt:realloc.obj
 0001:00046919       ??$?B$$A6GXPAXK0@Z@__crt_fast_encoded_nullptr_t@@QBEP6GXPAXK0@ZXZ 10047919 f i libucrt:exit.obj
 0001:00046937       ??$__crt_fast_decode_pointer@P6GXPAXK0@Z@@YAP6GXPAXK0@ZQ6GX0K0@Z@Z 10047937 f i libucrt:exit.obj
 0001:00046952       ??$__crt_fast_encode_pointer@P6GXPAXK0@Z@@YAP6GXPAXK0@ZQ6GX0K0@Z@Z 10047952 f i libucrt:exit.obj
 0001:00046978       ??$__crt_get_proc_address@P6GXI@Z@@YAP6GXI@ZQAUHINSTANCE__@@QBD@Z 10047978 f i libucrt:exit.obj
 0001:0004698f       ??0?$__crt_unique_handle_t@U__crt_hmodule_traits@@@@QAE@QAUHINSTANCE__@@@Z 1004798f f i libucrt:exit.obj
 0001:000469a3       ??1?$__crt_unique_handle_t@U__crt_hmodule_traits@@@@QAE@XZ 100479a3 f i libucrt:exit.obj
 0001:000469d6       ?close@?$__crt_unique_handle_t@U__crt_hmodule_traits@@@@QAEXXZ 100479d6 f i libucrt:exit.obj
 0001:000469f2       ?close@__crt_hmodule_traits@@SA_NPAUHINSTANCE__@@@Z 100479f2 f i libucrt:exit.obj
 0001:00046bbd       ?get@?$__crt_unique_handle_t@U__crt_hmodule_traits@@@@QBEPAUHINSTANCE__@@XZ 10047bbd f i libucrt:exit.obj
 0001:00046bc0       ?get_address_of@?$__crt_unique_handle_t@U__crt_hmodule_traits@@@@QAEPAPAUHINSTANCE__@@XZ 10047bc0 f i libucrt:exit.obj
 0001:00046bc3       ?get_invalid_value@__crt_hmodule_traits@@SAPAUHINSTANCE__@@XZ 10047bc3 f i libucrt:exit.obj
 0001:00046cc0       __Exit                     10047cc0 f   libucrt:exit.obj
 0001:00046cdb       ___acrt_initialize_thread_local_exit_callback 10047cdb f   libucrt:exit.obj
 0001:00046ced       __c_exit                   10047ced f   libucrt:exit.obj
 0001:00046cff       __cexit                    10047cff f   libucrt:exit.obj
 0001:00046d11       __exit                     10047d11 f   libucrt:exit.obj
 0001:00046d2c       __is_c_termination_complete 10047d2c f   libucrt:exit.obj
 0001:00046d32       __register_thread_local_exe_atexit_callback 10047d32 f   libucrt:exit.obj
 0001:00046d78       _exit                      10047d78 f   libucrt:exit.obj
 0001:00046d93       _quick_exit                10047d93 f   libucrt:exit.obj
 0001:00046db0       _strncat                   10047db0 f   libucrt:strncat.obj
 0001:00046f40       _strncpy                   10047f40 f   libucrt:strncpy.obj
 0001:000470ad       ?is_in_use@__crt_stdio_stream@@QBE_NXZ 100480ad f i libucrt:fclose.obj
 0001:000470bc       __fclose_nolock            100480bc f   libucrt:fclose.obj
 0001:0004714f       _fclose                    1004814f f   libucrt:fclose.obj
 0001:00047481       ??$open_file@ABQBDABQBDABHPAU_iobuf@@@?$__crt_char_traits@D@@SAPAU_iobuf@@ABQBD0ABH$$QAPAU1@@Z 10048481 f i libucrt:fopen.obj
 0001:000474ac       ??$open_file@ABQB_WABQB_WABHPAU_iobuf@@@?$__crt_char_traits@_W@@SAPAU_iobuf@@ABQB_W0ABH$$QAPAU1@@Z 100484ac f i libucrt:fopen.obj
 0001:000474d7       ?unlock@__crt_stdio_stream@@QBEXXZ 100484d7 f i libucrt:fopen.obj
 0001:000474e2       __fsopen                   100484e2 f   libucrt:fopen.obj
 0001:000474ef       __wfopen                   100484ef f   libucrt:fopen.obj
 0001:0004750b       __wfopen_s                 1004850b f   libucrt:fopen.obj
 0001:00047563       __wfsopen                  10048563 f   libucrt:fopen.obj
 0001:00047570       _fopen                     10048570 f   libucrt:fopen.obj
 0001:0004758c       _fopen_s                   1004858c f   libucrt:fopen.obj
 0001:000475e4       ?has_any_buffer@__crt_stdio_stream@@QBE_NXZ 100485e4 f i libucrt:fread.obj
 0001:000475f9       ?has_any_of@__crt_stdio_stream@@QBE_NJ@Z 100485f9 f i libucrt:fread.obj
 0001:00047615       ?set_flags@__crt_stdio_stream@@QBE_NJ@Z 10048615 f i libucrt:fread.obj
 0001:00047645       __fread_nolock             10048645 f   libucrt:fread.obj
 0001:00047669       __fread_nolock_s           10048669 f   libucrt:fread.obj
 0001:000478a8       _fread                     100488a8 f   libucrt:fread.obj
 0001:000478cc       _fread_s                   100488cc f   libucrt:fread.obj
 0001:00047a24       ??$?RV<lambda_11b4f7b0d3157825a5656a18eba1ae27>@@AAV<lambda_b51c0495177f500e782686251704ae76>@@V<lambda_cf89b47920b5017557bfe891e78aca36>@@@?$__crt_seh_guarded_call@I@@QAEI$$QAV<lambda_11b4f7b0d3157825a5656a18eba1ae27>@@AAV<lambda_b51c0495177f500e782686251704ae76>@@$$QAV<lambda_cf89b47920b5017557bfe891e78aca36>@@@Z 10048a24 f i libucrt:fwrite.obj
 0001:00047a89       ??$__acrt_lock_stream_and_call@V<lambda_b51c0495177f500e782686251704ae76>@@@@YAIQAU_iobuf@@$$QAV<lambda_b51c0495177f500e782686251704ae76>@@@Z 10048a89 f i libucrt:fwrite.obj
 0001:00047b7e       ?has_big_buffer@__crt_stdio_stream@@QBE_NXZ 10048b7e f i libucrt:fwrite.obj
 0001:00047b8f       __fwrite_nolock            10048b8f f   libucrt:fwrite.obj
 0001:00047d66       _fwrite                    10048d66 f   libucrt:fwrite.obj
 0001:00047dd4       ??$?R_W@__crt_internal_free_policy@@QBEXQB_W@Z 10048dd4 f i libucrt:unlink.obj
 0001:00047dea       ??0?$__crt_unique_heap_ptr@_WU__crt_internal_free_policy@@@@QAE@QA_W@Z 10048dea f i libucrt:unlink.obj
 0001:00047dfe       ??1?$__crt_unique_heap_ptr@_WU__crt_internal_free_policy@@@@QAE@XZ 10048dfe f i libucrt:unlink.obj
 0001:00047e14       ?get@?$__crt_unique_heap_ptr@_WU__crt_internal_free_policy@@@@QBEPA_WXZ 10048e14 f i libucrt:unlink.obj
 0001:00047e17       ?get_address_of@?$__crt_unique_heap_ptr@_WU__crt_internal_free_policy@@@@QAEPAPA_WXZ 10048e17 f i libucrt:unlink.obj
 0001:00047e1a       ?release@?$__crt_unique_heap_ptr@_WU__crt_internal_free_policy@@@@QAEXXZ 10048e1a f i libucrt:unlink.obj
 0001:00047e30       __unlink                   10048e30 f   libucrt:unlink.obj
 0001:00047e3d       _remove                    10048e3d f   libucrt:unlink.obj
 0001:00047e9d       ?__acrt_stdio_reset_buffer@@YAXV__crt_stdio_stream@@@Z 10048e9d f i libucrt:rewind.obj
 0001:00047eb8       ?has_all_of@__crt_stdio_stream@@QBE_NJ@Z 10048eb8 f i libucrt:rewind.obj
 0001:00047ed7       ?unset_flags@__crt_stdio_stream@@QBE_NJ@Z 10048ed7 f i libucrt:rewind.obj
 0001:00047f0b       _rewind                    10048f0b f   libucrt:rewind.obj
 0001:0004800c       _ldexp                     1004900c f   libucrt:ldexp.obj
 0001:0004826c       ??$__vcrt_va_start_verify_argument_type@QB_W@@YAXXZ 1004926c f i libucrt:assert.obj
 0001:00049209       ??$ftprintf@PAU_iobuf@@PBDABQBDABQBDABI@?$__crt_char_traits@D@@SAH$$QAPAU_iobuf@@$$QAPBDABQBD2ABI@Z 1004a209 f i libucrt:assert.obj
 0001:0004923b       ??$ftprintf@PAU_iobuf@@PB_WABQB_WABQB_WABI@?$__crt_char_traits@_W@@SAH$$QAPAU_iobuf@@$$QAPB_WABQB_W2ABI@Z 1004a23b f i libucrt:assert.obj
 0001:0004926d       ??$get_module_file_name@AAPAUHINSTANCE__@@AAY0BAF@DK@?$__crt_char_traits@D@@SAKAAPAUHINSTANCE__@@AAY0BAF@D$$QAK@Z 1004a26d f i libucrt:assert.obj
 0001:0004928d       ??$get_module_file_name@AAPAUHINSTANCE__@@AAY0BAF@_WK@?$__crt_char_traits@_W@@SAKAAPAUHINSTANCE__@@AAY0BAF@_W$$QAK@Z 1004a28d f i libucrt:assert.obj
 0001:000492ad       ??$itot_s@ABIQAD$$CBIH@?$__crt_char_traits@D@@SAHABI$$QBQAD$$QBI$$QAH@Z 1004a2ad f i libucrt:assert.obj
 0001:000492d8       ??$itot_s@ABIQA_W$$CBIH@?$__crt_char_traits@_W@@SAHABI$$QBQA_W$$QBI$$QAH@Z 1004a2d8 f i libucrt:assert.obj
 0001:00049303       ??$show_message_box@AAY0CEA@DPBDJ@?$__crt_char_traits@D@@SAHAAY0CEA@D$$QAPBD$$QAJ@Z 1004a303 f i libucrt:assert.obj
 0001:00049326       ??$show_message_box@AAY0CEA@_WPB_WJ@?$__crt_char_traits@_W@@SAHAAY0CEA@_W$$QAPB_W$$QAJ@Z 1004a326 f i libucrt:assert.obj
 0001:00049349       ??$tcscat_s@ABQADABIAAPAD@?$__crt_char_traits@D@@SAHABQADABIAAPAD@Z 1004a349 f i libucrt:assert.obj
 0001:0004936e       ??$tcscat_s@ABQADABIABQBD@?$__crt_char_traits@D@@SAHABQADABIABQBD@Z 1004a36e f i libucrt:assert.obj
 0001:00049393       ??$tcscat_s@ABQADABIPBD@?$__crt_char_traits@D@@SAHABQADABI$$QAPBD@Z 1004a393 f i libucrt:assert.obj
 0001:000493b8       ??$tcscat_s@ABQA_WABIAAPA_W@?$__crt_char_traits@_W@@SAHABQA_WABIAAPA_W@Z 1004a3b8 f i libucrt:assert.obj
 0001:000493dd       ??$tcscat_s@ABQA_WABIABQB_W@?$__crt_char_traits@_W@@SAHABQA_WABIABQB_W@Z 1004a3dd f i libucrt:assert.obj
 0001:00049402       ??$tcscat_s@ABQA_WABIPB_W@?$__crt_char_traits@_W@@SAHABQA_WABI$$QAPB_W@Z 1004a402 f i libucrt:assert.obj
 0001:00049427       ??$tcscpy_s@AAY0BAF@DIPBD@?$__crt_char_traits@D@@SAHAAY0BAF@D$$QAI$$QAPBD@Z 1004a427 f i libucrt:assert.obj
 0001:0004944a       ??$tcscpy_s@AAY0BAF@_WIPB_W@?$__crt_char_traits@_W@@SAHAAY0BAF@_W$$QAI$$QAPB_W@Z 1004a44a f i libucrt:assert.obj
 0001:0004946d       ??$tcscpy_s@ABQADABIPBD@?$__crt_char_traits@D@@SAHABQADABI$$QAPBD@Z 1004a46d f i libucrt:assert.obj
 0001:00049492       ??$tcscpy_s@ABQA_WABIPB_W@?$__crt_char_traits@_W@@SAHABQA_WABI$$QAPB_W@Z 1004a492 f i libucrt:assert.obj
 0001:000494b7       ??$tcslen@AAY0BAF@D@?$__crt_char_traits@D@@SAIAAY0BAF@D@Z 1004a4b7 f i libucrt:assert.obj
 0001:000494d2       ??$tcslen@AAY0BAF@_W@?$__crt_char_traits@_W@@SAIAAY0BAF@_W@Z 1004a4d2 f i libucrt:assert.obj
 0001:000494f5       ??$tcslen@ABQAD@?$__crt_char_traits@D@@SAIABQAD@Z 1004a4f5 f i libucrt:assert.obj
 0001:00049513       ??$tcslen@ABQA_W@?$__crt_char_traits@_W@@SAIABQA_W@Z 1004a513 f i libucrt:assert.obj
 0001:00049538       ??$tcslen@ABQBD@?$__crt_char_traits@D@@SAIABQBD@Z 1004a538 f i libucrt:assert.obj
 0001:00049556       ??$tcslen@ABQB_W@?$__crt_char_traits@_W@@SAIABQB_W@Z 1004a556 f i libucrt:assert.obj
 0001:0004957b       ??$tcsncat_s@ABQADABIAAPBD$$CBI@?$__crt_char_traits@D@@SAHABQADABIAAPBD$$QBI@Z 1004a57b f i libucrt:assert.obj
 0001:000495a6       ??$tcsncat_s@ABQADABIABQBDABI@?$__crt_char_traits@D@@SAHABQADABIABQBD1@Z 1004a5a6 f i libucrt:assert.obj
 0001:000495d1       ??$tcsncat_s@ABQADABIPBD$$CBI@?$__crt_char_traits@D@@SAHABQADABI$$QAPBD$$QBI@Z 1004a5d1 f i libucrt:assert.obj
 0001:000495fc       ??$tcsncat_s@ABQA_WABIAAPB_W$$CBI@?$__crt_char_traits@_W@@SAHABQA_WABIAAPB_W$$QBI@Z 1004a5fc f i libucrt:assert.obj
 0001:00049627       ??$tcsncat_s@ABQA_WABIABQB_WABI@?$__crt_char_traits@_W@@SAHABQA_WABIABQB_W1@Z 1004a627 f i libucrt:assert.obj
 0001:00049652       ??$tcsncat_s@ABQA_WABIPB_W$$CBI@?$__crt_char_traits@_W@@SAHABQA_WABI$$QAPB_W$$QBI@Z 1004a652 f i libucrt:assert.obj
 0001:000497f7       __assert                   1004a7f7 f   libucrt:assert.obj
 0001:00049851       __invoke_watson_if_error   1004a851 f i libucrt:assert.obj
 0001:0004987b       __vfwprintf_l              1004a87b f i libucrt:assert.obj
 0001:000498a9       __vswprintf_c_l            1004a8a9 f i libucrt:assert.obj
 0001:000498e3       __wassert                  1004a8e3 f   libucrt:assert.obj
 0001:0004993d       _fwprintf                  1004a93d f i libucrt:assert.obj
 0001:000499ff       _swprintf                  1004a9ff f i libucrt:assert.obj
 0001:00049a24       __errcode                  1004aa24 f   libucrt:fpexcept.obj
 0001:00049a65       __except1                  1004aa65 f   libucrt:fpexcept.obj
 0001:00049b66       __except2                  1004ab66 f   libucrt:fpexcept.obj
 0001:00049caf       __handle_exc               1004acaf f   libucrt:fpexcept.obj
 0001:00049f07       __handle_qnan2             1004af07 f   libucrt:fpexcept.obj
 0001:00049f17       __raise_exc                1004af17 f   libucrt:fpexcept.obj
 0001:00049f42       __raise_exc_ex             1004af42 f   libucrt:fpexcept.obj
 0001:0004a2ef       __raise_excf               1004b2ef f   libucrt:fpexcept.obj
 0001:0004a31a       __set_errno_from_matherr   1004b31a f   libucrt:fpexcept.obj
 0001:0004a354       __umatherr                 1004b354 f   libucrt:fpexcept.obj
 0001:0004a41e       __initterm                 1004b41e f   libucrt:initterm.obj
 0001:0004a491       __initterm_e               1004b491 f   libucrt:initterm.obj
 0001:0004a514       __seh_filter_dll           1004b514 f   libucrt:exception_filter.obj
 0001:0004a53c       __seh_filter_exe           1004b53c f   libucrt:exception_filter.obj
 0001:0004a70b       ??$?RE@__crt_internal_free_policy@@QBEXQBE@Z 1004b70b f i libucrt:argv_parsing.obj
 0001:0004a721       ??$?RPAD@__crt_internal_free_policy@@QBEXQBQAD@Z 1004b721 f i libucrt:argv_parsing.obj
 0001:0004a737       ??$?RPA_W@__crt_internal_free_policy@@QBEXQBQA_W@Z 1004b737 f i libucrt:argv_parsing.obj
 0001:0004aa20       ??$get_module_file_name@$$TAAY0BAF@DH@?$__crt_char_traits@D@@SAK$$QA$$TAAY0BAF@D$$QAH@Z 1004ba20 f i libucrt:argv_parsing.obj
 0001:0004aa40       ??$get_module_file_name@$$TAAY0BAF@_WH@?$__crt_char_traits@_W@@SAK$$QA$$TAAY0BAF@_W$$QAH@Z 1004ba40 f i libucrt:argv_parsing.obj
 0001:0004ae19       ??$set_program_name@PAD@?$__crt_char_traits@D@@SAX$$QAPAD@Z 1004be19 f i libucrt:argv_parsing.obj
 0001:0004ae2e       ??$set_program_name@PA_W@?$__crt_char_traits@_W@@SAX$$QAPA_W@Z 1004be2e f i libucrt:argv_parsing.obj
 0001:0004ae6b       ??0?$__crt_unique_heap_ptr@EU__crt_internal_free_policy@@@@QAE@QAE@Z 1004be6b f i libucrt:argv_parsing.obj
 0001:0004ae7f       ??0?$__crt_unique_heap_ptr@PADU__crt_internal_free_policy@@@@QAE@QAPAD@Z 1004be7f f i libucrt:argv_parsing.obj
 0001:0004ae93       ??0?$__crt_unique_heap_ptr@PA_WU__crt_internal_free_policy@@@@QAE@QAPA_W@Z 1004be93 f i libucrt:argv_parsing.obj
 0001:0004aea7       ??1?$__crt_unique_heap_ptr@EU__crt_internal_free_policy@@@@QAE@XZ 1004bea7 f i libucrt:argv_parsing.obj
 0001:0004aebd       ??1?$__crt_unique_heap_ptr@PADU__crt_internal_free_policy@@@@QAE@XZ 1004bebd f i libucrt:argv_parsing.obj
 0001:0004aed3       ??1?$__crt_unique_heap_ptr@PA_WU__crt_internal_free_policy@@@@QAE@XZ 1004bed3 f i libucrt:argv_parsing.obj
 0001:0004aee9       ??B?$__crt_unique_heap_ptr@EU__crt_internal_free_policy@@@@QBE_NXZ 1004bee9 f i libucrt:argv_parsing.obj
 0001:0004af29       ?detach@?$__crt_unique_heap_ptr@EU__crt_internal_free_policy@@@@QAEPAEXZ 1004bf29 f i libucrt:argv_parsing.obj
 0001:0004af2f       ?detach@?$__crt_unique_heap_ptr@PADU__crt_internal_free_policy@@@@QAEPAPADXZ 1004bf2f f i libucrt:argv_parsing.obj
 0001:0004af35       ?detach@?$__crt_unique_heap_ptr@PA_WU__crt_internal_free_policy@@@@QAEPAPA_WXZ 1004bf35 f i libucrt:argv_parsing.obj
 0001:0004af5b       ?get@?$__crt_unique_heap_ptr@EU__crt_internal_free_policy@@@@QBEPAEXZ 1004bf5b f i libucrt:argv_parsing.obj
 0001:0004af5e       ?get@?$__crt_unique_heap_ptr@PADU__crt_internal_free_policy@@@@QBEPAPADXZ 1004bf5e f i libucrt:argv_parsing.obj
 0001:0004af61       ?get@?$__crt_unique_heap_ptr@PA_WU__crt_internal_free_policy@@@@QBEPAPA_WXZ 1004bf61 f i libucrt:argv_parsing.obj
 0001:0004af64       ?get_address_of@?$__crt_unique_heap_ptr@PADU__crt_internal_free_policy@@@@QAEPAPAPADXZ 1004bf64 f i libucrt:argv_parsing.obj
 0001:0004af67       ?get_address_of@?$__crt_unique_heap_ptr@PA_WU__crt_internal_free_policy@@@@QAEPAPAPA_WXZ 1004bf67 f i libucrt:argv_parsing.obj
 0001:0004af82       ?is_valid@?$__crt_unique_heap_ptr@EU__crt_internal_free_policy@@@@QBE_NXZ 1004bf82 f i libucrt:argv_parsing.obj
 0001:0004af8c       ?release@?$__crt_unique_heap_ptr@EU__crt_internal_free_policy@@@@QAEXXZ 1004bf8c f i libucrt:argv_parsing.obj
 0001:0004afa2       ?release@?$__crt_unique_heap_ptr@PADU__crt_internal_free_policy@@@@QAEXXZ 1004bfa2 f i libucrt:argv_parsing.obj
 0001:0004afb8       ?release@?$__crt_unique_heap_ptr@PA_WU__crt_internal_free_policy@@@@QAEXXZ 1004bfb8 f i libucrt:argv_parsing.obj
 0001:0004afef       ___acrt_allocate_buffer_for_argv 1004bfef f   libucrt:argv_parsing.obj
 0001:0004b059       __configure_narrow_argv    1004c059 f   libucrt:argv_parsing.obj
 0001:0004b066       __configure_wide_argv      1004c066 f   libucrt:argv_parsing.obj
 0001:0004b073       __set_pgmptr               1004c073 f i libucrt:argv_parsing.obj
 0001:0004b085       __set_wpgmptr              1004c085 f i libucrt:argv_parsing.obj
 0001:0004b55f       ??$get_environment_from_os@$$$V@?$__crt_char_traits@D@@SAPADXZ 1004c55f f i libucrt:environment_initialization.obj
 0001:0004b564       ??$get_environment_from_os@$$$V@?$__crt_char_traits@_W@@SAPA_WXZ 1004c564 f i libucrt:environment_initialization.obj
 0001:0004b69e       ??$set_variable_in_environment_nolock@PADH@?$__crt_char_traits@D@@SAH$$QAPAD$$QAH@Z 1004c69e f i libucrt:environment_initialization.obj
 0001:0004b6bc       ??$set_variable_in_environment_nolock@PA_WH@?$__crt_char_traits@_W@@SAH$$QAPA_W$$QAH@Z 1004c6bc f i libucrt:environment_initialization.obj
 0001:0004b6da       ??$tcscpy_s@PADABIAAPAD@?$__crt_char_traits@D@@SAH$$QAPADABIAAPAD@Z 1004c6da f i libucrt:environment_initialization.obj
 0001:0004b6ff       ??$tcscpy_s@PA_WABIAAPA_W@?$__crt_char_traits@_W@@SAH$$QAPA_WABIAAPA_W@Z 1004c6ff f i libucrt:environment_initialization.obj
 0001:0004b724       ??$tcslen@AAPAD@?$__crt_char_traits@D@@SAIAAPAD@Z 1004c724 f i libucrt:environment_initialization.obj
 0001:0004b742       ??$tcslen@AAPA_W@?$__crt_char_traits@_W@@SAIAAPA_W@Z 1004c742 f i libucrt:environment_initialization.obj
 0001:0004b767       ??$uninitialize@A6AXAAPAPAD@Z@?$dual_state_global@PAPAD@__crt_state_management@@QAEXA6AXAAPAPAD@Z@Z 1004c767 f i libucrt:environment_initialization.obj
 0001:0004b7b7       ??$uninitialize@A6AXAAPAPA_W@Z@?$dual_state_global@PAPA_W@__crt_state_management@@QAEXA6AXAAPAPA_W@Z@Z 1004c7b7 f i libucrt:environment_initialization.obj
 0001:0004b849       ??B?$__crt_unique_heap_ptr@PADU__crt_internal_free_policy@@@@QBE_NXZ 1004c849 f i libucrt:environment_initialization.obj
 0001:0004b853       ??B?$__crt_unique_heap_ptr@PA_WU__crt_internal_free_policy@@@@QBE_NXZ 1004c853 f i libucrt:environment_initialization.obj
 0001:0004b85d       ??B?$__crt_unique_heap_ptr@_WU__crt_internal_free_policy@@@@QBE_NXZ 1004c85d f i libucrt:environment_initialization.obj
 0001:0004b867       ?__crt_compute_required_transform_buffer_count@@YAIIQBD@Z 1004c867 f i libucrt:environment_initialization.obj
 0001:0004b887       ?__crt_compute_required_transform_buffer_count@@YAIIQB_W@Z 1004c887 f i libucrt:environment_initialization.obj
 0001:0004b8aa       ?__crt_transform_string@@YAIIQBDQA_WI@Z 1004c8aa f i libucrt:environment_initialization.obj
 0001:0004b8ce       ?__crt_transform_string@@YAIIQB_WQADI@Z 1004c8ce f i libucrt:environment_initialization.obj
 0001:0004b8f6       ?detach@?$__crt_unique_heap_ptr@DU__crt_internal_free_policy@@@@QAEPADXZ 1004c8f6 f i libucrt:environment_initialization.obj
 0001:0004b8fc       ?detach@?$__crt_unique_heap_ptr@_WU__crt_internal_free_policy@@@@QAEPA_WXZ 1004c8fc f i libucrt:environment_initialization.obj
 0001:0004b902       ?get_current_state_index@__crt_state_management@@YAIXZ 1004c902 f i libucrt:environment_initialization.obj
 0001:0004b929       ?initialize@?$dual_state_global@PAPAD@__crt_state_management@@QAEXQAPAD@Z 1004c929 f i libucrt:environment_initialization.obj
 0001:0004b966       ?initialize@?$dual_state_global@PAPA_W@__crt_state_management@@QAEXQAPA_W@Z 1004c966 f i libucrt:environment_initialization.obj
 0001:0004b9a3       ?is_valid@?$__crt_unique_heap_ptr@PADU__crt_internal_free_policy@@@@QBE_NXZ 1004c9a3 f i libucrt:environment_initialization.obj
 0001:0004b9ad       ?is_valid@?$__crt_unique_heap_ptr@PA_WU__crt_internal_free_policy@@@@QBE_NXZ 1004c9ad f i libucrt:environment_initialization.obj
 0001:0004b9b7       ?is_valid@?$__crt_unique_heap_ptr@_WU__crt_internal_free_policy@@@@QBE_NXZ 1004c9b7 f i libucrt:environment_initialization.obj
 0001:0004b9c7       ?value@?$dual_state_global@PAPAD@__crt_state_management@@QAEAAPAPADXZ 1004c9c7 f i libucrt:environment_initialization.obj
 0001:0004b9ca       ?value@?$dual_state_global@PAPA_W@__crt_state_management@@QAEAAPAPA_WXZ 1004c9ca f i libucrt:environment_initialization.obj
 0001:0004b9cd       ___dcrt_get_or_create_narrow_environment_nolock 1004c9cd f   libucrt:environment_initialization.obj
 0001:0004b9d2       ___dcrt_get_or_create_wide_environment_nolock 1004c9d2 f   libucrt:environment_initialization.obj
 0001:0004b9d7       ___dcrt_uninitialize_environments_nolock 1004c9d7 f   libucrt:environment_initialization.obj
 0001:0004ba1b       ___p__environ              1004ca1b f   libucrt:environment_initialization.obj
 0001:0004ba21       ___p__wenviron             1004ca21 f   libucrt:environment_initialization.obj
 0001:0004ba27       __get_initial_narrow_environment 1004ca27 f   libucrt:environment_initialization.obj
 0001:0004ba40       __get_initial_wide_environment 1004ca40 f   libucrt:environment_initialization.obj
 0001:0004ba59       __initialize_narrow_environment 1004ca59 f   libucrt:environment_initialization.obj
 0001:0004ba5e       __initialize_wide_environment 1004ca5e f   libucrt:environment_initialization.obj
 0001:0004ba63       ??$?BP6AXXZ@__crt_fast_encoded_nullptr_t@@QBEPAP6AXXZXZ 1004ca63 f i libucrt:onexit.obj
 0001:0004ba81       ??$?RP6AXXZ@__crt_internal_free_policy@@QBEXQBQ6AXXZ@Z 1004ca81 f i libucrt:onexit.obj
 0001:0004ba97       ??$?RV<lambda_800076c951b434888f4765a74a194fcc>@@AAV<lambda_4e60a939b0d047cfe11ddc22648dfba9>@@V<lambda_6dbb1268764f43b569ce7b67e331d33a>@@@?$__crt_seh_guarded_call@H@@QAEH$$QAV<lambda_800076c951b434888f4765a74a194fcc>@@AAV<lambda_4e60a939b0d047cfe11ddc22648dfba9>@@$$QAV<lambda_6dbb1268764f43b569ce7b67e331d33a>@@@Z 1004ca97 f i libucrt:onexit.obj
 0001:0004bafc       ??$?RV<lambda_995298e7d72eb4c2aab26c0585b3abe5>@@AAV<lambda_275893d493268fdec8709772e3fcec0e>@@V<lambda_293819299cbf9a7022e18b56a874bb5c>@@@?$__crt_seh_guarded_call@H@@QAEH$$QAV<lambda_995298e7d72eb4c2aab26c0585b3abe5>@@AAV<lambda_275893d493268fdec8709772e3fcec0e>@@$$QAV<lambda_293819299cbf9a7022e18b56a874bb5c>@@@Z 1004cafc f i libucrt:onexit.obj
 0001:0004bb61       ??$__acrt_lock_and_call@V<lambda_275893d493268fdec8709772e3fcec0e>@@@@YAHW4__acrt_lock_id@@$$QAV<lambda_275893d493268fdec8709772e3fcec0e>@@@Z 1004cb61 f i libucrt:onexit.obj
 0001:0004bb93       ??$__acrt_lock_and_call@V<lambda_4e60a939b0d047cfe11ddc22648dfba9>@@@@YAHW4__acrt_lock_id@@$$QAV<lambda_4e60a939b0d047cfe11ddc22648dfba9>@@@Z 1004cb93 f i libucrt:onexit.obj
 0001:0004bbc5       ??$__crt_fast_encode_pointer@P6AHXZ@@YAP6AHXZQ6AHXZ@Z 1004cbc5 f i libucrt:onexit.obj
 0001:0004bc72       ??0?$__crt_unique_heap_ptr@P6AXXZU__crt_internal_free_policy@@@@QAE@QAP6AXXZ@Z 1004cc72 f i libucrt:onexit.obj
 0001:0004bc86       ??1?$__crt_unique_heap_ptr@P6AXXZU__crt_internal_free_policy@@@@QAE@XZ 1004cc86 f i libucrt:onexit.obj
 0001:0004bfc1       ?detach@?$__crt_unique_heap_ptr@P6AXXZU__crt_internal_free_policy@@@@QAEPAP6AXXZXZ 1004cfc1 f i libucrt:onexit.obj
 0001:0004bfc7       ?release@?$__crt_unique_heap_ptr@P6AXXZU__crt_internal_free_policy@@@@QAEXXZ 1004cfc7 f i libucrt:onexit.obj
 0001:0004bfdd       __crt_at_quick_exit        1004cfdd f   libucrt:onexit.obj
 0001:0004bff8       __crt_atexit               1004cff8 f   libucrt:onexit.obj
 0001:0004c013       __execute_onexit_table     1004d013 f   libucrt:onexit.obj
 0001:0004c037       __initialize_onexit_table  1004d037 f   libucrt:onexit.obj
 0001:0004c083       __register_onexit_function 1004d083 f   libucrt:onexit.obj
 0001:0004c1ea       ?initialize@?$dual_state_global@PAU__crt_locale_data@@@__crt_state_management@@QAEXQAU__crt_locale_data@@@Z 1004d1ea f i libucrt:initialization.obj
 0001:0004c227       ___acrt_initialize         1004d227 f   libucrt:initialization.obj
 0001:0004c23d       ___acrt_thread_attach      1004d23d f   libucrt:initialization.obj
 0001:0004c24a       ___acrt_thread_detach      1004d24a f   libucrt:initialization.obj
 0001:0004c254       ___acrt_uninitialize       1004d254 f   libucrt:initialization.obj
 0001:0004c26a       ___acrt_uninitialize_critical 1004d26a f   libucrt:initialization.obj
 0001:0004c29b       __get_terminate            1004d29b f   libucrt:terminate.obj
 0001:0004c2b1       _set_terminate             1004d2b1 f   libucrt:terminate.obj
 0001:0004c2d9       _terminate                 1004d2d9 f   libucrt:terminate.obj
 0001:0004c324       ??$__crt_interlocked_exchange_pointer@X$$T@@YAPAXPDSAX$$T@Z 1004d324 f i libucrt:free_base.obj
 0001:0004c33c       ___acrt_get_msvcrt_heap_handle 1004d33c f   libucrt:free_base.obj
 0001:0004c3cd       __free_base                1004d3cd f   libucrt:free_base.obj
 0001:0004c415       __malloc_base              1004d415 f   libucrt:malloc_base.obj
 0001:0004c4e6       _strcpy_s                  1004d4e6 f   libucrt:strcpy_s.obj
 0001:0004c556       __set_abort_behavior       1004d556 f   libucrt:abort.obj
 0001:0004c57f       _abort                     1004d57f f   libucrt:abort.obj
 0001:0004c5d2       __calloc_base              1004d5d2 f   libucrt:calloc_base.obj
 0001:0004c646       ??$is_overflow_condition@K@__crt_strtox@@YA_NIK@Z 1004d646 f i libucrt:atox.obj
 0001:0004c685       ??$is_overflow_condition@_K@__crt_strtox@@YA_NI_K@Z 1004d685 f i libucrt:atox.obj
 0001:0004c6d8       ??$make_c_string_character_source@D$$T@__crt_strtox@@YA?AV?$c_string_character_source@D@0@QBD$$T@Z 1004d6d8 f i libucrt:atox.obj
 0001:0004c6f9       ??$make_c_string_character_source@_W$$T@__crt_strtox@@YA?AV?$c_string_character_source@_W@0@QB_W$$T@Z 1004d6f9 f i libucrt:atox.obj
 0001:0004c71a       ??$parse_integer@KV?$c_string_character_source@D@__crt_strtox@@@__crt_strtox@@YAKQAU__crt_locale_pointers@@V?$c_string_character_source@D@0@H_N@Z 1004d71a f i libucrt:atox.obj
 0001:0004c9cc       ??$parse_integer@KV?$c_string_character_source@_W@__crt_strtox@@@__crt_strtox@@YAKQAU__crt_locale_pointers@@V?$c_string_character_source@_W@0@H_N@Z 1004d9cc f i libucrt:atox.obj
 0001:0004d26a       ??$parse_integer@_KV?$c_string_character_source@D@__crt_strtox@@@__crt_strtox@@YA_KQAU__crt_locale_pointers@@V?$c_string_character_source@D@0@H_N@Z 1004e26a f i libucrt:atox.obj
 0001:0004d5b9       ??$parse_integer@_KV?$c_string_character_source@_W@__crt_strtox@@@__crt_strtox@@YA_KQAU__crt_locale_pointers@@V?$c_string_character_source@_W@0@H_N@Z 1004e5b9 f i libucrt:atox.obj
 0001:0004dd2b       ??$parse_integer_from_string@JD$$T@__crt_strtox@@YAJQBD$$THQAU__crt_locale_pointers@@@Z 1004ed2b f i libucrt:atox.obj
 0001:0004dd63       ??$parse_integer_from_string@J_W$$T@__crt_strtox@@YAJQB_W$$THQAU__crt_locale_pointers@@@Z 1004ed63 f i libucrt:atox.obj
 0001:0004dd9b       ??$parse_integer_from_string@_JD$$T@__crt_strtox@@YA_JQBD$$THQAU__crt_locale_pointers@@@Z 1004ed9b f i libucrt:atox.obj
 0001:0004ddd3       ??$parse_integer_from_string@_J_W$$T@__crt_strtox@@YA_JQB_W$$THQAU__crt_locale_pointers@@@Z 1004edd3 f i libucrt:atox.obj
 0001:0004de0b       ??0?$c_string_character_source@D@__crt_strtox@@QAE@QBDQAPBD@Z 1004ee0b f i libucrt:atox.obj
 0001:0004de2e       ??0?$c_string_character_source@_W@__crt_strtox@@QAE@QB_WQAPB_W@Z 1004ee2e f i libucrt:atox.obj
 0001:0004de51       ??1?$c_string_character_source@D@__crt_strtox@@QAE@XZ 1004ee51 f i libucrt:atox.obj
 0001:0004de60       ??1?$c_string_character_source@_W@__crt_strtox@@QAE@XZ 1004ee60 f i libucrt:atox.obj
 0001:0004de6f       ?get@?$c_string_character_source@D@__crt_strtox@@QAEDXZ 1004ee6f f i libucrt:atox.obj
 0001:0004de79       ?get@?$c_string_character_source@_W@__crt_strtox@@QAE_WXZ 1004ee79 f i libucrt:atox.obj
 0001:0004de86       ?is_space@__crt_strtox@@YA_NDQAU__crt_locale_pointers@@@Z 1004ee86 f i libucrt:atox.obj
 0001:0004deac       ?is_space@__crt_strtox@@YA_N_WPAU__crt_locale_pointers@@@Z 1004eeac f i libucrt:atox.obj
 0001:0004decb       ?maximum_signed_value@__crt_strtox@@YAJK@Z 1004eecb f i libucrt:atox.obj
 0001:0004ded1       ?maximum_signed_value@__crt_strtox@@YA_J_K@Z 1004eed1 f i libucrt:atox.obj
 0001:0004dedc       ?minimum_signed_value@__crt_strtox@@YAJK@Z 1004eedc f i libucrt:atox.obj
 0001:0004dee2       ?minimum_signed_value@__crt_strtox@@YA_J_K@Z 1004eee2 f i libucrt:atox.obj
 0001:0004deec       ?parse_digit@__crt_strtox@@YAID@Z 1004eeec f i libucrt:atox.obj
 0001:0004df34       ?parse_digit@__crt_strtox@@YAI_W@Z 1004ef34 f i libucrt:atox.obj
 0001:0004e191       ?restore_state@?$c_string_character_source@D@__crt_strtox@@QAE_NQBD@Z 1004f191 f i libucrt:atox.obj
 0001:0004e1a5       ?restore_state@?$c_string_character_source@_W@__crt_strtox@@QAE_NQB_W@Z 1004f1a5 f i libucrt:atox.obj
 0001:0004e1b9       ?save_state@?$c_string_character_source@D@__crt_strtox@@QBEPBDXZ 1004f1b9 f i libucrt:atox.obj
 0001:0004e1bc       ?save_state@?$c_string_character_source@_W@__crt_strtox@@QBEPB_WXZ 1004f1bc f i libucrt:atox.obj
 0001:0004e1bf       ?unget@?$c_string_character_source@D@__crt_strtox@@QAEXD@Z 1004f1bf f i libucrt:atox.obj
 0001:0004e1f1       ?unget@?$c_string_character_source@_W@__crt_strtox@@QAEX_W@Z 1004f1f1 f i libucrt:atox.obj
 0001:0004e228       ?validate@?$c_string_character_source@D@__crt_strtox@@QBE_NXZ 1004f228 f i libucrt:atox.obj
 0001:0004e249       ?validate@?$c_string_character_source@_W@__crt_strtox@@QBE_NXZ 1004f249 f i libucrt:atox.obj
 0001:0004e26a       ?wide_character_to_digit@__crt_strtox@@YAH_W@Z 1004f26a f i libucrt:atox.obj
 0001:0004e473       ___acrt_get_locale_data_prefix 1004f473 f i libucrt:atox.obj
 0001:0004e482       __atoi64                   1004f482 f   libucrt:atox.obj
 0001:0004e4b6       __atoi64_l                 1004f4b6 f   libucrt:atox.obj
 0001:0004e4eb       __atoi_l                   1004f4eb f   libucrt:atox.obj
 0001:0004e520       __atol_l                   1004f520 f   libucrt:atox.obj
 0001:0004e555       __atoll_l                  1004f555 f   libucrt:atox.obj
 0001:0004e58a       __chvalidchk_l             1004f58a f i libucrt:atox.obj
 0001:0004e5be       __ischartype_l             1004f5be f i libucrt:atox.obj
 0001:0004e5fd       __wtoi                     1004f5fd f   libucrt:atox.obj
 0001:0004e631       __wtoi64                   1004f631 f   libucrt:atox.obj
 0001:0004e665       __wtoi64_l                 1004f665 f   libucrt:atox.obj
 0001:0004e69a       __wtoi_l                   1004f69a f   libucrt:atox.obj
 0001:0004e6cf       __wtol                     1004f6cf f   libucrt:atox.obj
 0001:0004e703       __wtol_l                   1004f703 f   libucrt:atox.obj
 0001:0004e738       __wtoll                    1004f738 f   libucrt:atox.obj
 0001:0004e76c       __wtoll_l                  1004f76c f   libucrt:atox.obj
 0001:0004e7a1       _atoi                      1004f7a1 f   libucrt:atox.obj
 0001:0004e7d5       _atol                      1004f7d5 f   libucrt:atox.obj
 0001:0004e809       _atoll                     1004f809 f   libucrt:atox.obj
 0001:0004e83d       ??$__crt_fast_decode_pointer@P6AXPB_W00II@Z@@YAP6AXPB_W00II@ZQ6AX000II@Z@Z 1004f83d f i libucrt:invalid_parameter.obj
 0001:0004e858       ??$__crt_fast_encode_pointer@P6AXPB_W00II@Z@@YAP6AXPB_W00II@ZQ6AX000II@Z@Z 1004f858 f i libucrt:invalid_parameter.obj
 0001:0004e87e       ?initialize@?$dual_state_global@P6AXPB_W00II@Z@__crt_state_management@@QAEXQ6AXPB_W00II@Z@Z 1004f87e f i libucrt:invalid_parameter.obj
 0001:0004e8bb       ?value@?$dual_state_global@P6AXPB_W00II@Z@__crt_state_management@@QAEAAP6AXPB_W00II@ZXZ 1004f8bb f i libucrt:invalid_parameter.obj
 0001:0004e8be       ___acrt_call_reportfault   1004f8be f   libucrt:invalid_parameter.obj
 0001:0004ea47       ___acrt_initialize_invalid_parameter_handler 1004fa47 f   libucrt:invalid_parameter.obj
 0001:0004ea60       __get_invalid_parameter_handler 1004fa60 f   libucrt:invalid_parameter.obj
 0001:0004ea77       __get_thread_local_invalid_parameter_handler 1004fa77 f   libucrt:invalid_parameter.obj
 0001:0004ea8c       __invalid_parameter        1004fa8c f   libucrt:invalid_parameter.obj
 0001:0004eb25       __invalid_parameter_noinfo 1004fb25 f   libucrt:invalid_parameter.obj
 0001:0004eb39       __invalid_parameter_noinfo_noreturn 1004fb39 f   libucrt:invalid_parameter.obj
 0001:0004eb5d       __invoke_watson            1004fb5d f   libucrt:invalid_parameter.obj
 0001:0004eb9c       __set_invalid_parameter_handler 1004fb9c f   libucrt:invalid_parameter.obj
 0001:0004ebd8       __set_thread_local_invalid_parameter_handler 1004fbd8 f   libucrt:invalid_parameter.obj
 0001:0004ebfc       ___acrt_errno_from_os_error 1004fbfc f   libucrt:errno.obj
 0001:0004ec4f       ___acrt_errno_map_os_error 1004fc4f f   libucrt:errno.obj
 0001:0004ec7a       ___doserrno                1004fc7a f   libucrt:errno.obj
 0001:0004ec91       __errno                    1004fc91 f   libucrt:errno.obj
 0001:0004eca8       __get_doserrno             1004fca8 f   libucrt:errno.obj
 0001:0004ecd6       __get_errno                1004fcd6 f   libucrt:errno.obj
 0001:0004ed04       __set_doserrno             1004fd04 f   libucrt:errno.obj
 0001:0004ed2d       __set_errno                1004fd2d f   libucrt:errno.obj
 0001:0004edad       ??$?B$$A6GHPA_WKJ@Z@__crt_fast_encoded_nullptr_t@@QBEP6GHPA_WKJ@ZXZ 1004fdad f i libucrt:winapi_thunks.obj
 0001:0004edcb       ??$?RV<lambda_9227be29367c048ad7fd93a717dcb1a1>@@AAV<lambda_a463b7b0560cfcaf9b17f27c6ef46564>@@V<lambda_ccea11b5727ccf69be64f5f5d9a08d9f>@@@?$__crt_seh_guarded_call@H@@QAEH$$QAV<lambda_9227be29367c048ad7fd93a717dcb1a1>@@AAV<lambda_a463b7b0560cfcaf9b17f27c6ef46564>@@$$QAV<lambda_ccea11b5727ccf69be64f5f5d9a08d9f>@@@Z 1004fdcb f i libucrt:winapi_thunks.obj
 0001:0004ee70       ??$__acrt_lock_and_call@V<lambda_a463b7b0560cfcaf9b17f27c6ef46564>@@@@YAHW4__acrt_lock_id@@$$QAV<lambda_a463b7b0560cfcaf9b17f27c6ef46564>@@@Z 1004fe70 f i libucrt:winapi_thunks.obj
 0001:0004eea2       ??$__crt_fast_decode_pointer@P6GHPA_WKJ@Z@@YAP6GHPA_WKJ@ZQ6GH0KJ@Z@Z 1004fea2 f i libucrt:winapi_thunks.obj
 0001:0004eebd       ??$__crt_fast_encode_pointer@P6GHPA_WKJ@Z@@YAP6GHPA_WKJ@ZQ6GH0KJ@Z@Z 1004febd f i libucrt:winapi_thunks.obj
 0001:0004f5ea       ___acrt_AreFileApisANSI@0  100505ea f   libucrt:winapi_thunks.obj
 0001:0004f64b       ___acrt_CompareStringEx@36 1005064b f   libucrt:winapi_thunks.obj
 0001:0004f6dc       ___acrt_EnumSystemLocalesEx@16 100506dc f   libucrt:winapi_thunks.obj
 0001:0004f764       ___acrt_FlsAlloc@4         10050764 f   libucrt:winapi_thunks.obj
 0001:0004f7cf       ___acrt_FlsFree@4          100507cf f   libucrt:winapi_thunks.obj
 0001:0004f83a       ___acrt_FlsGetValue@4      1005083a f   libucrt:winapi_thunks.obj
 0001:0004f8a5       ___acrt_FlsSetValue@8      100508a5 f   libucrt:winapi_thunks.obj
 0001:0004f914       ___acrt_GetDateFormatEx@28 10050914 f   libucrt:winapi_thunks.obj
 0001:0004f9b6       ___acrt_GetEnabledXStateFeatures@0 100509b6 f   libucrt:winapi_thunks.obj
 0001:0004fa18       ___acrt_GetFileInformationByHandleEx@16 10050a18 f   libucrt:winapi_thunks.obj
 0001:0004fa93       ___acrt_GetLocaleInfoEx@16 10050a93 f   libucrt:winapi_thunks.obj
 0001:0004fb17       ___acrt_GetSystemTimePreciseAsFileTime@4 10050b17 f   libucrt:winapi_thunks.obj
 0001:0004fb82       ___acrt_GetTimeFormatEx@24 10050b82 f   libucrt:winapi_thunks.obj
 0001:0004fc0e       ___acrt_GetUserDefaultLocaleName@8 10050c0e f   libucrt:winapi_thunks.obj
 0001:0004fc8e       ___acrt_GetXStateFeaturesMask@8 10050c8e f   libucrt:winapi_thunks.obj
 0001:0004fcfa       ___acrt_InitializeCriticalSectionEx@12 10050cfa f   libucrt:winapi_thunks.obj
 0001:0004fd74       ___acrt_IsValidLocaleName@4 10050d74 f   libucrt:winapi_thunks.obj
 0001:0004fdef       ___acrt_LCIDToLocaleName@16 10050def f   libucrt:winapi_thunks.obj
 0001:0004fe73       ___acrt_LCMapStringEx@36   10050e73 f   libucrt:winapi_thunks.obj
 0001:0004ff1d       ___acrt_LocaleNameToLCID@8 10050f1d f   libucrt:winapi_thunks.obj
 0001:0004ff90       ___acrt_LocateXStateFeature@12 10050f90 f   libucrt:winapi_thunks.obj
 0001:0004ffe7       ___acrt_MessageBoxA@16     10050fe7 f   libucrt:winapi_thunks.obj
 0001:00050042       ___acrt_MessageBoxW@16     10051042 f   libucrt:winapi_thunks.obj
 0001:0005009d       ___acrt_RoInitialize@4     1005109d f   libucrt:winapi_thunks.obj
 0001:00050103       ___acrt_RoUninitialize@0   10051103 f   libucrt:winapi_thunks.obj
 0001:0005015e       ___acrt_RtlGenRandom@8     1005115e f   libucrt:winapi_thunks.obj
 0001:000501ca       ___acrt_SetThreadStackGuarantee@4 100511ca f   libucrt:winapi_thunks.obj
 0001:00050230       ___acrt_can_show_message_box 10051230 f   libucrt:winapi_thunks.obj
 0001:0005024f       ___acrt_can_use_vista_locale_apis 1005124f f   libucrt:winapi_thunks.obj
 0001:0005025e       ___acrt_can_use_xstate_apis 1005125e f   libucrt:winapi_thunks.obj
 0001:0005026d       ___acrt_get_parent_window  1005126d f   libucrt:winapi_thunks.obj
 0001:0005030b       ___acrt_initialize_winapi_thunks 1005130b f   libucrt:winapi_thunks.obj
 0001:0005033a       ___acrt_is_interactive     1005133a f   libucrt:winapi_thunks.obj
 0001:00050409       ___acrt_is_packaged_app    10051409 f   libucrt:winapi_thunks.obj
 0001:000504b1       ___acrt_uninitialize_winapi_thunks 100514b1 f   libucrt:winapi_thunks.obj
 0001:000504f4       ??0__crt_stdio_stream@@QAE@QAU__crt_stdio_stream_data@@@Z 100514f4 f i libucrt:closeall.obj
 0001:00050508       __fcloseall                10051508 f   libucrt:closeall.obj
 0001:000505d0       ___acrt_stdio_flush_nolock 100515d0 f   libucrt:fflush.obj
 0001:0005064f       __fflush_nolock            1005164f f   libucrt:fflush.obj
 0001:000506a7       __flushall                 100516a7 f   libucrt:fflush.obj
 0001:000507c0       _fflush                    100517c0 f   libucrt:fflush.obj
 0001:0005082f       ?has_crt_buffer@__crt_stdio_stream@@QBE_NXZ 1005182f f i libucrt:_freebuf.obj
 0001:0005083e       ___acrt_stdio_free_buffer_nolock 1005183e f   libucrt:_freebuf.obj
 0001:00050a7b       ___acrt_initialize_lowio   10051a7b f   libucrt:ioinit.obj
 0001:00050ae6       ___acrt_uninitialize_lowio 10051ae6 f   libucrt:ioinit.obj
 0001:00050b38       ___isascii                 10051b38 f i libucrt:_ctype.obj
 0001:00050b4e       ___iscsym                  10051b4e f i libucrt:_ctype.obj
 0001:00050b78       ___iscsymf                 10051b78 f i libucrt:_ctype.obj
 0001:00050b9e       ___toascii                 10051b9e f i libucrt:_ctype.obj
 0001:00050bae       __isalnum_l                10051bae f i libucrt:_ctype.obj
 0001:00050bf7       __isalpha_l                10051bf7 f i libucrt:_ctype.obj
 0001:00050c40       __isblank_l                10051c40 f i libucrt:_ctype.obj
 0001:00050c93       __iscntrl_l                10051c93 f i libucrt:_ctype.obj
 0001:00050cd9       __iscsym_l                 10051cd9 f i libucrt:_ctype.obj
 0001:00050d04       __iscsymf_l                10051d04 f i libucrt:_ctype.obj
 0001:00050d2f       __isdigit_l                10051d2f f i libucrt:_ctype.obj
 0001:00050d75       __isgraph_l                10051d75 f i libucrt:_ctype.obj
 0001:00050dbe       __islower_l                10051dbe f i libucrt:_ctype.obj
 0001:00050e04       __isprint_l                10051e04 f i libucrt:_ctype.obj
 0001:00050e4d       __ispunct_l                10051e4d f i libucrt:_ctype.obj
 0001:00050e93       __isspace_l                10051e93 f i libucrt:_ctype.obj
 0001:00050ed9       __isupper_l                10051ed9 f i libucrt:_ctype.obj
 0001:00050f1f       __isxdigit_l               10051f1f f i libucrt:_ctype.obj
 0001:00050f68       _isalnum                   10051f68 f i libucrt:_ctype.obj
 0001:00050fa2       _isalpha                   10051fa2 f i libucrt:_ctype.obj
 0001:00050fdc       _isblank                   10051fdc f i libucrt:_ctype.obj
 0001:00051020       _iscntrl                   10052020 f i libucrt:_ctype.obj
 0001:00051058       _isdigit                   10052058 f i libucrt:_ctype.obj
 0001:00051090       _isgraph                   10052090 f i libucrt:_ctype.obj
 0001:000510ca       _islower                   100520ca f i libucrt:_ctype.obj
 0001:00051102       _isprint                   10052102 f i libucrt:_ctype.obj
 0001:0005113c       _ispunct                   1005213c f i libucrt:_ctype.obj
 0001:00051174       _isspace                   10052174 f i libucrt:_ctype.obj
 0001:000511ac       _isupper                   100521ac f i libucrt:_ctype.obj
 0001:000511e4       _isxdigit                  100521e4 f i libucrt:_ctype.obj
 0001:000515dc       __tolower                  100525dc f   libucrt:tolower_toupper.obj
 0001:000515ec       __tolower_l                100525ec f   libucrt:tolower_toupper.obj
 0001:0005160c       __toupper                  1005260c f   libucrt:tolower_toupper.obj
 0001:0005161c       __toupper_l                1005261c f   libucrt:tolower_toupper.obj
 0001:0005163c       _tolower                   1005263c f   libucrt:tolower_toupper.obj
 0001:00051678       _toupper                   10052678 f   libucrt:tolower_toupper.obj
 0001:000516b4       ??$make_c_string_character_source@DPAPAD@__crt_strtox@@YA?AV?$c_string_character_source@D@0@QBDQAPAD@Z 100526b4 f i libucrt:strtox.obj
 0001:000516d5       ??$make_c_string_character_source@_WPAPA_W@__crt_strtox@@YA?AV?$c_string_character_source@_W@0@QB_WQAPA_W@Z 100526d5 f i libucrt:strtox.obj
 0001:000516f6       ??$parse_integer_from_string@JDPAPAD@__crt_strtox@@YAJQBDQAPADHQAU__crt_locale_pointers@@@Z 100526f6 f i libucrt:strtox.obj
 0001:0005172e       ??$parse_integer_from_string@J_WPAPA_W@__crt_strtox@@YAJQB_WQAPA_WHQAU__crt_locale_pointers@@@Z 1005272e f i libucrt:strtox.obj
 0001:00051766       ??$parse_integer_from_string@KDPAPAD@__crt_strtox@@YAKQBDQAPADHQAU__crt_locale_pointers@@@Z 10052766 f i libucrt:strtox.obj
 0001:0005179e       ??$parse_integer_from_string@K_WPAPA_W@__crt_strtox@@YAKQB_WQAPA_WHQAU__crt_locale_pointers@@@Z 1005279e f i libucrt:strtox.obj
 0001:000517d6       ??$parse_integer_from_string@_JDPAPAD@__crt_strtox@@YA_JQBDQAPADHQAU__crt_locale_pointers@@@Z 100527d6 f i libucrt:strtox.obj
 0001:0005180e       ??$parse_integer_from_string@_J_WPAPA_W@__crt_strtox@@YA_JQB_WQAPA_WHQAU__crt_locale_pointers@@@Z 1005280e f i libucrt:strtox.obj
 0001:00051846       ??$parse_integer_from_string@_KDPAPAD@__crt_strtox@@YA_KQBDQAPADHQAU__crt_locale_pointers@@@Z 10052846 f i libucrt:strtox.obj
 0001:0005187e       ??$parse_integer_from_string@_K_WPAPA_W@__crt_strtox@@YA_KQB_WQAPA_WHQAU__crt_locale_pointers@@@Z 1005287e f i libucrt:strtox.obj
 0001:000518b6       __strtoi64                 100528b6 f   libucrt:strtox.obj
 0001:000518ed       __strtoi64_l               100528ed f   libucrt:strtox.obj
 0001:00051925       __strtoimax_l              10052925 f   libucrt:strtox.obj
 0001:0005195d       __strtol_l                 1005295d f   libucrt:strtox.obj
 0001:00051995       __strtoll_l                10052995 f   libucrt:strtox.obj
 0001:000519cd       __strtoui64                100529cd f   libucrt:strtox.obj
 0001:00051a04       __strtoui64_l              10052a04 f   libucrt:strtox.obj
 0001:00051a3c       __strtoul_l                10052a3c f   libucrt:strtox.obj
 0001:00051a74       __strtoull_l               10052a74 f   libucrt:strtox.obj
 0001:00051aac       __strtoumax_l              10052aac f   libucrt:strtox.obj
 0001:00051ae4       __wcstoi64                 10052ae4 f   libucrt:strtox.obj
 0001:00051b1b       __wcstoi64_l               10052b1b f   libucrt:strtox.obj
 0001:00051b53       __wcstoimax_l              10052b53 f   libucrt:strtox.obj
 0001:00051b8b       __wcstol_l                 10052b8b f   libucrt:strtox.obj
 0001:00051bc3       __wcstoll_l                10052bc3 f   libucrt:strtox.obj
 0001:00051bfb       __wcstoui64                10052bfb f   libucrt:strtox.obj
 0001:00051c32       __wcstoui64_l              10052c32 f   libucrt:strtox.obj
 0001:00051c6a       __wcstoul_l                10052c6a f   libucrt:strtox.obj
 0001:00051ca2       __wcstoull_l               10052ca2 f   libucrt:strtox.obj
 0001:00051cda       __wcstoumax_l              10052cda f   libucrt:strtox.obj
 0001:00051d12       _strtoimax                 10052d12 f   libucrt:strtox.obj
 0001:00051d49       _strtol                    10052d49 f   libucrt:strtox.obj
 0001:00051d80       _strtoll                   10052d80 f   libucrt:strtox.obj
 0001:00051db7       _strtoul                   10052db7 f   libucrt:strtox.obj
 0001:00051dee       _strtoull                  10052dee f   libucrt:strtox.obj
 0001:00051e25       _strtoumax                 10052e25 f   libucrt:strtox.obj
 0001:00051e5c       _wcstoimax                 10052e5c f   libucrt:strtox.obj
 0001:00051e93       _wcstol                    10052e93 f   libucrt:strtox.obj
 0001:00051eca       _wcstoll                   10052eca f   libucrt:strtox.obj
 0001:00051f01       _wcstoul                   10052f01 f   libucrt:strtox.obj
 0001:00051f38       _wcstoull                  10052f38 f   libucrt:strtox.obj
 0001:00051f6f       _wcstoumax                 10052f6f f   libucrt:strtox.obj
 0001:00051fa6       __mbtowc_l                 10052fa6 f   libucrt:mbtowc.obj
 0001:000520de       _mbtowc                    100530de f   libucrt:mbtowc.obj
 0001:000520fe       __wctomb_l                 100530fe f   libucrt:wctomb.obj
 0001:00052165       __wctomb_s_l               10053165 f   libucrt:wctomb.obj
 0001:000522ce       _wctomb                    100532ce f   libucrt:wctomb.obj
 0001:0005230f       _wctomb_s                  1005330f f   libucrt:wctomb.obj
 0001:00052a27       ??1?$__crt_simd_cleanup_guard@$00@@QAE@XZ 10053a27 f i libucrt:strnlen.obj
 0001:00052a2b       ??1?$__crt_simd_cleanup_guard@$0A@@@QAE@XZ 10053a2b f i libucrt:strnlen.obj
 0001:00052a2c       ?compare_equals@?$__crt_simd_traits@$00E@@SA?AT__m256i@@T2@0@Z 10053a2c f i libucrt:strnlen.obj
 0001:00052a31       ?compare_equals@?$__crt_simd_traits@$00G@@SA?AT__m256i@@T2@0@Z 10053a31 f i libucrt:strnlen.obj
 0001:00052a36       ?compare_equals@?$__crt_simd_traits@$0A@E@@SA?AT__m128i@@T2@0@Z 10053a36 f i libucrt:strnlen.obj
 0001:00052a3b       ?compare_equals@?$__crt_simd_traits@$0A@G@@SA?AT__m128i@@T2@0@Z 10053a3b f i libucrt:strnlen.obj
 0001:00052a40       ?compute_byte_mask@?$__crt_simd_pack_traits@$00@@SAHT__m256i@@@Z 10053a40 f i libucrt:strnlen.obj
 0001:00052a45       ?compute_byte_mask@?$__crt_simd_pack_traits@$0A@@@SAHT__m128i@@@Z 10053a45 f i libucrt:strnlen.obj
 0001:00052a4a       ?get_zero_pack@?$__crt_simd_pack_traits@$00@@SA?AT__m256i@@XZ 10053a4a f i libucrt:strnlen.obj
 0001:00052a4f       ?get_zero_pack@?$__crt_simd_pack_traits@$0A@@@SA?AT__m128i@@XZ 10053a4f f i libucrt:strnlen.obj
 0001:00052a54       _strnlen                   10053a54 f   libucrt:strnlen.obj
 0001:00052bc4       _wcsnlen                   10053bc4 f   libucrt:strnlen.obj
 0001:00052de8       ??$?RU__acrt_ptd@@@__crt_internal_free_policy@@QBEXQBU__acrt_ptd@@@Z 10053de8 f i libucrt:per_thread_data.obj
 0001:00052dfe       ??$?RV<lambda_3518db117f0e7cdb002338c5d3c47b6c>@@AAV<lambda_b2ea41f6bbb362cd97d94c6828d90b61>@@V<lambda_abdedf541bb04549bc734292b4a045d4>@@@?$__crt_seh_guarded_call@X@@QAEX$$QAV<lambda_3518db117f0e7cdb002338c5d3c47b6c>@@AAV<lambda_b2ea41f6bbb362cd97d94c6828d90b61>@@$$QAV<lambda_abdedf541bb04549bc734292b4a045d4>@@@Z 10053dfe f i libucrt:per_thread_data.obj
 0001:00052e62       ??$?RV<lambda_51b6e8b1eb166f2a3faf91f424b38130>@@AAV<lambda_6250bd4b2a391816dd638c3bf72b0bcb>@@V<lambda_0b5a4a3e68152e1d9b943535f5f47bed>@@@?$__crt_seh_guarded_call@X@@QAEX$$QAV<lambda_51b6e8b1eb166f2a3faf91f424b38130>@@AAV<lambda_6250bd4b2a391816dd638c3bf72b0bcb>@@$$QAV<lambda_0b5a4a3e68152e1d9b943535f5f47bed>@@@Z 10053e62 f i libucrt:per_thread_data.obj
 0001:00052edb       ??$?RV<lambda_5b71d36f03204c0beab531769a5b5694>@@AAV<lambda_be2b3da3f62db62e9dad5dc70221a656>@@V<lambda_8f9ce462984622f9bf76b59e2aaaf805>@@@?$__crt_seh_guarded_call@X@@QAEX$$QAV<lambda_5b71d36f03204c0beab531769a5b5694>@@AAV<lambda_be2b3da3f62db62e9dad5dc70221a656>@@$$QAV<lambda_8f9ce462984622f9bf76b59e2aaaf805>@@@Z 10053edb f i libucrt:per_thread_data.obj
 0001:00052f38       ??$?RV<lambda_9df27f884b057bc3edfc946cb5b7cf47>@@AAV<lambda_e69574bed617af4e071282c136b37893>@@V<lambda_cc0d902bcbbeb830f749456577db4721>@@@?$__crt_seh_guarded_call@X@@QAEX$$QAV<lambda_9df27f884b057bc3edfc946cb5b7cf47>@@AAV<lambda_e69574bed617af4e071282c136b37893>@@$$QAV<lambda_cc0d902bcbbeb830f749456577db4721>@@@Z 10053f38 f i libucrt:per_thread_data.obj
 0001:00052f92       ??$__acrt_lock_and_call@V<lambda_6250bd4b2a391816dd638c3bf72b0bcb>@@@@YAXW4__acrt_lock_id@@$$QAV<lambda_6250bd4b2a391816dd638c3bf72b0bcb>@@@Z 10053f92 f i libucrt:per_thread_data.obj
 0001:00052fc4       ??$__acrt_lock_and_call@V<lambda_b2ea41f6bbb362cd97d94c6828d90b61>@@@@YAXW4__acrt_lock_id@@$$QAV<lambda_b2ea41f6bbb362cd97d94c6828d90b61>@@@Z 10053fc4 f i libucrt:per_thread_data.obj
 0001:00052ff6       ??$__acrt_lock_and_call@V<lambda_be2b3da3f62db62e9dad5dc70221a656>@@@@YAXW4__acrt_lock_id@@$$QAV<lambda_be2b3da3f62db62e9dad5dc70221a656>@@@Z 10053ff6 f i libucrt:per_thread_data.obj
 0001:00053028       ??$__acrt_lock_and_call@V<lambda_e69574bed617af4e071282c136b37893>@@@@YAXW4__acrt_lock_id@@$$QAV<lambda_e69574bed617af4e071282c136b37893>@@@Z 10054028 f i libucrt:per_thread_data.obj
 0001:00053161       ??0?$__crt_unique_heap_ptr@U__acrt_ptd@@U__crt_internal_free_policy@@@@QAE@QAU__acrt_ptd@@@Z 10054161 f i libucrt:per_thread_data.obj
 0001:00053175       ??0__crt_scoped_get_last_error_reset@@QAE@XZ 10054175 f i libucrt:per_thread_data.obj
 0001:0005318a       ??1?$__crt_unique_heap_ptr@U__acrt_ptd@@U__crt_internal_free_policy@@@@QAE@XZ 1005418a f i libucrt:per_thread_data.obj
 0001:000531a0       ??1__crt_scoped_get_last_error_reset@@QAE@XZ 100541a0 f i libucrt:per_thread_data.obj
 0001:000531ab       ??B?$__crt_unique_heap_ptr@U__acrt_ptd@@U__crt_internal_free_policy@@@@QBE_NXZ 100541ab f i libucrt:per_thread_data.obj
 0001:00053321       ?dangerous_get_state_array@?$dual_state_global@PAU__crt_locale_data@@@__crt_state_management@@QAEPAPAU__crt_locale_data@@XZ 10054321 f i libucrt:per_thread_data.obj
 0001:00053425       ?detach@?$__crt_unique_heap_ptr@U__acrt_ptd@@U__crt_internal_free_policy@@@@QAEPAU__acrt_ptd@@XZ 10054425 f i libucrt:per_thread_data.obj
 0001:0005342b       ?get@?$__crt_unique_heap_ptr@U__acrt_ptd@@U__crt_internal_free_policy@@@@QBEPAU__acrt_ptd@@XZ 1005442b f i libucrt:per_thread_data.obj
 0001:0005353a       ?is_valid@?$__crt_unique_heap_ptr@U__acrt_ptd@@U__crt_internal_free_policy@@@@QBE_NXZ 1005453a f i libucrt:per_thread_data.obj
 0001:00053544       ?release@?$__crt_unique_heap_ptr@U__acrt_ptd@@U__crt_internal_free_policy@@@@QAEXXZ 10054544 f i libucrt:per_thread_data.obj
 0001:000535d0       ?value@?$dual_state_global@PAU__crt_locale_data@@@__crt_state_management@@QAEAAPAU__crt_locale_data@@XZ 100545d0 f i libucrt:per_thread_data.obj
 0001:000535d3       ___acrt_freeptd            100545d3 f   libucrt:per_thread_data.obj
 0001:0005360a       ___acrt_getptd             1005460a f   libucrt:per_thread_data.obj
 0001:000536af       ___acrt_getptd_noexit      100546af f   libucrt:per_thread_data.obj
 0001:00053755       ___acrt_initialize_ptd     10054755 f   libucrt:per_thread_data.obj
 0001:0005378c       ___acrt_uninitialize_ptd   1005478c f   libucrt:per_thread_data.obj
 0001:000537ac       ___threadhandle            100547ac f   libucrt:per_thread_data.obj
 0001:000537b2       ___threadid                100547b2 f   libucrt:per_thread_data.obj
 0001:000537b8       ___acrt_update_locale_info 100547b8 f   libucrt:locale_update.obj
 0001:000537f0       ___acrt_update_multibyte_info 100547f0 f   libucrt:locale_update.obj
 0001:00053828       ?__acrt_fp_classify@@YA?AW4__acrt_fp_class@@ABN@Z 10054828 f i libucrt:cvt.obj
 0001:000538af       ?__acrt_fp_is_negative@@YA_NABN@Z 100548af f i libucrt:cvt.obj
 0001:00054322       ?strrchr@@YAPADQADH@Z      10055322 f i libucrt:cvt.obj
 0001:0005432f       ___acrt_fp_format          1005532f f   libucrt:cvt.obj
 0001:00054509       __fputwc_nolock            10055509 f   libucrt:fputwc.obj
 0001:00054678       __fputwchar                10055678 f   libucrt:fputwc.obj
 0001:00054698       __putwc_nolock             10055698 f   libucrt:fputwc.obj
 0001:000546a5       _fputwc                    100556a5 f   libucrt:fputwc.obj
 0001:0005473e       _putwc                     1005573e f   libucrt:fputwc.obj
 0001:0005474b       _putwchar                  1005574b f   libucrt:fputwc.obj
 0001:00054758       ?lowio_handle@__crt_stdio_stream@@QBEHXZ 10055758 f i libucrt:fileno.obj
 0001:0005475e       __fileno                   1005575e f   libucrt:fileno.obj
 0001:0005478d       __fputc_nolock             1005578d f   libucrt:fputc.obj
 0001:000547c0       __fputchar                 100557c0 f   libucrt:fputc.obj
 0001:000547e0       __putc_nolock              100557e0 f   libucrt:fputc.obj
 0001:000547ed       _fputc                     100557ed f   libucrt:fputc.obj
 0001:00054932       _putc                      10055932 f   libucrt:fputc.obj
 0001:0005493f       _putchar                   1005593f f   libucrt:fputc.obj
 0001:0005494c       __get_printf_count_output  1005594c f   libucrt:printf_count_output.obj
 0001:00054966       __set_printf_count_output  10055966 f   libucrt:printf_count_output.obj
 0001:0005499a       ?has_temporary_buffer@__crt_stdio_stream@@QBE_NXZ 1005599a f i libucrt:_sftbuf.obj
 0001:000549a9       ___acrt_stdio_begin_temporary_buffering_nolock 100559a9 f   libucrt:_sftbuf.obj
 0001:00054a8b       ___acrt_stdio_end_temporary_buffering_nolock 10055a8b f   libucrt:_sftbuf.obj
 0001:00054ad5       ??$?RU__crt_locale_data@@@__crt_internal_free_policy@@QBEXQBU__crt_locale_data@@@Z 10055ad5 f i libucrt:wsetlocale.obj
 0001:00054aeb       ??$?RU__crt_locale_pointers@@@__crt_internal_free_policy@@QBEXQBU__crt_locale_pointers@@@Z 10055aeb f i libucrt:wsetlocale.obj
 0001:00054b01       ??$?RU__crt_multibyte_data@@@__crt_internal_free_policy@@QBEXQBU__crt_multibyte_data@@@Z 10055b01 f i libucrt:wsetlocale.obj
 0001:00054b17       ??$?RV<lambda_70818de7b02deff9841e8b0962a60ed9>@@AAV<lambda_2af78c5f5901b1372d98f9ab3177dfa6>@@AAV<lambda_f51fe5fd7c79a33db34fc9310f277369>@@@?$__crt_seh_guarded_call@X@@QAEX$$QAV<lambda_70818de7b02deff9841e8b0962a60ed9>@@AAV<lambda_2af78c5f5901b1372d98f9ab3177dfa6>@@AAV<lambda_f51fe5fd7c79a33db34fc9310f277369>@@@Z 10055b17 f i libucrt:wsetlocale.obj
 0001:00054b60       ??$?RV<lambda_76aaead6e312921abc834cb00a638bdd>@@AAV<lambda_176e34f99554166dd2fac165c457248c>@@V<lambda_998ee1c9f4290b119b936bcd6215875a>@@@?$__crt_seh_guarded_call@X@@QAEX$$QAV<lambda_76aaead6e312921abc834cb00a638bdd>@@AAV<lambda_176e34f99554166dd2fac165c457248c>@@$$QAV<lambda_998ee1c9f4290b119b936bcd6215875a>@@@Z 10055b60 f i libucrt:wsetlocale.obj
 0001:00054bbc       ??$?RV<lambda_c76fdea48760d5f9368b465f31df4405>@@AAV<lambda_e378711a6f6581bf7f0efd7cdf97f5d9>@@V<lambda_e927a58b2a85c081d733e8c6192ae2d2>@@@?$__crt_seh_guarded_call@X@@QAEX$$QAV<lambda_c76fdea48760d5f9368b465f31df4405>@@AAV<lambda_e378711a6f6581bf7f0efd7cdf97f5d9>@@$$QAV<lambda_e927a58b2a85c081d733e8c6192ae2d2>@@@Z 10055bbc f i libucrt:wsetlocale.obj
 0001:00054c0f       ??$?RV<lambda_c9469061b39d205f0f236529d4a41659>@@AAV<lambda_b7fb1a997d3ebc0cc0186c5835178808>@@V<lambda_14b92c79d699846b5cc916cd4cf280e4>@@@?$__crt_seh_guarded_call@X@@QAEX$$QAV<lambda_c9469061b39d205f0f236529d4a41659>@@AAV<lambda_b7fb1a997d3ebc0cc0186c5835178808>@@$$QAV<lambda_14b92c79d699846b5cc916cd4cf280e4>@@@Z 10055c0f f i libucrt:wsetlocale.obj
 0001:00054c69       ??$__acrt_lock_and_call@V<lambda_176e34f99554166dd2fac165c457248c>@@@@YAXW4__acrt_lock_id@@$$QAV<lambda_176e34f99554166dd2fac165c457248c>@@@Z 10055c69 f i libucrt:wsetlocale.obj
 0001:00054c9b       ??$__acrt_lock_and_call@V<lambda_b7fb1a997d3ebc0cc0186c5835178808>@@@@YAXW4__acrt_lock_id@@$$QAV<lambda_b7fb1a997d3ebc0cc0186c5835178808>@@@Z 10055c9b f i libucrt:wsetlocale.obj
 0001:00054ccd       ??$__acrt_lock_and_call@V<lambda_e378711a6f6581bf7f0efd7cdf97f5d9>@@@@YAXW4__acrt_lock_id@@$$QAV<lambda_e378711a6f6581bf7f0efd7cdf97f5d9>@@@Z 10055ccd f i libucrt:wsetlocale.obj
 0001:00054cff       ??$__crt_call_and_cleanup@V<lambda_2af78c5f5901b1372d98f9ab3177dfa6>@@V<lambda_f51fe5fd7c79a33db34fc9310f277369>@@@@YAX$$QAV<lambda_2af78c5f5901b1372d98f9ab3177dfa6>@@$$QAV<lambda_f51fe5fd7c79a33db34fc9310f277369>@@@Z 10055cff f i libucrt:wsetlocale.obj
 0001:00054d22       ??$__vcrt_va_start_verify_argument_type@H@@YAXXZ 10055d22 f i libucrt:wsetlocale.obj
 0001:00054e47       ??0?$__crt_unique_heap_ptr@U__crt_locale_data@@U__crt_internal_free_policy@@@@QAE@QAU__crt_locale_data@@@Z 10055e47 f i libucrt:wsetlocale.obj
 0001:00054e5b       ??0?$__crt_unique_heap_ptr@U__crt_locale_pointers@@U__crt_internal_free_policy@@@@QAE@QAU__crt_locale_pointers@@@Z 10055e5b f i libucrt:wsetlocale.obj
 0001:00054e6f       ??0?$__crt_unique_heap_ptr@U__crt_multibyte_data@@U__crt_internal_free_policy@@@@QAE@QAU__crt_multibyte_data@@@Z 10055e6f f i libucrt:wsetlocale.obj
 0001:00054e83       ??1?$__crt_unique_heap_ptr@U__crt_locale_data@@U__crt_internal_free_policy@@@@QAE@XZ 10055e83 f i libucrt:wsetlocale.obj
 0001:00054e99       ??1?$__crt_unique_heap_ptr@U__crt_locale_pointers@@U__crt_internal_free_policy@@@@QAE@XZ 10055e99 f i libucrt:wsetlocale.obj
 0001:00054eaf       ??1?$__crt_unique_heap_ptr@U__crt_multibyte_data@@U__crt_internal_free_policy@@@@QAE@XZ 10055eaf f i libucrt:wsetlocale.obj
 0001:00054ec5       ??B?$__crt_unique_heap_ptr@U__crt_locale_data@@U__crt_internal_free_policy@@@@QBE_NXZ 10055ec5 f i libucrt:wsetlocale.obj
 0001:00054ecf       ??B?$__crt_unique_heap_ptr@U__crt_locale_pointers@@U__crt_internal_free_policy@@@@QBE_NXZ 10055ecf f i libucrt:wsetlocale.obj
 0001:00054ed9       ??B?$__crt_unique_heap_ptr@U__crt_multibyte_data@@U__crt_internal_free_policy@@@@QBE_NXZ 10055ed9 f i libucrt:wsetlocale.obj
 0001:00055102       ?detach@?$__crt_unique_heap_ptr@U__crt_locale_data@@U__crt_internal_free_policy@@@@QAEPAU__crt_locale_data@@XZ 10056102 f i libucrt:wsetlocale.obj
 0001:00055108       ?detach@?$__crt_unique_heap_ptr@U__crt_locale_pointers@@U__crt_internal_free_policy@@@@QAEPAU__crt_locale_pointers@@XZ 10056108 f i libucrt:wsetlocale.obj
 0001:0005510e       ?detach@?$__crt_unique_heap_ptr@U__crt_multibyte_data@@U__crt_internal_free_policy@@@@QAEPAU__crt_multibyte_data@@XZ 1005610e f i libucrt:wsetlocale.obj
 0001:00055114       ?get@?$__crt_unique_heap_ptr@U__crt_locale_data@@U__crt_internal_free_policy@@@@QBEPAU__crt_locale_data@@XZ 10056114 f i libucrt:wsetlocale.obj
 0001:00055117       ?get@?$__crt_unique_heap_ptr@U__crt_locale_pointers@@U__crt_internal_free_policy@@@@QBEPAU__crt_locale_pointers@@XZ 10056117 f i libucrt:wsetlocale.obj
 0001:0005511a       ?get@?$__crt_unique_heap_ptr@U__crt_multibyte_data@@U__crt_internal_free_policy@@@@QBEPAU__crt_multibyte_data@@XZ 1005611a f i libucrt:wsetlocale.obj
 0001:0005511d       ?is_valid@?$__crt_unique_heap_ptr@U__crt_locale_data@@U__crt_internal_free_policy@@@@QBE_NXZ 1005611d f i libucrt:wsetlocale.obj
 0001:00055127       ?is_valid@?$__crt_unique_heap_ptr@U__crt_locale_pointers@@U__crt_internal_free_policy@@@@QBE_NXZ 10056127 f i libucrt:wsetlocale.obj
 0001:00055131       ?is_valid@?$__crt_unique_heap_ptr@U__crt_multibyte_data@@U__crt_internal_free_policy@@@@QBE_NXZ 10056131 f i libucrt:wsetlocale.obj
 0001:0005513b       ?release@?$__crt_unique_heap_ptr@U__crt_locale_data@@U__crt_internal_free_policy@@@@QAEXXZ 1005613b f i libucrt:wsetlocale.obj
 0001:00055151       ?release@?$__crt_unique_heap_ptr@U__crt_locale_pointers@@U__crt_internal_free_policy@@@@QAEXXZ 10056151 f i libucrt:wsetlocale.obj
 0001:00055167       ?release@?$__crt_unique_heap_ptr@U__crt_multibyte_data@@U__crt_internal_free_policy@@@@QAEXXZ 10056167 f i libucrt:wsetlocale.obj
 0001:0005517d       ___acrt_copy_locale_name   1005617d f   libucrt:wsetlocale.obj
 0001:000551fc       ___acrt_set_locale_changed 100561fc f   libucrt:wsetlocale.obj
 0001:00055209       ___acrt_uninitialize_locale 10056209 f   libucrt:wsetlocale.obj
 0001:0005526f       ___lc_lctowcs              1005626f f   libucrt:wsetlocale.obj
 0001:000552fb       ___lc_wcstolc              100562fb f   libucrt:wsetlocale.obj
 0001:00055475       __configthreadlocale       10056475 f   libucrt:wsetlocale.obj
 0001:00055529       __create_locale            10056529 f   libucrt:wsetlocale.obj
 0001:000555a6       __expandlocale             100565a6 f   libucrt:wsetlocale.obj
 0001:000559fa       __free_locale              100569fa f   libucrt:wsetlocale.obj
 0001:00055ae0       __get_current_locale       10056ae0 f   libucrt:wsetlocale.obj
 0001:00055b79       __wcreate_locale           10056b79 f   libucrt:wsetlocale.obj
 0001:00055cc4       __wcscats                  10056cc4 f   libucrt:wsetlocale.obj
 0001:00055d15       __wsetlocale               10056d15 f   libucrt:wsetlocale.obj
 0001:0005683b       ___p___mb_cur_max          1005783b f   libucrt:nlsdata.obj
 0001:00056870       __cintrindisp2             10057870 f   libucrt:87cdisp.obj
 0001:000568b4       __cintrindisp1             100578b4 f   libucrt:87cdisp.obj
 0001:000568f7       __ctrandisp2               100578f7 f   libucrt:87cdisp.obj
 0001:00056a86       __ctrandisp1               10057a86 f   libucrt:87cdisp.obj
 0001:00056ab9       __fload                    10057ab9 f   libucrt:87cdisp.obj
 0001:00056ba0       __trandisp1                10057ba0 f   libucrt:87disp.obj
 0001:00056c07       __trandisp2                10057c07 f   libucrt:87disp.obj
 0001:00056c93       __rttospopde               10057c93     libucrt:87disp.obj
 0001:00056c98       __rttospop                 10057c98     libucrt:87disp.obj
 0001:00056c9a       __rtnospop                 10057c9a     libucrt:87disp.obj
 0001:00056c9c       __rttosnpop                10057c9c     libucrt:87disp.obj
 0001:00056c9d       __rtnospopde               10057c9d     libucrt:87disp.obj
 0001:00056ca4       __rtzeropop                10057ca4     libucrt:87disp.obj
 0001:00056ca6       __rtzeronpop               10057ca6     libucrt:87disp.obj
 0001:00056cab       __rtzerospop               10057cab     libucrt:87disp.obj
 0001:00056cb8       __rtonepop                 10057cb8     libucrt:87disp.obj
 0001:00056cba       __rtonenpop                10057cba     libucrt:87disp.obj
 0001:00056cbf       __tosnan1                  10057cbf     libucrt:87disp.obj
 0001:00056cea       __nosnan2                  10057cea     libucrt:87disp.obj
 0001:00056cec       __tosnan2                  10057cec     libucrt:87disp.obj
 0001:00056d14       __nan2                     10057d14     libucrt:87disp.obj
 0001:00056d53       __rtindfpop                10057d53     libucrt:87disp.obj
 0001:00056d55       __rtindfnpop               10057d55     libucrt:87disp.obj
 0001:00056d66       __rttosnpopde              10057d66     libucrt:87disp.obj
 0001:00056d70       __rtatan2inf               10057d70     libucrt:87disp.obj
 0001:00056d8d       __rtchsifneg               10057d8d     libucrt:87disp.obj
 0001:00056e11       __realloc_base             10057e11 f   libucrt:realloc_base.obj
 0001:00056e94       ___acrt_initialize_locks   10057e94 f   libucrt:locks.obj
 0001:00056ee5       ___acrt_lock               10057ee5 f   libucrt:locks.obj
 0001:00056f01       ___acrt_uninitialize_locks 10057f01 f   libucrt:locks.obj
 0001:00056f3e       ___acrt_unlock             10057f3e f   libucrt:locks.obj
 0001:00056f5a       __lock_locales             10057f5a f   libucrt:locks.obj
 0001:00056f65       __unlock_locales           10057f65 f   libucrt:locks.obj
 0001:00056f70       ??$?RV<lambda_123407a5e2ac06da108355a851863b7a>@@AAV<lambda_2fe9b910cf3cbf4a0ab98a02ba45b3ec>@@V<lambda_ae55bdf541ad94d75914d381c370e64d>@@@?$__crt_seh_guarded_call@H@@QAEH$$QAV<lambda_123407a5e2ac06da108355a851863b7a>@@AAV<lambda_2fe9b910cf3cbf4a0ab98a02ba45b3ec>@@$$QAV<lambda_ae55bdf541ad94d75914d381c370e64d>@@@Z 10057f70 f i libucrt:close.obj
 0001:00057012       ??$__acrt_lowio_lock_fh_and_call@V<lambda_2fe9b910cf3cbf4a0ab98a02ba45b3ec>@@@@YAHH$$QAV<lambda_2fe9b910cf3cbf4a0ab98a02ba45b3ec>@@@Z 10058012 f i libucrt:close.obj
 0001:00057165       __close                    10058165 f   libucrt:close.obj
 0001:00057203       __close_nolock             10058203 f   libucrt:close.obj
 0001:000572c6       ??$?RU__crt_stdio_stream_data@@@__crt_internal_free_policy@@QBEXQBU__crt_stdio_stream_data@@@Z 100582c6 f i libucrt:stream.obj
 0001:000572dc       ??0?$__crt_unique_heap_ptr@U__crt_stdio_stream_data@@U__crt_internal_free_policy@@@@QAE@QAU__crt_stdio_stream_data@@@Z 100582dc f i libucrt:stream.obj
 0001:000572f0       ??0__crt_stdio_stream@@QAE@XZ 100582f0 f i libucrt:stream.obj
 0001:000572f6       ??1?$__crt_unique_heap_ptr@U__crt_stdio_stream_data@@U__crt_internal_free_policy@@@@QAE@XZ 100582f6 f i libucrt:stream.obj
 0001:0005730c       ?__acrt_stdio_allocate_stream@@YA?AV__crt_stdio_stream@@XZ 1005830c f   libucrt:stream.obj
 0001:00057382       ?__acrt_stdio_free_stream@@YAXV__crt_stdio_stream@@@Z 10058382 f   libucrt:stream.obj
 0001:000573cb       ?deallocate@__crt_stdio_stream@@QAEXXZ 100583cb f i libucrt:stream.obj
 0001:000573d7       ?detach@?$__crt_unique_heap_ptr@U__crt_stdio_stream_data@@U__crt_internal_free_policy@@@@QAEPAU__crt_stdio_stream_data@@XZ 100583d7 f i libucrt:stream.obj
 0001:000574d0       ?lock@__crt_stdio_stream@@QBEXXZ 100584d0 f i libucrt:stream.obj
 0001:000574db       ?release@?$__crt_unique_heap_ptr@U__crt_stdio_stream_data@@U__crt_internal_free_policy@@@@QAEXXZ 100584db f i libucrt:stream.obj
 0001:000574f1       ?try_allocate@__crt_stdio_stream@@QAE_NXZ 100584f1 f i libucrt:stream.obj
 0001:0005751a       ??$__acrt_stdio_parse_mode@D@@YA?AU__acrt_stdio_stream_mode@@QBD@Z 1005851a f i libucrt:openfile.obj
 0001:000577d8       ??$__acrt_stdio_parse_mode@_W@@YA?AU__acrt_stdio_stream_mode@@QB_W@Z 100587d8 f i libucrt:openfile.obj
 0001:00057bf9       ??$tcsncmp@AAPBDAAY02$$CBDI@?$__crt_char_traits@D@@SAHAAPBDAAY02$$CBD$$QAI@Z 10058bf9 f i libucrt:openfile.obj
 0001:00057c1c       ??$tcsncmp@AAPB_WAAY02$$CB_WI@?$__crt_char_traits@_W@@SAHAAPB_WAAY02$$CB_W$$QAI@Z 10058c1c f i libucrt:openfile.obj
 0001:00057c3f       ??$tcsnicmp@AAPBDAAY04$$CBDI@?$__crt_char_traits@D@@SAHAAPBDAAY04$$CBD$$QAI@Z 10058c3f f i libucrt:openfile.obj
 0001:00057c62       ??$tcsnicmp@AAPBDAAY06$$CBDI@?$__crt_char_traits@D@@SAHAAPBDAAY06$$CBD$$QAI@Z 10058c62 f i libucrt:openfile.obj
 0001:00057c85       ??$tcsnicmp@AAPBDAAY07$$CBDI@?$__crt_char_traits@D@@SAHAAPBDAAY07$$CBD$$QAI@Z 10058c85 f i libucrt:openfile.obj
 0001:00057ca8       ??$tcsnicmp@AAPB_WAAY04$$CB_WI@?$__crt_char_traits@_W@@SAHAAPB_WAAY04$$CB_W$$QAI@Z 10058ca8 f i libucrt:openfile.obj
 0001:00057ccb       ??$tcsnicmp@AAPB_WAAY06$$CB_WI@?$__crt_char_traits@_W@@SAHAAPB_WAAY06$$CB_W$$QAI@Z 10058ccb f i libucrt:openfile.obj
 0001:00057cee       ??$tcsnicmp@AAPB_WAAY07$$CB_WI@?$__crt_char_traits@_W@@SAHAAPB_WAAY07$$CB_W$$QAI@Z 10058cee f i libucrt:openfile.obj
 0001:00057d11       ??$tsopen_s@PAHABQBDABHABHH@?$__crt_char_traits@D@@SAH$$QAPAHABQBDABH2$$QAH@Z 10058d11 f i libucrt:openfile.obj
 0001:00057d43       ??$tsopen_s@PAHABQB_WABHABHH@?$__crt_char_traits@_W@@SAH$$QAPAHABQB_WABH2$$QAH@Z 10058d43 f i libucrt:openfile.obj
 0001:00057d75       ?__acrt_stdio_parse_mode_D@@YA_NAAU__acrt_stdio_stream_mode@@@Z 10058d75 f i libucrt:openfile.obj
 0001:00057d96       ?__acrt_stdio_parse_mode_N@@YA_NAAU__acrt_stdio_stream_mode@@@Z 10058d96 f i libucrt:openfile.obj
 0001:00057dac       ?__acrt_stdio_parse_mode_R@@YA_NAAU__acrt_stdio_stream_mode@@AA_N@Z 10058dac f i libucrt:openfile.obj
 0001:00057dd1       ?__acrt_stdio_parse_mode_S@@YA_NAAU__acrt_stdio_stream_mode@@AA_N@Z 10058dd1 f i libucrt:openfile.obj
 0001:00057df6       ?__acrt_stdio_parse_mode_T@@YA_NAAU__acrt_stdio_stream_mode@@@Z 10058df6 f i libucrt:openfile.obj
 0001:00057e1c       ?__acrt_stdio_parse_mode_b@@YA_NAAU__acrt_stdio_stream_mode@@@Z 10058e1c f i libucrt:openfile.obj
 0001:00057e44       ?__acrt_stdio_parse_mode_c@@YA_NAAU__acrt_stdio_stream_mode@@AA_N@Z 10058e44 f i libucrt:openfile.obj
 0001:00057e6e       ?__acrt_stdio_parse_mode_n@@YA_NAAU__acrt_stdio_stream_mode@@AA_N@Z 10058e6e f i libucrt:openfile.obj
 0001:00057e98       ?__acrt_stdio_parse_mode_plus@@YA_NAAU__acrt_stdio_stream_mode@@AA_N@Z 10058e98 f i libucrt:openfile.obj
 0001:00057eda       ?__acrt_stdio_parse_mode_t@@YA_NAAU__acrt_stdio_stream_mode@@@Z 10058eda f i libucrt:openfile.obj
 0001:00057f02       __openfile                 10058f02 f   libucrt:openfile.obj
 0001:00057f0f       __wopenfile                10058f0f f   libucrt:openfile.obj
 0001:000585b4       __read                     100595b4 f   libucrt:read.obj
 0001:0005870b       __read_nolock              1005970b f   libucrt:read.obj
 0001:000590a3       ___acrt_stdio_refill_and_read_narrow_nolock 1005a0a3 f   libucrt:_filbuf.obj
 0001:000590b0       ___acrt_stdio_refill_and_read_wide_nolock 1005a0b0 f   libucrt:_filbuf.obj
 0001:0005980f       __write                    1005a80f f   libucrt:write.obj
 0001:00059934       __write_nolock             1005a934 f   libucrt:write.obj
 0001:0005a07a       ___acrt_stdio_flush_and_write_narrow_nolock 1005b07a f   libucrt:_flsbuf.obj
 0001:0005a087       ___acrt_stdio_flush_and_write_wide_nolock 1005b087 f   libucrt:_flsbuf.obj
 0001:0005a094       ___acrt_copy_path_to_wide_string 1005b094 f   libucrt:string_utilities.obj
 0001:0005a18c       ___acrt_copy_to_char       1005b18c f   libucrt:string_utilities.obj
 0001:0005a277       __wremove                  1005b277 f   libucrt:wunlink.obj
 0001:0005a2a9       __wunlink                  1005b2a9 f   libucrt:wunlink.obj
 0001:0005a71d       __lseek                    1005b71d f   libucrt:lseek.obj
 0001:0005a72a       __lseek_nolock             1005b72a f   libucrt:lseek.obj
 0001:0005a737       __lseeki64                 1005b737 f   libucrt:lseek.obj
 0001:0005a758       __lseeki64_nolock          1005b758 f   libucrt:lseek.obj
 0001:0005a779       __chgsign                  1005b779 f   libucrt:ieeemisc.obj
 0001:0005a7b3       __chgsignf                 1005b7b3 f   libucrt:ieeemisc.obj
 0001:0005a7de       __copysign                 1005b7de f   libucrt:ieeemisc.obj
 0001:0005a812       __copysignf                1005b812 f   libucrt:ieeemisc.obj
 0001:0005a837       __finite                   1005b837 f   libucrt:ieeemisc.obj
 0001:0005a857       __fpclass                  1005b857 f   libucrt:ieeemisc.obj
 0001:0005a924       __isnan                    1005b924 f   libucrt:ieeemisc.obj
 0001:0005a967       __logb                     1005b967 f   libucrt:ieeemisc.obj
 0001:0005aa6c       __nextafter                1005ba6c f   libucrt:ieeemisc.obj
 0001:0005aa92       __scalb                    1005ba92 f   libucrt:ieeemisc.obj
 0001:0005aab2       __add_exp                  1005bab2 f   libucrt:util.obj
 0001:0005aaec       __decomp                   1005baec f   libucrt:util.obj
 0001:0005abf5       __get_exp                  1005bbf5 f   libucrt:util.obj
 0001:0005ac14       __set_bexp                 1005bc14 f   libucrt:util.obj
 0001:0005ac47       __set_exp                  1005bc47 f   libucrt:util.obj
 0001:0005ac81       __sptype                   1005bc81 f   libucrt:util.obj
 0001:0005acf6       ___clrfp_sse2              1005bcf6 f   libucrt:fpctrl.obj
 0001:0005ad1f       ___ctrlfp_sse2             1005bd1f f   libucrt:fpctrl.obj
 0001:0005ad68       ___fclrf_sse2              1005bd68 f   libucrt:fpctrl.obj
 0001:0005ad8e       ___get_fpsr_sse2           1005bd8e f   libucrt:fpctrl.obj
 0001:0005adb3       ___set_fpsr_sse2           1005bdb3 f   libucrt:fpctrl.obj
 0001:0005ae46       ___set_statfp_sse2         1005be46 f   libucrt:fpctrl.obj
 0001:0005ae67       ___statfp_sse2             1005be67 f   libucrt:fpctrl.obj
 0001:0005ae81       __clrfp                    1005be81 f   libucrt:fpctrl.obj
 0001:0005ae98       __ctrlfp                   1005be98 f   libucrt:fpctrl.obj
 0001:0005aecf       __set_statfp               1005becf f   libucrt:fpctrl.obj
 0001:0005af40       __statfp                   1005bf40 f   libucrt:fpctrl.obj
 0001:0005b01d       ___acrt_report_runtime_error 1005c01d f   libucrt:report_runtime_error.obj
 0001:0005b183       __query_app_type           1005c183 f   libucrt:report_runtime_error.obj
 0001:0005b189       __set_app_type             1005c189 f   libucrt:report_runtime_error.obj
 0001:0005b675       __i64toa                   1005c675 f   libucrt:xtoa.obj
 0001:0005b6c8       __i64toa_s                 1005c6c8 f   libucrt:xtoa.obj
 0001:0005b719       __i64tow                   1005c719 f   libucrt:xtoa.obj
 0001:0005b76c       __i64tow_s                 1005c76c f   libucrt:xtoa.obj
 0001:0005b7bd       __itoa                     1005c7bd f   libucrt:xtoa.obj
 0001:0005b801       __itoa_s                   1005c801 f   libucrt:xtoa.obj
 0001:0005b843       __itow                     1005c843 f   libucrt:xtoa.obj
 0001:0005b887       __itow_s                   1005c887 f   libucrt:xtoa.obj
 0001:0005b8c9       __ltoa                     1005c8c9 f   libucrt:xtoa.obj
 0001:0005b90d       __ltoa_s                   1005c90d f   libucrt:xtoa.obj
 0001:0005b94f       __ltow                     1005c94f f   libucrt:xtoa.obj
 0001:0005b993       __ltow_s                   1005c993 f   libucrt:xtoa.obj
 0001:0005b9d5       __ui64toa                  1005c9d5 f   libucrt:xtoa.obj
 0001:0005b9ff       __ui64toa_s                1005c9ff f   libucrt:xtoa.obj
 0001:0005ba27       __ui64tow                  1005ca27 f   libucrt:xtoa.obj
 0001:0005ba51       __ui64tow_s                1005ca51 f   libucrt:xtoa.obj
 0001:0005ba79       __ultoa                    1005ca79 f   libucrt:xtoa.obj
 0001:0005ba9f       __ultoa_s                  1005ca9f f   libucrt:xtoa.obj
 0001:0005bac3       __ultow                    1005cac3 f   libucrt:xtoa.obj
 0001:0005bae9       __ultow_s                  1005cae9 f   libucrt:xtoa.obj
 0001:0005bb0d       __set_error_mode           1005cb0d f   libucrt:set_error_mode.obj
 0001:0005bbe9       _wcscat_s                  1005cbe9 f   libucrt:wcscat_s.obj
 0001:0005bcf3       _wcscpy_s                  1005ccf3 f   libucrt:wcscpy_s.obj
 0001:0005be93       _wcsncat_s                 1005ce93 f   libucrt:wcsncat_s.obj
 0001:0005bf23       _strcat_s                  1005cf23 f   libucrt:strcat_s.obj
 0001:0005c0aa       _strncat_s                 1005d0aa f   libucrt:strncat_s.obj
 0001:0005c2d5       ??$message_box@$$TAAPBDAAPBDAAI@?$__crt_char_traits@D@@SAH$$QA$$TAAPBD1AAI@Z 1005d2d5 f i libucrt:crtmbox.obj
 0001:0005c2fd       ??$message_box@$$TAAPB_WAAPB_WAAI@?$__crt_char_traits@_W@@SAH$$QA$$TAAPB_W1AAI@Z 1005d2fd f i libucrt:crtmbox.obj
 0001:0005c325       ??$message_box@$$TABQBDABQBDK@?$__crt_char_traits@D@@SAH$$QA$$TABQBD1$$QAK@Z 1005d325 f i libucrt:crtmbox.obj
 0001:0005c34d       ??$message_box@$$TABQB_WABQB_WK@?$__crt_char_traits@_W@@SAH$$QA$$TABQB_W1$$QAK@Z 1005d34d f i libucrt:crtmbox.obj
 0001:0005c375       ??$message_box@PAUHWND__@@ABQBDABQBDABI@?$__crt_char_traits@D@@SAH$$QAPAUHWND__@@ABQBD1ABI@Z 1005d375 f i libucrt:crtmbox.obj
 0001:0005c39d       ??$message_box@PAUHWND__@@ABQB_WABQB_WABI@?$__crt_char_traits@_W@@SAH$$QAPAUHWND__@@ABQB_W1ABI@Z 1005d39d f i libucrt:crtmbox.obj
 0001:0005c419       ??$output_debug_string@ABQBD@?$__crt_char_traits@D@@SAXABQBD@Z 1005d419 f i libucrt:crtmbox.obj
 0001:0005c42f       ??$output_debug_string@ABQB_W@?$__crt_char_traits@_W@@SAXABQB_W@Z 1005d42f f i libucrt:crtmbox.obj
 0001:0005c445       ??0?$__crt_unique_handle_t@U__crt_handle_traits@@@@QAE@QAX@Z 1005d445 f i libucrt:crtmbox.obj
 0001:0005c459       ??1?$__crt_unique_handle_t@U__crt_handle_traits@@@@QAE@XZ 1005d459 f i libucrt:crtmbox.obj
 0001:0005c475       ??B?$__crt_unique_handle_t@U__crt_handle_traits@@@@QBE_NXZ 1005d475 f i libucrt:crtmbox.obj
 0001:0005c480       ?close@?$__crt_unique_handle_t@U__crt_handle_traits@@@@QAEXXZ 1005d480 f i libucrt:crtmbox.obj
 0001:0005c49c       ?close@__crt_handle_traits@@SA_NPAX@Z 1005d49c f i libucrt:crtmbox.obj
 0001:0005c4b7       ?get@?$__crt_unique_handle_t@U__crt_handle_traits@@@@QBEPAXXZ 1005d4b7 f i libucrt:crtmbox.obj
 0001:0005c4ba       ?get_invalid_value@__crt_handle_traits@@SAPAXXZ 1005d4ba f i libucrt:crtmbox.obj
 0001:0005c4be       ?is_valid@?$__crt_unique_handle_t@U__crt_handle_traits@@@@QBE_NXZ 1005d4be f i libucrt:crtmbox.obj
 0001:0005c4c9       ___acrt_show_narrow_message_box 1005d4c9 f   libucrt:crtmbox.obj
 0001:0005c4d6       ___acrt_show_wide_message_box 1005d4d6 f   libucrt:crtmbox.obj
 0001:0005c4e3       ??$?RV<lambda_d92cfe8357b99225085016881b624cb0>@@AAV<lambda_b721fa326cdb32351d23dfa67958c160>@@V<lambda_42d75b0848218ec137fa420c8ba9fdf9>@@@?$__crt_seh_guarded_call@H@@QAEH$$QAV<lambda_d92cfe8357b99225085016881b624cb0>@@AAV<lambda_b721fa326cdb32351d23dfa67958c160>@@$$QAV<lambda_42d75b0848218ec137fa420c8ba9fdf9>@@@Z 1005d4e3 f i libucrt:setvbuf.obj
 0001:0005c548       ??$__acrt_lock_stream_and_call@V<lambda_b721fa326cdb32351d23dfa67958c160>@@@@YAHQAU_iobuf@@$$QAV<lambda_b721fa326cdb32351d23dfa67958c160>@@@Z 1005d548 f i libucrt:setvbuf.obj
 0001:0005c6e5       _setvbuf                   1005d6e5 f   libucrt:setvbuf.obj
 0001:0005c778       ??$?B$$A6AXH@Z@__crt_fast_encoded_nullptr_t@@QBEP6AXH@ZXZ 1005d778 f i libucrt:signal.obj
 0001:0005c796       ??$?RV<lambda_a048d3beccc847880fc8490e18b82769>@@AAV<lambda_ec61778202f4f5fc7e7711acc23c3bca>@@V<lambda_f7496a158712204296dd6628a163878e>@@@?$__crt_seh_guarded_call@P6AXH@Z@@QAEP6AXH@Z$$QAV<lambda_a048d3beccc847880fc8490e18b82769>@@AAV<lambda_ec61778202f4f5fc7e7711acc23c3bca>@@$$QAV<lambda_f7496a158712204296dd6628a163878e>@@@Z 1005d796 f i libucrt:signal.obj
 0001:0005c806       ??$__acrt_lock_and_call@V<lambda_ec61778202f4f5fc7e7711acc23c3bca>@@@@YAP6AXH@ZW4__acrt_lock_id@@$$QAV<lambda_ec61778202f4f5fc7e7711acc23c3bca>@@@Z 1005d806 f i libucrt:signal.obj
 0001:0005c838       ??$__crt_fast_decode_pointer@P6AXH@Z@@YAP6AXH@ZQ6AXH@Z@Z 1005d838 f i libucrt:signal.obj
 0001:0005c853       ??$__crt_fast_encode_pointer@P6AXH@Z@@YAP6AXH@ZQ6AXH@Z@Z 1005d853 f i libucrt:signal.obj
 0001:0005c9fd       ?initialize@?$dual_state_global@P6AXH@Z@__crt_state_management@@QAEXQ6AXH@Z@Z 1005d9fd f i libucrt:signal.obj
 0001:0005caa9       ?value@?$dual_state_global@P6AXH@Z@__crt_state_management@@QAEAAP6AXH@ZXZ 1005daa9 f i libucrt:signal.obj
 0001:0005caac       ___acrt_get_sigabrt_handler 1005daac f   libucrt:signal.obj
 0001:0005cac8       ___acrt_initialize_signal_handlers 1005dac8 f   libucrt:signal.obj
 0001:0005cb11       ___fpecode                 1005db11 f   libucrt:signal.obj
 0001:0005cb1c       ___pxcptinfoptrs           1005db1c f   libucrt:signal.obj
 0001:0005cb27       _raise                     1005db27 f   libucrt:signal.obj
 0001:0005cdb1       _signal                    1005ddb1 f   libucrt:signal.obj
 0001:0005cfcf       ??$__crt_fast_decode_pointer@P6AHPAU_exception@@@Z@@YAP6AHPAU_exception@@@ZQ6AH0@Z@Z 1005dfcf f i libucrt:matherr.obj
 0001:0005cfea       ??$__crt_fast_encode_pointer@P6AHPAU_exception@@@Z@@YAP6AHPAU_exception@@@ZQ6AH0@Z@Z 1005dfea f i libucrt:matherr.obj
 0001:0005d010       ?initialize@?$dual_state_global@P6AHPAU_exception@@@Z@__crt_state_management@@QAEXQ6AHPAU_exception@@@Z@Z 1005e010 f i libucrt:matherr.obj
 0001:0005d04d       ?value@?$dual_state_global@P6AHPAU_exception@@@Z@__crt_state_management@@QAEAAP6AHPAU_exception@@@ZXZ 1005e04d f i libucrt:matherr.obj
 0001:0005d050       ___acrt_has_user_matherr   1005e050 f   libucrt:matherr.obj
 0001:0005d06f       ___acrt_initialize_user_matherr 1005e06f f   libucrt:matherr.obj
 0001:0005d088       ___acrt_invoke_user_matherr 1005e088 f   libucrt:matherr.obj
 0001:0005d0e3       ___setusermatherr          1005e0e3 f   libucrt:matherr.obj
 0001:0005daf5       ??$find_first_file_ex@ABQADW4_FINDEX_INFO_LEVELS@@PAU_WIN32_FIND_DATAA@@W4_FINDEX_SEARCH_OPS@@$$TH@?$__crt_char_traits@D@@SAPAXABQAD$$QAW4_FINDEX_INFO_LEVELS@@$$QAPAU_WIN32_FIND_DATAA@@$$QAW4_FINDEX_SEARCH_OPS@@$$QA$$T$$QAH@Z 1005eaf5 f i libucrt:argv_wildcards.obj
 0001:0005db2a       ??$find_first_file_ex@ABQA_WW4_FINDEX_INFO_LEVELS@@PAU_WIN32_FIND_DATAW@@W4_FINDEX_SEARCH_OPS@@$$TH@?$__crt_char_traits@_W@@SAPAXABQA_W$$QAW4_FINDEX_INFO_LEVELS@@$$QAPAU_WIN32_FIND_DATAW@@$$QAW4_FINDEX_SEARCH_OPS@@$$QA$$T$$QAH@Z 1005eb2a f i libucrt:argv_wildcards.obj
 0001:0005db5f       ??$find_next_file@PAXPAU_WIN32_FIND_DATAA@@@?$__crt_char_traits@D@@SAH$$QAPAX$$QAPAU_WIN32_FIND_DATAA@@@Z 1005eb5f f i libucrt:argv_wildcards.obj
 0001:0005db7b       ??$find_next_file@PAXPAU_WIN32_FIND_DATAW@@@?$__crt_char_traits@_W@@SAH$$QAPAX$$QAPAU_WIN32_FIND_DATAW@@@Z 1005eb7b f i libucrt:argv_wildcards.obj
 0001:0005db97       ??$tcsncpy_s@AAPADIAAPADABI@?$__crt_char_traits@D@@SAHAAPAD$$QAI0ABI@Z 1005eb97 f i libucrt:argv_wildcards.obj
 0001:0005dbc2       ??$tcsncpy_s@AAPA_WIAAPA_WABI@?$__crt_char_traits@_W@@SAHAAPA_W$$QAI0ABI@Z 1005ebc2 f i libucrt:argv_wildcards.obj
 0001:0005dbed       ??$tcsncpy_s@PAD$$CBIABQBDABI@?$__crt_char_traits@D@@SAH$$QAPAD$$QBIABQBDABI@Z 1005ebed f i libucrt:argv_wildcards.obj
 0001:0005dc18       ??$tcsncpy_s@PADABIABQBDABI@?$__crt_char_traits@D@@SAH$$QAPADABIABQBD1@Z 1005ec18 f i libucrt:argv_wildcards.obj
 0001:0005dc43       ??$tcsncpy_s@PA_W$$CBIABQB_WABI@?$__crt_char_traits@_W@@SAH$$QAPA_W$$QBIABQB_WABI@Z 1005ec43 f i libucrt:argv_wildcards.obj
 0001:0005dc6e       ??$tcsncpy_s@PA_WABIABQB_WABI@?$__crt_char_traits@_W@@SAH$$QAPA_WABIABQB_W1@Z 1005ec6e f i libucrt:argv_wildcards.obj
 0001:0005dc99       ??$tcspbrk@AAPADAAY02$$CBD@?$__crt_char_traits@D@@SAPADAAPADAAY02$$CBD@Z 1005ec99 f i libucrt:argv_wildcards.obj
 0001:0005dcb4       ??$tcspbrk@AAPA_WAAY02$$CB_W@?$__crt_char_traits@_W@@SAPA_WAAPA_WAAY02$$CB_W@Z 1005ecb4 f i libucrt:argv_wildcards.obj
 0001:0005dccf       ??0?$__crt_unique_handle_t@U__crt_findfile_traits@@@@QAE@QAX@Z 1005eccf f i libucrt:argv_wildcards.obj
 0001:0005dce3       ??0?$argument_list@D@?A0xb0e4b824@@QAE@XZ 1005ece3 f i libucrt:argv_wildcards.obj
 0001:0005dcf3       ??0?$argument_list@_W@?A0xb0e4b824@@QAE@XZ 1005ecf3 f i libucrt:argv_wildcards.obj
 0001:0005dd03       ??1?$__crt_unique_handle_t@U__crt_findfile_traits@@@@QAE@XZ 1005ed03 f i libucrt:argv_wildcards.obj
 0001:0005dd1f       ??1?$argument_list@D@?A0xb0e4b824@@QAE@XZ 1005ed1f f i libucrt:argv_wildcards.obj
 0001:0005dd4d       ??1?$argument_list@_W@?A0xb0e4b824@@QAE@XZ 1005ed4d f i libucrt:argv_wildcards.obj
 0001:0005dddb       ?append@?$argument_list@D@?A0xb0e4b824@@QAEHQAD@Z 1005eddb f i libucrt:argv_wildcards.obj
 0001:0005de1d       ?append@?$argument_list@_W@?A0xb0e4b824@@QAEHQA_W@Z 1005ee1d f i libucrt:argv_wildcards.obj
 0001:0005de5f       ?begin@?$argument_list@D@?A0xb0e4b824@@QBEPAPADXZ 1005ee5f f i libucrt:argv_wildcards.obj
 0001:0005de62       ?begin@?$argument_list@_W@?A0xb0e4b824@@QBEPAPA_WXZ 1005ee62 f i libucrt:argv_wildcards.obj
 0001:0005de65       ?close@?$__crt_unique_handle_t@U__crt_findfile_traits@@@@QAEXXZ 1005ee65 f i libucrt:argv_wildcards.obj
 0001:0005de81       ?close@__crt_findfile_traits@@SA_NPAX@Z 1005ee81 f i libucrt:argv_wildcards.obj
 0001:0005de9c       ?end@?$argument_list@D@?A0xb0e4b824@@QBEPAPADXZ 1005ee9c f i libucrt:argv_wildcards.obj
 0001:0005dea0       ?end@?$argument_list@_W@?A0xb0e4b824@@QBEPAPA_WXZ 1005eea0 f i libucrt:argv_wildcards.obj
 0001:0005dea4       ?expand_if_necessary@?$argument_list@D@?A0xb0e4b824@@AAEHXZ 1005eea4 f i libucrt:argv_wildcards.obj
 0001:0005df4c       ?expand_if_necessary@?$argument_list@_W@?A0xb0e4b824@@AAEHXZ 1005ef4c f i libucrt:argv_wildcards.obj
 0001:0005dff4       ?get@?$__crt_unique_handle_t@U__crt_findfile_traits@@@@QBEPAXXZ 1005eff4 f i libucrt:argv_wildcards.obj
 0001:0005dff7       ?get_invalid_value@__crt_findfile_traits@@SAPAXXZ 1005eff7 f i libucrt:argv_wildcards.obj
 0001:0005e018       ?size@?$argument_list@D@?A0xb0e4b824@@QBEIXZ 1005f018 f i libucrt:argv_wildcards.obj
 0001:0005e023       ?size@?$argument_list@_W@?A0xb0e4b824@@QBEIXZ 1005f023 f i libucrt:argv_wildcards.obj
 0001:0005e02e       ?strpbrk@@YAPADQADQBD@Z    1005f02e f i libucrt:argv_wildcards.obj
 0001:0005e03b       ?wcspbrk@@YAPA_WPA_WPB_W@Z 1005f03b f i libucrt:argv_wildcards.obj
 0001:0005e048       ___acrt_expand_narrow_argv_wildcards 1005f048 f   libucrt:argv_wildcards.obj
 0001:0005e055       ___acrt_expand_wide_argv_wildcards 1005f055 f   libucrt:argv_wildcards.obj
 0001:0005e062       ??$?RV<lambda_978dc153c237d78434369da87b74ff60>@@AAV<lambda_ad1ced32f4ac17aa236e5ef05d6b3b7c>@@V<lambda_4a8533e2866a575feecb8298ce776b0d>@@@?$__crt_seh_guarded_call@X@@QAEX$$QAV<lambda_978dc153c237d78434369da87b74ff60>@@AAV<lambda_ad1ced32f4ac17aa236e5ef05d6b3b7c>@@$$QAV<lambda_4a8533e2866a575feecb8298ce776b0d>@@@Z 1005f062 f i libucrt:mbctype.obj
 0001:0005e0b5       ??$__acrt_lock_and_call@V<lambda_ad1ced32f4ac17aa236e5ef05d6b3b7c>@@@@YAXW4__acrt_lock_id@@$$QAV<lambda_ad1ced32f4ac17aa236e5ef05d6b3b7c>@@@Z 1005f0b5 f i libucrt:mbctype.obj
 0001:0005e6c6       ___acrt_initialize_multibyte 1005f6c6 f   libucrt:mbctype.obj
 0001:0005e6eb       ___acrt_update_thread_multibyte_data 1005f6eb f   libucrt:mbctype.obj
 0001:0005e7b5       ___p__mbcasemap            1005f7b5 f   libucrt:mbctype.obj
 0001:0005e7bb       ___p__mbctype              1005f7bb f   libucrt:mbctype.obj
 0001:0005e7c1       __getmbcp                  1005f7c1 f   libucrt:mbctype.obj
 0001:0005e804       __setmbcp                  1005f804 f   libucrt:mbctype.obj
 0001:0005e81b       __setmbcp_nolock           1005f81b f   libucrt:mbctype.obj
 0001:0005eb98       __ismbbalnum               1005fb98 f   libucrt:ismbbyte.obj
 0001:0005ebb9       __ismbbalnum_l             1005fbb9 f   libucrt:ismbbyte.obj
 0001:0005ebdc       __ismbbalpha               1005fbdc f   libucrt:ismbbyte.obj
 0001:0005ebfd       __ismbbalpha_l             1005fbfd f   libucrt:ismbbyte.obj
 0001:0005ec20       __ismbbblank               1005fc20 f   libucrt:ismbbyte.obj
 0001:0005ec4b       __ismbbblank_l             1005fc4b f   libucrt:ismbbyte.obj
 0001:0005ec78       __ismbbgraph               1005fc78 f   libucrt:ismbbyte.obj
 0001:0005ec99       __ismbbgraph_l             1005fc99 f   libucrt:ismbbyte.obj
 0001:0005ecbc       __ismbbkalnum              1005fcbc f   libucrt:ismbbyte.obj
 0001:0005ecda       __ismbbkalnum_l            1005fcda f   libucrt:ismbbyte.obj
 0001:0005ecf9       __ismbbkana                1005fcf9 f   libucrt:ismbbyte.obj
 0001:0005ed10       __ismbbkana_l              1005fd10 f   libucrt:ismbbyte.obj
 0001:0005ed75       __ismbbkprint              1005fd75 f   libucrt:ismbbyte.obj
 0001:0005ed93       __ismbbkprint_l            1005fd93 f   libucrt:ismbbyte.obj
 0001:0005edb2       __ismbbkpunct              1005fdb2 f   libucrt:ismbbyte.obj
 0001:0005edd0       __ismbbkpunct_l            1005fdd0 f   libucrt:ismbbyte.obj
 0001:0005edef       __ismbblead                1005fdef f   libucrt:ismbbyte.obj
 0001:0005ee0d       __ismbblead_l              1005fe0d f   libucrt:ismbbyte.obj
 0001:0005ee2c       __ismbbprint               1005fe2c f   libucrt:ismbbyte.obj
 0001:0005ee4d       __ismbbprint_l             1005fe4d f   libucrt:ismbbyte.obj
 0001:0005ee70       __ismbbpunct               1005fe70 f   libucrt:ismbbyte.obj
 0001:0005ee8e       __ismbbpunct_l             1005fe8e f   libucrt:ismbbyte.obj
 0001:0005eead       __ismbbtrail               1005fead f   libucrt:ismbbyte.obj
 0001:0005eecb       __ismbbtrail_l             1005fecb f   libucrt:ismbbyte.obj
 0001:0005eeea       ___acrt_initialize_command_line 1005feea f   libucrt:argv_data.obj
 0001:0005ef09       ___acrt_uninitialize_command_line 1005ff09 f   libucrt:argv_data.obj
 0001:0005ef0c       ___p___argc                1005ff0c f   libucrt:argv_data.obj
 0001:0005ef12       ___p___argv                1005ff12 f   libucrt:argv_data.obj
 0001:0005ef18       ___p___wargv               1005ff18 f   libucrt:argv_data.obj
 0001:0005ef1e       ___p__acmdln               1005ff1e f   libucrt:argv_data.obj
 0001:0005ef24       ___p__pgmptr               1005ff24 f   libucrt:argv_data.obj
 0001:0005ef2a       ___p__wcmdln               1005ff2a f   libucrt:argv_data.obj
 0001:0005ef30       ___p__wpgmptr              1005ff30 f   libucrt:argv_data.obj
 0001:0005ef36       __get_pgmptr               1005ff36 f   libucrt:argv_data.obj
 0001:0005ef73       __get_wpgmptr              1005ff73 f   libucrt:argv_data.obj
 0001:0005efb0       ??0?$__crt_unique_handle_t@Uenvironment_strings_traits@?A0x588e5281@@@@QAE@QA_W@Z 1005ffb0 f i libucrt:get_environment_from_os.obj
 0001:0005efc4       ??1?$__crt_unique_handle_t@Uenvironment_strings_traits@?A0x588e5281@@@@QAE@XZ 1005ffc4 f i libucrt:get_environment_from_os.obj
 0001:0005efe0       ??B?$__crt_unique_handle_t@Uenvironment_strings_traits@?A0x588e5281@@@@QBE_NXZ 1005ffe0 f i libucrt:get_environment_from_os.obj
 0001:0005efea       ?close@?$__crt_unique_handle_t@Uenvironment_strings_traits@?A0x588e5281@@@@QAEXXZ 1005ffea f i libucrt:get_environment_from_os.obj
 0001:0005f006       ?close@environment_strings_traits@?A0x588e5281@@SA_NPA_W@Z 10060006 f i libucrt:get_environment_from_os.obj
 0001:0005f060       ?get@?$__crt_unique_handle_t@Uenvironment_strings_traits@?A0x588e5281@@@@QBEPA_WXZ 10060060 f i libucrt:get_environment_from_os.obj
 0001:0005f063       ?get_invalid_value@environment_strings_traits@?A0x588e5281@@SAPA_WXZ 10060063 f i libucrt:get_environment_from_os.obj
 0001:0005f066       ?is_valid@?$__crt_unique_handle_t@Uenvironment_strings_traits@?A0x588e5281@@@@QBE_NXZ 10060066 f i libucrt:get_environment_from_os.obj
 0001:0005f070       ___dcrt_get_narrow_environment_from_os 10060070 f   libucrt:get_environment_from_os.obj
 0001:0005f113       ___dcrt_get_wide_environment_from_os 10060113 f   libucrt:get_environment_from_os.obj
 0001:0005f9ab       ??$get_or_create_environment_nolock@$$$V@?$__crt_char_traits@D@@SAPAPADXZ 100609ab f i libucrt:setenv.obj
 0001:0005f9b0       ??$get_or_create_environment_nolock@$$$V@?$__crt_char_traits@_W@@SAPAPA_WXZ 100609b0 f i libucrt:setenv.obj
 0001:0005f9b5       ??$set_environment_variable@ABQADQAD@?$__crt_char_traits@D@@SAHABQAD$$QBQAD@Z 100609b5 f i libucrt:setenv.obj
 0001:0005f9d1       ??$set_environment_variable@ABQA_WQA_W@?$__crt_char_traits@_W@@SAHABQA_W$$QBQA_W@Z 100609d1 f i libucrt:setenv.obj
 0001:0005f9ed       ??$tcschr@ABQADD@?$__crt_char_traits@D@@SAPADABQAD$$QAD@Z 100609ed f i libucrt:setenv.obj
 0001:0005fa0d       ??$tcschr@ABQA_WD@?$__crt_char_traits@_W@@SAPA_WABQA_W$$QAD@Z 10060a0d f i libucrt:setenv.obj
 0001:0005fa32       ??$tcscpy_s@AAPADABIAAPAD@?$__crt_char_traits@D@@SAHAAPADABI0@Z 10060a32 f i libucrt:setenv.obj
 0001:0005fa57       ??$tcscpy_s@AAPA_WABIAAPA_W@?$__crt_char_traits@_W@@SAHAAPA_WABI0@Z 10060a57 f i libucrt:setenv.obj
 0001:0005fa7c       ??$tcscpy_s@ABQADABIABQAD@?$__crt_char_traits@D@@SAHABQADABI0@Z 10060a7c f i libucrt:setenv.obj
 0001:0005faa1       ??$tcscpy_s@ABQA_WABIABQA_W@?$__crt_char_traits@_W@@SAHABQA_WABI0@Z 10060aa1 f i libucrt:setenv.obj
 0001:0005fac6       ??$tcsnicoll@ABQBDAAPADABI@?$__crt_char_traits@D@@SAHABQBDAAPADABI@Z 10060ac6 f i libucrt:setenv.obj
 0001:0005faeb       ??$tcsnicoll@ABQB_WAAPA_WABI@?$__crt_char_traits@_W@@SAHABQB_WAAPA_WABI@Z 10060aeb f i libucrt:setenv.obj
 0001:0005fb34       ?strchr@@YAPADQADH@Z       10060b34 f i libucrt:setenv.obj
 0001:0005fb41       ?wcschr@@YAPA_WPA_W_W@Z    10060b41 f i libucrt:setenv.obj
 0001:0005fb4e       ___dcrt_set_variable_in_narrow_environment_nolock 10060b4e f   libucrt:setenv.obj
 0001:0005fb5b       ___dcrt_set_variable_in_wide_environment_nolock 10060b5b f   libucrt:setenv.obj
 0001:0005fb68       __recalloc                 10060b68 f   libucrt:recalloc.obj
 0001:0005fb75       __recalloc_base            10060b75 f   libucrt:recalloc.obj
 0001:0005fbfd       ___acrt_getheap            10060bfd f   libucrt:heap_handle.obj
 0001:0005fc03       ___acrt_initialize_heap    10060c03 f   libucrt:heap_handle.obj
 0001:0005fc18       ___acrt_uninitialize_heap  10060c18 f   libucrt:heap_handle.obj
 0001:0005fc24       __get_heap_handle          10060c24 f   libucrt:heap_handle.obj
 0001:0005fc2a       ___acrt_execute_initializers 10060c2a f   libucrt:shared_initialization.obj
 0001:0005fccd       ___acrt_execute_uninitializers 10060ccd f   libucrt:shared_initialization.obj
 0001:0005fd2d       ??$?B$$A6AHI@Z@__crt_fast_encoded_nullptr_t@@QBEP6AHI@ZXZ 10060d2d f i libucrt:new_handler.obj
 0001:0005fd4b       ??$__crt_fast_decode_pointer@P6AHI@Z@@YAP6AHI@ZQ6AHI@Z@Z 10060d4b f i libucrt:new_handler.obj
 0001:0005fd66       ??$__crt_fast_encode_pointer@P6AHI@Z@@YAP6AHI@ZQ6AHI@Z@Z 10060d66 f i libucrt:new_handler.obj
 0001:0005fd8c       ?_set_new_handler@@YAP6AHI@ZH@Z 10060d8c f   libucrt:new_handler.obj
 0001:0005fdb2       ?initialize@?$dual_state_global@P6AHI@Z@__crt_state_management@@QAEXQ6AHI@Z@Z 10060db2 f i libucrt:new_handler.obj
 0001:0005fdef       ?value@?$dual_state_global@P6AHI@Z@__crt_state_management@@QAEAAP6AHI@ZXZ 10060def f i libucrt:new_handler.obj
 0001:0005fdf2       ___acrt_initialize_new_handler 10060df2 f   libucrt:new_handler.obj
 0001:0005fe0b       __callnewh                 10060e0b f   libucrt:new_handler.obj
 0001:0005fe60       __query_new_handler        10060e60 f   libucrt:new_handler.obj
 0001:0005fec6       __set_new_handler          10060ec6 f   libucrt:new_handler.obj
 0001:0005ff3e       ?value@?$dual_state_global@J@__crt_state_management@@QAEAAJXZ 10060f3e f i libucrt:new_mode.obj
 0001:0005ff41       __query_new_mode           10060f41 f   libucrt:new_mode.obj
 0001:0005ff47       __set_new_mode             10060f47 f   libucrt:new_mode.obj
 0001:0005ff81       ___pctype_func             10060f81 f   libucrt:ctype.obj
 0001:0005ffb0       ___pwctype_func            10060fb0 f   libucrt:ctype.obj
 0001:0005ffb6       __iswctype_l               10060fb6 f   libucrt:iswctype.obj
 0001:0005ffcf       _iswctype                  10060fcf f   libucrt:iswctype.obj
 0001:00060045       __isctype                  10061045 f   libucrt:isctype.obj
 0001:00060082       __isctype_l                10061082 f   libucrt:isctype.obj
 0001:00060349       ___acrt_DownlevelLCIDToLocaleName 10061349 f   libucrt:lcidtoname_downlevel.obj
 0001:0006041d       ___acrt_DownlevelLocaleNameToLCID 1006141d f   libucrt:lcidtoname_downlevel.obj
 0001:00060454       ??$?RV<lambda_61cee617f5178ae960314fd4d05640a0>@@AAV<lambda_6978c1fb23f02e42e1d9e99668cc68aa>@@V<lambda_9cd88cf8ad10232537feb2133f08c833>@@@?$__crt_seh_guarded_call@H@@QAEH$$QAV<lambda_61cee617f5178ae960314fd4d05640a0>@@AAV<lambda_6978c1fb23f02e42e1d9e99668cc68aa>@@$$QAV<lambda_9cd88cf8ad10232537feb2133f08c833>@@@Z 10061454 f i libucrt:commit.obj
 0001:00060512       ??$__acrt_lowio_lock_fh_and_call@V<lambda_6978c1fb23f02e42e1d9e99668cc68aa>@@@@YAHH$$QAV<lambda_6978c1fb23f02e42e1d9e99668cc68aa>@@@Z 10061512 f i libucrt:commit.obj
 0001:00060604       __commit                   10061604 f   libucrt:commit.obj
 0001:0006068e       ??$?RU__crt_lowio_handle_data@@@__crt_internal_free_policy@@QBEXQBU__crt_lowio_handle_data@@@Z 1006168e f i libucrt:osfinfo.obj
 0001:000606a4       ??0?$__crt_unique_heap_ptr@U__crt_lowio_handle_data@@U__crt_internal_free_policy@@@@QAE@QAU__crt_lowio_handle_data@@@Z 100616a4 f i libucrt:osfinfo.obj
 0001:000606b8       ??1?$__crt_unique_heap_ptr@U__crt_lowio_handle_data@@U__crt_internal_free_policy@@@@QAE@XZ 100616b8 f i libucrt:osfinfo.obj
 0001:000606ce       ??B?$__crt_unique_heap_ptr@U__crt_lowio_handle_data@@U__crt_internal_free_policy@@@@QBE_NXZ 100616ce f i libucrt:osfinfo.obj
 0001:000606d8       ?detach@?$__crt_unique_heap_ptr@U__crt_lowio_handle_data@@U__crt_internal_free_policy@@@@QAEPAU__crt_lowio_handle_data@@XZ 100616d8 f i libucrt:osfinfo.obj
 0001:000606de       ?get@?$__crt_unique_heap_ptr@U__crt_lowio_handle_data@@U__crt_internal_free_policy@@@@QBEPAU__crt_lowio_handle_data@@XZ 100616de f i libucrt:osfinfo.obj
 0001:000606e1       ?is_valid@?$__crt_unique_heap_ptr@U__crt_lowio_handle_data@@U__crt_internal_free_policy@@@@QBE_NXZ 100616e1 f i libucrt:osfinfo.obj
 0001:000606eb       ?release@?$__crt_unique_heap_ptr@U__crt_lowio_handle_data@@U__crt_internal_free_policy@@@@QAEXXZ 100616eb f i libucrt:osfinfo.obj
 0001:00060701       ___acrt_lowio_create_handle_array 10061701 f   libucrt:osfinfo.obj
 0001:00060799       ___acrt_lowio_destroy_handle_array 10061799 f   libucrt:osfinfo.obj
 0001:000607db       ___acrt_lowio_ensure_fh_exists 100617db f   libucrt:osfinfo.obj
 0001:00060899       ___acrt_lowio_lock_fh      10061899 f   libucrt:osfinfo.obj
 0001:000608c4       ___acrt_lowio_set_os_handle 100618c4 f   libucrt:osfinfo.obj
 0001:0006097d       ___acrt_lowio_unlock_fh    1006197d f   libucrt:osfinfo.obj
 0001:000609a8       __alloc_osfhnd             100619a8 f   libucrt:osfinfo.obj
 0001:00060afe       __free_osfhnd              10061afe f   libucrt:osfinfo.obj
 0001:00060bb3       __get_osfhandle            10061bb3 f   libucrt:osfinfo.obj
 0001:00060c37       __open_osfhandle           10061c37 f   libucrt:osfinfo.obj
 0001:00060d88       ___iswcsym                 10061d88 f i libucrt:_wctype.obj
 0001:00060db7       ___iswcsymf                10061db7 f i libucrt:_wctype.obj
 0001:00060de6       __isleadbyte_l             10061de6 f i libucrt:_wctype.obj
 0001:00060e2d       __iswalnum_l               10061e2d f i libucrt:_wctype.obj
 0001:00060e48       __iswalpha_l               10061e48 f i libucrt:_wctype.obj
 0001:00060e63       __iswblank_l               10061e63 f i libucrt:_wctype.obj
 0001:00060e87       __iswcntrl_l               10061e87 f i libucrt:_wctype.obj
 0001:00060e9e       __iswcsym_l                10061e9e f i libucrt:_wctype.obj
 0001:00060ecd       __iswcsymf_l               10061ecd f i libucrt:_wctype.obj
 0001:00060efc       __iswdigit_l               10061efc f i libucrt:_wctype.obj
 0001:00060f13       __iswgraph_l               10061f13 f i libucrt:_wctype.obj
 0001:00060f2e       __iswlower_l               10061f2e f i libucrt:_wctype.obj
 0001:00060f45       __iswprint_l               10061f45 f i libucrt:_wctype.obj
 0001:00060f60       __iswpunct_l               10061f60 f i libucrt:_wctype.obj
 0001:00060f77       __iswspace_l               10061f77 f i libucrt:_wctype.obj
 0001:00060f8e       __iswupper_l               10061f8e f i libucrt:_wctype.obj
 0001:00060fa5       __iswxdigit_l              10061fa5 f i libucrt:_wctype.obj
 0001:00060fc0       _isleadbyte                10061fc0 f i libucrt:_wctype.obj
 0001:00060fd7       _iswalnum                  10061fd7 f i libucrt:_wctype.obj
 0001:00060ff2       _iswalpha                  10061ff2 f i libucrt:_wctype.obj
 0001:0006100d       _iswascii                  1006200d f i libucrt:_wctype.obj
 0001:00061026       _iswblank                  10062026 f i libucrt:_wctype.obj
 0001:0006104a       _iswcntrl                  1006204a f i libucrt:_wctype.obj
 0001:00061061       _iswdigit                  10062061 f i libucrt:_wctype.obj
 0001:00061078       _iswgraph                  10062078 f i libucrt:_wctype.obj
 0001:00061093       _iswlower                  10062093 f i libucrt:_wctype.obj
 0001:000610aa       _iswprint                  100620aa f i libucrt:_wctype.obj
 0001:000610c5       _iswpunct                  100620c5 f i libucrt:_wctype.obj
 0001:000610dc       _iswspace                  100620dc f i libucrt:_wctype.obj
 0001:000610f3       _iswupper                  100620f3 f i libucrt:_wctype.obj
 0001:0006110a       _iswxdigit                 1006210a f i libucrt:_wctype.obj
 0001:00061125       ??0?$__crt_scoped_stack_ptr@_W@@QAE@U?$__crt_scoped_stack_ptr_tag@_W@@@Z 10062125 f i libucrt:lcmapstringa.obj
 0001:00061139       ??0?$__crt_scoped_stack_ptr_tag@_W@@QAE@QA_W@Z 10062139 f i libucrt:lcmapstringa.obj
 0001:0006114d       ??1?$__crt_scoped_stack_ptr@_W@@QAE@XZ 1006214d f i libucrt:lcmapstringa.obj
 0001:00061158       ??B?$__crt_scoped_stack_ptr@_W@@QBE_NXZ 10062158 f i libucrt:lcmapstringa.obj
 0001:00061406       ?get@?$__crt_scoped_stack_ptr@_W@@QBEPA_WXZ 10062406 f i libucrt:lcmapstringa.obj
 0001:00061409       __MallocaComputeSize       10062409 f i libucrt:lcmapstringa.obj
 0001:00061420       __MarkAllocaS              10062420 f i libucrt:lcmapstringa.obj
 0001:0006143b       ___acrt_LCMapStringA       1006243b f   libucrt:lcmapstringa.obj
 0001:00061498       __freea_crt                10062498 f i libucrt:lcmapstringa.obj
 0001:000614c0       ??$?RG@__crt_internal_free_policy@@QBEXQBG@Z 100624c0 f i libucrt:initctype.obj
 0001:000614d6       ??$?RJ@__crt_internal_free_policy@@QBEXQBJ@Z 100624d6 f i libucrt:initctype.obj
 0001:000614ec       ??0?$__crt_unique_heap_ptr@GU__crt_internal_free_policy@@@@QAE@QAG@Z 100624ec f i libucrt:initctype.obj
 0001:00061500       ??0?$__crt_unique_heap_ptr@JU__crt_internal_free_policy@@@@QAE@QAJ@Z 10062500 f i libucrt:initctype.obj
 0001:00061514       ??1?$__crt_unique_heap_ptr@GU__crt_internal_free_policy@@@@QAE@XZ 10062514 f i libucrt:initctype.obj
 0001:0006152a       ??1?$__crt_unique_heap_ptr@JU__crt_internal_free_policy@@@@QAE@XZ 1006252a f i libucrt:initctype.obj
 0001:00061540       ?detach@?$__crt_unique_heap_ptr@GU__crt_internal_free_policy@@@@QAEPAGXZ 10062540 f i libucrt:initctype.obj
 0001:00061546       ?detach@?$__crt_unique_heap_ptr@JU__crt_internal_free_policy@@@@QAEPAJXZ 10062546 f i libucrt:initctype.obj
 0001:0006154c       ?release@?$__crt_unique_heap_ptr@GU__crt_internal_free_policy@@@@QAEXXZ 1006254c f i libucrt:initctype.obj
 0001:00061562       ?release@?$__crt_unique_heap_ptr@JU__crt_internal_free_policy@@@@QAEXXZ 10062562 f i libucrt:initctype.obj
 0001:00061578       ____lc_codepage_func       10062578 f   libucrt:initctype.obj
 0001:000615a8       ____lc_collate_cp_func     100625a8 f   libucrt:initctype.obj
 0001:000615d8       ____lc_locale_name_func    100625d8 f   libucrt:initctype.obj
 0001:0006160b       ____mb_cur_max_func        1006260b f   libucrt:initctype.obj
 0001:0006163b       ____mb_cur_max_l_func      1006263b f   libucrt:initctype.obj
 0001:0006165a       ___acrt_locale_initialize_ctype 1006265a f   libucrt:initctype.obj
 0001:00061adf       ___acrt_add_locale_ref     10062adf f   libucrt:locale_refcounting.obj
 0001:00061b7b       ___acrt_free_locale        10062b7b f   libucrt:locale_refcounting.obj
 0001:00061d17       ___acrt_locale_add_lc_time_reference 10062d17 f   libucrt:locale_refcounting.obj
 0001:00061d4a       ___acrt_locale_free_lc_time_if_unreferenced 10062d4a f   libucrt:locale_refcounting.obj
 0001:00061d86       ___acrt_locale_release_lc_time_reference 10062d86 f   libucrt:locale_refcounting.obj
 0001:00061db9       ___acrt_release_locale_ref 10062db9 f   libucrt:locale_refcounting.obj
 0001:00061e5a       ___acrt_update_thread_locale_data 10062e5a f   libucrt:locale_refcounting.obj
 0001:00061eee       __updatetlocinfoEx_nolock  10062eee f   libucrt:locale_refcounting.obj
 0001:00061f52       ___acrt_fp_strflt_to_string 10062f52 f   libucrt:_fptostr.obj
 0001:00063780       ??0big_integer@__crt_strtox@@QAE@ABU01@@Z 10064780 f i libucrt:cfout.obj
 0001:000637c0       ??0big_integer@__crt_strtox@@QAE@XZ 100647c0 f i libucrt:cfout.obj
 0001:000637cb       ??0scoped_fp_state_reset@?A0x48fbfdd4@@QAE@XZ 100647cb f i libucrt:cfout.obj
 0001:000637ff       ??1scoped_fp_state_reset@?A0x48fbfdd4@@QAE@XZ 100647ff f i libucrt:cfout.obj
 0001:00063810       ??4big_integer@__crt_strtox@@QAEAAU01@ABU01@@Z 10064810 f i libucrt:cfout.obj
 0001:00063850       ??8__crt_strtox@@YA_NABUbig_integer@0@0@Z 10064850 f i libucrt:cfout.obj
 0001:000638a0       ??9__crt_strtox@@YA_NABUbig_integer@0@0@Z 100648a0 f i libucrt:cfout.obj
 0001:00063900       ?add_carry@__crt_strtox@@YAIAAIII@Z 10064900 f i libucrt:cfout.obj
 0001:00063930       ?add_multiply_carry@__crt_strtox@@YAIAAIIII@Z 10064930 f i libucrt:cfout.obj
 0001:00063960       ?bit_scan_reverse@__crt_strtox@@YAII@Z 10064960 f i libucrt:cfout.obj
 0001:00063990       ?count_sequential_high_zeroes@__crt_strtox@@YAII@Z 10064990 f i libucrt:cfout.obj
 0001:000639c0       ?divide@__crt_strtox@@YA_KAAUbig_integer@1@ABU21@@Z 100649c0 f i libucrt:cfout.obj
 0001:00063fa0       ?is_zero@__crt_strtox@@YA_NABUbig_integer@1@@Z 10064fa0 f i libucrt:cfout.obj
 0001:00063fc0       ?make_big_integer@__crt_strtox@@YA?AUbig_integer@1@_K@Z 10064fc0 f i libucrt:cfout.obj
 0001:00063ff0       ?make_big_integer_power_of_two@__crt_strtox@@YA?AUbig_integer@1@I@Z 10064ff0 f i libucrt:cfout.obj
 0001:00064050       ?multiply@__crt_strtox@@YA_NAAUbig_integer@1@ABU21@@Z 10065050 f i libucrt:cfout.obj
 0001:00064500       ?multiply@__crt_strtox@@YA_NAAUbig_integer@1@I@Z 10065500 f i libucrt:cfout.obj
 0001:00064600       ?multiply_64_32@__crt_strtox@@YA_K_KI@Z 10065600 f i libucrt:cfout.obj
 0001:00064620       ?multiply_by_power_of_ten@__crt_strtox@@YA_NAAUbig_integer@1@I@Z 10065620 f i libucrt:cfout.obj
 0001:00064d20       ?multiply_core@__crt_strtox@@YAIQAIII@Z 10065d20 f i libucrt:cfout.obj
 0001:00064d70       ?shift_left@__crt_strtox@@YA_NAAUbig_integer@1@I@Z 10065d70 f i libucrt:cfout.obj
 0001:00064f12       ___acrt_fltout             10065f12 f   libucrt:cfout.obj
 0001:00066836       __isatty                   10067836 f   libucrt:isatty.obj
 0001:000668a1       ??$?RUlconv@@@__crt_internal_free_policy@@QBEXQBUlconv@@@Z 100678a1 f i libucrt:initmon.obj
 0001:000668b7       ??0?$__crt_unique_heap_ptr@Ulconv@@U__crt_internal_free_policy@@@@QAE@QAUlconv@@@Z 100678b7 f i libucrt:initmon.obj
 0001:000668cb       ??1?$__crt_unique_heap_ptr@Ulconv@@U__crt_internal_free_policy@@@@QAE@XZ 100678cb f i libucrt:initmon.obj
 0001:000668e1       ?detach@?$__crt_unique_heap_ptr@Ulconv@@U__crt_internal_free_policy@@@@QAEPAUlconv@@XZ 100678e1 f i libucrt:initmon.obj
 0001:000668e7       ?release@?$__crt_unique_heap_ptr@Ulconv@@U__crt_internal_free_policy@@@@QAEXXZ 100678e7 f i libucrt:initmon.obj
 0001:000668fd       ___acrt_locale_free_monetary 100678fd f   libucrt:initmon.obj
 0001:00066a3a       ___acrt_locale_initialize_monetary 10067a3a f   libucrt:initmon.obj
 0001:00066f2d       ___acrt_locale_free_numeric 10067f2d f   libucrt:initnum.obj
 0001:00066fb0       ___acrt_locale_initialize_numeric 10067fb0 f   libucrt:initnum.obj
 0001:0006729b       ??$?RU__crt_lc_time_data@@@__crt_internal_free_policy@@QBEXQBU__crt_lc_time_data@@@Z 1006829b f i libucrt:inittime.obj
 0001:0006733b       ??0?$__crt_unique_heap_ptr@U__crt_lc_time_data@@U__crt_internal_free_policy@@@@QAE@QAU__crt_lc_time_data@@@Z 1006833b f i libucrt:inittime.obj
 0001:0006734f       ??1?$__crt_unique_heap_ptr@U__crt_lc_time_data@@U__crt_internal_free_policy@@@@QAE@XZ 1006834f f i libucrt:inittime.obj
 0001:00067365       ??B?$__crt_unique_heap_ptr@U__crt_lc_time_data@@U__crt_internal_free_policy@@@@QBE_NXZ 10068365 f i libucrt:inittime.obj
 0001:0006736f       ?detach@?$__crt_unique_heap_ptr@U__crt_lc_time_data@@U__crt_internal_free_policy@@@@QAEPAU__crt_lc_time_data@@XZ 1006836f f i libucrt:inittime.obj
 0001:000673c0       ?get@?$__crt_unique_heap_ptr@U__crt_lc_time_data@@U__crt_internal_free_policy@@@@QBEPAU__crt_lc_time_data@@XZ 100683c0 f i libucrt:inittime.obj
 0001:00067758       ?is_valid@?$__crt_unique_heap_ptr@U__crt_lc_time_data@@U__crt_internal_free_policy@@@@QBE_NXZ 10068758 f i libucrt:inittime.obj
 0001:00067762       ?release@?$__crt_unique_heap_ptr@U__crt_lc_time_data@@U__crt_internal_free_policy@@@@QAEXXZ 10068762 f i libucrt:inittime.obj
 0001:00067778       ___acrt_locale_free_time   10068778 f   libucrt:inittime.obj
 0001:00067895       ___acrt_locale_initialize_time 10068895 f   libucrt:inittime.obj
 0001:00067a33       _wcsncpy_s                 10068a33 f   libucrt:wcsncpy_s.obj
 0001:00067a40       _wcscspn                   10068a40 f   libucrt:wcscspn.obj
 0001:00067aa4       _wcsncmp                   10068aa4 f   libucrt:wcsncmp.obj
 0001:00067aec       _wcspbrk                   10068aec f   libucrt:wcspbrk.obj
 0001:00067b42       ___acrt_GetStringTypeA     10068b42 f   libucrt:getstringtypea.obj
 0001:000685b6       ___acrt_get_qualified_locale 100695b6 f   libucrt:get_qualified_locale.obj
 0001:0006915d       ___acrt_get_qualified_locale_downlevel 1006a15d f   libucrt:getqloc_downlevel.obj
 0001:000693e5       _localeconv                1006a3e5 f   libucrt:localeconv.obj
 0001:00069419       ___setfflag                1006a419 f   libucrt:fp_flags.obj
 0001:00069433       __87except                 1006a433 f   libucrt:87except.obj
 0001:00069580       __wcsnicmp                 1006a580 f   libucrt:wcsnicmp.obj
 0001:00069666       __wcsnicmp_l               1006a666 f   libucrt:wcsnicmp.obj
 0001:000697b0       _strncmp                   1006a7b0 f   libucrt:strncmp.obj
 0001:00069846       __strnicmp                 1006a846 f   libucrt:strnicmp.obj
 0001:000698cd       __strnicmp_l               1006a8cd f   libucrt:strnicmp.obj
 0001:000699b1       ??$__vcrt_va_start_verify_argument_type@$$CBH@@YAXXZ 1006a9b1 f i libucrt:open.obj
 0001:00069d68       ??$tsopen_nolock@PAHABQAHABQBDABHABHABHABH@?$__crt_char_traits@D@@SAH$$QAPAHABQAHABQBDABH333@Z 1006ad68 f i libucrt:open.obj
 0001:00069da6       ??$tsopen_nolock@PAHABQAHABQB_WABHABHABHABH@?$__crt_char_traits@_W@@SAH$$QAPAHABQAHABQB_WABH333@Z 1006ada6 f i libucrt:open.obj
 0001:00069de4       ??$tsopen_nolock@PAHPAHABQBDABHHABHH@?$__crt_char_traits@D@@SAH$$QAPAH0ABQBDABH$$QAH23@Z 1006ade4 f i libucrt:open.obj
 0001:00069e22       ??$tsopen_nolock@PAHPAHABQB_WABHHABHH@?$__crt_char_traits@_W@@SAH$$QAPAH0ABQB_WABH$$QAH23@Z 1006ae22 f i libucrt:open.obj
 0001:0006a5f0       __open                     1006b5f0 f   libucrt:open.obj
 0001:0006a60e       __sopen                    1006b60e f   libucrt:open.obj
 0001:0006a650       __sopen_dispatch           1006b650 f   libucrt:open.obj
 0001:0006a65d       __sopen_nolock             1006b65d f   libucrt:open.obj
 0001:0006a6c2       __sopen_s                  1006b6c2 f   libucrt:open.obj
 0001:0006a6ea       __wopen                    1006b6ea f   libucrt:open.obj
 0001:0006a708       __wsopen                   1006b708 f   libucrt:open.obj
 0001:0006a74a       __wsopen_dispatch          1006b74a f   libucrt:open.obj
 0001:0006a757       __wsopen_nolock            1006b757 f   libucrt:open.obj
 0001:0006ab4a       __wsopen_s                 1006bb4a f   libucrt:open.obj
 0001:0006ab72       ___p__commode              1006bb72 f   libucrt:ncommode.obj
 0001:0006ab78       ___acrt_stdio_allocate_buffer_nolock 1006bb78 f   libucrt:_getbuf.obj
 0001:0006abec       ??$?RV<lambda_4980db0136e49a56f91ef52c46ca659a>@@AAV<lambda_6e3e78bb6855d1e4040e022c1b427e22>@@V<lambda_9c074eaf62197b4fd0274ed9e7824161>@@@?$__crt_seh_guarded_call@G@@QAEG$$QAV<lambda_4980db0136e49a56f91ef52c46ca659a>@@AAV<lambda_6e3e78bb6855d1e4040e022c1b427e22>@@$$QAV<lambda_9c074eaf62197b4fd0274ed9e7824161>@@@Z 1006bbec f i libucrt:putwch.obj
 0001:0006ac61       ??$__acrt_lock_and_call@V<lambda_6e3e78bb6855d1e4040e022c1b427e22>@@@@YAGW4__acrt_lock_id@@$$QAV<lambda_6e3e78bb6855d1e4040e022c1b427e22>@@@Z 1006bc61 f i libucrt:putwch.obj
 0001:0006acf9       __putwch                   1006bcf9 f   libucrt:putwch.obj
 0001:0006ad1d       __putwch_nolock            1006bd1d f   libucrt:putwch.obj
 0001:0006ad73       _nextafter                 1006bd73 f   libucrt:nextafter.obj
 0001:0006ad99       ??1scoped_global_state_reset@__crt_state_management@@QAE@XZ 1006bd99 f i libucrt:qsort.obj
 0001:0006aeb0       _qsort                     1006beb0 f   libucrt:qsort.obj
 0001:0006b40d       _strncpy_s                 1006c40d f   libucrt:strncpy_s.obj
 0001:0006b420       _strpbrk                   1006c420 f   libucrt:strpbrk.obj
 0001:0006b470       __mbsdec                   1006c470 f   libucrt:mbsdec.obj
 0001:0006b48c       __mbsdec_l                 1006c48c f   libucrt:mbsdec.obj
 0001:0006b54e       __wcsnicoll                1006c54e f   libucrt:wcsnicol.obj
 0001:0006b652       __wcsnicoll_l              1006c652 f   libucrt:wcsnicol.obj
 0001:0006b7ca       __strnicoll                1006c7ca f   libucrt:strnicol.obj
 0001:0006b7fd       __strnicoll_l              1006c7fd f   libucrt:strnicol.obj
 0001:0006b938       __msize                    1006c938 f   libucrt:msize.obj
 0001:0006b977       ___strncnt                 1006c977 f   libucrt:strncnt.obj
 0001:0006bad3       ___acrt_GetLocaleInfoA     1006cad3 f   libucrt:getlocaleinfoa.obj
 0001:0006bcf1       _fegetenv                  1006ccf1 f   libucrt:fegetenv.obj
 0001:0006bd15       _fesetenv                  1006cd15 f   libucrt:fesetenv.obj
 0001:0006bd70       _feholdexcept              1006cd70 f   libucrt:feholdexcept.obj
 0001:0006bde0       _log10                     1006cde0 f   libucrt:log10.obj
 0001:0006be20       __CIlog10                  1006ce20 f   libucrt:log10.obj
 0001:0006be5b       __CIlog10_default          1006ce5b f   libucrt:log10.obj
 0001:0006be6f       __log10_default            1006ce6f     libucrt:log10.obj
 0001:0006bf90       _ceil                      1006cf90 f   libucrt:ceil_pentium4.obj
 0001:0006bfd0       __ceil_pentium4            1006cfd0 f   libucrt:ceil_pentium4.obj
 0001:0006c0f4       __wcsicmp                  1006d0f4 f   libucrt:wcsicmp.obj
 0001:0006c1ae       __wcsicmp_l                1006d1ae f   libucrt:wcsicmp.obj
 0001:0006c2c6       __towlower_l               1006d2c6 f   libucrt:towlower.obj
 0001:0006c3c1       _towlower                  1006d3c1 f   libucrt:towlower.obj
 0001:0006c3e0       ___ascii_strnicmp          1006d3e0 f   libucrt:_strnicm.obj
 0001:0006c459       ??$__crt_interlocked_read@H@@YAHPDH@Z 1006d459 f i libucrt:setmode.obj
 0001:0006c468       __get_fmode                1006d468 f   libucrt:setmode.obj
 0001:0006c49f       __set_fmode                1006d49f f   libucrt:setmode.obj
 0001:0006c4eb       __setmode                  1006d4eb f   libucrt:setmode.obj
 0001:0006c63c       __setmode_nolock           1006d63c f   libucrt:setmode.obj
 0001:0006c741       ??$?RV<lambda_4cfda81533ccf5a03113a1ca40a30445>@@AAV<lambda_1cffa78e445b1da5fba1a2e0e533226f>@@V<lambda_68c952aa1b860373b2109ef12d0bba9d>@@@?$__crt_seh_guarded_call@H@@QAEH$$QAV<lambda_4cfda81533ccf5a03113a1ca40a30445>@@AAV<lambda_1cffa78e445b1da5fba1a2e0e533226f>@@$$QAV<lambda_68c952aa1b860373b2109ef12d0bba9d>@@@Z 1006d741 f i libucrt:chsize.obj
 0001:0006c7eb       ??$__acrt_lowio_lock_fh_and_call@V<lambda_1cffa78e445b1da5fba1a2e0e533226f>@@@@YAHH$$QAV<lambda_1cffa78e445b1da5fba1a2e0e533226f>@@@Z 1006d7eb f i libucrt:chsize.obj
 0001:0006c8cd       __chsize                   1006d8cd f   libucrt:chsize.obj
 0001:0006c8f0       __chsize_nolock            1006d8f0 f   libucrt:chsize.obj
 0001:0006cae5       __chsize_s                 1006dae5 f   libucrt:chsize.obj
 0001:0006cba6       __umask                    1006dba6 f   libucrt:umask.obj
 0001:0006cbd4       __umask_s                  1006dbd4 f   libucrt:umask.obj
 0001:0006cc1d       ___dcrt_lowio_initialize_console_output 1006dc1d f   libucrt:initcon.obj
 0001:0006cc43       ___dcrt_terminate_console_output 1006dc43 f   libucrt:initcon.obj
 0001:0006cc5f       _nexttoward                1006dc5f f   libucrt:nexttoward.obj
 0001:0006ce10       ___acrt_CompareStringW     1006de10 f   libucrt:comparestringw.obj
 0001:0006d1e4       ___acrt_CompareStringA     1006e1e4 f   libucrt:comparestringa.obj
 0001:0006d23e       ___acrt_fenv_get_fp_status_word_from_exception_mask 1006e23e f   libucrt:_fenvutils.obj
 0001:0006d681       __getfpcontrolword         1006e681 f   libucrt:_fenvutils.obj
 0001:0006d6d4       __getfpstatusword          1006e6d4 f   libucrt:_fenvutils.obj
 0001:0006d7a6       __setfpcontrolword         1006e7a6 f   libucrt:_fenvutils.obj
 0001:0006d846       __setfpstatusword          1006e846 f   libucrt:_fenvutils.obj
 0001:0006da7c       ___control87_2             1006ea7c f   libucrt:ieee87.obj
 0001:0006e050       ___fpreset_sse2            1006f050 f   libucrt:ieee87.obj
 0001:0006e2a3       __clearfp                  1006f2a3 f   libucrt:ieee87.obj
 0001:0006e3b8       __control87                1006f3b8 f   libucrt:ieee87.obj
 0001:0006e77a       __controlfp                1006f77a f   libucrt:ieee87.obj
 0001:0006e79a       __fpreset                  1006f79a f   libucrt:ieee87.obj
 0001:0006e897       __set_controlfp            1006f897 f   libucrt:ieee87.obj
 0001:0006e92d       __statusfp                 1006f92d f   libucrt:ieee87.obj
 0001:0006e9f0       __statusfp2                1006f9f0 f   libucrt:ieee87.obj
 0001:0006ea6d       ___acrt_initialize_sse2    1006fa6d f   libucrt:mathfcns.obj
 0001:0006ea7f       __set_SSE2_enable          1006fa7f f   libucrt:mathfcns.obj
 0001:0006eab0       __CIlog10_pentium4         1006fab0 f   libucrt:log10_pentium4.obj
 0001:0006eac8       __log10_pentium4           1006fac8     libucrt:log10_pentium4.obj
 0001:0006ee01       __fFEXP                    1006fe01     libucrt:87tran.obj
 0001:0006ee58       __rtinfpopse               1006fe58     libucrt:87tran.obj
 0001:0006ee5a       __rtinfnpopse              1006fe5a     libucrt:87tran.obj
 0001:0006ee6a       __fFLN                     1006fe6a     libucrt:87tran.obj
 0001:0006ef1f       __rtinfpop                 1006ff1f     libucrt:87tran.obj
 0001:0006ef21       __rtinfnpop                1006ff21     libucrt:87tran.obj
 0001:0006ef3e       __ffexpm1                  1006ff3e     libucrt:87tran.obj
 0001:0006f070       __twoToTOS                 10070070 f   libucrt:common.obj
 0001:0006f085       __load_CW                  10070085 f   libucrt:common.obj
 0001:0006f09c       __convertTOStoQNaN         1007009c f   libucrt:common.obj
 0001:0006f0b5       __fload_withFB             100700b5 f   libucrt:common.obj
 0001:0006f0f8       __checkTOS_withFB          100700f8 f   libucrt:common.obj
 0001:0006f10e       __fast_exit                1007010e f   libucrt:common.obj
 0001:0006f11b       __math_exit                1007011b f   libucrt:common.obj
 0001:0006f145       __check_overflow_exit      10070145 f   libucrt:common.obj
 0001:0006f159       __check_range_exit         10070159 f   libucrt:common.obj
 0001:0006f260       __startTwoArgErrorHandling 10070260 f   libucrt:genexcep.obj
 0001:0006f277       __startOneArgErrorHandling 10070277 f   libucrt:genexcep.obj
 0001:0006f2c7       ___libm_error_support      100702c7 f   libucrt:libm_error.obj
 0001:0006f565       ___libm_setusermatherr     10070565 f   libucrt:libm_error.obj
 0001:0006f59e       __ceil_default             1007059e f   libucrt:ceil.obj
 0001:0006f685       ___acrt_LCMapStringW       10070685 f   libucrt:lcmapstringw.obj
 0001:0006f6d2       ___p__fmode                100706d2 f   libucrt:txtmode.obj
 0001:0006f6d8       __d_int                    100706d8 f   libucrt:_test.obj
 0001:0006f820       __dtest                    10070820 f   libucrt:_test.obj
 0001:0006f89d       __fd_int                   1007089d f   libucrt:_test.obj
 0001:0006f99f       __fdtest                   1007099f f   libucrt:_test.obj
 0001:0006fa00       __fperrraise               10070a00 f   libucrt:_test.obj
 0001:0006fa2b       __ld_int                   10070a2b f   libucrt:_test.obj
 0001:0006fa38       __ldtest                   10070a38 f   libucrt:_test.obj
 0001:0006fadd       __controlfp_s              10070add f   libucrt:contrlfp.obj
 0001:0006fb53       __d_inttype                10070b53 f   libucrt:powhlp.obj
 0001:0006fbd7       __powhlp                   10070bd7 f   libucrt:powhlp.obj
 0001:0006fd4c       __frnd                     10070d4c f   libucrt:frnd.obj
 0001:0006fd67       _fegetexceptflag           10070d67 f   libucrt:fegetexceptflag.obj
 0001:0006fda4       _fesetexceptflag           10070da4 f   libucrt:fesetexceptflag.obj
 0001:0006fe05       _fetestexcept              10070e05 f   libucrt:fetestexcept.obj
 0001:0006fe30       __FindPESection            10070e30 f   LIBCMT:pesect.obj
 0001:0006fe90       __IsNonwritableInCurrentImage 10070e90 f   LIBCMT:pesect.obj
 0001:0006ff80       __ValidateImageBase        10070f80 f   LIBCMT:pesect.obj
 0001:0006ffc0       __aulldvrm                 10070fc0 f   LIBCMT:ulldvrm.obj
 0001:0007007a       ??1type_info@@UAE@XZ       1007107a f   LIBCMT:std_type_info_static.obj
 0001:00070081       ??_Gtype_info@@UAEPAXI@Z   10071081 f i LIBCMT:std_type_info_static.obj
 0001:00070081       ??_Etype_info@@UAEPAXI@Z   10071081 f i LIBCMT:std_type_info_static.obj
 0001:000700b0       __SEH_prolog4_GS           100710b0 f   LIBCMT:_sehprolg4gs_.obj
 0001:000700f9       __SEH_epilog4_GS           100710f9 f   LIBCMT:_sehprolg4gs_.obj
 0001:00070120       __allmul                   10071120 f   LIBCMT:llmul.obj
 0001:00070170       __alldvrm                  10071170 f   LIBCMT:lldvrm.obj
 0001:00070290       __aullshr                  10071290 f   LIBCMT:ullshr.obj
 0001:000702c0       __chkstk                   100712c0 f   LIBCMT:chkstk.obj
 0001:000702c0       __alloca_probe             100712c0 f   LIBCMT:chkstk.obj
 0001:00070300       __alloca_probe_16          10071300 f   LIBCMT:alloca16.obj
 0001:00070316       __alloca_probe_8           10071316     LIBCMT:alloca16.obj
 0001:00070340       __allshl                   10071340 f   LIBCMT:llshl.obj
 0001:00070370       __ftol2_sse                10071370 f   LIBCMT:_ftol2_.obj
 0001:00070379       __ftol2_pentium4           10071379 f   LIBCMT:_ftol2_.obj
 0001:0007038c       __ftol2_sse_excpt          1007138c f   LIBCMT:_ftol2_.obj
 0001:000703b0       __ftol2                    100713b0 f   LIBCMT:_ftol2_.obj
 0001:00070452       __initialize_default_precision 10071452 f   LIBCMT:default_precision.obj
 0001:0007047b       ??3@YAXPAXI@Z              1007147b f   LIBCMT:delete_scalar_size.obj
 0001:0007048c       ??3@YAXPAX@Z               1007148c f   LIBCMT:delete_scalar.obj
 0001:00070492       _InterlockedPushEntrySList@8 10071492 f   kernel32:KERNEL32.dll
 0001:00070498       _InterlockedFlushSList@4   10071498 f   kernel32:KERNEL32.dll
 0001:0007049e       _RtlUnwind@16              1007149e f   kernel32:KERNEL32.dll
 0001:000704a4       _GetLastError@0            100714a4 f   kernel32:KERNEL32.dll
 0001:000704aa       _SetLastError@4            100714aa f   kernel32:KERNEL32.dll
 0001:000704b0       _EnterCriticalSection@4    100714b0 f   kernel32:KERNEL32.dll
 0001:000704b6       _LeaveCriticalSection@4    100714b6 f   kernel32:KERNEL32.dll
 0001:000704bc       _DeleteCriticalSection@4   100714bc f   kernel32:KERNEL32.dll
 0001:000704c2       _InitializeCriticalSectionAndSpinCount@8 100714c2 f   kernel32:KERNEL32.dll
 0001:000704c8       _TlsAlloc@0                100714c8 f   kernel32:KERNEL32.dll
 0001:000704ce       _TlsGetValue@4             100714ce f   kernel32:KERNEL32.dll
 0001:000704d4       _TlsSetValue@8             100714d4 f   kernel32:KERNEL32.dll
 0001:000704da       _TlsFree@4                 100714da f   kernel32:KERNEL32.dll
 0001:000704e0       _FreeLibrary@4             100714e0 f   kernel32:KERNEL32.dll
 0001:000704e6       _LoadLibraryExW@12         100714e6 f   kernel32:KERNEL32.dll
 0001:000704ec       _ExitProcess@4             100714ec f   kernel32:KERNEL32.dll
 0001:000704f2       _GetModuleHandleExW@12     100714f2 f   kernel32:KERNEL32.dll
 0001:000704f8       _GetStdHandle@4            100714f8 f   kernel32:KERNEL32.dll
 0001:000704fe       _GetFileType@4             100714fe f   kernel32:KERNEL32.dll
 0001:00070504       _GetModuleFileNameA@12     10071504 f   kernel32:KERNEL32.dll
 0001:0007050a       _GetModuleFileNameW@12     1007150a f   kernel32:KERNEL32.dll
 0001:00070510       _WriteConsoleW@20          10071510 f   kernel32:KERNEL32.dll
 0001:00070516       _RaiseException@16         10071516 f   kernel32:KERNEL32.dll
 0001:0007051c       _MultiByteToWideChar@24    1007151c f   kernel32:KERNEL32.dll
 0001:00070522       _WideCharToMultiByte@32    10071522 f   kernel32:KERNEL32.dll
 0001:00070528       _HeapFree@12               10071528 f   kernel32:KERNEL32.dll
 0001:0007052e       _HeapAlloc@12              1007152e f   kernel32:KERNEL32.dll
 0001:00070534       _GetDateFormatW@24         10071534 f   kernel32:KERNEL32.dll
 0001:0007053a       _GetTimeFormatW@24         1007153a f   kernel32:KERNEL32.dll
 0001:00070540       _CompareStringW@24         10071540 f   kernel32:KERNEL32.dll
 0001:00070546       _LCMapStringW@24           10071546 f   kernel32:KERNEL32.dll
 0001:0007054c       _GetLocaleInfoW@16         1007154c f   kernel32:KERNEL32.dll
 0001:00070552       _IsValidLocale@8           10071552 f   kernel32:KERNEL32.dll
 0001:00070558       _GetUserDefaultLCID@0      10071558 f   kernel32:KERNEL32.dll
 0001:0007055e       _EnumSystemLocalesW@8      1007155e f   kernel32:KERNEL32.dll
 0001:00070564       _GetCurrentThread@0        10071564 f   kernel32:KERNEL32.dll
 0001:0007056a       _GetACP@0                  1007156a f   kernel32:KERNEL32.dll
 0001:00070570       _HeapReAlloc@16            10071570 f   kernel32:KERNEL32.dll
 0001:00070576       _ReadFile@20               10071576 f   kernel32:KERNEL32.dll
 0001:0007057c       _GetConsoleMode@8          1007157c f   kernel32:KERNEL32.dll
 0001:00070582       _ReadConsoleW@20           10071582 f   kernel32:KERNEL32.dll
 0001:00070588       _WriteFile@20              10071588 f   kernel32:KERNEL32.dll
 0001:0007058e       _GetConsoleCP@0            1007158e f   kernel32:KERNEL32.dll
 0001:00070594       _DeleteFileW@4             10071594 f   kernel32:KERNEL32.dll
 0001:0007059a       _SetFilePointerEx@20       1007159a f   kernel32:KERNEL32.dll
 0001:000705a0       _OutputDebugStringA@4      100715a0 f   kernel32:KERNEL32.dll
 0001:000705a6       _OutputDebugStringW@4      100715a6 f   kernel32:KERNEL32.dll
 0001:000705ac       _WaitForSingleObjectEx@12  100715ac f   kernel32:KERNEL32.dll
 0001:000705b2       _SetConsoleCtrlHandler@8   100715b2 f   kernel32:KERNEL32.dll
 0001:000705b8       _FindClose@4               100715b8 f   kernel32:KERNEL32.dll
 0001:000705be       _FindFirstFileExA@24       100715be f   kernel32:KERNEL32.dll
 0001:000705c4       _FindFirstFileExW@24       100715c4 f   kernel32:KERNEL32.dll
 0001:000705ca       _FindNextFileA@8           100715ca f   kernel32:KERNEL32.dll
 0001:000705d0       _FindNextFileW@8           100715d0 f   kernel32:KERNEL32.dll
 0001:000705d6       _IsValidCodePage@4         100715d6 f   kernel32:KERNEL32.dll
 0001:000705dc       _GetOEMCP@0                100715dc f   kernel32:KERNEL32.dll
 0001:000705e2       _GetCPInfo@8               100715e2 f   kernel32:KERNEL32.dll
 0001:000705e8       _GetCommandLineA@0         100715e8 f   kernel32:KERNEL32.dll
 0001:000705ee       _GetCommandLineW@0         100715ee f   kernel32:KERNEL32.dll
 0001:000705f4       _GetEnvironmentStringsW@0  100715f4 f   kernel32:KERNEL32.dll
 0001:000705fa       _FreeEnvironmentStringsW@4 100715fa f   kernel32:KERNEL32.dll
 0001:00070600       _SetEnvironmentVariableA@8 10071600 f   kernel32:KERNEL32.dll
 0001:00070606       _SetEnvironmentVariableW@8 10071606 f   kernel32:KERNEL32.dll
 0001:0007060c       _GetProcessHeap@0          1007160c f   kernel32:KERNEL32.dll
 0001:00070612       _GetStringTypeW@16         10071612 f   kernel32:KERNEL32.dll
 0001:00070618       _FlushFileBuffers@4        10071618 f   kernel32:KERNEL32.dll
 0001:0007061e       _SetStdHandle@8            1007161e f   kernel32:KERNEL32.dll
 0001:00070624       _CreateFileW@28            10071624 f   kernel32:KERNEL32.dll
 0001:0007062a       _HeapSize@12               1007162a f   kernel32:KERNEL32.dll
 0001:00070630       _SetEndOfFile@4            10071630 f   kernel32:KERNEL32.dll
 0001:00070636       _EncodePointer@4           10071636 f   kernel32:KERNEL32.dll
 0001:0007063c       _DecodePointer@4           1007163c f   kernel32:KERNEL32.dll
 0001:00070650       _strrchr                   10071650 f   libvcruntime:strrchr.obj
 0001:00070937       _memcmp                    10071937 f   libvcruntime:_memcmp_.obj
 0001:0007441f       _wcschr                    1007541f f   libvcruntime:wcschr.obj
 0002:00000000       ___xc_a                    10077000     LIBCMT:initializers.obj
 0002:00000104       ___xc_z                    10077104     LIBCMT:initializers.obj
 0002:00000208       ___xi_a                    10077208     LIBCMT:initializers.obj
 0002:0000030c       ___acrt_stdio_initializer  1007730c     libucrt:stdio_initializer.obj
 0002:00000310       ___acrt_multibyte_initializer 10077310     libucrt:multibyte_initializer.obj
 0002:00000314       ___acrt_tran_sse2_initializer 10077314     libucrt:sse2_initializer.obj
 0002:0000041c       ___xi_z                    1007741c     LIBCMT:initializers.obj
 0002:00000520       ___xp_a                    10077520     LIBCMT:initializers.obj
 0002:00000624       ___acrt_locale_terminator  10077624     libucrt:locale_initializer.obj
 0002:00000628       ___dcrt_console_output_terminator 10077628     libucrt:console_output_initializer.obj
 0002:00000730       ___acrt_stdio_terminator   10077730     libucrt:stdio_initializer.obj
 0002:00000834       ___xp_z                    10077834     LIBCMT:initializers.obj
 0002:00000938       ___xt_a                    10077938     LIBCMT:initializers.obj
 0002:00000a3c       ___xt_z                    10077a3c     LIBCMT:initializers.obj
 0002:00000b40       _ceshi20210224_17_RGND     10077b40     ceshi20210224_17.obj
 0002:00000b48       _ceshi20210224_17_M        10077b48     ceshi20210224_17.obj
 0002:00000b50       ??_C@_0BI@PHJEPFFP@Error?5creating?5scope?51?6?$AA@ 10077b50     ceshi20210224_17.obj
 0002:00000b6c       ??_C@_0L@JNNIIMAC@Product?1s1?$AA@ 10077b6c     ceshi20210224_17.obj
 0002:00000b7c       ??_C@_0L@LGPFNPMB@Product?1s2?$AA@ 10077b7c     ceshi20210224_17.obj
 0002:00000b8c       ??_C@_0L@KPOOOOIA@Product?1s3?$AA@ 10077b8c     ceshi20210224_17.obj
 0002:00000b9c       ??_C@_0L@OAKPHIEH@Product?1s4?$AA@ 10077b9c     ceshi20210224_17.obj
 0002:00000bac       ??_C@_0L@PJLEEJAG@Product?1s5?$AA@ 10077bac     ceshi20210224_17.obj
 0002:00000bbc       ??_C@_0L@NCJJBKMF@Product?1s6?$AA@ 10077bbc     ceshi20210224_17.obj
 0002:00000bcc       ??_C@_0L@MLICCLIE@Product?1s7?$AA@ 10077bcc     ceshi20210224_17.obj
 0002:00000bdc       ??_C@_0L@EMBKDHEL@Product?1s8?$AA@ 10077bdc     ceshi20210224_17.obj
 0002:00000bec       ??_C@_0BI@PFNCELAG@Error?5creating?5scope?52?6?$AA@ 10077bec     ceshi20210224_17.obj
 0002:00000c08       ??_C@_0BH@LMLEPJHF@chuanganqi1?1Product?1s5?$AA@ 10077c08     ceshi20210224_17.obj
 0002:00000c24       ??_C@_0BH@JHJJKKLG@chuanganqi1?1Product?1s6?$AA@ 10077c24     ceshi20210224_17.obj
 0002:00000c40       ??_C@_0BH@IOICJLPH@chuanganqi1?1Product?1s7?$AA@ 10077c40     ceshi20210224_17.obj
 0002:00000c5c       ??_C@_0BH@JBKIHDI@chuanganqi1?1Product?1s8?$AA@ 10077c5c     ceshi20210224_17.obj
 0002:00000c78       ??_C@_0BH@BAABLGHJ@chuanganqi1?1Product?1s9?$AA@ 10077c78     ceshi20210224_17.obj
 0002:00000c94       ??_C@_0BI@PIJMKPGF@chuanganqi1?1Product?1s10?$AA@ 10077c94     ceshi20210224_17.obj
 0002:00000cb0       ??_C@_0BI@OBIHJOCE@chuanganqi1?1Product?1s11?$AA@ 10077cb0     ceshi20210224_17.obj
 0002:00000ccc       ??_C@_0BI@MKKKMNOH@chuanganqi1?1Product?1s12?$AA@ 10077ccc     ceshi20210224_17.obj
 0002:00000ce8       ??_C@_0BI@NDLBPMKG@chuanganqi1?1Product?1s13?$AA@ 10077ce8     ceshi20210224_17.obj
 0002:00000d04       ??_C@_0BI@JMPAGKGB@chuanganqi1?1Product?1s14?$AA@ 10077d04     ceshi20210224_17.obj
 0002:00000d20       ??_C@_0BI@IFOLFLCA@chuanganqi1?1Product?1s15?$AA@ 10077d20     ceshi20210224_17.obj
 0002:00000d3c       ??_C@_0BI@KOMGAIOD@chuanganqi1?1Product?1s16?$AA@ 10077d3c     ceshi20210224_17.obj
 0002:00000d58       ??_C@_06KFNFIEK@?$CF15?46f?$AA@ 10077d58     ceshi20210224_17.obj
 0002:00000d60       ??_C@_0BI@PEBACBDB@Error?5creating?5scope?53?6?$AA@ 10077d60     ceshi20210224_17.obj
 0002:00000d7c       ??_C@_06HGLKAMJO@right1?$AA@ 10077d7c     ceshi20210224_17.obj
 0002:00000d84       ??_C@_0BI@PBFPDHLE@Error?5creating?5scope?54?6?$AA@ 10077d84     ceshi20210224_17.obj
 0002:00000da0       ??_C@_0FB@IPMGJIDL@TmpSignal?5ConversionAtHiddenToAs@ 10077da0     ceshi20210224_17.obj
 0002:00000e08       ??_C@_0FB@KEOLMLPI@TmpSignal?5ConversionAtHiddenToAs@ 10077e08     ceshi20210224_17.obj
 0002:00000e6c       ??_C@_0BI@PAJNFNID@Error?5creating?5scope?55?6?$AA@ 10077e6c     ceshi20210224_17.obj
 0002:00000e88       ??_C@_0BO@FNHMBBOF@chuanganqi1?11?9D?5Lookup?5Table1?$AA@ 10077e88     ceshi20210224_17.obj
 0002:00000eac       ??_C@_0BO@GPEKHDGH@chuanganqi1?11?9D?5Lookup?5Table3?$AA@ 10077eac     ceshi20210224_17.obj
 0002:00000ed0       ??_C@_0BO@DJBANEOB@chuanganqi1?11?9D?5Lookup?5Table5?$AA@ 10077ed0     ceshi20210224_17.obj
 0002:00000ef4       ??_C@_0BI@PCNLODNK@Error?5creating?5scope?56?6?$AA@ 10077ef4     ceshi20210224_17.obj
 0002:00000f10       ??_C@_0BO@IMLOKKKM@chuanganqi1?11?9D?5Lookup?5Table8?$AA@ 10077f10     ceshi20210224_17.obj
 0002:00000f34       ??_C@_0BO@JFKFJLON@chuanganqi1?11?9D?5Lookup?5Table9?$AA@ 10077f34     ceshi20210224_17.obj
 0002:00000f58       ??_C@_0CD@DBDEPIGH@chuanganqi1?1Data?5Type?5Conversion@ 10077f58     ceshi20210224_17.obj
 0002:00000f84       ??_C@_0CD@LGKMOEKI@chuanganqi1?1Data?5Type?5Conversion@ 10077f84     ceshi20210224_17.obj
 0002:00000fb0       ??_C@_0CD@KPLHNFOJ@chuanganqi1?1Data?5Type?5Conversion@ 10077fb0     ceshi20210224_17.obj
 0002:00000fdc       ??_C@_0CD@HMDDNAPJ@chuanganqi1?1Data?5Type?5Conversion@ 10077fdc     ceshi20210224_17.obj
 0002:00001008       ??_C@_0CD@GFCIOBLI@chuanganqi1?1Data?5Type?5Conversion@ 10078008     ceshi20210224_17.obj
 0002:00001034       ??_C@_0BI@PDBJIJON@Error?5creating?5scope?57?6?$AA@ 10078034     ceshi20210224_17.obj
 0002:00001050       ??_C@_0BO@LCGLGGD@chuanganqi1?11?9D?5Lookup?5Table7?$AA@ 10078050     ceshi20210224_17.obj
 0002:00001074       ??_C@_04GDMNHCBG@ode4?$AA@ 10078074     ceshi20210224_17.obj
 0002:0000107c       ??_C@_04EPKDLPPB@tout?$AA@ 1007807c     ceshi20210224_17.obj
 0002:00001082       ??_C@_00CNPNBAHC@?$AA@     10078082     ceshi20210224_17.obj
 0002:00001084       ??_C@_03HBFGMJOD@rt_?$AA@  10078084     ceshi20210224_17.obj
 0002:00001088       ??_C@_0M@JNFNAMK@PCI1716DIO1?$AA@ 10078088     ceshi20210224_17.obj
 0002:00001098       ??_C@_0BN@LGAGFEKE@ceshi20210224_17?1PCI1716DIO1?$AA@ 10078098     ceshi20210224_17.obj
 0002:000010bc       ??_C@_0O@GHMOKHOA@PCI?96208A?5DA?5?$AA@ 100780bc     ceshi20210224_17.obj
 0002:000010cc       ??_C@_0BP@HGGFBJCD@ceshi20210224_17?1PCI?96208A?5DA?5?$AA@ 100780cc     ceshi20210224_17.obj
 0002:000010f4       ??_C@_06LJFBBHBB@Setup?5?$AA@ 100780f4     ceshi20210224_17.obj
 0002:000010fc       ??_C@_0CE@ELLDLNED@ceshi20210224_17?1chuanganqi1?1Set@ 100780fc     ceshi20210224_17.obj
 0002:00001128       __real@0000000000000000    10078128     ceshi20210224_17.obj
 0002:00001138       __real@3f60624dd2f1a9fc    10078138     ceshi20210224_17.obj
 0002:00001148       __real@3f847ae147ae147b    10078148     ceshi20210224_17.obj
 0002:00001158       __real@3fc5555555555555    10078158     ceshi20210224_17.obj
 0002:00001168       __real@3fe0000000000000    10078168     ceshi20210224_17.obj
 0002:00001178       __real@3ff0000000000000    10078178     ceshi20210224_17.obj
 0002:00001188       __real@4000000000000000    10078188     ceshi20210224_17.obj
 0002:00001198       __real@406f400000000000    10078198     ceshi20210224_17.obj
 0002:000011a8       __real@4070000000000000    100781a8     ceshi20210224_17.obj
 0002:000011b8       __real@41f0000000000000    100781b8     ceshi20210224_17.obj
 0002:000011c8       __real@4330000000000000    100781c8     ceshi20210224_17.obj
 0002:000011d8       __real@8000000000000000    100781d8     ceshi20210224_17.obj
 0002:000011e8       __real@bff0000000000000    100781e8     ceshi20210224_17.obj
 0002:00001200       __xmm@00075459000000ec0000018300000002 10078200     ceshi20210224_17.obj
 0002:00001220       __xmm@3f847ae147ae147b0000000000000000 10078220     ceshi20210224_17.obj
 0002:00001240       __xmm@41f00000000000000000000000000000 10078240     ceshi20210224_17.obj
 0002:00001260       __xmm@80000000000000008000000000000000 10078260     ceshi20210224_17.obj
 0002:00001274       ??_C@_0CD@ENIBGGBF@chuanganqi1?1Data?5Type?5Conversion@ 10078274     ceshi20210224_17_capi.obj
 0002:000012a0       ??_C@_0CD@FEJKFHFE@chuanganqi1?1Data?5Type?5Conversion@ 100782a0     ceshi20210224_17_capi.obj
 0002:000012cc       ??_C@_0CD@BLNLMBJD@chuanganqi1?1Data?5Type?5Conversion@ 100782cc     ceshi20210224_17_capi.obj
 0002:000012f8       ??_C@_0CD@CMAPANC@chuanganqi1?1Data?5Type?5Conversion@ 100782f8     ceshi20210224_17_capi.obj
 0002:00001324       ??_C@_0CD@CJONKDBB@chuanganqi1?1Data?5Type?5Conversion@ 10078324     ceshi20210224_17_capi.obj
 0002:00001350       ??_C@_0CD@DAPGJCFA@chuanganqi1?1Data?5Type?5Conversion@ 10078350     ceshi20210224_17_capi.obj
 0002:0000137c       ??_C@_0CD@LHGOIOJP@chuanganqi1?1Data?5Type?5Conversion@ 1007837c     ceshi20210224_17_capi.obj
 0002:000013a8       ??_C@_0CD@KOHFLPNO@chuanganqi1?1Data?5Type?5Conversion@ 100783a8     ceshi20210224_17_capi.obj
 0002:000013d4       ??_C@_0CC@OCMLCNKB@chuanganqi1?1Data?5Type?5Conversion@ 100783d4     ceshi20210224_17_capi.obj
 0002:000013fc       ??_C@_0CD@HOHFGOKA@chuanganqi1?1Data?5Type?5Conversion@ 100783fc     ceshi20210224_17_capi.obj
 0002:00001428       ??_C@_0CD@GHGOFPOB@chuanganqi1?1Data?5Type?5Conversion@ 10078428     ceshi20210224_17_capi.obj
 0002:00001454       ??_C@_0CD@EMEDAMCC@chuanganqi1?1Data?5Type?5Conversion@ 10078454     ceshi20210224_17_capi.obj
 0002:00001480       ??_C@_0CD@FFFIDNGD@chuanganqi1?1Data?5Type?5Conversion@ 10078480     ceshi20210224_17_capi.obj
 0002:000014ac       ??_C@_0CD@BKBJKLKE@chuanganqi1?1Data?5Type?5Conversion@ 100784ac     ceshi20210224_17_capi.obj
 0002:000014d8       ??_C@_0CD@DACJKOF@chuanganqi1?1Data?5Type?5Conversion@ 100784d8     ceshi20210224_17_capi.obj
 0002:00001504       ??_C@_0CD@CICPMJCG@chuanganqi1?1Data?5Type?5Conversion@ 10078504     ceshi20210224_17_capi.obj
 0002:00001530       ??_C@_0CC@MJOGHOGC@chuanganqi1?1Data?5Type?5Conversion@ 10078530     ceshi20210224_17_capi.obj
 0002:00001558       ??_C@_0CC@NAPNEPCD@chuanganqi1?1Data?5Type?5Conversion@ 10078558     ceshi20210224_17_capi.obj
 0002:00001580       ??_C@_0CC@FHGFFDOM@chuanganqi1?1Data?5Type?5Conversion@ 10078580     ceshi20210224_17_capi.obj
 0002:000015a8       ??_C@_0CC@EOHOGCKN@chuanganqi1?1Data?5Type?5Conversion@ 100785a8     ceshi20210224_17_capi.obj
 0002:000015d0       ??_C@_0BO@NJOHDKMK@chuanganqi1?1Logical?5Operator1?$AA@ 100785d0     ceshi20210224_17_capi.obj
 0002:000015f4       ??_C@_0BO@HGFBECCG@chuanganqi1?11?9D?5Lookup?5Table2?$AA@ 100785f4     ceshi20210224_17_capi.obj
 0002:00001618       ??_C@_0BO@CAALOFKA@chuanganqi1?11?9D?5Lookup?5Table4?$AA@ 10078618     ceshi20210224_17_capi.obj
 0002:0000163c       ??_C@_0BO@BCDNIHCC@chuanganqi1?11?9D?5Lookup?5Table6?$AA@ 1007863c     ceshi20210224_17_capi.obj
 0002:00001660       ??_C@_0BE@EGKNLICL@chuanganqi1?1Product?$AA@ 10078660     ceshi20210224_17_capi.obj
 0002:00001678       ??_C@_0OA@EENGBKFK@1234wuxinhao?65?4kaigaidaowei?66?4ka@ 10078678     ceshi20210224_17_capi.obj
 0002:00001784       ??_C@_0BN@DFFCECFO@chuanganqi1?1CAN?5bit?9packing?5?$AA@ 10078784     ceshi20210224_17_capi.obj
 0002:000017a8       ??_C@_0BO@EKLLCJAD@chuanganqi1?1CAN?5bit?9packing?51?$AA@ 100787a8     ceshi20210224_17_capi.obj
 0002:000017cc       ??_C@_0BO@GBJGHKMA@chuanganqi1?1CAN?5bit?9packing?52?$AA@ 100787cc     ceshi20210224_17_capi.obj
 0002:000017f0       ??_C@_0BO@HIINELIB@chuanganqi1?1CAN?5bit?9packing?53?$AA@ 100787f0     ceshi20210224_17_capi.obj
 0002:00001814       ??_C@_0BO@DHMMNNEG@chuanganqi1?1CAN?5bit?9packing?54?$AA@ 10078814     ceshi20210224_17_capi.obj
 0002:00001838       ??_C@_0CD@NJAIHOEI@chuanganqi1?1CAN?5bit?9unpacking?52?1@ 10078838     ceshi20210224_17_capi.obj
 0002:00001864       ??_C@_0CD@PCCFCNIL@chuanganqi1?1CAN?5bit?9unpacking?52?1@ 10078864     ceshi20210224_17_capi.obj
 0002:00001890       ??_C@_0CD@OLDOBMMK@chuanganqi1?1CAN?5bit?9unpacking?52?1@ 10078890     ceshi20210224_17_capi.obj
 0002:000018bc       ??_C@_0CD@KEHPIKAN@chuanganqi1?1CAN?5bit?9unpacking?52?1@ 100788bc     ceshi20210224_17_capi.obj
 0002:000018e8       ??_C@_0CD@LNGELLEM@chuanganqi1?1CAN?5bit?9unpacking?52?1@ 100788e8     ceshi20210224_17_capi.obj
 0002:00001914       ??_C@_0CD@JGEJOIIP@chuanganqi1?1CAN?5bit?9unpacking?52?1@ 10078914     ceshi20210224_17_capi.obj
 0002:00001940       ??_C@_0CD@IPFCNJMO@chuanganqi1?1CAN?5bit?9unpacking?52?1@ 10078940     ceshi20210224_17_capi.obj
 0002:0000196c       ??_C@_0CD@IMKMFAB@chuanganqi1?1CAN?5bit?9unpacking?52?1@ 1007896c     ceshi20210224_17_capi.obj
 0002:00001998       ??_C@_0CD@BBNBPEEA@chuanganqi1?1CAN?5bit?9unpacking?52?1@ 10078998     ceshi20210224_17_capi.obj
 0002:000019c4       ??_C@_0CE@KHJIPHCP@chuanganqi1?1CAN?5bit?9unpacking?52?1@ 100789c4     ceshi20210224_17_capi.obj
 0002:000019f0       ??_C@_0CE@LOIDMGGO@chuanganqi1?1CAN?5bit?9unpacking?52?1@ 100789f0     ceshi20210224_17_capi.obj
 0002:00001a1c       ??_C@_0CE@JFKOJFKN@chuanganqi1?1CAN?5bit?9unpacking?52?1@ 10078a1c     ceshi20210224_17_capi.obj
 0002:00001a48       ??_C@_0CE@IMLFKEOM@chuanganqi1?1CAN?5bit?9unpacking?52?1@ 10078a48     ceshi20210224_17_capi.obj
 0002:00001a74       ??_C@_0CE@MDPEDCCL@chuanganqi1?1CAN?5bit?9unpacking?52?1@ 10078a74     ceshi20210224_17_capi.obj
 0002:00001aa0       ??_C@_0CE@NKOPADGK@chuanganqi1?1CAN?5bit?9unpacking?52?1@ 10078aa0     ceshi20210224_17_capi.obj
 0002:00001acc       ??_C@_0CE@PBMCFAKJ@chuanganqi1?1CAN?5bit?9unpacking?52?1@ 10078acc     ceshi20210224_17_capi.obj
 0002:00001af8       ??_C@_0CD@OEGIFHPI@chuanganqi1?1CAN?5bit?9unpacking?53?1@ 10078af8     ceshi20210224_17_capi.obj
 0002:00001b24       ??_C@_0CD@MPEFAEDL@chuanganqi1?1CAN?5bit?9unpacking?53?1@ 10078b24     ceshi20210224_17_capi.obj
 0002:00001b50       ??_C@_0CD@NGFODFHK@chuanganqi1?1CAN?5bit?9unpacking?53?1@ 10078b50     ceshi20210224_17_capi.obj
 0002:00001b7c       ??_C@_0CD@JJBPKDLN@chuanganqi1?1CAN?5bit?9unpacking?53?1@ 10078b7c     ceshi20210224_17_capi.obj
 0002:00001ba8       ??_C@_0CD@FGEIILOI@chuanganqi1?1CAN?5bit?9unpacking?54?1@ 10078ba8     ceshi20210224_17_capi.obj
 0002:00001bd4       ??_C@_0CD@HNGFNICL@chuanganqi1?1CAN?5bit?9unpacking?54?1@ 10078bd4     ceshi20210224_17_capi.obj
 0002:00001c00       ??_C@_0CD@GLCIKCFI@chuanganqi1?1CAN?5bit?9unpacking?55?1@ 10078c00     ceshi20210224_17_capi.obj
 0002:00001c2c       ??_C@_0CD@EAAFPBJL@chuanganqi1?1CAN?5bit?9unpacking?55?1@ 10078c2c     ceshi20210224_17_capi.obj
 0002:00001c58       ??_C@_0CD@FJBOMANK@chuanganqi1?1CAN?5bit?9unpacking?55?1@ 10078c58     ceshi20210224_17_capi.obj
 0002:00001c84       ??_C@_0CD@CMIINIII@chuanganqi1?1CAN?5bit?9unpacking?56?1@ 10078c84     ceshi20210224_17_capi.obj
 0002:00001cb0       ??_C@_0CD@HKFILEL@chuanganqi1?1CAN?5bit?9unpacking?56?1@ 10078cb0     ceshi20210224_17_capi.obj
 0002:00001cdc       ??_C@_0CD@BBOIPBDI@chuanganqi1?1CAN?5bit?9unpacking?57?1@ 10078cdc     ceshi20210224_17_capi.obj
 0002:00001d08       ??_C@_0CD@DKMFKCPL@chuanganqi1?1CAN?5bit?9unpacking?57?1@ 10078d08     ceshi20210224_17_capi.obj
 0002:00001d34       ??_C@_0CD@CDNOJDLK@chuanganqi1?1CAN?5bit?9unpacking?57?1@ 10078d34     ceshi20210224_17_capi.obj
 0002:00001d60       ??_C@_0CD@GMJPAFHN@chuanganqi1?1CAN?5bit?9unpacking?57?1@ 10078d60     ceshi20210224_17_capi.obj
 0002:00001d8c       ??_C@_0CD@KONIEPFJ@chuanganqi1?1CAN?5bit?9unpacking?59?1@ 10078d8c     ceshi20210224_17_capi.obj
 0002:00001db8       ??_C@_0CD@IFPFBMJK@chuanganqi1?1CAN?5bit?9unpacking?59?1@ 10078db8     ceshi20210224_17_capi.obj
 0002:00001de4       ??_C@_0CD@JMOOCNNL@chuanganqi1?1CAN?5bit?9unpacking?59?1@ 10078de4     ceshi20210224_17_capi.obj
 0002:00001e10       ??_C@_0CA@GEIPBECD@chuanganqi1?1kaiguangaiweiyi3402?$AA@ 10078e10     ceshi20210224_17_capi.obj
 0002:00001e38       ??_C@_0CL@MJGLIIEK@chuanganqi1?1liuliangji_fuqiuyewe@ 10078e38     ceshi20210224_17_capi.obj
 0002:00001e6c       ??_C@_0L@HCDOBLHP@liuliangji?$AA@ 10078e6c     ceshi20210224_17_capi.obj
 0002:00001e7c       ??_C@_0CL@OCEGNLIJ@chuanganqi1?1liuliangji_fuqiuyewe@ 10078e7c     ceshi20210224_17_capi.obj
 0002:00001eb0       ??_C@_0BP@HPHGMHJF@chuanganqi1?1tonggai1808Receive?$AA@ 10078eb0     ceshi20210224_17_capi.obj
 0002:00001ed8       ??_C@_0CC@MELMPHLD@chuanganqi1?1tonggai3402Receive?1p@ 10078ed8     ceshi20210224_17_capi.obj
 0002:00001f00       ??_C@_0CC@OPJBKEHA@chuanganqi1?1tonggai3402Receive?1p@ 10078f00     ceshi20210224_17_capi.obj
 0002:00001f28       ??_C@_0CC@GHEMPDGP@chuanganqi1?1yalichuanganqi3402?1p@ 10078f28     ceshi20210224_17_capi.obj
 0002:00001f50       ??_C@_0CC@EMGBKAKM@chuanganqi1?1yalichuanganqi3402?1p@ 10078f50     ceshi20210224_17_capi.obj
 0002:00001f78       ??_C@_0BB@KEMALDME@chuanganqi1?1Step?$AA@ 10078f78     ceshi20210224_17_capi.obj
 0002:00001f8c       ??_C@_0BK@BJNCDMMA@chuanganqi1?1Manual?5Switch?$AA@ 10078f8c     ceshi20210224_17_capi.obj
 0002:00001fac       ??_C@_0BL@FNCABHDO@chuanganqi1?1Manual?5Switch1?$AA@ 10078fac     ceshi20210224_17_capi.obj
 0002:00001fcc       ??_C@_0BL@HGANEEPN@chuanganqi1?1Manual?5Switch2?$AA@ 10078fcc     ceshi20210224_17_capi.obj
 0002:00001fec       ??_C@_0BL@GPBGHFLM@chuanganqi1?1Manual?5Switch3?$AA@ 10078fec     ceshi20210224_17_capi.obj
 0002:0000200c       ??_C@_0BL@CAFHODHL@chuanganqi1?1Manual?5Switch4?$AA@ 1007900c     ceshi20210224_17_capi.obj
 0002:0000202c       ??_C@_0BK@EOKJMJFL@Subsystem7?1Subsystem?1Gain?$AA@ 1007902c     ceshi20210224_17_capi.obj
 0002:0000204c       ??_C@_0BJ@JBEOKAMH@Subsystem7?1Subsystem?1Add?$AA@ 1007904c     ceshi20210224_17_capi.obj
 0002:0000559c       ??_C@_08CHMPKCOC@Constant?$AA@ 1007c59c     ceshi20210224_17_capi.obj
 0002:000055a8       ??_C@_05LPIJGKJ@Value?$AA@ 1007c5a8     ceshi20210224_17_capi.obj
 0002:000055b0       ??_C@_09KDFDBIIH@Constant2?$AA@ 1007c5b0     ceshi20210224_17_capi.obj
 0002:000055bc       ??_C@_09LKEICJMG@Constant3?$AA@ 1007c5bc     ceshi20210224_17_capi.obj
 0002:000055c8       ??_C@_09MHDPNNID@Constant6?$AA@ 1007c5c8     ceshi20210224_17_capi.obj
 0002:000055d4       ??_C@_09MHCDEIJE@constant1?$AA@ 1007c5d4     ceshi20210224_17_capi.obj
 0002:000055e0       ??_C@_0BL@DALDPCEL@s?$CG?$CDx521D?$DL?$CG?$CDx59CB?$DL?$CG?$CDx503C?$DL1?$AA@ 1007c5e0     ceshi20210224_17_capi.obj
 0002:00005600       ??_C@_0BL@CIFJAMJ@s?$CG?$CDx521D?$DL?$CG?$CDx59CB?$DL?$CG?$CDx503C?$DL3?$AA@ 1007c600     ceshi20210224_17_capi.obj
 0002:00005620       ??_C@_0BB@JKLMAEKN@?$CG?$CDx5173?$DL?$CG?$CDx76D6?$DL?$AA@ 1007c620     ceshi20210224_17_capi.obj
 0002:00005634       ??_C@_0BC@JAABHHE@?$CG?$CDx65CB?$DL?$CG?$CDx677E?$DL1?$AA@ 1007c634     ceshi20210224_17_capi.obj
 0002:0000564c       ??_C@_0BK@NMLDOIGG@?$CG?$CDx9600?$DL?$CG?$CDx5F00?$DL?$CG?$CDx53E3?$DL1?$AA@ 1007c64c     ceshi20210224_17_capi.obj
 0002:0000566c       ??_C@_0BK@PHJOLLKF@?$CG?$CDx9600?$DL?$CG?$CDx5F00?$DL?$CG?$CDx53E3?$DL2?$AA@ 1007c66c     ceshi20210224_17_capi.obj
 0002:0000568c       ??_C@_0BK@OOIFIKOE@?$CG?$CDx9600?$DL?$CG?$CDx5F00?$DL?$CG?$CDx53E3?$DL3?$AA@ 1007c68c     ceshi20210224_17_capi.obj
 0002:000056ac       ??_C@_0BK@KBMEBMCD@?$CG?$CDx9600?$DL?$CG?$CDx5F00?$DL?$CG?$CDx53E3?$DL4?$AA@ 1007c6ac     ceshi20210224_17_capi.obj
 0002:000056cc       ??_C@_0M@IGKFHMMJ@InputValues?$AA@ 1007c6cc     ceshi20210224_17_capi.obj
 0002:000056dc       ??_C@_05LFBINIGO@Table?$AA@ 1007c6dc     ceshi20210224_17_capi.obj
 0002:000056e4       ??_C@_02LNFHGPBG@X0?$AA@   1007c6e4     ceshi20210224_17_capi.obj
 0002:000056e8       ??_C@_0L@FBCGKKEN@UpperLimit?$AA@ 1007c6e8     ceshi20210224_17_capi.obj
 0002:000056f8       ??_C@_0L@DGFJOHKP@LowerLimit?$AA@ 1007c6f8     ceshi20210224_17_capi.obj
 0002:00005708       ??_C@_02KKFPAPOP@P1?$AA@   1007c708     ceshi20210224_17_capi.obj
 0002:0000570c       ??_C@_02IBHCFMCM@P2?$AA@   1007c70c     ceshi20210224_17_capi.obj
 0002:00005710       ??_C@_02JIGJGNGN@P3?$AA@   1007c710     ceshi20210224_17_capi.obj
 0002:00005714       ??_C@_02NHCIPLKK@P4?$AA@   1007c714     ceshi20210224_17_capi.obj
 0002:00005718       ??_C@_02MODDMKOL@P5?$AA@   1007c718     ceshi20210224_17_capi.obj
 0002:0000571c       ??_C@_02OFBOJJCI@P6?$AA@   1007c71c     ceshi20210224_17_capi.obj
 0002:00005720       ??_C@_01FHEEJDEE@A?$AA@    1007c720     ceshi20210224_17_capi.obj
 0002:00005724       ??_C@_01HMGJMAIH@B?$AA@    1007c724     ceshi20210224_17_capi.obj
 0002:00005728       ??_C@_01GFHCPBMG@C?$AA@    1007c728     ceshi20210224_17_capi.obj
 0002:0000572c       ??_C@_04OKOFBOPB@Time?$AA@ 1007c72c     ceshi20210224_17_capi.obj
 0002:00005734       ??_C@_06NDPGJMFM@Before?$AA@ 1007c734     ceshi20210224_17_capi.obj
 0002:0000573c       ??_C@_05CLADCAAM@After?$AA@ 1007c73c     ceshi20210224_17_capi.obj
 0002:00005744       ??_C@_09HLCHFPPJ@Threshold?$AA@ 1007c744     ceshi20210224_17_capi.obj
 0002:00005750       ??_C@_0P@HMEAEHIM@CurrentSetting?$AA@ 1007c750     ceshi20210224_17_capi.obj
 0002:00005764       ??_C@_0P@EGFGDPEP@Subsystem?1Out1?$AA@ 1007c764     ceshi20210224_17_capi.obj
 0002:00005778       ??_C@_0O@LILIEJBO@InitialOutput?$AA@ 1007c778     ceshi20210224_17_capi.obj
 0002:00005788       ??_C@_0BB@CFEOEMDC@InitialCondition?$AA@ 1007c788     ceshi20210224_17_capi.obj
 0002:0000579c       ??_C@_0BA@DKBBGNCM@Subsystem1?1Out1?$AA@ 1007c79c     ceshi20210224_17_capi.obj
 0002:000057b0       ??_C@_0BA@LPJHHLB@Subsystem2?1Out1?$AA@ 1007c7b0     ceshi20210224_17_capi.obj
 0002:000057c4       ??_C@_0BE@KKHPOOPH@Subsystem2?1Constant?$AA@ 1007c7c4     ceshi20210224_17_capi.obj
 0002:000057dc       ??_C@_0BA@KNIOHMAF@Subsystem3?1Out1?$AA@ 1007c7dc     ceshi20210224_17_capi.obj
 0002:000057f0       ??_C@_0BE@GLPBDBDH@Subsystem3?1Constant?$AA@ 1007c7f0     ceshi20210224_17_capi.obj
 0002:00005808       ??_C@_0BA@GICJECIL@Subsystem4?1Out1?$AA@ 1007c808     ceshi20210224_17_capi.obj
 0002:0000581c       ??_C@_0BF@KDIAJEOO@Subsystem5?1Constant3?$AA@ 1007c81c     ceshi20210224_17_capi.obj
 0002:00005838       ??_C@_0M@KNNCJG@DelayLength?$AA@ 1007c838     ceshi20210224_17_capi.obj
 0002:00005848       ??_C@_0BA@LPAEMCIN@RisingSlewLimit?$AA@ 1007c848     ceshi20210224_17_capi.obj
 0002:0000585c       ??_C@_0BB@LLFDGNJJ@FallingSlewLimit?$AA@ 1007c85c     ceshi20210224_17_capi.obj
 0002:00005870       ??_C@_0BF@KLCGEMEO@chuanganqi1?1Constant?$AA@ 1007c870     ceshi20210224_17_capi.obj
 0002:0000588c       ??_C@_0BG@FHJCENGJ@chuanganqi1?1Constant1?$AA@ 1007c88c     ceshi20210224_17_capi.obj
 0002:000058a8       ??_C@_0BH@OLHPHNEC@chuanganqi1?1Constant10?$AA@ 1007c8a8     ceshi20210224_17_capi.obj
 0002:000058c4       ??_C@_0BH@PCGEEMAD@chuanganqi1?1Constant11?$AA@ 1007c8c4     ceshi20210224_17_capi.obj
 0002:000058e0       ??_C@_0BH@NJEJBPMA@chuanganqi1?1Constant12?$AA@ 1007c8e0     ceshi20210224_17_capi.obj
 0002:000058fc       ??_C@_0BH@MAFCCOIB@chuanganqi1?1Constant13?$AA@ 1007c8fc     ceshi20210224_17_capi.obj
 0002:00005918       ??_C@_0BH@IPBDLIEG@chuanganqi1?1Constant14?$AA@ 1007c918     ceshi20210224_17_capi.obj
 0002:00005934       ??_C@_0BH@JGAIIJAH@chuanganqi1?1Constant15?$AA@ 1007c934     ceshi20210224_17_capi.obj
 0002:00005950       ??_C@_0BH@LNCFNKME@chuanganqi1?1Constant16?$AA@ 1007c950     ceshi20210224_17_capi.obj
 0002:0000596c       ??_C@_0BH@KEDOOLIF@chuanganqi1?1Constant17?$AA@ 1007c96c     ceshi20210224_17_capi.obj
 0002:00005988       ??_C@_0BH@CDKGPHEK@chuanganqi1?1Constant18?$AA@ 1007c988     ceshi20210224_17_capi.obj
 0002:000059a4       ??_C@_0BH@DKLNMGAL@chuanganqi1?1Constant19?$AA@ 1007c9a4     ceshi20210224_17_capi.obj
 0002:000059c0       ??_C@_0BG@HMLPBOKK@chuanganqi1?1Constant2?$AA@ 1007c9c0     ceshi20210224_17_capi.obj
 0002:000059dc       ??_C@_0BH@OJDJMDBL@chuanganqi1?1Constant20?$AA@ 1007c9dc     ceshi20210224_17_capi.obj
 0002:000059f8       ??_C@_0BH@PACCPCFK@chuanganqi1?1Constant21?$AA@ 1007c9f8     ceshi20210224_17_capi.obj
 0002:00005a14       ??_C@_0BH@NLAPKBJJ@chuanganqi1?1Constant22?$AA@ 1007ca14     ceshi20210224_17_capi.obj
 0002:00005a30       ??_C@_0BH@MCBEJANI@chuanganqi1?1Constant23?$AA@ 1007ca30     ceshi20210224_17_capi.obj
 0002:00005a4c       ??_C@_0BH@INFFAGBP@chuanganqi1?1Constant24?$AA@ 1007ca4c     ceshi20210224_17_capi.obj
 0002:00005a68       ??_C@_0BH@JEEODHFO@chuanganqi1?1Constant25?$AA@ 1007ca68     ceshi20210224_17_capi.obj
 0002:00005a84       ??_C@_0BH@LPGDGEJN@chuanganqi1?1Constant26?$AA@ 1007ca84     ceshi20210224_17_capi.obj
 0002:00005aa0       ??_C@_0BH@KGHIFFNM@chuanganqi1?1Constant27?$AA@ 1007caa0     ceshi20210224_17_capi.obj
 0002:00005abc       ??_C@_0BH@CBOAEJBD@chuanganqi1?1Constant28?$AA@ 1007cabc     ceshi20210224_17_capi.obj
 0002:00005ad8       ??_C@_0BH@DIPLHIFC@chuanganqi1?1Constant29?$AA@ 1007cad8     ceshi20210224_17_capi.obj
 0002:00005af4       ??_C@_0BG@GFKECPOL@chuanganqi1?1Constant3?$AA@ 1007caf4     ceshi20210224_17_capi.obj
 0002:00005b10       ??_C@_0BH@OIPLKJCM@chuanganqi1?1Constant30?$AA@ 1007cb10     ceshi20210224_17_capi.obj
 0002:00005b2c       ??_C@_0BH@PBOAJIGN@chuanganqi1?1Constant31?$AA@ 1007cb2c     ceshi20210224_17_capi.obj
 0002:00005b48       ??_C@_0BH@NKMNMLKO@chuanganqi1?1Constant32?$AA@ 1007cb48     ceshi20210224_17_capi.obj
 0002:00005b64       ??_C@_0BH@MDNGPKOP@chuanganqi1?1Constant33?$AA@ 1007cb64     ceshi20210224_17_capi.obj
 0002:00005b80       ??_C@_0BH@IMJHGMCI@chuanganqi1?1Constant34?$AA@ 1007cb80     ceshi20210224_17_capi.obj
 0002:00005b9c       ??_C@_0BH@JFIMFNGJ@chuanganqi1?1Constant35?$AA@ 1007cb9c     ceshi20210224_17_capi.obj
 0002:00005bb8       ??_C@_0BH@LOKBAOKK@chuanganqi1?1Constant36?$AA@ 1007cbb8     ceshi20210224_17_capi.obj
 0002:00005bd4       ??_C@_0BH@KHLKDPOL@chuanganqi1?1Constant37?$AA@ 1007cbd4     ceshi20210224_17_capi.obj
 0002:00005bf0       ??_C@_0BH@CACCCDCE@chuanganqi1?1Constant38?$AA@ 1007cbf0     ceshi20210224_17_capi.obj
 0002:00005c0c       ??_C@_0BH@DJDJBCGF@chuanganqi1?1Constant39?$AA@ 1007cc0c     ceshi20210224_17_capi.obj
 0002:00005c28       ??_C@_0BG@CKOFLJCM@chuanganqi1?1Constant4?$AA@ 1007cc28     ceshi20210224_17_capi.obj
 0002:00005c44       ??_C@_0BH@ONLELPKJ@chuanganqi1?1Constant40?$AA@ 1007cc44     ceshi20210224_17_capi.obj
 0002:00005c60       ??_C@_0BH@PEKPIOOI@chuanganqi1?1Constant41?$AA@ 1007cc60     ceshi20210224_17_capi.obj
 0002:00005c7c       ??_C@_0BH@NPICNNCL@chuanganqi1?1Constant42?$AA@ 1007cc7c     ceshi20210224_17_capi.obj
 0002:00005c98       ??_C@_0BH@MGJJOMGK@chuanganqi1?1Constant43?$AA@ 1007cc98     ceshi20210224_17_capi.obj
 0002:00005cb4       ??_C@_0BH@IJNIHKKN@chuanganqi1?1Constant44?$AA@ 1007ccb4     ceshi20210224_17_capi.obj
 0002:00005cd0       ??_C@_0BH@JAMDELOM@chuanganqi1?1Constant45?$AA@ 1007ccd0     ceshi20210224_17_capi.obj
 0002:00005cec       ??_C@_0BH@LLOOBICP@chuanganqi1?1Constant46?$AA@ 1007ccec     ceshi20210224_17_capi.obj
 0002:00005d08       ??_C@_0BH@KCPFCJGO@chuanganqi1?1Constant47?$AA@ 1007cd08     ceshi20210224_17_capi.obj
 0002:00005d24       ??_C@_0BG@DDPOIIGN@chuanganqi1?1Constant5?$AA@ 1007cd24     ceshi20210224_17_capi.obj
 0002:00005d40       ??_C@_0BG@BINDNLKO@chuanganqi1?1Constant6?$AA@ 1007cd40     ceshi20210224_17_capi.obj
 0002:00005d5c       ??_C@_0BG@BMIOKOP@chuanganqi1?1Constant7?$AA@ 1007cd5c     ceshi20210224_17_capi.obj
 0002:00005d78       ??_C@_0BG@IGFAPGCA@chuanganqi1?1Constant8?$AA@ 1007cd78     ceshi20210224_17_capi.obj
 0002:00005d94       ??_C@_0BG@JPELMHGB@chuanganqi1?1Constant9?$AA@ 1007cd94     ceshi20210224_17_capi.obj
 0002:00005db0       ??_C@_0BJ@GCDCIOIA@BreakpointsForDimension1?$AA@ 1007cdb0     ceshi20210224_17_capi.obj
 0002:00005dd0       ??_C@_0BD@JOFPIHHA@chuanganqi1?1Setup?5?$AA@ 1007cdd0     ceshi20210224_17_capi.obj
 0002:00005de8       ??_C@_03PGECKHFE@P11?$AA@  1007cde8     ceshi20210224_17_capi.obj
 0002:00005dec       ??_C@_03JCCOGCFA@P15?$AA@  1007cdec     ceshi20210224_17_capi.obj
 0002:00005df0       ??_C@_03LJADDBJD@P16?$AA@  1007cdf0     ceshi20210224_17_capi.obj
 0002:00005df4       ??_C@_03KABIAANC@P17?$AA@  1007cdf4     ceshi20210224_17_capi.obj
 0002:00005df8       ??_C@_03CHIABMBN@P18?$AA@  1007cdf8     ceshi20210224_17_capi.obj
 0002:00005dfc       ??_C@_03DOJLCNFM@P19?$AA@  1007cdfc     ceshi20210224_17_capi.obj
 0002:00005e00       ??_C@_03ONBPCIEM@P20?$AA@  1007ce00     ceshi20210224_17_capi.obj
 0002:00005e04       ??_C@_03PEAEBJAN@P21?$AA@  1007ce04     ceshi20210224_17_capi.obj
 0002:00005e08       ??_C@_03NPCJEKMO@P22?$AA@  1007ce08     ceshi20210224_17_capi.obj
 0002:00005e0c       ??_C@_03MGDCHLIP@P23?$AA@  1007ce0c     ceshi20210224_17_capi.obj
 0002:00005e10       ??_C@_03IJHDONEI@P24?$AA@  1007ce10     ceshi20210224_17_capi.obj
 0002:00005e14       ??_C@_0BK@IIHPDDOK@Subsystem7?1Subsystem?1Out1?$AA@ 1007ce14     ceshi20210224_17_capi.obj
 0002:00005e34       ??_C@_01CPLAODJH@S?$AA@    1007ce34     ceshi20210224_17_capi.obj
 0002:00005e38       ??_C@_03GACHKAGK@Sgg?$AA@  1007ce38     ceshi20210224_17_capi.obj
 0002:00005e3c       ??_C@_03LGFCKFFI@Ssx?$AA@  1007ce3c     ceshi20210224_17_capi.obj
 0002:00005e40       ??_C@_01FCMHBHNC@V?$AA@    1007ce40     ceshi20210224_17_capi.obj
 0002:00005e44       ??_C@_03FHPJFAFI@Vgg?$AA@  1007ce44     ceshi20210224_17_capi.obj
 0002:00005e48       ??_C@_03IBIMFFGK@Vsx?$AA@  1007ce48     ceshi20210224_17_capi.obj
 0002:00005e4c       ??_C@_06BNJCAIGJ@double?$AA@ 1007ce4c     ceshi20210224_17_capi.obj
 0002:00005e54       ??_C@_06CNMIJIPB@real_T?$AA@ 1007ce54     ceshi20210224_17_capi.obj
 0002:00005e5c       ??_C@_0O@PPAIJIHF@unsigned?5char?$AA@ 1007ce5c     ceshi20210224_17_capi.obj
 0002:00005e6c       ??_C@_09JBMFCIMO@boolean_T?$AA@ 1007ce6c     ceshi20210224_17_capi.obj
 0002:00005e78       ??_C@_07NCEHLPOC@uint8_T?$AA@ 1007ce78     ceshi20210224_17_capi.obj
 0002:00005e84       ??_C@_0P@IIMKEEHB@unsigned?5short?$AA@ 1007ce84     ceshi20210224_17_capi.obj
 0002:00005e98       ??_C@_08NHGKGJKC@uint16_T?$AA@ 1007ce98     ceshi20210224_17_capi.obj
 0002:00005ea4       ??_C@_0N@OFHMGPAL@unsigned?5int?$AA@ 1007cea4     ceshi20210224_17_capi.obj
 0002:00005eb4       ??_C@_08CCMIKNJF@uint32_T?$AA@ 1007ceb4     ceshi20210224_17_capi.obj
 0002:00005ec0       ??_C@_05KNFBNCOH@float?$AA@ 1007cec0     ceshi20210224_17_capi.obj
 0002:00005ec8       ??_C@_08PAGDBCID@Chart?1p1?$AA@ 1007cec8     ceshi20210224_17_capi.obj
 0002:00005ed4       ??_C@_08NLEOEBEA@Chart?1p2?$AA@ 1007ced4     ceshi20210224_17_capi.obj
 0002:00005ee0       ??_C@_08MCFFHAAB@Chart?1p3?$AA@ 1007cee0     ceshi20210224_17_capi.obj
 0002:00005eec       ??_C@_09IPPKGHNK@Chart1?1p1?$AA@ 1007ceec     ceshi20210224_17_capi.obj
 0002:00005ef8       ??_C@_09KENHDEBJ@Chart1?1p2?$AA@ 1007cef8     ceshi20210224_17_capi.obj
 0002:00005f04       ??_C@_06CIDLGAEF@Chart2?$AA@ 1007cf04     ceshi20210224_17_capi.obj
 0002:00005f0c       ??_C@_09PFDKDELK@Chart3?1p1?$AA@ 1007cf0c     ceshi20210224_17_capi.obj
 0002:00005f18       ??_C@_09NOBHGHHJ@Chart3?1p2?$AA@ 1007cf18     ceshi20210224_17_capi.obj
 0002:00005f24       ??_C@_01PAPGNFGE@c?$AA@    1007cf24     ceshi20210224_17_capi.obj
 0002:00005f28       ??_C@_0BB@NDHEAHPG@?$CG?$CDx542F?$DL?$CG?$CDx505C?$DL?$AA@ 1007cf28     ceshi20210224_17_capi.obj
 0002:00005f3c       ??_C@_0BD@FNGLCBGN@?$CG?$CDx5F00?$DL1?$CG?$CDx5173?$DL0?$AA@ 1007cf3c     ceshi20210224_17_capi.obj
 0002:00005f54       ??_C@_0BB@OHIFFPDG@?$CG?$CDx65CB?$DL?$CG?$CDx677E?$DL?$AA@ 1007cf54     ceshi20210224_17_capi.obj
 0002:00005f68       ??_C@_0BB@PCAAFKIA@?$CG?$CDx65CB?$DL?$CG?$CDx7D27?$DL?$AA@ 1007cf68     ceshi20210224_17_capi.obj
 0002:00005f7c       ??_C@_0CK@BGAMHAKE@?$CG?$CDx6BD4?$DL?$CG?$CDx4F8B?$DL?$CG?$CDx51CF?$DL?$CG?$CDx538B?$DL@ 1007cf7c     ceshi20210224_17_capi.obj
 0002:00005fb0       ??_C@_0BB@CDIMICBO@?$CG?$CDx89E3?$DL?$CG?$CDx9501?$DL?$AA@ 1007cfb0     ceshi20210224_17_capi.obj
 0002:00005fc4       ??_C@_0BB@NFHFEOMI@?$CG?$CDx9501?$DL?$CG?$CDx5B9A?$DL?$AA@ 1007cfc4     ceshi20210224_17_capi.obj
 0002:00005fd8       ??_C@_0BJ@DEDLKJBE@?$CG?$CDx9600?$DL?$CG?$CDx5F00?$DL?$CG?$CDx53E3?$DL?$AA@ 1007cfd8     ceshi20210224_17_capi.obj
 0002:00005ff8       ??_C@_0BJ@PPNMFLMI@?$CG?$CDx9884?$DL?$CG?$CDx65CB?$DL?$CG?$CDx677E?$DL?$AA@ 1007cff8     ceshi20210224_17_capi.obj
 0002:00006018       ??_C@_0BF@GGMNNFDC@Data?5Type?5Conversion?$AA@ 1007d018     ceshi20210224_17_capi.obj
 0002:00006034       ??_C@_0L@JKEMPHOB@Derivative?$AA@ 1007d034     ceshi20210224_17_capi.obj
 0002:00006044       ??_C@_0M@BBMKJJKL@Derivative1?$AA@ 1007d044     ceshi20210224_17_capi.obj
 0002:00006054       ??_C@_0M@DKOHMKGI@Derivative2?$AA@ 1007d054     ceshi20210224_17_capi.obj
 0002:00006064       ??_C@_0M@CDPMPLCJ@Derivative3?$AA@ 1007d064     ceshi20210224_17_capi.obj
 0002:00006074       ??_C@_0M@GMLNGNOO@Derivative4?$AA@ 1007d074     ceshi20210224_17_capi.obj
 0002:00006084       ??_C@_04OMOMKKFL@Gain?$AA@ 1007d084     ceshi20210224_17_capi.obj
 0002:0000608c       ??_C@_05DKAIGDGE@Gain1?$AA@ 1007d08c     ceshi20210224_17_capi.obj
 0002:00006094       ??_C@_06JFKDJLNB@Gain10?$AA@ 1007d094     ceshi20210224_17_capi.obj
 0002:0000609c       ??_C@_06IMLIKKJA@Gain11?$AA@ 1007d09c     ceshi20210224_17_capi.obj
 0002:000060a4       ??_C@_06KHJFPJFD@Gain12?$AA@ 1007d0a4     ceshi20210224_17_capi.obj
 0002:000060ac       ??_C@_06LOIOMIBC@Gain13?$AA@ 1007d0ac     ceshi20210224_17_capi.obj
 0002:000060b4       ??_C@_06PBMPFONF@Gain14?$AA@ 1007d0b4     ceshi20210224_17_capi.obj
 0002:000060bc       ??_C@_05BBCFDAKH@Gain2?$AA@ 1007d0bc     ceshi20210224_17_capi.obj
 0002:000060c4       ??_C@_05IDOABOG@Gain3?$AA@ 1007d0c4     ceshi20210224_17_capi.obj
 0002:000060cc       ??_C@_05EHHPJHCB@Gain4?$AA@ 1007d0cc     ceshi20210224_17_capi.obj
 0002:000060d4       ??_C@_05FOGEKGGA@Gain5?$AA@ 1007d0d4     ceshi20210224_17_capi.obj
 0002:000060dc       ??_C@_05HFEJPFKD@Gain6?$AA@ 1007d0dc     ceshi20210224_17_capi.obj
 0002:000060e4       ??_C@_05GMFCMEOC@Gain7?$AA@ 1007d0e4     ceshi20210224_17_capi.obj
 0002:000060ec       ??_C@_05OLMKNICN@Gain8?$AA@ 1007d0ec     ceshi20210224_17_capi.obj
 0002:000060f4       ??_C@_05PCNBOJGM@Gain9?$AA@ 1007d0f4     ceshi20210224_17_capi.obj
 0002:00006100       ??_C@_0EO@LPEPGLNO@TmpSignal?5ConversionAtHiddenToAs@ 1007d100     ceshi20210224_17_capi.obj
 0002:00006160       ??_C@_04MJOAOAPL@?J?$LB?$LM?d?$AA@ 1007d160     ceshi20210224_17_capi.obj
 0002:00006168       ??_C@_0BB@ILJOCOID@Logical?5Operator?$AA@ 1007d168     ceshi20210224_17_capi.obj
 0002:0000617c       ??_C@_0BC@LCGHELAG@Logical?5Operator1?$AA@ 1007d17c     ceshi20210224_17_capi.obj
 0002:00006194       ??_C@_0BC@JJEKBIMF@Logical?5Operator2?$AA@ 1007d194     ceshi20210224_17_capi.obj
 0002:000061ac       ??_C@_0BC@IAFBCJIE@Logical?5Operator3?$AA@ 1007d1ac     ceshi20210224_17_capi.obj
 0002:000061c4       ??_C@_06LEBJIAPJ@Memory?$AA@ 1007d1c4     ceshi20210224_17_capi.obj
 0002:000061cc       ??_C@_07CIIFEIK@Memory1?$AA@ 1007d1cc     ceshi20210224_17_capi.obj
 0002:000061d8       ??_C@_0BB@HDIKJIBG@Multiport?5Switch?$AA@ 1007d1d8     ceshi20210224_17_capi.obj
 0002:000061ec       ??_C@_0BC@DCPKDIHL@Multiport?5Switch1?$AA@ 1007d1ec     ceshi20210224_17_capi.obj
 0002:00006204       ??_C@_0BC@BJNHGLLI@Multiport?5Switch2?$AA@ 1007d204     ceshi20210224_17_capi.obj
 0002:0000621c       ??_C@_0M@PFECPLOH@shuchuliang?$AA@ 1007d21c     ceshi20210224_17_capi.obj
 0002:0000622c       ??_C@_07HMDPOHHF@Product?$AA@ 1007d22c     ceshi20210224_17_capi.obj
 0002:00006238       ??_C@_08MNGDOOCF@Product2?$AA@ 1007d238     ceshi20210224_17_capi.obj
 0002:00006244       ??_C@_08NEHINPGE@Product3?$AA@ 1007d244     ceshi20210224_17_capi.obj
 0002:00006250       ??_C@_0M@DLHHNGHG@Saturation1?$AA@ 1007d250     ceshi20210224_17_capi.obj
 0002:00006260       ??_C@_0M@BAFKIFLF@Saturation2?$AA@ 1007d260     ceshi20210224_17_capi.obj
 0002:00006270       ??_C@_0P@IBEECAFB@PCI1716DIO1?1p1?$AA@ 1007d270     ceshi20210224_17_capi.obj
 0002:00006284       ??_C@_0P@KKGJHDJC@PCI1716DIO1?1p2?$AA@ 1007d284     ceshi20210224_17_capi.obj
 0002:00006298       ??_C@_0BG@MJOFBABB@Analog?5Filter?5Design1?$AA@ 1007d298     ceshi20210224_17_capi.obj
 0002:000062b4       ??_C@_03PONBAGAC@vkg?$AA@  1007d2b4     ceshi20210224_17_capi.obj
 0002:000062b8       ??_C@_0BG@OCMIEDNC@Analog?5Filter?5Design2?$AA@ 1007d2b8     ceshi20210224_17_capi.obj
 0002:000062d4       ??_C@_03PHMLPPGG@vgg?$AA@  1007d2d4     ceshi20210224_17_capi.obj
 0002:000062d8       ??_C@_01LKDEMHDF@s?$AA@    1007d2d8     ceshi20210224_17_capi.obj
 0002:000062dc       ??_C@_02JAFEPHFG@s1?$AA@   1007d2dc     ceshi20210224_17_capi.obj
 0002:000062e0       ??_C@_02LLHJKEJF@s2?$AA@   1007d2e0     ceshi20210224_17_capi.obj
 0002:000062e4       ??_C@_02KCGCJFNE@s3?$AA@   1007d2e4     ceshi20210224_17_capi.obj
 0002:000062e8       ??_C@_02ONCDADBD@s4?$AA@   1007d2e8     ceshi20210224_17_capi.obj
 0002:000062ec       ??_C@_04MDBAPKAP@Step?$AA@ 1007d2ec     ceshi20210224_17_capi.obj
 0002:000062f4       ??_C@_05FGCBAKNJ@Step1?$AA@ 1007d2f4     ceshi20210224_17_capi.obj
 0002:000062fc       ??_C@_04GBIJHNAB@Add1?$AA@ 1007d2fc     ceshi20210224_17_capi.obj
 0002:00006304       ??_C@_04EKKECOMC@Add2?$AA@ 1007d304     ceshi20210224_17_capi.obj
 0002:0000630c       ??_C@_04FDLPBPID@Add3?$AA@ 1007d30c     ceshi20210224_17_capi.obj
 0002:00006314       ??_C@_04BMPOIJEE@Add4?$AA@ 1007d314     ceshi20210224_17_capi.obj
 0002:0000631c       ??_C@_04FOFLIAF@Add5?$AA@  1007d31c     ceshi20210224_17_capi.obj
 0002:00006324       ??_C@_03IFGKDPPO@Sum?$AA@  1007d324     ceshi20210224_17_capi.obj
 0002:00006328       ??_C@_04JMNNLCJG@Sum1?$AA@ 1007d328     ceshi20210224_17_capi.obj
 0002:00006330       ??_C@_06GOEBKPLN@chazhi?$AA@ 1007d330     ceshi20210224_17_capi.obj
 0002:00006338       ??_C@_07HDODIJCM@chazhi1?$AA@ 1007d338     ceshi20210224_17_capi.obj
 0002:00006344       ??_C@_0N@PIMGDCJC@shuchuliang1?$AA@ 1007d344     ceshi20210224_17_capi.obj
 0002:00006354       ??_C@_0N@NDOLGBFB@shuchuliang2?$AA@ 1007d354     ceshi20210224_17_capi.obj
 0002:00006364       ??_C@_06PBEDFIPD@Switch?$AA@ 1007d364     ceshi20210224_17_capi.obj
 0002:0000636c       ??_C@_07OCBIOHEM@Switch1?$AA@ 1007d36c     ceshi20210224_17_capi.obj
 0002:00006378       ??_C@_07MJDFLEIP@Switch2?$AA@ 1007d378     ceshi20210224_17_capi.obj
 0002:00006384       ??_C@_07NACOIFMO@Switch3?$AA@ 1007d384     ceshi20210224_17_capi.obj
 0002:00006390       ??_C@_07JPGPBDAJ@Switch4?$AA@ 1007d390     ceshi20210224_17_capi.obj
 0002:0000639c       ??_C@_08EEMNDMKJ@zongsudu?$AA@ 1007d39c     ceshi20210224_17_capi.obj
 0002:000063a8       ??_C@_07IGHECCEI@Switch5?$AA@ 1007d3a8     ceshi20210224_17_capi.obj
 0002:000063b4       ??_C@_07KNFJHBIL@Switch6?$AA@ 1007d3b4     ceshi20210224_17_capi.obj
 0002:000063c0       ??_C@_0O@KLKAEEDE@Manual?5Switch?$AA@ 1007d3c0     ceshi20210224_17_capi.obj
 0002:000063d0       ??_C@_0BF@LHOPFLHM@Subsystem?1Integrator?$AA@ 1007d3d0     ceshi20210224_17_capi.obj
 0002:000063ec       ??_C@_0BG@CAHEELJD@Subsystem1?1Integrator?$AA@ 1007d3ec     ceshi20210224_17_capi.obj
 0002:00006408       ??_C@_0P@MEIPDMNA@Subsystem2?1Add?$AA@ 1007d408     ceshi20210224_17_capi.obj
 0002:0000641c       ??_C@_0P@PNDOPHF@Subsystem3?1Add?$AA@ 1007d41c     ceshi20210224_17_capi.obj
 0002:00006430       ??_C@_0P@BNDJNLOF@Subsystem4?1In1?$AA@ 1007d430     ceshi20210224_17_capi.obj
 0002:00006444       ??_C@_0BD@ODOFKDKJ@Subsystem5?1qiwangv?$AA@ 1007d444     ceshi20210224_17_capi.obj
 0002:0000645c       ??_C@_0BD@LIIFBMCK@Subsystem5?1Switch1?$AA@ 1007d45c     ceshi20210224_17_capi.obj
 0002:00006474       ??_C@_0BD@JDKIEPOJ@Subsystem5?1Switch2?$AA@ 1007d474     ceshi20210224_17_capi.obj
 0002:0000648c       ??_C@_0BD@PHMEIKON@Subsystem5?1Switch6?$AA@ 1007d48c     ceshi20210224_17_capi.obj
 0002:000064a4       ??_C@_0BE@PAFGJPFM@Subsystem6?1qiwangv1?$AA@ 1007d4a4     ceshi20210224_17_capi.obj
 0002:000064bc       ??_C@_0BM@FBFIOECN@Subsystem7?1Logical?5Operator?$AA@ 1007d4bc     ceshi20210224_17_capi.obj
 0002:000064e0       ??_C@_0BD@JHFNJPNE@Subsystem7?1Switch2?$AA@ 1007d4e0     ceshi20210224_17_capi.obj
 0002:000064f8       ??_C@_0BB@PJEGIADH@Subsystem7?1Delay?$AA@ 1007d4f8     ceshi20210224_17_capi.obj
 0002:0000650c       ??_C@_0BC@HOBJOEDN@Subsystem7?1Delay1?$AA@ 1007d50c     ceshi20210224_17_capi.obj
 0002:00006524       ??_C@_0CA@NKOHDIBI@Subsystem8?1Data?5Type?5Conversion?$AA@ 1007d524     ceshi20210224_17_capi.obj
 0002:0000654c       ??_C@_0BN@NEGBCAMB@Subsystem8?1Logical?5Operator2?$AA@ 1007d54c     ceshi20210224_17_capi.obj
 0002:00006570       ??_C@_0BE@IJFBKJHH@Subsystem8?1Product1?$AA@ 1007d570     ceshi20210224_17_capi.obj
 0002:00006588       ??_C@_0BI@CIPGHKKE@Subsystem8?1Rate?5Limiter?$AA@ 1007d588     ceshi20210224_17_capi.obj
 0002:000065a4       ??_C@_0CA@EBJENCMM@Subsystem9?1Data?5Type?5Conversion?$AA@ 1007d5a4     ceshi20210224_17_capi.obj
 0002:000065cc       ??_C@_0BN@LBAGBLIH@Subsystem9?1Logical?5Operator2?$AA@ 1007d5cc     ceshi20210224_17_capi.obj
 0002:000065f0       ??_C@_0BE@EINPHGLH@Subsystem9?1Product1?$AA@ 1007d5f0     ceshi20210224_17_capi.obj
 0002:00006608       ??_C@_0BJ@LJKGAHKI@Subsystem9?1Rate?5Limiter1?$AA@ 1007d608     ceshi20210224_17_capi.obj
 0002:00006628       ??_C@_0CB@CFOEHBOK@chuanganqi1?1Data?5Type?5Conversion@ 1007d628     ceshi20210224_17_capi.obj
 0002:00006650       ??_C@_0CC@IGKHOIKF@chuanganqi1?1Data?5Type?5Conversion@ 1007d650     ceshi20210224_17_capi.obj
 0002:00006678       ??_C@_0CD@HJHMMGHM@chuanganqi1?1Data?5Type?5Conversion@ 1007d678     ceshi20210224_17_capi.obj
 0002:000066a4       ??_C@_0CD@GAGHPHDN@chuanganqi1?1Data?5Type?5Conversion@ 1007d6a4     ceshi20210224_17_capi.obj
 0002:000066d0       ??_C@_0CD@ELEKKEPO@chuanganqi1?1Data?5Type?5Conversion@ 1007d6d0     ceshi20210224_17_capi.obj
 0002:000066fc       ??_C@_0CD@FCFBJFLP@chuanganqi1?1Data?5Type?5Conversion@ 1007d6fc     ceshi20210224_17_capi.obj
 0002:00006728       ??_C@_0CD@BNBAADHI@chuanganqi1?1Data?5Type?5Conversion@ 1007d728     ceshi20210224_17_capi.obj
 0002:00006754       ??_C@_0CD@EALDCDJ@chuanganqi1?1Data?5Type?5Conversion@ 1007d754     ceshi20210224_17_capi.obj
 0002:00006780       ??_C@_0CD@CPCGGBPK@chuanganqi1?1Data?5Type?5Conversion@ 1007d780     ceshi20210224_17_capi.obj
 0002:000067ac       ??_C@_0CD@DGDNFALL@chuanganqi1?1Data?5Type?5Conversion@ 1007d7ac     ceshi20210224_17_capi.obj
 0002:000067d8       ??_C@_0CD@LBKFEMHE@chuanganqi1?1Data?5Type?5Conversion@ 1007d7d8     ceshi20210224_17_capi.obj
 0002:00006804       ??_C@_0CD@KILOHNDF@chuanganqi1?1Data?5Type?5Conversion@ 1007d804     ceshi20210224_17_capi.obj
 0002:00006830       ??_C@_0CC@KNIKLLGG@chuanganqi1?1Data?5Type?5Conversion@ 1007d830     ceshi20210224_17_capi.obj
 0002:00006858       ??_C@_0CD@HLDKHICF@chuanganqi1?1Data?5Type?5Conversion@ 1007d858     ceshi20210224_17_capi.obj
 0002:00006884       ??_C@_0CD@GCCBEJGE@chuanganqi1?1Data?5Type?5Conversion@ 1007d884     ceshi20210224_17_capi.obj
 0002:000068b0       ??_C@_0CD@EJAMBKKH@chuanganqi1?1Data?5Type?5Conversion@ 1007d8b0     ceshi20210224_17_capi.obj
 0002:000068dc       ??_C@_0CD@FABHCLOG@chuanganqi1?1Data?5Type?5Conversion@ 1007d8dc     ceshi20210224_17_capi.obj
 0002:00006908       ??_C@_0CD@BPFGLNCB@chuanganqi1?1Data?5Type?5Conversion@ 1007d908     ceshi20210224_17_capi.obj
 0002:00006934       ??_C@_0CD@GENIMGA@chuanganqi1?1Data?5Type?5Conversion@ 1007d934     ceshi20210224_17_capi.obj
 0002:00006960       ??_C@_0CD@CNGANPKD@chuanganqi1?1Data?5Type?5Conversion@ 1007d960     ceshi20210224_17_capi.obj
 0002:0000698c       ??_C@_0CD@DEHLOOOC@chuanganqi1?1Data?5Type?5Conversion@ 1007d98c     ceshi20210224_17_capi.obj
 0002:000069b8       ??_C@_0CD@LDODPCCN@chuanganqi1?1Data?5Type?5Conversion@ 1007d9b8     ceshi20210224_17_capi.obj
 0002:000069e4       ??_C@_0CD@KKPIMDGM@chuanganqi1?1Data?5Type?5Conversion@ 1007d9e4     ceshi20210224_17_capi.obj
 0002:00006a10       ??_C@_0CC@LEJBIKCH@chuanganqi1?1Data?5Type?5Conversion@ 1007da10     ceshi20210224_17_capi.obj
 0002:00006a38       ??_C@_0CD@HKPIBCBC@chuanganqi1?1Data?5Type?5Conversion@ 1007da38     ceshi20210224_17_capi.obj
 0002:00006a64       ??_C@_0CD@GDODCDFD@chuanganqi1?1Data?5Type?5Conversion@ 1007da64     ceshi20210224_17_capi.obj
 0002:00006a90       ??_C@_0CD@EIMOHAJA@chuanganqi1?1Data?5Type?5Conversion@ 1007da90     ceshi20210224_17_capi.obj
 0002:00006abc       ??_C@_0CD@FBNFEBNB@chuanganqi1?1Data?5Type?5Conversion@ 1007dabc     ceshi20210224_17_capi.obj
 0002:00006ae8       ??_C@_0CD@BOJENHBG@chuanganqi1?1Data?5Type?5Conversion@ 1007dae8     ceshi20210224_17_capi.obj
 0002:00006b14       ??_C@_0CD@HIPOGFH@chuanganqi1?1Data?5Type?5Conversion@ 1007db14     ceshi20210224_17_capi.obj
 0002:00006b40       ??_C@_0CD@CMKCLFJE@chuanganqi1?1Data?5Type?5Conversion@ 1007db40     ceshi20210224_17_capi.obj
 0002:00006b6c       ??_C@_0CD@DFLJIENF@chuanganqi1?1Data?5Type?5Conversion@ 1007db6c     ceshi20210224_17_capi.obj
 0002:00006b98       ??_C@_0CD@LCCBJIBK@chuanganqi1?1Data?5Type?5Conversion@ 1007db98     ceshi20210224_17_capi.obj
 0002:00006bc4       ??_C@_0CD@KLDKKJFL@chuanganqi1?1Data?5Type?5Conversion@ 1007dbc4     ceshi20210224_17_capi.obj
 0002:00006bf0       ??_C@_0CC@PLNABMOA@chuanganqi1?1Data?5Type?5Conversion@ 1007dbf0     ceshi20210224_17_capi.obj
 0002:00006c18       ??_C@_0CD@HPLHAEJH@chuanganqi1?1Data?5Type?5Conversion@ 1007dc18     ceshi20210224_17_capi.obj
 0002:00006c44       ??_C@_0CD@GGKMDFNG@chuanganqi1?1Data?5Type?5Conversion@ 1007dc44     ceshi20210224_17_capi.obj
 0002:000074d0       ??_C@_0DJ@FHKINPLE@Unexpected?5itemKind?5?$DN?5DATA_ITEM?5@ 1007e4d0     rt_logging.obj
 0002:00007514       ??_C@_0DA@IEHFPFCJ@Unexpected?5itemKind?$DN?$CFd?5in?5rt_Pro@ 1007e514     rt_logging.obj
 0002:00007550       ??_C@_0DA@IFLHJPBO@Unexpected?5itemKind?$DN?$CFd?5in?5rt_Pro@ 1007e550     rt_logging.obj
 0002:0000758c       ??_C@_0DA@IAPIIJJL@Unexpected?5itemKind?$DN?$CFd?5in?5rt_Pro@ 1007e58c     rt_logging.obj
 0002:000075c8       ??_C@_0BE@LCIGPJIG@MATLAB?55?40?5MAT?9file?$AA@ 1007e5c8     rt_logging.obj
 0002:000075e0       ??_C@_0FB@PCJEAJIB@?$CK?$CK?$CK?5Log?5variable?5?$CFs?5has?5wrapped?5@ 1007e5e0     rt_logging.obj
 0002:00007648       ??_C@_0MG@NKMLMOGF@?$CK?$CK?$CK?5To?5avoid?5wrapping?0?5explicitl@ 1007e648     rt_logging.obj
 0002:00007738       ??_C@_0N@IPAEOLLP@_rtw_tmw?4tmw?$AA@ 1007e738     rt_logging.obj
 0002:00007748       ??_C@_04HDOCAJNK@?$CFs?$CFs?$AA@ 1007e748     rt_logging.obj
 0002:00007750       ??_C@_03ELIABIOC@w?$CLb?$AA@ 1007e750     rt_logging.obj
 0002:00007754       ??_C@_0BF@JPILDDFA@?$CK?$CK?$CK?5Error?5opening?5?$CFs?$AA@ 1007e754     rt_logging.obj
 0002:00007770       ??_C@_0BK@EEMDELA@unable?5to?5open?5data?5file?6?$AA@ 1007e770     rt_logging.obj
 0002:00007790       ??_C@_04CGFJFPFD@none?$AA@ 1007e790     rt_logging.obj
 0002:00007798       ??_C@_0EE@LCGFPNON@?$CK?$CK?$CK?5Error?5creating?5signals?5struc@ 1007e798     rt_logging.obj
 0002:000077ec       ??_C@_0CE@NHECEDMK@?$CK?$CK?$CK?5Error?5creating?5log?5variable?5@ 1007e7ec     rt_logging.obj
 0002:00007818       ??_C@_0DB@IOCGKAGH@?$CK?$CK?$CK?5Errors?5occurred?5when?5startin@ 1007e818     rt_logging.obj
 0002:00007854       ??_C@_0BO@BBLOGEBK@?$CK?$CK?$CK?5Memory?5allocation?5error?4?6?$AA@ 1007e854     rt_logging.obj
 0002:00007878       ??_C@_0N@LGFBAGEL@?5?$CIreal?5part?$CJ?$AA@ 1007e878     rt_logging.obj
 0002:00007888       ??_C@_0KH@CGNMHNFE@?5?5?5?5varName?5?5?5?5?5?5?5?5?5?5?$DN?5?$CFs?$CFs?6?5?5?5?5@ 1007e888     rt_logging.obj
 0002:00007950       ??_C@_0LE@OALKKEFM@?5?5?5?5varName?5?5?5?5?5?5?5?5?5?5?$DN?5?$CFs?5?$CIcompl@ 1007e950     rt_logging.obj
 0002:00007a28       ??_C@_0KF@JDDLEOKO@?5?5?5?5varName?5?5?5?5?5?5?5?5?5?5?$DN?5?$CFs?6?5?5?5?5nR@ 1007ea28     rt_logging.obj
 0002:00007af0       ??_C@_0DP@HPDMIOFM@?$CK?$CK?$CK?5Using?5a?5default?5buffer?5of?5si@ 1007eaf0     rt_logging.obj
 0002:00007b40       ??_C@_0KE@JEFOLKNF@?6?$CK?$CK?$CK?5Memory?5required?5to?5log?5vari@ 1007eb40     rt_logging.obj
 0002:00007c08       ??_C@_0JP@DKLMHCBI@?$CK?$CK?$CK?5Details?3?6?5?5?5?5?5?5?5varName?5?5?5?5?5@ 1007ec08     rt_logging.obj
 0002:00007cc8       ??_C@_0CM@CAMILBED@?$CK?$CK?$CK?5Error?5allocating?5memory?5for?5@ 1007ecc8     rt_logging.obj
 0002:00007cfc       ??_C@_0DF@BBCNMOPM@?$CK?$CK?$CK?5Error?5allocating?5memory?5for?5@ 1007ecfc     rt_logging.obj
 0002:00007d40       ??_C@_0JP@DBCLPCCI@?$CK?$CK?$CK?5Details?3?6?5?5?5?5?5?5?5varName?5?5?5?5?5@ 1007ed40     rt_logging.obj
 0002:00007e00       ??_C@_0FK@DPGAOBGA@?$CK?$CK?$CK?5Error?5allocating?5memory?5for?5@ 1007ee00     rt_logging.obj
 0002:00007e6c       ??_C@_0BI@GGDNPHLJ@?$CK?$CK?$CK?5Error?5writing?5to?5?$CFs?$AA@ 1007ee6c     rt_logging.obj
 0002:00007e88       ??_C@_0CB@IBGJGELG@?$CK?$CK?$CK?5Error?5writing?5?$CFs?5due?5to?3?5?$CFs?6@ 1007ee88     rt_logging.obj
 0002:00007eb0       ??_C@_0CN@FLMCHCPB@?$CK?$CK?$CK?5Error?5writing?5log?5variable?5?$CF@ 1007eeb0     rt_logging.obj
 0002:00007ee8       ??_C@_0DH@GAJCNOJP@?$CK?$CK?$CK?5Error?5writing?5structure?5log?5@ 1007eee8     rt_logging.obj
 0002:00007f2c       ??_C@_0BD@POEALECL@?$CK?$CK?5created?5?$CFs?5?$CK?$CK?6?6?$AA@ 1007ef2c     rt_logging.obj
 0002:00007f48       __real@4020000000000000    1007ef48     rt_logging.obj
 0002:00007f58       __real@41dfffffffc00000    1007ef58     rt_logging.obj
 0002:00007f68       __real@41efffffffe00000    1007ef68     rt_logging.obj
 0002:00007f78       __real@bfbf9add3afd2773    1007ef78     rt_logging.obj
 0002:00007f88       __real@c000000000000000    1007ef88     rt_logging.obj
 0002:00007fa0       __xmm@20202020202020202020202020202020 1007efa0     rt_logging.obj
 0002:00007fd0       __real@3cb0000000000000    1007efd0     rt_matrx.obj
 0002:00007ff0       ??_C@_0BI@INNPNFJN@Memory?5Allocation?5Error?$AA@ 1007eff0     rtw_modelmap_utils.obj
 0002:00008010       ??_C@_1GI@JMAMOIHM@?$AAD?$AA?3?$AA?2?$AAM?$AAA?$AAT?$AAL?$AAA?$AAB?$AA?$HO?$AA3?$AA?2?$AAM?$AAA?$AAT?$AAL?$AAA?$AAB?$AA?$HO?$AA2?$AA?2?$AAr?$AAt?$AAw?$AA?2?$AAc?$AA?2?$AAs?$AAr?$AAc?$AA?2?$AAr@ 1007f010     rtw_modelmap_utils.obj
 0002:0000808c       ??_C@_1CI@OEAJCJND@?$AAj?$AA?5?$AA?$DN?$AA?$DN?$AA?5?$AAe?$AAn?$AAc?$AAo?$AAd?$AAe?$AAd?$AAP?$AAa?$AAt?$AAh?$AAL?$AAe?$AAn?$AA?$AA@ 1007f08c     rtw_modelmap_utils.obj
 0002:000080bc       ??_C@_1DC@NFAOIFKB@?$AAe?$AAn?$AAc?$AAo?$AAd?$AAe?$AAd?$AAP?$AAa?$AAt?$AAh?$AA?$FL?$AAj?$AA?9?$AA1?$AA?$FN?$AA?5?$AA?$DN?$AA?$DN?$AA?5?$AA?8?$AA?2?$AA0?$AA?8?$AA?$AA@ 1007f0bc     rtw_modelmap_utils.obj
 0002:000080f8       ??_C@_1DI@FLNJGPEE@?$AAs?$AAi?$AAg?$AAC?$AAo?$AAm?$AAp?$AAl?$AAe?$AAx?$AAi?$AAt?$AAy?$AA?$FL?$AA?$CK?$AAs?$AAi?$AAg?$AAI?$AAd?$AAx?$AA?$FN?$AA?5?$AA?$CB?$AA?$DN?$AA?5?$AA1?$AA?$AA@ 1007f0f8     rtw_modelmap_utils.obj
 0002:00008140       ??_C@_1KI@OFELMGBG@?$AA?$CI?$AA?$CI?$AA?$CI?$AAd?$AAa?$AAt?$AAa?$AAT?$AAy?$AAp?$AAe?$AAM?$AAa?$AAp?$AA?$CJ?$AA?$FL?$AA?$CI?$AA?$CI?$AA?$CI?$AAs?$AAt?$AAa?$AAt?$AAe?$AAs?$AA?$CJ?$AA?$FL?$AA?$CI?$AAi?$AA?$CJ?$AA?$FN?$AA?4@ 1007f140     rtw_modelmap_utils.obj
 0002:0000820c       ??_C@_1DA@ILCMPHNE@?$AAf?$AAu?$AAl?$AAl?$AAP?$AAa?$AAt?$AAh?$AA?5?$AA?$CB?$AA?$DN?$AA?5?$AA?$CI?$AA?$CI?$AAv?$AAo?$AAi?$AAd?$AA?5?$AA?$CK?$AA?$CJ?$AA0?$AA?$CJ?$AA?$AA@ 1007f20c     rtw_modelmap_utils.obj
 0002:00008248       ??_C@_1CI@OEPPFCCA@?$AAp?$AAa?$AAt?$AAh?$AA?5?$AA?$CB?$AA?$DN?$AA?5?$AA?$CI?$AA?$CI?$AAv?$AAo?$AAi?$AAd?$AA?5?$AA?$CK?$AA?$CJ?$AA0?$AA?$CJ?$AA?$AA@ 1007f248     rtw_modelmap_utils.obj
 0002:00008278       ??_C@_1FK@GLJIMFHB@?$AA?$CI?$AA?$CI?$AAm?$AAm?$AAi?$AA?$CJ?$AA?9?$AA?$DO?$AAI?$AAn?$AAs?$AAt?$AAa?$AAn?$AAc?$AAe?$AAM?$AAa?$AAp?$AA?4?$AAf?$AAu?$AAl?$AAl?$AAP?$AAa?$AAt?$AAh?$AA?$CJ?$AA?5?$AA?$DN?$AA?$DN@ 1007f278     rtw_modelmap_utils.obj
 0002:000082e4       ??_C@_1DG@HPCJGNCE@?$AAm?$AAm?$AAi?$AAP?$AAa?$AAt?$AAh?$AA?$FL?$AAp?$AAa?$AAt?$AAh?$AAL?$AAe?$AAn?$AA?9?$AA1?$AA?$FN?$AA?5?$AA?$DN?$AA?$DN?$AA?5?$AA?8?$AA?2?$AA0?$AA?8?$AA?$AA@ 1007f2e4     rtw_modelmap_utils.obj
 0002:00008324       ??_C@_1DM@DBAOGGOO@?$AAm?$AAm?$AAi?$AAP?$AAa?$AAt?$AAh?$AA?$FL?$AAm?$AAm?$AAi?$AAP?$AAa?$AAt?$AAh?$AAL?$AAe?$AAn?$AA?9?$AA1?$AA?$FN?$AA?5?$AA?$DN?$AA?$DN?$AA?5?$AA?8?$AA?2?$AA0?$AA?8?$AA?$AA@ 1007f324     rtw_modelmap_utils.obj
 0002:0000836c       ??_C@_1DC@LHIAKAFE@?$AAb?$AAl?$AAo?$AAc?$AAk?$AAP?$AAa?$AAt?$AAh?$AA?5?$AA?$CB?$AA?$DN?$AA?5?$AA?$CI?$AA?$CI?$AAv?$AAo?$AAi?$AAd?$AA?5?$AA?$CK?$AA?$CJ?$AA0?$AA?$CJ?$AA?$AA@ 1007f36c     rtw_modelmap_utils.obj
 0002:000083a8       ??_C@_1GI@KIEJKPGC@?$AAf?$AAu?$AAl?$AAl?$AAS?$AAt?$AAa?$AAt?$AAe?$AAB?$AAl?$AAo?$AAc?$AAk?$AAP?$AAa?$AAt?$AAh?$AA?$FL?$AAf?$AAu?$AAl?$AAl?$AAS?$AAt?$AAa?$AAt?$AAe?$AAB?$AAl?$AAo?$AAc@ 1007f3a8     rtw_modelmap_utils.obj
 0002:00008428       ??_C@_1EE@DNPIBJHC@?$AA?$CI?$AA?$CI?$AAd?$AAi?$AAm?$AAM?$AAa?$AAp?$AA?$CJ?$AA?$FL?$AA?$CI?$AAm?$AAa?$AAp?$AAI?$AAd?$AAx?$AA?$CJ?$AA?$FN?$AA?4?$AAn?$AAu?$AAm?$AAD?$AAi?$AAm?$AAs?$AA?$CJ?$AA?5?$AA?$DN?$AA?$DN?$AA?5@ 1007f428     rtw_modelmap_utils.obj
 0002:0000847c       ??_C@_06JFOKFOED@CSTATE?$AA@ 1007f47c     rtw_modelmap_utils.obj
 0002:00008484       ??_C@_06FAENGAMN@DSTATE?$AA@ 1007f484     rtw_modelmap_utils.obj
 0002:0000848c       ??_C@_1BI@LEBJNOGG@?$AAc?$AAs?$AAv?$AAI?$AAd?$AAx?$AA?5?$AA?$DO?$AA?$DN?$AA?5?$AA0?$AA?$AA@ 1007f48c     rtw_modelmap_utils.obj
 0002:000084a8       ??_C@_1BA@KDMGHCHP@?$AAT?$AAI?$AAD?$AA?$DN?$AA?$DN?$AA?9?$AA1?$AA?$AA@ 1007f4a8     rtw_modelmap_utils.obj
 0002:000084bc       ??_C@_1DM@DHGKBPCE@?$AAs?$AAi?$AAg?$AAP?$AAa?$AAt?$AAh?$AA?$FL?$AAs?$AAi?$AAg?$AAP?$AAa?$AAt?$AAh?$AAL?$AAe?$AAn?$AA?9?$AA1?$AA?$FN?$AA?5?$AA?$DN?$AA?$DN?$AA?5?$AA?8?$AA?2?$AA0?$AA?8?$AA?$AA@ 1007f4bc     rtw_modelmap_utils.obj
 0002:00008504       _serialfifoground          1007f504     xpc_datatype_ground.obj
 0002:00008510       _bcmsg1553ground           1007f510     xpc_datatype_ground.obj
 0002:00008520       _bcstatground              1007f520     xpc_datatype_ground.obj
 0002:00008538       _bmmsg1553ground           1007f538     xpc_datatype_ground.obj
 0002:00008558       _ptsetfilename             1007f558     xpctarget.obj
 0002:0000855c       _xmlfile                   1007f55c     xpctarget.obj
 0002:00008564       ??_C@_0BB@HAGCKJLH@ceshi20210224_17?$AA@ 1007f564     xpctarget.obj
 0002:00008578       ??_C@_0L@CHBJKKFC@xpceSetVar?$AA@ 1007f578     xpctarget.obj
 0002:00008588       ??_C@_03JLBJCOMC@6?45?$AA@ 1007f588     xpctarget.obj
 0002:00008590       __real@3fb999999999999a    1007f590     xpctarget.obj
 0002:000085a0       __real@4059000000000000    1007f5a0     xpctarget.obj
 0002:000085b0       _ceshi20210224_17_BIOMAP   1007f5b0     appmappingData.obj
 0002:000090c0       _ceshi20210224_17_LBLMAP   100800c0     appmappingData.obj
 0002:00009bd0       _ceshi20210224_17_SIDMAP   10080bd0     appmappingData.obj
 0002:0000a6e0       _ceshi20210224_17_SBIO     100816e0     appmappingData.obj
 0002:0000aa90       _ceshi20210224_17_SLBL     10081a90     appmappingData.obj
 0002:0000ae40       _ceshi20210224_17_PTIDSMAP 10081e40     appmappingData.obj
 0002:0000b508       _ceshi20210224_17_PTNAMESMAP 10082508     appmappingData.obj
 0002:0000bbd0       _ceshi20210224_17_SPTMAP   10082bd0     appmappingData.obj
 0002:0000bf34       _ceshi20210224_17_dtmap    10082f34     appmappingData.obj
 0002:0000bf70       _appInfo                   10082f70     appmappingData.obj
 0002:0000cb58       ??_C@_0BK@LNMFPOJE@ErrorCode?$DN?$CFd?5?5Error?5Text?3?$AA@ 10083b58     canac2pcisetupx.obj
 0002:0000cb78       ??_C@_0BL@LBDCLEE@?5can?8t?5open?5IniFile?5?5?5?5?5?5?5?$AA@ 10083b78     canac2pcisetupx.obj
 0002:0000cb98       ??_C@_0BL@GMCJFMGA@?5format?5error?5in?5INI?9file?5?$AA@ 10083b98     canac2pcisetupx.obj
 0002:0000cbb8       ??_C@_0BL@EIFEICM@?5error?5opening?5binary?9file?$AA@ 10083bb8     canac2pcisetupx.obj
 0002:0000cbd8       ??_C@_0BL@EGFOFLEL@?5error?5reading?5binary?9file?$AA@ 10083bd8     canac2pcisetupx.obj
 0002:0000cbf8       ??_C@_0BL@JCLHGCOK@?5binary?9file?5too?5long?5?5?5?5?5?$AA@ 10083bf8     canac2pcisetupx.obj
 0002:0000cc18       ??_C@_0BL@DKMABEA@?5binary?9data?5format?5error?5?$AA@ 10083c18     canac2pcisetupx.obj
 0002:0000cc38       ??_C@_0CC@NKNABABE@?5binary?9data?5checksum?5error?5?5?5?5?5@ 10083c38     canac2pcisetupx.obj
 0002:0000cc60       ??_C@_0BL@IANOGCDJ@?5no?5card?5present?5?5?5?5?5?5?5?5?5?5?$AA@ 10083c60     canac2pcisetupx.obj
 0002:0000cc80       ??_C@_0BL@DEPHJBMB@?5no?5physical?5memory?5?5?5?5?5?5?5?$AA@ 10083c80     canac2pcisetupx.obj
 0002:0000cca0       ??_C@_0BL@NKJKAOEG@?5invalid?5IRQ?9number?5?5?5?5?5?5?5?$AA@ 10083ca0     canac2pcisetupx.obj
 0002:0000ccc0       ??_C@_0BL@DHOAIMOD@?5error?5accessing?5dpram?5?5?5?5?$AA@ 10083cc0     canac2pcisetupx.obj
 0002:0000cce0       ??_C@_0BL@BHDCLMIJ@?5bad?5response?5from?5card?5?5?5?$AA@ 10083ce0     canac2pcisetupx.obj
 0002:0000cd00       ??_C@_0BL@HECAOICO@?5sram?5seems?5to?5be?5damaged?5?$AA@ 10083d00     canac2pcisetupx.obj
 0002:0000cd20       ??_C@_0CC@BLEKLLPB@?5invalid?5program?5start?5address?5?5@ 10083d20     canac2pcisetupx.obj
 0002:0000cd48       ??_C@_0BL@OGENALEB@?5invalid?5record?5type?5?5?5?5?5?5?$AA@ 10083d48     canac2pcisetupx.obj
 0002:0000cd68       ??_C@_0CC@LLIEHGNJ@?5no?5response?5after?5program?5start@ 10083d68     canac2pcisetupx.obj
 0002:0000cd90       ??_C@_0CC@EHIDOFAK@?5bad?5response?5after?5program?5star@ 10083d90     canac2pcisetupx.obj
 0002:0000cdb8       ??_C@_0BL@JLDDBAKE@?5pcmcia?5chip?5not?5supported?$AA@ 10083db8     canac2pcisetupx.obj
 0002:0000cdd8       ??_C@_0CC@MLFENEO@?5error?5reading?5ocmcia?5parameters@ 10083dd8     canac2pcisetupx.obj
 0002:0000ce00       ??_C@_0BL@LGEMKKDE@?5error?5initializing?5chip?5?5?$AA@ 10083e00     canac2pcisetupx.obj
 0002:0000ce20       ??_C@_0O@JGGAGPAH@return?5value?5?$AA@ 10083e20     canac2pcisetupx.obj
 0002:0000ce30       ??_C@_01EEMJAFIK@?6?$AA@   10083e30     canac2pcisetupx.obj
 0002:0000ce34       ??_C@_0CL@LLBFOOA@?9?9?$DOError?5in?5CANPC_start_chip_mbx@ 10083e34     canac2pcisetupx.obj
 0002:0000ce68       ??_C@_0DE@GGIMIOBE@?9?9?$DOError?5in?5CANPC_enable_dyn_obj@ 10083e68     canac2pcisetupx.obj
 0002:0000cea8       ??_C@_0DG@JCBGLGDJ@?9?9?$DOError?5in?5CANPC_initialize_int@ 10083ea8     canac2pcisetupx.obj
 0002:0000cee8       ??_C@_0EF@CKEKFKJF@?9?9?$DOError?5in?5CANPC_define_object_@ 10083ee8     canac2pcisetupx.obj
 0002:0000cf3c       ??_C@_0BL@LJLMJMND@indexing?5assumption?5failed?$AA@ 10083f3c     canac2pcisetupx.obj
 0002:0000cf5c       ??_C@_0DP@KBMGJHFI@?9?9?$DOError?5in?5CANPC_define_object_@ 10083f5c     canac2pcisetupx.obj
 0002:0000cfa8       ??_C@_0DN@MLCNOCPB@?9?9?$DOError?5in?5CANPC_define_object2@ 10083fa8     canac2pcisetupx.obj
 0002:0000cff8       ??_C@_0EA@MEKOONNL@?9?9?$DOError?5in?5CANPC_define_object2@ 10083ff8     canac2pcisetupx.obj
 0002:0000d044       ??_C@_0CN@FHALBPDL@?9?9?$DOError?5in?5CANPC_reset_chip_mbx@ 10084044     canac2pcisetupx.obj
 0002:0000d07c       ??_C@_0CP@JPNCEBFF@?9?9?$DOError?5in?5CANPC_init_signals_m@ 1008407c     canac2pcisetupx.obj
 0002:0000d0b4       ??_C@_0DA@CNNNEDOA@?9?9?$DOError?5in?5CANPC_read_signals1_@ 100840b4     canac2pcisetupx.obj
 0002:0000d0f0       ??_C@_0DA@MHFLJOIC@?9?9?$DOError?5in?5CANPC_read_signals2_@ 100840f0     canac2pcisetupx.obj
 0002:0000d12c       ??_C@_0DB@EGCEMPCG@?9?9?$DOError?5in?5CANPC_write_signals1@ 1008412c     canac2pcisetupx.obj
 0002:0000d168       ??_C@_0DB@FBLNJFFM@?5?5?5?5?5?5?5?5CAN?51?3?5Physical?5bus?5chan@ 10084168     canac2pcisetupx.obj
 0002:0000d1a4       ??_C@_0CM@BFGEKPCM@?5?5?5?5?5?5?5?5CAN?51?3?5Lowspeed?5module?5n@ 100841a4     canac2pcisetupx.obj
 0002:0000d1d8       ??_C@_0DB@KMKCBCEE@?9?9?$DOError?5in?5CANPC_write_signals2@ 100841d8     canac2pcisetupx.obj
 0002:0000d214       ??_C@_0DB@LNMKKDM@?5?5?5?5?5?5?5?5CAN?52?3?5Physical?5bus?5chan@ 10084214     canac2pcisetupx.obj
 0002:0000d250       ??_C@_0CM@NMHLKHJD@?5?5?5?5?5?5?5?5CAN?52?3?5Lowspeed?5module?5n@ 10084250     canac2pcisetupx.obj
 0002:0000d284       ??_C@_0DC@FADAOIKF@?9?9?$DOError?5in?5CANPC_initialize_chi@ 10084284     canac2pcisetupx.obj
 0002:0000d2c0       ??_C@_0DD@COBNGEFP@?9?9?$DOError?5in?5CANPC_initialize_chi@ 100842c0     canac2pcisetupx.obj
 0002:0000d300       ??_C@_0DB@EKIEPFNP@?9?9?$DOError?5in?5CANPC_set_acceptance@ 10084300     canac2pcisetupx.obj
 0002:0000d33c       ??_C@_0DC@JONHEIGA@?9?9?$DOError?5in?5CANPC_set_acceptance@ 1008433c     canac2pcisetupx.obj
 0002:0000d378       ??_C@_0CL@DEKLAPHL@?9?9?$DOError?5in?5CANPC_set_mode_mbx?0?5@ 10084378     canac2pcisetupx.obj
 0002:0000d3ac       ??_C@_0CM@EPBCAAGL@?9?9?$DOError?5in?5CANPC_set_mode2_mbx?0@ 100843ac     canac2pcisetupx.obj
 0002:0000d3e0       ??_C@_0DF@HHJLLCJD@?9?9?$DOError?5in?5CANPC_set_output_con@ 100843e0     canac2pcisetupx.obj
 0002:0000d420       ??_C@_0DG@OBIAFKJM@?9?9?$DOError?5in?5CANPC_set_output_con@ 10084420     canac2pcisetupx.obj
 0002:0000d460       ??_C@_0ED@LKHIFFLC@Wrong?5number?5of?5input?5arguments?5@ 10084460     canac2pcisetupx.obj
 0002:0000d4b0       ??_C@_0BE@EGCKDKDM@init?5ret?5code?50x?$CFx?6?$AA@ 100844b0     canac2pcisetupx.obj
 0002:0000d4c8       ??_C@_0CM@DJALBMJK@CAN?9AC2?9PCI?5Board?5?$CFd?3?5Initializa@ 100844c8     canac2pcisetupx.obj
 0002:0000d4fc       ??_C@_0DG@IKMIDPHG@?5?5?5?5?5?5?5?5downloading?5CAN?9AC2?9PCI?5@ 100844fc     canac2pcisetupx.obj
 0002:0000d53c       ??_C@_0CE@MOOIFDOM@?9?9?$DOError?5in?5CANPC_reset_board_mb@ 1008453c     canac2pcisetupx.obj
 0002:0000d568       ??_C@_0DD@EAPAOCNE@?5?5?5?5?5?5?5?5downloading?5CAN?9AC2?9PCI?5@ 10084568     canac2pcisetupx.obj
 0002:0000d5a8       ??_C@_0CF@IJHBPDBG@?9?9?$DOInitialize_can_parameter?5fail@ 100845a8     canac2pcisetupx.obj
 0002:0000d5d4       ??_C@_0CA@PAJEMEGP@?9?9?$DOInitialize_DOB_mode?5failed?5?6?$AA@ 100845d4     canac2pcisetupx.obj
 0002:0000d5fc       ??_C@_0BH@DGCALJLI@?9?9?$DOStart_chip?5failed?5?6?$AA@ 100845fc     canac2pcisetupx.obj
 0002:0000d618       ??_C@_0CK@CFMOHDPD@ERROR?3?5?5CANPC_write_object_mbx?5C@ 10084618     canac2pcisetupx.obj
 0002:0000d64c       ??_C@_0CK@BECGGJGO@ERROR?3?5?5CANPC_write_object_mbx?5C@ 1008464c     canac2pcisetupx.obj
 0002:0000d680       ??_C@_0O@KDNHLNEN@canac2_sem_?$CFd?$AA@ 10084680     canac2pcisetupx.obj
 0002:0000d690       ??_C@_0CP@OANLNPFC@?9?9?$DOError?5in?5CANPC_reinitialize_m@ 10084690     canac2pcisetupx.obj
 0002:0000d6c8       __real@4008000000000000    100846c8     canac2pcisetupx.obj
 0002:0000d6d4       ??_C@_0M@PIDBHPHD@Adlink?56208?$AA@ 100846d4     da6208.obj
 0002:0000d6e4       ??_C@_0BG@EPCOHGPO@?$CFs?3?5board?5not?5present?$AA@ 100846e4     da6208.obj
 0002:0000d700       ??_C@_0CI@NFFNBHJA@?$CFs?5?$CIbus?5?$CFd?0?5slot?5?$CFd?$CJ?3?5board?5not?5@ 10084700     da6208.obj
 0002:0000d730       ??_C@_01MCMALHOG@a?$AA@    10084730     da6208.obj
 0002:0000d738       __real@40e0000000000000    10084738     da6208.obj
 0002:0000d744       ??_C@_07POCAPGBA@pci1716?$AA@ 10084744     pci1716DIO.obj
 0002:0000d750       __real@3f34000000000000    10084750     pci1716DIO.obj
 0002:0000d760       __real@40efffe000000000    10084760     pci1716DIO.obj
 0002:0000d770       __real@bfb999999999999a    10084770     pci1716DIO.obj
 0002:0000d77c       ??_C@_0O@CHBECCKN@?2LOADCARD?4INI?$AA@ 1008477c     xpccanac2pci_vc:card_can_mbx.obj
 0002:0000d78c       ??_C@_02CEGDFPFP@?4?2?$AA@ 1008478c     xpccanac2pci_vc:card_can_mbx.obj
 0002:0000d790       __real@408f400000000000    10084790     xpccanac2pci_vc:card_can_mbx.obj
 0002:0000d7a0       __real@4132342800000000    100847a0     xpccanac2pci_vc:card_can_mbx.obj
 0002:0000d7ac       ??_C@_07JJGBLIAE@PCI?2VEN?$AA@ 100847ac     xpccanac2pci_vc:devacc32_mbx.obj
 0002:0000d7b8       ??_C@_0CC@KFAPHHGD@SOFTING?5GmbH?5CAN?9AC?5PCI?5Interfac@ 100847b8     xpccanac2pci_vc:devacc32_mbx.obj
 0002:0000d7e0       ??_C@_0M@EKFABCAE@LDBOARD?4INI?$AA@ 100847e0     xpccanac2pci_vc:devacc32_mbx.obj
 0002:0000d7f0       ??_C@_0M@BCALDNPE@BOOT_CP?4SBN?$AA@ 100847f0     xpccanac2pci_vc:devacc32_mbx.obj
 0002:0000d800       ??_C@_0M@DDKPMKFM@LDBOARD?4SBN?$AA@ 10084800     xpccanac2pci_vc:devacc32_mbx.obj
 0002:0000d810       ??_C@_0L@OMFEIHM@CANPCI?4SBN?$AA@ 10084810     xpccanac2pci_vc:devacc32_mbx.obj
 0002:0000d820       ??_C@_08DCGOAHCE@VCANPCID?$AA@ 10084820     xpccanac2pci_vc:devacc32_mbx.obj
 0002:0000d82c       ??_C@_0M@IANJNLEG@enable?5IRQ?6?$AA@ 1008482c     xpccanac2pci_vc:devacc32_mbx.obj
 0002:0000d840       ??_C@_0EK@HKKPIPEA@?6ERROR?5in?5a?5CAN?9AC2?9PCI?5driver?3?5@ 10084840     xpccanac2pci_vc:devacc32_mbx.obj
 0002:0000d898       ??_C@_0FF@COKCEECK@?6ERROR?5in?5?5CAN?9AC2?9PCI?5driver?3?5C@ 10084898     xpccanac2pci_vc:devacc32_mbx.obj
 0002:0000d900       ??_C@_07KAJBENLI@Error?3?5?$AA@ 10084900     xpccanac2pci_vc:loadcard_mbx.obj
 0002:0000d90c       ??_C@_09CKCJCCOK@Warning?3?5?$AA@ 1008490c     xpccanac2pci_vc:loadcard_mbx.obj
 0002:0000d918       ??_C@_0CH@GIHNHFPH@Structured?5Binary?5Format?0?5Softin@ 10084918     xpccanac2pci_vc:loadcard_mbx.obj
 0002:0000d948       ??_C@_0CK@OALHOBHI@?$CFscard?5DPRAM?5cannot?5be?5accessed?5@ 10084948     xpccanac2pci_vc:loadcard_mbx.obj
 0002:0000d97c       ??_C@_0BL@DNJKJNDF@?$CFscan?8t?5open?5BootFile?5?8?$CFs?8?$AA@ 1008497c     xpccanac2pci_vc:loadcard_mbx.obj
 0002:0000d99c       ??_C@_0BL@FEBBJGBM@?$CFscan?8t?5read?5BootFile?5?8?$CFs?8?$AA@ 1008499c     xpccanac2pci_vc:loadcard_mbx.obj
 0002:0000d9bc       ??_C@_0CH@LHLLKLCM@?$CFsBootFile?5size?5exceeds?5DPRAM?5si@ 100849bc     xpccanac2pci_vc:loadcard_mbx.obj
 0002:0000d9ec       ??_C@_0DA@JPMOGDAF@?$CFsBootFile?5?8?$CFs?8?5has?5no?5Structure@ 100849ec     xpccanac2pci_vc:loadcard_mbx.obj
 0002:0000da28       ??_C@_0CC@IGEBFOHK@?$CFswrong?5checksum?5in?5BootFile?5?8?$CFs@ 10084a28     xpccanac2pci_vc:loadcard_mbx.obj
 0002:0000da50       ??_C@_0BL@LBMGNPGA@?$CFscan?8t?5open?5LoadFile?5?8?$CFs?8?$AA@ 10084a50     xpccanac2pci_vc:loadcard_mbx.obj
 0002:0000da70       ??_C@_0BL@NIENNEEJ@?$CFscan?8t?5read?5LoadFile?5?8?$CFs?8?$AA@ 10084a70     xpccanac2pci_vc:loadcard_mbx.obj
 0002:0000da90       ??_C@_0CH@PMPLLKEH@?$CFsLoadFile?5size?5exceeds?5DPRAM?5si@ 10084a90     xpccanac2pci_vc:loadcard_mbx.obj
 0002:0000dac0       ??_C@_0DA@NAHNMCBP@?$CFsLoadFile?5?8?$CFs?8?5has?5no?5Structure@ 10084ac0     xpccanac2pci_vc:loadcard_mbx.obj
 0002:0000dafc       ??_C@_0CC@KBNBMCP@?$CFswrong?5checksum?5in?5LoadFile?5?8?$CFs@ 10084afc     xpccanac2pci_vc:loadcard_mbx.obj
 0002:0000db24       ??_C@_0CG@DEOKDKBE@?$CFsno?5response?5from?5card?5after?5bo@ 10084b24     xpccanac2pci_vc:loadcard_mbx.obj
 0002:0000db54       ??_C@_0CG@DDJEONLI@?$CFsno?5response?5from?5card?5while?5lo@ 10084b54     xpccanac2pci_vc:loadcard_mbx.obj
 0002:0000db84       ??_C@_0CN@MNKDHG@?$CFsbad?5response?5from?5card?5after?5b@ 10084b84     xpccanac2pci_vc:loadcard_mbx.obj
 0002:0000dbbc       ??_C@_0CH@PJFOINGG@?$CFsbad?5response?5from?5card?5while?5l@ 10084bbc     xpccanac2pci_vc:loadcard_mbx.obj
 0002:0000dbec       ??_C@_0CA@NFABAKKG@?$CFscard?5SRAM?5seems?5to?5be?5damaged?$AA@ 10084bec     xpccanac2pci_vc:loadcard_mbx.obj
 0002:0000dc14       ??_C@_0CM@OKEHKJEF@?$CFsno?5response?5from?5card?5after?5pr@ 10084c14     xpccanac2pci_vc:loadcard_mbx.obj
 0002:0000dc48       ??_C@_0CN@NOIJLOKD@?$CFsbad?5response?5from?5card?5after?5p@ 10084c48     xpccanac2pci_vc:loadcard_mbx.obj
 0002:0000dc80       ??_C@_0BB@NFIGKIIA@card?5not?5booted?6?$AA@ 10084c80     xpccanac2pci_vc:loadcard_mbx.obj
 0002:0000dc98       __real@3e112e0be826d695    10084c98     xpcruntime:xpcPCFunctions.obj
 0002:0000dca8       __real@3f538bcdfefbf402    10084ca8     xpcruntime:xpcPCFunctions.obj
 0002:0000dcb8       __real@40112e0be826d695    10084cb8     xpcruntime:xpcPCFunctions.obj
 0002:0000dcc4       ??_C@_0CC@DMFKNLL@VendorId?5?$DN?50x?$CFx?0?5DeviceId?5?$DN?50x?$CFx@ 10084cc4     xpcruntime:xpcimports.obj
 0002:0000dcec       ??_C@_0DH@OHCBLNMG@Subsystem?5Device?5ID?5?$DN?50x?$CFx?6Subsy@ 10084cec     xpcruntime:xpcimports.obj
 0002:0000dd30       ??_C@_0BD@MMMMEFCM@Class?5Code?5?$DN?50x?$CFx?6?$AA@ 10084d30     xpcruntime:xpcimports.obj
 0002:0000dd48       ??_C@_0BE@OLDDDNHM@InterruptLine?5?$DN?5?$CFd?6?$AA@ 10084d48     xpcruntime:xpcimports.obj
 0002:0000dd60       ??_C@_0BF@OLKLEKBD@bus?5?$DN?5?$CFd?0?5slot?5?$DN?5?$CFd?6?$AA@ 10084d60     xpcruntime:xpcimports.obj
 0002:0000dd7c       ??_C@_0CE@DGLLGDFH@?5?5?5?5Phys?5?5?5Virtual?5?5?5Length?5IO?1M@ 10084d7c     xpcruntime:xpcimports.obj
 0002:0000dda8       ??_C@_0BI@FEOPLEMG@?$CF08x?5?$CF08x?5?$CF08x?5?5?5?5?5?5?$CFc?6?$AA@ 10084da8     xpcruntime:xpcimports.obj
 0002:0000ddc4       ??_C@_0BB@BNNCEDPC@rl32eScopeExists?$AA@ 10084dc4     xpcruntime:xpcimports.obj
 0002:0000ddd8       ??_C@_0BM@FJBFEGFG@rl32eScopeExists?5not?5found?6?$AA@ 10084dd8     xpcruntime:xpcimports.obj
 0002:0000ddfc       ??_C@_0O@BNNGKJEA@rl32eDefScope?$AA@ 10084dfc     xpcruntime:xpcimports.obj
 0002:0000de0c       ??_C@_0BJ@CDNOENKA@rl32eDefScope?5not?5found?6?$AA@ 10084e0c     xpcruntime:xpcimports.obj
 0002:0000de2c       ??_C@_0P@CKNKILDP@rl32eAddSignal?$AA@ 10084e2c     xpcruntime:xpcimports.obj
 0002:0000de40       ??_C@_0BK@GMJAJBAI@rl32eAddSignal?5not?5found?6?$AA@ 10084e40     xpcruntime:xpcimports.obj
 0002:0000de60       ??_C@_0BB@LDMIHGCE@rl32eGetSignalNo?$AA@ 10084e60     xpcruntime:xpcimports.obj
 0002:0000de74       ??_C@_0BM@LGAMBAID@rl32eGetSignalNo?5not?5found?6?$AA@ 10084e74     xpcruntime:xpcimports.obj
 0002:0000de98       ??_C@_0O@CFDGALBP@rl32eSetScope?$AA@ 10084e98     xpcruntime:xpcimports.obj
 0002:0000dea8       ??_C@_0BJ@JCLHHIN@rl32eSetScope?5not?5found?6?$AA@ 10084ea8     xpcruntime:xpcimports.obj
 0002:0000dec8       ??_C@_0P@IKMCBMHH@xpceFSScopeSet?$AA@ 10084ec8     xpcruntime:xpcimports.obj
 0002:0000dedc       ??_C@_0BK@JODJPNNH@xpceFSScopeSet?5not?5found?6?$AA@ 10084edc     xpcruntime:xpcimports.obj
 0002:0000defc       ??_C@_0BE@DLACEEJM@rl32eSetTargetScope?$AA@ 10084efc     xpcruntime:xpcimports.obj
 0002:0000df14       ??_C@_0BP@JCHFMKPJ@rl32eSetTargetScope?5not?5found?6?$AA@ 10084f14     xpcruntime:xpcimports.obj
 0002:0000df3c       ??_C@_0BJ@LIDLNDHC@rl32eSetTargetScopeSigFt?$AA@ 10084f3c     xpcruntime:xpcimports.obj
 0002:0000df5c       ??_C@_0CE@JLGHCFHI@rl32eSetTargetScopeSigFt?5not?5fou@ 10084f5c     xpcruntime:xpcimports.obj
 0002:0000df88       ??_C@_0BI@JAPOIDNG@rl32eRestartAcquisition?$AA@ 10084f88     xpcruntime:xpcimports.obj
 0002:0000dfa4       ??_C@_0CD@LLBEFFBO@rl32eRestartAcquisition?5not?5foun@ 10084fa4     xpcruntime:xpcimports.obj
 0002:0000dfd0       ??_C@_0P@IEIIADJB@xpceScopeAcqOK?$AA@ 10084fd0     xpcruntime:xpcimports.obj
 0002:0000dfe4       ??_C@_0BK@NJCKNFPN@xpceScopeAcqOK?5not?5found?6?$AA@ 10084fe4     xpcruntime:xpcimports.obj
 0002:0000e004       ??_C@_0BA@IJINKAHF@xpceRegisterISR?$AA@ 10085004     xpcruntime:xpcimports.obj
 0002:0000e018       ??_C@_0BL@NNDLOEJE@xpceRegisterISR?5not?5found?6?$AA@ 10085018     xpcruntime:xpcimports.obj
 0002:0000e038       ??_C@_0BC@NLBADGKF@xpceDeRegisterISR?$AA@ 10085038     xpcruntime:xpcimports.obj
 0002:0000e050       ??_C@_0BN@DCAIKFFD@xpceDeRegisterISR?5not?5found?6?$AA@ 10085050     xpcruntime:xpcimports.obj
 0002:0000e074       ??_C@_07JPMEPILD@xpcInpB?$AA@ 10085074     xpcruntime:xpcimports.obj
 0002:0000e080       ??_C@_0BD@PGABEJOL@xpcInpB?5not?5found?6?$AA@ 10085080     xpcruntime:xpcimports.obj
 0002:0000e098       ??_C@_07KIHBBOKH@xpcInpW?$AA@ 10085098     xpcruntime:xpcimports.obj
 0002:0000e0a4       ??_C@_0BD@FPCJFMCC@xpcInpW?5not?5found?6?$AA@ 100850a4     xpcruntime:xpcimports.obj
 0002:0000e0bc       ??_C@_08KDIAJBOP@xpcInpDW?$AA@ 100850bc     xpcruntime:xpcimports.obj
 0002:0000e0c8       ??_C@_0BE@PIELDNIL@xpcInpDW?5not?5found?6?$AA@ 100850c8     xpcruntime:xpcimports.obj
 0002:0000e0e0       ??_C@_08PJFMOIGO@xpcOutpB?$AA@ 100850e0     xpcruntime:xpcimports.obj
 0002:0000e0ec       ??_C@_0BE@HCKNCEKF@xpcOutpB?5not?5found?6?$AA@ 100850ec     xpcruntime:xpcimports.obj
 0002:0000e104       ??_C@_08MOOJAOHK@xpcOutpW?$AA@ 10085104     xpcruntime:xpcimports.obj
 0002:0000e110       ??_C@_0BE@NLIFDBGM@xpcOutpW?5not?5found?6?$AA@ 10085110     xpcruntime:xpcimports.obj
 0002:0000e128       ??_C@_09FLIEKHJG@xpcOutpDW?$AA@ 10085128     xpcruntime:xpcimports.obj
 0002:0000e134       ??_C@_0BF@GJKLPNHB@xpcOutpDW?5not?5found?6?$AA@ 10085134     xpcruntime:xpcimports.obj
 0002:0000e150       ??_C@_0BH@EHOLELHH@xpcReserveMemoryRegion?$AA@ 10085150     xpcruntime:xpcimports.obj
 0002:0000e16c       ??_C@_0CC@KAAAGPI@xpcReserveMemoryRegion?5not?5found@ 1008516c     xpcruntime:xpcimports.obj
 0002:0000e194       ??_C@_0BA@JGPMHGAF@rl32eShowPCIDev?$AA@ 10085194     xpcruntime:xpcimports.obj
 0002:0000e1a8       ??_C@_0BL@DDFFLNHI@rl32eShowPCIDev?5not?5found?6?$AA@ 100851a8     xpcruntime:xpcimports.obj
 0002:0000e1c8       ??_C@_0BB@KBCOJPFB@rl32eShowPCIInfo?$AA@ 100851c8     xpcruntime:xpcimports.obj
 0002:0000e1dc       ??_C@_0BM@IFDMAGLO@rl32eShowPCIInfo?5not?5found?6?$AA@ 100851dc     xpcruntime:xpcimports.obj
 0002:0000e200       ??_C@_0BA@BGPAADB@rl32eGetPCIInfo?$AA@ 10085200     xpcruntime:xpcimports.obj
 0002:0000e214       ??_C@_0BL@IGOMLDCK@rl32eGetPCIInfo?5not?5found?6?$AA@ 10085214     xpcruntime:xpcimports.obj
 0002:0000e234       ??_C@_0BG@NJPFKFDP@rl32eGetPCIInfoAtSlot?$AA@ 10085234     xpcruntime:xpcimports.obj
 0002:0000e250       ??_C@_0CB@BBKIPMLA@rl32eGetPCIInfoAtSlot?5not?5found?6@ 10085250     xpcruntime:xpcimports.obj
 0002:0000e278       ??_C@_0BH@OKBOPNFG@xpceAssignPCIInterrupt?$AA@ 10085278     xpcruntime:xpcimports.obj
 0002:0000e294       ??_C@_0CC@CDNDNJBJ@xpceAssignPCIInterrupt?5not?5found@ 10085294     xpcruntime:xpcimports.obj
 0002:0000e2bc       ??_C@_0BD@PCKOKHO@xpceGetSignalValue?$AA@ 100852bc     xpcruntime:xpcimports.obj
 0002:0000e2d4       ??_C@_0BO@GCBDJHMB@xpceGetSignalValue?5not?5found?6?$AA@ 100852d4     xpcruntime:xpcimports.obj
 0002:0000e2f8       ??_C@_0BB@BJONJAGA@xpceSetParameter?$AA@ 100852f8     xpcruntime:xpcimports.obj
 0002:0000e30c       ??_C@_0BM@BJIKDLHA@xpceSetParameter?5not?5found?6?$AA@ 1008530c     xpcruntime:xpcimports.obj
 0002:0000e330       ??_C@_0BB@GNFDFMCM@xpceGetParameter?$AA@ 10085330     xpcruntime:xpcimports.obj
 0002:0000e344       ??_C@_0BM@POHNKBC@xpceGetParameter?5not?5found?6?$AA@ 10085344     xpcruntime:xpcimports.obj
 0002:0000e368       ??_C@_0BB@CEIJLFCD@xpceGetParamDims?$AA@ 10085368     xpcruntime:xpcimports.obj
 0002:0000e37c       ??_C@_0BM@OABDBKAO@xpceGetParamDims?5not?5found?6?$AA@ 1008537c     xpcruntime:xpcimports.obj
 0002:0000e3a0       ??_C@_0L@OCBLLHBM@xpceGetTET?$AA@ 100853a0     xpcruntime:xpcimports.obj
 0002:0000e3b0       ??_C@_0BG@HNOFBOB@xpceGetTET?5not?5found?6?$AA@ 100853b0     xpcruntime:xpcimports.obj
 0002:0000e3cc       ??_C@_0P@OKGNGAGH@xpcIsModelInit?$AA@ 100853cc     xpcruntime:xpcimports.obj
 0002:0000e3e0       ??_C@_0BK@DHEMLBIM@xpcIsModelInit?5not?5found?6?$AA@ 100853e0     xpcruntime:xpcimports.obj
 0002:0000e400       ??_C@_0BH@KJJLCAOJ@xpcAllocPhysicalMemory?$AA@ 10085400     xpcruntime:xpcimports.obj
 0002:0000e41c       ??_C@_0CC@MOJPNHKL@xpcAllocPhysicalMemory?5not?5found@ 1008541c     xpcruntime:xpcimports.obj
 0002:0000e444       ??_C@_0BG@CBNPGAEL@xpcFreePhysicalMemory?$AA@ 10085444     xpcruntime:xpcimports.obj
 0002:0000e460       ??_C@_0CB@PKJEBPOG@xpcFreePhysicalMemory?5not?5found?6@ 10085460     xpcruntime:xpcimports.obj
 0002:0000e488       ??_C@_0BC@JGKNLICL@xpcGetElapsedTime?$AA@ 10085488     xpcruntime:xpcimports.obj
 0002:0000e4a0       ??_C@_0BN@OEOAHCIO@xpcGetElapsedTime?5not?5found?6?$AA@ 100854a0     xpcruntime:xpcimports.obj
 0002:0000e4c4       ??_C@_0M@ICBLMODA@xpcBusyWait?$AA@ 100854c4     xpcruntime:xpcimports.obj
 0002:0000e4d4       ??_C@_0BH@FBOPECBI@xpcBusyWait?5not?5found?6?$AA@ 100854d4     xpcruntime:xpcimports.obj
 0002:0000e4f0       ??_C@_0N@LKKJEKKA@TBCreateSpin?$AA@ 100854f0     xpcruntime:xpcimports.obj
 0002:0000e500       ??_C@_0BI@FHKMLKOE@TBCreateSpin?5not?5found?6?$AA@ 10085500     xpcruntime:xpcimports.obj
 0002:0000e51c       ??_C@_0N@HOAJHNBD@TBDeleteSpin?$AA@ 1008551c     xpcruntime:xpcimports.obj
 0002:0000e52c       ??_C@_0BI@BKCPAAG@TBDeleteSpin?5not?5found?6?$AA@ 1008552c     xpcruntime:xpcimports.obj
 0002:0000e548       ??_C@_0P@DAHDDBJG@TBTakeSpinFast?$AA@ 10085548     xpcruntime:xpcimports.obj
 0002:0000e55c       ??_C@_0BK@NKAIBHGB@TBTakeSpinFast?5not?5found?6?$AA@ 1008555c     xpcruntime:xpcimports.obj
 0002:0000e57c       ??_C@_0P@FKNAAELA@TBGiveSpinFast?$AA@ 1008557c     xpcruntime:xpcimports.obj
 0002:0000e590       ??_C@_0BK@KGPJBJND@TBGiveSpinFast?5not?5found?6?$AA@ 10085590     xpcruntime:xpcimports.obj
 0002:0000e5b0       ??_C@_0BE@IIGBFDHK@xpceCreateSemaphore?$AA@ 100855b0     xpcruntime:xpcimports.obj
 0002:0000e5c8       ??_C@_0BP@KFBAFFKJ@xpceCreateSemaphore?5not?5found?6?$AA@ 100855c8     xpcruntime:xpcimports.obj
 0002:0000e5f0       ??_C@_0BC@IFNIONKJ@xpceWaitSemaphore?$AA@ 100855f0     xpcruntime:xpcimports.obj
 0002:0000e608       ??_C@_0BN@NMFAADIO@xpceWaitSemaphore?5not?5found?6?$AA@ 10085608     xpcruntime:xpcimports.obj
 0002:0000e62c       ??_C@_0BE@NNDIOBKE@xpceSignalSemaphore?$AA@ 1008562c     xpcruntime:xpcimports.obj
 0002:0000e644       ??_C@_0BP@LBANMHJP@xpceSignalSemaphore?5not?5found?6?$AA@ 10085644     xpcruntime:xpcimports.obj
 0002:0000e66c       ??_C@_0BE@MEBEKOIM@xpceDeleteSemaphore?$AA@ 1008566c     xpcruntime:xpcimports.obj
 0002:0000e684       ??_C@_0BP@OFNCKOJH@xpceDeleteSemaphore?5not?5found?6?$AA@ 10085684     xpcruntime:xpcimports.obj
 0002:0000e6ac       ??_C@_0BD@MFNDMBOF@FindUsbVideoDevice?$AA@ 100856ac     xpcruntime:xpcimports.obj
 0002:0000e6c4       ??_C@_0BO@POKLDHMI@FindUsbVideoDevice?5not?5found?6?$AA@ 100856c4     xpcruntime:xpcimports.obj
 0002:0000e6e8       ??_C@_0BA@PLPAPNAB@GetVideoConfigs?$AA@ 100856e8     xpcruntime:xpcimports.obj
 0002:0000e6fc       ??_C@_0BL@DALDHKHC@GetVideoConfigs?5not?5found?6?$AA@ 100856fc     xpcruntime:xpcimports.obj
 0002:0000e71c       ??_C@_0L@GBAEMHMH@StartVideo?$AA@ 1008571c     xpcruntime:xpcimports.obj
 0002:0000e72c       ??_C@_0BG@HDCELEBP@StartVideo?5not?5found?6?$AA@ 1008572c     xpcruntime:xpcimports.obj
 0002:0000e748       ??_C@_0BA@FDNPOCLN@ReadFrameBuffer?$AA@ 10085748     xpcruntime:xpcimports.obj
 0002:0000e75c       ??_C@_0BL@JHGHPNBI@ReadFrameBuffer?5not?5found?6?$AA@ 1008575c     xpcruntime:xpcimports.obj
 0002:0000e77c       ??_C@_09FAHCLKAG@StopVideo?$AA@ 1008577c     xpcruntime:xpcimports.obj
 0002:0000e788       ??_C@_0BF@NKGKKADL@StopVideo?5not?5found?6?$AA@ 10085788     xpcruntime:xpcimports.obj
 0002:0000e7a4       ??_C@_0O@MCPKDLLL@ConvertUImage?$AA@ 100857a4     xpcruntime:xpcimports.obj
 0002:0000e7b4       ??_C@_0BJ@PHJKOAFL@ConvertUImage?5not?5found?6?$AA@ 100857b4     xpcruntime:xpcimports.obj
 0002:0000e7d4       ??_C@_0BD@NKCBPBJJ@CreateVideoDisplay?$AA@ 100857d4     xpcruntime:xpcimports.obj
 0002:0000e7ec       ??_C@_0BO@HPPLLNFP@CreateVideoDisplay?5not?5found?6?$AA@ 100857ec     xpcruntime:xpcimports.obj
 0002:0000e810       ??_C@_0BE@KJCKGPHA@DestroyVideoDisplay?$AA@ 10085810     xpcruntime:xpcimports.obj
 0002:0000e828       ??_C@_0BP@FMGLJAIJ@DestroyVideoDisplay?5not?5found?6?$AA@ 10085828     xpcruntime:xpcimports.obj
 0002:0000e850       ??_C@_0BC@HCMIMIDN@StartVideoDisplay?$AA@ 10085850     xpcruntime:xpcimports.obj
 0002:0000e868       ??_C@_0BN@EFIEBGOO@StartVideoDisplay?5not?5found?6?$AA@ 10085868     xpcruntime:xpcimports.obj
 0002:0000e88c       ??_C@_0BB@JBBLMILG@StopVideoDisplay?$AA@ 1008588c     xpcruntime:xpcimports.obj
 0002:0000e8a0       ??_C@_0BM@DBJBPLEL@StopVideoDisplay?5not?5found?6?$AA@ 100858a0     xpcruntime:xpcimports.obj
 0002:0000e8c4       ??_C@_0M@MFJEGMHC@StreamVideo?$AA@ 100858c4     xpcruntime:xpcimports.obj
 0002:0000e8d4       ??_C@_0BH@OINCDMLA@StreamVideo?5not?5found?6?$AA@ 100858d4     xpcruntime:xpcimports.obj
 0002:0000e8f0       ??_C@_0N@IGGLCIGE@xpceaddEvent?$AA@ 100858f0     xpcruntime:xpcimports.obj
 0002:0000e900       ??_C@_0BI@NHJNFMKH@xpceaddEvent?5not?5found?6?$AA@ 10085900     xpcruntime:xpcimports.obj
 0002:0000e91c       ??_C@_0BB@LCMHHHFN@getMemoryService?$AA@ 1008591c     xpcruntime:xpcimports.obj
 0002:0000e930       ??_C@_0BM@MPLCNIIE@getMemoryService?5not?5found?6?$AA@ 10085930     xpcruntime:xpcimports.obj
 0002:0000e954       ??_C@_0P@KIKONDKK@getCommService?$AA@ 10085954     xpcruntime:xpcimports.obj
 0002:0000e968       ??_C@_0BK@NCECBKNM@getCommService?5not?5found?6?$AA@ 10085968     xpcruntime:xpcimports.obj
 0002:0000e988       ??_C@_0P@GDLHFECE@getStatusFlags?$AA@ 10085988     xpcruntime:xpcimports.obj
 0002:0000e99c       ??_C@_0BK@NEKDLJHG@getStatusFlags?5not?5found?6?$AA@ 1008599c     xpcruntime:xpcimports.obj
 0002:0000e9bc       ??_C@_0BL@CDFCLKOL@startToAsyncQueueTgtAppSvc?$AA@ 100859bc     xpcruntime:xpcimports.obj
 0002:0000e9dc       ??_C@_0CG@JGOFFKEL@startToAsyncQueueTgtAppSvc?5not?5f@ 100859dc     xpcruntime:xpcimports.obj
 0002:0000ea0c       ??_C@_0BP@IJNGPPPE@terminateToAsyncQueueTgtAppSvc?$AA@ 10085a0c     xpcruntime:xpcimports.obj
 0002:0000ea34       ??_C@_0CK@NDEMAMKF@terminateToAsyncQueueTgtAppSvc?5n@ 10085a34     xpcruntime:xpcimports.obj
 0002:0000ea68       ??_C@_0BK@IDACEHAO@sendToAsyncQueueTgtAppSvc?$AA@ 10085a68     xpcruntime:xpcimports.obj
 0002:0000ea88       ??_C@_0CF@PNCKPEHN@sendToAsyncQueueTgtAppSvc?5not?5fo@ 10085a88     xpcruntime:xpcimports.obj
 0002:0000eab4       ??_C@_0BN@HJOHIFOM@xpceGetIntTimerGranularityNS?$AA@ 10085ab4     xpcruntime:xpcimports.obj
 0002:0000ead8       ??_C@_0CI@OADDPMKB@xpceGetIntTimerGranularityNS?5not@ 10085ad8     xpcruntime:xpcimports.obj
 0002:0000eb08       ??_C@_0BG@CCHICKPN@slrteSetStepSizeDelta?$AA@ 10085b08     xpcruntime:xpcimports.obj
 0002:0000eb24       ??_C@_0CB@MKHINEIJ@slrteSetStepSizeDelta?5not?5found?6@ 10085b24     xpcruntime:xpcimports.obj
 0002:0000eb4c       ??_C@_0BI@CLNBLDKJ@slrteGetCurrentStepSize?$AA@ 10085b4c     xpcruntime:xpcimports.obj
 0002:0000eb68       ??_C@_0CD@GIOJPGJA@slrteGetCurrentStepSize?5not?5foun@ 10085b68     xpcruntime:xpcimports.obj
 0002:0000eb94       ??_C@_0BE@FCLCBOC@registerPTPTimeRead?$AA@ 10085b94     xpcruntime:xpcimports.obj
 0002:0000ebac       ??_C@_0BP@LHPKAJIP@registerPTPTimeRead?5not?5found?6?$AA@ 10085bac     xpcruntime:xpcimports.obj
 0002:0000ebd4       ??_C@_0BG@KIGCDDJI@unRegisterPTPTimeRead?$AA@ 10085bd4     xpcruntime:xpcimports.obj
 0002:0000ebf0       ??_C@_0CB@MLFFBFCM@unRegisterPTPTimeRead?5not?5found?6@ 10085bf0     xpcruntime:xpcimports.obj
 0002:0000ec18       ??_C@_0BB@IPMDDBHK@slTestInitialize?$AA@ 10085c18     xpcruntime:xpcimports.obj
 0002:0000ec2c       ??_C@_0BM@LAJFCCJH@slTestInitialize?5not?5found?6?$AA@ 10085c2c     xpcruntime:xpcimports.obj
 0002:0000ec50       ??_C@_0BF@OOMPMEBC@slTestLogAssessments?$AA@ 10085c50     xpcruntime:xpcimports.obj
 0002:0000ec6c       ??_C@_0CA@FGJCEBAG@slTestLogAssessments?5not?5found?6?$AA@ 10085c6c     xpcruntime:xpcimports.obj
 0002:0000ec94       ??_C@_0BB@HJHKONHO@slTestEvalOnFail?$AA@ 10085c94     xpcruntime:xpcimports.obj
 0002:0000eca8       ??_C@_0BM@JIKCFFNJ@slTestEvalOnFail?5not?5found?6?$AA@ 10085ca8     xpcruntime:xpcimports.obj
 0002:0000eccc       ??_C@_0BA@LBHLABFP@slTestTerminate?$AA@ 10085ccc     xpcruntime:xpcimports.obj
 0002:0000ece0       ??_C@_0BL@EMFGKAPA@slTestTerminate?5not?5found?6?$AA@ 10085ce0     xpcruntime:xpcimports.obj
 0002:0000ed00       ??_C@_0BE@JPNPBBEO@slTestRegAssessment?$AA@ 10085d00     xpcruntime:xpcimports.obj
 0002:0000ed18       ??_C@_0BP@FBDEJJJH@slTestRegAssessment?5not?5found?6?$AA@ 10085d18     xpcruntime:xpcimports.obj
 0002:0000ed40       ??_C@_0O@NCLGDNIB@slrteSetupMSI?$AA@ 10085d40     xpcruntime:xpcimports.obj
 0002:0000ed50       ??_C@_0BJ@HEFMECLM@slrteSetupMSI?5not?5found?6?$AA@ 10085d50     xpcruntime:xpcimports.obj
 0002:0000ed70       ??_C@_0BH@BPOLALHD@slrtGetCRBScratchSpace?$AA@ 10085d70     xpcruntime:xpcimports.obj
 0002:0000ed8c       ??_C@_0CC@KCKAJKKJ@slrtGetCRBScratchSpace?5not?5found@ 10085d8c     xpcruntime:xpcimports.obj
 0002:0000edb4       ??_C@_0BC@MKFDAKOL@slrtGetSgCRBSpace?$AA@ 10085db4     xpcruntime:xpcimports.obj
 0002:0000edcc       ??_C@_0BN@JDPHPLHL@slrtGetSgCRBSpace?5not?5found?6?$AA@ 10085dcc     xpcruntime:xpcimports.obj
 0002:0000edf0       ??_C@_0P@EPAPKLIF@slrtfsOpenFile?$AA@ 10085df0     xpcruntime:xpcimports.obj
 0002:0000ee04       ??_C@_0BK@FIHCBOHG@slrtfsOpenFile?5not?5found?6?$AA@ 10085e04     xpcruntime:xpcimports.obj
 0002:0000ee24       ??_C@_0BA@LILAFDDL@slrtfsCloseFile?$AA@ 10085e24     xpcruntime:xpcimports.obj
 0002:0000ee38       ??_C@_0BL@DEGHJFIB@slrtfsCloseFile?5not?5found?6?$AA@ 10085e38     xpcruntime:xpcimports.obj
 0002:0000ee58       ??_C@_0BC@OKMJDIEH@slrtfsWriteToFile?$AA@ 10085e58     xpcruntime:xpcimports.obj
 0002:0000ee70       ??_C@_0BN@KCFLCLAH@slrtfsWriteToFile?5not?5found?6?$AA@ 10085e70     xpcruntime:xpcimports.obj
 0002:0000ee94       ??_C@_0BK@GIPNFFFF@slrtfsGetFileErrorMessage?$AA@ 10085e94     xpcruntime:xpcimports.obj
 0002:0000eeb4       ??_C@_0CF@BCBLMKLE@slrtfsGetFileErrorMessage?5not?5fo@ 10085eb4     xpcruntime:xpcimports.obj
 0002:0000eee0       ??_C@_0BD@ICBOKMK@slrtfsGetFileError?$AA@ 10085ee0     xpcruntime:xpcimports.obj
 0002:0000eef8       ??_C@_0BO@FNBANAE@slrtfsGetFileError?5not?5found?6?$AA@ 10085ef8     xpcruntime:xpcimports.obj
 0002:0000ef1c       ??_C@_0BE@PPAJMHJP@slrtfsOpenFileAsync?$AA@ 10085f1c     xpcruntime:xpcimports.obj
 0002:0000ef34       ??_C@_0BP@HKBMMJOK@slrtfsOpenFileAsync?5not?5found?6?$AA@ 10085f34     xpcruntime:xpcimports.obj
 0002:0000ef5c       ??_C@_0BF@IGNDIBPF@slrtfsCloseFileAsync?$AA@ 10085f5c     xpcruntime:xpcimports.obj
 0002:0000ef78       ??_C@_0CA@GJPFDBKN@slrtfsCloseFileAsync?5not?5found?6?$AA@ 10085f78     xpcruntime:xpcimports.obj
 0002:0000efa0       ??_C@_0BE@IOLEBNB@slrtfsGetFileStatus?$AA@ 10085fa0     xpcruntime:xpcimports.obj
 0002:0000efb8       ??_C@_0BP@PEFHDGHL@slrtfsGetFileStatus?5not?5found?6?$AA@ 10085fb8     xpcruntime:xpcimports.obj
 0002:0000efe0       ??_C@_0N@IDKFJOHI@getlasterror?$AA@ 10085fe0     xpcruntime:xpcimports.obj
 0002:0000eff0       ??_C@_0BI@MIHMCHGL@getlasterror?5not?5found?6?$AA@ 10085ff0     xpcruntime:xpcimports.obj
 0002:0000f00c       ??_C@_0N@EAAOMIIE@isUsedByRTIP?$AA@ 1008600c     xpcruntime:xpcimports.obj
 0002:0000f01c       ??_C@_0BI@GNHHHICK@isUsedByRTIP?5not?5found?6?$AA@ 1008601c     xpcruntime:xpcimports.obj
 0002:0000f038       ??_C@_0BC@HLDKJAG@SetIPTASKPriority?$AA@ 10086038     xpcruntime:xpcimports.obj
 0002:0000f050       ??_C@_0BN@OGKMHHAE@SetIPTASKPriority?5not?5found?6?$AA@ 10086050     xpcruntime:xpcimports.obj
 0002:0000f074       ??_C@_0O@LHENMBDD@OpenInterface?$AA@ 10086074     xpcruntime:xpcimports.obj
 0002:0000f084       ??_C@_0BJ@PFGDBKHB@OpenInterface?5not?5found?6?$AA@ 10086084     xpcruntime:xpcimports.obj
 0002:0000f0a4       ??_C@_0P@IINFELKD@CloseInterface?$AA@ 100860a4     xpcruntime:xpcimports.obj
 0002:0000f0b8       ??_C@_0BK@PAPDNDBK@CloseInterface?5not?5found?6?$AA@ 100860b8     xpcruntime:xpcimports.obj
 0002:0000f0d8       ??_C@_05LEFIAAOI@SetIP?$AA@ 100860d8     xpcruntime:xpcimports.obj
 0002:0000f0e0       ??_C@_0BB@CGLIBAMM@SetIP?5not?5found?6?$AA@ 100860e0     xpcruntime:xpcimports.obj
 0002:0000f0f4       ??_C@_0BA@HIJJHHMD@AddGatewayRoute?$AA@ 100860f4     xpcruntime:xpcimports.obj
 0002:0000f108       ??_C@_0BL@BFCFMDMN@AddGatewayRoute?5not?5found?6?$AA@ 10086108     xpcruntime:xpcimports.obj
 0002:0000f128       ??_C@_0M@PHMABFPI@DeleteRoute?$AA@ 10086128     xpcruntime:xpcimports.obj
 0002:0000f138       ??_C@_0BH@JPJGLLID@DeleteRoute?5not?5found?6?$AA@ 10086138     xpcruntime:xpcimports.obj
 0002:0000f154       ??_C@_0BA@FCDIMKIJ@GetHostTarIPAdd?$AA@ 10086154     xpcruntime:xpcimports.obj
 0002:0000f168       ??_C@_0BL@MBKDGKBO@GetHostTarIPAdd?5not?5found?6?$AA@ 10086168     xpcruntime:xpcimports.obj
 0002:0000f188       ??_C@_0M@HPMIPIBI@GetDCUUsage?$AA@ 10086188     xpcruntime:xpcimports.obj
 0002:0000f198       ??_C@_0BH@EBLJKCJC@GetDCUUsage?5not?5found?6?$AA@ 10086198     xpcruntime:xpcimports.obj
 0002:0000f1b4       ??_C@_06MPKMECK@accept?$AA@ 100861b4     xpcruntime:xpcimports.obj
 0002:0000f1bc       ??_C@_0BC@GBGIEMNO@accept?5not?5found?6?$AA@ 100861bc     xpcruntime:xpcimports.obj
 0002:0000f1d4       ??_C@_04NPNJNMMP@bind?$AA@ 100861d4     xpcruntime:xpcimports.obj
 0002:0000f1dc       ??_C@_0BA@DAJNENLO@bind?5not?5found?6?$AA@ 100861dc     xpcruntime:xpcimports.obj
 0002:0000f1f0       ??_C@_0L@CKHNIFCM@setsockopt?$AA@ 100861f0     xpcruntime:xpcimports.obj
 0002:0000f200       ??_C@_0BG@MFIIOMFE@setsockopt?5not?5found?6?$AA@ 10086200     xpcruntime:xpcimports.obj
 0002:0000f21c       ??_C@_0M@ODDJDCDK@closesocket?$AA@ 1008621c     xpcruntime:xpcimports.obj
 0002:0000f22c       ??_C@_0BH@JHGHMIL@closesocket?5not?5found?6?$AA@ 1008622c     xpcruntime:xpcimports.obj
 0002:0000f248       ??_C@_07KAIBNCHO@connect?$AA@ 10086248     xpcruntime:xpcimports.obj
 0002:0000f254       ??_C@_0BD@MKLLMBM@connect?5not?5found?6?$AA@ 10086254     xpcruntime:xpcimports.obj
 0002:0000f26c       ??_C@_0M@PBPOCKDG@ioctlsocket?$AA@ 1008626c     xpcruntime:xpcimports.obj
 0002:0000f27c       ??_C@_0BH@NFCNHHIH@ioctlsocket?5not?5found?6?$AA@ 1008627c     xpcruntime:xpcimports.obj
 0002:0000f298       ??_C@_06OODDLKLE@listen?$AA@ 10086298     xpcruntime:xpcimports.obj
 0002:0000f2a0       ??_C@_0BC@NHBILEKI@listen?5not?5found?6?$AA@ 100862a0     xpcruntime:xpcimports.obj
 0002:0000f2b8       ??_C@_08HMBBGFHE@recvfrom?$AA@ 100862b8     xpcruntime:xpcimports.obj
 0002:0000f2c4       ??_C@_0BE@BJAJFFLF@recvfrom?5not?5found?6?$AA@ 100862c4     xpcruntime:xpcimports.obj
 0002:0000f2dc       ??_C@_06MEPBGKEC@sendto?$AA@ 100862dc     xpcruntime:xpcimports.obj
 0002:0000f2e4       ??_C@_0BC@BHPIMDJO@sendto?5not?5found?6?$AA@ 100862e4     xpcruntime:xpcimports.obj
 0002:0000f2fc       ??_C@_09JKBDEEOB@inet_addr?$AA@ 100862fc     xpcruntime:xpcimports.obj
 0002:0000f308       ??_C@_0BF@HKJPGECN@inet_addr?5not?5found?6?$AA@ 10086308     xpcruntime:xpcimports.obj
 0002:0000f324       ??_C@_06HBELJPBO@socket?$AA@ 10086324     xpcruntime:xpcimports.obj
 0002:0000f32c       ??_C@_0BC@NAGFFJGA@socket?5not?5found?6?$AA@ 1008632c     xpcruntime:xpcimports.obj
 0002:0000f3ec       __pRawDllMain              100863ec     LIBCMT:dll_dllmain.obj
 0002:0000f3ec       __pDefaultRawDllMain       100863ec     LIBCMT:dll_dllmain.obj
 0002:0000f404       ??_C@_1BC@DNHGCMLG@?$AAa?$AAd?$AAv?$AAa?$AAp?$AAi?$AA3?$AA2?$AA?$AA@ 10086404     libvcruntime:winapi_downlevel.obj
 0002:0000f41c       ??_C@_1DM@KHCHBNEB@?$AAa?$AAp?$AAi?$AA?9?$AAm?$AAs?$AA?9?$AAw?$AAi?$AAn?$AA?9?$AAc?$AAo?$AAr?$AAe?$AA?9?$AAf?$AAi?$AAb?$AAe?$AAr?$AAs?$AA?9?$AAl?$AA1?$AA?9?$AA1?$AA?9?$AA1?$AA?$AA@ 1008641c     libvcruntime:winapi_downlevel.obj
 0002:0000f464       ??_C@_1DK@LPPGFMPP@?$AAa?$AAp?$AAi?$AA?9?$AAm?$AAs?$AA?9?$AAw?$AAi?$AAn?$AA?9?$AAc?$AAo?$AAr?$AAe?$AA?9?$AAs?$AAy?$AAn?$AAc?$AAh?$AA?9?$AAl?$AA1?$AA?9?$AA2?$AA?9?$AA0?$AA?$AA@ 10086464     libvcruntime:winapi_downlevel.obj
 0002:0000f4ac       ??_C@_1BC@GDMECMAK@?$AAk?$AAe?$AAr?$AAn?$AAe?$AAl?$AA3?$AA2?$AA?$AA@ 100864ac     libvcruntime:winapi_downlevel.obj
 0002:0000f4c8       ??_C@_0O@BAMBGLIE@EventRegister?$AA@ 100864c8     libvcruntime:winapi_downlevel.obj
 0002:0000f4dc       ??_C@_0BE@BJEEGHGK@EventSetInformation?$AA@ 100864dc     libvcruntime:winapi_downlevel.obj
 0002:0000f4f8       ??_C@_0BA@FAKLIPIC@EventUnregister?$AA@ 100864f8     libvcruntime:winapi_downlevel.obj
 0002:0000f510       ??_C@_0BD@PKLHJPHD@EventWriteTransfer?$AA@ 10086510     libvcruntime:winapi_downlevel.obj
 0002:0000f534       ??_C@_08KNHFBNJ@FlsAlloc?$AA@ 10086534     libvcruntime:winapi_downlevel.obj
 0002:0000f54c       ??_C@_07PEJMOBNF@FlsFree?$AA@ 1008654c     libvcruntime:winapi_downlevel.obj
 0002:0000f564       ??_C@_0M@GDNOONDI@FlsGetValue?$AA@ 10086564     libvcruntime:winapi_downlevel.obj
 0002:0000f580       ??_C@_0M@JCPCPOEF@FlsSetValue?$AA@ 10086580     libvcruntime:winapi_downlevel.obj
 0002:0000f59c       ??_C@_0BM@HCFOFFN@InitializeCriticalSectionEx?$AA@ 1008659c     libvcruntime:winapi_downlevel.obj
 0002:0000f7a0       ??_C@_08EHJDFFNH@__based?$CI?$AA@ 100867a0     libvcruntime:undname.obj
 0002:0000f7ac       ??_C@_07KOLFKCDI@__cdecl?$AA@ 100867ac     libvcruntime:undname.obj
 0002:0000f7b8       ??_C@_08GHMPAG@__pascal?$AA@ 100867b8     libvcruntime:undname.obj
 0002:0000f7c4       ??_C@_09IFJBGAPI@__stdcall?$AA@ 100867c4     libvcruntime:undname.obj
 0002:0000f7d0       ??_C@_0L@NPHFGOKO@__thiscall?$AA@ 100867d0     libvcruntime:undname.obj
 0002:0000f7e0       ??_C@_0L@JMKHOMEK@__fastcall?$AA@ 100867e0     libvcruntime:undname.obj
 0002:0000f7f0       ??_C@_0N@BCKKPABJ@__vectorcall?$AA@ 100867f0     libvcruntime:undname.obj
 0002:0000f800       ??_C@_09HIJEGCPM@__clrcall?$AA@ 10086800     libvcruntime:undname.obj
 0002:0000f80c       ??_C@_06GHPCKEAG@__eabi?$AA@ 1008680c     libvcruntime:undname.obj
 0002:0000f814       ??_C@_07JOMMBBKO@__ptr64?$AA@ 10086814     libvcruntime:undname.obj
 0002:0000f820       ??_C@_0L@PILCLIHE@__restrict?$AA@ 10086820     libvcruntime:undname.obj
 0002:0000f830       ??_C@_0M@GFIIJFMG@__unaligned?$AA@ 10086830     libvcruntime:undname.obj
 0002:0000f840       ??_C@_09DHDLOLLB@restrict?$CI?$AA@ 10086840     libvcruntime:undname.obj
 0002:0000f84c       ??_C@_04NIHEBCM@?5new?$AA@ 1008684c     libvcruntime:undname.obj
 0002:0000f854       ??_C@_07FPCDHGMM@?5delete?$AA@ 10086854     libvcruntime:undname.obj
 0002:0000f860       ??_C@_01NEMOKFLO@?$DN?$AA@ 10086860     libvcruntime:undname.obj
 0002:0000f864       ??_C@_02GPIOPFAK@?$DO?$DO?$AA@ 10086864     libvcruntime:undname.obj
 0002:0000f868       ??_C@_02FODMEDOG@?$DM?$DM?$AA@ 10086868     libvcruntime:undname.obj
 0002:0000f86c       ??_C@_01DCLJPIOD@?$CB?$AA@ 1008686c     libvcruntime:undname.obj
 0002:0000f870       ??_C@_02EGOFBIJA@?$DN?$DN?$AA@ 10086870     libvcruntime:undname.obj
 0002:0000f874       ??_C@_02FDNJECIE@?$CB?$DN?$AA@ 10086874     libvcruntime:undname.obj
 0002:0000f878       ??_C@_02GPECMEKF@?$FL?$FN?$AA@ 10086878     libvcruntime:undname.obj
 0002:0000f87c       ??_C@_08LHJFAFGD@operator?$AA@ 1008687c     libvcruntime:undname.obj
 0002:0000f888       ??_C@_02HBOOOICD@?9?$DO?$AA@ 10086888     libvcruntime:undname.obj
 0002:0000f88c       ??_C@_01NBENCBCI@?$CK?$AA@ 1008688c     libvcruntime:undname.obj
 0002:0000f890       ??_C@_02ECNGHCIF@?$CL?$CL?$AA@ 10086890     libvcruntime:undname.obj
 0002:0000f894       ??_C@_02BAABKJLB@?9?9?$AA@ 10086894     libvcruntime:undname.obj
 0002:0000f898       ??_C@_01JOAMLHOP@?9?$AA@   10086898     libvcruntime:undname.obj
 0002:0000f89c       ??_C@_01MIFGBAGJ@?$CL?$AA@ 1008689c     libvcruntime:undname.obj
 0002:0000f8a0       ??_C@_01HNPIGOCE@?$CG?$AA@ 100868a0     libvcruntime:undname.obj
 0002:0000f8a4       ??_C@_03MNHNFDLC@?9?$DO?$CK?$AA@ 100868a4     libvcruntime:undname.obj
 0002:0000f8a8       ??_C@_01KMDKNFGN@?1?$AA@   100868a8     libvcruntime:undname.obj
 0002:0000f8ac       ??_C@_01FGNFDNOH@?$CF?$AA@ 100868ac     libvcruntime:undname.obj
 0002:0000f8b0       ??_C@_01MNNFJEPP@?$DM?$AA@ 100868b0     libvcruntime:undname.obj
 0002:0000f8b4       ??_C@_02EHCHHCKH@?$DM?$DN?$AA@ 100868b4     libvcruntime:undname.obj
 0002:0000f8b8       ??_C@_01PPODPGHN@?$DO?$AA@ 100868b8     libvcruntime:undname.obj
 0002:0000f8bc       ??_C@_02EEKDKGMJ@?$DO?$DN?$AA@ 100868bc     libvcruntime:undname.obj
 0002:0000f8c0       ??_C@_01IHBHIGKO@?0?$AA@   100868c0     libvcruntime:undname.obj
 0002:0000f8c4       ??_C@_02HCKGKOFO@?$CI?$CJ?$AA@ 100868c4     libvcruntime:undname.obj
 0002:0000f8c8       ??_C@_01PJKLJHI@?$HO?$AA@  100868c8     libvcruntime:undname.obj
 0002:0000f8cc       ??_C@_01JKBOJNNK@?$FO?$AA@ 100868cc     libvcruntime:undname.obj
 0002:0000f8d0       ??_C@_01DNKMNLPK@?$HM?$AA@ 100868d0     libvcruntime:undname.obj
 0002:0000f8d4       ??_C@_02PPKAJPJL@?$CG?$CG?$AA@ 100868d4     libvcruntime:undname.obj
 0002:0000f8d8       ??_C@_02NONPIBCD@?$HM?$HM?$AA@ 100868d8     libvcruntime:undname.obj
 0002:0000f8dc       ??_C@_02FPIMKNGF@?$CK?$DN?$AA@ 100868dc     libvcruntime:undname.obj
 0002:0000f8e0       ??_C@_02FOEOMHFC@?$CL?$DN?$AA@ 100868e0     libvcruntime:undname.obj
 0002:0000f8e4       ??_C@_02FKMDLLOA@?9?$DN?$AA@ 100868e4     libvcruntime:undname.obj
 0002:0000f8e8       ??_C@_02FJEHGPIO@?1?$DN?$AA@ 100868e8     libvcruntime:undname.obj
 0002:0000f8ec       ??_C@_02FENAOKFI@?$CF?$DN?$AA@ 100868ec     libvcruntime:undname.obj
 0002:0000f8f0       ??_C@_03IKFCCPFF@?$DO?$DO?$DN?$AA@ 100868f0     libvcruntime:undname.obj
 0002:0000f8f4       ??_C@_03CDNPDDLA@?$DM?$DM?$DN?$AA@ 100868f4     libvcruntime:undname.obj
 0002:0000f8f8       ??_C@_02FGJGFEAB@?$CG?$DN?$AA@ 100868f8     libvcruntime:undname.obj
 0002:0000f8fc       ??_C@_02DHLNPPGH@?$HM?$DN?$AA@ 100868fc     libvcruntime:undname.obj
 0002:0000f900       ??_C@_02MHEGNOJ@?$FO?$DN?$AA@ 10086900     libvcruntime:undname.obj
 0002:0000f904       ??_C@_09IFPLHPGF@?$GAvftable?8?$AA@ 10086904     libvcruntime:undname.obj
 0002:0000f910       ??_C@_09BLBHBJP@?$GAvbtable?8?$AA@ 10086910     libvcruntime:undname.obj
 0002:0000f91c       ??_C@_07FEEIOKP@?$GAvcall?8?$AA@ 1008691c     libvcruntime:undname.obj
 0002:0000f928       ??_C@_08LLFFHHDJ@?$GAtypeof?8?$AA@ 10086928     libvcruntime:undname.obj
 0002:0000f934       ??_C@_0BF@KDPPACIK@?$GAlocal?5static?5guard?8?$AA@ 10086934     libvcruntime:undname.obj
 0002:0000f950       ??_C@_08OBABFOLI@?$GAstring?8?$AA@ 10086950     libvcruntime:undname.obj
 0002:0000f95c       ??_C@_0BD@JDLKDPAB@?$GAvbase?5destructor?8?$AA@ 1008695c     libvcruntime:undname.obj
 0002:0000f974       ??_C@_0BN@DEGPLNFK@?$GAvector?5deleting?5destructor?8?$AA@ 10086974     libvcruntime:undname.obj
 0002:0000f998       ??_C@_0BO@OBMKPJIG@?$GAdefault?5constructor?5closure?8?$AA@ 10086998     libvcruntime:undname.obj
 0002:0000f9bc       ??_C@_0BN@IMDCHIKM@?$GAscalar?5deleting?5destructor?8?$AA@ 100869bc     libvcruntime:undname.obj
 0002:0000f9e0       ??_C@_0BO@PFGOCPJJ@?$GAvector?5constructor?5iterator?8?$AA@ 100869e0     libvcruntime:undname.obj
 0002:0000fa04       ??_C@_0BN@LFPFMEDL@?$GAvector?5destructor?5iterator?8?$AA@ 10086a04     libvcruntime:undname.obj
 0002:0000fa28       ??_C@_0CE@IKBNEHA@?$GAvector?5vbase?5constructor?5iterat@ 10086a28     libvcruntime:undname.obj
 0002:0000fa54       ??_C@_0BL@NILFHHPC@?$GAvirtual?5displacement?5map?8?$AA@ 10086a54     libvcruntime:undname.obj
 0002:0000fa74       ??_C@_0CB@JONCMFFK@?$GAeh?5vector?5constructor?5iterator?8@ 10086a74     libvcruntime:undname.obj
 0002:0000fa9c       ??_C@_0CA@GCEOPDGL@?$GAeh?5vector?5destructor?5iterator?8?$AA@ 10086a9c     libvcruntime:undname.obj
 0002:0000fac4       ??_C@_0CH@OOJPLCPH@?$GAeh?5vector?5vbase?5constructor?5ite@ 10086ac4     libvcruntime:undname.obj
 0002:0000faf4       ??_C@_0BL@LLKPOHJI@?$GAcopy?5constructor?5closure?8?$AA@ 10086af4     libvcruntime:undname.obj
 0002:0000fb14       ??_C@_0BA@KBCDOMBN@?$GAudt?5returning?8?$AA@ 10086b14     libvcruntime:undname.obj
 0002:0000fb28       ??_C@_03KLGMFNMG@?$GAEH?$AA@ 10086b28     libvcruntime:undname.obj
 0002:0000fb2c       ??_C@_05KHLCHHI@?$GARTTI?$AA@ 10086b2c     libvcruntime:undname.obj
 0002:0000fb34       ??_C@_0BA@KKLDJDLB@?$GAlocal?5vftable?8?$AA@ 10086b34     libvcruntime:undname.obj
 0002:0000fb48       ??_C@_0CE@IIHCMGGL@?$GAlocal?5vftable?5constructor?5closu@ 10086b48     libvcruntime:undname.obj
 0002:0000fb74       ??_C@_06FHBGPFGH@?5new?$FL?$FN?$AA@ 10086b74     libvcruntime:undname.obj
 0002:0000fb7c       ??_C@_09LBNFPBCA@?5delete?$FL?$FN?$AA@ 10086b7c     libvcruntime:undname.obj
 0002:0000fb88       ??_C@_0P@HJKNJFNN@?$GAomni?5callsig?8?$AA@ 10086b88     libvcruntime:undname.obj
 0002:0000fb9c       ??_C@_0BL@CNOONJFP@?$GAplacement?5delete?5closure?8?$AA@ 10086b9c     libvcruntime:undname.obj
 0002:0000fbbc       ??_C@_0BN@CKNJLHMB@?$GAplacement?5delete?$FL?$FN?5closure?8?$AA@ 10086bbc     libvcruntime:undname.obj
 0002:0000fbe0       ??_C@_0CG@CFDHKGGD@?$GAmanaged?5vector?5constructor?5iter@ 10086be0     libvcruntime:undname.obj
 0002:0000fc10       ??_C@_0CF@IMGKMJNO@?$GAmanaged?5vector?5destructor?5itera@ 10086c10     libvcruntime:undname.obj
 0002:0000fc3c       ??_C@_0CG@HLDDJMAG@?$GAeh?5vector?5copy?5constructor?5iter@ 10086c3c     libvcruntime:undname.obj
 0002:0000fc6c       ??_C@_0CM@FCBBDIGB@?$GAeh?5vector?5vbase?5copy?5constructo@ 10086c6c     libvcruntime:undname.obj
 0002:0000fca0       ??_C@_0BL@CLIPGLGB@?$GAdynamic?5initializer?5for?5?8?$AA@ 10086ca0     libvcruntime:undname.obj
 0002:0000fcc0       ??_C@_0CB@PDBIFEP@?$GAdynamic?5atexit?5destructor?5for?5?8@ 10086cc0     libvcruntime:undname.obj
 0002:0000fce8       ??_C@_0CD@CGAJBKEJ@?$GAvector?5copy?5constructor?5iterato@ 10086ce8     libvcruntime:undname.obj
 0002:0000fd14       ??_C@_0CJ@GJELGAMM@?$GAvector?5vbase?5copy?5constructor?5i@ 10086d14     libvcruntime:undname.obj
 0002:0000fd48       ??_C@_0CL@FGIJHLCE@?$GAmanaged?5vector?5copy?5constructor@ 10086d48     libvcruntime:undname.obj
 0002:0000fd7c       ??_C@_0BM@PMGGMLDN@?$GAlocal?5static?5thread?5guard?8?$AA@ 10086d7c     libvcruntime:undname.obj
 0002:0000fda0       ??_C@_0N@BDNMDMOL@operator?5?$CC?$CC?5?$AA@ 10086da0     libvcruntime:undname.obj
 0002:0000fdb0       ??_C@_0BC@DAFEJGAK@?5Type?5Descriptor?8?$AA@ 10086db0     libvcruntime:undname.obj
 0002:0000fdc8       ??_C@_0BM@LDKODKLH@?5Base?5Class?5Descriptor?5at?5?$CI?$AA@ 10086dc8     libvcruntime:undname.obj
 0002:0000fdec       ??_C@_0BD@LGICGFMM@?5Base?5Class?5Array?8?$AA@ 10086dec     libvcruntime:undname.obj
 0002:0000fe04       ??_C@_0BN@MECKDCOJ@?5Class?5Hierarchy?5Descriptor?8?$AA@ 10086e04     libvcruntime:undname.obj
 0002:0000fe28       ??_C@_0BK@CFCOFLF@?5Complete?5Object?5Locator?8?$AA@ 10086e28     libvcruntime:undname.obj
 0002:0000fe48       ??_C@_04HEJADOOB@CV?3?5?$AA@ 10086e48     libvcruntime:undname.obj
 0002:0000fe50       ??_C@_02MOLJINC@?3?3?$AA@  10086e50     libvcruntime:undname.obj
 0002:0000fe54       ??_C@_0BE@JAEOCHPE@template?9parameter?9?$AA@ 10086e54     libvcruntime:undname.obj
 0002:0000fe6c       ??_C@_0O@KHGCOMHP@generic?9type?9?$AA@ 10086e6c     libvcruntime:undname.obj
 0002:0000fe7c       ??_C@_01NLNLIGKH@?$GA?$AA@ 10086e7c     libvcruntime:undname.obj
 0002:0000fe80       ??_C@_01GEODFPGF@?8?$AA@   10086e80     libvcruntime:undname.obj
 0002:0000fe84       ??_C@_0BG@JNJLAMPM@?$GAanonymous?5namespace?8?$AA@ 10086e84     libvcruntime:undname.obj
 0002:0000fea0       ??_C@_02OHHJMEON@?8?8?$AA@ 10086ea0     libvcruntime:undname.obj
 0002:0000fea4       ??_C@_0BN@IBLMMFAP@?$GAnon?9type?9template?9parameter?$AA@ 10086ea4     libvcruntime:undname.obj
 0002:0000fec8       ??_C@_04GKJNKENE@void?$AA@ 10086ec8     libvcruntime:undname.obj
 0002:0000fed0       ??_C@_0BE@EODMJLIF@?$GAtemplate?9parameter?$AA@ 10086ed0     libvcruntime:undname.obj
 0002:0000fee8       ??_C@_03KHICJKCI@?4?4?4?$AA@ 10086ee8     libvcruntime:undname.obj
 0002:0000feec       ??_C@_04HIBGFPH@NULL?$AA@  10086eec     libvcruntime:undname.obj
 0002:0000fef4       ??_C@_02DPKJAMEF@?$CFd?$AA@ 10086ef4     libvcruntime:undname.obj
 0002:0000fef8       ??_C@_0BK@IHCCFNEL@?$GAtemplate?9type?9parameter?9?$AA@ 10086ef8     libvcruntime:undname.obj
 0002:0000ff18       ??_C@_0BK@OFCNNNKO@?$GAgeneric?9class?9parameter?9?$AA@ 10086f18     libvcruntime:undname.obj
 0002:0000ff38       ??_C@_0BL@NGJBLFIL@?$GAgeneric?9method?9parameter?9?$AA@ 10086f38     libvcruntime:undname.obj
 0002:0000ff58       ??_C@_03OPGICMGF@?$HN?8?5?$AA@ 10086f58     libvcruntime:undname.obj
 0002:0000ff5c       ??_C@_02IGFCGPIL@?$HN?8?$AA@ 10086f5c     libvcruntime:undname.obj
 0002:0000ff60       ??_C@_01CLKCMJKC@?5?$AA@   10086f60     libvcruntime:undname.obj
 0002:0000ff64       ??_C@_0N@CBHHHENL@?$GAvtordispex?$HL?$AA@ 10086f64     libvcruntime:undname.obj
 0002:0000ff74       ??_C@_0L@GHPFDFH@?$GAvtordisp?$HL?$AA@ 10086f74     libvcruntime:undname.obj
 0002:0000ff84       ??_C@_0L@HNGCOGAE@?$GAadjustor?$HL?$AA@ 10086f84     libvcruntime:undname.obj
 0002:0000ff94       ??_C@_0CB@KJDOOODE@?$GAlocal?5static?5destructor?5helper?8@ 10086f94     libvcruntime:undname.obj
 0002:0000ffbc       ??_C@_0DB@ILEFOCIJ@?$GAtemplate?5static?5data?5member?5con@ 10086fbc     libvcruntime:undname.obj
 0002:0000fff8       ??_C@_0DA@HGFJFBBE@?$GAtemplate?5static?5data?5member?5des@ 10086ff8     libvcruntime:undname.obj
 0002:00010034       ??_C@_07PGOEDBHP@static?5?$AA@ 10087034     libvcruntime:undname.obj
 0002:00010040       ??_C@_08NIEOINHE@virtual?5?$AA@ 10087040     libvcruntime:undname.obj
 0002:0001004c       ??_C@_09LAPHOOG@private?3?5?$AA@ 1008704c     libvcruntime:undname.obj
 0002:00010058       ??_C@_0M@GAIFPFIP@protected?3?5?$AA@ 10087058     libvcruntime:undname.obj
 0002:00010068       ??_C@_08GPDDCMKI@public?3?5?$AA@ 10087068     libvcruntime:undname.obj
 0002:00010074       ??_C@_08KJLFOPNE@?$FLthunk?$FN?3?$AA@ 10087074     libvcruntime:undname.obj
 0002:00010080       ??_C@_0M@DHNBOJMP@extern?5?$CCC?$CC?5?$AA@ 10087080     libvcruntime:undname.obj
 0002:00010090       ??_C@_02KCKGHPCA@?$CJ?5?$AA@ 10087090     libvcruntime:undname.obj
 0002:00010094       ??_C@_05CIHEBHNO@char?5?$AA@ 10087094     libvcruntime:undname.obj
 0002:0001009c       ??_C@_06EHJMALKF@short?5?$AA@ 1008709c     libvcruntime:undname.obj
 0002:000100a4       ??_C@_04LAHKHJMA@int?5?$AA@ 100870a4     libvcruntime:undname.obj
 0002:000100ac       ??_C@_05CJIMAING@long?5?$AA@ 100870ac     libvcruntime:undname.obj
 0002:000100b4       ??_C@_09EBBEKKIH@unsigned?5?$AA@ 100870b4     libvcruntime:undname.obj
 0002:000100c0       ??_C@_05BEFAKPML@void?5?$AA@ 100870c0     libvcruntime:undname.obj
 0002:000100c8       ??_C@_08PABEKFH@volatile?$AA@ 100870c8     libvcruntime:undname.obj
 0002:000100d4       ??_C@_0BA@LKIJLKPP@std?3?3nullptr_t?5?$AA@ 100870d4     libvcruntime:undname.obj
 0002:000100e8       ??_C@_0P@GCOCNKDM@std?3?3nullptr_t?$AA@ 100870e8     libvcruntime:undname.obj
 0002:000100fc       ??_C@_0L@EGPHHEKN@?$DMellipsis?$DO?$AA@ 100870fc     libvcruntime:undname.obj
 0002:0001010c       ??_C@_04EENFHACM@?0?4?4?4?$AA@ 1008710c     libvcruntime:undname.obj
 0002:00010114       ??_C@_0M@ELJOJFFH@?0?$DMellipsis?$DO?$AA@ 10087114     libvcruntime:undname.obj
 0002:00010124       ??_C@_07HDJPLPEK@?5throw?$CI?$AA@ 10087124     libvcruntime:undname.obj
 0002:00010130       ??_C@_03PBJBJNON@cpu?$AA@  10087130     libvcruntime:undname.obj
 0002:00010134       ??_C@_03DCBBJBAA@amp?$AA@  10087134     libvcruntime:undname.obj
 0002:00010138       ??_C@_02KEGNLNML@?0?5?$AA@ 10087138     libvcruntime:undname.obj
 0002:0001013c       ??_C@_04ENMBGAPA@char?$AA@ 1008713c     libvcruntime:undname.obj
 0002:00010144       ??_C@_05BFKKPKCG@short?$AA@ 10087144     libvcruntime:undname.obj
 0002:0001014c       ??_C@_03JBIPMCLC@int?$AA@  1008714c     libvcruntime:undname.obj
 0002:00010150       ??_C@_04GOKPGOLB@long?$AA@ 10087150     libvcruntime:undname.obj
 0002:00010158       ??_C@_04DDKJGDCM@bool?$AA@ 10087158     libvcruntime:undname.obj
 0002:00010160       ??_C@_06EBGKOKIG@__int8?$AA@ 10087160     libvcruntime:undname.obj
 0002:00010168       ??_C@_07ICFHOGAF@__int16?$AA@ 10087168     libvcruntime:undname.obj
 0002:00010174       ??_C@_07OFLPPHGP@__int32?$AA@ 10087174     libvcruntime:undname.obj
 0002:00010180       ??_C@_07LFCOJCAC@__int64?$AA@ 10087180     libvcruntime:undname.obj
 0002:0001018c       ??_C@_08GAHOLHEO@__int128?$AA@ 1008718c     libvcruntime:undname.obj
 0002:00010198       ??_C@_09EEKGDCPH@?$DMunknown?$DO?$AA@ 10087198     libvcruntime:undname.obj
 0002:000101a4       ??_C@_08HBIPOFJB@char16_t?$AA@ 100871a4     libvcruntime:undname.obj
 0002:000101b0       ??_C@_08IECNCBKG@char32_t?$AA@ 100871b0     libvcruntime:undname.obj
 0002:000101bc       ??_C@_07CLGGIAMF@wchar_t?$AA@ 100871bc     libvcruntime:undname.obj
 0002:000101c8       ??_C@_06GCICPBLB@__w64?5?$AA@ 100871c8     libvcruntime:undname.obj
 0002:000101d0       ??_C@_07NFANNNEC@UNKNOWN?$AA@ 100871d0     libvcruntime:undname.obj
 0002:000101dc       ??_C@_07EDHNAJHC@signed?5?$AA@ 100871dc     libvcruntime:undname.obj
 0002:000101e8       ??_C@_05BNCCCJPP@const?$AA@ 100871e8     libvcruntime:undname.obj
 0002:000101f0       ??_C@_09EFNPDFFP@?5volatile?$AA@ 100871f0     libvcruntime:undname.obj
 0002:000101fc       ??_C@_0P@GCIFDJCJ@?$GAunknown?5ecsu?8?$AA@ 100871fc     libvcruntime:undname.obj
 0002:00010210       ??_C@_06MOJHIBMG@union?5?$AA@ 10087210     libvcruntime:undname.obj
 0002:00010218       ??_C@_07DIBCDNGL@struct?5?$AA@ 10087218     libvcruntime:undname.obj
 0002:00010224       ??_C@_06LJBABKPM@class?5?$AA@ 10087224     libvcruntime:undname.obj
 0002:0001022c       ??_C@_08KOFANOFK@coclass?5?$AA@ 1008722c     libvcruntime:undname.obj
 0002:00010238       ??_C@_0N@DLIEFKNA@cointerface?5?$AA@ 10087238     libvcruntime:undname.obj
 0002:00010248       ??_C@_05LJGMCFOG@enum?5?$AA@ 10087248     libvcruntime:undname.obj
 0002:00010250       ??_C@_09GAIEOBLP@volatile?5?$AA@ 10087250     libvcruntime:undname.obj
 0002:0001025c       ??_C@_06LIJLOJAG@const?5?$AA@ 1008725c     libvcruntime:undname.obj
 0002:00010264       ??_C@_02KJPKDIBN@?$CG?5?$AA@ 10087264     libvcruntime:undname.obj
 0002:00010268       ??_C@_03PCKGMOPB@?$CG?$CG?5?$AA@ 10087268     libvcruntime:undname.obj
 0002:0001026c       ??_C@_0M@EALIELKG@cli?3?3array?$DM?$AA@ 1008726c     libvcruntime:undname.obj
 0002:0001027c       ??_C@_0O@GKABPPIF@cli?3?3pin_ptr?$DM?$AA@ 1008727c     libvcruntime:undname.obj
 0002:0001028c       ??_C@_02GOGNNPBN@?$CJ?$FL?$AA@ 1008728c     libvcruntime:undname.obj
 0002:00010290       ??_C@_06EEGAIFAK@?$HLflat?$HN?$AA@ 10087290     libvcruntime:undname.obj
 0002:00010298       ??_C@_05JIBOFOHK@?$HLfor?5?$AA@ 10087298     libvcruntime:undname.obj
 0002:000102a0       ??_C@_02MDINNEEG@s?5?$AA@  100872a0     libvcruntime:undname.obj
 0002:000102a8       ??_7DNameNode@@6B@         100872a8     libvcruntime:undname.obj
 0002:000102bc       ??_7charNode@@6B@          100872bc     libvcruntime:undname.obj
 0002:000102d0       ??_7pcharNode@@6B@         100872d0     libvcruntime:undname.obj
 0002:000102e4       ??_7pDNameNode@@6B@        100872e4     libvcruntime:undname.obj
 0002:000102f8       ??_7DNameStatusNode@@6B@   100872f8     libvcruntime:undname.obj
 0002:0001030c       ??_7pairNode@@6B@          1008730c     libvcruntime:undname.obj
 0002:0001031c       ??_C@_04OKOHEJBO@?5?$DP?$DP?5?$AA@ 1008731c     libvcruntime:undname.obj
 0002:00010328       _standard_lookup_table     10087328     libucrt:output.obj
