 aaa_xpc

 Timestamp is 60a76b6d (Fri May 21 16:12:29 2021)

 Preferred load address is 10000000

 Start         Length     Name                   Class
 0001:00000000 0000df20H .text                   CODE
 0001:0000df20 00070cf3H .text$mn                CODE
 0002:00000000 00000104H .CRT$XCA                DATA
 0002:00000104 00000104H .CRT$XCZ                DATA
 0002:00000208 00000104H .CRT$XIA                DATA
 0002:0000030c 00000110H .CRT$XIC                DATA
 0002:0000041c 00000104H .CRT$XIZ                DATA
 0002:00000520 00000104H .CRT$XPA                DATA
 0002:00000624 0000010cH .CRT$XPX                DATA
 0002:00000730 00000104H .CRT$XPXA               DATA
 0002:00000834 00000104H .CRT$XPZ                DATA
 0002:00000938 00000104H .CRT$XTA                DATA
 0002:00000a3c 00000104H .CRT$XTZ                DATA
 0002:00000b40 00027128H .rdata                  DATA
 0002:00027c68 00000398H .rdata$r                DATA
 0002:00028000 00000110H .rdata$sxdata           DATA
 0002:00028110 00000184H .rdata$zzzdbg           DATA
 0002:00028294 00000104H .rtc$IAA                DATA
 0002:00028398 00000104H .rtc$IZZ                DATA
 0002:0002849c 00000104H .rtc$TAA                DATA
 0002:000285a0 00000108H .rtc$TZZ                DATA
 0002:000286a8 00000ac8H .xdata$x                DATA
 0002:00029170 000001daH .edata                  DATA
 0003:00000000 00011c28H .data                   DATA
 0003:00011c28 000001d8H .data$r                 DATA
 0003:00011e00 0001c114H .bss                    DATA
 0004:00000000 000001f4H .idata$5                DATA
 0004:000001f4 00000014H .idata$2                DATA
 0004:00000208 00000014H .idata$3                DATA
 0004:0000021c 000001f4H .idata$4                DATA
 0004:00000410 000008b1H .idata$6                DATA
 0005:00000000 00000224H .gfids$x                DATA
 0005:00000224 000001a5H .gfids$y                DATA
 0006:00000000 00000104H .00cfg                  DATA

  Address         Publics by Value              Rva+Base       Lib:Object

 0000:00000000       ___guard_iat_table         00000000     <absolute>
 0000:00000000       ___guard_longjmp_count     00000000     <absolute>
 0000:00000000       ___dynamic_value_reloc_table 00000000     <absolute>
 0000:00000000       ___guard_fids_table        00000000     <absolute>
 0000:00000000       ___guard_iat_count         00000000     <absolute>
 0000:00000000       ___guard_fids_count        00000000     <absolute>
 0000:00000000       __except_list              00000000     <absolute>
 0000:00000000       ___guard_longjmp_table     00000000     <absolute>
 0000:00000003       ___safe_se_handler_count   00000003     <absolute>
 0000:00000100       ___guard_flags             00000100     <absolute>
 0000:00000000       ___ImageBase               10000000     <linker-defined>
 0001:00006400       _CANPC_define_cyclic2_mbx  10007400 f   xpccanac2pci_vc:card_can_mbx.obj
 0001:000064b0       _CANPC_define_cyclic_mbx   100074b0 f   xpccanac2pci_vc:card_can_mbx.obj
 0001:00006560       _CANPC_define_object2_mbx  10007560 f   xpccanac2pci_vc:card_can_mbx.obj
 0001:000066f0       _CANPC_define_object_mbx   100076f0 f   xpccanac2pci_vc:card_can_mbx.obj
 0001:00006880       _CANPC_enable_dde_check_mbx 10007880 f   xpccanac2pci_vc:card_can_mbx.obj
 0001:000069e0       _CANPC_enable_dyn_obj_buf_mbx 100079e0 f   xpccanac2pci_vc:card_can_mbx.obj
 0001:00006ae0       _CANPC_enable_error_frame_detection_mbx 10007ae0 f   xpccanac2pci_vc:card_can_mbx.obj
 0001:00006ba0       _CANPC_enable_fifo_mbx     10007ba0 f   xpccanac2pci_vc:card_can_mbx.obj
 0001:00006c90       _CANPC_enable_fifo_transmit_ack2_mbx 10007c90 f   xpccanac2pci_vc:card_can_mbx.obj
 0001:00006d00       _CANPC_enable_fifo_transmit_ack_mbx 10007d00 f   xpccanac2pci_vc:card_can_mbx.obj
 0001:00006d70       _CANPC_enable_ivm_check_mbx 10007d70 f   xpccanac2pci_vc:card_can_mbx.obj
 0001:00006ed0       _CANPC_enable_j1939_check_mbx 10007ed0 f   xpccanac2pci_vc:card_can_mbx.obj
 0001:00007030       _CANPC_enable_timestamps_mb 10008030 f   xpccanac2pci_vc:card_can_mbx.obj
 0001:00007040       _CANPC_get_bus_state_mbx   10008040 f   xpccanac2pci_vc:card_can_mbx.obj
 0001:00007070       _CANPC_get_device_id_mbx   10008070 f   xpccanac2pci_vc:card_can_mbx.obj
 0001:000070a0       _CANPC_get_serial_number_mbx 100080a0 f   xpccanac2pci_vc:card_can_mbx.obj
 0001:00007140       _CANPC_get_time1_mbx       10008140 f   xpccanac2pci_vc:card_can_mbx.obj
 0001:00007440       _CANPC_get_time2_mbx       10008440 f   xpccanac2pci_vc:card_can_mbx.obj
 0001:00007740       _CANPC_get_trigger2_mb     10008740 f   xpccanac2pci_vc:card_can_mbx.obj
 0001:00007750       _CANPC_get_trigger_mb      10008750 f   xpccanac2pci_vc:card_can_mbx.obj
 0001:00007760       _CANPC_get_version_mbx     10008760 f   xpccanac2pci_vc:card_can_mbx.obj
 0001:00007840       _CANPC_init_signals_mbx    10008840 f   xpccanac2pci_vc:card_can_mbx.obj
 0001:00007a90       _CANPC_initialize_chip2_mbx 10008a90 f   xpccanac2pci_vc:card_can_mbx.obj
 0001:00007be0       _CANPC_initialize_chip_mbx 10008be0 f   xpccanac2pci_vc:card_can_mbx.obj
 0001:00007d30       _CANPC_initialize_interface_mbx 10008d30 f   xpccanac2pci_vc:card_can_mbx.obj
 0001:00007fb0       _CANPC_optimize_rcv_speed_mb 10008fb0 f   xpccanac2pci_vc:card_can_mbx.obj
 0001:00007fc0       _CANPC_read_ac1_mbx        10008fc0 f   xpccanac2pci_vc:card_can_mbx.obj
 0001:00008e80       _CANPC_read_ac2_mbx        10009e80 f   xpccanac2pci_vc:card_can_mbx.obj
 0001:00009d50       _CANPC_read_rcv_data2_mbx  1000ad50 f   xpccanac2pci_vc:card_can_mbx.obj
 0001:00009f00       _CANPC_read_rcv_data_mbx   1000af00 f   xpccanac2pci_vc:card_can_mbx.obj
 0001:0000a0b0       _CANPC_read_rcv_fifo_level1_mbx 1000b0b0 f   xpccanac2pci_vc:card_can_mbx.obj
 0001:0000a130       _CANPC_read_rcv_fifo_level2_mbx 1000b130 f   xpccanac2pci_vc:card_can_mbx.obj
 0001:0000a1b0       _CANPC_read_signals1_mbx   1000b1b0 f   xpccanac2pci_vc:card_can_mbx.obj
 0001:0000a2b0       _CANPC_read_signals2_mbx   1000b2b0 f   xpccanac2pci_vc:card_can_mbx.obj
 0001:0000a3b0       _CANPC_read_xmt_data2_mbx  1000b3b0 f   xpccanac2pci_vc:card_can_mbx.obj
 0001:0000a470       _CANPC_read_xmt_data_mbx   1000b470 f   xpccanac2pci_vc:card_can_mbx.obj
 0001:0000a530       _CANPC_read_xmt_fifo_level1_mbx 1000b530 f   xpccanac2pci_vc:card_can_mbx.obj
 0001:0000a5b0       _CANPC_read_xmt_fifo_level2_mbx 1000b5b0 f   xpccanac2pci_vc:card_can_mbx.obj
 0001:0000a630       _CANPC_reinitialize_mbx    1000b630 f   xpccanac2pci_vc:card_can_mbx.obj
 0001:0000a680       _CANPC_reset_board_mbx     1000b680 f   xpccanac2pci_vc:card_can_mbx.obj
 0001:0000a770       _CANPC_reset_chip_mbx      1000b770 f   xpccanac2pci_vc:card_can_mbx.obj
 0001:0000a8c0       _CANPC_reset_lost_msg_counter_mbx 1000b8c0 f   xpccanac2pci_vc:card_can_mbx.obj
 0001:0000a900       _CANPC_reset_rcv_fifo_mbx  1000b900 f   xpccanac2pci_vc:card_can_mbx.obj
 0001:0000a9c0       _CANPC_reset_xmt_fifo_mbx  1000b9c0 f   xpccanac2pci_vc:card_can_mbx.obj
 0001:0000aa90       _CANPC_send_data2_mbx      1000ba90 f   xpccanac2pci_vc:card_can_mbx.obj
 0001:0000ab50       _CANPC_send_data_mbx       1000bb50 f   xpccanac2pci_vc:card_can_mbx.obj
 0001:0000ac10       _CANPC_send_object2_mbx    1000bc10 f   xpccanac2pci_vc:card_can_mbx.obj
 0001:0000aca0       _CANPC_send_object_mbx     1000bca0 f   xpccanac2pci_vc:card_can_mbx.obj
 0001:0000ad30       _CANPC_send_remote2_mbx    1000bd30 f   xpccanac2pci_vc:card_can_mbx.obj
 0001:0000add0       _CANPC_send_remote_mbx     1000bdd0 f   xpccanac2pci_vc:card_can_mbx.obj
 0001:0000ae70       _CANPC_send_remote_object2_mbx 1000be70 f   xpccanac2pci_vc:card_can_mbx.obj
 0001:0000af00       _CANPC_send_remote_object_mbx 1000bf00 f   xpccanac2pci_vc:card_can_mbx.obj
 0001:0000af90       _CANPC_set_acceptance2_mbx 1000bf90 f   xpccanac2pci_vc:card_can_mbx.obj
 0001:0000b070       _CANPC_set_acceptance_mbx  1000c070 f   xpccanac2pci_vc:card_can_mbx.obj
 0001:0000b150       _CANPC_set_irq_number_mbx  1000c150 f   xpccanac2pci_vc:card_can_mbx.obj
 0001:0000b230       _CANPC_set_mode2_mbx       1000c230 f   xpccanac2pci_vc:card_can_mbx.obj
 0001:0000b2c0       _CANPC_set_mode_mbx        1000c2c0 f   xpccanac2pci_vc:card_can_mbx.obj
 0001:0000b350       _CANPC_set_output_control2_mbx 1000c350 f   xpccanac2pci_vc:card_can_mbx.obj
 0001:0000b450       _CANPC_set_output_control_mbx 1000c450 f   xpccanac2pci_vc:card_can_mbx.obj
 0001:0000b570       _CANPC_set_path_mb         1000c570 f   xpccanac2pci_vc:card_can_mbx.obj
 0001:0000b5f0       _CANPC_set_trigger2_mbx    1000c5f0 f   xpccanac2pci_vc:card_can_mbx.obj
 0001:0000b670       _CANPC_set_trigger_mbx     1000c670 f   xpccanac2pci_vc:card_can_mbx.obj
 0001:0000b6f0       _CANPC_start_chip_mbx      1000c6f0 f   xpccanac2pci_vc:card_can_mbx.obj
 0001:0000b7e0       _CANPC_supply_object_data2_mbx 1000c7e0 f   xpccanac2pci_vc:card_can_mbx.obj
 0001:0000b8a0       _CANPC_supply_object_data_mbx 1000c8a0 f   xpccanac2pci_vc:card_can_mbx.obj
 0001:0000b960       _CANPC_supply_rcv_object_data2_mbx 1000c960 f   xpccanac2pci_vc:card_can_mbx.obj
 0001:0000ba20       _CANPC_supply_rcv_object_data_mbx 1000ca20 f   xpccanac2pci_vc:card_can_mbx.obj
 0001:0000bae0       _CANPC_synch_communication_mbx 1000cae0 f   xpccanac2pci_vc:card_can_mbx.obj
 0001:0000bc00       _CANPC_write_object2_mbx   1000cc00 f   xpccanac2pci_vc:card_can_mbx.obj
 0001:0000bcc0       _CANPC_write_object_mbx    1000ccc0 f   xpccanac2pci_vc:card_can_mbx.obj
 0001:0000bd80       _CANPC_write_signals1_mbx  1000cd80 f   xpccanac2pci_vc:card_can_mbx.obj
 0001:0000bed0       _CANPC_write_signals2_mbx  1000ced0 f   xpccanac2pci_vc:card_can_mbx.obj
 0001:0000c020       _LoaderPrintMsgCallBack_mb 1000d020 f   xpccanac2pci_vc:card_can_mbx.obj
 0001:0000c030       _wait_for_handshake_mbx    1000d030 f   xpccanac2pci_vc:card_can_mbx.obj
 0001:0000c0d0       _INIPC_close_board_mbx     1000d0d0 f   xpccanac2pci_vc:card_ini_mbx.obj
 0001:0000c100       _INIPC_initialize_board_mbx 1000d100 f   xpccanac2pci_vc:card_ini_mbx.obj
 0001:0000c250       _CS_EnableInterrupt_mbx    1000d250 f   xpccanac2pci_vc:devacc32_mbx.obj
 0001:0000c2c0       _CS_InitCnfReg_mbx         1000d2c0 f   xpccanac2pci_vc:devacc32_mbx.obj
 0001:0000c330       _CS_SetCanCardReset_mbx    1000d330 f   xpccanac2pci_vc:devacc32_mbx.obj
 0001:0000c3a0       _CloseCANDevice_mbx        1000d3a0 f   xpccanac2pci_vc:devacc32_mbx.obj
 0001:0000c3f0       _GetAssignedIRQ_Nr_mbx     1000d3f0 f   xpccanac2pci_vc:devacc32_mbx.obj
 0001:0000c440       _GetDeviceId_mbx           1000d440 f   xpccanac2pci_vc:devacc32_mbx.obj
 0001:0000c480       _GetDeviceLoadDataPointer_mbx 1000d480 f   xpccanac2pci_vc:devacc32_mbx.obj
 0001:0000c4d0       _GetSBNBufAppDataFileName_mbx 1000d4d0 f   xpccanac2pci_vc:devacc32_mbx.obj
 0001:0000c520       _GetSBNBufAppDataPointer_mbx 1000d520 f   xpccanac2pci_vc:devacc32_mbx.obj
 0001:0000c570       _GetSBNBufBootDataFileName_mbx 1000d570 f   xpccanac2pci_vc:devacc32_mbx.obj
 0001:0000c5c0       _GetSBNBufBootDataPointer_mbx 1000d5c0 f   xpccanac2pci_vc:devacc32_mbx.obj
 0001:0000c610       _GetSBNBufIniFileName_mbx  1000d610 f   xpccanac2pci_vc:devacc32_mbx.obj
 0001:0000c660       _GetSBNBufLoadDataFileName_mbx 1000d660 f   xpccanac2pci_vc:devacc32_mbx.obj
 0001:0000c6b0       _GetSBNBufLoadDataPointer_mbx 1000d6b0 f   xpccanac2pci_vc:devacc32_mbx.obj
 0001:0000c700       _GetTimeStampType_mbx      1000d700 f   xpccanac2pci_vc:devacc32_mbx.obj
 0001:0000c750       _Init_devacc32             1000d750 f   xpccanac2pci_vc:devacc32_mbx.obj
 0001:0000c8f0       _OpenCANDevice_mbx         1000d8f0 f   xpccanac2pci_vc:devacc32_mbx.obj
 0001:0000ca30       _PnPFreePhysAccess_mbx     1000da30 f   xpccanac2pci_vc:devacc32_mbx.obj
 0001:0000ca80       _PnPGetPhysAccess_mbx      1000da80 f   xpccanac2pci_vc:devacc32_mbx.obj
 0001:0000cb10       _ReturnErrorCode_mb        1000db10 f   xpccanac2pci_vc:devacc32_mbx.obj
 0001:0000cd50       _pciEnableInterrupt_mbx    1000dd50 f   xpccanac2pci_vc:devacc32_mbx.obj
 0001:0000ce00       _pcireset_mbx              1000de00 f   xpccanac2pci_vc:devacc32_mbx.obj
 0001:0000cea0       _GetAttributeMemoryPtr_mbx 1000dea0 f   xpccanac2pci_vc:loadcard_mbx.obj
 0001:0000cec0       _GetDPRAMPtr_mbx           1000dec0 f   xpccanac2pci_vc:loadcard_mbx.obj
 0001:0000cee0       _GetINIData_mbx            1000dee0 f   xpccanac2pci_vc:loadcard_mbx.obj
 0001:0000cf70       _GetINI_IRQ_Nr_mbx         1000df70 f   xpccanac2pci_vc:loadcard_mbx.obj
 0001:0000cf90       _GetINI_Socket_Nr_mbx      1000df90 f   xpccanac2pci_vc:loadcard_mbx.obj
 0001:0000d400       _LCInitialization_mbx      1000e400 f   xpccanac2pci_vc:loadcard_mbx.obj
 0001:0000da10       _LCSBNFileToDPRAM_mbx      1000ea10 f   xpccanac2pci_vc:loadcard_mbx.obj
 0001:0000dc30       _LoadCard_mbx              1000ec30 f   xpccanac2pci_vc:loadcard_mbx.obj
 0001:0000dce0       _ReadInitialization_mbx    1000ece0 f   xpccanac2pci_vc:loadcard_mbx.obj
 0001:0000dcf0       _SetINIData_mbx            1000ecf0 f   xpccanac2pci_vc:loadcard_mbx.obj
 0001:0000dd40       _SetINI_IRQ_Nr_mbx         1000ed40 f   xpccanac2pci_vc:loadcard_mbx.obj
 0001:0000dd60       _fmemcmp_byte_mb           1000ed60 f   xpccanac2pci_vc:loadcard_mbx.obj
 0001:0000ddc0       _fmemcpy_byte_mb           1000edc0 f   xpccanac2pci_vc:loadcard_mbx.obj
 0001:0000ddf0       _noprintf_mb               1000edf0 f   xpccanac2pci_vc:loadcard_mbx.obj
 0001:0000de00       _ReadSBINRecordFromBuffer_mb 1000ee00 f   xpccanac2pci_vc:sbn_buf_mbx.obj
 0001:0000df20       _MdlInitialize             1000ef20 f   aaa.obj
 0001:0000df30       _MdlInitializeSampleTimes  1000ef30 f   aaa.obj
 0001:0000df40       _MdlInitializeSizes        1000ef40 f   aaa.obj
 0001:0000df50       _MdlOutputs                1000ef50 f   aaa.obj
 0001:0000df60       _MdlStart                  1000ef60 f   aaa.obj
 0001:0000df70       _MdlTerminate              1000ef70 f   aaa.obj
 0001:0000dfd0       _MdlUpdate                 1000efd0 f   aaa.obj
 0001:0000dfe0       ___local_stdio_printf_options 1000efe0 f i aaa.obj
 0001:0000dff0       __vfprintf_l               1000eff0 f i aaa.obj
 0001:0000e020       _aaa                       1000f020 f   aaa.obj
 0001:0000fa10       _aaa_Chart1                10010a10 f   aaa.obj
 0001:0000fb00       _aaa_Chart1_Init           10010b00 f   aaa.obj
 0001:00011840       _aaa_Subsystem3            10012840 f   aaa.obj
 0001:00011890       _aaa_Subsystem3_Init       10012890 f   aaa.obj
 0001:0001f4c0       _look1_binlxpw             100204c0 f   aaa.obj
 0001:0001f5a0       _printf                    100205a0 f i aaa.obj
 0001:0001f5e0       _rt_powd_snf               100205e0 f   aaa.obj
 0001:0001f860       _aaa_GetCAPIStaticMap      10020860 f   aaa_capi.obj
 0001:0001f870       _aaa_InitializeDataMapInfo 10020870 f   aaa_capi.obj
 0001:0001f900       _rtGetInf                  10020900 f   rtGetInf.obj
 0001:0001f930       _rtGetInfF                 10020930 f   rtGetInf.obj
 0001:0001f950       _rtGetMinusInf             10020950 f   rtGetInf.obj
 0001:0001f980       _rtGetMinusInfF            10020980 f   rtGetInf.obj
 0001:0001f9a0       _rtGetNaN                  100209a0 f   rtGetNaN.obj
 0001:0001f9d0       _rtGetNaNF                 100209d0 f   rtGetNaN.obj
 0001:0001f9f0       __vsnprintf_l              100209f0 f i rt_logging.obj
 0001:0001fa30       __vsprintf_l               10020a30 f i rt_logging.obj
 0001:0001fa70       _fprintf                   10020a70 f i rt_logging.obj
 0001:00020380       _rt_CreateLogVar           10021380 f   rt_logging.obj
 0001:00020410       _rt_CreateLogVarWithConvert 10021410 f   rt_logging.obj
 0001:00020d90       _rt_CreateStructLogVar     10021d90 f   rt_logging.obj
 0001:00021af0       _rt_GetMxIdFromDTypeId     10022af0 f   rt_logging.obj
 0001:00021b20       _rt_GetMxIdFromDTypeIdForRSim 10022b20 f   rt_logging.obj
 0001:000243f0       _rt_StartDataLogging       100253f0 f   rt_logging.obj
 0001:000248b0       _rt_StartDataLoggingWithStartTime 100258b0 f   rt_logging.obj
 0001:00025210       _rt_StopDataLogging        10026210 f   rt_logging.obj
 0001:00025230       _rt_StopDataLoggingImpl    10026230 f   rt_logging.obj
 0001:00025560       _rt_UpdateLogVar           10026560 f   rt_logging.obj
 0001:00026680       _rt_UpdateStructLogVar     10027680 f   rt_logging.obj
 0001:00026710       _rt_UpdateTXXFYLogVars     10027710 f   rt_logging.obj
 0001:00026a40       _rt_UpdateTXYLogVars       10027a40 f   rt_logging.obj
 0001:00026c90       _sprintf                   10027c90 f i rt_logging.obj
 0001:00026cd0       _rt_CleanUpForStateLogWithMMI 10027cd0 f   rt_logging_mmi.obj
 0001:00026de0       _rt_FillStateSigInfoFromMMI 10027de0 f   rt_logging_mmi.obj
 0001:00027180       _rt_mxCreateCharMatrixFromStrings 10028180 f   rt_matrx.obj
 0001:000272e0       _rt_mxCreateDoubleMatrix   100282e0 f   rt_matrx.obj
 0001:00027340       _rt_mxCreateNumericArray   10028340 f   rt_matrx.obj
 0001:000273c0       _rt_mxCreateString         100283c0 f   rt_matrx.obj
 0001:00027450       _rt_mxDuplicateArray       10028450 f   rt_matrx.obj
 0001:000274b0       _rt_mxGetDimensions        100284b0 f   rt_matrx.obj
 0001:000274f0       _rt_mxGetEps               100284f0 f   rt_matrx.obj
 0001:00027500       _rt_mxGetString            10028500 f   rt_matrx.obj
 0001:00027580       _rtIsInf                   10028580 f   rt_nonfinite.obj
 0001:000275c0       _rtIsInfF                  100285c0 f   rt_nonfinite.obj
 0001:00027600       _rtIsNaN                   10028600 f   rt_nonfinite.obj
 0001:00027620       _rtIsNaNF                  10028620 f   rt_nonfinite.obj
 0001:00027640       _rt_InitInfAndNaN          10028640 f   rt_nonfinite.obj
 0001:000276a0       _rtPrintfNoOp              100286a0 f   rt_printf.obj
 0001:000276b0       _rtwCAPI_CountSysRan       100286b0 f   rtw_modelmap_utils.obj
 0001:00027750       _rtwCAPI_EncodePath        10028750 f   rtw_modelmap_utils.obj
 0001:00027850       _rtwCAPI_FillSysRan        10028850 f   rtw_modelmap_utils.obj
 0001:00027940       _rtwCAPI_FreeFullPaths     10028940 f   rtw_modelmap_utils.obj
 0001:000279d0       _rtwCAPI_GetFullStateBlockPath 100289d0 f   rtw_modelmap_utils.obj
 0001:00027b80       _rtwCAPI_GetNumContStateRecords 10028b80 f   rtw_modelmap_utils.obj
 0001:00027c40       _rtwCAPI_GetNumSigLogRecords 10028c40 f   rtw_modelmap_utils.obj
 0001:00027c90       _rtwCAPI_GetNumSigLogRecordsForRTWLogging 10028c90 f   rtw_modelmap_utils.obj
 0001:00027d30       _rtwCAPI_GetNumStateRecords 10028d30 f   rtw_modelmap_utils.obj
 0001:00027d80       _rtwCAPI_GetNumStateRecordsForRTWLogging 10028d80 f   rtw_modelmap_utils.obj
 0001:00027e20       _rtwCAPI_GetSigAddrFromMap 10028e20 f   rtw_modelmap_utils.obj
 0001:00027ee0       _rtwCAPI_GetSigLogRecordInfo 10028ee0 f   rtw_modelmap_utils.obj
 0001:00028310       _rtwCAPI_GetStateRecordInfo 10029310 f   rtw_modelmap_utils.obj
 0001:000287c0       _rtwCAPI_GetStateWidth     100297c0 f   rtw_modelmap_utils.obj
 0001:00028820       _rtwCAPI_HasStates         10029820 f   rtw_modelmap_utils.obj
 0001:00028890       _rtwCAPI_UpdateFullPaths   10029890 f   rtw_modelmap_utils.obj
 0001:00028a70       _DllMain@12                10029a70 f   xpctarget.obj
 0001:00028a80       _SLRTSetErrorStatus        10029a80 f   xpctarget.obj
 0001:00028aa0       _aaa_ChangeStepSize        10029aa0 f   xpctarget.obj
 0001:00028b10       _changeStepSize            10029b10 f   xpctarget.obj
 0001:00028b80       _getDLMVersion             10029b80 f   xpctarget.obj
 0001:00028b90       _getRefMdlPath             10029b90 f   xpctarget.obj
 0001:00028c10       _getRefMdlSignalNumber     10029c10 f   xpctarget.obj
 0001:00028cc0       _getrlmdlinfo              10029cc0 f   xpctarget.obj
 0001:00028ea0       _updateDiscreteEvents      10029ea0 f   xpctarget.obj
 0001:00028eb0       _getNumRef                 10029eb0 f   appmappingData.obj
 0001:00028ec0       _vprintf                   10029ec0 f i legacy_stdio.obj
 0001:00028f00       _adpci_1784                10029f00 f   adpci_1784.obj
 0001:00029fc0       _canac2pcisetupx           1002afc0 f   canac2pcisetupx.obj
 0001:0002ac60       _da6208                    1002bc60 f   da6208.obj
 0001:0002be10       _pci1716DIO                1002ce10 f   pci1716DIO.obj
 0001:0002be70       _restoreInterrupts         1002ce70 f   xpcruntime:xpcPCFunctions.obj
 0001:0002be80       _rl32eGetTicksDouble       1002ce80 f   xpcruntime:xpcPCFunctions.obj
 0001:0002bf00       _saveAndDisableInterrupts  1002cf00 f   xpcruntime:xpcPCFunctions.obj
 0001:0002bf20       _xPCSubtractTime           1002cf20 f   xpcruntime:xpcPCFunctions.obj
 0001:0002bf50       _xpcSubtractTime           1002cf50 f   xpcruntime:xpcPCFunctions.obj
 0001:0002c030       _GetPCIDeviceFull          1002d030 f   xpcruntime:xpcimports.obj
 0001:0002c070       _ShowPCIDevice             1002d070 f   xpcruntime:xpcimports.obj
 0001:0002c830       _xpcGetPciConfigAtSlot     1002d830 f   xpcruntime:xpcimports.obj
 0001:0002cb40       _xpcInitProcs              1002db40 f   xpcruntime:xpcimports.obj
 0001:0002dc50       _xpceuploadevent           1002ec50 f   xpcruntime:xpcimports.obj
 0001:0002dc51       @__security_check_cookie@4 1002ec51 f   LIBCMT:_secchk_.obj
 0001:0002dc66       ___raise_securityfailure   1002ec66 f   LIBCMT:gs_report.obj
 0001:0002dc98       ___report_gsfailure        1002ec98 f   LIBCMT:gs_report.obj
 0001:0002ddd1       ___report_rangecheckfailure 1002edd1 f   LIBCMT:gs_report.obj
 0001:0002dde0       ___report_securityfailure  1002ede0 f   LIBCMT:gs_report.obj
 0001:0002dee4       ___report_securityfailureEx 1002eee4 f   LIBCMT:gs_report.obj
 0001:0002e040       __ftoui3                   1002f040 f   LIBCMT:_ftol3_.obj
 0001:0002e04f       __ftoul3                   1002f04f f   LIBCMT:_ftol3_.obj
 0001:0002e05e       __ftol3                    1002f05e f   LIBCMT:_ftol3_.obj
 0001:0002e06b       __ftol3_NaN                1002f06b f   LIBCMT:_ftol3_.obj
 0001:0002e083       __ftol3_work               1002f083 f   LIBCMT:_ftol3_.obj
 0001:0002e109       __ftol3_common             1002f109 f   LIBCMT:_ftol3_.obj
 0001:0002e1cb       __ftol3_arg_error          1002f1cb f   LIBCMT:_ftol3_.obj
 0001:0002e1dd       __ftol3_except             1002f1dd f   LIBCMT:_ftol3_.obj
 0001:0002e221       __dtoui3                   1002f221 f   LIBCMT:_ftol3_.obj
 0001:0002e230       __dtoul3                   1002f230 f   LIBCMT:_ftol3_.obj
 0001:0002e23f       __dtol3                    1002f23f f   LIBCMT:_ftol3_.obj
 0001:0002e24c       __dtol3_NaN                1002f24c f   LIBCMT:_ftol3_.obj
 0001:0002e269       __dtol3_work               1002f269 f   LIBCMT:_ftol3_.obj
 0001:0002e350       __ultod3                   1002f350 f   LIBCMT:_ftol3_.obj
 0001:0002e390       __ltod3                    1002f390 f   LIBCMT:_ftol3_.obj
 0001:0002e494       ___isa_available_init      1002f494 f   LIBCMT:_cpu_disp_.obj
 0001:0002ea5c       __CRT_INIT@12              1002fa5c f   LIBCMT:dll_dllmain.obj
 0001:0002ea67       __DllMainCRTStartup@12     1002fa67 f   LIBCMT:dll_dllmain.obj
 0001:0002ea92       ??$__crt_fast_decode_pointer@PAP6AXXZ@@YAPAP6AXXZQAP6AXXZ@Z 1002fa92 f i LIBCMT:utility.obj
 0001:0002eaab       ??$__crt_fast_encode_pointer@PAP6AXXZ@@YAPAP6AXXZQAP6AXXZ@Z 1002faab f i LIBCMT:utility.obj
 0001:0002eacf       ?__crt_rotate_pointer_value@@YAIIH@Z 1002facf f i LIBCMT:utility.obj
 0001:0002eadf       ?configure_argv@__scrt_narrow_argv_policy@@SAHXZ 1002fadf f i LIBCMT:utility.obj
 0001:0002eb83       _NtCurrentTeb              1002fb83 f i LIBCMT:utility.obj
 0001:0002eb8a       ___scrt_acquire_startup_lock 1002fb8a f   LIBCMT:utility.obj
 0001:0002ebcc       ___scrt_dllmain_after_initialize_c 1002fbcc f   LIBCMT:utility.obj
 0001:0002ec01       ___scrt_dllmain_before_initialize_c 1002fc01 f   LIBCMT:utility.obj
 0001:0002ec12       ___scrt_dllmain_crt_thread_attach 1002fc12 f   LIBCMT:utility.obj
 0001:0002ec38       ___scrt_dllmain_crt_thread_detach 1002fc38 f   LIBCMT:utility.obj
 0001:0002ec48       ___scrt_dllmain_exception_filter 1002fc48 f   LIBCMT:utility.obj
 0001:0002ec87       ___scrt_dllmain_uninitialize_c 1002fc87 f   LIBCMT:utility.obj
 0001:0002ecb2       ___scrt_dllmain_uninitialize_critical 1002fcb2 f   LIBCMT:utility.obj
 0001:0002ecc2       ___scrt_initialize_crt     1002fcc2 f   LIBCMT:utility.obj
 0001:0002ed09       ___scrt_initialize_onexit_tables 1002fd09 f   LIBCMT:utility.obj
 0001:0002edc5       ___scrt_is_nonwritable_in_current_image 1002fdc5 f   LIBCMT:utility.obj
 0001:0002ee71       ___scrt_release_startup_lock 1002fe71 f   LIBCMT:utility.obj
 0001:0002ee95       ___scrt_uninitialize_crt   1002fe95 f   LIBCMT:utility.obj
 0001:0002eec7       __onexit                   1002fec7 f   LIBCMT:utility.obj
 0001:0002ef10       _at_quick_exit             1002ff10 f   LIBCMT:utility.obj
 0001:0002ef4d       _atexit                    1002ff4d f   LIBCMT:utility.obj
 0001:0002ef67       ___security_init_cookie    1002ff67 f   LIBCMT:gs_support.obj
 0001:0002f02a       ?__scrt_initialize_type_info@@YAXXZ 1003002a f   LIBCMT:tncleanup.obj
 0001:0002f039       ?__scrt_uninitialize_type_info@@YAXXZ 10030039 f   LIBCMT:tncleanup.obj
 0001:0002f048       ___local_stdio_scanf_options 10030048 f i LIBCMT:default_local_stdio_options.obj
 0001:0002f04e       ___scrt_initialize_default_local_stdio_options 1003004e f   LIBCMT:default_local_stdio_options.obj
 0001:0002f072       ___scrt_get_dyn_tls_init_callback 10030072 f   LIBCMT:dyn_tls_init.obj
 0001:0002f078       ___scrt_fastfail           10030078 f   LIBCMT:utility_desktop.obj
 0001:0002f1d9       ___scrt_get_show_window_mode 100301d9 f   LIBCMT:utility_desktop.obj
 0001:0002f218       ___scrt_initialize_winrt   10030218 f   LIBCMT:utility_desktop.obj
 0001:0002f21b       ___scrt_is_managed_app     1003021b f   LIBCMT:utility_desktop.obj
 0001:0002f270       ___scrt_set_unhandled_exception_filter 10030270 f   LIBCMT:utility_desktop.obj
 0001:0002f27f       ___scrt_unhandled_exception_filter@4 1003027f f   LIBCMT:utility_desktop.obj
 0001:0002f2d0       __crt_debugger_hook        100302d0 f   LIBCMT:utility_desktop.obj
 0001:0002f2da       __RTC_Initialize           100302da f   LIBCMT:_initsect_.obj
 0001:0002f30f       __RTC_Terminate            1003030f f   LIBCMT:_initsect_.obj
 0001:0002f344       @_guard_check_icall@4      10030344 f i LIBCMT:checkcfg.obj
 0001:0002f350       __SEH_prolog4              10030350 f   LIBCMT:_sehprolg4_.obj
 0001:0002f396       __SEH_epilog4              10030396 f   LIBCMT:_sehprolg4_.obj
 0001:0002f3c1       __get_startup_argv_mode    100303c1 f   LIBCMT:argv_mode.obj
 0001:0002f3c5       ___scrt_is_ucrt_dll_in_use 100303c5 f   LIBCMT:ucrt_detection.obj
 0001:0002f3d4       @_guard_check_icall_nop@4  100303d4 f i LIBCMT:guard_support.obj
 0001:0002f3d5       __guard_icall_checks_enforced 100303d5 f i LIBCMT:guard_support.obj
 0001:0002f3ec       _GetModuleHandleA@4        100303ec f   kernel32:KERNEL32.dll
 0001:0002f3f2       _GetProcAddress@8          100303f2 f   kernel32:KERNEL32.dll
 0001:0002f3f8       _CloseHandle@4             100303f8 f   kernel32:KERNEL32.dll
 0001:0002f3fe       _ReleaseSemaphore@12       100303fe f   kernel32:KERNEL32.dll
 0001:0002f404       _WaitForSingleObject@8     10030404 f   kernel32:KERNEL32.dll
 0001:0002f40a       _Sleep@4                   1003040a f   kernel32:KERNEL32.dll
 0001:0002f410       _CreateThread@24           10030410 f   kernel32:KERNEL32.dll
 0001:0002f416       _TerminateThread@8         10030416 f   kernel32:KERNEL32.dll
 0001:0002f41c       _GetSystemTimeAsFileTime@4 1003041c f   kernel32:KERNEL32.dll
 0001:0002f422       _CreateSemaphoreA@16       10030422 f   kernel32:KERNEL32.dll
 0001:0002f428       _lstrlenA@4                10030428 f   kernel32:KERNEL32.dll
 0001:0002f42e       _UnhandledExceptionFilter@4 1003042e f   kernel32:KERNEL32.dll
 0001:0002f434       _SetUnhandledExceptionFilter@4 10030434 f   kernel32:KERNEL32.dll
 0001:0002f43a       _GetCurrentProcess@0       1003043a f   kernel32:KERNEL32.dll
 0001:0002f440       _TerminateProcess@8        10030440 f   kernel32:KERNEL32.dll
 0001:0002f446       _IsProcessorFeaturePresent@4 10030446 f   kernel32:KERNEL32.dll
 0001:0002f44c       _QueryPerformanceCounter@4 1003044c f   kernel32:KERNEL32.dll
 0001:0002f452       _GetCurrentProcessId@0     10030452 f   kernel32:KERNEL32.dll
 0001:0002f458       _GetCurrentThreadId@0      10030458 f   kernel32:KERNEL32.dll
 0001:0002f45e       _InitializeSListHead@4     1003045e f   kernel32:KERNEL32.dll
 0001:0002f464       _IsDebuggerPresent@0       10030464 f   kernel32:KERNEL32.dll
 0001:0002f46a       _GetStartupInfoW@4         1003046a f   kernel32:KERNEL32.dll
 0001:0002f470       _GetModuleHandleW@4        10030470 f   kernel32:KERNEL32.dll
 0001:0002f480       _memset                    10030480 f   libvcruntime:memset.obj
 0001:0002f630       _memmove                   10030630 f   libvcruntime:memmove.obj
 0001:0002fd10       _strchr                    10030d10 f   libvcruntime:strchr.obj
 0001:0002fd7e       ___from_strstr_to_strchr   10030d7e     libvcruntime:strchr.obj
 0001:0002fe90       _memcpy                    10030e90 f   libvcruntime:memcpy.obj
 0001:000305b0       __except_handler4          100315b0 f   libvcruntime:_chandler4_.obj
 0001:0003076f       ___vcrt_initialize         1003176f f   libvcruntime:initialization.obj
 0001:000307a2       ___vcrt_thread_attach      100317a2 f   libvcruntime:initialization.obj
 0001:000307af       ___vcrt_thread_detach      100317af f   libvcruntime:initialization.obj
 0001:000307bc       ___vcrt_uninitialize       100317bc f   libvcruntime:initialization.obj
 0001:000307e2       ___vcrt_uninitialize_critical 100317e2 f   libvcruntime:initialization.obj
 0001:000307fd       ??$?RD@__crt_internal_free_policy@@QBEXQBD@Z 100317fd f i libvcruntime:std_type_info.obj
 0001:00030811       ??$?RX@__crt_internal_free_policy@@QBEXQBX@Z 10031811 f i libvcruntime:std_type_info.obj
 0001:00030825       ??$__crt_interlocked_compare_exchange_pointer@$$CBD$$T$$T@@YAPBDPDSBD$$T1@Z 10031825 f i libvcruntime:std_type_info.obj
 0001:0003083b       ??$__crt_interlocked_compare_exchange_pointer@$$CBDPAD$$T@@YAPBDPDSBDQAD$$T@Z 1003183b f i libvcruntime:std_type_info.obj
 0001:00030851       ??$__crt_interlocked_read_pointer@$$CBD@@YAPBDPDSBD@Z 10031851 f i libvcruntime:std_type_info.obj
 0001:00030865       ??0?$__crt_unique_heap_ptr@DU__crt_internal_free_policy@@@@QAE@QAD@Z 10031865 f i libvcruntime:std_type_info.obj
 0001:00030876       ??0?$__crt_unique_heap_ptr@XU__crt_internal_free_policy@@@@QAE@QAX@Z 10031876 f i libvcruntime:std_type_info.obj
 0001:00030887       ??1?$__crt_unique_heap_ptr@DU__crt_internal_free_policy@@@@QAE@XZ 10031887 f i libvcruntime:std_type_info.obj
 0001:0003089b       ??1?$__crt_unique_heap_ptr@XU__crt_internal_free_policy@@@@QAE@XZ 1003189b f i libvcruntime:std_type_info.obj
 0001:000308bb       ??B?$__crt_unique_heap_ptr@DU__crt_internal_free_policy@@@@QBE_NXZ 100318bb f i libvcruntime:std_type_info.obj
 0001:000308c2       ??B?$__crt_unique_heap_ptr@XU__crt_internal_free_policy@@@@QBE_NXZ 100318c2 f i libvcruntime:std_type_info.obj
 0001:000308f1       ?detach@?$__crt_unique_heap_ptr@XU__crt_internal_free_policy@@@@QAEPAXXZ 100318f1 f i libvcruntime:std_type_info.obj
 0001:000308f7       ?get@?$__crt_unique_heap_ptr@DU__crt_internal_free_policy@@@@QBEPADXZ 100318f7 f i libvcruntime:std_type_info.obj
 0001:000308fa       ?get@?$__crt_unique_heap_ptr@XU__crt_internal_free_policy@@@@QBEPAXXZ 100318fa f i libvcruntime:std_type_info.obj
 0001:000308fd       ?is_valid@?$__crt_unique_heap_ptr@DU__crt_internal_free_policy@@@@QBE_NXZ 100318fd f i libvcruntime:std_type_info.obj
 0001:00030904       ?is_valid@?$__crt_unique_heap_ptr@XU__crt_internal_free_policy@@@@QBE_NXZ 10031904 f i libvcruntime:std_type_info.obj
 0001:0003090b       ?release@?$__crt_unique_heap_ptr@DU__crt_internal_free_policy@@@@QAEXXZ 1003190b f i libvcruntime:std_type_info.obj
 0001:0003091f       ?release@?$__crt_unique_heap_ptr@XU__crt_internal_free_policy@@@@QAEXXZ 1003191f f i libvcruntime:std_type_info.obj
 0001:00030933       ___std_type_info_compare   10031933 f   libvcruntime:std_type_info.obj
 0001:0003097e       ___std_type_info_destroy_list 1003197e f   libvcruntime:std_type_info.obj
 0001:000309a9       ___std_type_info_hash      100319a9 f   libvcruntime:std_type_info.obj
 0001:000309d8       ___std_type_info_name      100319d8 f   libvcruntime:std_type_info.obj
 0001:00030ae0       __local_unwind4            10031ae0 f   libvcruntime:_exsup4_.obj
 0001:00030bb6       __seh_longjmp_unwind4@4    10031bb6 f   libvcruntime:_exsup4_.obj
 0001:00030bde       @_EH4_CallFilterFunc@8     10031bde f   libvcruntime:_exsup4_.obj
 0001:00030bf5       @_EH4_TransferToHandler@8  10031bf5 f   libvcruntime:_exsup4_.obj
 0001:00030c0e       @_EH4_GlobalUnwind2@8      10031c0e f   libvcruntime:_exsup4_.obj
 0001:00030c27       @_EH4_LocalUnwind@16       10031c27 f   libvcruntime:_exsup4_.obj
 0001:00030c95       ___except_validate_context_record 10031c95 f   libvcruntime:jbcxrval.obj
 0001:00030c96       ___except_validate_jump_buffer 10031c96 f   libvcruntime:jbcxrval.obj
 0001:00030c97       ??$?RU__vcrt_ptd@@@__crt_internal_free_policy@@QBEXQBU__vcrt_ptd@@@Z 10031c97 f i libvcruntime:per_thread_data.obj
 0001:00030cab       ??0?$__crt_unique_heap_ptr@U__vcrt_ptd@@U__crt_internal_free_policy@@@@QAE@QAU__vcrt_ptd@@@Z 10031cab f i libvcruntime:per_thread_data.obj
 0001:00030cce       ??1?$__crt_unique_heap_ptr@U__vcrt_ptd@@U__crt_internal_free_policy@@@@QAE@XZ 10031cce f i libvcruntime:per_thread_data.obj
 0001:00030ced       ??B?$__crt_unique_heap_ptr@U__vcrt_ptd@@U__crt_internal_free_policy@@@@QBE_NXZ 10031ced f i libvcruntime:per_thread_data.obj
 0001:00030cf4       ?detach@?$__crt_unique_heap_ptr@U__vcrt_ptd@@U__crt_internal_free_policy@@@@QAEPAU__vcrt_ptd@@XZ 10031cf4 f i libvcruntime:per_thread_data.obj
 0001:00030cfa       ?get@?$__crt_unique_heap_ptr@U__vcrt_ptd@@U__crt_internal_free_policy@@@@QBEPAU__vcrt_ptd@@XZ 10031cfa f i libvcruntime:per_thread_data.obj
 0001:00030cfd       ?is_valid@?$__crt_unique_heap_ptr@U__vcrt_ptd@@U__crt_internal_free_policy@@@@QBE_NXZ 10031cfd f i libvcruntime:per_thread_data.obj
 0001:00030d04       ?release@?$__crt_unique_heap_ptr@U__vcrt_ptd@@U__crt_internal_free_policy@@@@QAEXXZ 10031d04 f i libvcruntime:per_thread_data.obj
 0001:00030d38       ___vcrt_freefls@4          10031d38 f   libvcruntime:per_thread_data.obj
 0001:00030d5b       ___vcrt_freeptd            10031d5b f   libvcruntime:per_thread_data.obj
 0001:00030d9e       ___vcrt_getptd             10031d9e f   libvcruntime:per_thread_data.obj
 0001:00030daf       ___vcrt_getptd_noexit      10031daf f   libvcruntime:per_thread_data.obj
 0001:00030e65       ___vcrt_initialize_ptd     10031e65 f   libvcruntime:per_thread_data.obj
 0001:00030ea4       ___vcrt_uninitialize_ptd   10031ea4 f   libvcruntime:per_thread_data.obj
 0001:00030ec5       ___vcrt_initialize_locks   10031ec5 f   libvcruntime:locks.obj
 0001:00030f10       ___vcrt_lock               10031f10 f   libvcruntime:locks.obj
 0001:00030f2a       ___vcrt_uninitialize_locks 10031f2a f   libvcruntime:locks.obj
 0001:00030f64       ___vcrt_unlock             10031f64 f   libvcruntime:locks.obj
 0001:00030f7e       ??$?BX@__crt_fast_encoded_nullptr_t@@QBEPAXXZ 10031f7e f i libvcruntime:winapi_downlevel.obj
 0001:00030f9c       ??$__crt_fast_decode_pointer@PAX@@YAPAXQAX@Z 10031f9c f i libvcruntime:winapi_downlevel.obj
 0001:00030fb5       ??$__crt_fast_encode_pointer@PAX@@YAPAXQAX@Z 10031fb5 f i libvcruntime:winapi_downlevel.obj
 0001:00030fd9       ??$__crt_interlocked_compare_exchange_pointer@UHINSTANCE__@@$$T$$T@@YAPAUHINSTANCE__@@PDSAU0@$$T1@Z 10031fd9 f i libvcruntime:winapi_downlevel.obj
 0001:00030fef       ??$__crt_interlocked_compare_exchange_pointer@X$$T$$T@@YAPAXPDSAX$$T1@Z 10031fef f i libvcruntime:winapi_downlevel.obj
 0001:00031005       ??$__crt_interlocked_exchange_pointer@UHINSTANCE__@@PAU1@@@YAPAUHINSTANCE__@@PDSAU0@QAU0@@Z 10032005 f i libvcruntime:winapi_downlevel.obj
 0001:00031015       ??$__crt_interlocked_exchange_pointer@UHINSTANCE__@@PAX@@YAPAUHINSTANCE__@@PDSAU0@QAX@Z 10032015 f i libvcruntime:winapi_downlevel.obj
 0001:00031025       ??$__crt_interlocked_exchange_pointer@XPAX@@YAPAXPDSAXQAX@Z 10032025 f i libvcruntime:winapi_downlevel.obj
 0001:00031035       ??$__crt_interlocked_read_pointer@UHINSTANCE__@@@@YAPAUHINSTANCE__@@PDSAU0@@Z 10032035 f i libvcruntime:winapi_downlevel.obj
 0001:00031049       ??$__crt_interlocked_read_pointer@X@@YAPAXPDSAX@Z 10032049 f i libvcruntime:winapi_downlevel.obj
 0001:0003105d       ?__crt_fast_encode_pointer@@YA?AU__crt_fast_encoded_nullptr_t@@$$T@Z 1003205d f i libvcruntime:winapi_downlevel.obj
 0001:000313a1       ___vcrt_EventRegister      100323a1 f   libvcruntime:winapi_downlevel.obj
 0001:000313f1       ___vcrt_EventSetInformation 100323f1 f   libvcruntime:winapi_downlevel.obj
 0001:00031444       ___vcrt_EventUnregister    10032444 f   libvcruntime:winapi_downlevel.obj
 0001:0003148c       ___vcrt_EventWriteTransfer 1003248c f   libvcruntime:winapi_downlevel.obj
 0001:000314e7       ___vcrt_FlsAlloc           100324e7 f   libvcruntime:winapi_downlevel.obj
 0001:0003152f       ___vcrt_FlsFree            1003252f f   libvcruntime:winapi_downlevel.obj
 0001:00031577       ___vcrt_FlsGetValue        10032577 f   libvcruntime:winapi_downlevel.obj
 0001:000315bf       ___vcrt_FlsSetValue        100325bf f   libvcruntime:winapi_downlevel.obj
 0001:0003160b       ___vcrt_InitializeCriticalSectionEx 1003260b f   libvcruntime:winapi_downlevel.obj
 0001:00031662       ___vcrt_initialize_winapi_thunks 10032662 f   libvcruntime:winapi_downlevel.obj
 0001:000316aa       ___vcrt_uninitialize_winapi_thunks 100326aa f   libvcruntime:winapi_downlevel.obj
 0001:000316e8       ??$?B$$A6AXXZ@__crt_fast_encoded_nullptr_t@@QBEP6AXXZXZ 100326e8 f i libvcruntime:purevirt_data.obj
 0001:00031706       ??$__crt_fast_encode_pointer@P6AXXZ@@YAP6AXXZQ6AXXZ@Z 10032706 f i libvcruntime:purevirt_data.obj
 0001:0003172a       ___vcrt_initialize_pure_virtual_call_handler 1003272a f   libvcruntime:purevirt_data.obj
 0001:0003174e       ??$__vcrt_va_start_verify_argument_type@QBD@@YAXXZ 1003274e f i libvcruntime:undname.obj
 0001:0003174f       ??0Block@_HeapManager@@QAE@XZ 1003274f f i libvcruntime:undname.obj
 0001:00031755       ??0DName@@QAE@AAPBDD@Z     10032755 f   libvcruntime:undname.obj
 0001:0003183c       ??0DName@@QAE@ABV0@@Z      1003283c f i libvcruntime:undname.obj
 0001:00031857       ??0DName@@QAE@D@Z          10032857 f   libvcruntime:undname.obj
 0001:0003188e       ??0DName@@QAE@PAV0@@Z      1003288e f   libvcruntime:undname.obj
 0001:000318ee       ??0DName@@QAE@PBD@Z        100328ee f   libvcruntime:undname.obj
 0001:00031936       ??0DName@@QAE@W4DNameStatus@@@Z 10032936 f   libvcruntime:undname.obj
 0001:00031989       ??0DName@@QAE@XZ           10032989 f i libvcruntime:undname.obj
 0001:0003199e       ??0DName@@QAE@_J@Z         1003299e f   libvcruntime:undname.obj
 0001:00031a58       ??0DName@@QAE@_K@Z         10032a58 f   libvcruntime:undname.obj
 0001:00031ae2       ??0DNameNode@@IAE@XZ       10032ae2 f   libvcruntime:undname.obj
 0001:00031aed       ??0DNameStatusNode@@AAE@W4DNameStatus@@@Z 10032aed f   libvcruntime:undname.obj
 0001:00031b18       ??0Replicator@@QAE@XZ      10032b18 f i libvcruntime:undname.obj
 0001:00031b1e       ??0UnDecorator@@QAE@PADPBDHP6APADJ@ZK@Z 10032b1e f i libvcruntime:undname.obj
 0001:00031ba1       ??0charNode@@QAE@D@Z       10032ba1 f   libvcruntime:undname.obj
 0001:00031bbb       ??0pDNameNode@@QAE@PAVDName@@@Z 10032bbb f   libvcruntime:undname.obj
 0001:00031bed       ??0pairNode@@QAE@PAVDNameNode@@0@Z 10032bed f   libvcruntime:undname.obj
 0001:00031c13       ??0pcharNode@@QAE@PBDH@Z   10032c13 f   libvcruntime:undname.obj
 0001:00031c82       ??2@YAPAXIAAV_HeapManager@@H@Z 10032c82 f i libvcruntime:undname.obj
 0001:00031c9c       ??4DName@@QAEAAV0@ABV0@@Z  10032c9c f   libvcruntime:undname.obj
 0001:00031cb7       ??4DName@@QAEAAV0@D@Z      10032cb7 f i libvcruntime:undname.obj
 0001:00031cee       ??4DName@@QAEAAV0@PAV0@@Z  10032cee f   libvcruntime:undname.obj
 0001:00031d49       ??4DName@@QAEAAV0@PBD@Z    10032d49 f   libvcruntime:undname.obj
 0001:00031d87       ??4DName@@QAEAAV0@W4DNameStatus@@@Z 10032d87 f   libvcruntime:undname.obj
 0001:00031dc9       ??AReplicator@@QBE?AVDName@@H@Z 10032dc9 f   libvcruntime:undname.obj
 0001:00031e14       ??BUnDecorator@@QAEPADXZ   10032e14 f i libvcruntime:undname.obj
 0001:00031feb       ??H@YA?AVDName@@DABV0@@Z   10032feb f i libvcruntime:undname.obj
 0001:00032018       ??H@YA?AVDName@@PBDABV0@@Z 10033018 f i libvcruntime:undname.obj
 0001:00032045       ??H@YA?AVDName@@W4DNameStatus@@ABV0@@Z 10033045 f i libvcruntime:undname.obj
 0001:00032072       ??HDName@@QBE?AV0@ABV0@@Z  10033072 f   libvcruntime:undname.obj
 0001:0003209c       ??HDName@@QBE?AV0@D@Z      1003309c f   libvcruntime:undname.obj
 0001:000320c6       ??HDName@@QBE?AV0@PAV0@@Z  100330c6 f   libvcruntime:undname.obj
 0001:000320f0       ??HDName@@QBE?AV0@PBD@Z    100330f0 f   libvcruntime:undname.obj
 0001:0003211a       ??HDName@@QBE?AV0@W4DNameStatus@@@Z 1003311a f   libvcruntime:undname.obj
 0001:00032144       ??YDName@@QAEAAV0@ABV0@@Z  10033144 f   libvcruntime:undname.obj
 0001:00032197       ??YDName@@QAEAAV0@D@Z      10033197 f   libvcruntime:undname.obj
 0001:000321fb       ??YDName@@QAEAAV0@PAV0@@Z  100331fb f   libvcruntime:undname.obj
 0001:00032279       ??YDName@@QAEAAV0@PBD@Z    10033279 f   libvcruntime:undname.obj
 0001:000322f2       ??YDName@@QAEAAV0@W4DNameStatus@@@Z 100332f2 f   libvcruntime:undname.obj
 0001:00032342       ??YReplicator@@QAEAAV0@ABVDName@@@Z 10033342 f   libvcruntime:undname.obj
 0001:0003239e       ??_5DName@@QAEAAV0@ABV0@@Z 1003339e f   libvcruntime:undname.obj
 0001:000323c1       ?Constructor@_HeapManager@@QAEXP6APAXI@ZP6AXPAX@Z@Z 100333c1 f i libvcruntime:undname.obj
 0001:000323e5       ?Destructor@_HeapManager@@QAEXXZ 100333e5 f i libvcruntime:undname.obj
 0001:0003242c       ?UScore@UnDecorator@@SAPBDW4Tokens@@@Z 1003342c f   libvcruntime:undname.obj
 0001:00032450       ?append@DName@@AAEXPAVDNameNode@@@Z 10033450 f   libvcruntime:undname.obj
 0001:000324a7       ?composeDeclaration@UnDecorator@@CA?AVDName@@ABV2@@Z 100334a7 f i libvcruntime:undname.obj
 0001:000334e2       ?doAccessSpecifiers@UnDecorator@@SAHXZ 100344e2 f i libvcruntime:undname.obj
 0001:000334f3       ?doAllocationLanguage@UnDecorator@@SAHXZ 100344f3 f i libvcruntime:undname.obj
 0001:00033504       ?doAllocationModel@UnDecorator@@SAHXZ 10034504 f i libvcruntime:undname.obj
 0001:00033515       ?doEcsu@UnDecorator@@SAHXZ 10034515 f i libvcruntime:undname.obj
 0001:00033526       ?doEllipsis@UnDecorator@@SAHXZ 10034526 f i libvcruntime:undname.obj
 0001:00033537       ?doFunctionReturns@UnDecorator@@SAHXZ 10034537 f i libvcruntime:undname.obj
 0001:00033548       ?doMSKeywords@UnDecorator@@SAHXZ 10034548 f i libvcruntime:undname.obj
 0001:00033558       ?doMemberTypes@UnDecorator@@SAHXZ 10034558 f i libvcruntime:undname.obj
 0001:00033569       ?doNameOnly@UnDecorator@@SAHXZ 10034569 f i libvcruntime:undname.obj
 0001:00033576       ?doNoIdentCharCheck@UnDecorator@@SAHXZ 10034576 f i libvcruntime:undname.obj
 0001:00033583       ?doPchar@DName@@AAEXPBDH@Z 10034583 f   libvcruntime:undname.obj
 0001:0003362f       ?doPtr64@UnDecorator@@SAHXZ 1003462f f i libvcruntime:undname.obj
 0001:00033640       ?doRestrictionSpec@UnDecorator@@SAHXZ 10034640 f i libvcruntime:undname.obj
 0001:00033651       ?doThisTypes@UnDecorator@@SAHXZ 10034651 f i libvcruntime:undname.obj
 0001:00033667       ?doThrowTypes@UnDecorator@@SAHXZ 10034667 f i libvcruntime:undname.obj
 0001:00033678       ?doTypeOnly@UnDecorator@@SAHXZ 10034678 f i libvcruntime:undname.obj
 0001:00033685       ?doUnderScore@UnDecorator@@SAHXZ 10034685 f i libvcruntime:undname.obj
 0001:00033692       ?getArgumentList@UnDecorator@@CA?AVDName@@XZ 10034692 f   libvcruntime:undname.obj
 0001:000337e1       ?getArgumentTypes@UnDecorator@@CA?AVDName@@XZ 100347e1 f   libvcruntime:undname.obj
 0001:000338f9       ?getArrayType@UnDecorator@@CA?AVDName@@ABV2@@Z 100348f9 f i libvcruntime:undname.obj
 0001:00033b7b       ?getBasedType@UnDecorator@@CA?AVDName@@XZ 10034b7b f   libvcruntime:undname.obj
 0001:00033c3a       ?getBasicDataType@UnDecorator@@CA?AVDName@@ABV2@@Z 10034c3a f   libvcruntime:undname.obj
 0001:00034124       ?getCallIndex@UnDecorator@@CA?AVDName@@XZ 10035124 f i libvcruntime:undname.obj
 0001:0003413d       ?getCallingConvention@UnDecorator@@CA?AVDName@@XZ 1003513d f   libvcruntime:undname.obj
 0001:0003422b       ?getDataIndirectType@UnDecorator@@CA?AVDName@@ABV2@PBD0H@Z 1003522b f   libvcruntime:undname.obj
 0001:000349d6       ?getDataIndirectType@UnDecorator@@CA?AVDName@@XZ 100359d6 f i libvcruntime:undname.obj
 0001:00034a1d       ?getDataType@UnDecorator@@CA?AVDName@@PAV2@@Z 10035a1d f   libvcruntime:undname.obj
 0001:00034b23       ?getDecoratedName@UnDecorator@@CA?AVDName@@XZ 10035b23 f   libvcruntime:undname.obj
 0001:00034e02       ?getDimension@UnDecorator@@CA?AVDName@@_N@Z 10035e02 f   libvcruntime:undname.obj
 0001:00034f86       ?getDispatchTarget@UnDecorator@@CA?AVDName@@XZ 10035f86 f   libvcruntime:undname.obj
 0001:00034ff7       ?getDisplacement@UnDecorator@@CA?AVDName@@XZ 10035ff7 f i libvcruntime:undname.obj
 0001:00035010       ?getECSUDataType@UnDecorator@@CA?AVDName@@XZ 10036010 f   libvcruntime:undname.obj
 0001:00035174       ?getECSUName@UnDecorator@@CA?AVDName@@XZ 10036174 f i libvcruntime:undname.obj
 0001:00035189       ?getEnumType@UnDecorator@@CA?AVDName@@XZ 10036189 f i libvcruntime:undname.obj
 0001:000352b0       ?getExtendedDataIndirectType@UnDecorator@@CA?AVDName@@AAPBDAA_NH@Z 100362b0 f   libvcruntime:undname.obj
 0001:000354c3       ?getExternalDataType@UnDecorator@@CA?AVDName@@ABV2@@Z 100364c3 f i libvcruntime:undname.obj
 0001:0003555a       ?getFunctionIndirectType@UnDecorator@@CA?AVDName@@ABV2@@Z 1003655a f   libvcruntime:undname.obj
 0001:00035a65       ?getGuardNumber@UnDecorator@@CA?AVDName@@XZ 10036a65 f i libvcruntime:undname.obj
 0001:00035a7e       ?getLastChar@DName@@QBEDXZ 10036a7e f i libvcruntime:undname.obj
 0001:00035aa4       ?getLastChar@DNameStatusNode@@UBEDXZ 10036aa4 f i libvcruntime:undname.obj
 0001:00035ab3       ?getLastChar@charNode@@UBEDXZ 10036ab3 f i libvcruntime:undname.obj
 0001:00035ab7       ?getLastChar@pDNameNode@@UBEDXZ 10036ab7 f i libvcruntime:undname.obj
 0001:00035ac8       ?getLastChar@pairNode@@UBEDXZ 10036ac8 f i libvcruntime:undname.obj
 0001:00035b07       ?getLastChar@pcharNode@@UBEDXZ 10036b07 f i libvcruntime:undname.obj
 0001:00035b1d       ?getLexicalFrame@UnDecorator@@CA?AVDName@@XZ 10036b1d f i libvcruntime:undname.obj
 0001:00035b69       ?getMemory@_HeapManager@@QAEPAXIH@Z 10036b69 f   libvcruntime:undname.obj
 0001:00035c1a       ?getNumberOfDimensions@UnDecorator@@CAHXZ 10036c1a f   libvcruntime:undname.obj
 0001:00035c93       ?getOperatorName@UnDecorator@@CA?AVDName@@_NPA_N@Z 10036c93 f i libvcruntime:undname.obj
 0001:00036443       ?getPointerType@UnDecorator@@CA?AVDName@@ABV2@0@Z 10037443 f i libvcruntime:undname.obj
 0001:00036468       ?getPointerTypeArray@UnDecorator@@CA?AVDName@@ABV2@0@Z 10037468 f i libvcruntime:undname.obj
 0001:0003648d       ?getPrimaryDataType@UnDecorator@@CA?AVDName@@ABV2@@Z 1003748d f   libvcruntime:undname.obj
 0001:000366fe       ?getPtrRefDataType@UnDecorator@@CA?AVDName@@ABV2@H@Z 100376fe f   libvcruntime:undname.obj
 0001:00036840       ?getPtrRefType@UnDecorator@@CA?AVDName@@ABV2@0PBD@Z 10037840 f   libvcruntime:undname.obj
 0001:0003697b       ?getReferenceType@UnDecorator@@CA?AVDName@@ABV2@0PBD@Z 1003797b f i libvcruntime:undname.obj
 0001:0003699e       ?getRestrictionSpec@UnDecorator@@CA?AVDName@@XZ 1003799e f   libvcruntime:undname.obj
 0001:00036acc       ?getReturnType@UnDecorator@@CA?AVDName@@PAV2@@Z 10037acc f   libvcruntime:undname.obj
 0001:00036b06       ?getScope@UnDecorator@@CA?AVDName@@XZ 10037b06 f   libvcruntime:undname.obj
 0001:00036fdb       ?getScopedName@UnDecorator@@CA?AVDName@@XZ 10037fdb f   libvcruntime:undname.obj
 0001:00037114       ?getSignedDimension@UnDecorator@@CA?AVDName@@XZ 10038114 f   libvcruntime:undname.obj
 0001:0003717b       ?getStorageConvention@UnDecorator@@CA?AVDName@@XZ 1003817b f i libvcruntime:undname.obj
 0001:00037190       ?getString@DName@@QBEPADPAD0@Z 10038190 f i libvcruntime:undname.obj
 0001:000371c7       ?getString@DName@@QBEPADPADH@Z 100381c7 f i libvcruntime:undname.obj
 0001:00037232       ?getString@DNameStatusNode@@UBEPADPAD0@Z 10038232 f i libvcruntime:undname.obj
 0001:00037262       ?getString@charNode@@UBEPADPAD0@Z 10038262 f i libvcruntime:undname.obj
 0001:0003727c       ?getString@pDNameNode@@UBEPADPAD0@Z 1003827c f i libvcruntime:undname.obj
 0001:00037298       ?getString@pairNode@@UBEPADPAD0@Z 10038298 f i libvcruntime:undname.obj
 0001:000372ed       ?getString@pcharNode@@UBEPADPAD0@Z 100382ed f i libvcruntime:undname.obj
 0001:0003730e       ?getStringEncoding@UnDecorator@@CA?AVDName@@PADH@Z 1003830e f   libvcruntime:undname.obj
 0001:000373d9       ?getStringHelper@@YAPADPAD00H@Z 100383d9 f i libvcruntime:undname.obj
 0001:0003741d       ?getSymbolName@UnDecorator@@CA?AVDName@@XZ 1003841d f i libvcruntime:undname.obj
 0001:00037477       ?getTemplateArgumentList@UnDecorator@@CA?AVDName@@XZ 10038477 f   libvcruntime:undname.obj
 0001:000377c4       ?getTemplateConstant@UnDecorator@@CA?AVDName@@XZ 100387c4 f   libvcruntime:undname.obj
 0001:00037bd9       ?getTemplateName@UnDecorator@@CA?AVDName@@_N@Z 10038bd9 f   libvcruntime:undname.obj
 0001:00037d84       ?getThisType@UnDecorator@@CA?AVDName@@XZ 10038d84 f i libvcruntime:undname.obj
 0001:00037dcc       ?getThrowTypes@UnDecorator@@CA?AVDName@@XZ 10038dcc f   libvcruntime:undname.obj
 0001:00037e78       ?getTypeEncoding@UnDecorator@@CAHXZ 10038e78 f i libvcruntime:undname.obj
 0001:00038274       ?getVCallThunkType@UnDecorator@@CA?AVDName@@XZ 10039274 f i libvcruntime:undname.obj
 0001:000382bd       ?getVbTableType@UnDecorator@@CA?AVDName@@ABV2@@Z 100392bd f i libvcruntime:undname.obj
 0001:000382d7       ?getVdispMapType@UnDecorator@@CA?AVDName@@ABV2@@Z 100392d7 f i libvcruntime:undname.obj
 0001:00038342       ?getVfTableType@UnDecorator@@CA?AVDName@@ABV2@@Z 10039342 f i libvcruntime:undname.obj
 0001:00038500       ?getZName@UnDecorator@@CA?AVDName@@_N0@Z 10039500 f   libvcruntime:undname.obj
 0001:000387d0       ?haveTemplateParameters@UnDecorator@@SAHXZ 100397d0 f i libvcruntime:undname.obj
 0001:000387dd       ?isArray@DName@@QBEHXZ     100397dd f i libvcruntime:undname.obj
 0001:000387e9       ?isComArray@DName@@QBEHXZ  100397e9 f i libvcruntime:undname.obj
 0001:000387f5       ?isEmpty@DName@@QBEHXZ     100397f5 f i libvcruntime:undname.obj
 0001:000387ff       ?isFull@Replicator@@QBEHXZ 100397ff f i libvcruntime:undname.obj
 0001:0003880a       ?isNoTE@DName@@QBEHXZ      1003980a f i libvcruntime:undname.obj
 0001:00038816       ?isPinPtr@DName@@QBEHXZ    10039816 f i libvcruntime:undname.obj
 0001:00038822       ?isPtrRef@DName@@QBEHXZ    10039822 f i libvcruntime:undname.obj
 0001:0003882e       ?isUDC@DName@@QBEHXZ       1003982e f i libvcruntime:undname.obj
 0001:00038843       ?isUDTThunk@DName@@QBEHXZ  10039843 f i libvcruntime:undname.obj
 0001:00038858       ?isVCallThunk@DName@@QBEHXZ 10039858 f i libvcruntime:undname.obj
 0001:00038864       ?isValid@DName@@QBEHXZ     10039864 f i libvcruntime:undname.obj
 0001:00038870       ?length@DName@@QBEHXZ      10039870 f i libvcruntime:undname.obj
 0001:00038895       ?length@DNameStatusNode@@UBEHXZ 10039895 f i libvcruntime:undname.obj
 0001:00038899       ?length@charNode@@UBEHXZ   10039899 f i libvcruntime:undname.obj
 0001:0003889d       ?length@pDNameNode@@UBEHXZ 1003989d f i libvcruntime:undname.obj
 0001:000388ae       ?length@pairNode@@UBEHXZ   100398ae f i libvcruntime:undname.obj
 0001:0003890a       ?length@pcharNode@@UBEHXZ  1003990a f i libvcruntime:undname.obj
 0001:0003890e       ?make@DNameStatusNode@@SAPAV1@W4DNameStatus@@@Z 1003990e f i libvcruntime:undname.obj
 0001:000389b5       ?setIsArray@DName@@QAEXXZ  100399b5 f i libvcruntime:undname.obj
 0001:000389bf       ?setIsComArray@DName@@QAEXXZ 100399bf f i libvcruntime:undname.obj
 0001:000389c9       ?setIsNoTE@DName@@QAEXXZ   100399c9 f i libvcruntime:undname.obj
 0001:000389d3       ?setIsPinPtr@DName@@QAEXXZ 100399d3 f i libvcruntime:undname.obj
 0001:000389dd       ?setIsUDC@DName@@QAEXXZ    100399dd f i libvcruntime:undname.obj
 0001:000389ed       ?setIsVCallThunk@DName@@QAEXXZ 100399ed f i libvcruntime:undname.obj
 0001:000389f7       ?setPtrRef@DName@@QAEAAV1@XZ 100399f7 f i libvcruntime:undname.obj
 0001:00038a03       ?status@DName@@QBE?AW4DNameStatus@@XZ 10039a03 f i libvcruntime:undname.obj
 0001:00038a88       ___unDName                 10039a88 f   libvcruntime:undname.obj
 0001:00038b42       ___unDNameEx               10039b42 f   libvcruntime:undname.obj
 0001:00038bfc       __vsprintf_s_l             10039bfc f i libvcruntime:undname.obj
 0001:00038c34       _sprintf_s                 10039c34 f i libvcruntime:undname.obj
 0001:00038c60       __global_unwind2           10039c60 f   libvcruntime:_exsup_.obj
 0001:00038cc5       __local_unwind2            10039cc5 f   libvcruntime:_exsup_.obj
 0001:00038d49       __abnormal_termination     10039d49 f   libvcruntime:_exsup_.obj
 0001:00038d6c       __NLG_Notify1              10039d6c f   libvcruntime:_exsup_.obj
 0001:00038d75       __NLG_Notify               10039d75 f   libvcruntime:_exsup_.obj
 0001:00038d8c       __NLG_Dispatch2            10039d8c     libvcruntime:_exsup_.obj
 0001:00038d8c       __NLG_Dispatch             10039d8c     libvcruntime:_exsup_.obj
 0001:00038d94       __NLG_Call                 10039d94 f   libvcruntime:_exsup_.obj
 0001:00038d96       __NLG_Return2              10039d96     libvcruntime:_exsup_.obj
 0001:00038de4       ??$__crt_fast_decode_pointer@P6AXXZ@@YAP6AXXZQ6AXXZ@Z 10039de4 f i libvcruntime:purevirt.obj
 0001:00038dfd       ??$__crt_interlocked_compare_exchange_pointer@$$A6AXXZ$$T$$T@@YAP6AXXZPDS6AXXZ$$T1@Z 10039dfd f i libvcruntime:purevirt.obj
 0001:00038e13       ??$__crt_interlocked_exchange_pointer@$$A6AXXZP6AXXZ@@YAP6AXXZPDS6AXXZQ6AXXZ@Z 10039e13 f i libvcruntime:purevirt.obj
 0001:00038e23       ??$__crt_interlocked_read_pointer@$$A6AXXZ@@YAP6AXXZPDS6AXXZ@Z 10039e23 f i libvcruntime:purevirt.obj
 0001:00038e37       __get_purecall_handler     10039e37 f   libvcruntime:purevirt.obj
 0001:00038e5d       __purecall                 10039e5d f   libvcruntime:purevirt.obj
 0001:00038e7e       __set_purecall_handler     10039e7e f   libvcruntime:purevirt.obj
 0001:00038eac       _malloc                    10039eac f   libucrt:malloc.obj
 0001:00038eb9       ??$?RPAU__crt_stdio_stream_data@@@__crt_internal_free_policy@@QBEXQBQAU__crt_stdio_stream_data@@@Z 10039eb9 f i libucrt:_file.obj
 0001:00038ecf       ??0?$__crt_unique_heap_ptr@PAU__crt_stdio_stream_data@@U__crt_internal_free_policy@@@@QAE@QAPAU__crt_stdio_stream_data@@@Z 10039ecf f i libucrt:_file.obj
 0001:00038ee3       ??0__crt_stdio_stream@@QAE@QAU_iobuf@@@Z 10039ee3 f i libucrt:_file.obj
 0001:00038ef7       ??1?$__crt_unique_heap_ptr@PAU__crt_stdio_stream_data@@U__crt_internal_free_policy@@@@QAE@XZ 10039ef7 f i libucrt:_file.obj
 0001:00038f0d       ??C__crt_stdio_stream@@QBEPAU__crt_stdio_stream_data@@XZ 10039f0d f i libucrt:_file.obj
 0001:00038f10       ?detach@?$__crt_unique_heap_ptr@PAU__crt_stdio_stream_data@@U__crt_internal_free_policy@@@@QAEPAPAU__crt_stdio_stream_data@@XZ 10039f10 f i libucrt:_file.obj
 0001:00038f16       ?release@?$__crt_unique_heap_ptr@PAU__crt_stdio_stream_data@@U__crt_internal_free_policy@@@@QAEXXZ 10039f16 f i libucrt:_file.obj
 0001:00038f2c       ___acrt_initialize_stdio   10039f2c f   libucrt:_file.obj
 0001:00039026       ___acrt_iob_func           1003a026 f   libucrt:_file.obj
 0001:0003903a       ___acrt_uninitialize_stdio 1003a03a f   libucrt:_file.obj
 0001:00039099       __get_stream_buffer_pointers 1003a099 f   libucrt:_file.obj
 0001:000390f0       __lock_file                1003a0f0 f   libucrt:_file.obj
 0001:00039109       __unlock_file              1003a109 f   libucrt:_file.obj
 0001:00039122       ??$?0ABV?$stream_output_adapter@D@__crt_stdio_output@@AB_KABQBDABQAU__crt_locale_pointers@@ABQAD@?$format_validation_base@DV?$stream_output_adapter@D@__crt_stdio_output@@@__crt_stdio_output@@IAE@ABV?$stream_output_adapter@D@1@AB_KABQBDABQAU__crt_locale_pointers@@ABQAD@Z 1003a122 f i libucrt:output.obj
 0001:0003914d       ??$?0ABV?$stream_output_adapter@D@__crt_stdio_output@@AB_KABQBDABQAU__crt_locale_pointers@@ABQAD@?$positional_parameter_base@DV?$stream_output_adapter@D@__crt_stdio_output@@@__crt_stdio_output@@IAE@ABV?$stream_output_adapter@D@1@AB_KABQBDABQAU__crt_locale_pointers@@ABQAD@Z 1003a14d f i libucrt:output.obj
 0001:000391a7       ??$?0ABV?$stream_output_adapter@D@__crt_stdio_output@@AB_KABQBDABQAU__crt_locale_pointers@@ABQAD@?$standard_base@DV?$stream_output_adapter@D@__crt_stdio_output@@@__crt_stdio_output@@IAE@ABV?$stream_output_adapter@D@1@AB_KABQBDABQAU__crt_locale_pointers@@ABQAD@Z 1003a1a7 f i libucrt:output.obj
 0001:000391e9       ??$?0ABV?$stream_output_adapter@_W@__crt_stdio_output@@AB_KABQB_WABQAU__crt_locale_pointers@@ABQAD@?$format_validation_base@_WV?$stream_output_adapter@_W@__crt_stdio_output@@@__crt_stdio_output@@IAE@ABV?$stream_output_adapter@_W@1@AB_KABQB_WABQAU__crt_locale_pointers@@ABQAD@Z 1003a1e9 f i libucrt:output.obj
 0001:00039214       ??$?0ABV?$stream_output_adapter@_W@__crt_stdio_output@@AB_KABQB_WABQAU__crt_locale_pointers@@ABQAD@?$positional_parameter_base@_WV?$stream_output_adapter@_W@__crt_stdio_output@@@__crt_stdio_output@@IAE@ABV?$stream_output_adapter@_W@1@AB_KABQB_WABQAU__crt_locale_pointers@@ABQAD@Z 1003a214 f i libucrt:output.obj
 0001:0003926e       ??$?0ABV?$stream_output_adapter@_W@__crt_stdio_output@@AB_KABQB_WABQAU__crt_locale_pointers@@ABQAD@?$standard_base@_WV?$stream_output_adapter@_W@__crt_stdio_output@@@__crt_stdio_output@@IAE@ABV?$stream_output_adapter@_W@1@AB_KABQB_WABQAU__crt_locale_pointers@@ABQAD@Z 1003a26e f i libucrt:output.obj
 0001:000392b0       ??$?0ABV?$string_output_adapter@D@__crt_stdio_output@@AB_KABQBDABQAU__crt_locale_pointers@@ABQAD@?$format_validation_base@DV?$string_output_adapter@D@__crt_stdio_output@@@__crt_stdio_output@@IAE@ABV?$string_output_adapter@D@1@AB_KABQBDABQAU__crt_locale_pointers@@ABQAD@Z 1003a2b0 f i libucrt:output.obj
 0001:000392db       ??$?0ABV?$string_output_adapter@D@__crt_stdio_output@@AB_KABQBDABQAU__crt_locale_pointers@@ABQAD@?$positional_parameter_base@DV?$string_output_adapter@D@__crt_stdio_output@@@__crt_stdio_output@@IAE@ABV?$string_output_adapter@D@1@AB_KABQBDABQAU__crt_locale_pointers@@ABQAD@Z 1003a2db f i libucrt:output.obj
 0001:00039335       ??$?0ABV?$string_output_adapter@D@__crt_stdio_output@@AB_KABQBDABQAU__crt_locale_pointers@@ABQAD@?$standard_base@DV?$string_output_adapter@D@__crt_stdio_output@@@__crt_stdio_output@@IAE@ABV?$string_output_adapter@D@1@AB_KABQBDABQAU__crt_locale_pointers@@ABQAD@Z 1003a335 f i libucrt:output.obj
 0001:00039377       ??$?0ABV?$string_output_adapter@_W@__crt_stdio_output@@AB_KABQB_WABQAU__crt_locale_pointers@@ABQAD@?$format_validation_base@_WV?$string_output_adapter@_W@__crt_stdio_output@@@__crt_stdio_output@@IAE@ABV?$string_output_adapter@_W@1@AB_KABQB_WABQAU__crt_locale_pointers@@ABQAD@Z 1003a377 f i libucrt:output.obj
 0001:000393a2       ??$?0ABV?$string_output_adapter@_W@__crt_stdio_output@@AB_KABQB_WABQAU__crt_locale_pointers@@ABQAD@?$positional_parameter_base@_WV?$string_output_adapter@_W@__crt_stdio_output@@@__crt_stdio_output@@IAE@ABV?$string_output_adapter@_W@1@AB_KABQB_WABQAU__crt_locale_pointers@@ABQAD@Z 1003a3a2 f i libucrt:output.obj
 0001:000393fc       ??$?0ABV?$string_output_adapter@_W@__crt_stdio_output@@AB_KABQB_WABQAU__crt_locale_pointers@@ABQAD@?$standard_base@_WV?$string_output_adapter@_W@__crt_stdio_output@@@__crt_stdio_output@@IAE@ABV?$string_output_adapter@_W@1@AB_KABQB_WABQAU__crt_locale_pointers@@ABQAD@Z 1003a3fc f i libucrt:output.obj
 0001:0003943e       ??$?RV<lambda_2293f24e3ce1ad6fe22ccfb9dec07671>@@AAV<lambda_2565fc715a641e539f44ad02d6823606>@@V<lambda_d3217f279b832965d9ca670dc2993570>@@@?$__crt_seh_guarded_call@H@@QAEH$$QAV<lambda_2293f24e3ce1ad6fe22ccfb9dec07671>@@AAV<lambda_2565fc715a641e539f44ad02d6823606>@@$$QAV<lambda_d3217f279b832965d9ca670dc2993570>@@@Z 1003a43e f i libucrt:output.obj
 0001:000394a3       ??$?RV<lambda_4d4ac866be0fa3c441830420fabdd2cb>@@AAV<lambda_63a10c2dc8dbb9e4dd1890be52af7c93>@@V<lambda_002af9fa0f8fe472b648c51882d4fc32>@@@?$__crt_seh_guarded_call@H@@QAEH$$QAV<lambda_4d4ac866be0fa3c441830420fabdd2cb>@@AAV<lambda_63a10c2dc8dbb9e4dd1890be52af7c93>@@$$QAV<lambda_002af9fa0f8fe472b648c51882d4fc32>@@@Z 1003a4a3 f i libucrt:output.obj
 0001:00039508       ??$?RV<lambda_5be909dfbae0a631386585770cd7b676>@@AAV<lambda_e516058a9c289d98c8ca9fea99247804>@@V<lambda_afe2e0cdc5e0ecf6f0d6f5e2f8985e38>@@@?$__crt_seh_guarded_call@H@@QAEH$$QAV<lambda_5be909dfbae0a631386585770cd7b676>@@AAV<lambda_e516058a9c289d98c8ca9fea99247804>@@$$QAV<lambda_afe2e0cdc5e0ecf6f0d6f5e2f8985e38>@@@Z 1003a508 f i libucrt:output.obj
 0001:0003956d       ??$?RV<lambda_823d65812123d985753d53e2a8c25d20>@@AAV<lambda_0a97c9e57da7be065955385c79108ff2>@@V<lambda_4d2973f3ad2d226f00468307185dca1b>@@@?$__crt_seh_guarded_call@H@@QAEH$$QAV<lambda_823d65812123d985753d53e2a8c25d20>@@AAV<lambda_0a97c9e57da7be065955385c79108ff2>@@$$QAV<lambda_4d2973f3ad2d226f00468307185dca1b>@@@Z 1003a56d f i libucrt:output.obj
 0001:000395d2       ??$?RV<lambda_ab9923ffb5d694ec0d78876dd103e44f>@@AAV<lambda_481dd5778c961fbcd3b60b650e9b9dc4>@@V<lambda_7923d86c9e3f319b415918ec4b39749c>@@@?$__crt_seh_guarded_call@H@@QAEH$$QAV<lambda_ab9923ffb5d694ec0d78876dd103e44f>@@AAV<lambda_481dd5778c961fbcd3b60b650e9b9dc4>@@$$QAV<lambda_7923d86c9e3f319b415918ec4b39749c>@@@Z 1003a5d2 f i libucrt:output.obj
 0001:00039637       ??$?RV<lambda_db08b09ef7aa9d4f8620ce68402612bc>@@AAV<lambda_4f2c1eaeead2a5fc776db5b62ea0fb9b>@@V<lambda_3ae262bc35d4ba6a3825c4f6bcaaf95c>@@@?$__crt_seh_guarded_call@H@@QAEH$$QAV<lambda_db08b09ef7aa9d4f8620ce68402612bc>@@AAV<lambda_4f2c1eaeead2a5fc776db5b62ea0fb9b>@@$$QAV<lambda_3ae262bc35d4ba6a3825c4f6bcaaf95c>@@@Z 1003a637 f i libucrt:output.obj
 0001:0003969c       ??$__acrt_lock_stream_and_call@V<lambda_0a97c9e57da7be065955385c79108ff2>@@@@YAHQAU_iobuf@@$$QAV<lambda_0a97c9e57da7be065955385c79108ff2>@@@Z 1003a69c f i libucrt:output.obj
 0001:000396ce       ??$__acrt_lock_stream_and_call@V<lambda_2565fc715a641e539f44ad02d6823606>@@@@YAHQAU_iobuf@@$$QAV<lambda_2565fc715a641e539f44ad02d6823606>@@@Z 1003a6ce f i libucrt:output.obj
 0001:00039700       ??$__acrt_lock_stream_and_call@V<lambda_481dd5778c961fbcd3b60b650e9b9dc4>@@@@YAHQAU_iobuf@@$$QAV<lambda_481dd5778c961fbcd3b60b650e9b9dc4>@@@Z 1003a700 f i libucrt:output.obj
 0001:00039732       ??$__acrt_lock_stream_and_call@V<lambda_4f2c1eaeead2a5fc776db5b62ea0fb9b>@@@@YAHQAU_iobuf@@$$QAV<lambda_4f2c1eaeead2a5fc776db5b62ea0fb9b>@@@Z 1003a732 f i libucrt:output.obj
 0001:00039764       ??$__acrt_lock_stream_and_call@V<lambda_63a10c2dc8dbb9e4dd1890be52af7c93>@@@@YAHQAU_iobuf@@$$QAV<lambda_63a10c2dc8dbb9e4dd1890be52af7c93>@@@Z 1003a764 f i libucrt:output.obj
 0001:00039796       ??$__acrt_lock_stream_and_call@V<lambda_e516058a9c289d98c8ca9fea99247804>@@@@YAHQAU_iobuf@@$$QAV<lambda_e516058a9c289d98c8ca9fea99247804>@@@Z 1003a796 f i libucrt:output.obj
 0001:000397c8       ??$__crt_interlocked_read@J@@YAJPDJ@Z 1003a7c8 f i libucrt:output.obj
 0001:0003aa13       ??$count@D@formatting_buffer@__crt_stdio_output@@QBEIXZ 1003ba13 f i libucrt:output.obj
 0001:0003aa31       ??$data@D@formatting_buffer@__crt_stdio_output@@QAEPADXZ 1003ba31 f i libucrt:output.obj
 0001:0003aa41       ??$data@_W@formatting_buffer@__crt_stdio_output@@QAEPA_WXZ 1003ba41 f i libucrt:output.obj
 0001:0003aa51       ??$ensure_buffer_is_big_enough@D@formatting_buffer@__crt_stdio_output@@QAE_NI@Z 1003ba51 f i libucrt:output.obj
 0001:0003aaf8       ??$extract_argument_from_va_list@C_J@?$positional_parameter_base@DV?$stream_output_adapter@D@__crt_stdio_output@@@__crt_stdio_output@@IAE_NAA_J@Z 1003baf8 f i libucrt:output.obj
 0001:0003ab96       ??$extract_argument_from_va_list@C_J@?$positional_parameter_base@DV?$string_output_adapter@D@__crt_stdio_output@@@__crt_stdio_output@@IAE_NAA_J@Z 1003bb96 f i libucrt:output.obj
 0001:0003ac34       ??$extract_argument_from_va_list@C_J@?$positional_parameter_base@_WV?$stream_output_adapter@_W@__crt_stdio_output@@@__crt_stdio_output@@IAE_NAA_J@Z 1003bc34 f i libucrt:output.obj
 0001:0003acd2       ??$extract_argument_from_va_list@C_J@?$positional_parameter_base@_WV?$string_output_adapter@_W@__crt_stdio_output@@@__crt_stdio_output@@IAE_NAA_J@Z 1003bcd2 f i libucrt:output.obj
 0001:0003ad70       ??$extract_argument_from_va_list@C_J@?$standard_base@DV?$stream_output_adapter@D@__crt_stdio_output@@@__crt_stdio_output@@IAE_NAA_J@Z 1003bd70 f i libucrt:output.obj
 0001:0003ad96       ??$extract_argument_from_va_list@C_J@?$standard_base@DV?$string_output_adapter@D@__crt_stdio_output@@@__crt_stdio_output@@IAE_NAA_J@Z 1003bd96 f i libucrt:output.obj
 0001:0003adbc       ??$extract_argument_from_va_list@C_J@?$standard_base@_WV?$stream_output_adapter@_W@__crt_stdio_output@@@__crt_stdio_output@@IAE_NAA_J@Z 1003bdbc f i libucrt:output.obj
 0001:0003ade2       ??$extract_argument_from_va_list@C_J@?$standard_base@_WV?$string_output_adapter@_W@__crt_stdio_output@@@__crt_stdio_output@@IAE_NAA_J@Z 1003bde2 f i libucrt:output.obj
 0001:0003ae08       ??$extract_argument_from_va_list@E_J@?$positional_parameter_base@DV?$stream_output_adapter@D@__crt_stdio_output@@@__crt_stdio_output@@IAE_NAA_J@Z 1003be08 f i libucrt:output.obj
 0001:0003aea6       ??$extract_argument_from_va_list@E_J@?$positional_parameter_base@DV?$string_output_adapter@D@__crt_stdio_output@@@__crt_stdio_output@@IAE_NAA_J@Z 1003bea6 f i libucrt:output.obj
 0001:0003af44       ??$extract_argument_from_va_list@E_J@?$positional_parameter_base@_WV?$stream_output_adapter@_W@__crt_stdio_output@@@__crt_stdio_output@@IAE_NAA_J@Z 1003bf44 f i libucrt:output.obj
 0001:0003afe2       ??$extract_argument_from_va_list@E_J@?$positional_parameter_base@_WV?$string_output_adapter@_W@__crt_stdio_output@@@__crt_stdio_output@@IAE_NAA_J@Z 1003bfe2 f i libucrt:output.obj
 0001:0003b080       ??$extract_argument_from_va_list@E_J@?$standard_base@DV?$stream_output_adapter@D@__crt_stdio_output@@@__crt_stdio_output@@IAE_NAA_J@Z 1003c080 f i libucrt:output.obj
 0001:0003b0a6       ??$extract_argument_from_va_list@E_J@?$standard_base@DV?$string_output_adapter@D@__crt_stdio_output@@@__crt_stdio_output@@IAE_NAA_J@Z 1003c0a6 f i libucrt:output.obj
 0001:0003b0cc       ??$extract_argument_from_va_list@E_J@?$standard_base@_WV?$stream_output_adapter@_W@__crt_stdio_output@@@__crt_stdio_output@@IAE_NAA_J@Z 1003c0cc f i libucrt:output.obj
 0001:0003b0f2       ??$extract_argument_from_va_list@E_J@?$standard_base@_WV?$string_output_adapter@_W@__crt_stdio_output@@@__crt_stdio_output@@IAE_NAA_J@Z 1003c0f2 f i libucrt:output.obj
 0001:0003b118       ??$extract_argument_from_va_list@F_J@?$positional_parameter_base@DV?$stream_output_adapter@D@__crt_stdio_output@@@__crt_stdio_output@@IAE_NAA_J@Z 1003c118 f i libucrt:output.obj
 0001:0003b1b6       ??$extract_argument_from_va_list@F_J@?$positional_parameter_base@DV?$string_output_adapter@D@__crt_stdio_output@@@__crt_stdio_output@@IAE_NAA_J@Z 1003c1b6 f i libucrt:output.obj
 0001:0003b254       ??$extract_argument_from_va_list@F_J@?$positional_parameter_base@_WV?$stream_output_adapter@_W@__crt_stdio_output@@@__crt_stdio_output@@IAE_NAA_J@Z 1003c254 f i libucrt:output.obj
 0001:0003b2f2       ??$extract_argument_from_va_list@F_J@?$positional_parameter_base@_WV?$string_output_adapter@_W@__crt_stdio_output@@@__crt_stdio_output@@IAE_NAA_J@Z 1003c2f2 f i libucrt:output.obj
 0001:0003b390       ??$extract_argument_from_va_list@F_J@?$standard_base@DV?$stream_output_adapter@D@__crt_stdio_output@@@__crt_stdio_output@@IAE_NAA_J@Z 1003c390 f i libucrt:output.obj
 0001:0003b3b6       ??$extract_argument_from_va_list@F_J@?$standard_base@DV?$string_output_adapter@D@__crt_stdio_output@@@__crt_stdio_output@@IAE_NAA_J@Z 1003c3b6 f i libucrt:output.obj
 0001:0003b3dc       ??$extract_argument_from_va_list@F_J@?$standard_base@_WV?$stream_output_adapter@_W@__crt_stdio_output@@@__crt_stdio_output@@IAE_NAA_J@Z 1003c3dc f i libucrt:output.obj
 0001:0003b402       ??$extract_argument_from_va_list@F_J@?$standard_base@_WV?$string_output_adapter@_W@__crt_stdio_output@@@__crt_stdio_output@@IAE_NAA_J@Z 1003c402 f i libucrt:output.obj
 0001:0003b428       ??$extract_argument_from_va_list@GD@?$positional_parameter_base@DV?$stream_output_adapter@D@__crt_stdio_output@@@__crt_stdio_output@@IAE_NAAD@Z 1003c428 f i libucrt:output.obj
 0001:0003b4c5       ??$extract_argument_from_va_list@GD@?$positional_parameter_base@DV?$string_output_adapter@D@__crt_stdio_output@@@__crt_stdio_output@@IAE_NAAD@Z 1003c4c5 f i libucrt:output.obj
 0001:0003b562       ??$extract_argument_from_va_list@GD@?$standard_base@DV?$stream_output_adapter@D@__crt_stdio_output@@@__crt_stdio_output@@IAE_NAAD@Z 1003c562 f i libucrt:output.obj
 0001:0003b582       ??$extract_argument_from_va_list@GD@?$standard_base@DV?$string_output_adapter@D@__crt_stdio_output@@@__crt_stdio_output@@IAE_NAAD@Z 1003c582 f i libucrt:output.obj
 0001:0003b5a2       ??$extract_argument_from_va_list@G_J@?$positional_parameter_base@DV?$stream_output_adapter@D@__crt_stdio_output@@@__crt_stdio_output@@IAE_NAA_J@Z 1003c5a2 f i libucrt:output.obj
 0001:0003b640       ??$extract_argument_from_va_list@G_J@?$positional_parameter_base@DV?$string_output_adapter@D@__crt_stdio_output@@@__crt_stdio_output@@IAE_NAA_J@Z 1003c640 f i libucrt:output.obj
 0001:0003b6de       ??$extract_argument_from_va_list@G_J@?$positional_parameter_base@_WV?$stream_output_adapter@_W@__crt_stdio_output@@@__crt_stdio_output@@IAE_NAA_J@Z 1003c6de f i libucrt:output.obj
 0001:0003b77c       ??$extract_argument_from_va_list@G_J@?$positional_parameter_base@_WV?$string_output_adapter@_W@__crt_stdio_output@@@__crt_stdio_output@@IAE_NAA_J@Z 1003c77c f i libucrt:output.obj
 0001:0003b81a       ??$extract_argument_from_va_list@G_J@?$standard_base@DV?$stream_output_adapter@D@__crt_stdio_output@@@__crt_stdio_output@@IAE_NAA_J@Z 1003c81a f i libucrt:output.obj
 0001:0003b840       ??$extract_argument_from_va_list@G_J@?$standard_base@DV?$string_output_adapter@D@__crt_stdio_output@@@__crt_stdio_output@@IAE_NAA_J@Z 1003c840 f i libucrt:output.obj
 0001:0003b866       ??$extract_argument_from_va_list@G_J@?$standard_base@_WV?$stream_output_adapter@_W@__crt_stdio_output@@@__crt_stdio_output@@IAE_NAA_J@Z 1003c866 f i libucrt:output.obj
 0001:0003b88c       ??$extract_argument_from_va_list@G_J@?$standard_base@_WV?$string_output_adapter@_W@__crt_stdio_output@@@__crt_stdio_output@@IAE_NAA_J@Z 1003c88c f i libucrt:output.obj
 0001:0003b8b2       ??$extract_argument_from_va_list@H_J@?$positional_parameter_base@DV?$stream_output_adapter@D@__crt_stdio_output@@@__crt_stdio_output@@IAE_NAA_J@Z 1003c8b2 f i libucrt:output.obj
 0001:0003b94e       ??$extract_argument_from_va_list@H_J@?$positional_parameter_base@DV?$string_output_adapter@D@__crt_stdio_output@@@__crt_stdio_output@@IAE_NAA_J@Z 1003c94e f i libucrt:output.obj
 0001:0003b9ea       ??$extract_argument_from_va_list@H_J@?$positional_parameter_base@_WV?$stream_output_adapter@_W@__crt_stdio_output@@@__crt_stdio_output@@IAE_NAA_J@Z 1003c9ea f i libucrt:output.obj
 0001:0003ba86       ??$extract_argument_from_va_list@H_J@?$positional_parameter_base@_WV?$string_output_adapter@_W@__crt_stdio_output@@@__crt_stdio_output@@IAE_NAA_J@Z 1003ca86 f i libucrt:output.obj
 0001:0003bb22       ??$extract_argument_from_va_list@H_J@?$standard_base@DV?$stream_output_adapter@D@__crt_stdio_output@@@__crt_stdio_output@@IAE_NAA_J@Z 1003cb22 f i libucrt:output.obj
 0001:0003bb47       ??$extract_argument_from_va_list@H_J@?$standard_base@DV?$string_output_adapter@D@__crt_stdio_output@@@__crt_stdio_output@@IAE_NAA_J@Z 1003cb47 f i libucrt:output.obj
 0001:0003bb6c       ??$extract_argument_from_va_list@H_J@?$standard_base@_WV?$stream_output_adapter@_W@__crt_stdio_output@@@__crt_stdio_output@@IAE_NAA_J@Z 1003cb6c f i libucrt:output.obj
 0001:0003bb91       ??$extract_argument_from_va_list@H_J@?$standard_base@_WV?$string_output_adapter@_W@__crt_stdio_output@@@__crt_stdio_output@@IAE_NAA_J@Z 1003cb91 f i libucrt:output.obj
 0001:0003bbb6       ??$extract_argument_from_va_list@I_J@?$positional_parameter_base@DV?$stream_output_adapter@D@__crt_stdio_output@@@__crt_stdio_output@@IAE_NAA_J@Z 1003cbb6 f i libucrt:output.obj
 0001:0003bc5d       ??$extract_argument_from_va_list@I_J@?$positional_parameter_base@DV?$string_output_adapter@D@__crt_stdio_output@@@__crt_stdio_output@@IAE_NAA_J@Z 1003cc5d f i libucrt:output.obj
 0001:0003bd04       ??$extract_argument_from_va_list@I_J@?$positional_parameter_base@_WV?$stream_output_adapter@_W@__crt_stdio_output@@@__crt_stdio_output@@IAE_NAA_J@Z 1003cd04 f i libucrt:output.obj
 0001:0003bdab       ??$extract_argument_from_va_list@I_J@?$positional_parameter_base@_WV?$string_output_adapter@_W@__crt_stdio_output@@@__crt_stdio_output@@IAE_NAA_J@Z 1003cdab f i libucrt:output.obj
 0001:0003be52       ??$extract_argument_from_va_list@I_J@?$standard_base@DV?$stream_output_adapter@D@__crt_stdio_output@@@__crt_stdio_output@@IAE_NAA_J@Z 1003ce52 f i libucrt:output.obj
 0001:0003be77       ??$extract_argument_from_va_list@I_J@?$standard_base@DV?$string_output_adapter@D@__crt_stdio_output@@@__crt_stdio_output@@IAE_NAA_J@Z 1003ce77 f i libucrt:output.obj
 0001:0003be9c       ??$extract_argument_from_va_list@I_J@?$standard_base@_WV?$stream_output_adapter@_W@__crt_stdio_output@@@__crt_stdio_output@@IAE_NAA_J@Z 1003ce9c f i libucrt:output.obj
 0001:0003bec1       ??$extract_argument_from_va_list@I_J@?$standard_base@_WV?$string_output_adapter@_W@__crt_stdio_output@@@__crt_stdio_output@@IAE_NAA_J@Z 1003cec1 f i libucrt:output.obj
 0001:0003bee6       ??$extract_argument_from_va_list@PADPAD@?$positional_parameter_base@DV?$stream_output_adapter@D@__crt_stdio_output@@@__crt_stdio_output@@IAE_NAAPAD@Z 1003cee6 f i libucrt:output.obj
 0001:0003bf83       ??$extract_argument_from_va_list@PADPAD@?$positional_parameter_base@DV?$string_output_adapter@D@__crt_stdio_output@@@__crt_stdio_output@@IAE_NAAPAD@Z 1003cf83 f i libucrt:output.obj
 0001:0003c020       ??$extract_argument_from_va_list@PADPAD@?$positional_parameter_base@_WV?$stream_output_adapter@_W@__crt_stdio_output@@@__crt_stdio_output@@IAE_NAAPAD@Z 1003d020 f i libucrt:output.obj
 0001:0003c0bd       ??$extract_argument_from_va_list@PADPAD@?$positional_parameter_base@_WV?$string_output_adapter@_W@__crt_stdio_output@@@__crt_stdio_output@@IAE_NAAPAD@Z 1003d0bd f i libucrt:output.obj
 0001:0003c15a       ??$extract_argument_from_va_list@PADPAD@?$standard_base@DV?$stream_output_adapter@D@__crt_stdio_output@@@__crt_stdio_output@@IAE_NAAPAD@Z 1003d15a f i libucrt:output.obj
 0001:0003c17a       ??$extract_argument_from_va_list@PADPAD@?$standard_base@DV?$string_output_adapter@D@__crt_stdio_output@@@__crt_stdio_output@@IAE_NAAPAD@Z 1003d17a f i libucrt:output.obj
 0001:0003c19a       ??$extract_argument_from_va_list@PADPAD@?$standard_base@_WV?$stream_output_adapter@_W@__crt_stdio_output@@@__crt_stdio_output@@IAE_NAAPAD@Z 1003d19a f i libucrt:output.obj
 0001:0003c1ba       ??$extract_argument_from_va_list@PADPAD@?$standard_base@_WV?$string_output_adapter@_W@__crt_stdio_output@@@__crt_stdio_output@@IAE_NAAPAD@Z 1003d1ba f i libucrt:output.obj
 0001:0003c1da       ??$extract_argument_from_va_list@PAUansi_string@?1??type_case_Z@?$output_processor@DV?$stream_output_adapter@D@__crt_stdio_output@@V?$format_validation_base@DV?$stream_output_adapter@D@__crt_stdio_output@@@2@@__crt_stdio_output@@AAE_NXZ@PAU1?1??234@AAE_NXZ@@?$standard_base@DV?$stream_output_adapter@D@__crt_stdio_output@@@__crt_stdio_output@@IAE_NAAPAUansi_string@?1??type_case_Z@?$output_processor@DV?$stream_output_adapter@D@__crt_stdio_output@@V?$format_validation_base@DV?$stream_output_adapter@D@__crt_stdio_output@@@2@@1@AAE_NXZ@@Z 1003d1da f i libucrt:output.obj
 0001:0003c1fa       ??$extract_argument_from_va_list@PAUansi_string@?1??type_case_Z@?$output_processor@DV?$stream_output_adapter@D@__crt_stdio_output@@V?$positional_parameter_base@DV?$stream_output_adapter@D@__crt_stdio_output@@@2@@__crt_stdio_output@@AAE_NXZ@PAU1?1??234@AAE_NXZ@@?$positional_parameter_base@DV?$stream_output_adapter@D@__crt_stdio_output@@@__crt_stdio_output@@IAE_NAAPAUansi_string@?1??type_case_Z@?$output_processor@DV?$stream_output_adapter@D@__crt_stdio_output@@V?$positional_parameter_base@DV?$stream_output_adapter@D@__crt_stdio_output@@@2@@1@AAE_NXZ@@Z 1003d1fa f i libucrt:output.obj
 0001:0003c297       ??$extract_argument_from_va_list@PAUansi_string@?1??type_case_Z@?$output_processor@DV?$stream_output_adapter@D@__crt_stdio_output@@V?$positional_parameter_base@DV?$stream_output_adapter@D@__crt_stdio_output@@@2@@__crt_stdio_output@@AAE_NXZ@PAU1?1??234@AAE_NXZ@@?$standard_base@DV?$stream_output_adapter@D@__crt_stdio_output@@@__crt_stdio_output@@IAE_NAAPAUansi_string@?1??type_case_Z@?$output_processor@DV?$stream_output_adapter@D@__crt_stdio_output@@V?$positional_parameter_base@DV?$stream_output_adapter@D@__crt_stdio_output@@@2@@1@AAE_NXZ@@Z 1003d297 f i libucrt:output.obj
 0001:0003c2b7       ??$extract_argument_from_va_list@PAUansi_string@?1??type_case_Z@?$output_processor@DV?$stream_output_adapter@D@__crt_stdio_output@@V?$standard_base@DV?$stream_output_adapter@D@__crt_stdio_output@@@2@@__crt_stdio_output@@AAE_NXZ@PAU1?1??234@AAE_NXZ@@?$standard_base@DV?$stream_output_adapter@D@__crt_stdio_output@@@__crt_stdio_output@@IAE_NAAPAUansi_string@?1??type_case_Z@?$output_processor@DV?$stream_output_adapter@D@__crt_stdio_output@@V?$standard_base@DV?$stream_output_adapter@D@__crt_stdio_output@@@2@@1@AAE_NXZ@@Z 1003d2b7 f i libucrt:output.obj
 0001:0003c2d7       ??$extract_argument_from_va_list@PAUansi_string@?1??type_case_Z@?$output_processor@DV?$string_output_adapter@D@__crt_stdio_output@@V?$format_validation_base@DV?$string_output_adapter@D@__crt_stdio_output@@@2@@__crt_stdio_output@@AAE_NXZ@PAU1?1??234@AAE_NXZ@@?$standard_base@DV?$string_output_adapter@D@__crt_stdio_output@@@__crt_stdio_output@@IAE_NAAPAUansi_string@?1??type_case_Z@?$output_processor@DV?$string_output_adapter@D@__crt_stdio_output@@V?$format_validation_base@DV?$string_output_adapter@D@__crt_stdio_output@@@2@@1@AAE_NXZ@@Z 1003d2d7 f i libucrt:output.obj
 0001:0003c2f7       ??$extract_argument_from_va_list@PAUansi_string@?1??type_case_Z@?$output_processor@DV?$string_output_adapter@D@__crt_stdio_output@@V?$positional_parameter_base@DV?$string_output_adapter@D@__crt_stdio_output@@@2@@__crt_stdio_output@@AAE_NXZ@PAU1?1??234@AAE_NXZ@@?$positional_parameter_base@DV?$string_output_adapter@D@__crt_stdio_output@@@__crt_stdio_output@@IAE_NAAPAUansi_string@?1??type_case_Z@?$output_processor@DV?$string_output_adapter@D@__crt_stdio_output@@V?$positional_parameter_base@DV?$string_output_adapter@D@__crt_stdio_output@@@2@@1@AAE_NXZ@@Z 1003d2f7 f i libucrt:output.obj
 0001:0003c394       ??$extract_argument_from_va_list@PAUansi_string@?1??type_case_Z@?$output_processor@DV?$string_output_adapter@D@__crt_stdio_output@@V?$positional_parameter_base@DV?$string_output_adapter@D@__crt_stdio_output@@@2@@__crt_stdio_output@@AAE_NXZ@PAU1?1??234@AAE_NXZ@@?$standard_base@DV?$string_output_adapter@D@__crt_stdio_output@@@__crt_stdio_output@@IAE_NAAPAUansi_string@?1??type_case_Z@?$output_processor@DV?$string_output_adapter@D@__crt_stdio_output@@V?$positional_parameter_base@DV?$string_output_adapter@D@__crt_stdio_output@@@2@@1@AAE_NXZ@@Z 1003d394 f i libucrt:output.obj
 0001:0003c3b4       ??$extract_argument_from_va_list@PAUansi_string@?1??type_case_Z@?$output_processor@DV?$string_output_adapter@D@__crt_stdio_output@@V?$standard_base@DV?$string_output_adapter@D@__crt_stdio_output@@@2@@__crt_stdio_output@@AAE_NXZ@PAU1?1??234@AAE_NXZ@@?$standard_base@DV?$string_output_adapter@D@__crt_stdio_output@@@__crt_stdio_output@@IAE_NAAPAUansi_string@?1??type_case_Z@?$output_processor@DV?$string_output_adapter@D@__crt_stdio_output@@V?$standard_base@DV?$string_output_adapter@D@__crt_stdio_output@@@2@@1@AAE_NXZ@@Z 1003d3b4 f i libucrt:output.obj
 0001:0003c3d4       ??$extract_argument_from_va_list@PAUansi_string@?1??type_case_Z@?$output_processor@_WV?$stream_output_adapter@_W@__crt_stdio_output@@V?$format_validation_base@_WV?$stream_output_adapter@_W@__crt_stdio_output@@@2@@__crt_stdio_output@@AAE_NXZ@PAU1?1??234@AAE_NXZ@@?$standard_base@_WV?$stream_output_adapter@_W@__crt_stdio_output@@@__crt_stdio_output@@IAE_NAAPAUansi_string@?1??type_case_Z@?$output_processor@_WV?$stream_output_adapter@_W@__crt_stdio_output@@V?$format_validation_base@_WV?$stream_output_adapter@_W@__crt_stdio_output@@@2@@1@AAE_NXZ@@Z 1003d3d4 f i libucrt:output.obj
 0001:0003c3f4       ??$extract_argument_from_va_list@PAUansi_string@?1??type_case_Z@?$output_processor@_WV?$stream_output_adapter@_W@__crt_stdio_output@@V?$positional_parameter_base@_WV?$stream_output_adapter@_W@__crt_stdio_output@@@2@@__crt_stdio_output@@AAE_NXZ@PAU1?1??234@AAE_NXZ@@?$positional_parameter_base@_WV?$stream_output_adapter@_W@__crt_stdio_output@@@__crt_stdio_output@@IAE_NAAPAUansi_string@?1??type_case_Z@?$output_processor@_WV?$stream_output_adapter@_W@__crt_stdio_output@@V?$positional_parameter_base@_WV?$stream_output_adapter@_W@__crt_stdio_output@@@2@@1@AAE_NXZ@@Z 1003d3f4 f i libucrt:output.obj
 0001:0003c491       ??$extract_argument_from_va_list@PAUansi_string@?1??type_case_Z@?$output_processor@_WV?$stream_output_adapter@_W@__crt_stdio_output@@V?$positional_parameter_base@_WV?$stream_output_adapter@_W@__crt_stdio_output@@@2@@__crt_stdio_output@@AAE_NXZ@PAU1?1??234@AAE_NXZ@@?$standard_base@_WV?$stream_output_adapter@_W@__crt_stdio_output@@@__crt_stdio_output@@IAE_NAAPAUansi_string@?1??type_case_Z@?$output_processor@_WV?$stream_output_adapter@_W@__crt_stdio_output@@V?$positional_parameter_base@_WV?$stream_output_adapter@_W@__crt_stdio_output@@@2@@1@AAE_NXZ@@Z 1003d491 f i libucrt:output.obj
 0001:0003c4b1       ??$extract_argument_from_va_list@PAUansi_string@?1??type_case_Z@?$output_processor@_WV?$stream_output_adapter@_W@__crt_stdio_output@@V?$standard_base@_WV?$stream_output_adapter@_W@__crt_stdio_output@@@2@@__crt_stdio_output@@AAE_NXZ@PAU1?1??234@AAE_NXZ@@?$standard_base@_WV?$stream_output_adapter@_W@__crt_stdio_output@@@__crt_stdio_output@@IAE_NAAPAUansi_string@?1??type_case_Z@?$output_processor@_WV?$stream_output_adapter@_W@__crt_stdio_output@@V?$standard_base@_WV?$stream_output_adapter@_W@__crt_stdio_output@@@2@@1@AAE_NXZ@@Z 1003d4b1 f i libucrt:output.obj
 0001:0003c4d1       ??$extract_argument_from_va_list@PAUansi_string@?1??type_case_Z@?$output_processor@_WV?$string_output_adapter@_W@__crt_stdio_output@@V?$format_validation_base@_WV?$string_output_adapter@_W@__crt_stdio_output@@@2@@__crt_stdio_output@@AAE_NXZ@PAU1?1??234@AAE_NXZ@@?$standard_base@_WV?$string_output_adapter@_W@__crt_stdio_output@@@__crt_stdio_output@@IAE_NAAPAUansi_string@?1??type_case_Z@?$output_processor@_WV?$string_output_adapter@_W@__crt_stdio_output@@V?$format_validation_base@_WV?$string_output_adapter@_W@__crt_stdio_output@@@2@@1@AAE_NXZ@@Z 1003d4d1 f i libucrt:output.obj
 0001:0003c4f1       ??$extract_argument_from_va_list@PAUansi_string@?1??type_case_Z@?$output_processor@_WV?$string_output_adapter@_W@__crt_stdio_output@@V?$positional_parameter_base@_WV?$string_output_adapter@_W@__crt_stdio_output@@@2@@__crt_stdio_output@@AAE_NXZ@PAU1?1??234@AAE_NXZ@@?$positional_parameter_base@_WV?$string_output_adapter@_W@__crt_stdio_output@@@__crt_stdio_output@@IAE_NAAPAUansi_string@?1??type_case_Z@?$output_processor@_WV?$string_output_adapter@_W@__crt_stdio_output@@V?$positional_parameter_base@_WV?$string_output_adapter@_W@__crt_stdio_output@@@2@@1@AAE_NXZ@@Z 1003d4f1 f i libucrt:output.obj
 0001:0003c58e       ??$extract_argument_from_va_list@PAUansi_string@?1??type_case_Z@?$output_processor@_WV?$string_output_adapter@_W@__crt_stdio_output@@V?$positional_parameter_base@_WV?$string_output_adapter@_W@__crt_stdio_output@@@2@@__crt_stdio_output@@AAE_NXZ@PAU1?1??234@AAE_NXZ@@?$standard_base@_WV?$string_output_adapter@_W@__crt_stdio_output@@@__crt_stdio_output@@IAE_NAAPAUansi_string@?1??type_case_Z@?$output_processor@_WV?$string_output_adapter@_W@__crt_stdio_output@@V?$positional_parameter_base@_WV?$string_output_adapter@_W@__crt_stdio_output@@@2@@1@AAE_NXZ@@Z 1003d58e f i libucrt:output.obj
 0001:0003c5ae       ??$extract_argument_from_va_list@PAUansi_string@?1??type_case_Z@?$output_processor@_WV?$string_output_adapter@_W@__crt_stdio_output@@V?$standard_base@_WV?$string_output_adapter@_W@__crt_stdio_output@@@2@@__crt_stdio_output@@AAE_NXZ@PAU1?1??234@AAE_NXZ@@?$standard_base@_WV?$string_output_adapter@_W@__crt_stdio_output@@@__crt_stdio_output@@IAE_NAAPAUansi_string@?1??type_case_Z@?$output_processor@_WV?$string_output_adapter@_W@__crt_stdio_output@@V?$standard_base@_WV?$string_output_adapter@_W@__crt_stdio_output@@@2@@1@AAE_NXZ@@Z 1003d5ae f i libucrt:output.obj
 0001:0003c5ce       ??$extract_argument_from_va_list@PAXPAX@?$positional_parameter_base@DV?$stream_output_adapter@D@__crt_stdio_output@@@__crt_stdio_output@@IAE_NAAPAX@Z 1003d5ce f i libucrt:output.obj
 0001:0003c66b       ??$extract_argument_from_va_list@PAXPAX@?$positional_parameter_base@DV?$string_output_adapter@D@__crt_stdio_output@@@__crt_stdio_output@@IAE_NAAPAX@Z 1003d66b f i libucrt:output.obj
 0001:0003c708       ??$extract_argument_from_va_list@PAXPAX@?$positional_parameter_base@_WV?$stream_output_adapter@_W@__crt_stdio_output@@@__crt_stdio_output@@IAE_NAAPAX@Z 1003d708 f i libucrt:output.obj
 0001:0003c7a5       ??$extract_argument_from_va_list@PAXPAX@?$positional_parameter_base@_WV?$string_output_adapter@_W@__crt_stdio_output@@@__crt_stdio_output@@IAE_NAAPAX@Z 1003d7a5 f i libucrt:output.obj
 0001:0003c842       ??$extract_argument_from_va_list@PAXPAX@?$standard_base@DV?$stream_output_adapter@D@__crt_stdio_output@@@__crt_stdio_output@@IAE_NAAPAX@Z 1003d842 f i libucrt:output.obj
 0001:0003c862       ??$extract_argument_from_va_list@PAXPAX@?$standard_base@DV?$string_output_adapter@D@__crt_stdio_output@@@__crt_stdio_output@@IAE_NAAPAX@Z 1003d862 f i libucrt:output.obj
 0001:0003c882       ??$extract_argument_from_va_list@PAXPAX@?$standard_base@_WV?$stream_output_adapter@_W@__crt_stdio_output@@@__crt_stdio_output@@IAE_NAAPAX@Z 1003d882 f i libucrt:output.obj
 0001:0003c8a2       ??$extract_argument_from_va_list@PAXPAX@?$standard_base@_WV?$string_output_adapter@_W@__crt_stdio_output@@@__crt_stdio_output@@IAE_NAAPAX@Z 1003d8a2 f i libucrt:output.obj
 0001:0003c8c2       ??$extract_argument_from_va_list@U_CRT_DOUBLE@@U1@@?$positional_parameter_base@DV?$stream_output_adapter@D@__crt_stdio_output@@@__crt_stdio_output@@IAE_NAAU_CRT_DOUBLE@@@Z 1003d8c2 f i libucrt:output.obj
 0001:0003c973       ??$extract_argument_from_va_list@U_CRT_DOUBLE@@U1@@?$positional_parameter_base@DV?$string_output_adapter@D@__crt_stdio_output@@@__crt_stdio_output@@IAE_NAAU_CRT_DOUBLE@@@Z 1003d973 f i libucrt:output.obj
 0001:0003ca24       ??$extract_argument_from_va_list@U_CRT_DOUBLE@@U1@@?$positional_parameter_base@_WV?$stream_output_adapter@_W@__crt_stdio_output@@@__crt_stdio_output@@IAE_NAAU_CRT_DOUBLE@@@Z 1003da24 f i libucrt:output.obj
 0001:0003cad5       ??$extract_argument_from_va_list@U_CRT_DOUBLE@@U1@@?$positional_parameter_base@_WV?$string_output_adapter@_W@__crt_stdio_output@@@__crt_stdio_output@@IAE_NAAU_CRT_DOUBLE@@@Z 1003dad5 f i libucrt:output.obj
 0001:0003cb86       ??$extract_argument_from_va_list@U_CRT_DOUBLE@@U1@@?$standard_base@DV?$stream_output_adapter@D@__crt_stdio_output@@@__crt_stdio_output@@IAE_NAAU_CRT_DOUBLE@@@Z 1003db86 f i libucrt:output.obj
 0001:0003cbae       ??$extract_argument_from_va_list@U_CRT_DOUBLE@@U1@@?$standard_base@DV?$string_output_adapter@D@__crt_stdio_output@@@__crt_stdio_output@@IAE_NAAU_CRT_DOUBLE@@@Z 1003dbae f i libucrt:output.obj
 0001:0003cbd6       ??$extract_argument_from_va_list@U_CRT_DOUBLE@@U1@@?$standard_base@_WV?$stream_output_adapter@_W@__crt_stdio_output@@@__crt_stdio_output@@IAE_NAAU_CRT_DOUBLE@@@Z 1003dbd6 f i libucrt:output.obj
 0001:0003cbfe       ??$extract_argument_from_va_list@U_CRT_DOUBLE@@U1@@?$standard_base@_WV?$string_output_adapter@_W@__crt_stdio_output@@@__crt_stdio_output@@IAE_NAAU_CRT_DOUBLE@@@Z 1003dbfe f i libucrt:output.obj
 0001:0003cc26       ??$extract_argument_from_va_list@_J_J@?$positional_parameter_base@DV?$stream_output_adapter@D@__crt_stdio_output@@@__crt_stdio_output@@IAE_NAA_J@Z 1003dc26 f i libucrt:output.obj
 0001:0003ccd7       ??$extract_argument_from_va_list@_J_J@?$positional_parameter_base@DV?$string_output_adapter@D@__crt_stdio_output@@@__crt_stdio_output@@IAE_NAA_J@Z 1003dcd7 f i libucrt:output.obj
 0001:0003cd88       ??$extract_argument_from_va_list@_J_J@?$positional_parameter_base@_WV?$stream_output_adapter@_W@__crt_stdio_output@@@__crt_stdio_output@@IAE_NAA_J@Z 1003dd88 f i libucrt:output.obj
 0001:0003ce39       ??$extract_argument_from_va_list@_J_J@?$positional_parameter_base@_WV?$string_output_adapter@_W@__crt_stdio_output@@@__crt_stdio_output@@IAE_NAA_J@Z 1003de39 f i libucrt:output.obj
 0001:0003ceea       ??$extract_argument_from_va_list@_J_J@?$standard_base@DV?$stream_output_adapter@D@__crt_stdio_output@@@__crt_stdio_output@@IAE_NAA_J@Z 1003deea f i libucrt:output.obj
 0001:0003cf12       ??$extract_argument_from_va_list@_J_J@?$standard_base@DV?$string_output_adapter@D@__crt_stdio_output@@@__crt_stdio_output@@IAE_NAA_J@Z 1003df12 f i libucrt:output.obj
 0001:0003cf3a       ??$extract_argument_from_va_list@_J_J@?$standard_base@_WV?$stream_output_adapter@_W@__crt_stdio_output@@@__crt_stdio_output@@IAE_NAA_J@Z 1003df3a f i libucrt:output.obj
 0001:0003cf62       ??$extract_argument_from_va_list@_J_J@?$standard_base@_WV?$string_output_adapter@_W@__crt_stdio_output@@@__crt_stdio_output@@IAE_NAA_J@Z 1003df62 f i libucrt:output.obj
 0001:0003cf8a       ??$extract_argument_from_va_list@_K_J@?$positional_parameter_base@DV?$stream_output_adapter@D@__crt_stdio_output@@@__crt_stdio_output@@IAE_NAA_J@Z 1003df8a f i libucrt:output.obj
 0001:0003d03b       ??$extract_argument_from_va_list@_K_J@?$positional_parameter_base@DV?$string_output_adapter@D@__crt_stdio_output@@@__crt_stdio_output@@IAE_NAA_J@Z 1003e03b f i libucrt:output.obj
 0001:0003d0ec       ??$extract_argument_from_va_list@_K_J@?$positional_parameter_base@_WV?$stream_output_adapter@_W@__crt_stdio_output@@@__crt_stdio_output@@IAE_NAA_J@Z 1003e0ec f i libucrt:output.obj
 0001:0003d19d       ??$extract_argument_from_va_list@_K_J@?$positional_parameter_base@_WV?$string_output_adapter@_W@__crt_stdio_output@@@__crt_stdio_output@@IAE_NAA_J@Z 1003e19d f i libucrt:output.obj
 0001:0003d24e       ??$extract_argument_from_va_list@_K_J@?$standard_base@DV?$stream_output_adapter@D@__crt_stdio_output@@@__crt_stdio_output@@IAE_NAA_J@Z 1003e24e f i libucrt:output.obj
 0001:0003d276       ??$extract_argument_from_va_list@_K_J@?$standard_base@DV?$string_output_adapter@D@__crt_stdio_output@@@__crt_stdio_output@@IAE_NAA_J@Z 1003e276 f i libucrt:output.obj
 0001:0003d29e       ??$extract_argument_from_va_list@_K_J@?$standard_base@_WV?$stream_output_adapter@_W@__crt_stdio_output@@@__crt_stdio_output@@IAE_NAA_J@Z 1003e29e f i libucrt:output.obj
 0001:0003d2c6       ??$extract_argument_from_va_list@_K_J@?$standard_base@_WV?$string_output_adapter@_W@__crt_stdio_output@@@__crt_stdio_output@@IAE_NAA_J@Z 1003e2c6 f i libucrt:output.obj
 0001:0003d2ee       ??$extract_argument_from_va_list@_W_W@?$positional_parameter_base@DV?$stream_output_adapter@D@__crt_stdio_output@@@__crt_stdio_output@@IAE_NAA_W@Z 1003e2ee f i libucrt:output.obj
 0001:0003d390       ??$extract_argument_from_va_list@_W_W@?$positional_parameter_base@DV?$string_output_adapter@D@__crt_stdio_output@@@__crt_stdio_output@@IAE_NAA_W@Z 1003e390 f i libucrt:output.obj
 0001:0003d432       ??$extract_argument_from_va_list@_W_W@?$positional_parameter_base@_WV?$stream_output_adapter@_W@__crt_stdio_output@@@__crt_stdio_output@@IAE_NAA_W@Z 1003e432 f i libucrt:output.obj
 0001:0003d4d4       ??$extract_argument_from_va_list@_W_W@?$positional_parameter_base@_WV?$string_output_adapter@_W@__crt_stdio_output@@@__crt_stdio_output@@IAE_NAA_W@Z 1003e4d4 f i libucrt:output.obj
 0001:0003d576       ??$extract_argument_from_va_list@_W_W@?$standard_base@DV?$stream_output_adapter@D@__crt_stdio_output@@@__crt_stdio_output@@IAE_NAA_W@Z 1003e576 f i libucrt:output.obj
 0001:0003d599       ??$extract_argument_from_va_list@_W_W@?$standard_base@DV?$string_output_adapter@D@__crt_stdio_output@@@__crt_stdio_output@@IAE_NAA_W@Z 1003e599 f i libucrt:output.obj
 0001:0003d5bc       ??$extract_argument_from_va_list@_W_W@?$standard_base@_WV?$stream_output_adapter@_W@__crt_stdio_output@@@__crt_stdio_output@@IAE_NAA_W@Z 1003e5bc f i libucrt:output.obj
 0001:0003d5df       ??$extract_argument_from_va_list@_W_W@?$standard_base@_WV?$string_output_adapter@_W@__crt_stdio_output@@@__crt_stdio_output@@IAE_NAA_W@Z 1003e5df f i libucrt:output.obj
 0001:0003d602       ??$get_parameter_type@D@?$positional_parameter_base@DV?$stream_output_adapter@D@__crt_stdio_output@@@__crt_stdio_output@@CA?AW4parameter_type@01@PAD@Z 1003e602 f i libucrt:output.obj
 0001:0003d606       ??$get_parameter_type@D@?$positional_parameter_base@DV?$string_output_adapter@D@__crt_stdio_output@@@__crt_stdio_output@@CA?AW4parameter_type@01@PAD@Z 1003e606 f i libucrt:output.obj
 0001:0003d60a       ??$get_parameter_type@D@?$positional_parameter_base@_WV?$stream_output_adapter@_W@__crt_stdio_output@@@__crt_stdio_output@@CA?AW4parameter_type@01@PAD@Z 1003e60a f i libucrt:output.obj
 0001:0003d60e       ??$get_parameter_type@D@?$positional_parameter_base@_WV?$string_output_adapter@_W@__crt_stdio_output@@@__crt_stdio_output@@CA?AW4parameter_type@01@PAD@Z 1003e60e f i libucrt:output.obj
 0001:0003d612       ??$get_parameter_type@Uansi_string@?1??type_case_Z@?$output_processor@DV?$stream_output_adapter@D@__crt_stdio_output@@V?$positional_parameter_base@DV?$stream_output_adapter@D@__crt_stdio_output@@@2@@__crt_stdio_output@@AAE_NXZ@@?$positional_parameter_base@DV?$stream_output_adapter@D@__crt_stdio_output@@@__crt_stdio_output@@CA?AW4parameter_type@01@PAUansi_string@?1??type_case_Z@?$output_processor@DV?$stream_output_adapter@D@__crt_stdio_output@@V?$positional_parameter_base@DV?$stream_output_adapter@D@__crt_stdio_output@@@2@@1@AAE_NXZ@@Z 1003e612 f i libucrt:output.obj
 0001:0003d616       ??$get_parameter_type@Uansi_string@?1??type_case_Z@?$output_processor@DV?$string_output_adapter@D@__crt_stdio_output@@V?$positional_parameter_base@DV?$string_output_adapter@D@__crt_stdio_output@@@2@@__crt_stdio_output@@AAE_NXZ@@?$positional_parameter_base@DV?$string_output_adapter@D@__crt_stdio_output@@@__crt_stdio_output@@CA?AW4parameter_type@01@PAUansi_string@?1??type_case_Z@?$output_processor@DV?$string_output_adapter@D@__crt_stdio_output@@V?$positional_parameter_base@DV?$string_output_adapter@D@__crt_stdio_output@@@2@@1@AAE_NXZ@@Z 1003e616 f i libucrt:output.obj
 0001:0003d61a       ??$get_parameter_type@Uansi_string@?1??type_case_Z@?$output_processor@_WV?$stream_output_adapter@_W@__crt_stdio_output@@V?$positional_parameter_base@_WV?$stream_output_adapter@_W@__crt_stdio_output@@@2@@__crt_stdio_output@@AAE_NXZ@@?$positional_parameter_base@_WV?$stream_output_adapter@_W@__crt_stdio_output@@@__crt_stdio_output@@CA?AW4parameter_type@01@PAUansi_string@?1??type_case_Z@?$output_processor@_WV?$stream_output_adapter@_W@__crt_stdio_output@@V?$positional_parameter_base@_WV?$stream_output_adapter@_W@__crt_stdio_output@@@2@@1@AAE_NXZ@@Z 1003e61a f i libucrt:output.obj
 0001:0003d61e       ??$get_parameter_type@Uansi_string@?1??type_case_Z@?$output_processor@_WV?$string_output_adapter@_W@__crt_stdio_output@@V?$positional_parameter_base@_WV?$string_output_adapter@_W@__crt_stdio_output@@@2@@__crt_stdio_output@@AAE_NXZ@@?$positional_parameter_base@_WV?$string_output_adapter@_W@__crt_stdio_output@@@__crt_stdio_output@@CA?AW4parameter_type@01@PAUansi_string@?1??type_case_Z@?$output_processor@_WV?$string_output_adapter@_W@__crt_stdio_output@@V?$positional_parameter_base@_WV?$string_output_adapter@_W@__crt_stdio_output@@@2@@1@AAE_NXZ@@Z 1003e61e f i libucrt:output.obj
 0001:0003d622       ??$get_parameter_type@X@?$positional_parameter_base@DV?$stream_output_adapter@D@__crt_stdio_output@@@__crt_stdio_output@@CA?AW4parameter_type@01@PAX@Z 1003e622 f i libucrt:output.obj
 0001:0003d626       ??$get_parameter_type@X@?$positional_parameter_base@DV?$string_output_adapter@D@__crt_stdio_output@@@__crt_stdio_output@@CA?AW4parameter_type@01@PAX@Z 1003e626 f i libucrt:output.obj
 0001:0003d62a       ??$get_parameter_type@X@?$positional_parameter_base@_WV?$stream_output_adapter@_W@__crt_stdio_output@@@__crt_stdio_output@@CA?AW4parameter_type@01@PAX@Z 1003e62a f i libucrt:output.obj
 0001:0003d62e       ??$get_parameter_type@X@?$positional_parameter_base@_WV?$string_output_adapter@_W@__crt_stdio_output@@@__crt_stdio_output@@CA?AW4parameter_type@01@PAX@Z 1003e62e f i libucrt:output.obj
 0001:0003d632       ??$is_character_specifier@D@?$positional_parameter_base@DV?$stream_output_adapter@D@__crt_stdio_output@@@__crt_stdio_output@@CA_ND@Z 1003e632 f i libucrt:output.obj
 0001:0003d651       ??$is_character_specifier@D@?$positional_parameter_base@DV?$string_output_adapter@D@__crt_stdio_output@@@__crt_stdio_output@@CA_ND@Z 1003e651 f i libucrt:output.obj
 0001:0003d670       ??$is_character_specifier@_W@?$positional_parameter_base@_WV?$stream_output_adapter@_W@__crt_stdio_output@@@__crt_stdio_output@@CA_N_W@Z 1003e670 f i libucrt:output.obj
 0001:0003d693       ??$is_character_specifier@_W@?$positional_parameter_base@_WV?$string_output_adapter@_W@__crt_stdio_output@@@__crt_stdio_output@@CA_N_W@Z 1003e693 f i libucrt:output.obj
 0001:0003d6b6       ??$is_integral_specifier@D@?$positional_parameter_base@DV?$stream_output_adapter@D@__crt_stdio_output@@@__crt_stdio_output@@CA_ND@Z 1003e6b6 f i libucrt:output.obj
 0001:0003d6ee       ??$is_integral_specifier@D@?$positional_parameter_base@DV?$string_output_adapter@D@__crt_stdio_output@@@__crt_stdio_output@@CA_ND@Z 1003e6ee f i libucrt:output.obj
 0001:0003d726       ??$is_integral_specifier@_W@?$positional_parameter_base@_WV?$stream_output_adapter@_W@__crt_stdio_output@@@__crt_stdio_output@@CA_N_W@Z 1003e726 f i libucrt:output.obj
 0001:0003d771       ??$is_integral_specifier@_W@?$positional_parameter_base@_WV?$string_output_adapter@_W@__crt_stdio_output@@@__crt_stdio_output@@CA_N_W@Z 1003e771 f i libucrt:output.obj
 0001:0003d7bc       ??$is_pointer_specifier@D@?$positional_parameter_base@DV?$stream_output_adapter@D@__crt_stdio_output@@@__crt_stdio_output@@CA_ND@Z 1003e7bc f i libucrt:output.obj
 0001:0003d7d0       ??$is_pointer_specifier@D@?$positional_parameter_base@DV?$string_output_adapter@D@__crt_stdio_output@@@__crt_stdio_output@@CA_ND@Z 1003e7d0 f i libucrt:output.obj
 0001:0003d7e4       ??$is_pointer_specifier@_W@?$positional_parameter_base@_WV?$stream_output_adapter@_W@__crt_stdio_output@@@__crt_stdio_output@@CA_N_W@Z 1003e7e4 f i libucrt:output.obj
 0001:0003d7f9       ??$is_pointer_specifier@_W@?$positional_parameter_base@_WV?$string_output_adapter@_W@__crt_stdio_output@@@__crt_stdio_output@@CA_N_W@Z 1003e7f9 f i libucrt:output.obj
 0001:0003d80e       ??$is_string_specifier@D@?$positional_parameter_base@DV?$stream_output_adapter@D@__crt_stdio_output@@@__crt_stdio_output@@CA_ND@Z 1003e80e f i libucrt:output.obj
 0001:0003d82d       ??$is_string_specifier@D@?$positional_parameter_base@DV?$string_output_adapter@D@__crt_stdio_output@@@__crt_stdio_output@@CA_ND@Z 1003e82d f i libucrt:output.obj
 0001:0003d84c       ??$is_string_specifier@_W@?$positional_parameter_base@_WV?$stream_output_adapter@_W@__crt_stdio_output@@@__crt_stdio_output@@CA_N_W@Z 1003e84c f i libucrt:output.obj
 0001:0003d86f       ??$is_string_specifier@_W@?$positional_parameter_base@_WV?$string_output_adapter@_W@__crt_stdio_output@@@__crt_stdio_output@@CA_N_W@Z 1003e86f f i libucrt:output.obj
 0001:0003d892       ??$is_wide_character_specifier@D@__crt_stdio_output@@YA_N_KDW4length_modifier@0@@Z 1003e892 f i libucrt:output.obj
 0001:0003d8e2       ??$is_wide_character_specifier@_W@__crt_stdio_output@@YA_N_K_WW4length_modifier@0@@Z 1003e8e2 f i libucrt:output.obj
 0001:0003d944       ??$peek_va_arg@C@__crt_stdio_output@@YACPAD@Z 1003e944 f i libucrt:output.obj
 0001:0003d953       ??$peek_va_arg@E@__crt_stdio_output@@YAEPAD@Z 1003e953 f i libucrt:output.obj
 0001:0003d962       ??$peek_va_arg@F@__crt_stdio_output@@YAFPAD@Z 1003e962 f i libucrt:output.obj
 0001:0003d972       ??$peek_va_arg@G@__crt_stdio_output@@YAGPAD@Z 1003e972 f i libucrt:output.obj
 0001:0003d982       ??$peek_va_arg@H@__crt_stdio_output@@YAHPAD@Z 1003e982 f i libucrt:output.obj
 0001:0003d991       ??$peek_va_arg@I@__crt_stdio_output@@YAIPAD@Z 1003e991 f i libucrt:output.obj
 0001:0003d9a0       ??$peek_va_arg@PAD@__crt_stdio_output@@YAPADPAD@Z 1003e9a0 f i libucrt:output.obj
 0001:0003d9af       ??$peek_va_arg@PAUansi_string@?1??type_case_Z@?$output_processor@DV?$stream_output_adapter@D@__crt_stdio_output@@V?$positional_parameter_base@DV?$stream_output_adapter@D@__crt_stdio_output@@@2@@__crt_stdio_output@@AAE_NXZ@@__crt_stdio_output@@YAPAUansi_string@?1??type_case_Z@?$output_processor@DV?$stream_output_adapter@D@__crt_stdio_output@@V?$positional_parameter_base@DV?$stream_output_adapter@D@__crt_stdio_output@@@2@@0@AAE_NXZ@PAD@Z 1003e9af f i libucrt:output.obj
 0001:0003d9be       ??$peek_va_arg@PAUansi_string@?1??type_case_Z@?$output_processor@DV?$string_output_adapter@D@__crt_stdio_output@@V?$positional_parameter_base@DV?$string_output_adapter@D@__crt_stdio_output@@@2@@__crt_stdio_output@@AAE_NXZ@@__crt_stdio_output@@YAPAUansi_string@?1??type_case_Z@?$output_processor@DV?$string_output_adapter@D@__crt_stdio_output@@V?$positional_parameter_base@DV?$string_output_adapter@D@__crt_stdio_output@@@2@@0@AAE_NXZ@PAD@Z 1003e9be f i libucrt:output.obj
 0001:0003d9cd       ??$peek_va_arg@PAUansi_string@?1??type_case_Z@?$output_processor@_WV?$stream_output_adapter@_W@__crt_stdio_output@@V?$positional_parameter_base@_WV?$stream_output_adapter@_W@__crt_stdio_output@@@2@@__crt_stdio_output@@AAE_NXZ@@__crt_stdio_output@@YAPAUansi_string@?1??type_case_Z@?$output_processor@_WV?$stream_output_adapter@_W@__crt_stdio_output@@V?$positional_parameter_base@_WV?$stream_output_adapter@_W@__crt_stdio_output@@@2@@0@AAE_NXZ@PAD@Z 1003e9cd f i libucrt:output.obj
 0001:0003d9dc       ??$peek_va_arg@PAUansi_string@?1??type_case_Z@?$output_processor@_WV?$string_output_adapter@_W@__crt_stdio_output@@V?$positional_parameter_base@_WV?$string_output_adapter@_W@__crt_stdio_output@@@2@@__crt_stdio_output@@AAE_NXZ@@__crt_stdio_output@@YAPAUansi_string@?1??type_case_Z@?$output_processor@_WV?$string_output_adapter@_W@__crt_stdio_output@@V?$positional_parameter_base@_WV?$string_output_adapter@_W@__crt_stdio_output@@@2@@0@AAE_NXZ@PAD@Z 1003e9dc f i libucrt:output.obj
 0001:0003d9eb       ??$peek_va_arg@PAX@__crt_stdio_output@@YAPAXPAD@Z 1003e9eb f i libucrt:output.obj
 0001:0003d9fa       ??$peek_va_arg@U_CRT_DOUBLE@@@__crt_stdio_output@@YA?AU_CRT_DOUBLE@@PAD@Z 1003e9fa f i libucrt:output.obj
 0001:0003da0c       ??$peek_va_arg@_J@__crt_stdio_output@@YA_JPAD@Z 1003ea0c f i libucrt:output.obj
 0001:0003da1e       ??$peek_va_arg@_K@__crt_stdio_output@@YA_KPAD@Z 1003ea1e f i libucrt:output.obj
 0001:0003da30       ??$peek_va_arg@_W@__crt_stdio_output@@YA_WPAD@Z 1003ea30 f i libucrt:output.obj
 0001:0003da40       ??$puttc_nolock@ABDPAU_iobuf@@@?$__crt_char_traits@D@@SAHABD$$QAPAU_iobuf@@@Z 1003ea40 f i libucrt:output.obj
 0001:0003da60       ??$puttc_nolock@AB_WPAU_iobuf@@@?$__crt_char_traits@_W@@SAGAB_W$$QAPAU_iobuf@@@Z 1003ea60 f i libucrt:output.obj
 0001:0003da80       ??$read_va_arg@C@__crt_stdio_output@@YACAAPAD@Z 1003ea80 f i libucrt:output.obj
 0001:0003da96       ??$read_va_arg@E@__crt_stdio_output@@YAEAAPAD@Z 1003ea96 f i libucrt:output.obj
 0001:0003daac       ??$read_va_arg@F@__crt_stdio_output@@YAFAAPAD@Z 1003eaac f i libucrt:output.obj
 0001:0003dac3       ??$read_va_arg@G@__crt_stdio_output@@YAGAAPAD@Z 1003eac3 f i libucrt:output.obj
 0001:0003dada       ??$read_va_arg@H@__crt_stdio_output@@YAHAAPAD@Z 1003eada f i libucrt:output.obj
 0001:0003daf0       ??$read_va_arg@I@__crt_stdio_output@@YAIAAPAD@Z 1003eaf0 f i libucrt:output.obj
 0001:0003db06       ??$read_va_arg@PAD@__crt_stdio_output@@YAPADAAPAD@Z 1003eb06 f i libucrt:output.obj
 0001:0003db1c       ??$read_va_arg@PAUansi_string@?1??type_case_Z@?$output_processor@DV?$stream_output_adapter@D@__crt_stdio_output@@V?$format_validation_base@DV?$stream_output_adapter@D@__crt_stdio_output@@@2@@__crt_stdio_output@@AAE_NXZ@@__crt_stdio_output@@YAPAUansi_string@?1??type_case_Z@?$output_processor@DV?$stream_output_adapter@D@__crt_stdio_output@@V?$format_validation_base@DV?$stream_output_adapter@D@__crt_stdio_output@@@2@@0@AAE_NXZ@AAPAD@Z 1003eb1c f i libucrt:output.obj
 0001:0003db32       ??$read_va_arg@PAUansi_string@?1??type_case_Z@?$output_processor@DV?$stream_output_adapter@D@__crt_stdio_output@@V?$positional_parameter_base@DV?$stream_output_adapter@D@__crt_stdio_output@@@2@@__crt_stdio_output@@AAE_NXZ@@__crt_stdio_output@@YAPAUansi_string@?1??type_case_Z@?$output_processor@DV?$stream_output_adapter@D@__crt_stdio_output@@V?$positional_parameter_base@DV?$stream_output_adapter@D@__crt_stdio_output@@@2@@0@AAE_NXZ@AAPAD@Z 1003eb32 f i libucrt:output.obj
 0001:0003db48       ??$read_va_arg@PAUansi_string@?1??type_case_Z@?$output_processor@DV?$stream_output_adapter@D@__crt_stdio_output@@V?$standard_base@DV?$stream_output_adapter@D@__crt_stdio_output@@@2@@__crt_stdio_output@@AAE_NXZ@@__crt_stdio_output@@YAPAUansi_string@?1??type_case_Z@?$output_processor@DV?$stream_output_adapter@D@__crt_stdio_output@@V?$standard_base@DV?$stream_output_adapter@D@__crt_stdio_output@@@2@@0@AAE_NXZ@AAPAD@Z 1003eb48 f i libucrt:output.obj
 0001:0003db5e       ??$read_va_arg@PAUansi_string@?1??type_case_Z@?$output_processor@DV?$string_output_adapter@D@__crt_stdio_output@@V?$format_validation_base@DV?$string_output_adapter@D@__crt_stdio_output@@@2@@__crt_stdio_output@@AAE_NXZ@@__crt_stdio_output@@YAPAUansi_string@?1??type_case_Z@?$output_processor@DV?$string_output_adapter@D@__crt_stdio_output@@V?$format_validation_base@DV?$string_output_adapter@D@__crt_stdio_output@@@2@@0@AAE_NXZ@AAPAD@Z 1003eb5e f i libucrt:output.obj
 0001:0003db74       ??$read_va_arg@PAUansi_string@?1??type_case_Z@?$output_processor@DV?$string_output_adapter@D@__crt_stdio_output@@V?$positional_parameter_base@DV?$string_output_adapter@D@__crt_stdio_output@@@2@@__crt_stdio_output@@AAE_NXZ@@__crt_stdio_output@@YAPAUansi_string@?1??type_case_Z@?$output_processor@DV?$string_output_adapter@D@__crt_stdio_output@@V?$positional_parameter_base@DV?$string_output_adapter@D@__crt_stdio_output@@@2@@0@AAE_NXZ@AAPAD@Z 1003eb74 f i libucrt:output.obj
 0001:0003db8a       ??$read_va_arg@PAUansi_string@?1??type_case_Z@?$output_processor@DV?$string_output_adapter@D@__crt_stdio_output@@V?$standard_base@DV?$string_output_adapter@D@__crt_stdio_output@@@2@@__crt_stdio_output@@AAE_NXZ@@__crt_stdio_output@@YAPAUansi_string@?1??type_case_Z@?$output_processor@DV?$string_output_adapter@D@__crt_stdio_output@@V?$standard_base@DV?$string_output_adapter@D@__crt_stdio_output@@@2@@0@AAE_NXZ@AAPAD@Z 1003eb8a f i libucrt:output.obj
 0001:0003dba0       ??$read_va_arg@PAUansi_string@?1??type_case_Z@?$output_processor@_WV?$stream_output_adapter@_W@__crt_stdio_output@@V?$format_validation_base@_WV?$stream_output_adapter@_W@__crt_stdio_output@@@2@@__crt_stdio_output@@AAE_NXZ@@__crt_stdio_output@@YAPAUansi_string@?1??type_case_Z@?$output_processor@_WV?$stream_output_adapter@_W@__crt_stdio_output@@V?$format_validation_base@_WV?$stream_output_adapter@_W@__crt_stdio_output@@@2@@0@AAE_NXZ@AAPAD@Z 1003eba0 f i libucrt:output.obj
 0001:0003dbb6       ??$read_va_arg@PAUansi_string@?1??type_case_Z@?$output_processor@_WV?$stream_output_adapter@_W@__crt_stdio_output@@V?$positional_parameter_base@_WV?$stream_output_adapter@_W@__crt_stdio_output@@@2@@__crt_stdio_output@@AAE_NXZ@@__crt_stdio_output@@YAPAUansi_string@?1??type_case_Z@?$output_processor@_WV?$stream_output_adapter@_W@__crt_stdio_output@@V?$positional_parameter_base@_WV?$stream_output_adapter@_W@__crt_stdio_output@@@2@@0@AAE_NXZ@AAPAD@Z 1003ebb6 f i libucrt:output.obj
 0001:0003dbcc       ??$read_va_arg@PAUansi_string@?1??type_case_Z@?$output_processor@_WV?$stream_output_adapter@_W@__crt_stdio_output@@V?$standard_base@_WV?$stream_output_adapter@_W@__crt_stdio_output@@@2@@__crt_stdio_output@@AAE_NXZ@@__crt_stdio_output@@YAPAUansi_string@?1??type_case_Z@?$output_processor@_WV?$stream_output_adapter@_W@__crt_stdio_output@@V?$standard_base@_WV?$stream_output_adapter@_W@__crt_stdio_output@@@2@@0@AAE_NXZ@AAPAD@Z 1003ebcc f i libucrt:output.obj
 0001:0003dbe2       ??$read_va_arg@PAUansi_string@?1??type_case_Z@?$output_processor@_WV?$string_output_adapter@_W@__crt_stdio_output@@V?$format_validation_base@_WV?$string_output_adapter@_W@__crt_stdio_output@@@2@@__crt_stdio_output@@AAE_NXZ@@__crt_stdio_output@@YAPAUansi_string@?1??type_case_Z@?$output_processor@_WV?$string_output_adapter@_W@__crt_stdio_output@@V?$format_validation_base@_WV?$string_output_adapter@_W@__crt_stdio_output@@@2@@0@AAE_NXZ@AAPAD@Z 1003ebe2 f i libucrt:output.obj
 0001:0003dbf8       ??$read_va_arg@PAUansi_string@?1??type_case_Z@?$output_processor@_WV?$string_output_adapter@_W@__crt_stdio_output@@V?$positional_parameter_base@_WV?$string_output_adapter@_W@__crt_stdio_output@@@2@@__crt_stdio_output@@AAE_NXZ@@__crt_stdio_output@@YAPAUansi_string@?1??type_case_Z@?$output_processor@_WV?$string_output_adapter@_W@__crt_stdio_output@@V?$positional_parameter_base@_WV?$string_output_adapter@_W@__crt_stdio_output@@@2@@0@AAE_NXZ@AAPAD@Z 1003ebf8 f i libucrt:output.obj
 0001:0003dc0e       ??$read_va_arg@PAUansi_string@?1??type_case_Z@?$output_processor@_WV?$string_output_adapter@_W@__crt_stdio_output@@V?$standard_base@_WV?$string_output_adapter@_W@__crt_stdio_output@@@2@@__crt_stdio_output@@AAE_NXZ@@__crt_stdio_output@@YAPAUansi_string@?1??type_case_Z@?$output_processor@_WV?$string_output_adapter@_W@__crt_stdio_output@@V?$standard_base@_WV?$string_output_adapter@_W@__crt_stdio_output@@@2@@0@AAE_NXZ@AAPAD@Z 1003ec0e f i libucrt:output.obj
 0001:0003dc24       ??$read_va_arg@PAX@__crt_stdio_output@@YAPAXAAPAD@Z 1003ec24 f i libucrt:output.obj
 0001:0003dc3a       ??$read_va_arg@U_CRT_DOUBLE@@@__crt_stdio_output@@YA?AU_CRT_DOUBLE@@AAPAD@Z 1003ec3a f i libucrt:output.obj
 0001:0003dc54       ??$read_va_arg@_J@__crt_stdio_output@@YA_JAAPAD@Z 1003ec54 f i libucrt:output.obj
 0001:0003dc6e       ??$read_va_arg@_K@__crt_stdio_output@@YA_KAAPAD@Z 1003ec6e f i libucrt:output.obj
 0001:0003dc88       ??$read_va_arg@_W@__crt_stdio_output@@YA_WAAPAD@Z 1003ec88 f i libucrt:output.obj
 0001:0003dc9f       ??$scratch_count@D@formatting_buffer@__crt_stdio_output@@QBEIXZ 1003ec9f f i libucrt:output.obj
 0001:0003dca4       ??$scratch_data@D@formatting_buffer@__crt_stdio_output@@QAEPADXZ 1003eca4 f i libucrt:output.obj
 0001:0003dcc9       ??$tcstol@AAPBDPAPADH@?$__crt_char_traits@D@@SAJAAPBD$$QAPAPAD$$QAH@Z 1003ecc9 f i libucrt:output.obj
 0001:0003dcee       ??$tcstol@AAPB_WPAPA_WH@?$__crt_char_traits@_W@@SAJAAPB_W$$QAPAPA_W$$QAH@Z 1003ecee f i libucrt:output.obj
 0001:0003dd13       ??$tcstol@PBDPAPADH@?$__crt_char_traits@D@@SAJ$$QAPBD$$QAPAPAD$$QAH@Z 1003ed13 f i libucrt:output.obj
 0001:0003dd38       ??$tcstol@PB_WPAPA_WH@?$__crt_char_traits@_W@@SAJ$$QAPB_W$$QAPAPA_W$$QAH@Z 1003ed38 f i libucrt:output.obj
 0001:0003dd5d       ??$type_case_integer_parse_into_buffer@I@?$output_processor@DV?$stream_output_adapter@D@__crt_stdio_output@@V?$format_validation_base@DV?$stream_output_adapter@D@__crt_stdio_output@@@2@@__crt_stdio_output@@AAEXII_N@Z 1003ed5d f i libucrt:output.obj
 0001:0003ddef       ??$type_case_integer_parse_into_buffer@I@?$output_processor@DV?$stream_output_adapter@D@__crt_stdio_output@@V?$positional_parameter_base@DV?$stream_output_adapter@D@__crt_stdio_output@@@2@@__crt_stdio_output@@AAEXII_N@Z 1003edef f i libucrt:output.obj
 0001:0003de81       ??$type_case_integer_parse_into_buffer@I@?$output_processor@DV?$stream_output_adapter@D@__crt_stdio_output@@V?$standard_base@DV?$stream_output_adapter@D@__crt_stdio_output@@@2@@__crt_stdio_output@@AAEXII_N@Z 1003ee81 f i libucrt:output.obj
 0001:0003df13       ??$type_case_integer_parse_into_buffer@I@?$output_processor@DV?$string_output_adapter@D@__crt_stdio_output@@V?$format_validation_base@DV?$string_output_adapter@D@__crt_stdio_output@@@2@@__crt_stdio_output@@AAEXII_N@Z 1003ef13 f i libucrt:output.obj
 0001:0003dfa5       ??$type_case_integer_parse_into_buffer@I@?$output_processor@DV?$string_output_adapter@D@__crt_stdio_output@@V?$positional_parameter_base@DV?$string_output_adapter@D@__crt_stdio_output@@@2@@__crt_stdio_output@@AAEXII_N@Z 1003efa5 f i libucrt:output.obj
 0001:0003e037       ??$type_case_integer_parse_into_buffer@I@?$output_processor@DV?$string_output_adapter@D@__crt_stdio_output@@V?$standard_base@DV?$string_output_adapter@D@__crt_stdio_output@@@2@@__crt_stdio_output@@AAEXII_N@Z 1003f037 f i libucrt:output.obj
 0001:0003e0c9       ??$type_case_integer_parse_into_buffer@I@?$output_processor@_WV?$stream_output_adapter@_W@__crt_stdio_output@@V?$format_validation_base@_WV?$stream_output_adapter@_W@__crt_stdio_output@@@2@@__crt_stdio_output@@AAEXII_N@Z 1003f0c9 f i libucrt:output.obj
 0001:0003e15b       ??$type_case_integer_parse_into_buffer@I@?$output_processor@_WV?$stream_output_adapter@_W@__crt_stdio_output@@V?$positional_parameter_base@_WV?$stream_output_adapter@_W@__crt_stdio_output@@@2@@__crt_stdio_output@@AAEXII_N@Z 1003f15b f i libucrt:output.obj
 0001:0003e1ed       ??$type_case_integer_parse_into_buffer@I@?$output_processor@_WV?$stream_output_adapter@_W@__crt_stdio_output@@V?$standard_base@_WV?$stream_output_adapter@_W@__crt_stdio_output@@@2@@__crt_stdio_output@@AAEXII_N@Z 1003f1ed f i libucrt:output.obj
 0001:0003e27f       ??$type_case_integer_parse_into_buffer@I@?$output_processor@_WV?$string_output_adapter@_W@__crt_stdio_output@@V?$format_validation_base@_WV?$string_output_adapter@_W@__crt_stdio_output@@@2@@__crt_stdio_output@@AAEXII_N@Z 1003f27f f i libucrt:output.obj
 0001:0003e311       ??$type_case_integer_parse_into_buffer@I@?$output_processor@_WV?$string_output_adapter@_W@__crt_stdio_output@@V?$positional_parameter_base@_WV?$string_output_adapter@_W@__crt_stdio_output@@@2@@__crt_stdio_output@@AAEXII_N@Z 1003f311 f i libucrt:output.obj
 0001:0003e3a3       ??$type_case_integer_parse_into_buffer@I@?$output_processor@_WV?$string_output_adapter@_W@__crt_stdio_output@@V?$standard_base@_WV?$string_output_adapter@_W@__crt_stdio_output@@@2@@__crt_stdio_output@@AAEXII_N@Z 1003f3a3 f i libucrt:output.obj
 0001:0003e435       ??$type_case_integer_parse_into_buffer@_K@?$output_processor@DV?$stream_output_adapter@D@__crt_stdio_output@@V?$format_validation_base@DV?$stream_output_adapter@D@__crt_stdio_output@@@2@@__crt_stdio_output@@AAEX_KI_N@Z 1003f435 f i libucrt:output.obj
 0001:0003e4df       ??$type_case_integer_parse_into_buffer@_K@?$output_processor@DV?$stream_output_adapter@D@__crt_stdio_output@@V?$positional_parameter_base@DV?$stream_output_adapter@D@__crt_stdio_output@@@2@@__crt_stdio_output@@AAEX_KI_N@Z 1003f4df f i libucrt:output.obj
 0001:0003e589       ??$type_case_integer_parse_into_buffer@_K@?$output_processor@DV?$stream_output_adapter@D@__crt_stdio_output@@V?$standard_base@DV?$stream_output_adapter@D@__crt_stdio_output@@@2@@__crt_stdio_output@@AAEX_KI_N@Z 1003f589 f i libucrt:output.obj
 0001:0003e633       ??$type_case_integer_parse_into_buffer@_K@?$output_processor@DV?$string_output_adapter@D@__crt_stdio_output@@V?$format_validation_base@DV?$string_output_adapter@D@__crt_stdio_output@@@2@@__crt_stdio_output@@AAEX_KI_N@Z 1003f633 f i libucrt:output.obj
 0001:0003e6dd       ??$type_case_integer_parse_into_buffer@_K@?$output_processor@DV?$string_output_adapter@D@__crt_stdio_output@@V?$positional_parameter_base@DV?$string_output_adapter@D@__crt_stdio_output@@@2@@__crt_stdio_output@@AAEX_KI_N@Z 1003f6dd f i libucrt:output.obj
 0001:0003e787       ??$type_case_integer_parse_into_buffer@_K@?$output_processor@DV?$string_output_adapter@D@__crt_stdio_output@@V?$standard_base@DV?$string_output_adapter@D@__crt_stdio_output@@@2@@__crt_stdio_output@@AAEX_KI_N@Z 1003f787 f i libucrt:output.obj
 0001:0003e831       ??$type_case_integer_parse_into_buffer@_K@?$output_processor@_WV?$stream_output_adapter@_W@__crt_stdio_output@@V?$format_validation_base@_WV?$stream_output_adapter@_W@__crt_stdio_output@@@2@@__crt_stdio_output@@AAEX_KI_N@Z 1003f831 f i libucrt:output.obj
 0001:0003e8db       ??$type_case_integer_parse_into_buffer@_K@?$output_processor@_WV?$stream_output_adapter@_W@__crt_stdio_output@@V?$positional_parameter_base@_WV?$stream_output_adapter@_W@__crt_stdio_output@@@2@@__crt_stdio_output@@AAEX_KI_N@Z 1003f8db f i libucrt:output.obj
 0001:0003e985       ??$type_case_integer_parse_into_buffer@_K@?$output_processor@_WV?$stream_output_adapter@_W@__crt_stdio_output@@V?$standard_base@_WV?$stream_output_adapter@_W@__crt_stdio_output@@@2@@__crt_stdio_output@@AAEX_KI_N@Z 1003f985 f i libucrt:output.obj
 0001:0003ea2f       ??$type_case_integer_parse_into_buffer@_K@?$output_processor@_WV?$string_output_adapter@_W@__crt_stdio_output@@V?$format_validation_base@_WV?$string_output_adapter@_W@__crt_stdio_output@@@2@@__crt_stdio_output@@AAEX_KI_N@Z 1003fa2f f i libucrt:output.obj
 0001:0003ead9       ??$type_case_integer_parse_into_buffer@_K@?$output_processor@_WV?$string_output_adapter@_W@__crt_stdio_output@@V?$positional_parameter_base@_WV?$string_output_adapter@_W@__crt_stdio_output@@@2@@__crt_stdio_output@@AAEX_KI_N@Z 1003fad9 f i libucrt:output.obj
 0001:0003eb83       ??$type_case_integer_parse_into_buffer@_K@?$output_processor@_WV?$string_output_adapter@_W@__crt_stdio_output@@V?$standard_base@_WV?$string_output_adapter@_W@__crt_stdio_output@@@2@@__crt_stdio_output@@AAEX_KI_N@Z 1003fb83 f i libucrt:output.obj
 0001:0003ec2d       ??$write_multiple_characters@V?$stream_output_adapter@D@__crt_stdio_output@@D@__crt_stdio_output@@YAXABV?$stream_output_adapter@D@0@DHQAH@Z 1003fc2d f i libucrt:output.obj
 0001:0003ec64       ??$write_multiple_characters@V?$stream_output_adapter@_W@__crt_stdio_output@@D@__crt_stdio_output@@YAXABV?$stream_output_adapter@_W@0@DHQAH@Z 1003fc64 f i libucrt:output.obj
 0001:0003eca1       ??$write_multiple_characters@V?$string_output_adapter@D@__crt_stdio_output@@D@__crt_stdio_output@@YAXABV?$string_output_adapter@D@0@DHQAH@Z 1003fca1 f i libucrt:output.obj
 0001:0003ecd8       ??$write_multiple_characters@V?$string_output_adapter@_W@__crt_stdio_output@@D@__crt_stdio_output@@YAXABV?$string_output_adapter@_W@0@DHQAH@Z 1003fcd8 f i libucrt:output.obj
 0001:0003ef49       ??0?$common_data@D@__crt_stdio_output@@IAE@XZ 1003ff49 f i libucrt:output.obj
 0001:0003efa1       ??0?$common_data@_W@__crt_stdio_output@@IAE@XZ 1003ffa1 f i libucrt:output.obj
 0001:0003f000       ??0?$output_adapter_data@DV?$stream_output_adapter@D@__crt_stdio_output@@@__crt_stdio_output@@IAE@ABV?$stream_output_adapter@D@1@_KQBDQAU__crt_locale_pointers@@QAD@Z 10040000 f i libucrt:output.obj
 0001:0003f04b       ??0?$output_adapter_data@DV?$string_output_adapter@D@__crt_stdio_output@@@__crt_stdio_output@@IAE@ABV?$string_output_adapter@D@1@_KQBDQAU__crt_locale_pointers@@QAD@Z 1004004b f i libucrt:output.obj
 0001:0003f096       ??0?$output_adapter_data@_WV?$stream_output_adapter@_W@__crt_stdio_output@@@__crt_stdio_output@@IAE@ABV?$stream_output_adapter@_W@1@_KQB_WQAU__crt_locale_pointers@@QAD@Z 10040096 f i libucrt:output.obj
 0001:0003f0e1       ??0?$output_adapter_data@_WV?$string_output_adapter@_W@__crt_stdio_output@@@__crt_stdio_output@@IAE@ABV?$string_output_adapter@_W@1@_KQB_WQAU__crt_locale_pointers@@QAD@Z 100400e1 f i libucrt:output.obj
 0001:0003f12c       ??0?$output_processor@DV?$stream_output_adapter@D@__crt_stdio_output@@V?$format_validation_base@DV?$stream_output_adapter@D@__crt_stdio_output@@@2@@__crt_stdio_output@@QAE@ABV?$stream_output_adapter@D@1@_KQBDQAU__crt_locale_pointers@@QAD@Z 1004012c f i libucrt:output.obj
 0001:0003f16e       ??0?$output_processor@DV?$stream_output_adapter@D@__crt_stdio_output@@V?$positional_parameter_base@DV?$stream_output_adapter@D@__crt_stdio_output@@@2@@__crt_stdio_output@@QAE@ABV?$stream_output_adapter@D@1@_KQBDQAU__crt_locale_pointers@@QAD@Z 1004016e f i libucrt:output.obj
 0001:0003f1a8       ??0?$output_processor@DV?$stream_output_adapter@D@__crt_stdio_output@@V?$standard_base@DV?$stream_output_adapter@D@__crt_stdio_output@@@2@@__crt_stdio_output@@QAE@ABV?$stream_output_adapter@D@1@_KQBDQAU__crt_locale_pointers@@QAD@Z 100401a8 f i libucrt:output.obj
 0001:0003f1ea       ??0?$output_processor@DV?$string_output_adapter@D@__crt_stdio_output@@V?$format_validation_base@DV?$string_output_adapter@D@__crt_stdio_output@@@2@@__crt_stdio_output@@QAE@ABV?$string_output_adapter@D@1@_KQBDQAU__crt_locale_pointers@@QAD@Z 100401ea f i libucrt:output.obj
 0001:0003f22c       ??0?$output_processor@DV?$string_output_adapter@D@__crt_stdio_output@@V?$positional_parameter_base@DV?$string_output_adapter@D@__crt_stdio_output@@@2@@__crt_stdio_output@@QAE@ABV?$string_output_adapter@D@1@_KQBDQAU__crt_locale_pointers@@QAD@Z 1004022c f i libucrt:output.obj
 0001:0003f266       ??0?$output_processor@DV?$string_output_adapter@D@__crt_stdio_output@@V?$standard_base@DV?$string_output_adapter@D@__crt_stdio_output@@@2@@__crt_stdio_output@@QAE@ABV?$string_output_adapter@D@1@_KQBDQAU__crt_locale_pointers@@QAD@Z 10040266 f i libucrt:output.obj
 0001:0003f2a8       ??0?$output_processor@_WV?$stream_output_adapter@_W@__crt_stdio_output@@V?$format_validation_base@_WV?$stream_output_adapter@_W@__crt_stdio_output@@@2@@__crt_stdio_output@@QAE@ABV?$stream_output_adapter@_W@1@_KQB_WQAU__crt_locale_pointers@@QAD@Z 100402a8 f i libucrt:output.obj
 0001:0003f2ea       ??0?$output_processor@_WV?$stream_output_adapter@_W@__crt_stdio_output@@V?$positional_parameter_base@_WV?$stream_output_adapter@_W@__crt_stdio_output@@@2@@__crt_stdio_output@@QAE@ABV?$stream_output_adapter@_W@1@_KQB_WQAU__crt_locale_pointers@@QAD@Z 100402ea f i libucrt:output.obj
 0001:0003f324       ??0?$output_processor@_WV?$stream_output_adapter@_W@__crt_stdio_output@@V?$standard_base@_WV?$stream_output_adapter@_W@__crt_stdio_output@@@2@@__crt_stdio_output@@QAE@ABV?$stream_output_adapter@_W@1@_KQB_WQAU__crt_locale_pointers@@QAD@Z 10040324 f i libucrt:output.obj
 0001:0003f366       ??0?$output_processor@_WV?$string_output_adapter@_W@__crt_stdio_output@@V?$format_validation_base@_WV?$string_output_adapter@_W@__crt_stdio_output@@@2@@__crt_stdio_output@@QAE@ABV?$string_output_adapter@_W@1@_KQB_WQAU__crt_locale_pointers@@QAD@Z 10040366 f i libucrt:output.obj
 0001:0003f3a8       ??0?$output_processor@_WV?$string_output_adapter@_W@__crt_stdio_output@@V?$positional_parameter_base@_WV?$string_output_adapter@_W@__crt_stdio_output@@@2@@__crt_stdio_output@@QAE@ABV?$string_output_adapter@_W@1@_KQB_WQAU__crt_locale_pointers@@QAD@Z 100403a8 f i libucrt:output.obj
 0001:0003f3e2       ??0?$output_processor@_WV?$string_output_adapter@_W@__crt_stdio_output@@V?$standard_base@_WV?$string_output_adapter@_W@__crt_stdio_output@@@2@@__crt_stdio_output@@QAE@ABV?$string_output_adapter@_W@1@_KQB_WQAU__crt_locale_pointers@@QAD@Z 100403e2 f i libucrt:output.obj
 0001:0003f424       ??0?$stream_output_adapter@D@__crt_stdio_output@@QAE@QAU_iobuf@@@Z 10040424 f i libucrt:output.obj
 0001:0003f438       ??0?$stream_output_adapter@_W@__crt_stdio_output@@QAE@QAU_iobuf@@@Z 10040438 f i libucrt:output.obj
 0001:0003f44c       ??0?$string_output_adapter@D@__crt_stdio_output@@QAE@QAU?$string_output_adapter_context@D@1@@Z 1004044c f i libucrt:output.obj
 0001:0003f460       ??0?$string_output_adapter@_W@__crt_stdio_output@@QAE@QAU?$string_output_adapter_context@_W@1@@Z 10040460 f i libucrt:output.obj
 0001:0003f474       ??0_LocaleUpdate@@QAE@QAU__crt_locale_pointers@@@Z 10040474 f i libucrt:output.obj
 0001:0003f517       ??0__acrt_stdio_temporary_buffering_guard@@QAE@QAU_iobuf@@@Z 10040517 f i libucrt:output.obj
 0001:0003f53c       ??0__crt_errno_guard@@QAE@QAH@Z 1004053c f i libucrt:output.obj
 0001:0003f55a       ??0formatting_buffer@__crt_stdio_output@@QAE@XZ 1004055a f i libucrt:output.obj
 0001:0003f56f       ??1?$common_data@D@__crt_stdio_output@@QAE@XZ 1004056f f i libucrt:output.obj
 0001:0003f579       ??1?$common_data@_W@__crt_stdio_output@@QAE@XZ 10040579 f i libucrt:output.obj
 0001:0003f583       ??1?$format_validation_base@DV?$stream_output_adapter@D@__crt_stdio_output@@@__crt_stdio_output@@QAE@XZ 10040583 f i libucrt:output.obj
 0001:0003f58d       ??1?$format_validation_base@DV?$string_output_adapter@D@__crt_stdio_output@@@__crt_stdio_output@@QAE@XZ 1004058d f i libucrt:output.obj
 0001:0003f597       ??1?$format_validation_base@_WV?$stream_output_adapter@_W@__crt_stdio_output@@@__crt_stdio_output@@QAE@XZ 10040597 f i libucrt:output.obj
 0001:0003f5a1       ??1?$format_validation_base@_WV?$string_output_adapter@_W@__crt_stdio_output@@@__crt_stdio_output@@QAE@XZ 100405a1 f i libucrt:output.obj
 0001:0003f5ab       ??1?$output_adapter_data@DV?$stream_output_adapter@D@__crt_stdio_output@@@__crt_stdio_output@@QAE@XZ 100405ab f i libucrt:output.obj
 0001:0003f5b5       ??1?$output_adapter_data@DV?$string_output_adapter@D@__crt_stdio_output@@@__crt_stdio_output@@QAE@XZ 100405b5 f i libucrt:output.obj
 0001:0003f5bf       ??1?$output_adapter_data@_WV?$stream_output_adapter@_W@__crt_stdio_output@@@__crt_stdio_output@@QAE@XZ 100405bf f i libucrt:output.obj
 0001:0003f5c9       ??1?$output_adapter_data@_WV?$string_output_adapter@_W@__crt_stdio_output@@@__crt_stdio_output@@QAE@XZ 100405c9 f i libucrt:output.obj
 0001:0003f5d3       ??1?$output_processor@DV?$stream_output_adapter@D@__crt_stdio_output@@V?$format_validation_base@DV?$stream_output_adapter@D@__crt_stdio_output@@@2@@__crt_stdio_output@@QAE@XZ 100405d3 f i libucrt:output.obj
 0001:0003f5dd       ??1?$output_processor@DV?$stream_output_adapter@D@__crt_stdio_output@@V?$positional_parameter_base@DV?$stream_output_adapter@D@__crt_stdio_output@@@2@@__crt_stdio_output@@QAE@XZ 100405dd f i libucrt:output.obj
 0001:0003f5e7       ??1?$output_processor@DV?$stream_output_adapter@D@__crt_stdio_output@@V?$standard_base@DV?$stream_output_adapter@D@__crt_stdio_output@@@2@@__crt_stdio_output@@QAE@XZ 100405e7 f i libucrt:output.obj
 0001:0003f5f1       ??1?$output_processor@DV?$string_output_adapter@D@__crt_stdio_output@@V?$format_validation_base@DV?$string_output_adapter@D@__crt_stdio_output@@@2@@__crt_stdio_output@@QAE@XZ 100405f1 f i libucrt:output.obj
 0001:0003f5fb       ??1?$output_processor@DV?$string_output_adapter@D@__crt_stdio_output@@V?$positional_parameter_base@DV?$string_output_adapter@D@__crt_stdio_output@@@2@@__crt_stdio_output@@QAE@XZ 100405fb f i libucrt:output.obj
 0001:0003f605       ??1?$output_processor@DV?$string_output_adapter@D@__crt_stdio_output@@V?$standard_base@DV?$string_output_adapter@D@__crt_stdio_output@@@2@@__crt_stdio_output@@QAE@XZ 10040605 f i libucrt:output.obj
 0001:0003f60f       ??1?$output_processor@_WV?$stream_output_adapter@_W@__crt_stdio_output@@V?$format_validation_base@_WV?$stream_output_adapter@_W@__crt_stdio_output@@@2@@__crt_stdio_output@@QAE@XZ 1004060f f i libucrt:output.obj
 0001:0003f619       ??1?$output_processor@_WV?$stream_output_adapter@_W@__crt_stdio_output@@V?$positional_parameter_base@_WV?$stream_output_adapter@_W@__crt_stdio_output@@@2@@__crt_stdio_output@@QAE@XZ 10040619 f i libucrt:output.obj
 0001:0003f623       ??1?$output_processor@_WV?$stream_output_adapter@_W@__crt_stdio_output@@V?$standard_base@_WV?$stream_output_adapter@_W@__crt_stdio_output@@@2@@__crt_stdio_output@@QAE@XZ 10040623 f i libucrt:output.obj
 0001:0003f62d       ??1?$output_processor@_WV?$string_output_adapter@_W@__crt_stdio_output@@V?$format_validation_base@_WV?$string_output_adapter@_W@__crt_stdio_output@@@2@@__crt_stdio_output@@QAE@XZ 1004062d f i libucrt:output.obj
 0001:0003f637       ??1?$output_processor@_WV?$string_output_adapter@_W@__crt_stdio_output@@V?$positional_parameter_base@_WV?$string_output_adapter@_W@__crt_stdio_output@@@2@@__crt_stdio_output@@QAE@XZ 10040637 f i libucrt:output.obj
 0001:0003f641       ??1?$output_processor@_WV?$string_output_adapter@_W@__crt_stdio_output@@V?$standard_base@_WV?$string_output_adapter@_W@__crt_stdio_output@@@2@@__crt_stdio_output@@QAE@XZ 10040641 f i libucrt:output.obj
 0001:0003f64b       ??1?$positional_parameter_base@DV?$stream_output_adapter@D@__crt_stdio_output@@@__crt_stdio_output@@QAE@XZ 1004064b f i libucrt:output.obj
 0001:0003f655       ??1?$positional_parameter_base@DV?$string_output_adapter@D@__crt_stdio_output@@@__crt_stdio_output@@QAE@XZ 10040655 f i libucrt:output.obj
 0001:0003f65f       ??1?$positional_parameter_base@_WV?$stream_output_adapter@_W@__crt_stdio_output@@@__crt_stdio_output@@QAE@XZ 1004065f f i libucrt:output.obj
 0001:0003f669       ??1?$positional_parameter_base@_WV?$string_output_adapter@_W@__crt_stdio_output@@@__crt_stdio_output@@QAE@XZ 10040669 f i libucrt:output.obj
 0001:0003f673       ??1?$standard_base@DV?$stream_output_adapter@D@__crt_stdio_output@@@__crt_stdio_output@@QAE@XZ 10040673 f i libucrt:output.obj
 0001:0003f67d       ??1?$standard_base@DV?$string_output_adapter@D@__crt_stdio_output@@@__crt_stdio_output@@QAE@XZ 1004067d f i libucrt:output.obj
 0001:0003f687       ??1?$standard_base@_WV?$stream_output_adapter@_W@__crt_stdio_output@@@__crt_stdio_output@@QAE@XZ 10040687 f i libucrt:output.obj
 0001:0003f691       ??1?$standard_base@_WV?$string_output_adapter@_W@__crt_stdio_output@@@__crt_stdio_output@@QAE@XZ 10040691 f i libucrt:output.obj
 0001:0003f69b       ??1_LocaleUpdate@@QAE@XZ   1004069b f i libucrt:output.obj
 0001:0003f6af       ??1__acrt_stdio_temporary_buffering_guard@@QAE@XZ 100406af f i libucrt:output.obj
 0001:0003f6c1       ??1__crt_errno_guard@@QAE@XZ 100406c1 f i libucrt:output.obj
 0001:0003f6d6       ??1formatting_buffer@__crt_stdio_output@@QAE@XZ 100406d6 f i libucrt:output.obj
 0001:0003f6f6       ??4?$__crt_unique_heap_ptr@DU__crt_internal_free_policy@@@@QAEAAV0@$$QAV0@@Z 100406f6 f i libucrt:output.obj
 0001:0003fdd9       ?GetLocaleT@_LocaleUpdate@@QAEPAU__crt_locale_pointers@@XZ 10040dd9 f i libucrt:output.obj
 0001:0003fddd       ?__crt_interlocked_read_32@@YAHPDH@Z 10040ddd f i libucrt:output.obj
 0001:0003fdec       ?adjust_hexit@?$output_processor@DV?$stream_output_adapter@D@__crt_stdio_output@@V?$format_validation_base@DV?$stream_output_adapter@D@__crt_stdio_output@@@2@@__crt_stdio_output@@CADH_N@Z 10040dec f i libucrt:output.obj
 0001:0003fe11       ?adjust_hexit@?$output_processor@DV?$stream_output_adapter@D@__crt_stdio_output@@V?$positional_parameter_base@DV?$stream_output_adapter@D@__crt_stdio_output@@@2@@__crt_stdio_output@@CADH_N@Z 10040e11 f i libucrt:output.obj
 0001:0003fe36       ?adjust_hexit@?$output_processor@DV?$stream_output_adapter@D@__crt_stdio_output@@V?$standard_base@DV?$stream_output_adapter@D@__crt_stdio_output@@@2@@__crt_stdio_output@@CADH_N@Z 10040e36 f i libucrt:output.obj
 0001:0003fe5b       ?adjust_hexit@?$output_processor@DV?$string_output_adapter@D@__crt_stdio_output@@V?$format_validation_base@DV?$string_output_adapter@D@__crt_stdio_output@@@2@@__crt_stdio_output@@CADH_N@Z 10040e5b f i libucrt:output.obj
 0001:0003fe80       ?adjust_hexit@?$output_processor@DV?$string_output_adapter@D@__crt_stdio_output@@V?$positional_parameter_base@DV?$string_output_adapter@D@__crt_stdio_output@@@2@@__crt_stdio_output@@CADH_N@Z 10040e80 f i libucrt:output.obj
 0001:0003fea5       ?adjust_hexit@?$output_processor@DV?$string_output_adapter@D@__crt_stdio_output@@V?$standard_base@DV?$string_output_adapter@D@__crt_stdio_output@@@2@@__crt_stdio_output@@CADH_N@Z 10040ea5 f i libucrt:output.obj
 0001:0003feca       ?adjust_hexit@?$output_processor@_WV?$stream_output_adapter@_W@__crt_stdio_output@@V?$format_validation_base@_WV?$stream_output_adapter@_W@__crt_stdio_output@@@2@@__crt_stdio_output@@CADH_N@Z 10040eca f i libucrt:output.obj
 0001:0003feef       ?adjust_hexit@?$output_processor@_WV?$stream_output_adapter@_W@__crt_stdio_output@@V?$positional_parameter_base@_WV?$stream_output_adapter@_W@__crt_stdio_output@@@2@@__crt_stdio_output@@CADH_N@Z 10040eef f i libucrt:output.obj
 0001:0003ff14       ?adjust_hexit@?$output_processor@_WV?$stream_output_adapter@_W@__crt_stdio_output@@V?$standard_base@_WV?$stream_output_adapter@_W@__crt_stdio_output@@@2@@__crt_stdio_output@@CADH_N@Z 10040f14 f i libucrt:output.obj
 0001:0003ff39       ?adjust_hexit@?$output_processor@_WV?$string_output_adapter@_W@__crt_stdio_output@@V?$format_validation_base@_WV?$string_output_adapter@_W@__crt_stdio_output@@@2@@__crt_stdio_output@@CADH_N@Z 10040f39 f i libucrt:output.obj
 0001:0003ff5e       ?adjust_hexit@?$output_processor@_WV?$string_output_adapter@_W@__crt_stdio_output@@V?$positional_parameter_base@_WV?$string_output_adapter@_W@__crt_stdio_output@@@2@@__crt_stdio_output@@CADH_N@Z 10040f5e f i libucrt:output.obj
 0001:0003ff83       ?adjust_hexit@?$output_processor@_WV?$string_output_adapter@_W@__crt_stdio_output@@V?$standard_base@_WV?$string_output_adapter@_W@__crt_stdio_output@@@2@@__crt_stdio_output@@CADH_N@Z 10040f83 f i libucrt:output.obj
 0001:0003ffa8       ?advance_to_next_pass@?$positional_parameter_base@DV?$stream_output_adapter@D@__crt_stdio_output@@@__crt_stdio_output@@IAE_NXZ 10040fa8 f i libucrt:output.obj
 0001:00040007       ?advance_to_next_pass@?$positional_parameter_base@DV?$string_output_adapter@D@__crt_stdio_output@@@__crt_stdio_output@@IAE_NXZ 10041007 f i libucrt:output.obj
 0001:00040066       ?advance_to_next_pass@?$positional_parameter_base@_WV?$stream_output_adapter@_W@__crt_stdio_output@@@__crt_stdio_output@@IAE_NXZ 10041066 f i libucrt:output.obj
 0001:000400c5       ?advance_to_next_pass@?$positional_parameter_base@_WV?$string_output_adapter@_W@__crt_stdio_output@@@__crt_stdio_output@@IAE_NXZ 100410c5 f i libucrt:output.obj
 0001:00040124       ?advance_to_next_pass@?$standard_base@DV?$stream_output_adapter@D@__crt_stdio_output@@@__crt_stdio_output@@IAE_NXZ 10041124 f i libucrt:output.obj
 0001:0004013b       ?advance_to_next_pass@?$standard_base@DV?$string_output_adapter@D@__crt_stdio_output@@@__crt_stdio_output@@IAE_NXZ 1004113b f i libucrt:output.obj
 0001:00040152       ?advance_to_next_pass@?$standard_base@_WV?$stream_output_adapter@_W@__crt_stdio_output@@@__crt_stdio_output@@IAE_NXZ 10041152 f i libucrt:output.obj
 0001:00040169       ?advance_to_next_pass@?$standard_base@_WV?$string_output_adapter@_W@__crt_stdio_output@@@__crt_stdio_output@@IAE_NXZ 10041169 f i libucrt:output.obj
 0001:00040180       ?crop_zeroes@__crt_stdio_output@@YAXPADQAU__crt_locale_pointers@@@Z 10041180 f i libucrt:output.obj
 0001:000401ec       ?find_next_state@?$output_processor@DV?$stream_output_adapter@D@__crt_stdio_output@@V?$format_validation_base@DV?$stream_output_adapter@D@__crt_stdio_output@@@2@@__crt_stdio_output@@ABE?AW4state@2@DW432@@Z 100411ec f i libucrt:output.obj
 0001:0004022e       ?find_next_state@?$output_processor@DV?$stream_output_adapter@D@__crt_stdio_output@@V?$positional_parameter_base@DV?$stream_output_adapter@D@__crt_stdio_output@@@2@@__crt_stdio_output@@ABE?AW4state@2@DW432@@Z 1004122e f i libucrt:output.obj
 0001:00040270       ?find_next_state@?$output_processor@DV?$stream_output_adapter@D@__crt_stdio_output@@V?$standard_base@DV?$stream_output_adapter@D@__crt_stdio_output@@@2@@__crt_stdio_output@@ABE?AW4state@2@DW432@@Z 10041270 f i libucrt:output.obj
 0001:000402ae       ?find_next_state@?$output_processor@DV?$string_output_adapter@D@__crt_stdio_output@@V?$format_validation_base@DV?$string_output_adapter@D@__crt_stdio_output@@@2@@__crt_stdio_output@@ABE?AW4state@2@DW432@@Z 100412ae f i libucrt:output.obj
 0001:000402f0       ?find_next_state@?$output_processor@DV?$string_output_adapter@D@__crt_stdio_output@@V?$positional_parameter_base@DV?$string_output_adapter@D@__crt_stdio_output@@@2@@__crt_stdio_output@@ABE?AW4state@2@DW432@@Z 100412f0 f i libucrt:output.obj
 0001:00040332       ?find_next_state@?$output_processor@DV?$string_output_adapter@D@__crt_stdio_output@@V?$standard_base@DV?$string_output_adapter@D@__crt_stdio_output@@@2@@__crt_stdio_output@@ABE?AW4state@2@DW432@@Z 10041332 f i libucrt:output.obj
 0001:00040370       ?find_next_state@?$output_processor@_WV?$stream_output_adapter@_W@__crt_stdio_output@@V?$format_validation_base@_WV?$stream_output_adapter@_W@__crt_stdio_output@@@2@@__crt_stdio_output@@ABE?AW4state@2@_WW432@@Z 10041370 f i libucrt:output.obj
 0001:000403b4       ?find_next_state@?$output_processor@_WV?$stream_output_adapter@_W@__crt_stdio_output@@V?$positional_parameter_base@_WV?$stream_output_adapter@_W@__crt_stdio_output@@@2@@__crt_stdio_output@@ABE?AW4state@2@_WW432@@Z 100413b4 f i libucrt:output.obj
 0001:000403f8       ?find_next_state@?$output_processor@_WV?$stream_output_adapter@_W@__crt_stdio_output@@V?$standard_base@_WV?$stream_output_adapter@_W@__crt_stdio_output@@@2@@__crt_stdio_output@@ABE?AW4state@2@_WW432@@Z 100413f8 f i libucrt:output.obj
 0001:00040439       ?find_next_state@?$output_processor@_WV?$string_output_adapter@_W@__crt_stdio_output@@V?$format_validation_base@_WV?$string_output_adapter@_W@__crt_stdio_output@@@2@@__crt_stdio_output@@ABE?AW4state@2@_WW432@@Z 10041439 f i libucrt:output.obj
 0001:0004047d       ?find_next_state@?$output_processor@_WV?$string_output_adapter@_W@__crt_stdio_output@@V?$positional_parameter_base@_WV?$string_output_adapter@_W@__crt_stdio_output@@@2@@__crt_stdio_output@@ABE?AW4state@2@_WW432@@Z 1004147d f i libucrt:output.obj
 0001:000404c1       ?find_next_state@?$output_processor@_WV?$string_output_adapter@_W@__crt_stdio_output@@V?$standard_base@_WV?$string_output_adapter@_W@__crt_stdio_output@@@2@@__crt_stdio_output@@ABE?AW4state@2@_WW432@@Z 100414c1 f i libucrt:output.obj
 0001:00040502       ?force_decimal_point@__crt_stdio_output@@YAXPADQAU__crt_locale_pointers@@@Z 10041502 f i libucrt:output.obj
 0001:00040575       ?get_flags@__crt_stdio_stream@@QBEJXZ 10041575 f i libucrt:output.obj
 0001:0004057b       ?get_parameter_type@?$positional_parameter_base@DV?$stream_output_adapter@D@__crt_stdio_output@@@__crt_stdio_output@@CA?AW4parameter_type@12@F@Z 1004157b f i libucrt:output.obj
 0001:0004057f       ?get_parameter_type@?$positional_parameter_base@DV?$stream_output_adapter@D@__crt_stdio_output@@@__crt_stdio_output@@CA?AW4parameter_type@12@G@Z 1004157f f i libucrt:output.obj
 0001:00040583       ?get_parameter_type@?$positional_parameter_base@DV?$stream_output_adapter@D@__crt_stdio_output@@@__crt_stdio_output@@CA?AW4parameter_type@12@H@Z 10041583 f i libucrt:output.obj
 0001:00040587       ?get_parameter_type@?$positional_parameter_base@DV?$stream_output_adapter@D@__crt_stdio_output@@@__crt_stdio_output@@CA?AW4parameter_type@12@I@Z 10041587 f i libucrt:output.obj
 0001:0004058b       ?get_parameter_type@?$positional_parameter_base@DV?$stream_output_adapter@D@__crt_stdio_output@@@__crt_stdio_output@@CA?AW4parameter_type@12@U_CRT_DOUBLE@@@Z 1004158b f i libucrt:output.obj
 0001:0004058f       ?get_parameter_type@?$positional_parameter_base@DV?$stream_output_adapter@D@__crt_stdio_output@@@__crt_stdio_output@@CA?AW4parameter_type@12@_J@Z 1004158f f i libucrt:output.obj
 0001:00040593       ?get_parameter_type@?$positional_parameter_base@DV?$stream_output_adapter@D@__crt_stdio_output@@@__crt_stdio_output@@CA?AW4parameter_type@12@_K@Z 10041593 f i libucrt:output.obj
 0001:00040597       ?get_parameter_type@?$positional_parameter_base@DV?$stream_output_adapter@D@__crt_stdio_output@@@__crt_stdio_output@@CA?AW4parameter_type@12@_W@Z 10041597 f i libucrt:output.obj
 0001:0004059b       ?get_parameter_type@?$positional_parameter_base@DV?$string_output_adapter@D@__crt_stdio_output@@@__crt_stdio_output@@CA?AW4parameter_type@12@F@Z 1004159b f i libucrt:output.obj
 0001:0004059f       ?get_parameter_type@?$positional_parameter_base@DV?$string_output_adapter@D@__crt_stdio_output@@@__crt_stdio_output@@CA?AW4parameter_type@12@G@Z 1004159f f i libucrt:output.obj
 0001:000405a3       ?get_parameter_type@?$positional_parameter_base@DV?$string_output_adapter@D@__crt_stdio_output@@@__crt_stdio_output@@CA?AW4parameter_type@12@H@Z 100415a3 f i libucrt:output.obj
 0001:000405a7       ?get_parameter_type@?$positional_parameter_base@DV?$string_output_adapter@D@__crt_stdio_output@@@__crt_stdio_output@@CA?AW4parameter_type@12@I@Z 100415a7 f i libucrt:output.obj
 0001:000405ab       ?get_parameter_type@?$positional_parameter_base@DV?$string_output_adapter@D@__crt_stdio_output@@@__crt_stdio_output@@CA?AW4parameter_type@12@U_CRT_DOUBLE@@@Z 100415ab f i libucrt:output.obj
 0001:000405af       ?get_parameter_type@?$positional_parameter_base@DV?$string_output_adapter@D@__crt_stdio_output@@@__crt_stdio_output@@CA?AW4parameter_type@12@_J@Z 100415af f i libucrt:output.obj
 0001:000405b3       ?get_parameter_type@?$positional_parameter_base@DV?$string_output_adapter@D@__crt_stdio_output@@@__crt_stdio_output@@CA?AW4parameter_type@12@_K@Z 100415b3 f i libucrt:output.obj
 0001:000405b7       ?get_parameter_type@?$positional_parameter_base@DV?$string_output_adapter@D@__crt_stdio_output@@@__crt_stdio_output@@CA?AW4parameter_type@12@_W@Z 100415b7 f i libucrt:output.obj
 0001:000405bb       ?get_parameter_type@?$positional_parameter_base@_WV?$stream_output_adapter@_W@__crt_stdio_output@@@__crt_stdio_output@@CA?AW4parameter_type@12@F@Z 100415bb f i libucrt:output.obj
 0001:000405bf       ?get_parameter_type@?$positional_parameter_base@_WV?$stream_output_adapter@_W@__crt_stdio_output@@@__crt_stdio_output@@CA?AW4parameter_type@12@G@Z 100415bf f i libucrt:output.obj
 0001:000405c3       ?get_parameter_type@?$positional_parameter_base@_WV?$stream_output_adapter@_W@__crt_stdio_output@@@__crt_stdio_output@@CA?AW4parameter_type@12@H@Z 100415c3 f i libucrt:output.obj
 0001:000405c7       ?get_parameter_type@?$positional_parameter_base@_WV?$stream_output_adapter@_W@__crt_stdio_output@@@__crt_stdio_output@@CA?AW4parameter_type@12@I@Z 100415c7 f i libucrt:output.obj
 0001:000405cb       ?get_parameter_type@?$positional_parameter_base@_WV?$stream_output_adapter@_W@__crt_stdio_output@@@__crt_stdio_output@@CA?AW4parameter_type@12@U_CRT_DOUBLE@@@Z 100415cb f i libucrt:output.obj
 0001:000405cf       ?get_parameter_type@?$positional_parameter_base@_WV?$stream_output_adapter@_W@__crt_stdio_output@@@__crt_stdio_output@@CA?AW4parameter_type@12@_J@Z 100415cf f i libucrt:output.obj
 0001:000405d3       ?get_parameter_type@?$positional_parameter_base@_WV?$stream_output_adapter@_W@__crt_stdio_output@@@__crt_stdio_output@@CA?AW4parameter_type@12@_K@Z 100415d3 f i libucrt:output.obj
 0001:000405d7       ?get_parameter_type@?$positional_parameter_base@_WV?$stream_output_adapter@_W@__crt_stdio_output@@@__crt_stdio_output@@CA?AW4parameter_type@12@_W@Z 100415d7 f i libucrt:output.obj
 0001:000405db       ?get_parameter_type@?$positional_parameter_base@_WV?$string_output_adapter@_W@__crt_stdio_output@@@__crt_stdio_output@@CA?AW4parameter_type@12@F@Z 100415db f i libucrt:output.obj
 0001:000405df       ?get_parameter_type@?$positional_parameter_base@_WV?$string_output_adapter@_W@__crt_stdio_output@@@__crt_stdio_output@@CA?AW4parameter_type@12@G@Z 100415df f i libucrt:output.obj
 0001:000405e3       ?get_parameter_type@?$positional_parameter_base@_WV?$string_output_adapter@_W@__crt_stdio_output@@@__crt_stdio_output@@CA?AW4parameter_type@12@H@Z 100415e3 f i libucrt:output.obj
 0001:000405e7       ?get_parameter_type@?$positional_parameter_base@_WV?$string_output_adapter@_W@__crt_stdio_output@@@__crt_stdio_output@@CA?AW4parameter_type@12@I@Z 100415e7 f i libucrt:output.obj
 0001:000405eb       ?get_parameter_type@?$positional_parameter_base@_WV?$string_output_adapter@_W@__crt_stdio_output@@@__crt_stdio_output@@CA?AW4parameter_type@12@U_CRT_DOUBLE@@@Z 100415eb f i libucrt:output.obj
 0001:000405ef       ?get_parameter_type@?$positional_parameter_base@_WV?$string_output_adapter@_W@__crt_stdio_output@@@__crt_stdio_output@@CA?AW4parameter_type@12@_J@Z 100415ef f i libucrt:output.obj
 0001:000405f3       ?get_parameter_type@?$positional_parameter_base@_WV?$string_output_adapter@_W@__crt_stdio_output@@@__crt_stdio_output@@CA?AW4parameter_type@12@_K@Z 100415f3 f i libucrt:output.obj
 0001:000405f7       ?get_parameter_type@?$positional_parameter_base@_WV?$string_output_adapter@_W@__crt_stdio_output@@@__crt_stdio_output@@CA?AW4parameter_type@12@_W@Z 100415f7 f i libucrt:output.obj
 0001:000405fb       ?has_flag@?$output_processor@DV?$stream_output_adapter@D@__crt_stdio_output@@V?$format_validation_base@DV?$stream_output_adapter@D@__crt_stdio_output@@@2@@__crt_stdio_output@@ABE_NI@Z 100415fb f i libucrt:output.obj
 0001:00040615       ?has_flag@?$output_processor@DV?$stream_output_adapter@D@__crt_stdio_output@@V?$positional_parameter_base@DV?$stream_output_adapter@D@__crt_stdio_output@@@2@@__crt_stdio_output@@ABE_NI@Z 10041615 f i libucrt:output.obj
 0001:0004062f       ?has_flag@?$output_processor@DV?$stream_output_adapter@D@__crt_stdio_output@@V?$standard_base@DV?$stream_output_adapter@D@__crt_stdio_output@@@2@@__crt_stdio_output@@ABE_NI@Z 1004162f f i libucrt:output.obj
 0001:00040649       ?has_flag@?$output_processor@DV?$string_output_adapter@D@__crt_stdio_output@@V?$format_validation_base@DV?$string_output_adapter@D@__crt_stdio_output@@@2@@__crt_stdio_output@@ABE_NI@Z 10041649 f i libucrt:output.obj
 0001:00040663       ?has_flag@?$output_processor@DV?$string_output_adapter@D@__crt_stdio_output@@V?$positional_parameter_base@DV?$string_output_adapter@D@__crt_stdio_output@@@2@@__crt_stdio_output@@ABE_NI@Z 10041663 f i libucrt:output.obj
 0001:0004067d       ?has_flag@?$output_processor@DV?$string_output_adapter@D@__crt_stdio_output@@V?$standard_base@DV?$string_output_adapter@D@__crt_stdio_output@@@2@@__crt_stdio_output@@ABE_NI@Z 1004167d f i libucrt:output.obj
 0001:00040697       ?has_flag@?$output_processor@_WV?$stream_output_adapter@_W@__crt_stdio_output@@V?$format_validation_base@_WV?$stream_output_adapter@_W@__crt_stdio_output@@@2@@__crt_stdio_output@@ABE_NI@Z 10041697 f i libucrt:output.obj
 0001:000406b1       ?has_flag@?$output_processor@_WV?$stream_output_adapter@_W@__crt_stdio_output@@V?$positional_parameter_base@_WV?$stream_output_adapter@_W@__crt_stdio_output@@@2@@__crt_stdio_output@@ABE_NI@Z 100416b1 f i libucrt:output.obj
 0001:000406cb       ?has_flag@?$output_processor@_WV?$stream_output_adapter@_W@__crt_stdio_output@@V?$standard_base@_WV?$stream_output_adapter@_W@__crt_stdio_output@@@2@@__crt_stdio_output@@ABE_NI@Z 100416cb f i libucrt:output.obj
 0001:000406e5       ?has_flag@?$output_processor@_WV?$string_output_adapter@_W@__crt_stdio_output@@V?$format_validation_base@_WV?$string_output_adapter@_W@__crt_stdio_output@@@2@@__crt_stdio_output@@ABE_NI@Z 100416e5 f i libucrt:output.obj
 0001:000406ff       ?has_flag@?$output_processor@_WV?$string_output_adapter@_W@__crt_stdio_output@@V?$positional_parameter_base@_WV?$string_output_adapter@_W@__crt_stdio_output@@@2@@__crt_stdio_output@@ABE_NI@Z 100416ff f i libucrt:output.obj
 0001:00040719       ?has_flag@?$output_processor@_WV?$string_output_adapter@_W@__crt_stdio_output@@V?$standard_base@_WV?$string_output_adapter@_W@__crt_stdio_output@@@2@@__crt_stdio_output@@ABE_NI@Z 10041719 f i libucrt:output.obj
 0001:00040733       ?is_positional_parameter_reappearance_consistent@?$positional_parameter_base@DV?$stream_output_adapter@D@__crt_stdio_output@@@__crt_stdio_output@@AAE_NABUparameter_data@12@W4parameter_type@12@DW4length_modifier@2@@Z 10041733 f i libucrt:output.obj
 0001:000408ac       ?is_positional_parameter_reappearance_consistent@?$positional_parameter_base@DV?$string_output_adapter@D@__crt_stdio_output@@@__crt_stdio_output@@AAE_NABUparameter_data@12@W4parameter_type@12@DW4length_modifier@2@@Z 100418ac f i libucrt:output.obj
 0001:00040a25       ?is_positional_parameter_reappearance_consistent@?$positional_parameter_base@_WV?$stream_output_adapter@_W@__crt_stdio_output@@@__crt_stdio_output@@AAE_NABUparameter_data@12@W4parameter_type@12@_WW4length_modifier@2@@Z 10041a25 f i libucrt:output.obj
 0001:00040b90       ?is_positional_parameter_reappearance_consistent@?$positional_parameter_base@_WV?$string_output_adapter@_W@__crt_stdio_output@@@__crt_stdio_output@@AAE_NABUparameter_data@12@W4parameter_type@12@_WW4length_modifier@2@@Z 10041b90 f i libucrt:output.obj
 0001:00040cfb       ?is_string_backed@__crt_stdio_stream@@QBE_NXZ 10041cfb f i libucrt:output.obj
 0001:00040d0a       ?narrow_null_string@?$output_processor@DV?$stream_output_adapter@D@__crt_stdio_output@@V?$format_validation_base@DV?$stream_output_adapter@D@__crt_stdio_output@@@2@@__crt_stdio_output@@CAPADXZ 10041d0a f i libucrt:output.obj
 0001:00040d10       ?narrow_null_string@?$output_processor@DV?$stream_output_adapter@D@__crt_stdio_output@@V?$positional_parameter_base@DV?$stream_output_adapter@D@__crt_stdio_output@@@2@@__crt_stdio_output@@CAPADXZ 10041d10 f i libucrt:output.obj
 0001:00040d16       ?narrow_null_string@?$output_processor@DV?$stream_output_adapter@D@__crt_stdio_output@@V?$standard_base@DV?$stream_output_adapter@D@__crt_stdio_output@@@2@@__crt_stdio_output@@CAPADXZ 10041d16 f i libucrt:output.obj
 0001:00040d1c       ?narrow_null_string@?$output_processor@DV?$string_output_adapter@D@__crt_stdio_output@@V?$format_validation_base@DV?$string_output_adapter@D@__crt_stdio_output@@@2@@__crt_stdio_output@@CAPADXZ 10041d1c f i libucrt:output.obj
 0001:00040d22       ?narrow_null_string@?$output_processor@DV?$string_output_adapter@D@__crt_stdio_output@@V?$positional_parameter_base@DV?$string_output_adapter@D@__crt_stdio_output@@@2@@__crt_stdio_output@@CAPADXZ 10041d22 f i libucrt:output.obj
 0001:00040d28       ?narrow_null_string@?$output_processor@DV?$string_output_adapter@D@__crt_stdio_output@@V?$standard_base@DV?$string_output_adapter@D@__crt_stdio_output@@@2@@__crt_stdio_output@@CAPADXZ 10041d28 f i libucrt:output.obj
 0001:00040d2e       ?narrow_null_string@?$output_processor@_WV?$stream_output_adapter@_W@__crt_stdio_output@@V?$format_validation_base@_WV?$stream_output_adapter@_W@__crt_stdio_output@@@2@@__crt_stdio_output@@CAPADXZ 10041d2e f i libucrt:output.obj
 0001:00040d34       ?narrow_null_string@?$output_processor@_WV?$stream_output_adapter@_W@__crt_stdio_output@@V?$positional_parameter_base@_WV?$stream_output_adapter@_W@__crt_stdio_output@@@2@@__crt_stdio_output@@CAPADXZ 10041d34 f i libucrt:output.obj
 0001:00040d3a       ?narrow_null_string@?$output_processor@_WV?$stream_output_adapter@_W@__crt_stdio_output@@V?$standard_base@_WV?$stream_output_adapter@_W@__crt_stdio_output@@@2@@__crt_stdio_output@@CAPADXZ 10041d3a f i libucrt:output.obj
 0001:00040d40       ?narrow_null_string@?$output_processor@_WV?$string_output_adapter@_W@__crt_stdio_output@@V?$format_validation_base@_WV?$string_output_adapter@_W@__crt_stdio_output@@@2@@__crt_stdio_output@@CAPADXZ 10041d40 f i libucrt:output.obj
 0001:00040d46       ?narrow_null_string@?$output_processor@_WV?$string_output_adapter@_W@__crt_stdio_output@@V?$positional_parameter_base@_WV?$string_output_adapter@_W@__crt_stdio_output@@@2@@__crt_stdio_output@@CAPADXZ 10041d46 f i libucrt:output.obj
 0001:00040d4c       ?narrow_null_string@?$output_processor@_WV?$string_output_adapter@_W@__crt_stdio_output@@V?$standard_base@_WV?$string_output_adapter@_W@__crt_stdio_output@@@2@@__crt_stdio_output@@CAPADXZ 10041d4c f i libucrt:output.obj
 0001:00040d52       ?parse_int_from_format_string@?$output_processor@DV?$stream_output_adapter@D@__crt_stdio_output@@V?$format_validation_base@DV?$stream_output_adapter@D@__crt_stdio_output@@@2@@__crt_stdio_output@@AAE_NQAH@Z 10041d52 f i libucrt:output.obj
 0001:00040dc5       ?parse_int_from_format_string@?$output_processor@DV?$stream_output_adapter@D@__crt_stdio_output@@V?$positional_parameter_base@DV?$stream_output_adapter@D@__crt_stdio_output@@@2@@__crt_stdio_output@@AAE_NQAH@Z 10041dc5 f i libucrt:output.obj
 0001:00040e38       ?parse_int_from_format_string@?$output_processor@DV?$stream_output_adapter@D@__crt_stdio_output@@V?$standard_base@DV?$stream_output_adapter@D@__crt_stdio_output@@@2@@__crt_stdio_output@@AAE_NQAH@Z 10041e38 f i libucrt:output.obj
 0001:00040eab       ?parse_int_from_format_string@?$output_processor@DV?$string_output_adapter@D@__crt_stdio_output@@V?$format_validation_base@DV?$string_output_adapter@D@__crt_stdio_output@@@2@@__crt_stdio_output@@AAE_NQAH@Z 10041eab f i libucrt:output.obj
 0001:00040f1e       ?parse_int_from_format_string@?$output_processor@DV?$string_output_adapter@D@__crt_stdio_output@@V?$positional_parameter_base@DV?$string_output_adapter@D@__crt_stdio_output@@@2@@__crt_stdio_output@@AAE_NQAH@Z 10041f1e f i libucrt:output.obj
 0001:00040f91       ?parse_int_from_format_string@?$output_processor@DV?$string_output_adapter@D@__crt_stdio_output@@V?$standard_base@DV?$string_output_adapter@D@__crt_stdio_output@@@2@@__crt_stdio_output@@AAE_NQAH@Z 10041f91 f i libucrt:output.obj
 0001:00041004       ?parse_int_from_format_string@?$output_processor@_WV?$stream_output_adapter@_W@__crt_stdio_output@@V?$format_validation_base@_WV?$stream_output_adapter@_W@__crt_stdio_output@@@2@@__crt_stdio_output@@AAE_NQAH@Z 10042004 f i libucrt:output.obj
 0001:00041079       ?parse_int_from_format_string@?$output_processor@_WV?$stream_output_adapter@_W@__crt_stdio_output@@V?$positional_parameter_base@_WV?$stream_output_adapter@_W@__crt_stdio_output@@@2@@__crt_stdio_output@@AAE_NQAH@Z 10042079 f i libucrt:output.obj
 0001:000410ee       ?parse_int_from_format_string@?$output_processor@_WV?$stream_output_adapter@_W@__crt_stdio_output@@V?$standard_base@_WV?$stream_output_adapter@_W@__crt_stdio_output@@@2@@__crt_stdio_output@@AAE_NQAH@Z 100420ee f i libucrt:output.obj
 0001:00041163       ?parse_int_from_format_string@?$output_processor@_WV?$string_output_adapter@_W@__crt_stdio_output@@V?$format_validation_base@_WV?$string_output_adapter@_W@__crt_stdio_output@@@2@@__crt_stdio_output@@AAE_NQAH@Z 10042163 f i libucrt:output.obj
 0001:000411d8       ?parse_int_from_format_string@?$output_processor@_WV?$string_output_adapter@_W@__crt_stdio_output@@V?$positional_parameter_base@_WV?$string_output_adapter@_W@__crt_stdio_output@@@2@@__crt_stdio_output@@AAE_NQAH@Z 100421d8 f i libucrt:output.obj
 0001:0004124d       ?parse_int_from_format_string@?$output_processor@_WV?$string_output_adapter@_W@__crt_stdio_output@@V?$standard_base@_WV?$string_output_adapter@_W@__crt_stdio_output@@@2@@__crt_stdio_output@@AAE_NQAH@Z 1004224d f i libucrt:output.obj
 0001:000412c2       ?process@?$output_processor@DV?$stream_output_adapter@D@__crt_stdio_output@@V?$format_validation_base@DV?$stream_output_adapter@D@__crt_stdio_output@@@2@@__crt_stdio_output@@QAEHXZ 100422c2 f i libucrt:output.obj
 0001:00041434       ?process@?$output_processor@DV?$stream_output_adapter@D@__crt_stdio_output@@V?$positional_parameter_base@DV?$stream_output_adapter@D@__crt_stdio_output@@@2@@__crt_stdio_output@@QAEHXZ 10042434 f i libucrt:output.obj
 0001:000415e7       ?process@?$output_processor@DV?$stream_output_adapter@D@__crt_stdio_output@@V?$standard_base@DV?$stream_output_adapter@D@__crt_stdio_output@@@2@@__crt_stdio_output@@QAEHXZ 100425e7 f i libucrt:output.obj
 0001:0004174a       ?process@?$output_processor@DV?$string_output_adapter@D@__crt_stdio_output@@V?$format_validation_base@DV?$string_output_adapter@D@__crt_stdio_output@@@2@@__crt_stdio_output@@QAEHXZ 1004274a f i libucrt:output.obj
 0001:000418bc       ?process@?$output_processor@DV?$string_output_adapter@D@__crt_stdio_output@@V?$positional_parameter_base@DV?$string_output_adapter@D@__crt_stdio_output@@@2@@__crt_stdio_output@@QAEHXZ 100428bc f i libucrt:output.obj
 0001:00041a6f       ?process@?$output_processor@DV?$string_output_adapter@D@__crt_stdio_output@@V?$standard_base@DV?$string_output_adapter@D@__crt_stdio_output@@@2@@__crt_stdio_output@@QAEHXZ 10042a6f f i libucrt:output.obj
 0001:00041bd2       ?process@?$output_processor@_WV?$stream_output_adapter@_W@__crt_stdio_output@@V?$format_validation_base@_WV?$stream_output_adapter@_W@__crt_stdio_output@@@2@@__crt_stdio_output@@QAEHXZ 10042bd2 f i libucrt:output.obj
 0001:00041d4e       ?process@?$output_processor@_WV?$stream_output_adapter@_W@__crt_stdio_output@@V?$positional_parameter_base@_WV?$stream_output_adapter@_W@__crt_stdio_output@@@2@@__crt_stdio_output@@QAEHXZ 10042d4e f i libucrt:output.obj
 0001:00041f06       ?process@?$output_processor@_WV?$stream_output_adapter@_W@__crt_stdio_output@@V?$standard_base@_WV?$stream_output_adapter@_W@__crt_stdio_output@@@2@@__crt_stdio_output@@QAEHXZ 10042f06 f i libucrt:output.obj
 0001:0004206e       ?process@?$output_processor@_WV?$string_output_adapter@_W@__crt_stdio_output@@V?$format_validation_base@_WV?$string_output_adapter@_W@__crt_stdio_output@@@2@@__crt_stdio_output@@QAEHXZ 1004306e f i libucrt:output.obj
 0001:000421ea       ?process@?$output_processor@_WV?$string_output_adapter@_W@__crt_stdio_output@@V?$positional_parameter_base@_WV?$string_output_adapter@_W@__crt_stdio_output@@@2@@__crt_stdio_output@@QAEHXZ 100431ea f i libucrt:output.obj
 0001:000423a2       ?process@?$output_processor@_WV?$string_output_adapter@_W@__crt_stdio_output@@V?$standard_base@_WV?$string_output_adapter@_W@__crt_stdio_output@@@2@@__crt_stdio_output@@QAEHXZ 100433a2 f i libucrt:output.obj
 0001:0004250a       ?public_stream@__crt_stdio_stream@@QBEPAU_iobuf@@XZ 1004350a f i libucrt:output.obj
 0001:0004250d       ?set_flag@?$output_processor@DV?$stream_output_adapter@D@__crt_stdio_output@@V?$format_validation_base@DV?$stream_output_adapter@D@__crt_stdio_output@@@2@@__crt_stdio_output@@AAEXI@Z 1004350d f i libucrt:output.obj
 0001:0004251f       ?set_flag@?$output_processor@DV?$stream_output_adapter@D@__crt_stdio_output@@V?$positional_parameter_base@DV?$stream_output_adapter@D@__crt_stdio_output@@@2@@__crt_stdio_output@@AAEXI@Z 1004351f f i libucrt:output.obj
 0001:00042531       ?set_flag@?$output_processor@DV?$stream_output_adapter@D@__crt_stdio_output@@V?$standard_base@DV?$stream_output_adapter@D@__crt_stdio_output@@@2@@__crt_stdio_output@@AAEXI@Z 10043531 f i libucrt:output.obj
 0001:00042543       ?set_flag@?$output_processor@DV?$string_output_adapter@D@__crt_stdio_output@@V?$format_validation_base@DV?$string_output_adapter@D@__crt_stdio_output@@@2@@__crt_stdio_output@@AAEXI@Z 10043543 f i libucrt:output.obj
 0001:00042555       ?set_flag@?$output_processor@DV?$string_output_adapter@D@__crt_stdio_output@@V?$positional_parameter_base@DV?$string_output_adapter@D@__crt_stdio_output@@@2@@__crt_stdio_output@@AAEXI@Z 10043555 f i libucrt:output.obj
 0001:00042567       ?set_flag@?$output_processor@DV?$string_output_adapter@D@__crt_stdio_output@@V?$standard_base@DV?$string_output_adapter@D@__crt_stdio_output@@@2@@__crt_stdio_output@@AAEXI@Z 10043567 f i libucrt:output.obj
 0001:00042579       ?set_flag@?$output_processor@_WV?$stream_output_adapter@_W@__crt_stdio_output@@V?$format_validation_base@_WV?$stream_output_adapter@_W@__crt_stdio_output@@@2@@__crt_stdio_output@@AAEXI@Z 10043579 f i libucrt:output.obj
 0001:0004258b       ?set_flag@?$output_processor@_WV?$stream_output_adapter@_W@__crt_stdio_output@@V?$positional_parameter_base@_WV?$stream_output_adapter@_W@__crt_stdio_output@@@2@@__crt_stdio_output@@AAEXI@Z 1004358b f i libucrt:output.obj
 0001:0004259d       ?set_flag@?$output_processor@_WV?$stream_output_adapter@_W@__crt_stdio_output@@V?$standard_base@_WV?$stream_output_adapter@_W@__crt_stdio_output@@@2@@__crt_stdio_output@@AAEXI@Z 1004359d f i libucrt:output.obj
 0001:000425af       ?set_flag@?$output_processor@_WV?$string_output_adapter@_W@__crt_stdio_output@@V?$format_validation_base@_WV?$string_output_adapter@_W@__crt_stdio_output@@@2@@__crt_stdio_output@@AAEXI@Z 100435af f i libucrt:output.obj
 0001:000425c1       ?set_flag@?$output_processor@_WV?$string_output_adapter@_W@__crt_stdio_output@@V?$positional_parameter_base@_WV?$string_output_adapter@_W@__crt_stdio_output@@@2@@__crt_stdio_output@@AAEXI@Z 100435c1 f i libucrt:output.obj
 0001:000425d3       ?set_flag@?$output_processor@_WV?$string_output_adapter@_W@__crt_stdio_output@@V?$standard_base@_WV?$string_output_adapter@_W@__crt_stdio_output@@@2@@__crt_stdio_output@@AAEXI@Z 100435d3 f i libucrt:output.obj
 0001:000425e5       ?should_format@?$positional_parameter_base@DV?$stream_output_adapter@D@__crt_stdio_output@@@__crt_stdio_output@@IAE_NXZ 100435e5 f i libucrt:output.obj
 0001:00042600       ?should_format@?$positional_parameter_base@DV?$string_output_adapter@D@__crt_stdio_output@@@__crt_stdio_output@@IAE_NXZ 10043600 f i libucrt:output.obj
 0001:0004261b       ?should_format@?$positional_parameter_base@_WV?$stream_output_adapter@_W@__crt_stdio_output@@@__crt_stdio_output@@IAE_NXZ 1004361b f i libucrt:output.obj
 0001:00042636       ?should_format@?$positional_parameter_base@_WV?$string_output_adapter@_W@__crt_stdio_output@@@__crt_stdio_output@@IAE_NXZ 10043636 f i libucrt:output.obj
 0001:00042651       ?should_format@?$standard_base@DV?$stream_output_adapter@D@__crt_stdio_output@@@__crt_stdio_output@@IAE_NXZ 10043651 f i libucrt:output.obj
 0001:00042654       ?should_format@?$standard_base@DV?$string_output_adapter@D@__crt_stdio_output@@@__crt_stdio_output@@IAE_NXZ 10043654 f i libucrt:output.obj
 0001:00042657       ?should_format@?$standard_base@_WV?$stream_output_adapter@_W@__crt_stdio_output@@@__crt_stdio_output@@IAE_NXZ 10043657 f i libucrt:output.obj
 0001:0004265a       ?should_format@?$standard_base@_WV?$string_output_adapter@_W@__crt_stdio_output@@@__crt_stdio_output@@IAE_NXZ 1004365a f i libucrt:output.obj
 0001:0004265d       ?should_skip_normal_state_processing@?$positional_parameter_base@DV?$stream_output_adapter@D@__crt_stdio_output@@@__crt_stdio_output@@IAE_NXZ 1004365d f i libucrt:output.obj
 0001:0004268f       ?should_skip_normal_state_processing@?$positional_parameter_base@DV?$string_output_adapter@D@__crt_stdio_output@@@__crt_stdio_output@@IAE_NXZ 1004368f f i libucrt:output.obj
 0001:000426c1       ?should_skip_normal_state_processing@?$positional_parameter_base@_WV?$stream_output_adapter@_W@__crt_stdio_output@@@__crt_stdio_output@@IAE_NXZ 100436c1 f i libucrt:output.obj
 0001:000426f3       ?should_skip_normal_state_processing@?$positional_parameter_base@_WV?$string_output_adapter@_W@__crt_stdio_output@@@__crt_stdio_output@@IAE_NXZ 100436f3 f i libucrt:output.obj
 0001:00042725       ?should_skip_normal_state_processing@?$standard_base@DV?$stream_output_adapter@D@__crt_stdio_output@@@__crt_stdio_output@@IAE_NXZ 10043725 f i libucrt:output.obj
 0001:00042728       ?should_skip_normal_state_processing@?$standard_base@DV?$string_output_adapter@D@__crt_stdio_output@@@__crt_stdio_output@@IAE_NXZ 10043728 f i libucrt:output.obj
 0001:0004272b       ?should_skip_normal_state_processing@?$standard_base@_WV?$stream_output_adapter@_W@__crt_stdio_output@@@__crt_stdio_output@@IAE_NXZ 1004372b f i libucrt:output.obj
 0001:0004272e       ?should_skip_normal_state_processing@?$standard_base@_WV?$string_output_adapter@_W@__crt_stdio_output@@@__crt_stdio_output@@IAE_NXZ 1004372e f i libucrt:output.obj
 0001:00042731       ?should_skip_type_state_output@?$positional_parameter_base@DV?$stream_output_adapter@D@__crt_stdio_output@@@__crt_stdio_output@@IBE_NXZ 10043731 f i libucrt:output.obj
 0001:0004274d       ?should_skip_type_state_output@?$positional_parameter_base@DV?$string_output_adapter@D@__crt_stdio_output@@@__crt_stdio_output@@IBE_NXZ 1004374d f i libucrt:output.obj
 0001:00042769       ?should_skip_type_state_output@?$positional_parameter_base@_WV?$stream_output_adapter@_W@__crt_stdio_output@@@__crt_stdio_output@@IBE_NXZ 10043769 f i libucrt:output.obj
 0001:00042785       ?should_skip_type_state_output@?$positional_parameter_base@_WV?$string_output_adapter@_W@__crt_stdio_output@@@__crt_stdio_output@@IBE_NXZ 10043785 f i libucrt:output.obj
 0001:000427a1       ?should_skip_type_state_output@?$standard_base@DV?$stream_output_adapter@D@__crt_stdio_output@@@__crt_stdio_output@@IBE_NXZ 100437a1 f i libucrt:output.obj
 0001:000427a4       ?should_skip_type_state_output@?$standard_base@DV?$string_output_adapter@D@__crt_stdio_output@@@__crt_stdio_output@@IBE_NXZ 100437a4 f i libucrt:output.obj
 0001:000427a7       ?should_skip_type_state_output@?$standard_base@_WV?$stream_output_adapter@_W@__crt_stdio_output@@@__crt_stdio_output@@IBE_NXZ 100437a7 f i libucrt:output.obj
 0001:000427aa       ?should_skip_type_state_output@?$standard_base@_WV?$string_output_adapter@_W@__crt_stdio_output@@@__crt_stdio_output@@IBE_NXZ 100437aa f i libucrt:output.obj
 0001:000427ad       ?state_case_dot@?$output_processor@DV?$stream_output_adapter@D@__crt_stdio_output@@V?$format_validation_base@DV?$stream_output_adapter@D@__crt_stdio_output@@@2@@__crt_stdio_output@@AAE_NXZ 100437ad f i libucrt:output.obj
 0001:000427b4       ?state_case_dot@?$output_processor@DV?$stream_output_adapter@D@__crt_stdio_output@@V?$positional_parameter_base@DV?$stream_output_adapter@D@__crt_stdio_output@@@2@@__crt_stdio_output@@AAE_NXZ 100437b4 f i libucrt:output.obj
 0001:000427bb       ?state_case_dot@?$output_processor@DV?$stream_output_adapter@D@__crt_stdio_output@@V?$standard_base@DV?$stream_output_adapter@D@__crt_stdio_output@@@2@@__crt_stdio_output@@AAE_NXZ 100437bb f i libucrt:output.obj
 0001:000427c2       ?state_case_dot@?$output_processor@DV?$string_output_adapter@D@__crt_stdio_output@@V?$format_validation_base@DV?$string_output_adapter@D@__crt_stdio_output@@@2@@__crt_stdio_output@@AAE_NXZ 100437c2 f i libucrt:output.obj
 0001:000427c9       ?state_case_dot@?$output_processor@DV?$string_output_adapter@D@__crt_stdio_output@@V?$positional_parameter_base@DV?$string_output_adapter@D@__crt_stdio_output@@@2@@__crt_stdio_output@@AAE_NXZ 100437c9 f i libucrt:output.obj
 0001:000427d0       ?state_case_dot@?$output_processor@DV?$string_output_adapter@D@__crt_stdio_output@@V?$standard_base@DV?$string_output_adapter@D@__crt_stdio_output@@@2@@__crt_stdio_output@@AAE_NXZ 100437d0 f i libucrt:output.obj
 0001:000427d7       ?state_case_dot@?$output_processor@_WV?$stream_output_adapter@_W@__crt_stdio_output@@V?$format_validation_base@_WV?$stream_output_adapter@_W@__crt_stdio_output@@@2@@__crt_stdio_output@@AAE_NXZ 100437d7 f i libucrt:output.obj
 0001:000427de       ?state_case_dot@?$output_processor@_WV?$stream_output_adapter@_W@__crt_stdio_output@@V?$positional_parameter_base@_WV?$stream_output_adapter@_W@__crt_stdio_output@@@2@@__crt_stdio_output@@AAE_NXZ 100437de f i libucrt:output.obj
 0001:000427e5       ?state_case_dot@?$output_processor@_WV?$stream_output_adapter@_W@__crt_stdio_output@@V?$standard_base@_WV?$stream_output_adapter@_W@__crt_stdio_output@@@2@@__crt_stdio_output@@AAE_NXZ 100437e5 f i libucrt:output.obj
 0001:000427ec       ?state_case_dot@?$output_processor@_WV?$string_output_adapter@_W@__crt_stdio_output@@V?$format_validation_base@_WV?$string_output_adapter@_W@__crt_stdio_output@@@2@@__crt_stdio_output@@AAE_NXZ 100437ec f i libucrt:output.obj
 0001:000427f3       ?state_case_dot@?$output_processor@_WV?$string_output_adapter@_W@__crt_stdio_output@@V?$positional_parameter_base@_WV?$string_output_adapter@_W@__crt_stdio_output@@@2@@__crt_stdio_output@@AAE_NXZ 100437f3 f i libucrt:output.obj
 0001:000427fa       ?state_case_dot@?$output_processor@_WV?$string_output_adapter@_W@__crt_stdio_output@@V?$standard_base@_WV?$string_output_adapter@_W@__crt_stdio_output@@@2@@__crt_stdio_output@@AAE_NXZ 100437fa f i libucrt:output.obj
 0001:00042801       ?state_case_flag@?$output_processor@DV?$stream_output_adapter@D@__crt_stdio_output@@V?$format_validation_base@DV?$stream_output_adapter@D@__crt_stdio_output@@@2@@__crt_stdio_output@@AAE_NXZ 10043801 f i libucrt:output.obj
 0001:0004284d       ?state_case_flag@?$output_processor@DV?$stream_output_adapter@D@__crt_stdio_output@@V?$positional_parameter_base@DV?$stream_output_adapter@D@__crt_stdio_output@@@2@@__crt_stdio_output@@AAE_NXZ 1004384d f i libucrt:output.obj
 0001:00042899       ?state_case_flag@?$output_processor@DV?$stream_output_adapter@D@__crt_stdio_output@@V?$standard_base@DV?$stream_output_adapter@D@__crt_stdio_output@@@2@@__crt_stdio_output@@AAE_NXZ 10043899 f i libucrt:output.obj
 0001:000428e5       ?state_case_flag@?$output_processor@DV?$string_output_adapter@D@__crt_stdio_output@@V?$format_validation_base@DV?$string_output_adapter@D@__crt_stdio_output@@@2@@__crt_stdio_output@@AAE_NXZ 100438e5 f i libucrt:output.obj
 0001:00042931       ?state_case_flag@?$output_processor@DV?$string_output_adapter@D@__crt_stdio_output@@V?$positional_parameter_base@DV?$string_output_adapter@D@__crt_stdio_output@@@2@@__crt_stdio_output@@AAE_NXZ 10043931 f i libucrt:output.obj
 0001:0004297d       ?state_case_flag@?$output_processor@DV?$string_output_adapter@D@__crt_stdio_output@@V?$standard_base@DV?$string_output_adapter@D@__crt_stdio_output@@@2@@__crt_stdio_output@@AAE_NXZ 1004397d f i libucrt:output.obj
 0001:000429c9       ?state_case_flag@?$output_processor@_WV?$stream_output_adapter@_W@__crt_stdio_output@@V?$format_validation_base@_WV?$stream_output_adapter@_W@__crt_stdio_output@@@2@@__crt_stdio_output@@AAE_NXZ 100439c9 f i libucrt:output.obj
 0001:00042a15       ?state_case_flag@?$output_processor@_WV?$stream_output_adapter@_W@__crt_stdio_output@@V?$positional_parameter_base@_WV?$stream_output_adapter@_W@__crt_stdio_output@@@2@@__crt_stdio_output@@AAE_NXZ 10043a15 f i libucrt:output.obj
 0001:00042a61       ?state_case_flag@?$output_processor@_WV?$stream_output_adapter@_W@__crt_stdio_output@@V?$standard_base@_WV?$stream_output_adapter@_W@__crt_stdio_output@@@2@@__crt_stdio_output@@AAE_NXZ 10043a61 f i libucrt:output.obj
 0001:00042aad       ?state_case_flag@?$output_processor@_WV?$string_output_adapter@_W@__crt_stdio_output@@V?$format_validation_base@_WV?$string_output_adapter@_W@__crt_stdio_output@@@2@@__crt_stdio_output@@AAE_NXZ 10043aad f i libucrt:output.obj
 0001:00042af9       ?state_case_flag@?$output_processor@_WV?$string_output_adapter@_W@__crt_stdio_output@@V?$positional_parameter_base@_WV?$string_output_adapter@_W@__crt_stdio_output@@@2@@__crt_stdio_output@@AAE_NXZ 10043af9 f i libucrt:output.obj
 0001:00042b45       ?state_case_flag@?$output_processor@_WV?$string_output_adapter@_W@__crt_stdio_output@@V?$standard_base@_WV?$string_output_adapter@_W@__crt_stdio_output@@@2@@__crt_stdio_output@@AAE_NXZ 10043b45 f i libucrt:output.obj
 0001:00042b91       ?state_case_normal@?$output_processor@DV?$stream_output_adapter@D@__crt_stdio_output@@V?$format_validation_base@DV?$stream_output_adapter@D@__crt_stdio_output@@@2@@__crt_stdio_output@@AAE_NXZ 10043b91 f i libucrt:output.obj
 0001:00042bb7       ?state_case_normal@?$output_processor@DV?$stream_output_adapter@D@__crt_stdio_output@@V?$positional_parameter_base@DV?$stream_output_adapter@D@__crt_stdio_output@@@2@@__crt_stdio_output@@AAE_NXZ 10043bb7 f i libucrt:output.obj
 0001:00042bf4       ?state_case_normal@?$output_processor@DV?$stream_output_adapter@D@__crt_stdio_output@@V?$standard_base@DV?$stream_output_adapter@D@__crt_stdio_output@@@2@@__crt_stdio_output@@AAE_NXZ 10043bf4 f i libucrt:output.obj
 0001:00042c1a       ?state_case_normal@?$output_processor@DV?$string_output_adapter@D@__crt_stdio_output@@V?$format_validation_base@DV?$string_output_adapter@D@__crt_stdio_output@@@2@@__crt_stdio_output@@AAE_NXZ 10043c1a f i libucrt:output.obj
 0001:00042c40       ?state_case_normal@?$output_processor@DV?$string_output_adapter@D@__crt_stdio_output@@V?$positional_parameter_base@DV?$string_output_adapter@D@__crt_stdio_output@@@2@@__crt_stdio_output@@AAE_NXZ 10043c40 f i libucrt:output.obj
 0001:00042c7d       ?state_case_normal@?$output_processor@DV?$string_output_adapter@D@__crt_stdio_output@@V?$standard_base@DV?$string_output_adapter@D@__crt_stdio_output@@@2@@__crt_stdio_output@@AAE_NXZ 10043c7d f i libucrt:output.obj
 0001:00042ca3       ?state_case_normal@?$output_processor@_WV?$stream_output_adapter@_W@__crt_stdio_output@@V?$format_validation_base@_WV?$stream_output_adapter@_W@__crt_stdio_output@@@2@@__crt_stdio_output@@AAE_NXZ 10043ca3 f i libucrt:output.obj
 0001:00042cc9       ?state_case_normal@?$output_processor@_WV?$stream_output_adapter@_W@__crt_stdio_output@@V?$positional_parameter_base@_WV?$stream_output_adapter@_W@__crt_stdio_output@@@2@@__crt_stdio_output@@AAE_NXZ 10043cc9 f i libucrt:output.obj
 0001:00042d06       ?state_case_normal@?$output_processor@_WV?$stream_output_adapter@_W@__crt_stdio_output@@V?$standard_base@_WV?$stream_output_adapter@_W@__crt_stdio_output@@@2@@__crt_stdio_output@@AAE_NXZ 10043d06 f i libucrt:output.obj
 0001:00042d2c       ?state_case_normal@?$output_processor@_WV?$string_output_adapter@_W@__crt_stdio_output@@V?$format_validation_base@_WV?$string_output_adapter@_W@__crt_stdio_output@@@2@@__crt_stdio_output@@AAE_NXZ 10043d2c f i libucrt:output.obj
 0001:00042d52       ?state_case_normal@?$output_processor@_WV?$string_output_adapter@_W@__crt_stdio_output@@V?$positional_parameter_base@_WV?$string_output_adapter@_W@__crt_stdio_output@@@2@@__crt_stdio_output@@AAE_NXZ 10043d52 f i libucrt:output.obj
 0001:00042d8f       ?state_case_normal@?$output_processor@_WV?$string_output_adapter@_W@__crt_stdio_output@@V?$standard_base@_WV?$string_output_adapter@_W@__crt_stdio_output@@@2@@__crt_stdio_output@@AAE_NXZ 10043d8f f i libucrt:output.obj
 0001:00042db5       ?state_case_normal_common@?$output_processor@DV?$stream_output_adapter@D@__crt_stdio_output@@V?$format_validation_base@DV?$stream_output_adapter@D@__crt_stdio_output@@@2@@__crt_stdio_output@@AAE_NXZ 10043db5 f i libucrt:output.obj
 0001:00042de9       ?state_case_normal_common@?$output_processor@DV?$stream_output_adapter@D@__crt_stdio_output@@V?$positional_parameter_base@DV?$stream_output_adapter@D@__crt_stdio_output@@@2@@__crt_stdio_output@@AAE_NXZ 10043de9 f i libucrt:output.obj
 0001:00042e1d       ?state_case_normal_common@?$output_processor@DV?$stream_output_adapter@D@__crt_stdio_output@@V?$standard_base@DV?$stream_output_adapter@D@__crt_stdio_output@@@2@@__crt_stdio_output@@AAE_NXZ 10043e1d f i libucrt:output.obj
 0001:00042e51       ?state_case_normal_common@?$output_processor@DV?$string_output_adapter@D@__crt_stdio_output@@V?$format_validation_base@DV?$string_output_adapter@D@__crt_stdio_output@@@2@@__crt_stdio_output@@AAE_NXZ 10043e51 f i libucrt:output.obj
 0001:00042e85       ?state_case_normal_common@?$output_processor@DV?$string_output_adapter@D@__crt_stdio_output@@V?$positional_parameter_base@DV?$string_output_adapter@D@__crt_stdio_output@@@2@@__crt_stdio_output@@AAE_NXZ 10043e85 f i libucrt:output.obj
 0001:00042eb9       ?state_case_normal_common@?$output_processor@DV?$string_output_adapter@D@__crt_stdio_output@@V?$standard_base@DV?$string_output_adapter@D@__crt_stdio_output@@@2@@__crt_stdio_output@@AAE_NXZ 10043eb9 f i libucrt:output.obj
 0001:00042eed       ?state_case_normal_common@?$output_processor@_WV?$stream_output_adapter@_W@__crt_stdio_output@@V?$format_validation_base@_WV?$stream_output_adapter@_W@__crt_stdio_output@@@2@@__crt_stdio_output@@AAE_NXZ 10043eed f i libucrt:output.obj
 0001:00042f0e       ?state_case_normal_common@?$output_processor@_WV?$stream_output_adapter@_W@__crt_stdio_output@@V?$positional_parameter_base@_WV?$stream_output_adapter@_W@__crt_stdio_output@@@2@@__crt_stdio_output@@AAE_NXZ 10043f0e f i libucrt:output.obj
 0001:00042f2f       ?state_case_normal_common@?$output_processor@_WV?$stream_output_adapter@_W@__crt_stdio_output@@V?$standard_base@_WV?$stream_output_adapter@_W@__crt_stdio_output@@@2@@__crt_stdio_output@@AAE_NXZ 10043f2f f i libucrt:output.obj
 0001:00042f50       ?state_case_normal_common@?$output_processor@_WV?$string_output_adapter@_W@__crt_stdio_output@@V?$format_validation_base@_WV?$string_output_adapter@_W@__crt_stdio_output@@@2@@__crt_stdio_output@@AAE_NXZ 10043f50 f i libucrt:output.obj
 0001:00042f71       ?state_case_normal_common@?$output_processor@_WV?$string_output_adapter@_W@__crt_stdio_output@@V?$positional_parameter_base@_WV?$string_output_adapter@_W@__crt_stdio_output@@@2@@__crt_stdio_output@@AAE_NXZ 10043f71 f i libucrt:output.obj
 0001:00042f92       ?state_case_normal_common@?$output_processor@_WV?$string_output_adapter@_W@__crt_stdio_output@@V?$standard_base@_WV?$string_output_adapter@_W@__crt_stdio_output@@@2@@__crt_stdio_output@@AAE_NXZ 10043f92 f i libucrt:output.obj
 0001:00042fb3       ?state_case_normal_tchar@?$output_processor@DV?$stream_output_adapter@D@__crt_stdio_output@@V?$format_validation_base@DV?$stream_output_adapter@D@__crt_stdio_output@@@2@@__crt_stdio_output@@AAE_ND@Z 10043fb3 f i libucrt:output.obj
 0001:0004302c       ?state_case_normal_tchar@?$output_processor@DV?$stream_output_adapter@D@__crt_stdio_output@@V?$positional_parameter_base@DV?$stream_output_adapter@D@__crt_stdio_output@@@2@@__crt_stdio_output@@AAE_ND@Z 1004402c f i libucrt:output.obj
 0001:000430a5       ?state_case_normal_tchar@?$output_processor@DV?$stream_output_adapter@D@__crt_stdio_output@@V?$standard_base@DV?$stream_output_adapter@D@__crt_stdio_output@@@2@@__crt_stdio_output@@AAE_ND@Z 100440a5 f i libucrt:output.obj
 0001:0004311e       ?state_case_normal_tchar@?$output_processor@DV?$string_output_adapter@D@__crt_stdio_output@@V?$format_validation_base@DV?$string_output_adapter@D@__crt_stdio_output@@@2@@__crt_stdio_output@@AAE_ND@Z 1004411e f i libucrt:output.obj
 0001:00043197       ?state_case_normal_tchar@?$output_processor@DV?$string_output_adapter@D@__crt_stdio_output@@V?$positional_parameter_base@DV?$string_output_adapter@D@__crt_stdio_output@@@2@@__crt_stdio_output@@AAE_ND@Z 10044197 f i libucrt:output.obj
 0001:00043210       ?state_case_normal_tchar@?$output_processor@DV?$string_output_adapter@D@__crt_stdio_output@@V?$standard_base@DV?$string_output_adapter@D@__crt_stdio_output@@@2@@__crt_stdio_output@@AAE_ND@Z 10044210 f i libucrt:output.obj
 0001:00043289       ?state_case_normal_tchar@?$output_processor@_WV?$stream_output_adapter@_W@__crt_stdio_output@@V?$format_validation_base@_WV?$stream_output_adapter@_W@__crt_stdio_output@@@2@@__crt_stdio_output@@AAE_N_W@Z 10044289 f i libucrt:output.obj
 0001:00043294       ?state_case_normal_tchar@?$output_processor@_WV?$stream_output_adapter@_W@__crt_stdio_output@@V?$positional_parameter_base@_WV?$stream_output_adapter@_W@__crt_stdio_output@@@2@@__crt_stdio_output@@AAE_N_W@Z 10044294 f i libucrt:output.obj
 0001:0004329f       ?state_case_normal_tchar@?$output_processor@_WV?$stream_output_adapter@_W@__crt_stdio_output@@V?$standard_base@_WV?$stream_output_adapter@_W@__crt_stdio_output@@@2@@__crt_stdio_output@@AAE_N_W@Z 1004429f f i libucrt:output.obj
 0001:000432aa       ?state_case_normal_tchar@?$output_processor@_WV?$string_output_adapter@_W@__crt_stdio_output@@V?$format_validation_base@_WV?$string_output_adapter@_W@__crt_stdio_output@@@2@@__crt_stdio_output@@AAE_N_W@Z 100442aa f i libucrt:output.obj
 0001:000432b5       ?state_case_normal_tchar@?$output_processor@_WV?$string_output_adapter@_W@__crt_stdio_output@@V?$positional_parameter_base@_WV?$string_output_adapter@_W@__crt_stdio_output@@@2@@__crt_stdio_output@@AAE_N_W@Z 100442b5 f i libucrt:output.obj
 0001:000432c0       ?state_case_normal_tchar@?$output_processor@_WV?$string_output_adapter@_W@__crt_stdio_output@@V?$standard_base@_WV?$string_output_adapter@_W@__crt_stdio_output@@@2@@__crt_stdio_output@@AAE_N_W@Z 100442c0 f i libucrt:output.obj
 0001:000432cb       ?state_case_percent@?$output_processor@DV?$stream_output_adapter@D@__crt_stdio_output@@V?$format_validation_base@DV?$stream_output_adapter@D@__crt_stdio_output@@@2@@__crt_stdio_output@@AAE_NXZ 100442cb f i libucrt:output.obj
 0001:000432e9       ?state_case_percent@?$output_processor@DV?$stream_output_adapter@D@__crt_stdio_output@@V?$positional_parameter_base@DV?$stream_output_adapter@D@__crt_stdio_output@@@2@@__crt_stdio_output@@AAE_NXZ 100442e9 f i libucrt:output.obj
 0001:00043307       ?state_case_percent@?$output_processor@DV?$stream_output_adapter@D@__crt_stdio_output@@V?$standard_base@DV?$stream_output_adapter@D@__crt_stdio_output@@@2@@__crt_stdio_output@@AAE_NXZ 10044307 f i libucrt:output.obj
 0001:00043325       ?state_case_percent@?$output_processor@DV?$string_output_adapter@D@__crt_stdio_output@@V?$format_validation_base@DV?$string_output_adapter@D@__crt_stdio_output@@@2@@__crt_stdio_output@@AAE_NXZ 10044325 f i libucrt:output.obj
 0001:00043343       ?state_case_percent@?$output_processor@DV?$string_output_adapter@D@__crt_stdio_output@@V?$positional_parameter_base@DV?$string_output_adapter@D@__crt_stdio_output@@@2@@__crt_stdio_output@@AAE_NXZ 10044343 f i libucrt:output.obj
 0001:00043361       ?state_case_percent@?$output_processor@DV?$string_output_adapter@D@__crt_stdio_output@@V?$standard_base@DV?$string_output_adapter@D@__crt_stdio_output@@@2@@__crt_stdio_output@@AAE_NXZ 10044361 f i libucrt:output.obj
 0001:0004337f       ?state_case_percent@?$output_processor@_WV?$stream_output_adapter@_W@__crt_stdio_output@@V?$format_validation_base@_WV?$stream_output_adapter@_W@__crt_stdio_output@@@2@@__crt_stdio_output@@AAE_NXZ 1004437f f i libucrt:output.obj
 0001:0004339d       ?state_case_percent@?$output_processor@_WV?$stream_output_adapter@_W@__crt_stdio_output@@V?$positional_parameter_base@_WV?$stream_output_adapter@_W@__crt_stdio_output@@@2@@__crt_stdio_output@@AAE_NXZ 1004439d f i libucrt:output.obj
 0001:000433bb       ?state_case_percent@?$output_processor@_WV?$stream_output_adapter@_W@__crt_stdio_output@@V?$standard_base@_WV?$stream_output_adapter@_W@__crt_stdio_output@@@2@@__crt_stdio_output@@AAE_NXZ 100443bb f i libucrt:output.obj
 0001:000433d9       ?state_case_percent@?$output_processor@_WV?$string_output_adapter@_W@__crt_stdio_output@@V?$format_validation_base@_WV?$string_output_adapter@_W@__crt_stdio_output@@@2@@__crt_stdio_output@@AAE_NXZ 100443d9 f i libucrt:output.obj
 0001:000433f7       ?state_case_percent@?$output_processor@_WV?$string_output_adapter@_W@__crt_stdio_output@@V?$positional_parameter_base@_WV?$string_output_adapter@_W@__crt_stdio_output@@@2@@__crt_stdio_output@@AAE_NXZ 100443f7 f i libucrt:output.obj
 0001:00043415       ?state_case_percent@?$output_processor@_WV?$string_output_adapter@_W@__crt_stdio_output@@V?$standard_base@_WV?$string_output_adapter@_W@__crt_stdio_output@@@2@@__crt_stdio_output@@AAE_NXZ 10044415 f i libucrt:output.obj
 0001:00043433       ?state_case_precision@?$output_processor@DV?$stream_output_adapter@D@__crt_stdio_output@@V?$format_validation_base@DV?$stream_output_adapter@D@__crt_stdio_output@@@2@@__crt_stdio_output@@AAE_NXZ 10044433 f i libucrt:output.obj
 0001:00043465       ?state_case_precision@?$output_processor@DV?$stream_output_adapter@D@__crt_stdio_output@@V?$positional_parameter_base@DV?$stream_output_adapter@D@__crt_stdio_output@@@2@@__crt_stdio_output@@AAE_NXZ 10044465 f i libucrt:output.obj
 0001:000434ad       ?state_case_precision@?$output_processor@DV?$stream_output_adapter@D@__crt_stdio_output@@V?$standard_base@DV?$stream_output_adapter@D@__crt_stdio_output@@@2@@__crt_stdio_output@@AAE_NXZ 100444ad f i libucrt:output.obj
 0001:000434df       ?state_case_precision@?$output_processor@DV?$string_output_adapter@D@__crt_stdio_output@@V?$format_validation_base@DV?$string_output_adapter@D@__crt_stdio_output@@@2@@__crt_stdio_output@@AAE_NXZ 100444df f i libucrt:output.obj
 0001:00043511       ?state_case_precision@?$output_processor@DV?$string_output_adapter@D@__crt_stdio_output@@V?$positional_parameter_base@DV?$string_output_adapter@D@__crt_stdio_output@@@2@@__crt_stdio_output@@AAE_NXZ 10044511 f i libucrt:output.obj
 0001:00043559       ?state_case_precision@?$output_processor@DV?$string_output_adapter@D@__crt_stdio_output@@V?$standard_base@DV?$string_output_adapter@D@__crt_stdio_output@@@2@@__crt_stdio_output@@AAE_NXZ 10044559 f i libucrt:output.obj
 0001:0004358b       ?state_case_precision@?$output_processor@_WV?$stream_output_adapter@_W@__crt_stdio_output@@V?$format_validation_base@_WV?$stream_output_adapter@_W@__crt_stdio_output@@@2@@__crt_stdio_output@@AAE_NXZ 1004458b f i libucrt:output.obj
 0001:000435be       ?state_case_precision@?$output_processor@_WV?$stream_output_adapter@_W@__crt_stdio_output@@V?$positional_parameter_base@_WV?$stream_output_adapter@_W@__crt_stdio_output@@@2@@__crt_stdio_output@@AAE_NXZ 100445be f i libucrt:output.obj
 0001:00043607       ?state_case_precision@?$output_processor@_WV?$stream_output_adapter@_W@__crt_stdio_output@@V?$standard_base@_WV?$stream_output_adapter@_W@__crt_stdio_output@@@2@@__crt_stdio_output@@AAE_NXZ 10044607 f i libucrt:output.obj
 0001:0004363a       ?state_case_precision@?$output_processor@_WV?$string_output_adapter@_W@__crt_stdio_output@@V?$format_validation_base@_WV?$string_output_adapter@_W@__crt_stdio_output@@@2@@__crt_stdio_output@@AAE_NXZ 1004463a f i libucrt:output.obj
 0001:0004366d       ?state_case_precision@?$output_processor@_WV?$string_output_adapter@_W@__crt_stdio_output@@V?$positional_parameter_base@_WV?$string_output_adapter@_W@__crt_stdio_output@@@2@@__crt_stdio_output@@AAE_NXZ 1004466d f i libucrt:output.obj
 0001:000436b6       ?state_case_precision@?$output_processor@_WV?$string_output_adapter@_W@__crt_stdio_output@@V?$standard_base@_WV?$string_output_adapter@_W@__crt_stdio_output@@@2@@__crt_stdio_output@@AAE_NXZ 100446b6 f i libucrt:output.obj
 0001:000436e9       ?state_case_size@?$output_processor@DV?$stream_output_adapter@D@__crt_stdio_output@@V?$format_validation_base@DV?$stream_output_adapter@D@__crt_stdio_output@@@2@@__crt_stdio_output@@AAE_NXZ 100446e9 f i libucrt:output.obj
 0001:000438ac       ?state_case_size@?$output_processor@DV?$stream_output_adapter@D@__crt_stdio_output@@V?$positional_parameter_base@DV?$stream_output_adapter@D@__crt_stdio_output@@@2@@__crt_stdio_output@@AAE_NXZ 100448ac f i libucrt:output.obj
 0001:00043a6f       ?state_case_size@?$output_processor@DV?$stream_output_adapter@D@__crt_stdio_output@@V?$standard_base@DV?$stream_output_adapter@D@__crt_stdio_output@@@2@@__crt_stdio_output@@AAE_NXZ 10044a6f f i libucrt:output.obj
 0001:00043c32       ?state_case_size@?$output_processor@DV?$string_output_adapter@D@__crt_stdio_output@@V?$format_validation_base@DV?$string_output_adapter@D@__crt_stdio_output@@@2@@__crt_stdio_output@@AAE_NXZ 10044c32 f i libucrt:output.obj
 0001:00043df5       ?state_case_size@?$output_processor@DV?$string_output_adapter@D@__crt_stdio_output@@V?$positional_parameter_base@DV?$string_output_adapter@D@__crt_stdio_output@@@2@@__crt_stdio_output@@AAE_NXZ 10044df5 f i libucrt:output.obj
 0001:00043fb8       ?state_case_size@?$output_processor@DV?$string_output_adapter@D@__crt_stdio_output@@V?$standard_base@DV?$string_output_adapter@D@__crt_stdio_output@@@2@@__crt_stdio_output@@AAE_NXZ 10044fb8 f i libucrt:output.obj
 0001:0004417b       ?state_case_size@?$output_processor@_WV?$stream_output_adapter@_W@__crt_stdio_output@@V?$format_validation_base@_WV?$stream_output_adapter@_W@__crt_stdio_output@@@2@@__crt_stdio_output@@AAE_NXZ 1004517b f i libucrt:output.obj
 0001:00044356       ?state_case_size@?$output_processor@_WV?$stream_output_adapter@_W@__crt_stdio_output@@V?$positional_parameter_base@_WV?$stream_output_adapter@_W@__crt_stdio_output@@@2@@__crt_stdio_output@@AAE_NXZ 10045356 f i libucrt:output.obj
 0001:00044531       ?state_case_size@?$output_processor@_WV?$stream_output_adapter@_W@__crt_stdio_output@@V?$standard_base@_WV?$stream_output_adapter@_W@__crt_stdio_output@@@2@@__crt_stdio_output@@AAE_NXZ 10045531 f i libucrt:output.obj
 0001:0004470c       ?state_case_size@?$output_processor@_WV?$string_output_adapter@_W@__crt_stdio_output@@V?$format_validation_base@_WV?$string_output_adapter@_W@__crt_stdio_output@@@2@@__crt_stdio_output@@AAE_NXZ 1004570c f i libucrt:output.obj
 0001:000448e7       ?state_case_size@?$output_processor@_WV?$string_output_adapter@_W@__crt_stdio_output@@V?$positional_parameter_base@_WV?$string_output_adapter@_W@__crt_stdio_output@@@2@@__crt_stdio_output@@AAE_NXZ 100458e7 f i libucrt:output.obj
 0001:00044ac2       ?state_case_size@?$output_processor@_WV?$string_output_adapter@_W@__crt_stdio_output@@V?$standard_base@_WV?$string_output_adapter@_W@__crt_stdio_output@@@2@@__crt_stdio_output@@AAE_NXZ 10045ac2 f i libucrt:output.obj
 0001:00044c9d       ?state_case_type@?$output_processor@DV?$stream_output_adapter@D@__crt_stdio_output@@V?$format_validation_base@DV?$stream_output_adapter@D@__crt_stdio_output@@@2@@__crt_stdio_output@@AAE_NXZ 10045c9d f i libucrt:output.obj
 0001:00044f57       ?state_case_type@?$output_processor@DV?$stream_output_adapter@D@__crt_stdio_output@@V?$positional_parameter_base@DV?$stream_output_adapter@D@__crt_stdio_output@@@2@@__crt_stdio_output@@AAE_NXZ 10045f57 f i libucrt:output.obj
 0001:0004521f       ?state_case_type@?$output_processor@DV?$stream_output_adapter@D@__crt_stdio_output@@V?$standard_base@DV?$stream_output_adapter@D@__crt_stdio_output@@@2@@__crt_stdio_output@@AAE_NXZ 1004621f f i libucrt:output.obj
 0001:000454d9       ?state_case_type@?$output_processor@DV?$string_output_adapter@D@__crt_stdio_output@@V?$format_validation_base@DV?$string_output_adapter@D@__crt_stdio_output@@@2@@__crt_stdio_output@@AAE_NXZ 100464d9 f i libucrt:output.obj
 0001:00045793       ?state_case_type@?$output_processor@DV?$string_output_adapter@D@__crt_stdio_output@@V?$positional_parameter_base@DV?$string_output_adapter@D@__crt_stdio_output@@@2@@__crt_stdio_output@@AAE_NXZ 10046793 f i libucrt:output.obj
 0001:00045a5b       ?state_case_type@?$output_processor@DV?$string_output_adapter@D@__crt_stdio_output@@V?$standard_base@DV?$string_output_adapter@D@__crt_stdio_output@@@2@@__crt_stdio_output@@AAE_NXZ 10046a5b f i libucrt:output.obj
 0001:00045d15       ?state_case_type@?$output_processor@_WV?$stream_output_adapter@_W@__crt_stdio_output@@V?$format_validation_base@_WV?$stream_output_adapter@_W@__crt_stdio_output@@@2@@__crt_stdio_output@@AAE_NXZ 10046d15 f i libucrt:output.obj
 0001:00046009       ?state_case_type@?$output_processor@_WV?$stream_output_adapter@_W@__crt_stdio_output@@V?$positional_parameter_base@_WV?$stream_output_adapter@_W@__crt_stdio_output@@@2@@__crt_stdio_output@@AAE_NXZ 10047009 f i libucrt:output.obj
 0001:00046310       ?state_case_type@?$output_processor@_WV?$stream_output_adapter@_W@__crt_stdio_output@@V?$standard_base@_WV?$stream_output_adapter@_W@__crt_stdio_output@@@2@@__crt_stdio_output@@AAE_NXZ 10047310 f i libucrt:output.obj
 0001:00046604       ?state_case_type@?$output_processor@_WV?$string_output_adapter@_W@__crt_stdio_output@@V?$format_validation_base@_WV?$string_output_adapter@_W@__crt_stdio_output@@@2@@__crt_stdio_output@@AAE_NXZ 10047604 f i libucrt:output.obj
 0001:000468f8       ?state_case_type@?$output_processor@_WV?$string_output_adapter@_W@__crt_stdio_output@@V?$positional_parameter_base@_WV?$string_output_adapter@_W@__crt_stdio_output@@@2@@__crt_stdio_output@@AAE_NXZ 100478f8 f i libucrt:output.obj
 0001:00046bff       ?state_case_type@?$output_processor@_WV?$string_output_adapter@_W@__crt_stdio_output@@V?$standard_base@_WV?$string_output_adapter@_W@__crt_stdio_output@@@2@@__crt_stdio_output@@AAE_NXZ 10047bff f i libucrt:output.obj
 0001:00046ef3       ?state_case_width@?$output_processor@DV?$stream_output_adapter@D@__crt_stdio_output@@V?$format_validation_base@DV?$stream_output_adapter@D@__crt_stdio_output@@@2@@__crt_stdio_output@@AAE_NXZ 10047ef3 f i libucrt:output.obj
 0001:00046f28       ?state_case_width@?$output_processor@DV?$stream_output_adapter@D@__crt_stdio_output@@V?$positional_parameter_base@DV?$stream_output_adapter@D@__crt_stdio_output@@@2@@__crt_stdio_output@@AAE_NXZ 10047f28 f i libucrt:output.obj
 0001:00046f78       ?state_case_width@?$output_processor@DV?$stream_output_adapter@D@__crt_stdio_output@@V?$standard_base@DV?$stream_output_adapter@D@__crt_stdio_output@@@2@@__crt_stdio_output@@AAE_NXZ 10047f78 f i libucrt:output.obj
 0001:00046fad       ?state_case_width@?$output_processor@DV?$string_output_adapter@D@__crt_stdio_output@@V?$format_validation_base@DV?$string_output_adapter@D@__crt_stdio_output@@@2@@__crt_stdio_output@@AAE_NXZ 10047fad f i libucrt:output.obj
 0001:00046fe2       ?state_case_width@?$output_processor@DV?$string_output_adapter@D@__crt_stdio_output@@V?$positional_parameter_base@DV?$string_output_adapter@D@__crt_stdio_output@@@2@@__crt_stdio_output@@AAE_NXZ 10047fe2 f i libucrt:output.obj
 0001:00047032       ?state_case_width@?$output_processor@DV?$string_output_adapter@D@__crt_stdio_output@@V?$standard_base@DV?$string_output_adapter@D@__crt_stdio_output@@@2@@__crt_stdio_output@@AAE_NXZ 10048032 f i libucrt:output.obj
 0001:00047067       ?state_case_width@?$output_processor@_WV?$stream_output_adapter@_W@__crt_stdio_output@@V?$format_validation_base@_WV?$stream_output_adapter@_W@__crt_stdio_output@@@2@@__crt_stdio_output@@AAE_NXZ 10048067 f i libucrt:output.obj
 0001:0004709e       ?state_case_width@?$output_processor@_WV?$stream_output_adapter@_W@__crt_stdio_output@@V?$positional_parameter_base@_WV?$stream_output_adapter@_W@__crt_stdio_output@@@2@@__crt_stdio_output@@AAE_NXZ 1004809e f i libucrt:output.obj
 0001:000470ef       ?state_case_width@?$output_processor@_WV?$stream_output_adapter@_W@__crt_stdio_output@@V?$standard_base@_WV?$stream_output_adapter@_W@__crt_stdio_output@@@2@@__crt_stdio_output@@AAE_NXZ 100480ef f i libucrt:output.obj
 0001:00047126       ?state_case_width@?$output_processor@_WV?$string_output_adapter@_W@__crt_stdio_output@@V?$format_validation_base@_WV?$string_output_adapter@_W@__crt_stdio_output@@@2@@__crt_stdio_output@@AAE_NXZ 10048126 f i libucrt:output.obj
 0001:0004715d       ?state_case_width@?$output_processor@_WV?$string_output_adapter@_W@__crt_stdio_output@@V?$positional_parameter_base@_WV?$string_output_adapter@_W@__crt_stdio_output@@@2@@__crt_stdio_output@@AAE_NXZ 1004815d f i libucrt:output.obj
 0001:000471ae       ?state_case_width@?$output_processor@_WV?$string_output_adapter@_W@__crt_stdio_output@@V?$standard_base@_WV?$string_output_adapter@_W@__crt_stdio_output@@@2@@__crt_stdio_output@@AAE_NXZ 100481ae f i libucrt:output.obj
 0001:000471e5       ?state_count@?$format_validation_base@DV?$stream_output_adapter@D@__crt_stdio_output@@@__crt_stdio_output@@KAIXZ 100481e5 f i libucrt:output.obj
 0001:000471e9       ?state_count@?$format_validation_base@DV?$string_output_adapter@D@__crt_stdio_output@@@__crt_stdio_output@@KAIXZ 100481e9 f i libucrt:output.obj
 0001:000471ed       ?state_count@?$format_validation_base@_WV?$stream_output_adapter@_W@__crt_stdio_output@@@__crt_stdio_output@@KAIXZ 100481ed f i libucrt:output.obj
 0001:000471f1       ?state_count@?$format_validation_base@_WV?$string_output_adapter@_W@__crt_stdio_output@@@__crt_stdio_output@@KAIXZ 100481f1 f i libucrt:output.obj
 0001:000471f5       ?state_count@?$standard_base@DV?$stream_output_adapter@D@__crt_stdio_output@@@__crt_stdio_output@@KAIXZ 100481f5 f i libucrt:output.obj
 0001:000471f9       ?state_count@?$standard_base@DV?$string_output_adapter@D@__crt_stdio_output@@@__crt_stdio_output@@KAIXZ 100481f9 f i libucrt:output.obj
 0001:000471fd       ?state_count@?$standard_base@_WV?$stream_output_adapter@_W@__crt_stdio_output@@@__crt_stdio_output@@KAIXZ 100481fd f i libucrt:output.obj
 0001:00047201       ?state_count@?$standard_base@_WV?$string_output_adapter@_W@__crt_stdio_output@@@__crt_stdio_output@@KAIXZ 10048201 f i libucrt:output.obj
 0001:00047205       ?state_transition_table@?$format_validation_base@DV?$stream_output_adapter@D@__crt_stdio_output@@@__crt_stdio_output@@KAPBEXZ 10048205 f i libucrt:output.obj
 0001:0004720b       ?state_transition_table@?$format_validation_base@DV?$string_output_adapter@D@__crt_stdio_output@@@__crt_stdio_output@@KAPBEXZ 1004820b f i libucrt:output.obj
 0001:00047211       ?state_transition_table@?$format_validation_base@_WV?$stream_output_adapter@_W@__crt_stdio_output@@@__crt_stdio_output@@KAPBEXZ 10048211 f i libucrt:output.obj
 0001:00047217       ?state_transition_table@?$format_validation_base@_WV?$string_output_adapter@_W@__crt_stdio_output@@@__crt_stdio_output@@KAPBEXZ 10048217 f i libucrt:output.obj
 0001:0004721d       ?state_transition_table@?$standard_base@DV?$stream_output_adapter@D@__crt_stdio_output@@@__crt_stdio_output@@KAPBEXZ 1004821d f i libucrt:output.obj
 0001:00047223       ?state_transition_table@?$standard_base@DV?$string_output_adapter@D@__crt_stdio_output@@@__crt_stdio_output@@KAPBEXZ 10048223 f i libucrt:output.obj
 0001:00047229       ?state_transition_table@?$standard_base@_WV?$stream_output_adapter@_W@__crt_stdio_output@@@__crt_stdio_output@@KAPBEXZ 10048229 f i libucrt:output.obj
 0001:0004722f       ?state_transition_table@?$standard_base@_WV?$string_output_adapter@_W@__crt_stdio_output@@@__crt_stdio_output@@KAPBEXZ 1004822f f i libucrt:output.obj
 0001:00047235       ?to_integer_size@__crt_stdio_output@@YAIW4length_modifier@1@@Z 10048235 f i libucrt:output.obj
 0001:000472a8       ?type_case_X@?$output_processor@DV?$stream_output_adapter@D@__crt_stdio_output@@V?$format_validation_base@DV?$stream_output_adapter@D@__crt_stdio_output@@@2@@__crt_stdio_output@@AAE_NXZ 100482a8 f i libucrt:output.obj
 0001:000472b4       ?type_case_X@?$output_processor@DV?$stream_output_adapter@D@__crt_stdio_output@@V?$positional_parameter_base@DV?$stream_output_adapter@D@__crt_stdio_output@@@2@@__crt_stdio_output@@AAE_NXZ 100482b4 f i libucrt:output.obj
 0001:000472c0       ?type_case_X@?$output_processor@DV?$stream_output_adapter@D@__crt_stdio_output@@V?$standard_base@DV?$stream_output_adapter@D@__crt_stdio_output@@@2@@__crt_stdio_output@@AAE_NXZ 100482c0 f i libucrt:output.obj
 0001:000472cc       ?type_case_X@?$output_processor@DV?$string_output_adapter@D@__crt_stdio_output@@V?$format_validation_base@DV?$string_output_adapter@D@__crt_stdio_output@@@2@@__crt_stdio_output@@AAE_NXZ 100482cc f i libucrt:output.obj
 0001:000472d8       ?type_case_X@?$output_processor@DV?$string_output_adapter@D@__crt_stdio_output@@V?$positional_parameter_base@DV?$string_output_adapter@D@__crt_stdio_output@@@2@@__crt_stdio_output@@AAE_NXZ 100482d8 f i libucrt:output.obj
 0001:000472e4       ?type_case_X@?$output_processor@DV?$string_output_adapter@D@__crt_stdio_output@@V?$standard_base@DV?$string_output_adapter@D@__crt_stdio_output@@@2@@__crt_stdio_output@@AAE_NXZ 100482e4 f i libucrt:output.obj
 0001:000472f0       ?type_case_X@?$output_processor@_WV?$stream_output_adapter@_W@__crt_stdio_output@@V?$format_validation_base@_WV?$stream_output_adapter@_W@__crt_stdio_output@@@2@@__crt_stdio_output@@AAE_NXZ 100482f0 f i libucrt:output.obj
 0001:000472fc       ?type_case_X@?$output_processor@_WV?$stream_output_adapter@_W@__crt_stdio_output@@V?$positional_parameter_base@_WV?$stream_output_adapter@_W@__crt_stdio_output@@@2@@__crt_stdio_output@@AAE_NXZ 100482fc f i libucrt:output.obj
 0001:00047308       ?type_case_X@?$output_processor@_WV?$stream_output_adapter@_W@__crt_stdio_output@@V?$standard_base@_WV?$stream_output_adapter@_W@__crt_stdio_output@@@2@@__crt_stdio_output@@AAE_NXZ 10048308 f i libucrt:output.obj
 0001:00047314       ?type_case_X@?$output_processor@_WV?$string_output_adapter@_W@__crt_stdio_output@@V?$format_validation_base@_WV?$string_output_adapter@_W@__crt_stdio_output@@@2@@__crt_stdio_output@@AAE_NXZ 10048314 f i libucrt:output.obj
 0001:00047320       ?type_case_X@?$output_processor@_WV?$string_output_adapter@_W@__crt_stdio_output@@V?$positional_parameter_base@_WV?$string_output_adapter@_W@__crt_stdio_output@@@2@@__crt_stdio_output@@AAE_NXZ 10048320 f i libucrt:output.obj
 0001:0004732c       ?type_case_X@?$output_processor@_WV?$string_output_adapter@_W@__crt_stdio_output@@V?$standard_base@_WV?$string_output_adapter@_W@__crt_stdio_output@@@2@@__crt_stdio_output@@AAE_NXZ 1004832c f i libucrt:output.obj
 0001:00047338       ?type_case_Z@?$output_processor@DV?$stream_output_adapter@D@__crt_stdio_output@@V?$format_validation_base@DV?$stream_output_adapter@D@__crt_stdio_output@@@2@@__crt_stdio_output@@AAE_NXZ 10048338 f i libucrt:output.obj
 0001:000473b3       ?type_case_Z@?$output_processor@DV?$stream_output_adapter@D@__crt_stdio_output@@V?$positional_parameter_base@DV?$stream_output_adapter@D@__crt_stdio_output@@@2@@__crt_stdio_output@@AAE_NXZ 100483b3 f i libucrt:output.obj
 0001:00047451       ?type_case_Z@?$output_processor@DV?$stream_output_adapter@D@__crt_stdio_output@@V?$standard_base@DV?$stream_output_adapter@D@__crt_stdio_output@@@2@@__crt_stdio_output@@AAE_NXZ 10048451 f i libucrt:output.obj
 0001:000474cc       ?type_case_Z@?$output_processor@DV?$string_output_adapter@D@__crt_stdio_output@@V?$format_validation_base@DV?$string_output_adapter@D@__crt_stdio_output@@@2@@__crt_stdio_output@@AAE_NXZ 100484cc f i libucrt:output.obj
 0001:00047547       ?type_case_Z@?$output_processor@DV?$string_output_adapter@D@__crt_stdio_output@@V?$positional_parameter_base@DV?$string_output_adapter@D@__crt_stdio_output@@@2@@__crt_stdio_output@@AAE_NXZ 10048547 f i libucrt:output.obj
 0001:000475e5       ?type_case_Z@?$output_processor@DV?$string_output_adapter@D@__crt_stdio_output@@V?$standard_base@DV?$string_output_adapter@D@__crt_stdio_output@@@2@@__crt_stdio_output@@AAE_NXZ 100485e5 f i libucrt:output.obj
 0001:00047660       ?type_case_Z@?$output_processor@_WV?$stream_output_adapter@_W@__crt_stdio_output@@V?$format_validation_base@_WV?$stream_output_adapter@_W@__crt_stdio_output@@@2@@__crt_stdio_output@@AAE_NXZ 10048660 f i libucrt:output.obj
 0001:000476db       ?type_case_Z@?$output_processor@_WV?$stream_output_adapter@_W@__crt_stdio_output@@V?$positional_parameter_base@_WV?$stream_output_adapter@_W@__crt_stdio_output@@@2@@__crt_stdio_output@@AAE_NXZ 100486db f i libucrt:output.obj
 0001:00047779       ?type_case_Z@?$output_processor@_WV?$stream_output_adapter@_W@__crt_stdio_output@@V?$standard_base@_WV?$stream_output_adapter@_W@__crt_stdio_output@@@2@@__crt_stdio_output@@AAE_NXZ 10048779 f i libucrt:output.obj
 0001:000477f4       ?type_case_Z@?$output_processor@_WV?$string_output_adapter@_W@__crt_stdio_output@@V?$format_validation_base@_WV?$string_output_adapter@_W@__crt_stdio_output@@@2@@__crt_stdio_output@@AAE_NXZ 100487f4 f i libucrt:output.obj
 0001:0004786f       ?type_case_Z@?$output_processor@_WV?$string_output_adapter@_W@__crt_stdio_output@@V?$positional_parameter_base@_WV?$string_output_adapter@_W@__crt_stdio_output@@@2@@__crt_stdio_output@@AAE_NXZ 1004886f f i libucrt:output.obj
 0001:0004790d       ?type_case_Z@?$output_processor@_WV?$string_output_adapter@_W@__crt_stdio_output@@V?$standard_base@_WV?$string_output_adapter@_W@__crt_stdio_output@@@2@@__crt_stdio_output@@AAE_NXZ 1004890d f i libucrt:output.obj
 0001:00047988       ?type_case_a@?$output_processor@DV?$stream_output_adapter@D@__crt_stdio_output@@V?$format_validation_base@DV?$stream_output_adapter@D@__crt_stdio_output@@@2@@__crt_stdio_output@@AAE_NXZ 10048988 f i libucrt:output.obj
 0001:00047b38       ?type_case_a@?$output_processor@DV?$stream_output_adapter@D@__crt_stdio_output@@V?$positional_parameter_base@DV?$stream_output_adapter@D@__crt_stdio_output@@@2@@__crt_stdio_output@@AAE_NXZ 10048b38 f i libucrt:output.obj
 0001:00047d0f       ?type_case_a@?$output_processor@DV?$stream_output_adapter@D@__crt_stdio_output@@V?$standard_base@DV?$stream_output_adapter@D@__crt_stdio_output@@@2@@__crt_stdio_output@@AAE_NXZ 10048d0f f i libucrt:output.obj
 0001:00047ebf       ?type_case_a@?$output_processor@DV?$string_output_adapter@D@__crt_stdio_output@@V?$format_validation_base@DV?$string_output_adapter@D@__crt_stdio_output@@@2@@__crt_stdio_output@@AAE_NXZ 10048ebf f i libucrt:output.obj
 0001:0004806f       ?type_case_a@?$output_processor@DV?$string_output_adapter@D@__crt_stdio_output@@V?$positional_parameter_base@DV?$string_output_adapter@D@__crt_stdio_output@@@2@@__crt_stdio_output@@AAE_NXZ 1004906f f i libucrt:output.obj
 0001:00048246       ?type_case_a@?$output_processor@DV?$string_output_adapter@D@__crt_stdio_output@@V?$standard_base@DV?$string_output_adapter@D@__crt_stdio_output@@@2@@__crt_stdio_output@@AAE_NXZ 10049246 f i libucrt:output.obj
 0001:000483f6       ?type_case_a@?$output_processor@_WV?$stream_output_adapter@_W@__crt_stdio_output@@V?$format_validation_base@_WV?$stream_output_adapter@_W@__crt_stdio_output@@@2@@__crt_stdio_output@@AAE_NXZ 100493f6 f i libucrt:output.obj
 0001:000485c4       ?type_case_a@?$output_processor@_WV?$stream_output_adapter@_W@__crt_stdio_output@@V?$positional_parameter_base@_WV?$stream_output_adapter@_W@__crt_stdio_output@@@2@@__crt_stdio_output@@AAE_NXZ 100495c4 f i libucrt:output.obj
 0001:000487b9       ?type_case_a@?$output_processor@_WV?$stream_output_adapter@_W@__crt_stdio_output@@V?$standard_base@_WV?$stream_output_adapter@_W@__crt_stdio_output@@@2@@__crt_stdio_output@@AAE_NXZ 100497b9 f i libucrt:output.obj
 0001:00048987       ?type_case_a@?$output_processor@_WV?$string_output_adapter@_W@__crt_stdio_output@@V?$format_validation_base@_WV?$string_output_adapter@_W@__crt_stdio_output@@@2@@__crt_stdio_output@@AAE_NXZ 10049987 f i libucrt:output.obj
 0001:00048b55       ?type_case_a@?$output_processor@_WV?$string_output_adapter@_W@__crt_stdio_output@@V?$positional_parameter_base@_WV?$string_output_adapter@_W@__crt_stdio_output@@@2@@__crt_stdio_output@@AAE_NXZ 10049b55 f i libucrt:output.obj
 0001:00048d4a       ?type_case_a@?$output_processor@_WV?$string_output_adapter@_W@__crt_stdio_output@@V?$standard_base@_WV?$string_output_adapter@_W@__crt_stdio_output@@@2@@__crt_stdio_output@@AAE_NXZ 10049d4a f i libucrt:output.obj
 0001:00048f18       ?type_case_c@?$output_processor@DV?$stream_output_adapter@D@__crt_stdio_output@@V?$format_validation_base@DV?$stream_output_adapter@D@__crt_stdio_output@@@2@@__crt_stdio_output@@AAE_NXZ 10049f18 f i libucrt:output.obj
 0001:00048f22       ?type_case_c@?$output_processor@DV?$stream_output_adapter@D@__crt_stdio_output@@V?$positional_parameter_base@DV?$stream_output_adapter@D@__crt_stdio_output@@@2@@__crt_stdio_output@@AAE_NXZ 10049f22 f i libucrt:output.obj
 0001:00048f2c       ?type_case_c@?$output_processor@DV?$stream_output_adapter@D@__crt_stdio_output@@V?$standard_base@DV?$stream_output_adapter@D@__crt_stdio_output@@@2@@__crt_stdio_output@@AAE_NXZ 10049f2c f i libucrt:output.obj
 0001:00048f36       ?type_case_c@?$output_processor@DV?$string_output_adapter@D@__crt_stdio_output@@V?$format_validation_base@DV?$string_output_adapter@D@__crt_stdio_output@@@2@@__crt_stdio_output@@AAE_NXZ 10049f36 f i libucrt:output.obj
 0001:00048f40       ?type_case_c@?$output_processor@DV?$string_output_adapter@D@__crt_stdio_output@@V?$positional_parameter_base@DV?$string_output_adapter@D@__crt_stdio_output@@@2@@__crt_stdio_output@@AAE_NXZ 10049f40 f i libucrt:output.obj
 0001:00048f4a       ?type_case_c@?$output_processor@DV?$string_output_adapter@D@__crt_stdio_output@@V?$standard_base@DV?$string_output_adapter@D@__crt_stdio_output@@@2@@__crt_stdio_output@@AAE_NXZ 10049f4a f i libucrt:output.obj
 0001:00048f54       ?type_case_c@?$output_processor@_WV?$stream_output_adapter@_W@__crt_stdio_output@@V?$format_validation_base@_WV?$stream_output_adapter@_W@__crt_stdio_output@@@2@@__crt_stdio_output@@AAE_NXZ 10049f54 f i libucrt:output.obj
 0001:00048f5e       ?type_case_c@?$output_processor@_WV?$stream_output_adapter@_W@__crt_stdio_output@@V?$positional_parameter_base@_WV?$stream_output_adapter@_W@__crt_stdio_output@@@2@@__crt_stdio_output@@AAE_NXZ 10049f5e f i libucrt:output.obj
 0001:00048f68       ?type_case_c@?$output_processor@_WV?$stream_output_adapter@_W@__crt_stdio_output@@V?$standard_base@_WV?$stream_output_adapter@_W@__crt_stdio_output@@@2@@__crt_stdio_output@@AAE_NXZ 10049f68 f i libucrt:output.obj
 0001:00048f72       ?type_case_c@?$output_processor@_WV?$string_output_adapter@_W@__crt_stdio_output@@V?$format_validation_base@_WV?$string_output_adapter@_W@__crt_stdio_output@@@2@@__crt_stdio_output@@AAE_NXZ 10049f72 f i libucrt:output.obj
 0001:00048f7c       ?type_case_c@?$output_processor@_WV?$string_output_adapter@_W@__crt_stdio_output@@V?$positional_parameter_base@_WV?$string_output_adapter@_W@__crt_stdio_output@@@2@@__crt_stdio_output@@AAE_NXZ 10049f7c f i libucrt:output.obj
 0001:00048f86       ?type_case_c@?$output_processor@_WV?$string_output_adapter@_W@__crt_stdio_output@@V?$standard_base@_WV?$string_output_adapter@_W@__crt_stdio_output@@@2@@__crt_stdio_output@@AAE_NXZ 10049f86 f i libucrt:output.obj
 0001:00048f90       ?type_case_c_tchar@?$output_processor@DV?$stream_output_adapter@D@__crt_stdio_output@@V?$format_validation_base@DV?$stream_output_adapter@D@__crt_stdio_output@@@2@@__crt_stdio_output@@AAE_ND@Z 10049f90 f i libucrt:output.obj
 0001:00049044       ?type_case_c_tchar@?$output_processor@DV?$stream_output_adapter@D@__crt_stdio_output@@V?$positional_parameter_base@DV?$stream_output_adapter@D@__crt_stdio_output@@@2@@__crt_stdio_output@@AAE_ND@Z 1004a044 f i libucrt:output.obj
 0001:00049134       ?type_case_c_tchar@?$output_processor@DV?$stream_output_adapter@D@__crt_stdio_output@@V?$standard_base@DV?$stream_output_adapter@D@__crt_stdio_output@@@2@@__crt_stdio_output@@AAE_ND@Z 1004a134 f i libucrt:output.obj
 0001:000491e8       ?type_case_c_tchar@?$output_processor@DV?$string_output_adapter@D@__crt_stdio_output@@V?$format_validation_base@DV?$string_output_adapter@D@__crt_stdio_output@@@2@@__crt_stdio_output@@AAE_ND@Z 1004a1e8 f i libucrt:output.obj
 0001:0004929c       ?type_case_c_tchar@?$output_processor@DV?$string_output_adapter@D@__crt_stdio_output@@V?$positional_parameter_base@DV?$string_output_adapter@D@__crt_stdio_output@@@2@@__crt_stdio_output@@AAE_ND@Z 1004a29c f i libucrt:output.obj
 0001:0004938c       ?type_case_c_tchar@?$output_processor@DV?$string_output_adapter@D@__crt_stdio_output@@V?$standard_base@DV?$string_output_adapter@D@__crt_stdio_output@@@2@@__crt_stdio_output@@AAE_ND@Z 1004a38c f i libucrt:output.obj
 0001:00049440       ?type_case_c_tchar@?$output_processor@_WV?$stream_output_adapter@_W@__crt_stdio_output@@V?$format_validation_base@_WV?$stream_output_adapter@_W@__crt_stdio_output@@@2@@__crt_stdio_output@@AAE_N_W@Z 1004a440 f i libucrt:output.obj
 0001:000494fe       ?type_case_c_tchar@?$output_processor@_WV?$stream_output_adapter@_W@__crt_stdio_output@@V?$positional_parameter_base@_WV?$stream_output_adapter@_W@__crt_stdio_output@@@2@@__crt_stdio_output@@AAE_N_W@Z 1004a4fe f i libucrt:output.obj
 0001:000495d8       ?type_case_c_tchar@?$output_processor@_WV?$stream_output_adapter@_W@__crt_stdio_output@@V?$standard_base@_WV?$stream_output_adapter@_W@__crt_stdio_output@@@2@@__crt_stdio_output@@AAE_N_W@Z 1004a5d8 f i libucrt:output.obj
 0001:00049696       ?type_case_c_tchar@?$output_processor@_WV?$string_output_adapter@_W@__crt_stdio_output@@V?$format_validation_base@_WV?$string_output_adapter@_W@__crt_stdio_output@@@2@@__crt_stdio_output@@AAE_N_W@Z 1004a696 f i libucrt:output.obj
 0001:00049754       ?type_case_c_tchar@?$output_processor@_WV?$string_output_adapter@_W@__crt_stdio_output@@V?$positional_parameter_base@_WV?$string_output_adapter@_W@__crt_stdio_output@@@2@@__crt_stdio_output@@AAE_N_W@Z 1004a754 f i libucrt:output.obj
 0001:0004982e       ?type_case_c_tchar@?$output_processor@_WV?$string_output_adapter@_W@__crt_stdio_output@@V?$standard_base@_WV?$string_output_adapter@_W@__crt_stdio_output@@@2@@__crt_stdio_output@@AAE_N_W@Z 1004a82e f i libucrt:output.obj
 0001:000498ec       ?type_case_d@?$output_processor@DV?$stream_output_adapter@D@__crt_stdio_output@@V?$format_validation_base@DV?$stream_output_adapter@D@__crt_stdio_output@@@2@@__crt_stdio_output@@AAE_NXZ 1004a8ec f i libucrt:output.obj
 0001:000498fd       ?type_case_d@?$output_processor@DV?$stream_output_adapter@D@__crt_stdio_output@@V?$positional_parameter_base@DV?$stream_output_adapter@D@__crt_stdio_output@@@2@@__crt_stdio_output@@AAE_NXZ 1004a8fd f i libucrt:output.obj
 0001:0004990e       ?type_case_d@?$output_processor@DV?$stream_output_adapter@D@__crt_stdio_output@@V?$standard_base@DV?$stream_output_adapter@D@__crt_stdio_output@@@2@@__crt_stdio_output@@AAE_NXZ 1004a90e f i libucrt:output.obj
 0001:0004991f       ?type_case_d@?$output_processor@DV?$string_output_adapter@D@__crt_stdio_output@@V?$format_validation_base@DV?$string_output_adapter@D@__crt_stdio_output@@@2@@__crt_stdio_output@@AAE_NXZ 1004a91f f i libucrt:output.obj
 0001:00049930       ?type_case_d@?$output_processor@DV?$string_output_adapter@D@__crt_stdio_output@@V?$positional_parameter_base@DV?$string_output_adapter@D@__crt_stdio_output@@@2@@__crt_stdio_output@@AAE_NXZ 1004a930 f i libucrt:output.obj
 0001:00049941       ?type_case_d@?$output_processor@DV?$string_output_adapter@D@__crt_stdio_output@@V?$standard_base@DV?$string_output_adapter@D@__crt_stdio_output@@@2@@__crt_stdio_output@@AAE_NXZ 1004a941 f i libucrt:output.obj
 0001:00049952       ?type_case_d@?$output_processor@_WV?$stream_output_adapter@_W@__crt_stdio_output@@V?$format_validation_base@_WV?$stream_output_adapter@_W@__crt_stdio_output@@@2@@__crt_stdio_output@@AAE_NXZ 1004a952 f i libucrt:output.obj
 0001:00049963       ?type_case_d@?$output_processor@_WV?$stream_output_adapter@_W@__crt_stdio_output@@V?$positional_parameter_base@_WV?$stream_output_adapter@_W@__crt_stdio_output@@@2@@__crt_stdio_output@@AAE_NXZ 1004a963 f i libucrt:output.obj
 0001:00049974       ?type_case_d@?$output_processor@_WV?$stream_output_adapter@_W@__crt_stdio_output@@V?$standard_base@_WV?$stream_output_adapter@_W@__crt_stdio_output@@@2@@__crt_stdio_output@@AAE_NXZ 1004a974 f i libucrt:output.obj
 0001:00049985       ?type_case_d@?$output_processor@_WV?$string_output_adapter@_W@__crt_stdio_output@@V?$format_validation_base@_WV?$string_output_adapter@_W@__crt_stdio_output@@@2@@__crt_stdio_output@@AAE_NXZ 1004a985 f i libucrt:output.obj
 0001:00049996       ?type_case_d@?$output_processor@_WV?$string_output_adapter@_W@__crt_stdio_output@@V?$positional_parameter_base@_WV?$string_output_adapter@_W@__crt_stdio_output@@@2@@__crt_stdio_output@@AAE_NXZ 1004a996 f i libucrt:output.obj
 0001:000499a7       ?type_case_d@?$output_processor@_WV?$string_output_adapter@_W@__crt_stdio_output@@V?$standard_base@_WV?$string_output_adapter@_W@__crt_stdio_output@@@2@@__crt_stdio_output@@AAE_NXZ 1004a9a7 f i libucrt:output.obj
 0001:000499b8       ?type_case_integer@?$output_processor@DV?$stream_output_adapter@D@__crt_stdio_output@@V?$format_validation_base@DV?$stream_output_adapter@D@__crt_stdio_output@@@2@@__crt_stdio_output@@AAE_NI_N@Z 1004a9b8 f i libucrt:output.obj
 0001:00049b54       ?type_case_integer@?$output_processor@DV?$stream_output_adapter@D@__crt_stdio_output@@V?$positional_parameter_base@DV?$stream_output_adapter@D@__crt_stdio_output@@@2@@__crt_stdio_output@@AAE_NI_N@Z 1004ab54 f i libucrt:output.obj
 0001:00049d31       ?type_case_integer@?$output_processor@DV?$stream_output_adapter@D@__crt_stdio_output@@V?$standard_base@DV?$stream_output_adapter@D@__crt_stdio_output@@@2@@__crt_stdio_output@@AAE_NI_N@Z 1004ad31 f i libucrt:output.obj
 0001:00049ecd       ?type_case_integer@?$output_processor@DV?$string_output_adapter@D@__crt_stdio_output@@V?$format_validation_base@DV?$string_output_adapter@D@__crt_stdio_output@@@2@@__crt_stdio_output@@AAE_NI_N@Z 1004aecd f i libucrt:output.obj
 0001:0004a069       ?type_case_integer@?$output_processor@DV?$string_output_adapter@D@__crt_stdio_output@@V?$positional_parameter_base@DV?$string_output_adapter@D@__crt_stdio_output@@@2@@__crt_stdio_output@@AAE_NI_N@Z 1004b069 f i libucrt:output.obj
 0001:0004a246       ?type_case_integer@?$output_processor@DV?$string_output_adapter@D@__crt_stdio_output@@V?$standard_base@DV?$string_output_adapter@D@__crt_stdio_output@@@2@@__crt_stdio_output@@AAE_NI_N@Z 1004b246 f i libucrt:output.obj
 0001:0004a3e2       ?type_case_integer@?$output_processor@_WV?$stream_output_adapter@_W@__crt_stdio_output@@V?$format_validation_base@_WV?$stream_output_adapter@_W@__crt_stdio_output@@@2@@__crt_stdio_output@@AAE_NI_N@Z 1004b3e2 f i libucrt:output.obj
 0001:0004a57e       ?type_case_integer@?$output_processor@_WV?$stream_output_adapter@_W@__crt_stdio_output@@V?$positional_parameter_base@_WV?$stream_output_adapter@_W@__crt_stdio_output@@@2@@__crt_stdio_output@@AAE_NI_N@Z 1004b57e f i libucrt:output.obj
 0001:0004a75b       ?type_case_integer@?$output_processor@_WV?$stream_output_adapter@_W@__crt_stdio_output@@V?$standard_base@_WV?$stream_output_adapter@_W@__crt_stdio_output@@@2@@__crt_stdio_output@@AAE_NI_N@Z 1004b75b f i libucrt:output.obj
 0001:0004a8f7       ?type_case_integer@?$output_processor@_WV?$string_output_adapter@_W@__crt_stdio_output@@V?$format_validation_base@_WV?$string_output_adapter@_W@__crt_stdio_output@@@2@@__crt_stdio_output@@AAE_NI_N@Z 1004b8f7 f i libucrt:output.obj
 0001:0004aa93       ?type_case_integer@?$output_processor@_WV?$string_output_adapter@_W@__crt_stdio_output@@V?$positional_parameter_base@_WV?$string_output_adapter@_W@__crt_stdio_output@@@2@@__crt_stdio_output@@AAE_NI_N@Z 1004ba93 f i libucrt:output.obj
 0001:0004ac70       ?type_case_integer@?$output_processor@_WV?$string_output_adapter@_W@__crt_stdio_output@@V?$standard_base@_WV?$string_output_adapter@_W@__crt_stdio_output@@@2@@__crt_stdio_output@@AAE_NI_N@Z 1004bc70 f i libucrt:output.obj
 0001:0004ae0c       ?type_case_n@?$output_processor@DV?$stream_output_adapter@D@__crt_stdio_output@@V?$format_validation_base@DV?$stream_output_adapter@D@__crt_stdio_output@@@2@@__crt_stdio_output@@AAE_NXZ 1004be0c f i libucrt:output.obj
 0001:0004ae9d       ?type_case_n@?$output_processor@DV?$stream_output_adapter@D@__crt_stdio_output@@V?$positional_parameter_base@DV?$stream_output_adapter@D@__crt_stdio_output@@@2@@__crt_stdio_output@@AAE_NXZ 1004be9d f i libucrt:output.obj
 0001:0004af5c       ?type_case_n@?$output_processor@DV?$stream_output_adapter@D@__crt_stdio_output@@V?$standard_base@DV?$stream_output_adapter@D@__crt_stdio_output@@@2@@__crt_stdio_output@@AAE_NXZ 1004bf5c f i libucrt:output.obj
 0001:0004afed       ?type_case_n@?$output_processor@DV?$string_output_adapter@D@__crt_stdio_output@@V?$format_validation_base@DV?$string_output_adapter@D@__crt_stdio_output@@@2@@__crt_stdio_output@@AAE_NXZ 1004bfed f i libucrt:output.obj
 0001:0004b07e       ?type_case_n@?$output_processor@DV?$string_output_adapter@D@__crt_stdio_output@@V?$positional_parameter_base@DV?$string_output_adapter@D@__crt_stdio_output@@@2@@__crt_stdio_output@@AAE_NXZ 1004c07e f i libucrt:output.obj
 0001:0004b13d       ?type_case_n@?$output_processor@DV?$string_output_adapter@D@__crt_stdio_output@@V?$standard_base@DV?$string_output_adapter@D@__crt_stdio_output@@@2@@__crt_stdio_output@@AAE_NXZ 1004c13d f i libucrt:output.obj
 0001:0004b1ce       ?type_case_n@?$output_processor@_WV?$stream_output_adapter@_W@__crt_stdio_output@@V?$format_validation_base@_WV?$stream_output_adapter@_W@__crt_stdio_output@@@2@@__crt_stdio_output@@AAE_NXZ 1004c1ce f i libucrt:output.obj
 0001:0004b25f       ?type_case_n@?$output_processor@_WV?$stream_output_adapter@_W@__crt_stdio_output@@V?$positional_parameter_base@_WV?$stream_output_adapter@_W@__crt_stdio_output@@@2@@__crt_stdio_output@@AAE_NXZ 1004c25f f i libucrt:output.obj
 0001:0004b31e       ?type_case_n@?$output_processor@_WV?$stream_output_adapter@_W@__crt_stdio_output@@V?$standard_base@_WV?$stream_output_adapter@_W@__crt_stdio_output@@@2@@__crt_stdio_output@@AAE_NXZ 1004c31e f i libucrt:output.obj
 0001:0004b3af       ?type_case_n@?$output_processor@_WV?$string_output_adapter@_W@__crt_stdio_output@@V?$format_validation_base@_WV?$string_output_adapter@_W@__crt_stdio_output@@@2@@__crt_stdio_output@@AAE_NXZ 1004c3af f i libucrt:output.obj
 0001:0004b440       ?type_case_n@?$output_processor@_WV?$string_output_adapter@_W@__crt_stdio_output@@V?$positional_parameter_base@_WV?$string_output_adapter@_W@__crt_stdio_output@@@2@@__crt_stdio_output@@AAE_NXZ 1004c440 f i libucrt:output.obj
 0001:0004b4ff       ?type_case_n@?$output_processor@_WV?$string_output_adapter@_W@__crt_stdio_output@@V?$standard_base@_WV?$string_output_adapter@_W@__crt_stdio_output@@@2@@__crt_stdio_output@@AAE_NXZ 1004c4ff f i libucrt:output.obj
 0001:0004b590       ?type_case_o@?$output_processor@DV?$stream_output_adapter@D@__crt_stdio_output@@V?$format_validation_base@DV?$stream_output_adapter@D@__crt_stdio_output@@@2@@__crt_stdio_output@@AAE_NXZ 1004c590 f i libucrt:output.obj
 0001:0004b5b6       ?type_case_o@?$output_processor@DV?$stream_output_adapter@D@__crt_stdio_output@@V?$positional_parameter_base@DV?$stream_output_adapter@D@__crt_stdio_output@@@2@@__crt_stdio_output@@AAE_NXZ 1004c5b6 f i libucrt:output.obj
 0001:0004b5dc       ?type_case_o@?$output_processor@DV?$stream_output_adapter@D@__crt_stdio_output@@V?$standard_base@DV?$stream_output_adapter@D@__crt_stdio_output@@@2@@__crt_stdio_output@@AAE_NXZ 1004c5dc f i libucrt:output.obj
 0001:0004b602       ?type_case_o@?$output_processor@DV?$string_output_adapter@D@__crt_stdio_output@@V?$format_validation_base@DV?$string_output_adapter@D@__crt_stdio_output@@@2@@__crt_stdio_output@@AAE_NXZ 1004c602 f i libucrt:output.obj
 0001:0004b628       ?type_case_o@?$output_processor@DV?$string_output_adapter@D@__crt_stdio_output@@V?$positional_parameter_base@DV?$string_output_adapter@D@__crt_stdio_output@@@2@@__crt_stdio_output@@AAE_NXZ 1004c628 f i libucrt:output.obj
 0001:0004b64e       ?type_case_o@?$output_processor@DV?$string_output_adapter@D@__crt_stdio_output@@V?$standard_base@DV?$string_output_adapter@D@__crt_stdio_output@@@2@@__crt_stdio_output@@AAE_NXZ 1004c64e f i libucrt:output.obj
 0001:0004b674       ?type_case_o@?$output_processor@_WV?$stream_output_adapter@_W@__crt_stdio_output@@V?$format_validation_base@_WV?$stream_output_adapter@_W@__crt_stdio_output@@@2@@__crt_stdio_output@@AAE_NXZ 1004c674 f i libucrt:output.obj
 0001:0004b69a       ?type_case_o@?$output_processor@_WV?$stream_output_adapter@_W@__crt_stdio_output@@V?$positional_parameter_base@_WV?$stream_output_adapter@_W@__crt_stdio_output@@@2@@__crt_stdio_output@@AAE_NXZ 1004c69a f i libucrt:output.obj
 0001:0004b6c0       ?type_case_o@?$output_processor@_WV?$stream_output_adapter@_W@__crt_stdio_output@@V?$standard_base@_WV?$stream_output_adapter@_W@__crt_stdio_output@@@2@@__crt_stdio_output@@AAE_NXZ 1004c6c0 f i libucrt:output.obj
 0001:0004b6e6       ?type_case_o@?$output_processor@_WV?$string_output_adapter@_W@__crt_stdio_output@@V?$format_validation_base@_WV?$string_output_adapter@_W@__crt_stdio_output@@@2@@__crt_stdio_output@@AAE_NXZ 1004c6e6 f i libucrt:output.obj
 0001:0004b70c       ?type_case_o@?$output_processor@_WV?$string_output_adapter@_W@__crt_stdio_output@@V?$positional_parameter_base@_WV?$string_output_adapter@_W@__crt_stdio_output@@@2@@__crt_stdio_output@@AAE_NXZ 1004c70c f i libucrt:output.obj
 0001:0004b732       ?type_case_o@?$output_processor@_WV?$string_output_adapter@_W@__crt_stdio_output@@V?$standard_base@_WV?$string_output_adapter@_W@__crt_stdio_output@@@2@@__crt_stdio_output@@AAE_NXZ 1004c732 f i libucrt:output.obj
 0001:0004b758       ?type_case_p@?$output_processor@DV?$stream_output_adapter@D@__crt_stdio_output@@V?$format_validation_base@DV?$stream_output_adapter@D@__crt_stdio_output@@@2@@__crt_stdio_output@@AAE_NXZ 1004c758 f i libucrt:output.obj
 0001:0004b776       ?type_case_p@?$output_processor@DV?$stream_output_adapter@D@__crt_stdio_output@@V?$positional_parameter_base@DV?$stream_output_adapter@D@__crt_stdio_output@@@2@@__crt_stdio_output@@AAE_NXZ 1004c776 f i libucrt:output.obj
 0001:0004b794       ?type_case_p@?$output_processor@DV?$stream_output_adapter@D@__crt_stdio_output@@V?$standard_base@DV?$stream_output_adapter@D@__crt_stdio_output@@@2@@__crt_stdio_output@@AAE_NXZ 1004c794 f i libucrt:output.obj
 0001:0004b7b2       ?type_case_p@?$output_processor@DV?$string_output_adapter@D@__crt_stdio_output@@V?$format_validation_base@DV?$string_output_adapter@D@__crt_stdio_output@@@2@@__crt_stdio_output@@AAE_NXZ 1004c7b2 f i libucrt:output.obj
 0001:0004b7d0       ?type_case_p@?$output_processor@DV?$string_output_adapter@D@__crt_stdio_output@@V?$positional_parameter_base@DV?$string_output_adapter@D@__crt_stdio_output@@@2@@__crt_stdio_output@@AAE_NXZ 1004c7d0 f i libucrt:output.obj
 0001:0004b7ee       ?type_case_p@?$output_processor@DV?$string_output_adapter@D@__crt_stdio_output@@V?$standard_base@DV?$string_output_adapter@D@__crt_stdio_output@@@2@@__crt_stdio_output@@AAE_NXZ 1004c7ee f i libucrt:output.obj
 0001:0004b80c       ?type_case_p@?$output_processor@_WV?$stream_output_adapter@_W@__crt_stdio_output@@V?$format_validation_base@_WV?$stream_output_adapter@_W@__crt_stdio_output@@@2@@__crt_stdio_output@@AAE_NXZ 1004c80c f i libucrt:output.obj
 0001:0004b82a       ?type_case_p@?$output_processor@_WV?$stream_output_adapter@_W@__crt_stdio_output@@V?$positional_parameter_base@_WV?$stream_output_adapter@_W@__crt_stdio_output@@@2@@__crt_stdio_output@@AAE_NXZ 1004c82a f i libucrt:output.obj
 0001:0004b848       ?type_case_p@?$output_processor@_WV?$stream_output_adapter@_W@__crt_stdio_output@@V?$standard_base@_WV?$stream_output_adapter@_W@__crt_stdio_output@@@2@@__crt_stdio_output@@AAE_NXZ 1004c848 f i libucrt:output.obj
 0001:0004b866       ?type_case_p@?$output_processor@_WV?$string_output_adapter@_W@__crt_stdio_output@@V?$format_validation_base@_WV?$string_output_adapter@_W@__crt_stdio_output@@@2@@__crt_stdio_output@@AAE_NXZ 1004c866 f i libucrt:output.obj
 0001:0004b884       ?type_case_p@?$output_processor@_WV?$string_output_adapter@_W@__crt_stdio_output@@V?$positional_parameter_base@_WV?$string_output_adapter@_W@__crt_stdio_output@@@2@@__crt_stdio_output@@AAE_NXZ 1004c884 f i libucrt:output.obj
 0001:0004b8a2       ?type_case_p@?$output_processor@_WV?$string_output_adapter@_W@__crt_stdio_output@@V?$standard_base@_WV?$string_output_adapter@_W@__crt_stdio_output@@@2@@__crt_stdio_output@@AAE_NXZ 1004c8a2 f i libucrt:output.obj
 0001:0004b8c0       ?type_case_s@?$output_processor@DV?$stream_output_adapter@D@__crt_stdio_output@@V?$format_validation_base@DV?$stream_output_adapter@D@__crt_stdio_output@@@2@@__crt_stdio_output@@AAE_NXZ 1004c8c0 f i libucrt:output.obj
 0001:0004b94f       ?type_case_s@?$output_processor@DV?$stream_output_adapter@D@__crt_stdio_output@@V?$positional_parameter_base@DV?$stream_output_adapter@D@__crt_stdio_output@@@2@@__crt_stdio_output@@AAE_NXZ 1004c94f f i libucrt:output.obj
 0001:0004b9ea       ?type_case_s@?$output_processor@DV?$stream_output_adapter@D@__crt_stdio_output@@V?$standard_base@DV?$stream_output_adapter@D@__crt_stdio_output@@@2@@__crt_stdio_output@@AAE_NXZ 1004c9ea f i libucrt:output.obj
 0001:0004ba79       ?type_case_s@?$output_processor@DV?$string_output_adapter@D@__crt_stdio_output@@V?$format_validation_base@DV?$string_output_adapter@D@__crt_stdio_output@@@2@@__crt_stdio_output@@AAE_NXZ 1004ca79 f i libucrt:output.obj
 0001:0004bb08       ?type_case_s@?$output_processor@DV?$string_output_adapter@D@__crt_stdio_output@@V?$positional_parameter_base@DV?$string_output_adapter@D@__crt_stdio_output@@@2@@__crt_stdio_output@@AAE_NXZ 1004cb08 f i libucrt:output.obj
 0001:0004bba3       ?type_case_s@?$output_processor@DV?$string_output_adapter@D@__crt_stdio_output@@V?$standard_base@DV?$string_output_adapter@D@__crt_stdio_output@@@2@@__crt_stdio_output@@AAE_NXZ 1004cba3 f i libucrt:output.obj
 0001:0004bc32       ?type_case_s@?$output_processor@_WV?$stream_output_adapter@_W@__crt_stdio_output@@V?$format_validation_base@_WV?$stream_output_adapter@_W@__crt_stdio_output@@@2@@__crt_stdio_output@@AAE_NXZ 1004cc32 f i libucrt:output.obj
 0001:0004bcc3       ?type_case_s@?$output_processor@_WV?$stream_output_adapter@_W@__crt_stdio_output@@V?$positional_parameter_base@_WV?$stream_output_adapter@_W@__crt_stdio_output@@@2@@__crt_stdio_output@@AAE_NXZ 1004ccc3 f i libucrt:output.obj
 0001:0004bd60       ?type_case_s@?$output_processor@_WV?$stream_output_adapter@_W@__crt_stdio_output@@V?$standard_base@_WV?$stream_output_adapter@_W@__crt_stdio_output@@@2@@__crt_stdio_output@@AAE_NXZ 1004cd60 f i libucrt:output.obj
 0001:0004bdf1       ?type_case_s@?$output_processor@_WV?$string_output_adapter@_W@__crt_stdio_output@@V?$format_validation_base@_WV?$string_output_adapter@_W@__crt_stdio_output@@@2@@__crt_stdio_output@@AAE_NXZ 1004cdf1 f i libucrt:output.obj
 0001:0004be82       ?type_case_s@?$output_processor@_WV?$string_output_adapter@_W@__crt_stdio_output@@V?$positional_parameter_base@_WV?$string_output_adapter@_W@__crt_stdio_output@@@2@@__crt_stdio_output@@AAE_NXZ 1004ce82 f i libucrt:output.obj
 0001:0004bf1f       ?type_case_s@?$output_processor@_WV?$string_output_adapter@_W@__crt_stdio_output@@V?$standard_base@_WV?$string_output_adapter@_W@__crt_stdio_output@@@2@@__crt_stdio_output@@AAE_NXZ 1004cf1f f i libucrt:output.obj
 0001:0004bfb0       ?type_case_s_compute_narrow_string_length@?$output_processor@DV?$stream_output_adapter@D@__crt_stdio_output@@V?$format_validation_base@DV?$stream_output_adapter@D@__crt_stdio_output@@@2@@__crt_stdio_output@@ABEHHD@Z 1004cfb0 f i libucrt:output.obj
 0001:0004bfcb       ?type_case_s_compute_narrow_string_length@?$output_processor@DV?$stream_output_adapter@D@__crt_stdio_output@@V?$positional_parameter_base@DV?$stream_output_adapter@D@__crt_stdio_output@@@2@@__crt_stdio_output@@ABEHHD@Z 1004cfcb f i libucrt:output.obj
 0001:0004bfe6       ?type_case_s_compute_narrow_string_length@?$output_processor@DV?$stream_output_adapter@D@__crt_stdio_output@@V?$standard_base@DV?$stream_output_adapter@D@__crt_stdio_output@@@2@@__crt_stdio_output@@ABEHHD@Z 1004cfe6 f i libucrt:output.obj
 0001:0004c001       ?type_case_s_compute_narrow_string_length@?$output_processor@DV?$string_output_adapter@D@__crt_stdio_output@@V?$format_validation_base@DV?$string_output_adapter@D@__crt_stdio_output@@@2@@__crt_stdio_output@@ABEHHD@Z 1004d001 f i libucrt:output.obj
 0001:0004c01c       ?type_case_s_compute_narrow_string_length@?$output_processor@DV?$string_output_adapter@D@__crt_stdio_output@@V?$positional_parameter_base@DV?$string_output_adapter@D@__crt_stdio_output@@@2@@__crt_stdio_output@@ABEHHD@Z 1004d01c f i libucrt:output.obj
 0001:0004c037       ?type_case_s_compute_narrow_string_length@?$output_processor@DV?$string_output_adapter@D@__crt_stdio_output@@V?$standard_base@DV?$string_output_adapter@D@__crt_stdio_output@@@2@@__crt_stdio_output@@ABEHHD@Z 1004d037 f i libucrt:output.obj
 0001:0004c052       ?type_case_s_compute_narrow_string_length@?$output_processor@_WV?$stream_output_adapter@_W@__crt_stdio_output@@V?$format_validation_base@_WV?$stream_output_adapter@_W@__crt_stdio_output@@@2@@__crt_stdio_output@@ABEHH_W@Z 1004d052 f i libucrt:output.obj
 0001:0004c0a2       ?type_case_s_compute_narrow_string_length@?$output_processor@_WV?$stream_output_adapter@_W@__crt_stdio_output@@V?$positional_parameter_base@_WV?$stream_output_adapter@_W@__crt_stdio_output@@@2@@__crt_stdio_output@@ABEHH_W@Z 1004d0a2 f i libucrt:output.obj
 0001:0004c0f2       ?type_case_s_compute_narrow_string_length@?$output_processor@_WV?$stream_output_adapter@_W@__crt_stdio_output@@V?$standard_base@_WV?$stream_output_adapter@_W@__crt_stdio_output@@@2@@__crt_stdio_output@@ABEHH_W@Z 1004d0f2 f i libucrt:output.obj
 0001:0004c142       ?type_case_s_compute_narrow_string_length@?$output_processor@_WV?$string_output_adapter@_W@__crt_stdio_output@@V?$format_validation_base@_WV?$string_output_adapter@_W@__crt_stdio_output@@@2@@__crt_stdio_output@@ABEHH_W@Z 1004d142 f i libucrt:output.obj
 0001:0004c192       ?type_case_s_compute_narrow_string_length@?$output_processor@_WV?$string_output_adapter@_W@__crt_stdio_output@@V?$positional_parameter_base@_WV?$string_output_adapter@_W@__crt_stdio_output@@@2@@__crt_stdio_output@@ABEHH_W@Z 1004d192 f i libucrt:output.obj
 0001:0004c1e2       ?type_case_s_compute_narrow_string_length@?$output_processor@_WV?$string_output_adapter@_W@__crt_stdio_output@@V?$standard_base@_WV?$string_output_adapter@_W@__crt_stdio_output@@@2@@__crt_stdio_output@@ABEHH_W@Z 1004d1e2 f i libucrt:output.obj
 0001:0004c232       ?type_case_u@?$output_processor@DV?$stream_output_adapter@D@__crt_stdio_output@@V?$format_validation_base@DV?$stream_output_adapter@D@__crt_stdio_output@@@2@@__crt_stdio_output@@AAE_NXZ 1004d232 f i libucrt:output.obj
 0001:0004c23e       ?type_case_u@?$output_processor@DV?$stream_output_adapter@D@__crt_stdio_output@@V?$positional_parameter_base@DV?$stream_output_adapter@D@__crt_stdio_output@@@2@@__crt_stdio_output@@AAE_NXZ 1004d23e f i libucrt:output.obj
 0001:0004c24a       ?type_case_u@?$output_processor@DV?$stream_output_adapter@D@__crt_stdio_output@@V?$standard_base@DV?$stream_output_adapter@D@__crt_stdio_output@@@2@@__crt_stdio_output@@AAE_NXZ 1004d24a f i libucrt:output.obj
 0001:0004c256       ?type_case_u@?$output_processor@DV?$string_output_adapter@D@__crt_stdio_output@@V?$format_validation_base@DV?$string_output_adapter@D@__crt_stdio_output@@@2@@__crt_stdio_output@@AAE_NXZ 1004d256 f i libucrt:output.obj
 0001:0004c262       ?type_case_u@?$output_processor@DV?$string_output_adapter@D@__crt_stdio_output@@V?$positional_parameter_base@DV?$string_output_adapter@D@__crt_stdio_output@@@2@@__crt_stdio_output@@AAE_NXZ 1004d262 f i libucrt:output.obj
 0001:0004c26e       ?type_case_u@?$output_processor@DV?$string_output_adapter@D@__crt_stdio_output@@V?$standard_base@DV?$string_output_adapter@D@__crt_stdio_output@@@2@@__crt_stdio_output@@AAE_NXZ 1004d26e f i libucrt:output.obj
 0001:0004c27a       ?type_case_u@?$output_processor@_WV?$stream_output_adapter@_W@__crt_stdio_output@@V?$format_validation_base@_WV?$stream_output_adapter@_W@__crt_stdio_output@@@2@@__crt_stdio_output@@AAE_NXZ 1004d27a f i libucrt:output.obj
 0001:0004c286       ?type_case_u@?$output_processor@_WV?$stream_output_adapter@_W@__crt_stdio_output@@V?$positional_parameter_base@_WV?$stream_output_adapter@_W@__crt_stdio_output@@@2@@__crt_stdio_output@@AAE_NXZ 1004d286 f i libucrt:output.obj
 0001:0004c292       ?type_case_u@?$output_processor@_WV?$stream_output_adapter@_W@__crt_stdio_output@@V?$standard_base@_WV?$stream_output_adapter@_W@__crt_stdio_output@@@2@@__crt_stdio_output@@AAE_NXZ 1004d292 f i libucrt:output.obj
 0001:0004c29e       ?type_case_u@?$output_processor@_WV?$string_output_adapter@_W@__crt_stdio_output@@V?$format_validation_base@_WV?$string_output_adapter@_W@__crt_stdio_output@@@2@@__crt_stdio_output@@AAE_NXZ 1004d29e f i libucrt:output.obj
 0001:0004c2aa       ?type_case_u@?$output_processor@_WV?$string_output_adapter@_W@__crt_stdio_output@@V?$positional_parameter_base@_WV?$string_output_adapter@_W@__crt_stdio_output@@@2@@__crt_stdio_output@@AAE_NXZ 1004d2aa f i libucrt:output.obj
 0001:0004c2b6       ?type_case_u@?$output_processor@_WV?$string_output_adapter@_W@__crt_stdio_output@@V?$standard_base@_WV?$string_output_adapter@_W@__crt_stdio_output@@@2@@__crt_stdio_output@@AAE_NXZ 1004d2b6 f i libucrt:output.obj
 0001:0004c2c2       ?type_case_x@?$output_processor@DV?$stream_output_adapter@D@__crt_stdio_output@@V?$format_validation_base@DV?$stream_output_adapter@D@__crt_stdio_output@@@2@@__crt_stdio_output@@AAE_NXZ 1004d2c2 f i libucrt:output.obj
 0001:0004c2ce       ?type_case_x@?$output_processor@DV?$stream_output_adapter@D@__crt_stdio_output@@V?$positional_parameter_base@DV?$stream_output_adapter@D@__crt_stdio_output@@@2@@__crt_stdio_output@@AAE_NXZ 1004d2ce f i libucrt:output.obj
 0001:0004c2da       ?type_case_x@?$output_processor@DV?$stream_output_adapter@D@__crt_stdio_output@@V?$standard_base@DV?$stream_output_adapter@D@__crt_stdio_output@@@2@@__crt_stdio_output@@AAE_NXZ 1004d2da f i libucrt:output.obj
 0001:0004c2e6       ?type_case_x@?$output_processor@DV?$string_output_adapter@D@__crt_stdio_output@@V?$format_validation_base@DV?$string_output_adapter@D@__crt_stdio_output@@@2@@__crt_stdio_output@@AAE_NXZ 1004d2e6 f i libucrt:output.obj
 0001:0004c2f2       ?type_case_x@?$output_processor@DV?$string_output_adapter@D@__crt_stdio_output@@V?$positional_parameter_base@DV?$string_output_adapter@D@__crt_stdio_output@@@2@@__crt_stdio_output@@AAE_NXZ 1004d2f2 f i libucrt:output.obj
 0001:0004c2fe       ?type_case_x@?$output_processor@DV?$string_output_adapter@D@__crt_stdio_output@@V?$standard_base@DV?$string_output_adapter@D@__crt_stdio_output@@@2@@__crt_stdio_output@@AAE_NXZ 1004d2fe f i libucrt:output.obj
 0001:0004c30a       ?type_case_x@?$output_processor@_WV?$stream_output_adapter@_W@__crt_stdio_output@@V?$format_validation_base@_WV?$stream_output_adapter@_W@__crt_stdio_output@@@2@@__crt_stdio_output@@AAE_NXZ 1004d30a f i libucrt:output.obj
 0001:0004c316       ?type_case_x@?$output_processor@_WV?$stream_output_adapter@_W@__crt_stdio_output@@V?$positional_parameter_base@_WV?$stream_output_adapter@_W@__crt_stdio_output@@@2@@__crt_stdio_output@@AAE_NXZ 1004d316 f i libucrt:output.obj
 0001:0004c322       ?type_case_x@?$output_processor@_WV?$stream_output_adapter@_W@__crt_stdio_output@@V?$standard_base@_WV?$stream_output_adapter@_W@__crt_stdio_output@@@2@@__crt_stdio_output@@AAE_NXZ 1004d322 f i libucrt:output.obj
 0001:0004c32e       ?type_case_x@?$output_processor@_WV?$string_output_adapter@_W@__crt_stdio_output@@V?$format_validation_base@_WV?$string_output_adapter@_W@__crt_stdio_output@@@2@@__crt_stdio_output@@AAE_NXZ 1004d32e f i libucrt:output.obj
 0001:0004c33a       ?type_case_x@?$output_processor@_WV?$string_output_adapter@_W@__crt_stdio_output@@V?$positional_parameter_base@_WV?$string_output_adapter@_W@__crt_stdio_output@@@2@@__crt_stdio_output@@AAE_NXZ 1004d33a f i libucrt:output.obj
 0001:0004c346       ?type_case_x@?$output_processor@_WV?$string_output_adapter@_W@__crt_stdio_output@@V?$standard_base@_WV?$string_output_adapter@_W@__crt_stdio_output@@@2@@__crt_stdio_output@@AAE_NXZ 1004d346 f i libucrt:output.obj
 0001:0004c352       ?unset_flag@?$output_processor@DV?$stream_output_adapter@D@__crt_stdio_output@@V?$format_validation_base@DV?$stream_output_adapter@D@__crt_stdio_output@@@2@@__crt_stdio_output@@AAEXI@Z 1004d352 f i libucrt:output.obj
 0001:0004c367       ?unset_flag@?$output_processor@DV?$stream_output_adapter@D@__crt_stdio_output@@V?$positional_parameter_base@DV?$stream_output_adapter@D@__crt_stdio_output@@@2@@__crt_stdio_output@@AAEXI@Z 1004d367 f i libucrt:output.obj
 0001:0004c37c       ?unset_flag@?$output_processor@DV?$stream_output_adapter@D@__crt_stdio_output@@V?$standard_base@DV?$stream_output_adapter@D@__crt_stdio_output@@@2@@__crt_stdio_output@@AAEXI@Z 1004d37c f i libucrt:output.obj
 0001:0004c391       ?unset_flag@?$output_processor@DV?$string_output_adapter@D@__crt_stdio_output@@V?$format_validation_base@DV?$string_output_adapter@D@__crt_stdio_output@@@2@@__crt_stdio_output@@AAEXI@Z 1004d391 f i libucrt:output.obj
 0001:0004c3a6       ?unset_flag@?$output_processor@DV?$string_output_adapter@D@__crt_stdio_output@@V?$positional_parameter_base@DV?$string_output_adapter@D@__crt_stdio_output@@@2@@__crt_stdio_output@@AAEXI@Z 1004d3a6 f i libucrt:output.obj
 0001:0004c3bb       ?unset_flag@?$output_processor@DV?$string_output_adapter@D@__crt_stdio_output@@V?$standard_base@DV?$string_output_adapter@D@__crt_stdio_output@@@2@@__crt_stdio_output@@AAEXI@Z 1004d3bb f i libucrt:output.obj
 0001:0004c3d0       ?unset_flag@?$output_processor@_WV?$stream_output_adapter@_W@__crt_stdio_output@@V?$format_validation_base@_WV?$stream_output_adapter@_W@__crt_stdio_output@@@2@@__crt_stdio_output@@AAEXI@Z 1004d3d0 f i libucrt:output.obj
 0001:0004c3e5       ?unset_flag@?$output_processor@_WV?$stream_output_adapter@_W@__crt_stdio_output@@V?$positional_parameter_base@_WV?$stream_output_adapter@_W@__crt_stdio_output@@@2@@__crt_stdio_output@@AAEXI@Z 1004d3e5 f i libucrt:output.obj
 0001:0004c3fa       ?unset_flag@?$output_processor@_WV?$stream_output_adapter@_W@__crt_stdio_output@@V?$standard_base@_WV?$stream_output_adapter@_W@__crt_stdio_output@@@2@@__crt_stdio_output@@AAEXI@Z 1004d3fa f i libucrt:output.obj
 0001:0004c40f       ?unset_flag@?$output_processor@_WV?$string_output_adapter@_W@__crt_stdio_output@@V?$format_validation_base@_WV?$string_output_adapter@_W@__crt_stdio_output@@@2@@__crt_stdio_output@@AAEXI@Z 1004d40f f i libucrt:output.obj
 0001:0004c424       ?unset_flag@?$output_processor@_WV?$string_output_adapter@_W@__crt_stdio_output@@V?$positional_parameter_base@_WV?$string_output_adapter@_W@__crt_stdio_output@@@2@@__crt_stdio_output@@AAEXI@Z 1004d424 f i libucrt:output.obj
 0001:0004c439       ?unset_flag@?$output_processor@_WV?$string_output_adapter@_W@__crt_stdio_output@@V?$standard_base@_WV?$string_output_adapter@_W@__crt_stdio_output@@@2@@__crt_stdio_output@@AAEXI@Z 1004d439 f i libucrt:output.obj
 0001:0004c44e       ?update_field_width@?$positional_parameter_base@DV?$stream_output_adapter@D@__crt_stdio_output@@@__crt_stdio_output@@IAE_NXZ 1004d44e f i libucrt:output.obj
 0001:0004c531       ?update_field_width@?$positional_parameter_base@DV?$string_output_adapter@D@__crt_stdio_output@@@__crt_stdio_output@@IAE_NXZ 1004d531 f i libucrt:output.obj
 0001:0004c614       ?update_field_width@?$positional_parameter_base@_WV?$stream_output_adapter@_W@__crt_stdio_output@@@__crt_stdio_output@@IAE_NXZ 1004d614 f i libucrt:output.obj
 0001:0004c6f8       ?update_field_width@?$positional_parameter_base@_WV?$string_output_adapter@_W@__crt_stdio_output@@@__crt_stdio_output@@IAE_NXZ 1004d6f8 f i libucrt:output.obj
 0001:0004c7dc       ?update_field_width@?$standard_base@DV?$stream_output_adapter@D@__crt_stdio_output@@@__crt_stdio_output@@IAE_NXZ 1004d7dc f i libucrt:output.obj
 0001:0004c7f0       ?update_field_width@?$standard_base@DV?$string_output_adapter@D@__crt_stdio_output@@@__crt_stdio_output@@IAE_NXZ 1004d7f0 f i libucrt:output.obj
 0001:0004c804       ?update_field_width@?$standard_base@_WV?$stream_output_adapter@_W@__crt_stdio_output@@@__crt_stdio_output@@IAE_NXZ 1004d804 f i libucrt:output.obj
 0001:0004c818       ?update_field_width@?$standard_base@_WV?$string_output_adapter@_W@__crt_stdio_output@@@__crt_stdio_output@@IAE_NXZ 1004d818 f i libucrt:output.obj
 0001:0004c82c       ?update_precision@?$positional_parameter_base@DV?$stream_output_adapter@D@__crt_stdio_output@@@__crt_stdio_output@@IAE_NXZ 1004d82c f i libucrt:output.obj
 0001:0004c90f       ?update_precision@?$positional_parameter_base@DV?$string_output_adapter@D@__crt_stdio_output@@@__crt_stdio_output@@IAE_NXZ 1004d90f f i libucrt:output.obj
 0001:0004c9f2       ?update_precision@?$positional_parameter_base@_WV?$stream_output_adapter@_W@__crt_stdio_output@@@__crt_stdio_output@@IAE_NXZ 1004d9f2 f i libucrt:output.obj
 0001:0004cad6       ?update_precision@?$positional_parameter_base@_WV?$string_output_adapter@_W@__crt_stdio_output@@@__crt_stdio_output@@IAE_NXZ 1004dad6 f i libucrt:output.obj
 0001:0004cbba       ?update_precision@?$standard_base@DV?$stream_output_adapter@D@__crt_stdio_output@@@__crt_stdio_output@@IAE_NXZ 1004dbba f i libucrt:output.obj
 0001:0004cbce       ?update_precision@?$standard_base@DV?$string_output_adapter@D@__crt_stdio_output@@@__crt_stdio_output@@IAE_NXZ 1004dbce f i libucrt:output.obj
 0001:0004cbe2       ?update_precision@?$standard_base@_WV?$stream_output_adapter@_W@__crt_stdio_output@@@__crt_stdio_output@@IAE_NXZ 1004dbe2 f i libucrt:output.obj
 0001:0004cbf6       ?update_precision@?$standard_base@_WV?$string_output_adapter@_W@__crt_stdio_output@@@__crt_stdio_output@@IAE_NXZ 1004dbf6 f i libucrt:output.obj
 0001:0004cc0a       ?valid@__crt_stdio_stream@@QBE_NXZ 1004dc0a f i libucrt:output.obj
 0001:0004cc14       ?validate@?$stream_output_adapter@D@__crt_stdio_output@@QBE_NXZ 1004dc14 f i libucrt:output.obj
 0001:0004cc3d       ?validate@?$stream_output_adapter@_W@__crt_stdio_output@@QBE_NXZ 1004dc3d f i libucrt:output.obj
 0001:0004cc5e       ?validate@?$string_output_adapter@D@__crt_stdio_output@@QBE_NXZ 1004dc5e f i libucrt:output.obj
 0001:0004cc7f       ?validate@?$string_output_adapter@_W@__crt_stdio_output@@QBE_NXZ 1004dc7f f i libucrt:output.obj
 0001:0004cca0       ?validate_and_store_parameter_data@?$positional_parameter_base@DV?$stream_output_adapter@D@__crt_stdio_output@@@__crt_stdio_output@@AAE_NAAUparameter_data@12@W4parameter_type@12@DW4length_modifier@2@@Z 1004dca0 f i libucrt:output.obj
 0001:0004ccfd       ?validate_and_store_parameter_data@?$positional_parameter_base@DV?$string_output_adapter@D@__crt_stdio_output@@@__crt_stdio_output@@AAE_NAAUparameter_data@12@W4parameter_type@12@DW4length_modifier@2@@Z 1004dcfd f i libucrt:output.obj
 0001:0004cd5a       ?validate_and_store_parameter_data@?$positional_parameter_base@_WV?$stream_output_adapter@_W@__crt_stdio_output@@@__crt_stdio_output@@AAE_NAAUparameter_data@12@W4parameter_type@12@_WW4length_modifier@2@@Z 1004dd5a f i libucrt:output.obj
 0001:0004cdba       ?validate_and_store_parameter_data@?$positional_parameter_base@_WV?$string_output_adapter@_W@__crt_stdio_output@@@__crt_stdio_output@@AAE_NAAUparameter_data@12@W4parameter_type@12@_WW4length_modifier@2@@Z 1004ddba f i libucrt:output.obj
 0001:0004ce1a       ?validate_and_update_state_at_beginning_of_format_character@?$positional_parameter_base@DV?$stream_output_adapter@D@__crt_stdio_output@@@__crt_stdio_output@@IAE_NXZ 1004de1a f i libucrt:output.obj
 0001:0004cf50       ?validate_and_update_state_at_beginning_of_format_character@?$positional_parameter_base@DV?$string_output_adapter@D@__crt_stdio_output@@@__crt_stdio_output@@IAE_NXZ 1004df50 f i libucrt:output.obj
 0001:0004d086       ?validate_and_update_state_at_beginning_of_format_character@?$positional_parameter_base@_WV?$stream_output_adapter@_W@__crt_stdio_output@@@__crt_stdio_output@@IAE_NXZ 1004e086 f i libucrt:output.obj
 0001:0004d1c8       ?validate_and_update_state_at_beginning_of_format_character@?$positional_parameter_base@_WV?$string_output_adapter@_W@__crt_stdio_output@@@__crt_stdio_output@@IAE_NXZ 1004e1c8 f i libucrt:output.obj
 0001:0004d30a       ?validate_and_update_state_at_beginning_of_format_character@?$standard_base@DV?$stream_output_adapter@D@__crt_stdio_output@@@__crt_stdio_output@@IAE_NXZ 1004e30a f i libucrt:output.obj
 0001:0004d30d       ?validate_and_update_state_at_beginning_of_format_character@?$standard_base@DV?$string_output_adapter@D@__crt_stdio_output@@@__crt_stdio_output@@IAE_NXZ 1004e30d f i libucrt:output.obj
 0001:0004d310       ?validate_and_update_state_at_beginning_of_format_character@?$standard_base@_WV?$stream_output_adapter@_W@__crt_stdio_output@@@__crt_stdio_output@@IAE_NXZ 1004e310 f i libucrt:output.obj
 0001:0004d313       ?validate_and_update_state_at_beginning_of_format_character@?$standard_base@_WV?$string_output_adapter@_W@__crt_stdio_output@@@__crt_stdio_output@@IAE_NXZ 1004e313 f i libucrt:output.obj
 0001:0004d316       ?validate_and_update_state_at_end_of_format_string@?$format_validation_base@DV?$stream_output_adapter@D@__crt_stdio_output@@@__crt_stdio_output@@IBE_NXZ 1004e316 f i libucrt:output.obj
 0001:0004d340       ?validate_and_update_state_at_end_of_format_string@?$format_validation_base@DV?$string_output_adapter@D@__crt_stdio_output@@@__crt_stdio_output@@IBE_NXZ 1004e340 f i libucrt:output.obj
 0001:0004d36a       ?validate_and_update_state_at_end_of_format_string@?$format_validation_base@_WV?$stream_output_adapter@_W@__crt_stdio_output@@@__crt_stdio_output@@IBE_NXZ 1004e36a f i libucrt:output.obj
 0001:0004d394       ?validate_and_update_state_at_end_of_format_string@?$format_validation_base@_WV?$string_output_adapter@_W@__crt_stdio_output@@@__crt_stdio_output@@IBE_NXZ 1004e394 f i libucrt:output.obj
 0001:0004d3be       ?validate_and_update_state_at_end_of_format_string@?$positional_parameter_base@DV?$stream_output_adapter@D@__crt_stdio_output@@@__crt_stdio_output@@IAE_NXZ 1004e3be f i libucrt:output.obj
 0001:0004d45e       ?validate_and_update_state_at_end_of_format_string@?$positional_parameter_base@DV?$string_output_adapter@D@__crt_stdio_output@@@__crt_stdio_output@@IAE_NXZ 1004e45e f i libucrt:output.obj
 0001:0004d4fe       ?validate_and_update_state_at_end_of_format_string@?$positional_parameter_base@_WV?$stream_output_adapter@_W@__crt_stdio_output@@@__crt_stdio_output@@IAE_NXZ 1004e4fe f i libucrt:output.obj
 0001:0004d59e       ?validate_and_update_state_at_end_of_format_string@?$positional_parameter_base@_WV?$string_output_adapter@_W@__crt_stdio_output@@@__crt_stdio_output@@IAE_NXZ 1004e59e f i libucrt:output.obj
 0001:0004d63e       ?validate_and_update_state_at_end_of_format_string@?$standard_base@DV?$stream_output_adapter@D@__crt_stdio_output@@@__crt_stdio_output@@IBE_NXZ 1004e63e f i libucrt:output.obj
 0001:0004d641       ?validate_and_update_state_at_end_of_format_string@?$standard_base@DV?$string_output_adapter@D@__crt_stdio_output@@@__crt_stdio_output@@IBE_NXZ 1004e641 f i libucrt:output.obj
 0001:0004d644       ?validate_and_update_state_at_end_of_format_string@?$standard_base@_WV?$stream_output_adapter@_W@__crt_stdio_output@@@__crt_stdio_output@@IBE_NXZ 1004e644 f i libucrt:output.obj
 0001:0004d647       ?validate_and_update_state_at_end_of_format_string@?$standard_base@_WV?$string_output_adapter@_W@__crt_stdio_output@@@__crt_stdio_output@@IBE_NXZ 1004e647 f i libucrt:output.obj
 0001:0004d64a       ?validate_state_for_type_case_a@?$positional_parameter_base@DV?$stream_output_adapter@D@__crt_stdio_output@@@__crt_stdio_output@@IAE_NXZ 1004e64a f i libucrt:output.obj
 0001:0004d6b1       ?validate_state_for_type_case_a@?$positional_parameter_base@DV?$string_output_adapter@D@__crt_stdio_output@@@__crt_stdio_output@@IAE_NXZ 1004e6b1 f i libucrt:output.obj
 0001:0004d718       ?validate_state_for_type_case_a@?$positional_parameter_base@_WV?$stream_output_adapter@_W@__crt_stdio_output@@@__crt_stdio_output@@IAE_NXZ 1004e718 f i libucrt:output.obj
 0001:0004d77f       ?validate_state_for_type_case_a@?$positional_parameter_base@_WV?$string_output_adapter@_W@__crt_stdio_output@@@__crt_stdio_output@@IAE_NXZ 1004e77f f i libucrt:output.obj
 0001:0004d7e6       ?validate_state_for_type_case_a@?$standard_base@DV?$stream_output_adapter@D@__crt_stdio_output@@@__crt_stdio_output@@IBE_NXZ 1004e7e6 f i libucrt:output.obj
 0001:0004d7e9       ?validate_state_for_type_case_a@?$standard_base@DV?$string_output_adapter@D@__crt_stdio_output@@@__crt_stdio_output@@IBE_NXZ 1004e7e9 f i libucrt:output.obj
 0001:0004d7ec       ?validate_state_for_type_case_a@?$standard_base@_WV?$stream_output_adapter@_W@__crt_stdio_output@@@__crt_stdio_output@@IBE_NXZ 1004e7ec f i libucrt:output.obj
 0001:0004d7ef       ?validate_state_for_type_case_a@?$standard_base@_WV?$string_output_adapter@_W@__crt_stdio_output@@@__crt_stdio_output@@IBE_NXZ 1004e7ef f i libucrt:output.obj
 0001:0004d7f2       ?validate_stream_is_ansi_if_required@?$__acrt_stdio_char_traits@D@@SA_NQAU_iobuf@@@Z 1004e7f2 f i libucrt:output.obj
 0001:0004d894       ?validate_stream_is_ansi_if_required@?$__acrt_stdio_char_traits@_W@@SA_NQAU_iobuf@@@Z 1004e894 f i libucrt:output.obj
 0001:0004d897       ?wide_null_string@?$output_processor@DV?$stream_output_adapter@D@__crt_stdio_output@@V?$format_validation_base@DV?$stream_output_adapter@D@__crt_stdio_output@@@2@@__crt_stdio_output@@CAPA_WXZ 1004e897 f i libucrt:output.obj
 0001:0004d89d       ?wide_null_string@?$output_processor@DV?$stream_output_adapter@D@__crt_stdio_output@@V?$positional_parameter_base@DV?$stream_output_adapter@D@__crt_stdio_output@@@2@@__crt_stdio_output@@CAPA_WXZ 1004e89d f i libucrt:output.obj
 0001:0004d8a3       ?wide_null_string@?$output_processor@DV?$stream_output_adapter@D@__crt_stdio_output@@V?$standard_base@DV?$stream_output_adapter@D@__crt_stdio_output@@@2@@__crt_stdio_output@@CAPA_WXZ 1004e8a3 f i libucrt:output.obj
 0001:0004d8a9       ?wide_null_string@?$output_processor@DV?$string_output_adapter@D@__crt_stdio_output@@V?$format_validation_base@DV?$string_output_adapter@D@__crt_stdio_output@@@2@@__crt_stdio_output@@CAPA_WXZ 1004e8a9 f i libucrt:output.obj
 0001:0004d8af       ?wide_null_string@?$output_processor@DV?$string_output_adapter@D@__crt_stdio_output@@V?$positional_parameter_base@DV?$string_output_adapter@D@__crt_stdio_output@@@2@@__crt_stdio_output@@CAPA_WXZ 1004e8af f i libucrt:output.obj
 0001:0004d8b5       ?wide_null_string@?$output_processor@DV?$string_output_adapter@D@__crt_stdio_output@@V?$standard_base@DV?$string_output_adapter@D@__crt_stdio_output@@@2@@__crt_stdio_output@@CAPA_WXZ 1004e8b5 f i libucrt:output.obj
 0001:0004d8bb       ?wide_null_string@?$output_processor@_WV?$stream_output_adapter@_W@__crt_stdio_output@@V?$format_validation_base@_WV?$stream_output_adapter@_W@__crt_stdio_output@@@2@@__crt_stdio_output@@CAPA_WXZ 1004e8bb f i libucrt:output.obj
 0001:0004d8c1       ?wide_null_string@?$output_processor@_WV?$stream_output_adapter@_W@__crt_stdio_output@@V?$positional_parameter_base@_WV?$stream_output_adapter@_W@__crt_stdio_output@@@2@@__crt_stdio_output@@CAPA_WXZ 1004e8c1 f i libucrt:output.obj
 0001:0004d8c7       ?wide_null_string@?$output_processor@_WV?$stream_output_adapter@_W@__crt_stdio_output@@V?$standard_base@_WV?$stream_output_adapter@_W@__crt_stdio_output@@@2@@__crt_stdio_output@@CAPA_WXZ 1004e8c7 f i libucrt:output.obj
 0001:0004d8cd       ?wide_null_string@?$output_processor@_WV?$string_output_adapter@_W@__crt_stdio_output@@V?$format_validation_base@_WV?$string_output_adapter@_W@__crt_stdio_output@@@2@@__crt_stdio_output@@CAPA_WXZ 1004e8cd f i libucrt:output.obj
 0001:0004d8d3       ?wide_null_string@?$output_processor@_WV?$string_output_adapter@_W@__crt_stdio_output@@V?$positional_parameter_base@_WV?$string_output_adapter@_W@__crt_stdio_output@@@2@@__crt_stdio_output@@CAPA_WXZ 1004e8d3 f i libucrt:output.obj
 0001:0004d8d9       ?wide_null_string@?$output_processor@_WV?$string_output_adapter@_W@__crt_stdio_output@@V?$standard_base@_WV?$string_output_adapter@_W@__crt_stdio_output@@@2@@__crt_stdio_output@@CAPA_WXZ 1004e8d9 f i libucrt:output.obj
 0001:0004d8df       ?write_character@?$stream_output_adapter@D@__crt_stdio_output@@QBEXDQAH@Z 1004e8df f i libucrt:output.obj
 0001:0004d92b       ?write_character@?$stream_output_adapter@_W@__crt_stdio_output@@QBEX_WQAH@Z 1004e92b f i libucrt:output.obj
 0001:0004d97b       ?write_character@?$string_output_adapter@D@__crt_stdio_output@@QBE_NDQAH@Z 1004e97b f i libucrt:output.obj
 0001:0004d9cd       ?write_character@?$string_output_adapter@_W@__crt_stdio_output@@QBE_N_WQAH@Z 1004e9cd f i libucrt:output.obj
 0001:0004da23       ?write_stored_string_tchar@?$output_processor@DV?$stream_output_adapter@D@__crt_stdio_output@@V?$format_validation_base@DV?$stream_output_adapter@D@__crt_stdio_output@@@2@@__crt_stdio_output@@AAE_ND@Z 1004ea23 f i libucrt:output.obj
 0001:0004daf3       ?write_stored_string_tchar@?$output_processor@DV?$stream_output_adapter@D@__crt_stdio_output@@V?$positional_parameter_base@DV?$stream_output_adapter@D@__crt_stdio_output@@@2@@__crt_stdio_output@@AAE_ND@Z 1004eaf3 f i libucrt:output.obj
 0001:0004dbc3       ?write_stored_string_tchar@?$output_processor@DV?$stream_output_adapter@D@__crt_stdio_output@@V?$standard_base@DV?$stream_output_adapter@D@__crt_stdio_output@@@2@@__crt_stdio_output@@AAE_ND@Z 1004ebc3 f i libucrt:output.obj
 0001:0004dc93       ?write_stored_string_tchar@?$output_processor@DV?$string_output_adapter@D@__crt_stdio_output@@V?$format_validation_base@DV?$string_output_adapter@D@__crt_stdio_output@@@2@@__crt_stdio_output@@AAE_ND@Z 1004ec93 f i libucrt:output.obj
 0001:0004dd63       ?write_stored_string_tchar@?$output_processor@DV?$string_output_adapter@D@__crt_stdio_output@@V?$positional_parameter_base@DV?$string_output_adapter@D@__crt_stdio_output@@@2@@__crt_stdio_output@@AAE_ND@Z 1004ed63 f i libucrt:output.obj
 0001:0004de33       ?write_stored_string_tchar@?$output_processor@DV?$string_output_adapter@D@__crt_stdio_output@@V?$standard_base@DV?$string_output_adapter@D@__crt_stdio_output@@@2@@__crt_stdio_output@@AAE_ND@Z 1004ee33 f i libucrt:output.obj
 0001:0004df03       ?write_stored_string_tchar@?$output_processor@_WV?$stream_output_adapter@_W@__crt_stdio_output@@V?$format_validation_base@_WV?$stream_output_adapter@_W@__crt_stdio_output@@@2@@__crt_stdio_output@@AAE_N_W@Z 1004ef03 f i libucrt:output.obj
 0001:0004dfb0       ?write_stored_string_tchar@?$output_processor@_WV?$stream_output_adapter@_W@__crt_stdio_output@@V?$positional_parameter_base@_WV?$stream_output_adapter@_W@__crt_stdio_output@@@2@@__crt_stdio_output@@AAE_N_W@Z 1004efb0 f i libucrt:output.obj
 0001:0004e05d       ?write_stored_string_tchar@?$output_processor@_WV?$stream_output_adapter@_W@__crt_stdio_output@@V?$standard_base@_WV?$stream_output_adapter@_W@__crt_stdio_output@@@2@@__crt_stdio_output@@AAE_N_W@Z 1004f05d f i libucrt:output.obj
 0001:0004e10a       ?write_stored_string_tchar@?$output_processor@_WV?$string_output_adapter@_W@__crt_stdio_output@@V?$format_validation_base@_WV?$string_output_adapter@_W@__crt_stdio_output@@@2@@__crt_stdio_output@@AAE_N_W@Z 1004f10a f i libucrt:output.obj
 0001:0004e1b7       ?write_stored_string_tchar@?$output_processor@_WV?$string_output_adapter@_W@__crt_stdio_output@@V?$positional_parameter_base@_WV?$string_output_adapter@_W@__crt_stdio_output@@@2@@__crt_stdio_output@@AAE_N_W@Z 1004f1b7 f i libucrt:output.obj
 0001:0004e264       ?write_stored_string_tchar@?$output_processor@_WV?$string_output_adapter@_W@__crt_stdio_output@@V?$standard_base@_WV?$string_output_adapter@_W@__crt_stdio_output@@@2@@__crt_stdio_output@@AAE_N_W@Z 1004f264 f i libucrt:output.obj
 0001:0004e311       ?write_string@?$stream_output_adapter@D@__crt_stdio_output@@QBEXQBDHQAH1@Z 1004f311 f i libucrt:output.obj
 0001:0004e3bd       ?write_string@?$stream_output_adapter@_W@__crt_stdio_output@@QBEXQB_WHQAH1@Z 1004f3bd f i libucrt:output.obj
 0001:0004e46d       ?write_string@?$string_output_adapter@D@__crt_stdio_output@@QBEXQBDHQAH1@Z 1004f46d f i libucrt:output.obj
 0001:0004e524       ?write_string@?$string_output_adapter@_W@__crt_stdio_output@@QBEXQB_WHQAH1@Z 1004f524 f i libucrt:output.obj
 0001:0004e5e4       ___acrt_isleadbyte_l_noupdate 1004f5e4 f i libucrt:output.obj
 0001:0004e605       ___acrt_locale_changed     1004f605 f i libucrt:output.obj
 0001:0004e616       ___stdio_common_vfprintf   1004f616 f   libucrt:output.obj
 0001:0004e6aa       ___stdio_common_vfprintf_p 1004f6aa f   libucrt:output.obj
 0001:0004e73e       ___stdio_common_vfprintf_s 1004f73e f   libucrt:output.obj
 0001:0004e7d2       ___stdio_common_vfwprintf  1004f7d2 f   libucrt:output.obj
 0001:0004e866       ___stdio_common_vfwprintf_p 1004f866 f   libucrt:output.obj
 0001:0004e8fa       ___stdio_common_vfwprintf_s 1004f8fa f   libucrt:output.obj
 0001:0004e98e       ___stdio_common_vsnprintf_s 1004f98e f   libucrt:output.obj
 0001:0004e9be       ___stdio_common_vsnwprintf_s 1004f9be f   libucrt:output.obj
 0001:0004e9ee       ___stdio_common_vsprintf   1004f9ee f   libucrt:output.obj
 0001:0004ea1b       ___stdio_common_vsprintf_p 1004fa1b f   libucrt:output.obj
 0001:0004ea48       ___stdio_common_vsprintf_s 1004fa48 f   libucrt:output.obj
 0001:0004ea75       ___stdio_common_vswprintf  1004fa75 f   libucrt:output.obj
 0001:0004eaa2       ___stdio_common_vswprintf_p 1004faa2 f   libucrt:output.obj
 0001:0004eacf       ___stdio_common_vswprintf_s 1004facf f   libucrt:output.obj
 0001:0004eb00       _fmod                      1004fb00 f   libucrt:87fmod.obj
 0001:0004eb0a       __CIfmod                   1004fb0a f   libucrt:87fmod.obj
 0001:0004eb2a       ___libm_sse2_pow           1004fb2a f   libucrt:pow_sse2.obj
 0001:0004f840       _calloc                    10050840 f   libucrt:calloc.obj
 0001:0004f84d       _free                      1005084d f   libucrt:free.obj
 0001:0004f852       _realloc                   10050852 f   libucrt:realloc.obj
 0001:0004f85f       ??$?B$$A6GXPAXK0@Z@__crt_fast_encoded_nullptr_t@@QBEP6GXPAXK0@ZXZ 1005085f f i libucrt:exit.obj
 0001:0004f87d       ??$__crt_fast_decode_pointer@P6GXPAXK0@Z@@YAP6GXPAXK0@ZQ6GX0K0@Z@Z 1005087d f i libucrt:exit.obj
 0001:0004f898       ??$__crt_fast_encode_pointer@P6GXPAXK0@Z@@YAP6GXPAXK0@ZQ6GX0K0@Z@Z 10050898 f i libucrt:exit.obj
 0001:0004f8be       ??$__crt_get_proc_address@P6GXI@Z@@YAP6GXI@ZQAUHINSTANCE__@@QBD@Z 100508be f i libucrt:exit.obj
 0001:0004f8d5       ??0?$__crt_unique_handle_t@U__crt_hmodule_traits@@@@QAE@QAUHINSTANCE__@@@Z 100508d5 f i libucrt:exit.obj
 0001:0004f8e9       ??1?$__crt_unique_handle_t@U__crt_hmodule_traits@@@@QAE@XZ 100508e9 f i libucrt:exit.obj
 0001:0004f91c       ?close@?$__crt_unique_handle_t@U__crt_hmodule_traits@@@@QAEXXZ 1005091c f i libucrt:exit.obj
 0001:0004f938       ?close@__crt_hmodule_traits@@SA_NPAUHINSTANCE__@@@Z 10050938 f i libucrt:exit.obj
 0001:0004fb03       ?get@?$__crt_unique_handle_t@U__crt_hmodule_traits@@@@QBEPAUHINSTANCE__@@XZ 10050b03 f i libucrt:exit.obj
 0001:0004fb06       ?get_address_of@?$__crt_unique_handle_t@U__crt_hmodule_traits@@@@QAEPAPAUHINSTANCE__@@XZ 10050b06 f i libucrt:exit.obj
 0001:0004fb09       ?get_invalid_value@__crt_hmodule_traits@@SAPAUHINSTANCE__@@XZ 10050b09 f i libucrt:exit.obj
 0001:0004fc06       __Exit                     10050c06 f   libucrt:exit.obj
 0001:0004fc21       ___acrt_initialize_thread_local_exit_callback 10050c21 f   libucrt:exit.obj
 0001:0004fc33       __c_exit                   10050c33 f   libucrt:exit.obj
 0001:0004fc45       __cexit                    10050c45 f   libucrt:exit.obj
 0001:0004fc57       __exit                     10050c57 f   libucrt:exit.obj
 0001:0004fc72       __is_c_termination_complete 10050c72 f   libucrt:exit.obj
 0001:0004fc78       __register_thread_local_exe_atexit_callback 10050c78 f   libucrt:exit.obj
 0001:0004fcbe       _exit                      10050cbe f   libucrt:exit.obj
 0001:0004fcd9       _quick_exit                10050cd9 f   libucrt:exit.obj
 0001:0004fd00       _strncat                   10050d00 f   libucrt:strncat.obj
 0001:0004fe90       _strncpy                   10050e90 f   libucrt:strncpy.obj
 0001:0004fffd       ?is_in_use@__crt_stdio_stream@@QBE_NXZ 10050ffd f i libucrt:fclose.obj
 0001:0005000c       __fclose_nolock            1005100c f   libucrt:fclose.obj
 0001:0005009f       _fclose                    1005109f f   libucrt:fclose.obj
 0001:000503d1       ??$open_file@ABQBDABQBDABHPAU_iobuf@@@?$__crt_char_traits@D@@SAPAU_iobuf@@ABQBD0ABH$$QAPAU1@@Z 100513d1 f i libucrt:fopen.obj
 0001:000503fc       ??$open_file@ABQB_WABQB_WABHPAU_iobuf@@@?$__crt_char_traits@_W@@SAPAU_iobuf@@ABQB_W0ABH$$QAPAU1@@Z 100513fc f i libucrt:fopen.obj
 0001:00050427       ?unlock@__crt_stdio_stream@@QBEXXZ 10051427 f i libucrt:fopen.obj
 0001:00050432       __fsopen                   10051432 f   libucrt:fopen.obj
 0001:0005043f       __wfopen                   1005143f f   libucrt:fopen.obj
 0001:0005045b       __wfopen_s                 1005145b f   libucrt:fopen.obj
 0001:000504b3       __wfsopen                  100514b3 f   libucrt:fopen.obj
 0001:000504c0       _fopen                     100514c0 f   libucrt:fopen.obj
 0001:000504dc       _fopen_s                   100514dc f   libucrt:fopen.obj
 0001:00050534       ?has_any_buffer@__crt_stdio_stream@@QBE_NXZ 10051534 f i libucrt:fread.obj
 0001:00050549       ?has_any_of@__crt_stdio_stream@@QBE_NJ@Z 10051549 f i libucrt:fread.obj
 0001:00050565       ?set_flags@__crt_stdio_stream@@QBE_NJ@Z 10051565 f i libucrt:fread.obj
 0001:00050595       __fread_nolock             10051595 f   libucrt:fread.obj
 0001:000505b9       __fread_nolock_s           100515b9 f   libucrt:fread.obj
 0001:000507f8       _fread                     100517f8 f   libucrt:fread.obj
 0001:0005081c       _fread_s                   1005181c f   libucrt:fread.obj
 0001:00050974       ??$?RV<lambda_11b4f7b0d3157825a5656a18eba1ae27>@@AAV<lambda_b51c0495177f500e782686251704ae76>@@V<lambda_cf89b47920b5017557bfe891e78aca36>@@@?$__crt_seh_guarded_call@I@@QAEI$$QAV<lambda_11b4f7b0d3157825a5656a18eba1ae27>@@AAV<lambda_b51c0495177f500e782686251704ae76>@@$$QAV<lambda_cf89b47920b5017557bfe891e78aca36>@@@Z 10051974 f i libucrt:fwrite.obj
 0001:000509d9       ??$__acrt_lock_stream_and_call@V<lambda_b51c0495177f500e782686251704ae76>@@@@YAIQAU_iobuf@@$$QAV<lambda_b51c0495177f500e782686251704ae76>@@@Z 100519d9 f i libucrt:fwrite.obj
 0001:00050ace       ?has_big_buffer@__crt_stdio_stream@@QBE_NXZ 10051ace f i libucrt:fwrite.obj
 0001:00050adf       __fwrite_nolock            10051adf f   libucrt:fwrite.obj
 0001:00050cb6       _fwrite                    10051cb6 f   libucrt:fwrite.obj
 0001:00050d24       ??$?R_W@__crt_internal_free_policy@@QBEXQB_W@Z 10051d24 f i libucrt:unlink.obj
 0001:00050d3a       ??0?$__crt_unique_heap_ptr@_WU__crt_internal_free_policy@@@@QAE@QA_W@Z 10051d3a f i libucrt:unlink.obj
 0001:00050d4e       ??1?$__crt_unique_heap_ptr@_WU__crt_internal_free_policy@@@@QAE@XZ 10051d4e f i libucrt:unlink.obj
 0001:00050d64       ?get@?$__crt_unique_heap_ptr@_WU__crt_internal_free_policy@@@@QBEPA_WXZ 10051d64 f i libucrt:unlink.obj
 0001:00050d67       ?get_address_of@?$__crt_unique_heap_ptr@_WU__crt_internal_free_policy@@@@QAEPAPA_WXZ 10051d67 f i libucrt:unlink.obj
 0001:00050d6a       ?release@?$__crt_unique_heap_ptr@_WU__crt_internal_free_policy@@@@QAEXXZ 10051d6a f i libucrt:unlink.obj
 0001:00050d80       __unlink                   10051d80 f   libucrt:unlink.obj
 0001:00050d8d       _remove                    10051d8d f   libucrt:unlink.obj
 0001:00050ded       ?__acrt_stdio_reset_buffer@@YAXV__crt_stdio_stream@@@Z 10051ded f i libucrt:rewind.obj
 0001:00050e08       ?has_all_of@__crt_stdio_stream@@QBE_NJ@Z 10051e08 f i libucrt:rewind.obj
 0001:00050e27       ?unset_flags@__crt_stdio_stream@@QBE_NJ@Z 10051e27 f i libucrt:rewind.obj
 0001:00050e5b       _rewind                    10051e5b f   libucrt:rewind.obj
 0001:00050f5c       _ldexp                     10051f5c f   libucrt:ldexp.obj
 0001:000511bc       ??$__vcrt_va_start_verify_argument_type@QB_W@@YAXXZ 100521bc f i libucrt:assert.obj
 0001:00052159       ??$ftprintf@PAU_iobuf@@PBDABQBDABQBDABI@?$__crt_char_traits@D@@SAH$$QAPAU_iobuf@@$$QAPBDABQBD2ABI@Z 10053159 f i libucrt:assert.obj
 0001:0005218b       ??$ftprintf@PAU_iobuf@@PB_WABQB_WABQB_WABI@?$__crt_char_traits@_W@@SAH$$QAPAU_iobuf@@$$QAPB_WABQB_W2ABI@Z 1005318b f i libucrt:assert.obj
 0001:000521bd       ??$get_module_file_name@AAPAUHINSTANCE__@@AAY0BAF@DK@?$__crt_char_traits@D@@SAKAAPAUHINSTANCE__@@AAY0BAF@D$$QAK@Z 100531bd f i libucrt:assert.obj
 0001:000521dd       ??$get_module_file_name@AAPAUHINSTANCE__@@AAY0BAF@_WK@?$__crt_char_traits@_W@@SAKAAPAUHINSTANCE__@@AAY0BAF@_W$$QAK@Z 100531dd f i libucrt:assert.obj
 0001:000521fd       ??$itot_s@ABIQAD$$CBIH@?$__crt_char_traits@D@@SAHABI$$QBQAD$$QBI$$QAH@Z 100531fd f i libucrt:assert.obj
 0001:00052228       ??$itot_s@ABIQA_W$$CBIH@?$__crt_char_traits@_W@@SAHABI$$QBQA_W$$QBI$$QAH@Z 10053228 f i libucrt:assert.obj
 0001:00052253       ??$show_message_box@AAY0CEA@DPBDJ@?$__crt_char_traits@D@@SAHAAY0CEA@D$$QAPBD$$QAJ@Z 10053253 f i libucrt:assert.obj
 0001:00052276       ??$show_message_box@AAY0CEA@_WPB_WJ@?$__crt_char_traits@_W@@SAHAAY0CEA@_W$$QAPB_W$$QAJ@Z 10053276 f i libucrt:assert.obj
 0001:00052299       ??$tcscat_s@ABQADABIAAPAD@?$__crt_char_traits@D@@SAHABQADABIAAPAD@Z 10053299 f i libucrt:assert.obj
 0001:000522be       ??$tcscat_s@ABQADABIABQBD@?$__crt_char_traits@D@@SAHABQADABIABQBD@Z 100532be f i libucrt:assert.obj
 0001:000522e3       ??$tcscat_s@ABQADABIPBD@?$__crt_char_traits@D@@SAHABQADABI$$QAPBD@Z 100532e3 f i libucrt:assert.obj
 0001:00052308       ??$tcscat_s@ABQA_WABIAAPA_W@?$__crt_char_traits@_W@@SAHABQA_WABIAAPA_W@Z 10053308 f i libucrt:assert.obj
 0001:0005232d       ??$tcscat_s@ABQA_WABIABQB_W@?$__crt_char_traits@_W@@SAHABQA_WABIABQB_W@Z 1005332d f i libucrt:assert.obj
 0001:00052352       ??$tcscat_s@ABQA_WABIPB_W@?$__crt_char_traits@_W@@SAHABQA_WABI$$QAPB_W@Z 10053352 f i libucrt:assert.obj
 0001:00052377       ??$tcscpy_s@AAY0BAF@DIPBD@?$__crt_char_traits@D@@SAHAAY0BAF@D$$QAI$$QAPBD@Z 10053377 f i libucrt:assert.obj
 0001:0005239a       ??$tcscpy_s@AAY0BAF@_WIPB_W@?$__crt_char_traits@_W@@SAHAAY0BAF@_W$$QAI$$QAPB_W@Z 1005339a f i libucrt:assert.obj
 0001:000523bd       ??$tcscpy_s@ABQADABIPBD@?$__crt_char_traits@D@@SAHABQADABI$$QAPBD@Z 100533bd f i libucrt:assert.obj
 0001:000523e2       ??$tcscpy_s@ABQA_WABIPB_W@?$__crt_char_traits@_W@@SAHABQA_WABI$$QAPB_W@Z 100533e2 f i libucrt:assert.obj
 0001:00052407       ??$tcslen@AAY0BAF@D@?$__crt_char_traits@D@@SAIAAY0BAF@D@Z 10053407 f i libucrt:assert.obj
 0001:00052422       ??$tcslen@AAY0BAF@_W@?$__crt_char_traits@_W@@SAIAAY0BAF@_W@Z 10053422 f i libucrt:assert.obj
 0001:00052445       ??$tcslen@ABQAD@?$__crt_char_traits@D@@SAIABQAD@Z 10053445 f i libucrt:assert.obj
 0001:00052463       ??$tcslen@ABQA_W@?$__crt_char_traits@_W@@SAIABQA_W@Z 10053463 f i libucrt:assert.obj
 0001:00052488       ??$tcslen@ABQBD@?$__crt_char_traits@D@@SAIABQBD@Z 10053488 f i libucrt:assert.obj
 0001:000524a6       ??$tcslen@ABQB_W@?$__crt_char_traits@_W@@SAIABQB_W@Z 100534a6 f i libucrt:assert.obj
 0001:000524cb       ??$tcsncat_s@ABQADABIAAPBD$$CBI@?$__crt_char_traits@D@@SAHABQADABIAAPBD$$QBI@Z 100534cb f i libucrt:assert.obj
 0001:000524f6       ??$tcsncat_s@ABQADABIABQBDABI@?$__crt_char_traits@D@@SAHABQADABIABQBD1@Z 100534f6 f i libucrt:assert.obj
 0001:00052521       ??$tcsncat_s@ABQADABIPBD$$CBI@?$__crt_char_traits@D@@SAHABQADABI$$QAPBD$$QBI@Z 10053521 f i libucrt:assert.obj
 0001:0005254c       ??$tcsncat_s@ABQA_WABIAAPB_W$$CBI@?$__crt_char_traits@_W@@SAHABQA_WABIAAPB_W$$QBI@Z 1005354c f i libucrt:assert.obj
 0001:00052577       ??$tcsncat_s@ABQA_WABIABQB_WABI@?$__crt_char_traits@_W@@SAHABQA_WABIABQB_W1@Z 10053577 f i libucrt:assert.obj
 0001:000525a2       ??$tcsncat_s@ABQA_WABIPB_W$$CBI@?$__crt_char_traits@_W@@SAHABQA_WABI$$QAPB_W$$QBI@Z 100535a2 f i libucrt:assert.obj
 0001:00052747       __assert                   10053747 f   libucrt:assert.obj
 0001:000527a1       __invoke_watson_if_error   100537a1 f i libucrt:assert.obj
 0001:000527cb       __vfwprintf_l              100537cb f i libucrt:assert.obj
 0001:000527f9       __vswprintf_c_l            100537f9 f i libucrt:assert.obj
 0001:00052833       __wassert                  10053833 f   libucrt:assert.obj
 0001:0005288d       _fwprintf                  1005388d f i libucrt:assert.obj
 0001:0005294f       _swprintf                  1005394f f i libucrt:assert.obj
 0001:00052974       __errcode                  10053974 f   libucrt:fpexcept.obj
 0001:000529b5       __except1                  100539b5 f   libucrt:fpexcept.obj
 0001:00052ab6       __except2                  10053ab6 f   libucrt:fpexcept.obj
 0001:00052bff       __handle_exc               10053bff f   libucrt:fpexcept.obj
 0001:00052e57       __handle_qnan2             10053e57 f   libucrt:fpexcept.obj
 0001:00052e67       __raise_exc                10053e67 f   libucrt:fpexcept.obj
 0001:00052e92       __raise_exc_ex             10053e92 f   libucrt:fpexcept.obj
 0001:0005323f       __raise_excf               1005423f f   libucrt:fpexcept.obj
 0001:0005326a       __set_errno_from_matherr   1005426a f   libucrt:fpexcept.obj
 0001:000532a4       __umatherr                 100542a4 f   libucrt:fpexcept.obj
 0001:0005336e       __initterm                 1005436e f   libucrt:initterm.obj
 0001:000533e1       __initterm_e               100543e1 f   libucrt:initterm.obj
 0001:00053464       __seh_filter_dll           10054464 f   libucrt:exception_filter.obj
 0001:0005348c       __seh_filter_exe           1005448c f   libucrt:exception_filter.obj
 0001:0005365b       ??$?RE@__crt_internal_free_policy@@QBEXQBE@Z 1005465b f i libucrt:argv_parsing.obj
 0001:00053671       ??$?RPAD@__crt_internal_free_policy@@QBEXQBQAD@Z 10054671 f i libucrt:argv_parsing.obj
 0001:00053687       ??$?RPA_W@__crt_internal_free_policy@@QBEXQBQA_W@Z 10054687 f i libucrt:argv_parsing.obj
 0001:00053970       ??$get_module_file_name@$$TAAY0BAF@DH@?$__crt_char_traits@D@@SAK$$QA$$TAAY0BAF@D$$QAH@Z 10054970 f i libucrt:argv_parsing.obj
 0001:00053990       ??$get_module_file_name@$$TAAY0BAF@_WH@?$__crt_char_traits@_W@@SAK$$QA$$TAAY0BAF@_W$$QAH@Z 10054990 f i libucrt:argv_parsing.obj
 0001:00053d69       ??$set_program_name@PAD@?$__crt_char_traits@D@@SAX$$QAPAD@Z 10054d69 f i libucrt:argv_parsing.obj
 0001:00053d7e       ??$set_program_name@PA_W@?$__crt_char_traits@_W@@SAX$$QAPA_W@Z 10054d7e f i libucrt:argv_parsing.obj
 0001:00053dbb       ??0?$__crt_unique_heap_ptr@EU__crt_internal_free_policy@@@@QAE@QAE@Z 10054dbb f i libucrt:argv_parsing.obj
 0001:00053dcf       ??0?$__crt_unique_heap_ptr@PADU__crt_internal_free_policy@@@@QAE@QAPAD@Z 10054dcf f i libucrt:argv_parsing.obj
 0001:00053de3       ??0?$__crt_unique_heap_ptr@PA_WU__crt_internal_free_policy@@@@QAE@QAPA_W@Z 10054de3 f i libucrt:argv_parsing.obj
 0001:00053df7       ??1?$__crt_unique_heap_ptr@EU__crt_internal_free_policy@@@@QAE@XZ 10054df7 f i libucrt:argv_parsing.obj
 0001:00053e0d       ??1?$__crt_unique_heap_ptr@PADU__crt_internal_free_policy@@@@QAE@XZ 10054e0d f i libucrt:argv_parsing.obj
 0001:00053e23       ??1?$__crt_unique_heap_ptr@PA_WU__crt_internal_free_policy@@@@QAE@XZ 10054e23 f i libucrt:argv_parsing.obj
 0001:00053e39       ??B?$__crt_unique_heap_ptr@EU__crt_internal_free_policy@@@@QBE_NXZ 10054e39 f i libucrt:argv_parsing.obj
 0001:00053e79       ?detach@?$__crt_unique_heap_ptr@EU__crt_internal_free_policy@@@@QAEPAEXZ 10054e79 f i libucrt:argv_parsing.obj
 0001:00053e7f       ?detach@?$__crt_unique_heap_ptr@PADU__crt_internal_free_policy@@@@QAEPAPADXZ 10054e7f f i libucrt:argv_parsing.obj
 0001:00053e85       ?detach@?$__crt_unique_heap_ptr@PA_WU__crt_internal_free_policy@@@@QAEPAPA_WXZ 10054e85 f i libucrt:argv_parsing.obj
 0001:00053eab       ?get@?$__crt_unique_heap_ptr@EU__crt_internal_free_policy@@@@QBEPAEXZ 10054eab f i libucrt:argv_parsing.obj
 0001:00053eae       ?get@?$__crt_unique_heap_ptr@PADU__crt_internal_free_policy@@@@QBEPAPADXZ 10054eae f i libucrt:argv_parsing.obj
 0001:00053eb1       ?get@?$__crt_unique_heap_ptr@PA_WU__crt_internal_free_policy@@@@QBEPAPA_WXZ 10054eb1 f i libucrt:argv_parsing.obj
 0001:00053eb4       ?get_address_of@?$__crt_unique_heap_ptr@PADU__crt_internal_free_policy@@@@QAEPAPAPADXZ 10054eb4 f i libucrt:argv_parsing.obj
 0001:00053eb7       ?get_address_of@?$__crt_unique_heap_ptr@PA_WU__crt_internal_free_policy@@@@QAEPAPAPA_WXZ 10054eb7 f i libucrt:argv_parsing.obj
 0001:00053ed2       ?is_valid@?$__crt_unique_heap_ptr@EU__crt_internal_free_policy@@@@QBE_NXZ 10054ed2 f i libucrt:argv_parsing.obj
 0001:00053edc       ?release@?$__crt_unique_heap_ptr@EU__crt_internal_free_policy@@@@QAEXXZ 10054edc f i libucrt:argv_parsing.obj
 0001:00053ef2       ?release@?$__crt_unique_heap_ptr@PADU__crt_internal_free_policy@@@@QAEXXZ 10054ef2 f i libucrt:argv_parsing.obj
 0001:00053f08       ?release@?$__crt_unique_heap_ptr@PA_WU__crt_internal_free_policy@@@@QAEXXZ 10054f08 f i libucrt:argv_parsing.obj
 0001:00053f3f       ___acrt_allocate_buffer_for_argv 10054f3f f   libucrt:argv_parsing.obj
 0001:00053fa9       __configure_narrow_argv    10054fa9 f   libucrt:argv_parsing.obj
 0001:00053fb6       __configure_wide_argv      10054fb6 f   libucrt:argv_parsing.obj
 0001:00053fc3       __set_pgmptr               10054fc3 f i libucrt:argv_parsing.obj
 0001:00053fd5       __set_wpgmptr              10054fd5 f i libucrt:argv_parsing.obj
 0001:000544af       ??$get_environment_from_os@$$$V@?$__crt_char_traits@D@@SAPADXZ 100554af f i libucrt:environment_initialization.obj
 0001:000544b4       ??$get_environment_from_os@$$$V@?$__crt_char_traits@_W@@SAPA_WXZ 100554b4 f i libucrt:environment_initialization.obj
 0001:000545ee       ??$set_variable_in_environment_nolock@PADH@?$__crt_char_traits@D@@SAH$$QAPAD$$QAH@Z 100555ee f i libucrt:environment_initialization.obj
 0001:0005460c       ??$set_variable_in_environment_nolock@PA_WH@?$__crt_char_traits@_W@@SAH$$QAPA_W$$QAH@Z 1005560c f i libucrt:environment_initialization.obj
 0001:0005462a       ??$tcscpy_s@PADABIAAPAD@?$__crt_char_traits@D@@SAH$$QAPADABIAAPAD@Z 1005562a f i libucrt:environment_initialization.obj
 0001:0005464f       ??$tcscpy_s@PA_WABIAAPA_W@?$__crt_char_traits@_W@@SAH$$QAPA_WABIAAPA_W@Z 1005564f f i libucrt:environment_initialization.obj
 0001:00054674       ??$tcslen@AAPAD@?$__crt_char_traits@D@@SAIAAPAD@Z 10055674 f i libucrt:environment_initialization.obj
 0001:00054692       ??$tcslen@AAPA_W@?$__crt_char_traits@_W@@SAIAAPA_W@Z 10055692 f i libucrt:environment_initialization.obj
 0001:000546b7       ??$uninitialize@A6AXAAPAPAD@Z@?$dual_state_global@PAPAD@__crt_state_management@@QAEXA6AXAAPAPAD@Z@Z 100556b7 f i libucrt:environment_initialization.obj
 0001:00054707       ??$uninitialize@A6AXAAPAPA_W@Z@?$dual_state_global@PAPA_W@__crt_state_management@@QAEXA6AXAAPAPA_W@Z@Z 10055707 f i libucrt:environment_initialization.obj
 0001:00054799       ??B?$__crt_unique_heap_ptr@PADU__crt_internal_free_policy@@@@QBE_NXZ 10055799 f i libucrt:environment_initialization.obj
 0001:000547a3       ??B?$__crt_unique_heap_ptr@PA_WU__crt_internal_free_policy@@@@QBE_NXZ 100557a3 f i libucrt:environment_initialization.obj
 0001:000547ad       ??B?$__crt_unique_heap_ptr@_WU__crt_internal_free_policy@@@@QBE_NXZ 100557ad f i libucrt:environment_initialization.obj
 0001:000547b7       ?__crt_compute_required_transform_buffer_count@@YAIIQBD@Z 100557b7 f i libucrt:environment_initialization.obj
 0001:000547d7       ?__crt_compute_required_transform_buffer_count@@YAIIQB_W@Z 100557d7 f i libucrt:environment_initialization.obj
 0001:000547fa       ?__crt_transform_string@@YAIIQBDQA_WI@Z 100557fa f i libucrt:environment_initialization.obj
 0001:0005481e       ?__crt_transform_string@@YAIIQB_WQADI@Z 1005581e f i libucrt:environment_initialization.obj
 0001:00054846       ?detach@?$__crt_unique_heap_ptr@DU__crt_internal_free_policy@@@@QAEPADXZ 10055846 f i libucrt:environment_initialization.obj
 0001:0005484c       ?detach@?$__crt_unique_heap_ptr@_WU__crt_internal_free_policy@@@@QAEPA_WXZ 1005584c f i libucrt:environment_initialization.obj
 0001:00054852       ?get_current_state_index@__crt_state_management@@YAIXZ 10055852 f i libucrt:environment_initialization.obj
 0001:00054879       ?initialize@?$dual_state_global@PAPAD@__crt_state_management@@QAEXQAPAD@Z 10055879 f i libucrt:environment_initialization.obj
 0001:000548b6       ?initialize@?$dual_state_global@PAPA_W@__crt_state_management@@QAEXQAPA_W@Z 100558b6 f i libucrt:environment_initialization.obj
 0001:000548f3       ?is_valid@?$__crt_unique_heap_ptr@PADU__crt_internal_free_policy@@@@QBE_NXZ 100558f3 f i libucrt:environment_initialization.obj
 0001:000548fd       ?is_valid@?$__crt_unique_heap_ptr@PA_WU__crt_internal_free_policy@@@@QBE_NXZ 100558fd f i libucrt:environment_initialization.obj
 0001:00054907       ?is_valid@?$__crt_unique_heap_ptr@_WU__crt_internal_free_policy@@@@QBE_NXZ 10055907 f i libucrt:environment_initialization.obj
 0001:00054917       ?value@?$dual_state_global@PAPAD@__crt_state_management@@QAEAAPAPADXZ 10055917 f i libucrt:environment_initialization.obj
 0001:0005491a       ?value@?$dual_state_global@PAPA_W@__crt_state_management@@QAEAAPAPA_WXZ 1005591a f i libucrt:environment_initialization.obj
 0001:0005491d       ___dcrt_get_or_create_narrow_environment_nolock 1005591d f   libucrt:environment_initialization.obj
 0001:00054922       ___dcrt_get_or_create_wide_environment_nolock 10055922 f   libucrt:environment_initialization.obj
 0001:00054927       ___dcrt_uninitialize_environments_nolock 10055927 f   libucrt:environment_initialization.obj
 0001:0005496b       ___p__environ              1005596b f   libucrt:environment_initialization.obj
 0001:00054971       ___p__wenviron             10055971 f   libucrt:environment_initialization.obj
 0001:00054977       __get_initial_narrow_environment 10055977 f   libucrt:environment_initialization.obj
 0001:00054990       __get_initial_wide_environment 10055990 f   libucrt:environment_initialization.obj
 0001:000549a9       __initialize_narrow_environment 100559a9 f   libucrt:environment_initialization.obj
 0001:000549ae       __initialize_wide_environment 100559ae f   libucrt:environment_initialization.obj
 0001:000549b3       ??$?BP6AXXZ@__crt_fast_encoded_nullptr_t@@QBEPAP6AXXZXZ 100559b3 f i libucrt:onexit.obj
 0001:000549d1       ??$?RP6AXXZ@__crt_internal_free_policy@@QBEXQBQ6AXXZ@Z 100559d1 f i libucrt:onexit.obj
 0001:000549e7       ??$?RV<lambda_800076c951b434888f4765a74a194fcc>@@AAV<lambda_4e60a939b0d047cfe11ddc22648dfba9>@@V<lambda_6dbb1268764f43b569ce7b67e331d33a>@@@?$__crt_seh_guarded_call@H@@QAEH$$QAV<lambda_800076c951b434888f4765a74a194fcc>@@AAV<lambda_4e60a939b0d047cfe11ddc22648dfba9>@@$$QAV<lambda_6dbb1268764f43b569ce7b67e331d33a>@@@Z 100559e7 f i libucrt:onexit.obj
 0001:00054a4c       ??$?RV<lambda_995298e7d72eb4c2aab26c0585b3abe5>@@AAV<lambda_275893d493268fdec8709772e3fcec0e>@@V<lambda_293819299cbf9a7022e18b56a874bb5c>@@@?$__crt_seh_guarded_call@H@@QAEH$$QAV<lambda_995298e7d72eb4c2aab26c0585b3abe5>@@AAV<lambda_275893d493268fdec8709772e3fcec0e>@@$$QAV<lambda_293819299cbf9a7022e18b56a874bb5c>@@@Z 10055a4c f i libucrt:onexit.obj
 0001:00054ab1       ??$__acrt_lock_and_call@V<lambda_275893d493268fdec8709772e3fcec0e>@@@@YAHW4__acrt_lock_id@@$$QAV<lambda_275893d493268fdec8709772e3fcec0e>@@@Z 10055ab1 f i libucrt:onexit.obj
 0001:00054ae3       ??$__acrt_lock_and_call@V<lambda_4e60a939b0d047cfe11ddc22648dfba9>@@@@YAHW4__acrt_lock_id@@$$QAV<lambda_4e60a939b0d047cfe11ddc22648dfba9>@@@Z 10055ae3 f i libucrt:onexit.obj
 0001:00054b15       ??$__crt_fast_encode_pointer@P6AHXZ@@YAP6AHXZQ6AHXZ@Z 10055b15 f i libucrt:onexit.obj
 0001:00054bc2       ??0?$__crt_unique_heap_ptr@P6AXXZU__crt_internal_free_policy@@@@QAE@QAP6AXXZ@Z 10055bc2 f i libucrt:onexit.obj
 0001:00054bd6       ??1?$__crt_unique_heap_ptr@P6AXXZU__crt_internal_free_policy@@@@QAE@XZ 10055bd6 f i libucrt:onexit.obj
 0001:00054f11       ?detach@?$__crt_unique_heap_ptr@P6AXXZU__crt_internal_free_policy@@@@QAEPAP6AXXZXZ 10055f11 f i libucrt:onexit.obj
 0001:00054f17       ?release@?$__crt_unique_heap_ptr@P6AXXZU__crt_internal_free_policy@@@@QAEXXZ 10055f17 f i libucrt:onexit.obj
 0001:00054f2d       __crt_at_quick_exit        10055f2d f   libucrt:onexit.obj
 0001:00054f48       __crt_atexit               10055f48 f   libucrt:onexit.obj
 0001:00054f63       __execute_onexit_table     10055f63 f   libucrt:onexit.obj
 0001:00054f87       __initialize_onexit_table  10055f87 f   libucrt:onexit.obj
 0001:00054fd3       __register_onexit_function 10055fd3 f   libucrt:onexit.obj
 0001:0005513a       ?initialize@?$dual_state_global@PAU__crt_locale_data@@@__crt_state_management@@QAEXQAU__crt_locale_data@@@Z 1005613a f i libucrt:initialization.obj
 0001:00055177       ___acrt_initialize         10056177 f   libucrt:initialization.obj
 0001:0005518d       ___acrt_thread_attach      1005618d f   libucrt:initialization.obj
 0001:0005519a       ___acrt_thread_detach      1005619a f   libucrt:initialization.obj
 0001:000551a4       ___acrt_uninitialize       100561a4 f   libucrt:initialization.obj
 0001:000551ba       ___acrt_uninitialize_critical 100561ba f   libucrt:initialization.obj
 0001:000551eb       __get_terminate            100561eb f   libucrt:terminate.obj
 0001:00055201       _set_terminate             10056201 f   libucrt:terminate.obj
 0001:00055229       _terminate                 10056229 f   libucrt:terminate.obj
 0001:00055274       ??$__crt_interlocked_exchange_pointer@X$$T@@YAPAXPDSAX$$T@Z 10056274 f i libucrt:free_base.obj
 0001:0005528c       ___acrt_get_msvcrt_heap_handle 1005628c f   libucrt:free_base.obj
 0001:0005531d       __free_base                1005631d f   libucrt:free_base.obj
 0001:00055365       __malloc_base              10056365 f   libucrt:malloc_base.obj
 0001:00055436       _strcpy_s                  10056436 f   libucrt:strcpy_s.obj
 0001:000554a6       __set_abort_behavior       100564a6 f   libucrt:abort.obj
 0001:000554cf       _abort                     100564cf f   libucrt:abort.obj
 0001:00055522       __calloc_base              10056522 f   libucrt:calloc_base.obj
 0001:00055596       ??$is_overflow_condition@K@__crt_strtox@@YA_NIK@Z 10056596 f i libucrt:atox.obj
 0001:000555d5       ??$is_overflow_condition@_K@__crt_strtox@@YA_NI_K@Z 100565d5 f i libucrt:atox.obj
 0001:00055628       ??$make_c_string_character_source@D$$T@__crt_strtox@@YA?AV?$c_string_character_source@D@0@QBD$$T@Z 10056628 f i libucrt:atox.obj
 0001:00055649       ??$make_c_string_character_source@_W$$T@__crt_strtox@@YA?AV?$c_string_character_source@_W@0@QB_W$$T@Z 10056649 f i libucrt:atox.obj
 0001:0005566a       ??$parse_integer@KV?$c_string_character_source@D@__crt_strtox@@@__crt_strtox@@YAKQAU__crt_locale_pointers@@V?$c_string_character_source@D@0@H_N@Z 1005666a f i libucrt:atox.obj
 0001:0005591c       ??$parse_integer@KV?$c_string_character_source@_W@__crt_strtox@@@__crt_strtox@@YAKQAU__crt_locale_pointers@@V?$c_string_character_source@_W@0@H_N@Z 1005691c f i libucrt:atox.obj
 0001:000561ba       ??$parse_integer@_KV?$c_string_character_source@D@__crt_strtox@@@__crt_strtox@@YA_KQAU__crt_locale_pointers@@V?$c_string_character_source@D@0@H_N@Z 100571ba f i libucrt:atox.obj
 0001:00056509       ??$parse_integer@_KV?$c_string_character_source@_W@__crt_strtox@@@__crt_strtox@@YA_KQAU__crt_locale_pointers@@V?$c_string_character_source@_W@0@H_N@Z 10057509 f i libucrt:atox.obj
 0001:00056c7b       ??$parse_integer_from_string@JD$$T@__crt_strtox@@YAJQBD$$THQAU__crt_locale_pointers@@@Z 10057c7b f i libucrt:atox.obj
 0001:00056cb3       ??$parse_integer_from_string@J_W$$T@__crt_strtox@@YAJQB_W$$THQAU__crt_locale_pointers@@@Z 10057cb3 f i libucrt:atox.obj
 0001:00056ceb       ??$parse_integer_from_string@_JD$$T@__crt_strtox@@YA_JQBD$$THQAU__crt_locale_pointers@@@Z 10057ceb f i libucrt:atox.obj
 0001:00056d23       ??$parse_integer_from_string@_J_W$$T@__crt_strtox@@YA_JQB_W$$THQAU__crt_locale_pointers@@@Z 10057d23 f i libucrt:atox.obj
 0001:00056d5b       ??0?$c_string_character_source@D@__crt_strtox@@QAE@QBDQAPBD@Z 10057d5b f i libucrt:atox.obj
 0001:00056d7e       ??0?$c_string_character_source@_W@__crt_strtox@@QAE@QB_WQAPB_W@Z 10057d7e f i libucrt:atox.obj
 0001:00056da1       ??1?$c_string_character_source@D@__crt_strtox@@QAE@XZ 10057da1 f i libucrt:atox.obj
 0001:00056db0       ??1?$c_string_character_source@_W@__crt_strtox@@QAE@XZ 10057db0 f i libucrt:atox.obj
 0001:00056dbf       ?get@?$c_string_character_source@D@__crt_strtox@@QAEDXZ 10057dbf f i libucrt:atox.obj
 0001:00056dc9       ?get@?$c_string_character_source@_W@__crt_strtox@@QAE_WXZ 10057dc9 f i libucrt:atox.obj
 0001:00056dd6       ?is_space@__crt_strtox@@YA_NDQAU__crt_locale_pointers@@@Z 10057dd6 f i libucrt:atox.obj
 0001:00056dfc       ?is_space@__crt_strtox@@YA_N_WPAU__crt_locale_pointers@@@Z 10057dfc f i libucrt:atox.obj
 0001:00056e1b       ?maximum_signed_value@__crt_strtox@@YAJK@Z 10057e1b f i libucrt:atox.obj
 0001:00056e21       ?maximum_signed_value@__crt_strtox@@YA_J_K@Z 10057e21 f i libucrt:atox.obj
 0001:00056e2c       ?minimum_signed_value@__crt_strtox@@YAJK@Z 10057e2c f i libucrt:atox.obj
 0001:00056e32       ?minimum_signed_value@__crt_strtox@@YA_J_K@Z 10057e32 f i libucrt:atox.obj
 0001:00056e3c       ?parse_digit@__crt_strtox@@YAID@Z 10057e3c f i libucrt:atox.obj
 0001:00056e84       ?parse_digit@__crt_strtox@@YAI_W@Z 10057e84 f i libucrt:atox.obj
 0001:000570e1       ?restore_state@?$c_string_character_source@D@__crt_strtox@@QAE_NQBD@Z 100580e1 f i libucrt:atox.obj
 0001:000570f5       ?restore_state@?$c_string_character_source@_W@__crt_strtox@@QAE_NQB_W@Z 100580f5 f i libucrt:atox.obj
 0001:00057109       ?save_state@?$c_string_character_source@D@__crt_strtox@@QBEPBDXZ 10058109 f i libucrt:atox.obj
 0001:0005710c       ?save_state@?$c_string_character_source@_W@__crt_strtox@@QBEPB_WXZ 1005810c f i libucrt:atox.obj
 0001:0005710f       ?unget@?$c_string_character_source@D@__crt_strtox@@QAEXD@Z 1005810f f i libucrt:atox.obj
 0001:00057141       ?unget@?$c_string_character_source@_W@__crt_strtox@@QAEX_W@Z 10058141 f i libucrt:atox.obj
 0001:00057178       ?validate@?$c_string_character_source@D@__crt_strtox@@QBE_NXZ 10058178 f i libucrt:atox.obj
 0001:00057199       ?validate@?$c_string_character_source@_W@__crt_strtox@@QBE_NXZ 10058199 f i libucrt:atox.obj
 0001:000571ba       ?wide_character_to_digit@__crt_strtox@@YAH_W@Z 100581ba f i libucrt:atox.obj
 0001:000573c3       ___acrt_get_locale_data_prefix 100583c3 f i libucrt:atox.obj
 0001:000573d2       __atoi64                   100583d2 f   libucrt:atox.obj
 0001:00057406       __atoi64_l                 10058406 f   libucrt:atox.obj
 0001:0005743b       __atoi_l                   1005843b f   libucrt:atox.obj
 0001:00057470       __atol_l                   10058470 f   libucrt:atox.obj
 0001:000574a5       __atoll_l                  100584a5 f   libucrt:atox.obj
 0001:000574da       __chvalidchk_l             100584da f i libucrt:atox.obj
 0001:0005750e       __ischartype_l             1005850e f i libucrt:atox.obj
 0001:0005754d       __wtoi                     1005854d f   libucrt:atox.obj
 0001:00057581       __wtoi64                   10058581 f   libucrt:atox.obj
 0001:000575b5       __wtoi64_l                 100585b5 f   libucrt:atox.obj
 0001:000575ea       __wtoi_l                   100585ea f   libucrt:atox.obj
 0001:0005761f       __wtol                     1005861f f   libucrt:atox.obj
 0001:00057653       __wtol_l                   10058653 f   libucrt:atox.obj
 0001:00057688       __wtoll                    10058688 f   libucrt:atox.obj
 0001:000576bc       __wtoll_l                  100586bc f   libucrt:atox.obj
 0001:000576f1       _atoi                      100586f1 f   libucrt:atox.obj
 0001:00057725       _atol                      10058725 f   libucrt:atox.obj
 0001:00057759       _atoll                     10058759 f   libucrt:atox.obj
 0001:0005778d       ??$__crt_fast_decode_pointer@P6AXPB_W00II@Z@@YAP6AXPB_W00II@ZQ6AX000II@Z@Z 1005878d f i libucrt:invalid_parameter.obj
 0001:000577a8       ??$__crt_fast_encode_pointer@P6AXPB_W00II@Z@@YAP6AXPB_W00II@ZQ6AX000II@Z@Z 100587a8 f i libucrt:invalid_parameter.obj
 0001:000577ce       ?initialize@?$dual_state_global@P6AXPB_W00II@Z@__crt_state_management@@QAEXQ6AXPB_W00II@Z@Z 100587ce f i libucrt:invalid_parameter.obj
 0001:0005780b       ?value@?$dual_state_global@P6AXPB_W00II@Z@__crt_state_management@@QAEAAP6AXPB_W00II@ZXZ 1005880b f i libucrt:invalid_parameter.obj
 0001:0005780e       ___acrt_call_reportfault   1005880e f   libucrt:invalid_parameter.obj
 0001:00057997       ___acrt_initialize_invalid_parameter_handler 10058997 f   libucrt:invalid_parameter.obj
 0001:000579b0       __get_invalid_parameter_handler 100589b0 f   libucrt:invalid_parameter.obj
 0001:000579c7       __get_thread_local_invalid_parameter_handler 100589c7 f   libucrt:invalid_parameter.obj
 0001:000579dc       __invalid_parameter        100589dc f   libucrt:invalid_parameter.obj
 0001:00057a75       __invalid_parameter_noinfo 10058a75 f   libucrt:invalid_parameter.obj
 0001:00057a89       __invalid_parameter_noinfo_noreturn 10058a89 f   libucrt:invalid_parameter.obj
 0001:00057aad       __invoke_watson            10058aad f   libucrt:invalid_parameter.obj
 0001:00057aec       __set_invalid_parameter_handler 10058aec f   libucrt:invalid_parameter.obj
 0001:00057b28       __set_thread_local_invalid_parameter_handler 10058b28 f   libucrt:invalid_parameter.obj
 0001:00057b4c       ___acrt_errno_from_os_error 10058b4c f   libucrt:errno.obj
 0001:00057b9f       ___acrt_errno_map_os_error 10058b9f f   libucrt:errno.obj
 0001:00057bca       ___doserrno                10058bca f   libucrt:errno.obj
 0001:00057be1       __errno                    10058be1 f   libucrt:errno.obj
 0001:00057bf8       __get_doserrno             10058bf8 f   libucrt:errno.obj
 0001:00057c26       __get_errno                10058c26 f   libucrt:errno.obj
 0001:00057c54       __set_doserrno             10058c54 f   libucrt:errno.obj
 0001:00057c7d       __set_errno                10058c7d f   libucrt:errno.obj
 0001:00057cfd       ??$?B$$A6GHPA_WKJ@Z@__crt_fast_encoded_nullptr_t@@QBEP6GHPA_WKJ@ZXZ 10058cfd f i libucrt:winapi_thunks.obj
 0001:00057d1b       ??$?RV<lambda_9227be29367c048ad7fd93a717dcb1a1>@@AAV<lambda_a463b7b0560cfcaf9b17f27c6ef46564>@@V<lambda_ccea11b5727ccf69be64f5f5d9a08d9f>@@@?$__crt_seh_guarded_call@H@@QAEH$$QAV<lambda_9227be29367c048ad7fd93a717dcb1a1>@@AAV<lambda_a463b7b0560cfcaf9b17f27c6ef46564>@@$$QAV<lambda_ccea11b5727ccf69be64f5f5d9a08d9f>@@@Z 10058d1b f i libucrt:winapi_thunks.obj
 0001:00057dc0       ??$__acrt_lock_and_call@V<lambda_a463b7b0560cfcaf9b17f27c6ef46564>@@@@YAHW4__acrt_lock_id@@$$QAV<lambda_a463b7b0560cfcaf9b17f27c6ef46564>@@@Z 10058dc0 f i libucrt:winapi_thunks.obj
 0001:00057df2       ??$__crt_fast_decode_pointer@P6GHPA_WKJ@Z@@YAP6GHPA_WKJ@ZQ6GH0KJ@Z@Z 10058df2 f i libucrt:winapi_thunks.obj
 0001:00057e0d       ??$__crt_fast_encode_pointer@P6GHPA_WKJ@Z@@YAP6GHPA_WKJ@ZQ6GH0KJ@Z@Z 10058e0d f i libucrt:winapi_thunks.obj
 0001:0005853a       ___acrt_AreFileApisANSI@0  1005953a f   libucrt:winapi_thunks.obj
 0001:0005859b       ___acrt_CompareStringEx@36 1005959b f   libucrt:winapi_thunks.obj
 0001:0005862c       ___acrt_EnumSystemLocalesEx@16 1005962c f   libucrt:winapi_thunks.obj
 0001:000586b4       ___acrt_FlsAlloc@4         100596b4 f   libucrt:winapi_thunks.obj
 0001:0005871f       ___acrt_FlsFree@4          1005971f f   libucrt:winapi_thunks.obj
 0001:0005878a       ___acrt_FlsGetValue@4      1005978a f   libucrt:winapi_thunks.obj
 0001:000587f5       ___acrt_FlsSetValue@8      100597f5 f   libucrt:winapi_thunks.obj
 0001:00058864       ___acrt_GetDateFormatEx@28 10059864 f   libucrt:winapi_thunks.obj
 0001:00058906       ___acrt_GetEnabledXStateFeatures@0 10059906 f   libucrt:winapi_thunks.obj
 0001:00058968       ___acrt_GetFileInformationByHandleEx@16 10059968 f   libucrt:winapi_thunks.obj
 0001:000589e3       ___acrt_GetLocaleInfoEx@16 100599e3 f   libucrt:winapi_thunks.obj
 0001:00058a67       ___acrt_GetSystemTimePreciseAsFileTime@4 10059a67 f   libucrt:winapi_thunks.obj
 0001:00058ad2       ___acrt_GetTimeFormatEx@24 10059ad2 f   libucrt:winapi_thunks.obj
 0001:00058b5e       ___acrt_GetUserDefaultLocaleName@8 10059b5e f   libucrt:winapi_thunks.obj
 0001:00058bde       ___acrt_GetXStateFeaturesMask@8 10059bde f   libucrt:winapi_thunks.obj
 0001:00058c4a       ___acrt_InitializeCriticalSectionEx@12 10059c4a f   libucrt:winapi_thunks.obj
 0001:00058cc4       ___acrt_IsValidLocaleName@4 10059cc4 f   libucrt:winapi_thunks.obj
 0001:00058d3f       ___acrt_LCIDToLocaleName@16 10059d3f f   libucrt:winapi_thunks.obj
 0001:00058dc3       ___acrt_LCMapStringEx@36   10059dc3 f   libucrt:winapi_thunks.obj
 0001:00058e6d       ___acrt_LocaleNameToLCID@8 10059e6d f   libucrt:winapi_thunks.obj
 0001:00058ee0       ___acrt_LocateXStateFeature@12 10059ee0 f   libucrt:winapi_thunks.obj
 0001:00058f37       ___acrt_MessageBoxA@16     10059f37 f   libucrt:winapi_thunks.obj
 0001:00058f92       ___acrt_MessageBoxW@16     10059f92 f   libucrt:winapi_thunks.obj
 0001:00058fed       ___acrt_RoInitialize@4     10059fed f   libucrt:winapi_thunks.obj
 0001:00059053       ___acrt_RoUninitialize@0   1005a053 f   libucrt:winapi_thunks.obj
 0001:000590ae       ___acrt_RtlGenRandom@8     1005a0ae f   libucrt:winapi_thunks.obj
 0001:0005911a       ___acrt_SetThreadStackGuarantee@4 1005a11a f   libucrt:winapi_thunks.obj
 0001:00059180       ___acrt_can_show_message_box 1005a180 f   libucrt:winapi_thunks.obj
 0001:0005919f       ___acrt_can_use_vista_locale_apis 1005a19f f   libucrt:winapi_thunks.obj
 0001:000591ae       ___acrt_can_use_xstate_apis 1005a1ae f   libucrt:winapi_thunks.obj
 0001:000591bd       ___acrt_get_parent_window  1005a1bd f   libucrt:winapi_thunks.obj
 0001:0005925b       ___acrt_initialize_winapi_thunks 1005a25b f   libucrt:winapi_thunks.obj
 0001:0005928a       ___acrt_is_interactive     1005a28a f   libucrt:winapi_thunks.obj
 0001:00059359       ___acrt_is_packaged_app    1005a359 f   libucrt:winapi_thunks.obj
 0001:00059401       ___acrt_uninitialize_winapi_thunks 1005a401 f   libucrt:winapi_thunks.obj
 0001:00059444       ??0__crt_stdio_stream@@QAE@QAU__crt_stdio_stream_data@@@Z 1005a444 f i libucrt:closeall.obj
 0001:00059458       __fcloseall                1005a458 f   libucrt:closeall.obj
 0001:00059520       ___acrt_stdio_flush_nolock 1005a520 f   libucrt:fflush.obj
 0001:0005959f       __fflush_nolock            1005a59f f   libucrt:fflush.obj
 0001:000595f7       __flushall                 1005a5f7 f   libucrt:fflush.obj
 0001:00059710       _fflush                    1005a710 f   libucrt:fflush.obj
 0001:0005977f       ?has_crt_buffer@__crt_stdio_stream@@QBE_NXZ 1005a77f f i libucrt:_freebuf.obj
 0001:0005978e       ___acrt_stdio_free_buffer_nolock 1005a78e f   libucrt:_freebuf.obj
 0001:000599cb       ___acrt_initialize_lowio   1005a9cb f   libucrt:ioinit.obj
 0001:00059a36       ___acrt_uninitialize_lowio 1005aa36 f   libucrt:ioinit.obj
 0001:00059a88       ___isascii                 1005aa88 f i libucrt:_ctype.obj
 0001:00059a9e       ___iscsym                  1005aa9e f i libucrt:_ctype.obj
 0001:00059ac8       ___iscsymf                 1005aac8 f i libucrt:_ctype.obj
 0001:00059aee       ___toascii                 1005aaee f i libucrt:_ctype.obj
 0001:00059afe       __isalnum_l                1005aafe f i libucrt:_ctype.obj
 0001:00059b47       __isalpha_l                1005ab47 f i libucrt:_ctype.obj
 0001:00059b90       __isblank_l                1005ab90 f i libucrt:_ctype.obj
 0001:00059be3       __iscntrl_l                1005abe3 f i libucrt:_ctype.obj
 0001:00059c29       __iscsym_l                 1005ac29 f i libucrt:_ctype.obj
 0001:00059c54       __iscsymf_l                1005ac54 f i libucrt:_ctype.obj
 0001:00059c7f       __isdigit_l                1005ac7f f i libucrt:_ctype.obj
 0001:00059cc5       __isgraph_l                1005acc5 f i libucrt:_ctype.obj
 0001:00059d0e       __islower_l                1005ad0e f i libucrt:_ctype.obj
 0001:00059d54       __isprint_l                1005ad54 f i libucrt:_ctype.obj
 0001:00059d9d       __ispunct_l                1005ad9d f i libucrt:_ctype.obj
 0001:00059de3       __isspace_l                1005ade3 f i libucrt:_ctype.obj
 0001:00059e29       __isupper_l                1005ae29 f i libucrt:_ctype.obj
 0001:00059e6f       __isxdigit_l               1005ae6f f i libucrt:_ctype.obj
 0001:00059eb8       _isalnum                   1005aeb8 f i libucrt:_ctype.obj
 0001:00059ef2       _isalpha                   1005aef2 f i libucrt:_ctype.obj
 0001:00059f2c       _isblank                   1005af2c f i libucrt:_ctype.obj
 0001:00059f70       _iscntrl                   1005af70 f i libucrt:_ctype.obj
 0001:00059fa8       _isdigit                   1005afa8 f i libucrt:_ctype.obj
 0001:00059fe0       _isgraph                   1005afe0 f i libucrt:_ctype.obj
 0001:0005a01a       _islower                   1005b01a f i libucrt:_ctype.obj
 0001:0005a052       _isprint                   1005b052 f i libucrt:_ctype.obj
 0001:0005a08c       _ispunct                   1005b08c f i libucrt:_ctype.obj
 0001:0005a0c4       _isspace                   1005b0c4 f i libucrt:_ctype.obj
 0001:0005a0fc       _isupper                   1005b0fc f i libucrt:_ctype.obj
 0001:0005a134       _isxdigit                  1005b134 f i libucrt:_ctype.obj
 0001:0005a52c       __tolower                  1005b52c f   libucrt:tolower_toupper.obj
 0001:0005a53c       __tolower_l                1005b53c f   libucrt:tolower_toupper.obj
 0001:0005a55c       __toupper                  1005b55c f   libucrt:tolower_toupper.obj
 0001:0005a56c       __toupper_l                1005b56c f   libucrt:tolower_toupper.obj
 0001:0005a58c       _tolower                   1005b58c f   libucrt:tolower_toupper.obj
 0001:0005a5c8       _toupper                   1005b5c8 f   libucrt:tolower_toupper.obj
 0001:0005a604       ??$make_c_string_character_source@DPAPAD@__crt_strtox@@YA?AV?$c_string_character_source@D@0@QBDQAPAD@Z 1005b604 f i libucrt:strtox.obj
 0001:0005a625       ??$make_c_string_character_source@_WPAPA_W@__crt_strtox@@YA?AV?$c_string_character_source@_W@0@QB_WQAPA_W@Z 1005b625 f i libucrt:strtox.obj
 0001:0005a646       ??$parse_integer_from_string@JDPAPAD@__crt_strtox@@YAJQBDQAPADHQAU__crt_locale_pointers@@@Z 1005b646 f i libucrt:strtox.obj
 0001:0005a67e       ??$parse_integer_from_string@J_WPAPA_W@__crt_strtox@@YAJQB_WQAPA_WHQAU__crt_locale_pointers@@@Z 1005b67e f i libucrt:strtox.obj
 0001:0005a6b6       ??$parse_integer_from_string@KDPAPAD@__crt_strtox@@YAKQBDQAPADHQAU__crt_locale_pointers@@@Z 1005b6b6 f i libucrt:strtox.obj
 0001:0005a6ee       ??$parse_integer_from_string@K_WPAPA_W@__crt_strtox@@YAKQB_WQAPA_WHQAU__crt_locale_pointers@@@Z 1005b6ee f i libucrt:strtox.obj
 0001:0005a726       ??$parse_integer_from_string@_JDPAPAD@__crt_strtox@@YA_JQBDQAPADHQAU__crt_locale_pointers@@@Z 1005b726 f i libucrt:strtox.obj
 0001:0005a75e       ??$parse_integer_from_string@_J_WPAPA_W@__crt_strtox@@YA_JQB_WQAPA_WHQAU__crt_locale_pointers@@@Z 1005b75e f i libucrt:strtox.obj
 0001:0005a796       ??$parse_integer_from_string@_KDPAPAD@__crt_strtox@@YA_KQBDQAPADHQAU__crt_locale_pointers@@@Z 1005b796 f i libucrt:strtox.obj
 0001:0005a7ce       ??$parse_integer_from_string@_K_WPAPA_W@__crt_strtox@@YA_KQB_WQAPA_WHQAU__crt_locale_pointers@@@Z 1005b7ce f i libucrt:strtox.obj
 0001:0005a806       __strtoi64                 1005b806 f   libucrt:strtox.obj
 0001:0005a83d       __strtoi64_l               1005b83d f   libucrt:strtox.obj
 0001:0005a875       __strtoimax_l              1005b875 f   libucrt:strtox.obj
 0001:0005a8ad       __strtol_l                 1005b8ad f   libucrt:strtox.obj
 0001:0005a8e5       __strtoll_l                1005b8e5 f   libucrt:strtox.obj
 0001:0005a91d       __strtoui64                1005b91d f   libucrt:strtox.obj
 0001:0005a954       __strtoui64_l              1005b954 f   libucrt:strtox.obj
 0001:0005a98c       __strtoul_l                1005b98c f   libucrt:strtox.obj
 0001:0005a9c4       __strtoull_l               1005b9c4 f   libucrt:strtox.obj
 0001:0005a9fc       __strtoumax_l              1005b9fc f   libucrt:strtox.obj
 0001:0005aa34       __wcstoi64                 1005ba34 f   libucrt:strtox.obj
 0001:0005aa6b       __wcstoi64_l               1005ba6b f   libucrt:strtox.obj
 0001:0005aaa3       __wcstoimax_l              1005baa3 f   libucrt:strtox.obj
 0001:0005aadb       __wcstol_l                 1005badb f   libucrt:strtox.obj
 0001:0005ab13       __wcstoll_l                1005bb13 f   libucrt:strtox.obj
 0001:0005ab4b       __wcstoui64                1005bb4b f   libucrt:strtox.obj
 0001:0005ab82       __wcstoui64_l              1005bb82 f   libucrt:strtox.obj
 0001:0005abba       __wcstoul_l                1005bbba f   libucrt:strtox.obj
 0001:0005abf2       __wcstoull_l               1005bbf2 f   libucrt:strtox.obj
 0001:0005ac2a       __wcstoumax_l              1005bc2a f   libucrt:strtox.obj
 0001:0005ac62       _strtoimax                 1005bc62 f   libucrt:strtox.obj
 0001:0005ac99       _strtol                    1005bc99 f   libucrt:strtox.obj
 0001:0005acd0       _strtoll                   1005bcd0 f   libucrt:strtox.obj
 0001:0005ad07       _strtoul                   1005bd07 f   libucrt:strtox.obj
 0001:0005ad3e       _strtoull                  1005bd3e f   libucrt:strtox.obj
 0001:0005ad75       _strtoumax                 1005bd75 f   libucrt:strtox.obj
 0001:0005adac       _wcstoimax                 1005bdac f   libucrt:strtox.obj
 0001:0005ade3       _wcstol                    1005bde3 f   libucrt:strtox.obj
 0001:0005ae1a       _wcstoll                   1005be1a f   libucrt:strtox.obj
 0001:0005ae51       _wcstoul                   1005be51 f   libucrt:strtox.obj
 0001:0005ae88       _wcstoull                  1005be88 f   libucrt:strtox.obj
 0001:0005aebf       _wcstoumax                 1005bebf f   libucrt:strtox.obj
 0001:0005aef6       __mbtowc_l                 1005bef6 f   libucrt:mbtowc.obj
 0001:0005b02e       _mbtowc                    1005c02e f   libucrt:mbtowc.obj
 0001:0005b04e       __wctomb_l                 1005c04e f   libucrt:wctomb.obj
 0001:0005b0b5       __wctomb_s_l               1005c0b5 f   libucrt:wctomb.obj
 0001:0005b21e       _wctomb                    1005c21e f   libucrt:wctomb.obj
 0001:0005b25f       _wctomb_s                  1005c25f f   libucrt:wctomb.obj
 0001:0005b977       ??1?$__crt_simd_cleanup_guard@$00@@QAE@XZ 1005c977 f i libucrt:strnlen.obj
 0001:0005b97b       ??1?$__crt_simd_cleanup_guard@$0A@@@QAE@XZ 1005c97b f i libucrt:strnlen.obj
 0001:0005b97c       ?compare_equals@?$__crt_simd_traits@$00E@@SA?AT__m256i@@T2@0@Z 1005c97c f i libucrt:strnlen.obj
 0001:0005b981       ?compare_equals@?$__crt_simd_traits@$00G@@SA?AT__m256i@@T2@0@Z 1005c981 f i libucrt:strnlen.obj
 0001:0005b986       ?compare_equals@?$__crt_simd_traits@$0A@E@@SA?AT__m128i@@T2@0@Z 1005c986 f i libucrt:strnlen.obj
 0001:0005b98b       ?compare_equals@?$__crt_simd_traits@$0A@G@@SA?AT__m128i@@T2@0@Z 1005c98b f i libucrt:strnlen.obj
 0001:0005b990       ?compute_byte_mask@?$__crt_simd_pack_traits@$00@@SAHT__m256i@@@Z 1005c990 f i libucrt:strnlen.obj
 0001:0005b995       ?compute_byte_mask@?$__crt_simd_pack_traits@$0A@@@SAHT__m128i@@@Z 1005c995 f i libucrt:strnlen.obj
 0001:0005b99a       ?get_zero_pack@?$__crt_simd_pack_traits@$00@@SA?AT__m256i@@XZ 1005c99a f i libucrt:strnlen.obj
 0001:0005b99f       ?get_zero_pack@?$__crt_simd_pack_traits@$0A@@@SA?AT__m128i@@XZ 1005c99f f i libucrt:strnlen.obj
 0001:0005b9a4       _strnlen                   1005c9a4 f   libucrt:strnlen.obj
 0001:0005bb14       _wcsnlen                   1005cb14 f   libucrt:strnlen.obj
 0001:0005bd38       ??$?RU__acrt_ptd@@@__crt_internal_free_policy@@QBEXQBU__acrt_ptd@@@Z 1005cd38 f i libucrt:per_thread_data.obj
 0001:0005bd4e       ??$?RV<lambda_3518db117f0e7cdb002338c5d3c47b6c>@@AAV<lambda_b2ea41f6bbb362cd97d94c6828d90b61>@@V<lambda_abdedf541bb04549bc734292b4a045d4>@@@?$__crt_seh_guarded_call@X@@QAEX$$QAV<lambda_3518db117f0e7cdb002338c5d3c47b6c>@@AAV<lambda_b2ea41f6bbb362cd97d94c6828d90b61>@@$$QAV<lambda_abdedf541bb04549bc734292b4a045d4>@@@Z 1005cd4e f i libucrt:per_thread_data.obj
 0001:0005bdb2       ??$?RV<lambda_51b6e8b1eb166f2a3faf91f424b38130>@@AAV<lambda_6250bd4b2a391816dd638c3bf72b0bcb>@@V<lambda_0b5a4a3e68152e1d9b943535f5f47bed>@@@?$__crt_seh_guarded_call@X@@QAEX$$QAV<lambda_51b6e8b1eb166f2a3faf91f424b38130>@@AAV<lambda_6250bd4b2a391816dd638c3bf72b0bcb>@@$$QAV<lambda_0b5a4a3e68152e1d9b943535f5f47bed>@@@Z 1005cdb2 f i libucrt:per_thread_data.obj
 0001:0005be2b       ??$?RV<lambda_5b71d36f03204c0beab531769a5b5694>@@AAV<lambda_be2b3da3f62db62e9dad5dc70221a656>@@V<lambda_8f9ce462984622f9bf76b59e2aaaf805>@@@?$__crt_seh_guarded_call@X@@QAEX$$QAV<lambda_5b71d36f03204c0beab531769a5b5694>@@AAV<lambda_be2b3da3f62db62e9dad5dc70221a656>@@$$QAV<lambda_8f9ce462984622f9bf76b59e2aaaf805>@@@Z 1005ce2b f i libucrt:per_thread_data.obj
 0001:0005be88       ??$?RV<lambda_9df27f884b057bc3edfc946cb5b7cf47>@@AAV<lambda_e69574bed617af4e071282c136b37893>@@V<lambda_cc0d902bcbbeb830f749456577db4721>@@@?$__crt_seh_guarded_call@X@@QAEX$$QAV<lambda_9df27f884b057bc3edfc946cb5b7cf47>@@AAV<lambda_e69574bed617af4e071282c136b37893>@@$$QAV<lambda_cc0d902bcbbeb830f749456577db4721>@@@Z 1005ce88 f i libucrt:per_thread_data.obj
 0001:0005bee2       ??$__acrt_lock_and_call@V<lambda_6250bd4b2a391816dd638c3bf72b0bcb>@@@@YAXW4__acrt_lock_id@@$$QAV<lambda_6250bd4b2a391816dd638c3bf72b0bcb>@@@Z 1005cee2 f i libucrt:per_thread_data.obj
 0001:0005bf14       ??$__acrt_lock_and_call@V<lambda_b2ea41f6bbb362cd97d94c6828d90b61>@@@@YAXW4__acrt_lock_id@@$$QAV<lambda_b2ea41f6bbb362cd97d94c6828d90b61>@@@Z 1005cf14 f i libucrt:per_thread_data.obj
 0001:0005bf46       ??$__acrt_lock_and_call@V<lambda_be2b3da3f62db62e9dad5dc70221a656>@@@@YAXW4__acrt_lock_id@@$$QAV<lambda_be2b3da3f62db62e9dad5dc70221a656>@@@Z 1005cf46 f i libucrt:per_thread_data.obj
 0001:0005bf78       ??$__acrt_lock_and_call@V<lambda_e69574bed617af4e071282c136b37893>@@@@YAXW4__acrt_lock_id@@$$QAV<lambda_e69574bed617af4e071282c136b37893>@@@Z 1005cf78 f i libucrt:per_thread_data.obj
 0001:0005c0b1       ??0?$__crt_unique_heap_ptr@U__acrt_ptd@@U__crt_internal_free_policy@@@@QAE@QAU__acrt_ptd@@@Z 1005d0b1 f i libucrt:per_thread_data.obj
 0001:0005c0c5       ??0__crt_scoped_get_last_error_reset@@QAE@XZ 1005d0c5 f i libucrt:per_thread_data.obj
 0001:0005c0da       ??1?$__crt_unique_heap_ptr@U__acrt_ptd@@U__crt_internal_free_policy@@@@QAE@XZ 1005d0da f i libucrt:per_thread_data.obj
 0001:0005c0f0       ??1__crt_scoped_get_last_error_reset@@QAE@XZ 1005d0f0 f i libucrt:per_thread_data.obj
 0001:0005c0fb       ??B?$__crt_unique_heap_ptr@U__acrt_ptd@@U__crt_internal_free_policy@@@@QBE_NXZ 1005d0fb f i libucrt:per_thread_data.obj
 0001:0005c271       ?dangerous_get_state_array@?$dual_state_global@PAU__crt_locale_data@@@__crt_state_management@@QAEPAPAU__crt_locale_data@@XZ 1005d271 f i libucrt:per_thread_data.obj
 0001:0005c375       ?detach@?$__crt_unique_heap_ptr@U__acrt_ptd@@U__crt_internal_free_policy@@@@QAEPAU__acrt_ptd@@XZ 1005d375 f i libucrt:per_thread_data.obj
 0001:0005c37b       ?get@?$__crt_unique_heap_ptr@U__acrt_ptd@@U__crt_internal_free_policy@@@@QBEPAU__acrt_ptd@@XZ 1005d37b f i libucrt:per_thread_data.obj
 0001:0005c48a       ?is_valid@?$__crt_unique_heap_ptr@U__acrt_ptd@@U__crt_internal_free_policy@@@@QBE_NXZ 1005d48a f i libucrt:per_thread_data.obj
 0001:0005c494       ?release@?$__crt_unique_heap_ptr@U__acrt_ptd@@U__crt_internal_free_policy@@@@QAEXXZ 1005d494 f i libucrt:per_thread_data.obj
 0001:0005c520       ?value@?$dual_state_global@PAU__crt_locale_data@@@__crt_state_management@@QAEAAPAU__crt_locale_data@@XZ 1005d520 f i libucrt:per_thread_data.obj
 0001:0005c523       ___acrt_freeptd            1005d523 f   libucrt:per_thread_data.obj
 0001:0005c55a       ___acrt_getptd             1005d55a f   libucrt:per_thread_data.obj
 0001:0005c5ff       ___acrt_getptd_noexit      1005d5ff f   libucrt:per_thread_data.obj
 0001:0005c6a5       ___acrt_initialize_ptd     1005d6a5 f   libucrt:per_thread_data.obj
 0001:0005c6dc       ___acrt_uninitialize_ptd   1005d6dc f   libucrt:per_thread_data.obj
 0001:0005c6fc       ___threadhandle            1005d6fc f   libucrt:per_thread_data.obj
 0001:0005c702       ___threadid                1005d702 f   libucrt:per_thread_data.obj
 0001:0005c708       ___acrt_update_locale_info 1005d708 f   libucrt:locale_update.obj
 0001:0005c740       ___acrt_update_multibyte_info 1005d740 f   libucrt:locale_update.obj
 0001:0005c778       ?__acrt_fp_classify@@YA?AW4__acrt_fp_class@@ABN@Z 1005d778 f i libucrt:cvt.obj
 0001:0005c7ff       ?__acrt_fp_is_negative@@YA_NABN@Z 1005d7ff f i libucrt:cvt.obj
 0001:0005d272       ?strrchr@@YAPADQADH@Z      1005e272 f i libucrt:cvt.obj
 0001:0005d27f       ___acrt_fp_format          1005e27f f   libucrt:cvt.obj
 0001:0005d459       __fputwc_nolock            1005e459 f   libucrt:fputwc.obj
 0001:0005d5c8       __fputwchar                1005e5c8 f   libucrt:fputwc.obj
 0001:0005d5e8       __putwc_nolock             1005e5e8 f   libucrt:fputwc.obj
 0001:0005d5f5       _fputwc                    1005e5f5 f   libucrt:fputwc.obj
 0001:0005d68e       _putwc                     1005e68e f   libucrt:fputwc.obj
 0001:0005d69b       _putwchar                  1005e69b f   libucrt:fputwc.obj
 0001:0005d6a8       ?lowio_handle@__crt_stdio_stream@@QBEHXZ 1005e6a8 f i libucrt:fileno.obj
 0001:0005d6ae       __fileno                   1005e6ae f   libucrt:fileno.obj
 0001:0005d6dd       __fputc_nolock             1005e6dd f   libucrt:fputc.obj
 0001:0005d710       __fputchar                 1005e710 f   libucrt:fputc.obj
 0001:0005d730       __putc_nolock              1005e730 f   libucrt:fputc.obj
 0001:0005d73d       _fputc                     1005e73d f   libucrt:fputc.obj
 0001:0005d882       _putc                      1005e882 f   libucrt:fputc.obj
 0001:0005d88f       _putchar                   1005e88f f   libucrt:fputc.obj
 0001:0005d89c       __get_printf_count_output  1005e89c f   libucrt:printf_count_output.obj
 0001:0005d8b6       __set_printf_count_output  1005e8b6 f   libucrt:printf_count_output.obj
 0001:0005d8ea       ?has_temporary_buffer@__crt_stdio_stream@@QBE_NXZ 1005e8ea f i libucrt:_sftbuf.obj
 0001:0005d8f9       ___acrt_stdio_begin_temporary_buffering_nolock 1005e8f9 f   libucrt:_sftbuf.obj
 0001:0005d9db       ___acrt_stdio_end_temporary_buffering_nolock 1005e9db f   libucrt:_sftbuf.obj
 0001:0005da25       ??$?RU__crt_locale_data@@@__crt_internal_free_policy@@QBEXQBU__crt_locale_data@@@Z 1005ea25 f i libucrt:wsetlocale.obj
 0001:0005da3b       ??$?RU__crt_locale_pointers@@@__crt_internal_free_policy@@QBEXQBU__crt_locale_pointers@@@Z 1005ea3b f i libucrt:wsetlocale.obj
 0001:0005da51       ??$?RU__crt_multibyte_data@@@__crt_internal_free_policy@@QBEXQBU__crt_multibyte_data@@@Z 1005ea51 f i libucrt:wsetlocale.obj
 0001:0005da67       ??$?RV<lambda_70818de7b02deff9841e8b0962a60ed9>@@AAV<lambda_2af78c5f5901b1372d98f9ab3177dfa6>@@AAV<lambda_f51fe5fd7c79a33db34fc9310f277369>@@@?$__crt_seh_guarded_call@X@@QAEX$$QAV<lambda_70818de7b02deff9841e8b0962a60ed9>@@AAV<lambda_2af78c5f5901b1372d98f9ab3177dfa6>@@AAV<lambda_f51fe5fd7c79a33db34fc9310f277369>@@@Z 1005ea67 f i libucrt:wsetlocale.obj
 0001:0005dab0       ??$?RV<lambda_76aaead6e312921abc834cb00a638bdd>@@AAV<lambda_176e34f99554166dd2fac165c457248c>@@V<lambda_998ee1c9f4290b119b936bcd6215875a>@@@?$__crt_seh_guarded_call@X@@QAEX$$QAV<lambda_76aaead6e312921abc834cb00a638bdd>@@AAV<lambda_176e34f99554166dd2fac165c457248c>@@$$QAV<lambda_998ee1c9f4290b119b936bcd6215875a>@@@Z 1005eab0 f i libucrt:wsetlocale.obj
 0001:0005db0c       ??$?RV<lambda_c76fdea48760d5f9368b465f31df4405>@@AAV<lambda_e378711a6f6581bf7f0efd7cdf97f5d9>@@V<lambda_e927a58b2a85c081d733e8c6192ae2d2>@@@?$__crt_seh_guarded_call@X@@QAEX$$QAV<lambda_c76fdea48760d5f9368b465f31df4405>@@AAV<lambda_e378711a6f6581bf7f0efd7cdf97f5d9>@@$$QAV<lambda_e927a58b2a85c081d733e8c6192ae2d2>@@@Z 1005eb0c f i libucrt:wsetlocale.obj
 0001:0005db5f       ??$?RV<lambda_c9469061b39d205f0f236529d4a41659>@@AAV<lambda_b7fb1a997d3ebc0cc0186c5835178808>@@V<lambda_14b92c79d699846b5cc916cd4cf280e4>@@@?$__crt_seh_guarded_call@X@@QAEX$$QAV<lambda_c9469061b39d205f0f236529d4a41659>@@AAV<lambda_b7fb1a997d3ebc0cc0186c5835178808>@@$$QAV<lambda_14b92c79d699846b5cc916cd4cf280e4>@@@Z 1005eb5f f i libucrt:wsetlocale.obj
 0001:0005dbb9       ??$__acrt_lock_and_call@V<lambda_176e34f99554166dd2fac165c457248c>@@@@YAXW4__acrt_lock_id@@$$QAV<lambda_176e34f99554166dd2fac165c457248c>@@@Z 1005ebb9 f i libucrt:wsetlocale.obj
 0001:0005dbeb       ??$__acrt_lock_and_call@V<lambda_b7fb1a997d3ebc0cc0186c5835178808>@@@@YAXW4__acrt_lock_id@@$$QAV<lambda_b7fb1a997d3ebc0cc0186c5835178808>@@@Z 1005ebeb f i libucrt:wsetlocale.obj
 0001:0005dc1d       ??$__acrt_lock_and_call@V<lambda_e378711a6f6581bf7f0efd7cdf97f5d9>@@@@YAXW4__acrt_lock_id@@$$QAV<lambda_e378711a6f6581bf7f0efd7cdf97f5d9>@@@Z 1005ec1d f i libucrt:wsetlocale.obj
 0001:0005dc4f       ??$__crt_call_and_cleanup@V<lambda_2af78c5f5901b1372d98f9ab3177dfa6>@@V<lambda_f51fe5fd7c79a33db34fc9310f277369>@@@@YAX$$QAV<lambda_2af78c5f5901b1372d98f9ab3177dfa6>@@$$QAV<lambda_f51fe5fd7c79a33db34fc9310f277369>@@@Z 1005ec4f f i libucrt:wsetlocale.obj
 0001:0005dc72       ??$__vcrt_va_start_verify_argument_type@H@@YAXXZ 1005ec72 f i libucrt:wsetlocale.obj
 0001:0005dd97       ??0?$__crt_unique_heap_ptr@U__crt_locale_data@@U__crt_internal_free_policy@@@@QAE@QAU__crt_locale_data@@@Z 1005ed97 f i libucrt:wsetlocale.obj
 0001:0005ddab       ??0?$__crt_unique_heap_ptr@U__crt_locale_pointers@@U__crt_internal_free_policy@@@@QAE@QAU__crt_locale_pointers@@@Z 1005edab f i libucrt:wsetlocale.obj
 0001:0005ddbf       ??0?$__crt_unique_heap_ptr@U__crt_multibyte_data@@U__crt_internal_free_policy@@@@QAE@QAU__crt_multibyte_data@@@Z 1005edbf f i libucrt:wsetlocale.obj
 0001:0005ddd3       ??1?$__crt_unique_heap_ptr@U__crt_locale_data@@U__crt_internal_free_policy@@@@QAE@XZ 1005edd3 f i libucrt:wsetlocale.obj
 0001:0005dde9       ??1?$__crt_unique_heap_ptr@U__crt_locale_pointers@@U__crt_internal_free_policy@@@@QAE@XZ 1005ede9 f i libucrt:wsetlocale.obj
 0001:0005ddff       ??1?$__crt_unique_heap_ptr@U__crt_multibyte_data@@U__crt_internal_free_policy@@@@QAE@XZ 1005edff f i libucrt:wsetlocale.obj
 0001:0005de15       ??B?$__crt_unique_heap_ptr@U__crt_locale_data@@U__crt_internal_free_policy@@@@QBE_NXZ 1005ee15 f i libucrt:wsetlocale.obj
 0001:0005de1f       ??B?$__crt_unique_heap_ptr@U__crt_locale_pointers@@U__crt_internal_free_policy@@@@QBE_NXZ 1005ee1f f i libucrt:wsetlocale.obj
 0001:0005de29       ??B?$__crt_unique_heap_ptr@U__crt_multibyte_data@@U__crt_internal_free_policy@@@@QBE_NXZ 1005ee29 f i libucrt:wsetlocale.obj
 0001:0005e052       ?detach@?$__crt_unique_heap_ptr@U__crt_locale_data@@U__crt_internal_free_policy@@@@QAEPAU__crt_locale_data@@XZ 1005f052 f i libucrt:wsetlocale.obj
 0001:0005e058       ?detach@?$__crt_unique_heap_ptr@U__crt_locale_pointers@@U__crt_internal_free_policy@@@@QAEPAU__crt_locale_pointers@@XZ 1005f058 f i libucrt:wsetlocale.obj
 0001:0005e05e       ?detach@?$__crt_unique_heap_ptr@U__crt_multibyte_data@@U__crt_internal_free_policy@@@@QAEPAU__crt_multibyte_data@@XZ 1005f05e f i libucrt:wsetlocale.obj
 0001:0005e064       ?get@?$__crt_unique_heap_ptr@U__crt_locale_data@@U__crt_internal_free_policy@@@@QBEPAU__crt_locale_data@@XZ 1005f064 f i libucrt:wsetlocale.obj
 0001:0005e067       ?get@?$__crt_unique_heap_ptr@U__crt_locale_pointers@@U__crt_internal_free_policy@@@@QBEPAU__crt_locale_pointers@@XZ 1005f067 f i libucrt:wsetlocale.obj
 0001:0005e06a       ?get@?$__crt_unique_heap_ptr@U__crt_multibyte_data@@U__crt_internal_free_policy@@@@QBEPAU__crt_multibyte_data@@XZ 1005f06a f i libucrt:wsetlocale.obj
 0001:0005e06d       ?is_valid@?$__crt_unique_heap_ptr@U__crt_locale_data@@U__crt_internal_free_policy@@@@QBE_NXZ 1005f06d f i libucrt:wsetlocale.obj
 0001:0005e077       ?is_valid@?$__crt_unique_heap_ptr@U__crt_locale_pointers@@U__crt_internal_free_policy@@@@QBE_NXZ 1005f077 f i libucrt:wsetlocale.obj
 0001:0005e081       ?is_valid@?$__crt_unique_heap_ptr@U__crt_multibyte_data@@U__crt_internal_free_policy@@@@QBE_NXZ 1005f081 f i libucrt:wsetlocale.obj
 0001:0005e08b       ?release@?$__crt_unique_heap_ptr@U__crt_locale_data@@U__crt_internal_free_policy@@@@QAEXXZ 1005f08b f i libucrt:wsetlocale.obj
 0001:0005e0a1       ?release@?$__crt_unique_heap_ptr@U__crt_locale_pointers@@U__crt_internal_free_policy@@@@QAEXXZ 1005f0a1 f i libucrt:wsetlocale.obj
 0001:0005e0b7       ?release@?$__crt_unique_heap_ptr@U__crt_multibyte_data@@U__crt_internal_free_policy@@@@QAEXXZ 1005f0b7 f i libucrt:wsetlocale.obj
 0001:0005e0cd       ___acrt_copy_locale_name   1005f0cd f   libucrt:wsetlocale.obj
 0001:0005e14c       ___acrt_set_locale_changed 1005f14c f   libucrt:wsetlocale.obj
 0001:0005e159       ___acrt_uninitialize_locale 1005f159 f   libucrt:wsetlocale.obj
 0001:0005e1bf       ___lc_lctowcs              1005f1bf f   libucrt:wsetlocale.obj
 0001:0005e24b       ___lc_wcstolc              1005f24b f   libucrt:wsetlocale.obj
 0001:0005e3c5       __configthreadlocale       1005f3c5 f   libucrt:wsetlocale.obj
 0001:0005e479       __create_locale            1005f479 f   libucrt:wsetlocale.obj
 0001:0005e4f6       __expandlocale             1005f4f6 f   libucrt:wsetlocale.obj
 0001:0005e94a       __free_locale              1005f94a f   libucrt:wsetlocale.obj
 0001:0005ea30       __get_current_locale       1005fa30 f   libucrt:wsetlocale.obj
 0001:0005eac9       __wcreate_locale           1005fac9 f   libucrt:wsetlocale.obj
 0001:0005ec14       __wcscats                  1005fc14 f   libucrt:wsetlocale.obj
 0001:0005ec65       __wsetlocale               1005fc65 f   libucrt:wsetlocale.obj
 0001:0005f78b       ___p___mb_cur_max          1006078b f   libucrt:nlsdata.obj
 0001:0005f7c0       __cintrindisp2             100607c0 f   libucrt:87cdisp.obj
 0001:0005f804       __cintrindisp1             10060804 f   libucrt:87cdisp.obj
 0001:0005f847       __ctrandisp2               10060847 f   libucrt:87cdisp.obj
 0001:0005f9d6       __ctrandisp1               100609d6 f   libucrt:87cdisp.obj
 0001:0005fa09       __fload                    10060a09 f   libucrt:87cdisp.obj
 0001:0005faf0       __trandisp1                10060af0 f   libucrt:87disp.obj
 0001:0005fb57       __trandisp2                10060b57 f   libucrt:87disp.obj
 0001:0005fbe3       __rttospopde               10060be3     libucrt:87disp.obj
 0001:0005fbe8       __rttospop                 10060be8     libucrt:87disp.obj
 0001:0005fbea       __rtnospop                 10060bea     libucrt:87disp.obj
 0001:0005fbec       __rttosnpop                10060bec     libucrt:87disp.obj
 0001:0005fbed       __rtnospopde               10060bed     libucrt:87disp.obj
 0001:0005fbf4       __rtzeropop                10060bf4     libucrt:87disp.obj
 0001:0005fbf6       __rtzeronpop               10060bf6     libucrt:87disp.obj
 0001:0005fbfb       __rtzerospop               10060bfb     libucrt:87disp.obj
 0001:0005fc08       __rtonepop                 10060c08     libucrt:87disp.obj
 0001:0005fc0a       __rtonenpop                10060c0a     libucrt:87disp.obj
 0001:0005fc0f       __tosnan1                  10060c0f     libucrt:87disp.obj
 0001:0005fc3a       __nosnan2                  10060c3a     libucrt:87disp.obj
 0001:0005fc3c       __tosnan2                  10060c3c     libucrt:87disp.obj
 0001:0005fc64       __nan2                     10060c64     libucrt:87disp.obj
 0001:0005fca3       __rtindfpop                10060ca3     libucrt:87disp.obj
 0001:0005fca5       __rtindfnpop               10060ca5     libucrt:87disp.obj
 0001:0005fcb6       __rttosnpopde              10060cb6     libucrt:87disp.obj
 0001:0005fcc0       __rtatan2inf               10060cc0     libucrt:87disp.obj
 0001:0005fcdd       __rtchsifneg               10060cdd     libucrt:87disp.obj
 0001:0005fd61       __realloc_base             10060d61 f   libucrt:realloc_base.obj
 0001:0005fde4       ___acrt_initialize_locks   10060de4 f   libucrt:locks.obj
 0001:0005fe35       ___acrt_lock               10060e35 f   libucrt:locks.obj
 0001:0005fe51       ___acrt_uninitialize_locks 10060e51 f   libucrt:locks.obj
 0001:0005fe8e       ___acrt_unlock             10060e8e f   libucrt:locks.obj
 0001:0005feaa       __lock_locales             10060eaa f   libucrt:locks.obj
 0001:0005feb5       __unlock_locales           10060eb5 f   libucrt:locks.obj
 0001:0005fec0       ??$?RV<lambda_123407a5e2ac06da108355a851863b7a>@@AAV<lambda_2fe9b910cf3cbf4a0ab98a02ba45b3ec>@@V<lambda_ae55bdf541ad94d75914d381c370e64d>@@@?$__crt_seh_guarded_call@H@@QAEH$$QAV<lambda_123407a5e2ac06da108355a851863b7a>@@AAV<lambda_2fe9b910cf3cbf4a0ab98a02ba45b3ec>@@$$QAV<lambda_ae55bdf541ad94d75914d381c370e64d>@@@Z 10060ec0 f i libucrt:close.obj
 0001:0005ff62       ??$__acrt_lowio_lock_fh_and_call@V<lambda_2fe9b910cf3cbf4a0ab98a02ba45b3ec>@@@@YAHH$$QAV<lambda_2fe9b910cf3cbf4a0ab98a02ba45b3ec>@@@Z 10060f62 f i libucrt:close.obj
 0001:000600b5       __close                    100610b5 f   libucrt:close.obj
 0001:00060153       __close_nolock             10061153 f   libucrt:close.obj
 0001:00060216       ??$?RU__crt_stdio_stream_data@@@__crt_internal_free_policy@@QBEXQBU__crt_stdio_stream_data@@@Z 10061216 f i libucrt:stream.obj
 0001:0006022c       ??0?$__crt_unique_heap_ptr@U__crt_stdio_stream_data@@U__crt_internal_free_policy@@@@QAE@QAU__crt_stdio_stream_data@@@Z 1006122c f i libucrt:stream.obj
 0001:00060240       ??0__crt_stdio_stream@@QAE@XZ 10061240 f i libucrt:stream.obj
 0001:00060246       ??1?$__crt_unique_heap_ptr@U__crt_stdio_stream_data@@U__crt_internal_free_policy@@@@QAE@XZ 10061246 f i libucrt:stream.obj
 0001:0006025c       ?__acrt_stdio_allocate_stream@@YA?AV__crt_stdio_stream@@XZ 1006125c f   libucrt:stream.obj
 0001:000602d2       ?__acrt_stdio_free_stream@@YAXV__crt_stdio_stream@@@Z 100612d2 f   libucrt:stream.obj
 0001:0006031b       ?deallocate@__crt_stdio_stream@@QAEXXZ 1006131b f i libucrt:stream.obj
 0001:00060327       ?detach@?$__crt_unique_heap_ptr@U__crt_stdio_stream_data@@U__crt_internal_free_policy@@@@QAEPAU__crt_stdio_stream_data@@XZ 10061327 f i libucrt:stream.obj
 0001:00060420       ?lock@__crt_stdio_stream@@QBEXXZ 10061420 f i libucrt:stream.obj
 0001:0006042b       ?release@?$__crt_unique_heap_ptr@U__crt_stdio_stream_data@@U__crt_internal_free_policy@@@@QAEXXZ 1006142b f i libucrt:stream.obj
 0001:00060441       ?try_allocate@__crt_stdio_stream@@QAE_NXZ 10061441 f i libucrt:stream.obj
 0001:0006046a       ??$__acrt_stdio_parse_mode@D@@YA?AU__acrt_stdio_stream_mode@@QBD@Z 1006146a f i libucrt:openfile.obj
 0001:00060728       ??$__acrt_stdio_parse_mode@_W@@YA?AU__acrt_stdio_stream_mode@@QB_W@Z 10061728 f i libucrt:openfile.obj
 0001:00060b49       ??$tcsncmp@AAPBDAAY02$$CBDI@?$__crt_char_traits@D@@SAHAAPBDAAY02$$CBD$$QAI@Z 10061b49 f i libucrt:openfile.obj
 0001:00060b6c       ??$tcsncmp@AAPB_WAAY02$$CB_WI@?$__crt_char_traits@_W@@SAHAAPB_WAAY02$$CB_W$$QAI@Z 10061b6c f i libucrt:openfile.obj
 0001:00060b8f       ??$tcsnicmp@AAPBDAAY04$$CBDI@?$__crt_char_traits@D@@SAHAAPBDAAY04$$CBD$$QAI@Z 10061b8f f i libucrt:openfile.obj
 0001:00060bb2       ??$tcsnicmp@AAPBDAAY06$$CBDI@?$__crt_char_traits@D@@SAHAAPBDAAY06$$CBD$$QAI@Z 10061bb2 f i libucrt:openfile.obj
 0001:00060bd5       ??$tcsnicmp@AAPBDAAY07$$CBDI@?$__crt_char_traits@D@@SAHAAPBDAAY07$$CBD$$QAI@Z 10061bd5 f i libucrt:openfile.obj
 0001:00060bf8       ??$tcsnicmp@AAPB_WAAY04$$CB_WI@?$__crt_char_traits@_W@@SAHAAPB_WAAY04$$CB_W$$QAI@Z 10061bf8 f i libucrt:openfile.obj
 0001:00060c1b       ??$tcsnicmp@AAPB_WAAY06$$CB_WI@?$__crt_char_traits@_W@@SAHAAPB_WAAY06$$CB_W$$QAI@Z 10061c1b f i libucrt:openfile.obj
 0001:00060c3e       ??$tcsnicmp@AAPB_WAAY07$$CB_WI@?$__crt_char_traits@_W@@SAHAAPB_WAAY07$$CB_W$$QAI@Z 10061c3e f i libucrt:openfile.obj
 0001:00060c61       ??$tsopen_s@PAHABQBDABHABHH@?$__crt_char_traits@D@@SAH$$QAPAHABQBDABH2$$QAH@Z 10061c61 f i libucrt:openfile.obj
 0001:00060c93       ??$tsopen_s@PAHABQB_WABHABHH@?$__crt_char_traits@_W@@SAH$$QAPAHABQB_WABH2$$QAH@Z 10061c93 f i libucrt:openfile.obj
 0001:00060cc5       ?__acrt_stdio_parse_mode_D@@YA_NAAU__acrt_stdio_stream_mode@@@Z 10061cc5 f i libucrt:openfile.obj
 0001:00060ce6       ?__acrt_stdio_parse_mode_N@@YA_NAAU__acrt_stdio_stream_mode@@@Z 10061ce6 f i libucrt:openfile.obj
 0001:00060cfc       ?__acrt_stdio_parse_mode_R@@YA_NAAU__acrt_stdio_stream_mode@@AA_N@Z 10061cfc f i libucrt:openfile.obj
 0001:00060d21       ?__acrt_stdio_parse_mode_S@@YA_NAAU__acrt_stdio_stream_mode@@AA_N@Z 10061d21 f i libucrt:openfile.obj
 0001:00060d46       ?__acrt_stdio_parse_mode_T@@YA_NAAU__acrt_stdio_stream_mode@@@Z 10061d46 f i libucrt:openfile.obj
 0001:00060d6c       ?__acrt_stdio_parse_mode_b@@YA_NAAU__acrt_stdio_stream_mode@@@Z 10061d6c f i libucrt:openfile.obj
 0001:00060d94       ?__acrt_stdio_parse_mode_c@@YA_NAAU__acrt_stdio_stream_mode@@AA_N@Z 10061d94 f i libucrt:openfile.obj
 0001:00060dbe       ?__acrt_stdio_parse_mode_n@@YA_NAAU__acrt_stdio_stream_mode@@AA_N@Z 10061dbe f i libucrt:openfile.obj
 0001:00060de8       ?__acrt_stdio_parse_mode_plus@@YA_NAAU__acrt_stdio_stream_mode@@AA_N@Z 10061de8 f i libucrt:openfile.obj
 0001:00060e2a       ?__acrt_stdio_parse_mode_t@@YA_NAAU__acrt_stdio_stream_mode@@@Z 10061e2a f i libucrt:openfile.obj
 0001:00060e52       __openfile                 10061e52 f   libucrt:openfile.obj
 0001:00060e5f       __wopenfile                10061e5f f   libucrt:openfile.obj
 0001:00061504       __read                     10062504 f   libucrt:read.obj
 0001:0006165b       __read_nolock              1006265b f   libucrt:read.obj
 0001:00061ff3       ___acrt_stdio_refill_and_read_narrow_nolock 10062ff3 f   libucrt:_filbuf.obj
 0001:00062000       ___acrt_stdio_refill_and_read_wide_nolock 10063000 f   libucrt:_filbuf.obj
 0001:0006275f       __write                    1006375f f   libucrt:write.obj
 0001:00062884       __write_nolock             10063884 f   libucrt:write.obj
 0001:00062fca       ___acrt_stdio_flush_and_write_narrow_nolock 10063fca f   libucrt:_flsbuf.obj
 0001:00062fd7       ___acrt_stdio_flush_and_write_wide_nolock 10063fd7 f   libucrt:_flsbuf.obj
 0001:00062fe4       ___acrt_copy_path_to_wide_string 10063fe4 f   libucrt:string_utilities.obj
 0001:000630dc       ___acrt_copy_to_char       100640dc f   libucrt:string_utilities.obj
 0001:000631c7       __wremove                  100641c7 f   libucrt:wunlink.obj
 0001:000631f9       __wunlink                  100641f9 f   libucrt:wunlink.obj
 0001:0006366d       __lseek                    1006466d f   libucrt:lseek.obj
 0001:0006367a       __lseek_nolock             1006467a f   libucrt:lseek.obj
 0001:00063687       __lseeki64                 10064687 f   libucrt:lseek.obj
 0001:000636a8       __lseeki64_nolock          100646a8 f   libucrt:lseek.obj
 0001:000636c9       __chgsign                  100646c9 f   libucrt:ieeemisc.obj
 0001:00063703       __chgsignf                 10064703 f   libucrt:ieeemisc.obj
 0001:0006372e       __copysign                 1006472e f   libucrt:ieeemisc.obj
 0001:00063762       __copysignf                10064762 f   libucrt:ieeemisc.obj
 0001:00063787       __finite                   10064787 f   libucrt:ieeemisc.obj
 0001:000637a7       __fpclass                  100647a7 f   libucrt:ieeemisc.obj
 0001:00063874       __isnan                    10064874 f   libucrt:ieeemisc.obj
 0001:000638b7       __logb                     100648b7 f   libucrt:ieeemisc.obj
 0001:000639bc       __nextafter                100649bc f   libucrt:ieeemisc.obj
 0001:000639e2       __scalb                    100649e2 f   libucrt:ieeemisc.obj
 0001:00063a02       __add_exp                  10064a02 f   libucrt:util.obj
 0001:00063a3c       __decomp                   10064a3c f   libucrt:util.obj
 0001:00063b45       __get_exp                  10064b45 f   libucrt:util.obj
 0001:00063b64       __set_bexp                 10064b64 f   libucrt:util.obj
 0001:00063b97       __set_exp                  10064b97 f   libucrt:util.obj
 0001:00063bd1       __sptype                   10064bd1 f   libucrt:util.obj
 0001:00063c46       ___clrfp_sse2              10064c46 f   libucrt:fpctrl.obj
 0001:00063c6f       ___ctrlfp_sse2             10064c6f f   libucrt:fpctrl.obj
 0001:00063cb8       ___fclrf_sse2              10064cb8 f   libucrt:fpctrl.obj
 0001:00063cde       ___get_fpsr_sse2           10064cde f   libucrt:fpctrl.obj
 0001:00063d03       ___set_fpsr_sse2           10064d03 f   libucrt:fpctrl.obj
 0001:00063d96       ___set_statfp_sse2         10064d96 f   libucrt:fpctrl.obj
 0001:00063db7       ___statfp_sse2             10064db7 f   libucrt:fpctrl.obj
 0001:00063dd1       __clrfp                    10064dd1 f   libucrt:fpctrl.obj
 0001:00063de8       __ctrlfp                   10064de8 f   libucrt:fpctrl.obj
 0001:00063e1f       __set_statfp               10064e1f f   libucrt:fpctrl.obj
 0001:00063e90       __statfp                   10064e90 f   libucrt:fpctrl.obj
 0001:00063f6d       ___acrt_report_runtime_error 10064f6d f   libucrt:report_runtime_error.obj
 0001:000640d3       __query_app_type           100650d3 f   libucrt:report_runtime_error.obj
 0001:000640d9       __set_app_type             100650d9 f   libucrt:report_runtime_error.obj
 0001:000645c5       __i64toa                   100655c5 f   libucrt:xtoa.obj
 0001:00064618       __i64toa_s                 10065618 f   libucrt:xtoa.obj
 0001:00064669       __i64tow                   10065669 f   libucrt:xtoa.obj
 0001:000646bc       __i64tow_s                 100656bc f   libucrt:xtoa.obj
 0001:0006470d       __itoa                     1006570d f   libucrt:xtoa.obj
 0001:00064751       __itoa_s                   10065751 f   libucrt:xtoa.obj
 0001:00064793       __itow                     10065793 f   libucrt:xtoa.obj
 0001:000647d7       __itow_s                   100657d7 f   libucrt:xtoa.obj
 0001:00064819       __ltoa                     10065819 f   libucrt:xtoa.obj
 0001:0006485d       __ltoa_s                   1006585d f   libucrt:xtoa.obj
 0001:0006489f       __ltow                     1006589f f   libucrt:xtoa.obj
 0001:000648e3       __ltow_s                   100658e3 f   libucrt:xtoa.obj
 0001:00064925       __ui64toa                  10065925 f   libucrt:xtoa.obj
 0001:0006494f       __ui64toa_s                1006594f f   libucrt:xtoa.obj
 0001:00064977       __ui64tow                  10065977 f   libucrt:xtoa.obj
 0001:000649a1       __ui64tow_s                100659a1 f   libucrt:xtoa.obj
 0001:000649c9       __ultoa                    100659c9 f   libucrt:xtoa.obj
 0001:000649ef       __ultoa_s                  100659ef f   libucrt:xtoa.obj
 0001:00064a13       __ultow                    10065a13 f   libucrt:xtoa.obj
 0001:00064a39       __ultow_s                  10065a39 f   libucrt:xtoa.obj
 0001:00064a5d       __set_error_mode           10065a5d f   libucrt:set_error_mode.obj
 0001:00064b39       _wcscat_s                  10065b39 f   libucrt:wcscat_s.obj
 0001:00064c43       _wcscpy_s                  10065c43 f   libucrt:wcscpy_s.obj
 0001:00064de3       _wcsncat_s                 10065de3 f   libucrt:wcsncat_s.obj
 0001:00064e73       _strcat_s                  10065e73 f   libucrt:strcat_s.obj
 0001:00064ffa       _strncat_s                 10065ffa f   libucrt:strncat_s.obj
 0001:00065225       ??$message_box@$$TAAPBDAAPBDAAI@?$__crt_char_traits@D@@SAH$$QA$$TAAPBD1AAI@Z 10066225 f i libucrt:crtmbox.obj
 0001:0006524d       ??$message_box@$$TAAPB_WAAPB_WAAI@?$__crt_char_traits@_W@@SAH$$QA$$TAAPB_W1AAI@Z 1006624d f i libucrt:crtmbox.obj
 0001:00065275       ??$message_box@$$TABQBDABQBDK@?$__crt_char_traits@D@@SAH$$QA$$TABQBD1$$QAK@Z 10066275 f i libucrt:crtmbox.obj
 0001:0006529d       ??$message_box@$$TABQB_WABQB_WK@?$__crt_char_traits@_W@@SAH$$QA$$TABQB_W1$$QAK@Z 1006629d f i libucrt:crtmbox.obj
 0001:000652c5       ??$message_box@PAUHWND__@@ABQBDABQBDABI@?$__crt_char_traits@D@@SAH$$QAPAUHWND__@@ABQBD1ABI@Z 100662c5 f i libucrt:crtmbox.obj
 0001:000652ed       ??$message_box@PAUHWND__@@ABQB_WABQB_WABI@?$__crt_char_traits@_W@@SAH$$QAPAUHWND__@@ABQB_W1ABI@Z 100662ed f i libucrt:crtmbox.obj
 0001:00065369       ??$output_debug_string@ABQBD@?$__crt_char_traits@D@@SAXABQBD@Z 10066369 f i libucrt:crtmbox.obj
 0001:0006537f       ??$output_debug_string@ABQB_W@?$__crt_char_traits@_W@@SAXABQB_W@Z 1006637f f i libucrt:crtmbox.obj
 0001:00065395       ??0?$__crt_unique_handle_t@U__crt_handle_traits@@@@QAE@QAX@Z 10066395 f i libucrt:crtmbox.obj
 0001:000653a9       ??1?$__crt_unique_handle_t@U__crt_handle_traits@@@@QAE@XZ 100663a9 f i libucrt:crtmbox.obj
 0001:000653c5       ??B?$__crt_unique_handle_t@U__crt_handle_traits@@@@QBE_NXZ 100663c5 f i libucrt:crtmbox.obj
 0001:000653d0       ?close@?$__crt_unique_handle_t@U__crt_handle_traits@@@@QAEXXZ 100663d0 f i libucrt:crtmbox.obj
 0001:000653ec       ?close@__crt_handle_traits@@SA_NPAX@Z 100663ec f i libucrt:crtmbox.obj
 0001:00065407       ?get@?$__crt_unique_handle_t@U__crt_handle_traits@@@@QBEPAXXZ 10066407 f i libucrt:crtmbox.obj
 0001:0006540a       ?get_invalid_value@__crt_handle_traits@@SAPAXXZ 1006640a f i libucrt:crtmbox.obj
 0001:0006540e       ?is_valid@?$__crt_unique_handle_t@U__crt_handle_traits@@@@QBE_NXZ 1006640e f i libucrt:crtmbox.obj
 0001:00065419       ___acrt_show_narrow_message_box 10066419 f   libucrt:crtmbox.obj
 0001:00065426       ___acrt_show_wide_message_box 10066426 f   libucrt:crtmbox.obj
 0001:00065433       ??$?RV<lambda_d92cfe8357b99225085016881b624cb0>@@AAV<lambda_b721fa326cdb32351d23dfa67958c160>@@V<lambda_42d75b0848218ec137fa420c8ba9fdf9>@@@?$__crt_seh_guarded_call@H@@QAEH$$QAV<lambda_d92cfe8357b99225085016881b624cb0>@@AAV<lambda_b721fa326cdb32351d23dfa67958c160>@@$$QAV<lambda_42d75b0848218ec137fa420c8ba9fdf9>@@@Z 10066433 f i libucrt:setvbuf.obj
 0001:00065498       ??$__acrt_lock_stream_and_call@V<lambda_b721fa326cdb32351d23dfa67958c160>@@@@YAHQAU_iobuf@@$$QAV<lambda_b721fa326cdb32351d23dfa67958c160>@@@Z 10066498 f i libucrt:setvbuf.obj
 0001:00065635       _setvbuf                   10066635 f   libucrt:setvbuf.obj
 0001:000656c8       ??$?B$$A6AXH@Z@__crt_fast_encoded_nullptr_t@@QBEP6AXH@ZXZ 100666c8 f i libucrt:signal.obj
 0001:000656e6       ??$?RV<lambda_a048d3beccc847880fc8490e18b82769>@@AAV<lambda_ec61778202f4f5fc7e7711acc23c3bca>@@V<lambda_f7496a158712204296dd6628a163878e>@@@?$__crt_seh_guarded_call@P6AXH@Z@@QAEP6AXH@Z$$QAV<lambda_a048d3beccc847880fc8490e18b82769>@@AAV<lambda_ec61778202f4f5fc7e7711acc23c3bca>@@$$QAV<lambda_f7496a158712204296dd6628a163878e>@@@Z 100666e6 f i libucrt:signal.obj
 0001:00065756       ??$__acrt_lock_and_call@V<lambda_ec61778202f4f5fc7e7711acc23c3bca>@@@@YAP6AXH@ZW4__acrt_lock_id@@$$QAV<lambda_ec61778202f4f5fc7e7711acc23c3bca>@@@Z 10066756 f i libucrt:signal.obj
 0001:00065788       ??$__crt_fast_decode_pointer@P6AXH@Z@@YAP6AXH@ZQ6AXH@Z@Z 10066788 f i libucrt:signal.obj
 0001:000657a3       ??$__crt_fast_encode_pointer@P6AXH@Z@@YAP6AXH@ZQ6AXH@Z@Z 100667a3 f i libucrt:signal.obj
 0001:0006594d       ?initialize@?$dual_state_global@P6AXH@Z@__crt_state_management@@QAEXQ6AXH@Z@Z 1006694d f i libucrt:signal.obj
 0001:000659f9       ?value@?$dual_state_global@P6AXH@Z@__crt_state_management@@QAEAAP6AXH@ZXZ 100669f9 f i libucrt:signal.obj
 0001:000659fc       ___acrt_get_sigabrt_handler 100669fc f   libucrt:signal.obj
 0001:00065a18       ___acrt_initialize_signal_handlers 10066a18 f   libucrt:signal.obj
 0001:00065a61       ___fpecode                 10066a61 f   libucrt:signal.obj
 0001:00065a6c       ___pxcptinfoptrs           10066a6c f   libucrt:signal.obj
 0001:00065a77       _raise                     10066a77 f   libucrt:signal.obj
 0001:00065d01       _signal                    10066d01 f   libucrt:signal.obj
 0001:00065f1f       ??$__crt_fast_decode_pointer@P6AHPAU_exception@@@Z@@YAP6AHPAU_exception@@@ZQ6AH0@Z@Z 10066f1f f i libucrt:matherr.obj
 0001:00065f3a       ??$__crt_fast_encode_pointer@P6AHPAU_exception@@@Z@@YAP6AHPAU_exception@@@ZQ6AH0@Z@Z 10066f3a f i libucrt:matherr.obj
 0001:00065f60       ?initialize@?$dual_state_global@P6AHPAU_exception@@@Z@__crt_state_management@@QAEXQ6AHPAU_exception@@@Z@Z 10066f60 f i libucrt:matherr.obj
 0001:00065f9d       ?value@?$dual_state_global@P6AHPAU_exception@@@Z@__crt_state_management@@QAEAAP6AHPAU_exception@@@ZXZ 10066f9d f i libucrt:matherr.obj
 0001:00065fa0       ___acrt_has_user_matherr   10066fa0 f   libucrt:matherr.obj
 0001:00065fbf       ___acrt_initialize_user_matherr 10066fbf f   libucrt:matherr.obj
 0001:00065fd8       ___acrt_invoke_user_matherr 10066fd8 f   libucrt:matherr.obj
 0001:00066033       ___setusermatherr          10067033 f   libucrt:matherr.obj
 0001:00066a45       ??$find_first_file_ex@ABQADW4_FINDEX_INFO_LEVELS@@PAU_WIN32_FIND_DATAA@@W4_FINDEX_SEARCH_OPS@@$$TH@?$__crt_char_traits@D@@SAPAXABQAD$$QAW4_FINDEX_INFO_LEVELS@@$$QAPAU_WIN32_FIND_DATAA@@$$QAW4_FINDEX_SEARCH_OPS@@$$QA$$T$$QAH@Z 10067a45 f i libucrt:argv_wildcards.obj
 0001:00066a7a       ??$find_first_file_ex@ABQA_WW4_FINDEX_INFO_LEVELS@@PAU_WIN32_FIND_DATAW@@W4_FINDEX_SEARCH_OPS@@$$TH@?$__crt_char_traits@_W@@SAPAXABQA_W$$QAW4_FINDEX_INFO_LEVELS@@$$QAPAU_WIN32_FIND_DATAW@@$$QAW4_FINDEX_SEARCH_OPS@@$$QA$$T$$QAH@Z 10067a7a f i libucrt:argv_wildcards.obj
 0001:00066aaf       ??$find_next_file@PAXPAU_WIN32_FIND_DATAA@@@?$__crt_char_traits@D@@SAH$$QAPAX$$QAPAU_WIN32_FIND_DATAA@@@Z 10067aaf f i libucrt:argv_wildcards.obj
 0001:00066acb       ??$find_next_file@PAXPAU_WIN32_FIND_DATAW@@@?$__crt_char_traits@_W@@SAH$$QAPAX$$QAPAU_WIN32_FIND_DATAW@@@Z 10067acb f i libucrt:argv_wildcards.obj
 0001:00066ae7       ??$tcsncpy_s@AAPADIAAPADABI@?$__crt_char_traits@D@@SAHAAPAD$$QAI0ABI@Z 10067ae7 f i libucrt:argv_wildcards.obj
 0001:00066b12       ??$tcsncpy_s@AAPA_WIAAPA_WABI@?$__crt_char_traits@_W@@SAHAAPA_W$$QAI0ABI@Z 10067b12 f i libucrt:argv_wildcards.obj
 0001:00066b3d       ??$tcsncpy_s@PAD$$CBIABQBDABI@?$__crt_char_traits@D@@SAH$$QAPAD$$QBIABQBDABI@Z 10067b3d f i libucrt:argv_wildcards.obj
 0001:00066b68       ??$tcsncpy_s@PADABIABQBDABI@?$__crt_char_traits@D@@SAH$$QAPADABIABQBD1@Z 10067b68 f i libucrt:argv_wildcards.obj
 0001:00066b93       ??$tcsncpy_s@PA_W$$CBIABQB_WABI@?$__crt_char_traits@_W@@SAH$$QAPA_W$$QBIABQB_WABI@Z 10067b93 f i libucrt:argv_wildcards.obj
 0001:00066bbe       ??$tcsncpy_s@PA_WABIABQB_WABI@?$__crt_char_traits@_W@@SAH$$QAPA_WABIABQB_W1@Z 10067bbe f i libucrt:argv_wildcards.obj
 0001:00066be9       ??$tcspbrk@AAPADAAY02$$CBD@?$__crt_char_traits@D@@SAPADAAPADAAY02$$CBD@Z 10067be9 f i libucrt:argv_wildcards.obj
 0001:00066c04       ??$tcspbrk@AAPA_WAAY02$$CB_W@?$__crt_char_traits@_W@@SAPA_WAAPA_WAAY02$$CB_W@Z 10067c04 f i libucrt:argv_wildcards.obj
 0001:00066c1f       ??0?$__crt_unique_handle_t@U__crt_findfile_traits@@@@QAE@QAX@Z 10067c1f f i libucrt:argv_wildcards.obj
 0001:00066c33       ??0?$argument_list@D@?A0xb0e4b824@@QAE@XZ 10067c33 f i libucrt:argv_wildcards.obj
 0001:00066c43       ??0?$argument_list@_W@?A0xb0e4b824@@QAE@XZ 10067c43 f i libucrt:argv_wildcards.obj
 0001:00066c53       ??1?$__crt_unique_handle_t@U__crt_findfile_traits@@@@QAE@XZ 10067c53 f i libucrt:argv_wildcards.obj
 0001:00066c6f       ??1?$argument_list@D@?A0xb0e4b824@@QAE@XZ 10067c6f f i libucrt:argv_wildcards.obj
 0001:00066c9d       ??1?$argument_list@_W@?A0xb0e4b824@@QAE@XZ 10067c9d f i libucrt:argv_wildcards.obj
 0001:00066d2b       ?append@?$argument_list@D@?A0xb0e4b824@@QAEHQAD@Z 10067d2b f i libucrt:argv_wildcards.obj
 0001:00066d6d       ?append@?$argument_list@_W@?A0xb0e4b824@@QAEHQA_W@Z 10067d6d f i libucrt:argv_wildcards.obj
 0001:00066daf       ?begin@?$argument_list@D@?A0xb0e4b824@@QBEPAPADXZ 10067daf f i libucrt:argv_wildcards.obj
 0001:00066db2       ?begin@?$argument_list@_W@?A0xb0e4b824@@QBEPAPA_WXZ 10067db2 f i libucrt:argv_wildcards.obj
 0001:00066db5       ?close@?$__crt_unique_handle_t@U__crt_findfile_traits@@@@QAEXXZ 10067db5 f i libucrt:argv_wildcards.obj
 0001:00066dd1       ?close@__crt_findfile_traits@@SA_NPAX@Z 10067dd1 f i libucrt:argv_wildcards.obj
 0001:00066dec       ?end@?$argument_list@D@?A0xb0e4b824@@QBEPAPADXZ 10067dec f i libucrt:argv_wildcards.obj
 0001:00066df0       ?end@?$argument_list@_W@?A0xb0e4b824@@QBEPAPA_WXZ 10067df0 f i libucrt:argv_wildcards.obj
 0001:00066df4       ?expand_if_necessary@?$argument_list@D@?A0xb0e4b824@@AAEHXZ 10067df4 f i libucrt:argv_wildcards.obj
 0001:00066e9c       ?expand_if_necessary@?$argument_list@_W@?A0xb0e4b824@@AAEHXZ 10067e9c f i libucrt:argv_wildcards.obj
 0001:00066f44       ?get@?$__crt_unique_handle_t@U__crt_findfile_traits@@@@QBEPAXXZ 10067f44 f i libucrt:argv_wildcards.obj
 0001:00066f47       ?get_invalid_value@__crt_findfile_traits@@SAPAXXZ 10067f47 f i libucrt:argv_wildcards.obj
 0001:00066f68       ?size@?$argument_list@D@?A0xb0e4b824@@QBEIXZ 10067f68 f i libucrt:argv_wildcards.obj
 0001:00066f73       ?size@?$argument_list@_W@?A0xb0e4b824@@QBEIXZ 10067f73 f i libucrt:argv_wildcards.obj
 0001:00066f7e       ?strpbrk@@YAPADQADQBD@Z    10067f7e f i libucrt:argv_wildcards.obj
 0001:00066f8b       ?wcspbrk@@YAPA_WPA_WPB_W@Z 10067f8b f i libucrt:argv_wildcards.obj
 0001:00066f98       ___acrt_expand_narrow_argv_wildcards 10067f98 f   libucrt:argv_wildcards.obj
 0001:00066fa5       ___acrt_expand_wide_argv_wildcards 10067fa5 f   libucrt:argv_wildcards.obj
 0001:00066fb2       ??$?RV<lambda_978dc153c237d78434369da87b74ff60>@@AAV<lambda_ad1ced32f4ac17aa236e5ef05d6b3b7c>@@V<lambda_4a8533e2866a575feecb8298ce776b0d>@@@?$__crt_seh_guarded_call@X@@QAEX$$QAV<lambda_978dc153c237d78434369da87b74ff60>@@AAV<lambda_ad1ced32f4ac17aa236e5ef05d6b3b7c>@@$$QAV<lambda_4a8533e2866a575feecb8298ce776b0d>@@@Z 10067fb2 f i libucrt:mbctype.obj
 0001:00067005       ??$__acrt_lock_and_call@V<lambda_ad1ced32f4ac17aa236e5ef05d6b3b7c>@@@@YAXW4__acrt_lock_id@@$$QAV<lambda_ad1ced32f4ac17aa236e5ef05d6b3b7c>@@@Z 10068005 f i libucrt:mbctype.obj
 0001:00067616       ___acrt_initialize_multibyte 10068616 f   libucrt:mbctype.obj
 0001:0006763b       ___acrt_update_thread_multibyte_data 1006863b f   libucrt:mbctype.obj
 0001:00067705       ___p__mbcasemap            10068705 f   libucrt:mbctype.obj
 0001:0006770b       ___p__mbctype              1006870b f   libucrt:mbctype.obj
 0001:00067711       __getmbcp                  10068711 f   libucrt:mbctype.obj
 0001:00067754       __setmbcp                  10068754 f   libucrt:mbctype.obj
 0001:0006776b       __setmbcp_nolock           1006876b f   libucrt:mbctype.obj
 0001:00067ae8       __ismbbalnum               10068ae8 f   libucrt:ismbbyte.obj
 0001:00067b09       __ismbbalnum_l             10068b09 f   libucrt:ismbbyte.obj
 0001:00067b2c       __ismbbalpha               10068b2c f   libucrt:ismbbyte.obj
 0001:00067b4d       __ismbbalpha_l             10068b4d f   libucrt:ismbbyte.obj
 0001:00067b70       __ismbbblank               10068b70 f   libucrt:ismbbyte.obj
 0001:00067b9b       __ismbbblank_l             10068b9b f   libucrt:ismbbyte.obj
 0001:00067bc8       __ismbbgraph               10068bc8 f   libucrt:ismbbyte.obj
 0001:00067be9       __ismbbgraph_l             10068be9 f   libucrt:ismbbyte.obj
 0001:00067c0c       __ismbbkalnum              10068c0c f   libucrt:ismbbyte.obj
 0001:00067c2a       __ismbbkalnum_l            10068c2a f   libucrt:ismbbyte.obj
 0001:00067c49       __ismbbkana                10068c49 f   libucrt:ismbbyte.obj
 0001:00067c60       __ismbbkana_l              10068c60 f   libucrt:ismbbyte.obj
 0001:00067cc5       __ismbbkprint              10068cc5 f   libucrt:ismbbyte.obj
 0001:00067ce3       __ismbbkprint_l            10068ce3 f   libucrt:ismbbyte.obj
 0001:00067d02       __ismbbkpunct              10068d02 f   libucrt:ismbbyte.obj
 0001:00067d20       __ismbbkpunct_l            10068d20 f   libucrt:ismbbyte.obj
 0001:00067d3f       __ismbblead                10068d3f f   libucrt:ismbbyte.obj
 0001:00067d5d       __ismbblead_l              10068d5d f   libucrt:ismbbyte.obj
 0001:00067d7c       __ismbbprint               10068d7c f   libucrt:ismbbyte.obj
 0001:00067d9d       __ismbbprint_l             10068d9d f   libucrt:ismbbyte.obj
 0001:00067dc0       __ismbbpunct               10068dc0 f   libucrt:ismbbyte.obj
 0001:00067dde       __ismbbpunct_l             10068dde f   libucrt:ismbbyte.obj
 0001:00067dfd       __ismbbtrail               10068dfd f   libucrt:ismbbyte.obj
 0001:00067e1b       __ismbbtrail_l             10068e1b f   libucrt:ismbbyte.obj
 0001:00067e3a       ___acrt_initialize_command_line 10068e3a f   libucrt:argv_data.obj
 0001:00067e59       ___acrt_uninitialize_command_line 10068e59 f   libucrt:argv_data.obj
 0001:00067e5c       ___p___argc                10068e5c f   libucrt:argv_data.obj
 0001:00067e62       ___p___argv                10068e62 f   libucrt:argv_data.obj
 0001:00067e68       ___p___wargv               10068e68 f   libucrt:argv_data.obj
 0001:00067e6e       ___p__acmdln               10068e6e f   libucrt:argv_data.obj
 0001:00067e74       ___p__pgmptr               10068e74 f   libucrt:argv_data.obj
 0001:00067e7a       ___p__wcmdln               10068e7a f   libucrt:argv_data.obj
 0001:00067e80       ___p__wpgmptr              10068e80 f   libucrt:argv_data.obj
 0001:00067e86       __get_pgmptr               10068e86 f   libucrt:argv_data.obj
 0001:00067ec3       __get_wpgmptr              10068ec3 f   libucrt:argv_data.obj
 0001:00067f00       ??0?$__crt_unique_handle_t@Uenvironment_strings_traits@?A0x588e5281@@@@QAE@QA_W@Z 10068f00 f i libucrt:get_environment_from_os.obj
 0001:00067f14       ??1?$__crt_unique_handle_t@Uenvironment_strings_traits@?A0x588e5281@@@@QAE@XZ 10068f14 f i libucrt:get_environment_from_os.obj
 0001:00067f30       ??B?$__crt_unique_handle_t@Uenvironment_strings_traits@?A0x588e5281@@@@QBE_NXZ 10068f30 f i libucrt:get_environment_from_os.obj
 0001:00067f3a       ?close@?$__crt_unique_handle_t@Uenvironment_strings_traits@?A0x588e5281@@@@QAEXXZ 10068f3a f i libucrt:get_environment_from_os.obj
 0001:00067f56       ?close@environment_strings_traits@?A0x588e5281@@SA_NPA_W@Z 10068f56 f i libucrt:get_environment_from_os.obj
 0001:00067fb0       ?get@?$__crt_unique_handle_t@Uenvironment_strings_traits@?A0x588e5281@@@@QBEPA_WXZ 10068fb0 f i libucrt:get_environment_from_os.obj
 0001:00067fb3       ?get_invalid_value@environment_strings_traits@?A0x588e5281@@SAPA_WXZ 10068fb3 f i libucrt:get_environment_from_os.obj
 0001:00067fb6       ?is_valid@?$__crt_unique_handle_t@Uenvironment_strings_traits@?A0x588e5281@@@@QBE_NXZ 10068fb6 f i libucrt:get_environment_from_os.obj
 0001:00067fc0       ___dcrt_get_narrow_environment_from_os 10068fc0 f   libucrt:get_environment_from_os.obj
 0001:00068063       ___dcrt_get_wide_environment_from_os 10069063 f   libucrt:get_environment_from_os.obj
 0001:000688fb       ??$get_or_create_environment_nolock@$$$V@?$__crt_char_traits@D@@SAPAPADXZ 100698fb f i libucrt:setenv.obj
 0001:00068900       ??$get_or_create_environment_nolock@$$$V@?$__crt_char_traits@_W@@SAPAPA_WXZ 10069900 f i libucrt:setenv.obj
 0001:00068905       ??$set_environment_variable@ABQADQAD@?$__crt_char_traits@D@@SAHABQAD$$QBQAD@Z 10069905 f i libucrt:setenv.obj
 0001:00068921       ??$set_environment_variable@ABQA_WQA_W@?$__crt_char_traits@_W@@SAHABQA_W$$QBQA_W@Z 10069921 f i libucrt:setenv.obj
 0001:0006893d       ??$tcschr@ABQADD@?$__crt_char_traits@D@@SAPADABQAD$$QAD@Z 1006993d f i libucrt:setenv.obj
 0001:0006895d       ??$tcschr@ABQA_WD@?$__crt_char_traits@_W@@SAPA_WABQA_W$$QAD@Z 1006995d f i libucrt:setenv.obj
 0001:00068982       ??$tcscpy_s@AAPADABIAAPAD@?$__crt_char_traits@D@@SAHAAPADABI0@Z 10069982 f i libucrt:setenv.obj
 0001:000689a7       ??$tcscpy_s@AAPA_WABIAAPA_W@?$__crt_char_traits@_W@@SAHAAPA_WABI0@Z 100699a7 f i libucrt:setenv.obj
 0001:000689cc       ??$tcscpy_s@ABQADABIABQAD@?$__crt_char_traits@D@@SAHABQADABI0@Z 100699cc f i libucrt:setenv.obj
 0001:000689f1       ??$tcscpy_s@ABQA_WABIABQA_W@?$__crt_char_traits@_W@@SAHABQA_WABI0@Z 100699f1 f i libucrt:setenv.obj
 0001:00068a16       ??$tcsnicoll@ABQBDAAPADABI@?$__crt_char_traits@D@@SAHABQBDAAPADABI@Z 10069a16 f i libucrt:setenv.obj
 0001:00068a3b       ??$tcsnicoll@ABQB_WAAPA_WABI@?$__crt_char_traits@_W@@SAHABQB_WAAPA_WABI@Z 10069a3b f i libucrt:setenv.obj
 0001:00068a84       ?strchr@@YAPADQADH@Z       10069a84 f i libucrt:setenv.obj
 0001:00068a91       ?wcschr@@YAPA_WPA_W_W@Z    10069a91 f i libucrt:setenv.obj
 0001:00068a9e       ___dcrt_set_variable_in_narrow_environment_nolock 10069a9e f   libucrt:setenv.obj
 0001:00068aab       ___dcrt_set_variable_in_wide_environment_nolock 10069aab f   libucrt:setenv.obj
 0001:00068ab8       __recalloc                 10069ab8 f   libucrt:recalloc.obj
 0001:00068ac5       __recalloc_base            10069ac5 f   libucrt:recalloc.obj
 0001:00068b4d       ___acrt_getheap            10069b4d f   libucrt:heap_handle.obj
 0001:00068b53       ___acrt_initialize_heap    10069b53 f   libucrt:heap_handle.obj
 0001:00068b68       ___acrt_uninitialize_heap  10069b68 f   libucrt:heap_handle.obj
 0001:00068b74       __get_heap_handle          10069b74 f   libucrt:heap_handle.obj
 0001:00068b7a       ___acrt_execute_initializers 10069b7a f   libucrt:shared_initialization.obj
 0001:00068c1d       ___acrt_execute_uninitializers 10069c1d f   libucrt:shared_initialization.obj
 0001:00068c7d       ??$?B$$A6AHI@Z@__crt_fast_encoded_nullptr_t@@QBEP6AHI@ZXZ 10069c7d f i libucrt:new_handler.obj
 0001:00068c9b       ??$__crt_fast_decode_pointer@P6AHI@Z@@YAP6AHI@ZQ6AHI@Z@Z 10069c9b f i libucrt:new_handler.obj
 0001:00068cb6       ??$__crt_fast_encode_pointer@P6AHI@Z@@YAP6AHI@ZQ6AHI@Z@Z 10069cb6 f i libucrt:new_handler.obj
 0001:00068cdc       ?_set_new_handler@@YAP6AHI@ZH@Z 10069cdc f   libucrt:new_handler.obj
 0001:00068d02       ?initialize@?$dual_state_global@P6AHI@Z@__crt_state_management@@QAEXQ6AHI@Z@Z 10069d02 f i libucrt:new_handler.obj
 0001:00068d3f       ?value@?$dual_state_global@P6AHI@Z@__crt_state_management@@QAEAAP6AHI@ZXZ 10069d3f f i libucrt:new_handler.obj
 0001:00068d42       ___acrt_initialize_new_handler 10069d42 f   libucrt:new_handler.obj
 0001:00068d5b       __callnewh                 10069d5b f   libucrt:new_handler.obj
 0001:00068db0       __query_new_handler        10069db0 f   libucrt:new_handler.obj
 0001:00068e16       __set_new_handler          10069e16 f   libucrt:new_handler.obj
 0001:00068e8e       ?value@?$dual_state_global@J@__crt_state_management@@QAEAAJXZ 10069e8e f i libucrt:new_mode.obj
 0001:00068e91       __query_new_mode           10069e91 f   libucrt:new_mode.obj
 0001:00068e97       __set_new_mode             10069e97 f   libucrt:new_mode.obj
 0001:00068ed1       ___pctype_func             10069ed1 f   libucrt:ctype.obj
 0001:00068f00       ___pwctype_func            10069f00 f   libucrt:ctype.obj
 0001:00068f06       __iswctype_l               10069f06 f   libucrt:iswctype.obj
 0001:00068f1f       _iswctype                  10069f1f f   libucrt:iswctype.obj
 0001:00068f95       __isctype                  10069f95 f   libucrt:isctype.obj
 0001:00068fd2       __isctype_l                10069fd2 f   libucrt:isctype.obj
 0001:00069299       ___acrt_DownlevelLCIDToLocaleName 1006a299 f   libucrt:lcidtoname_downlevel.obj
 0001:0006936d       ___acrt_DownlevelLocaleNameToLCID 1006a36d f   libucrt:lcidtoname_downlevel.obj
 0001:000693a4       ??$?RV<lambda_61cee617f5178ae960314fd4d05640a0>@@AAV<lambda_6978c1fb23f02e42e1d9e99668cc68aa>@@V<lambda_9cd88cf8ad10232537feb2133f08c833>@@@?$__crt_seh_guarded_call@H@@QAEH$$QAV<lambda_61cee617f5178ae960314fd4d05640a0>@@AAV<lambda_6978c1fb23f02e42e1d9e99668cc68aa>@@$$QAV<lambda_9cd88cf8ad10232537feb2133f08c833>@@@Z 1006a3a4 f i libucrt:commit.obj
 0001:00069462       ??$__acrt_lowio_lock_fh_and_call@V<lambda_6978c1fb23f02e42e1d9e99668cc68aa>@@@@YAHH$$QAV<lambda_6978c1fb23f02e42e1d9e99668cc68aa>@@@Z 1006a462 f i libucrt:commit.obj
 0001:00069554       __commit                   1006a554 f   libucrt:commit.obj
 0001:000695de       ??$?RU__crt_lowio_handle_data@@@__crt_internal_free_policy@@QBEXQBU__crt_lowio_handle_data@@@Z 1006a5de f i libucrt:osfinfo.obj
 0001:000695f4       ??0?$__crt_unique_heap_ptr@U__crt_lowio_handle_data@@U__crt_internal_free_policy@@@@QAE@QAU__crt_lowio_handle_data@@@Z 1006a5f4 f i libucrt:osfinfo.obj
 0001:00069608       ??1?$__crt_unique_heap_ptr@U__crt_lowio_handle_data@@U__crt_internal_free_policy@@@@QAE@XZ 1006a608 f i libucrt:osfinfo.obj
 0001:0006961e       ??B?$__crt_unique_heap_ptr@U__crt_lowio_handle_data@@U__crt_internal_free_policy@@@@QBE_NXZ 1006a61e f i libucrt:osfinfo.obj
 0001:00069628       ?detach@?$__crt_unique_heap_ptr@U__crt_lowio_handle_data@@U__crt_internal_free_policy@@@@QAEPAU__crt_lowio_handle_data@@XZ 1006a628 f i libucrt:osfinfo.obj
 0001:0006962e       ?get@?$__crt_unique_heap_ptr@U__crt_lowio_handle_data@@U__crt_internal_free_policy@@@@QBEPAU__crt_lowio_handle_data@@XZ 1006a62e f i libucrt:osfinfo.obj
 0001:00069631       ?is_valid@?$__crt_unique_heap_ptr@U__crt_lowio_handle_data@@U__crt_internal_free_policy@@@@QBE_NXZ 1006a631 f i libucrt:osfinfo.obj
 0001:0006963b       ?release@?$__crt_unique_heap_ptr@U__crt_lowio_handle_data@@U__crt_internal_free_policy@@@@QAEXXZ 1006a63b f i libucrt:osfinfo.obj
 0001:00069651       ___acrt_lowio_create_handle_array 1006a651 f   libucrt:osfinfo.obj
 0001:000696e9       ___acrt_lowio_destroy_handle_array 1006a6e9 f   libucrt:osfinfo.obj
 0001:0006972b       ___acrt_lowio_ensure_fh_exists 1006a72b f   libucrt:osfinfo.obj
 0001:000697e9       ___acrt_lowio_lock_fh      1006a7e9 f   libucrt:osfinfo.obj
 0001:00069814       ___acrt_lowio_set_os_handle 1006a814 f   libucrt:osfinfo.obj
 0001:000698cd       ___acrt_lowio_unlock_fh    1006a8cd f   libucrt:osfinfo.obj
 0001:000698f8       __alloc_osfhnd             1006a8f8 f   libucrt:osfinfo.obj
 0001:00069a4e       __free_osfhnd              1006aa4e f   libucrt:osfinfo.obj
 0001:00069b03       __get_osfhandle            1006ab03 f   libucrt:osfinfo.obj
 0001:00069b87       __open_osfhandle           1006ab87 f   libucrt:osfinfo.obj
 0001:00069cd8       ___iswcsym                 1006acd8 f i libucrt:_wctype.obj
 0001:00069d07       ___iswcsymf                1006ad07 f i libucrt:_wctype.obj
 0001:00069d36       __isleadbyte_l             1006ad36 f i libucrt:_wctype.obj
 0001:00069d7d       __iswalnum_l               1006ad7d f i libucrt:_wctype.obj
 0001:00069d98       __iswalpha_l               1006ad98 f i libucrt:_wctype.obj
 0001:00069db3       __iswblank_l               1006adb3 f i libucrt:_wctype.obj
 0001:00069dd7       __iswcntrl_l               1006add7 f i libucrt:_wctype.obj
 0001:00069dee       __iswcsym_l                1006adee f i libucrt:_wctype.obj
 0001:00069e1d       __iswcsymf_l               1006ae1d f i libucrt:_wctype.obj
 0001:00069e4c       __iswdigit_l               1006ae4c f i libucrt:_wctype.obj
 0001:00069e63       __iswgraph_l               1006ae63 f i libucrt:_wctype.obj
 0001:00069e7e       __iswlower_l               1006ae7e f i libucrt:_wctype.obj
 0001:00069e95       __iswprint_l               1006ae95 f i libucrt:_wctype.obj
 0001:00069eb0       __iswpunct_l               1006aeb0 f i libucrt:_wctype.obj
 0001:00069ec7       __iswspace_l               1006aec7 f i libucrt:_wctype.obj
 0001:00069ede       __iswupper_l               1006aede f i libucrt:_wctype.obj
 0001:00069ef5       __iswxdigit_l              1006aef5 f i libucrt:_wctype.obj
 0001:00069f10       _isleadbyte                1006af10 f i libucrt:_wctype.obj
 0001:00069f27       _iswalnum                  1006af27 f i libucrt:_wctype.obj
 0001:00069f42       _iswalpha                  1006af42 f i libucrt:_wctype.obj
 0001:00069f5d       _iswascii                  1006af5d f i libucrt:_wctype.obj
 0001:00069f76       _iswblank                  1006af76 f i libucrt:_wctype.obj
 0001:00069f9a       _iswcntrl                  1006af9a f i libucrt:_wctype.obj
 0001:00069fb1       _iswdigit                  1006afb1 f i libucrt:_wctype.obj
 0001:00069fc8       _iswgraph                  1006afc8 f i libucrt:_wctype.obj
 0001:00069fe3       _iswlower                  1006afe3 f i libucrt:_wctype.obj
 0001:00069ffa       _iswprint                  1006affa f i libucrt:_wctype.obj
 0001:0006a015       _iswpunct                  1006b015 f i libucrt:_wctype.obj
 0001:0006a02c       _iswspace                  1006b02c f i libucrt:_wctype.obj
 0001:0006a043       _iswupper                  1006b043 f i libucrt:_wctype.obj
 0001:0006a05a       _iswxdigit                 1006b05a f i libucrt:_wctype.obj
 0001:0006a075       ??0?$__crt_scoped_stack_ptr@_W@@QAE@U?$__crt_scoped_stack_ptr_tag@_W@@@Z 1006b075 f i libucrt:lcmapstringa.obj
 0001:0006a089       ??0?$__crt_scoped_stack_ptr_tag@_W@@QAE@QA_W@Z 1006b089 f i libucrt:lcmapstringa.obj
 0001:0006a09d       ??1?$__crt_scoped_stack_ptr@_W@@QAE@XZ 1006b09d f i libucrt:lcmapstringa.obj
 0001:0006a0a8       ??B?$__crt_scoped_stack_ptr@_W@@QBE_NXZ 1006b0a8 f i libucrt:lcmapstringa.obj
 0001:0006a356       ?get@?$__crt_scoped_stack_ptr@_W@@QBEPA_WXZ 1006b356 f i libucrt:lcmapstringa.obj
 0001:0006a359       __MallocaComputeSize       1006b359 f i libucrt:lcmapstringa.obj
 0001:0006a370       __MarkAllocaS              1006b370 f i libucrt:lcmapstringa.obj
 0001:0006a38b       ___acrt_LCMapStringA       1006b38b f   libucrt:lcmapstringa.obj
 0001:0006a3e8       __freea_crt                1006b3e8 f i libucrt:lcmapstringa.obj
 0001:0006a410       ??$?RG@__crt_internal_free_policy@@QBEXQBG@Z 1006b410 f i libucrt:initctype.obj
 0001:0006a426       ??$?RJ@__crt_internal_free_policy@@QBEXQBJ@Z 1006b426 f i libucrt:initctype.obj
 0001:0006a43c       ??0?$__crt_unique_heap_ptr@GU__crt_internal_free_policy@@@@QAE@QAG@Z 1006b43c f i libucrt:initctype.obj
 0001:0006a450       ??0?$__crt_unique_heap_ptr@JU__crt_internal_free_policy@@@@QAE@QAJ@Z 1006b450 f i libucrt:initctype.obj
 0001:0006a464       ??1?$__crt_unique_heap_ptr@GU__crt_internal_free_policy@@@@QAE@XZ 1006b464 f i libucrt:initctype.obj
 0001:0006a47a       ??1?$__crt_unique_heap_ptr@JU__crt_internal_free_policy@@@@QAE@XZ 1006b47a f i libucrt:initctype.obj
 0001:0006a490       ?detach@?$__crt_unique_heap_ptr@GU__crt_internal_free_policy@@@@QAEPAGXZ 1006b490 f i libucrt:initctype.obj
 0001:0006a496       ?detach@?$__crt_unique_heap_ptr@JU__crt_internal_free_policy@@@@QAEPAJXZ 1006b496 f i libucrt:initctype.obj
 0001:0006a49c       ?release@?$__crt_unique_heap_ptr@GU__crt_internal_free_policy@@@@QAEXXZ 1006b49c f i libucrt:initctype.obj
 0001:0006a4b2       ?release@?$__crt_unique_heap_ptr@JU__crt_internal_free_policy@@@@QAEXXZ 1006b4b2 f i libucrt:initctype.obj
 0001:0006a4c8       ____lc_codepage_func       1006b4c8 f   libucrt:initctype.obj
 0001:0006a4f8       ____lc_collate_cp_func     1006b4f8 f   libucrt:initctype.obj
 0001:0006a528       ____lc_locale_name_func    1006b528 f   libucrt:initctype.obj
 0001:0006a55b       ____mb_cur_max_func        1006b55b f   libucrt:initctype.obj
 0001:0006a58b       ____mb_cur_max_l_func      1006b58b f   libucrt:initctype.obj
 0001:0006a5aa       ___acrt_locale_initialize_ctype 1006b5aa f   libucrt:initctype.obj
 0001:0006aa2f       ___acrt_add_locale_ref     1006ba2f f   libucrt:locale_refcounting.obj
 0001:0006aacb       ___acrt_free_locale        1006bacb f   libucrt:locale_refcounting.obj
 0001:0006ac67       ___acrt_locale_add_lc_time_reference 1006bc67 f   libucrt:locale_refcounting.obj
 0001:0006ac9a       ___acrt_locale_free_lc_time_if_unreferenced 1006bc9a f   libucrt:locale_refcounting.obj
 0001:0006acd6       ___acrt_locale_release_lc_time_reference 1006bcd6 f   libucrt:locale_refcounting.obj
 0001:0006ad09       ___acrt_release_locale_ref 1006bd09 f   libucrt:locale_refcounting.obj
 0001:0006adaa       ___acrt_update_thread_locale_data 1006bdaa f   libucrt:locale_refcounting.obj
 0001:0006ae3e       __updatetlocinfoEx_nolock  1006be3e f   libucrt:locale_refcounting.obj
 0001:0006aea2       ___acrt_fp_strflt_to_string 1006bea2 f   libucrt:_fptostr.obj
 0001:0006c6d0       ??0big_integer@__crt_strtox@@QAE@ABU01@@Z 1006d6d0 f i libucrt:cfout.obj
 0001:0006c710       ??0big_integer@__crt_strtox@@QAE@XZ 1006d710 f i libucrt:cfout.obj
 0001:0006c71b       ??0scoped_fp_state_reset@?A0x48fbfdd4@@QAE@XZ 1006d71b f i libucrt:cfout.obj
 0001:0006c74f       ??1scoped_fp_state_reset@?A0x48fbfdd4@@QAE@XZ 1006d74f f i libucrt:cfout.obj
 0001:0006c760       ??4big_integer@__crt_strtox@@QAEAAU01@ABU01@@Z 1006d760 f i libucrt:cfout.obj
 0001:0006c7a0       ??8__crt_strtox@@YA_NABUbig_integer@0@0@Z 1006d7a0 f i libucrt:cfout.obj
 0001:0006c7f0       ??9__crt_strtox@@YA_NABUbig_integer@0@0@Z 1006d7f0 f i libucrt:cfout.obj
 0001:0006c850       ?add_carry@__crt_strtox@@YAIAAIII@Z 1006d850 f i libucrt:cfout.obj
 0001:0006c880       ?add_multiply_carry@__crt_strtox@@YAIAAIIII@Z 1006d880 f i libucrt:cfout.obj
 0001:0006c8b0       ?bit_scan_reverse@__crt_strtox@@YAII@Z 1006d8b0 f i libucrt:cfout.obj
 0001:0006c8e0       ?count_sequential_high_zeroes@__crt_strtox@@YAII@Z 1006d8e0 f i libucrt:cfout.obj
 0001:0006c910       ?divide@__crt_strtox@@YA_KAAUbig_integer@1@ABU21@@Z 1006d910 f i libucrt:cfout.obj
 0001:0006cef0       ?is_zero@__crt_strtox@@YA_NABUbig_integer@1@@Z 1006def0 f i libucrt:cfout.obj
 0001:0006cf10       ?make_big_integer@__crt_strtox@@YA?AUbig_integer@1@_K@Z 1006df10 f i libucrt:cfout.obj
 0001:0006cf40       ?make_big_integer_power_of_two@__crt_strtox@@YA?AUbig_integer@1@I@Z 1006df40 f i libucrt:cfout.obj
 0001:0006cfa0       ?multiply@__crt_strtox@@YA_NAAUbig_integer@1@ABU21@@Z 1006dfa0 f i libucrt:cfout.obj
 0001:0006d450       ?multiply@__crt_strtox@@YA_NAAUbig_integer@1@I@Z 1006e450 f i libucrt:cfout.obj
 0001:0006d550       ?multiply_64_32@__crt_strtox@@YA_K_KI@Z 1006e550 f i libucrt:cfout.obj
 0001:0006d570       ?multiply_by_power_of_ten@__crt_strtox@@YA_NAAUbig_integer@1@I@Z 1006e570 f i libucrt:cfout.obj
 0001:0006dc70       ?multiply_core@__crt_strtox@@YAIQAIII@Z 1006ec70 f i libucrt:cfout.obj
 0001:0006dcc0       ?shift_left@__crt_strtox@@YA_NAAUbig_integer@1@I@Z 1006ecc0 f i libucrt:cfout.obj
 0001:0006de62       ___acrt_fltout             1006ee62 f   libucrt:cfout.obj
 0001:0006f786       __isatty                   10070786 f   libucrt:isatty.obj
 0001:0006f7f1       ??$?RUlconv@@@__crt_internal_free_policy@@QBEXQBUlconv@@@Z 100707f1 f i libucrt:initmon.obj
 0001:0006f807       ??0?$__crt_unique_heap_ptr@Ulconv@@U__crt_internal_free_policy@@@@QAE@QAUlconv@@@Z 10070807 f i libucrt:initmon.obj
 0001:0006f81b       ??1?$__crt_unique_heap_ptr@Ulconv@@U__crt_internal_free_policy@@@@QAE@XZ 1007081b f i libucrt:initmon.obj
 0001:0006f831       ?detach@?$__crt_unique_heap_ptr@Ulconv@@U__crt_internal_free_policy@@@@QAEPAUlconv@@XZ 10070831 f i libucrt:initmon.obj
 0001:0006f837       ?release@?$__crt_unique_heap_ptr@Ulconv@@U__crt_internal_free_policy@@@@QAEXXZ 10070837 f i libucrt:initmon.obj
 0001:0006f84d       ___acrt_locale_free_monetary 1007084d f   libucrt:initmon.obj
 0001:0006f98a       ___acrt_locale_initialize_monetary 1007098a f   libucrt:initmon.obj
 0001:0006fe7d       ___acrt_locale_free_numeric 10070e7d f   libucrt:initnum.obj
 0001:0006ff00       ___acrt_locale_initialize_numeric 10070f00 f   libucrt:initnum.obj
 0001:000701eb       ??$?RU__crt_lc_time_data@@@__crt_internal_free_policy@@QBEXQBU__crt_lc_time_data@@@Z 100711eb f i libucrt:inittime.obj
 0001:0007028b       ??0?$__crt_unique_heap_ptr@U__crt_lc_time_data@@U__crt_internal_free_policy@@@@QAE@QAU__crt_lc_time_data@@@Z 1007128b f i libucrt:inittime.obj
 0001:0007029f       ??1?$__crt_unique_heap_ptr@U__crt_lc_time_data@@U__crt_internal_free_policy@@@@QAE@XZ 1007129f f i libucrt:inittime.obj
 0001:000702b5       ??B?$__crt_unique_heap_ptr@U__crt_lc_time_data@@U__crt_internal_free_policy@@@@QBE_NXZ 100712b5 f i libucrt:inittime.obj
 0001:000702bf       ?detach@?$__crt_unique_heap_ptr@U__crt_lc_time_data@@U__crt_internal_free_policy@@@@QAEPAU__crt_lc_time_data@@XZ 100712bf f i libucrt:inittime.obj
 0001:00070310       ?get@?$__crt_unique_heap_ptr@U__crt_lc_time_data@@U__crt_internal_free_policy@@@@QBEPAU__crt_lc_time_data@@XZ 10071310 f i libucrt:inittime.obj
 0001:000706a8       ?is_valid@?$__crt_unique_heap_ptr@U__crt_lc_time_data@@U__crt_internal_free_policy@@@@QBE_NXZ 100716a8 f i libucrt:inittime.obj
 0001:000706b2       ?release@?$__crt_unique_heap_ptr@U__crt_lc_time_data@@U__crt_internal_free_policy@@@@QAEXXZ 100716b2 f i libucrt:inittime.obj
 0001:000706c8       ___acrt_locale_free_time   100716c8 f   libucrt:inittime.obj
 0001:000707e5       ___acrt_locale_initialize_time 100717e5 f   libucrt:inittime.obj
 0001:00070983       _wcsncpy_s                 10071983 f   libucrt:wcsncpy_s.obj
 0001:00070990       _wcscspn                   10071990 f   libucrt:wcscspn.obj
 0001:000709f4       _wcsncmp                   100719f4 f   libucrt:wcsncmp.obj
 0001:00070a3c       _wcspbrk                   10071a3c f   libucrt:wcspbrk.obj
 0001:00070a92       ___acrt_GetStringTypeA     10071a92 f   libucrt:getstringtypea.obj
 0001:00071506       ___acrt_get_qualified_locale 10072506 f   libucrt:get_qualified_locale.obj
 0001:000720ad       ___acrt_get_qualified_locale_downlevel 100730ad f   libucrt:getqloc_downlevel.obj
 0001:00072335       _localeconv                10073335 f   libucrt:localeconv.obj
 0001:00072369       ___setfflag                10073369 f   libucrt:fp_flags.obj
 0001:00072383       __87except                 10073383 f   libucrt:87except.obj
 0001:000724d0       __wcsnicmp                 100734d0 f   libucrt:wcsnicmp.obj
 0001:000725b6       __wcsnicmp_l               100735b6 f   libucrt:wcsnicmp.obj
 0001:00072700       _strncmp                   10073700 f   libucrt:strncmp.obj
 0001:00072796       __strnicmp                 10073796 f   libucrt:strnicmp.obj
 0001:0007281d       __strnicmp_l               1007381d f   libucrt:strnicmp.obj
 0001:00072901       ??$__vcrt_va_start_verify_argument_type@$$CBH@@YAXXZ 10073901 f i libucrt:open.obj
 0001:00072cb8       ??$tsopen_nolock@PAHABQAHABQBDABHABHABHABH@?$__crt_char_traits@D@@SAH$$QAPAHABQAHABQBDABH333@Z 10073cb8 f i libucrt:open.obj
 0001:00072cf6       ??$tsopen_nolock@PAHABQAHABQB_WABHABHABHABH@?$__crt_char_traits@_W@@SAH$$QAPAHABQAHABQB_WABH333@Z 10073cf6 f i libucrt:open.obj
 0001:00072d34       ??$tsopen_nolock@PAHPAHABQBDABHHABHH@?$__crt_char_traits@D@@SAH$$QAPAH0ABQBDABH$$QAH23@Z 10073d34 f i libucrt:open.obj
 0001:00072d72       ??$tsopen_nolock@PAHPAHABQB_WABHHABHH@?$__crt_char_traits@_W@@SAH$$QAPAH0ABQB_WABH$$QAH23@Z 10073d72 f i libucrt:open.obj
 0001:00073540       __open                     10074540 f   libucrt:open.obj
 0001:0007355e       __sopen                    1007455e f   libucrt:open.obj
 0001:000735a0       __sopen_dispatch           100745a0 f   libucrt:open.obj
 0001:000735ad       __sopen_nolock             100745ad f   libucrt:open.obj
 0001:00073612       __sopen_s                  10074612 f   libucrt:open.obj
 0001:0007363a       __wopen                    1007463a f   libucrt:open.obj
 0001:00073658       __wsopen                   10074658 f   libucrt:open.obj
 0001:0007369a       __wsopen_dispatch          1007469a f   libucrt:open.obj
 0001:000736a7       __wsopen_nolock            100746a7 f   libucrt:open.obj
 0001:00073a9a       __wsopen_s                 10074a9a f   libucrt:open.obj
 0001:00073ac2       ___p__commode              10074ac2 f   libucrt:ncommode.obj
 0001:00073ac8       ___acrt_stdio_allocate_buffer_nolock 10074ac8 f   libucrt:_getbuf.obj
 0001:00073b3c       ??$?RV<lambda_4980db0136e49a56f91ef52c46ca659a>@@AAV<lambda_6e3e78bb6855d1e4040e022c1b427e22>@@V<lambda_9c074eaf62197b4fd0274ed9e7824161>@@@?$__crt_seh_guarded_call@G@@QAEG$$QAV<lambda_4980db0136e49a56f91ef52c46ca659a>@@AAV<lambda_6e3e78bb6855d1e4040e022c1b427e22>@@$$QAV<lambda_9c074eaf62197b4fd0274ed9e7824161>@@@Z 10074b3c f i libucrt:putwch.obj
 0001:00073bb1       ??$__acrt_lock_and_call@V<lambda_6e3e78bb6855d1e4040e022c1b427e22>@@@@YAGW4__acrt_lock_id@@$$QAV<lambda_6e3e78bb6855d1e4040e022c1b427e22>@@@Z 10074bb1 f i libucrt:putwch.obj
 0001:00073c49       __putwch                   10074c49 f   libucrt:putwch.obj
 0001:00073c6d       __putwch_nolock            10074c6d f   libucrt:putwch.obj
 0001:00073cc3       _nextafter                 10074cc3 f   libucrt:nextafter.obj
 0001:00073ce9       ??1scoped_global_state_reset@__crt_state_management@@QAE@XZ 10074ce9 f i libucrt:qsort.obj
 0001:00073e00       _qsort                     10074e00 f   libucrt:qsort.obj
 0001:0007435d       _strncpy_s                 1007535d f   libucrt:strncpy_s.obj
 0001:00074370       _strpbrk                   10075370 f   libucrt:strpbrk.obj
 0001:000743c0       __mbsdec                   100753c0 f   libucrt:mbsdec.obj
 0001:000743dc       __mbsdec_l                 100753dc f   libucrt:mbsdec.obj
 0001:0007449e       __wcsnicoll                1007549e f   libucrt:wcsnicol.obj
 0001:000745a2       __wcsnicoll_l              100755a2 f   libucrt:wcsnicol.obj
 0001:0007471a       __strnicoll                1007571a f   libucrt:strnicol.obj
 0001:0007474d       __strnicoll_l              1007574d f   libucrt:strnicol.obj
 0001:00074888       __msize                    10075888 f   libucrt:msize.obj
 0001:000748c7       ___strncnt                 100758c7 f   libucrt:strncnt.obj
 0001:00074a23       ___acrt_GetLocaleInfoA     10075a23 f   libucrt:getlocaleinfoa.obj
 0001:00074c41       _fegetenv                  10075c41 f   libucrt:fegetenv.obj
 0001:00074c65       _fesetenv                  10075c65 f   libucrt:fesetenv.obj
 0001:00074cc0       _feholdexcept              10075cc0 f   libucrt:feholdexcept.obj
 0001:00074d30       _log10                     10075d30 f   libucrt:log10.obj
 0001:00074d70       __CIlog10                  10075d70 f   libucrt:log10.obj
 0001:00074dab       __CIlog10_default          10075dab f   libucrt:log10.obj
 0001:00074dbf       __log10_default            10075dbf     libucrt:log10.obj
 0001:00074ee0       _ceil                      10075ee0 f   libucrt:ceil_pentium4.obj
 0001:00074f20       __ceil_pentium4            10075f20 f   libucrt:ceil_pentium4.obj
 0001:00075044       __wcsicmp                  10076044 f   libucrt:wcsicmp.obj
 0001:000750fe       __wcsicmp_l                100760fe f   libucrt:wcsicmp.obj
 0001:00075216       __towlower_l               10076216 f   libucrt:towlower.obj
 0001:00075311       _towlower                  10076311 f   libucrt:towlower.obj
 0001:00075330       ___ascii_strnicmp          10076330 f   libucrt:_strnicm.obj
 0001:000753a9       ??$__crt_interlocked_read@H@@YAHPDH@Z 100763a9 f i libucrt:setmode.obj
 0001:000753b8       __get_fmode                100763b8 f   libucrt:setmode.obj
 0001:000753ef       __set_fmode                100763ef f   libucrt:setmode.obj
 0001:0007543b       __setmode                  1007643b f   libucrt:setmode.obj
 0001:0007558c       __setmode_nolock           1007658c f   libucrt:setmode.obj
 0001:00075691       ??$?RV<lambda_4cfda81533ccf5a03113a1ca40a30445>@@AAV<lambda_1cffa78e445b1da5fba1a2e0e533226f>@@V<lambda_68c952aa1b860373b2109ef12d0bba9d>@@@?$__crt_seh_guarded_call@H@@QAEH$$QAV<lambda_4cfda81533ccf5a03113a1ca40a30445>@@AAV<lambda_1cffa78e445b1da5fba1a2e0e533226f>@@$$QAV<lambda_68c952aa1b860373b2109ef12d0bba9d>@@@Z 10076691 f i libucrt:chsize.obj
 0001:0007573b       ??$__acrt_lowio_lock_fh_and_call@V<lambda_1cffa78e445b1da5fba1a2e0e533226f>@@@@YAHH$$QAV<lambda_1cffa78e445b1da5fba1a2e0e533226f>@@@Z 1007673b f i libucrt:chsize.obj
 0001:0007581d       __chsize                   1007681d f   libucrt:chsize.obj
 0001:00075840       __chsize_nolock            10076840 f   libucrt:chsize.obj
 0001:00075a35       __chsize_s                 10076a35 f   libucrt:chsize.obj
 0001:00075af6       __umask                    10076af6 f   libucrt:umask.obj
 0001:00075b24       __umask_s                  10076b24 f   libucrt:umask.obj
 0001:00075b6d       ___dcrt_lowio_initialize_console_output 10076b6d f   libucrt:initcon.obj
 0001:00075b93       ___dcrt_terminate_console_output 10076b93 f   libucrt:initcon.obj
 0001:00075baf       _nexttoward                10076baf f   libucrt:nexttoward.obj
 0001:00075d60       ___acrt_CompareStringW     10076d60 f   libucrt:comparestringw.obj
 0001:00076134       ___acrt_CompareStringA     10077134 f   libucrt:comparestringa.obj
 0001:0007618e       ___acrt_fenv_get_fp_status_word_from_exception_mask 1007718e f   libucrt:_fenvutils.obj
 0001:000765d1       __getfpcontrolword         100775d1 f   libucrt:_fenvutils.obj
 0001:00076624       __getfpstatusword          10077624 f   libucrt:_fenvutils.obj
 0001:000766f6       __setfpcontrolword         100776f6 f   libucrt:_fenvutils.obj
 0001:00076796       __setfpstatusword          10077796 f   libucrt:_fenvutils.obj
 0001:000769cc       ___control87_2             100779cc f   libucrt:ieee87.obj
 0001:00076fa0       ___fpreset_sse2            10077fa0 f   libucrt:ieee87.obj
 0001:000771f3       __clearfp                  100781f3 f   libucrt:ieee87.obj
 0001:00077308       __control87                10078308 f   libucrt:ieee87.obj
 0001:000776ca       __controlfp                100786ca f   libucrt:ieee87.obj
 0001:000776ea       __fpreset                  100786ea f   libucrt:ieee87.obj
 0001:000777e7       __set_controlfp            100787e7 f   libucrt:ieee87.obj
 0001:0007787d       __statusfp                 1007887d f   libucrt:ieee87.obj
 0001:00077940       __statusfp2                10078940 f   libucrt:ieee87.obj
 0001:000779bd       ___acrt_initialize_sse2    100789bd f   libucrt:mathfcns.obj
 0001:000779cf       __set_SSE2_enable          100789cf f   libucrt:mathfcns.obj
 0001:00077a00       __CIlog10_pentium4         10078a00 f   libucrt:log10_pentium4.obj
 0001:00077a18       __log10_pentium4           10078a18     libucrt:log10_pentium4.obj
 0001:00077d51       __fFEXP                    10078d51     libucrt:87tran.obj
 0001:00077da8       __rtinfpopse               10078da8     libucrt:87tran.obj
 0001:00077daa       __rtinfnpopse              10078daa     libucrt:87tran.obj
 0001:00077dba       __fFLN                     10078dba     libucrt:87tran.obj
 0001:00077e6f       __rtinfpop                 10078e6f     libucrt:87tran.obj
 0001:00077e71       __rtinfnpop                10078e71     libucrt:87tran.obj
 0001:00077e8e       __ffexpm1                  10078e8e     libucrt:87tran.obj
 0001:00077fc0       __twoToTOS                 10078fc0 f   libucrt:common.obj
 0001:00077fd5       __load_CW                  10078fd5 f   libucrt:common.obj
 0001:00077fec       __convertTOStoQNaN         10078fec f   libucrt:common.obj
 0001:00078005       __fload_withFB             10079005 f   libucrt:common.obj
 0001:00078048       __checkTOS_withFB          10079048 f   libucrt:common.obj
 0001:0007805e       __fast_exit                1007905e f   libucrt:common.obj
 0001:0007806b       __math_exit                1007906b f   libucrt:common.obj
 0001:00078095       __check_overflow_exit      10079095 f   libucrt:common.obj
 0001:000780a9       __check_range_exit         100790a9 f   libucrt:common.obj
 0001:000781b0       __startTwoArgErrorHandling 100791b0 f   libucrt:genexcep.obj
 0001:000781c7       __startOneArgErrorHandling 100791c7 f   libucrt:genexcep.obj
 0001:00078217       ___libm_error_support      10079217 f   libucrt:libm_error.obj
 0001:000784b5       ___libm_setusermatherr     100794b5 f   libucrt:libm_error.obj
 0001:000784ee       __ceil_default             100794ee f   libucrt:ceil.obj
 0001:000785d5       ___acrt_LCMapStringW       100795d5 f   libucrt:lcmapstringw.obj
 0001:00078622       ___p__fmode                10079622 f   libucrt:txtmode.obj
 0001:00078628       __d_int                    10079628 f   libucrt:_test.obj
 0001:00078770       __dtest                    10079770 f   libucrt:_test.obj
 0001:000787ed       __fd_int                   100797ed f   libucrt:_test.obj
 0001:000788ef       __fdtest                   100798ef f   libucrt:_test.obj
 0001:00078950       __fperrraise               10079950 f   libucrt:_test.obj
 0001:0007897b       __ld_int                   1007997b f   libucrt:_test.obj
 0001:00078988       __ldtest                   10079988 f   libucrt:_test.obj
 0001:00078a2d       __controlfp_s              10079a2d f   libucrt:contrlfp.obj
 0001:00078aa3       __d_inttype                10079aa3 f   libucrt:powhlp.obj
 0001:00078b27       __powhlp                   10079b27 f   libucrt:powhlp.obj
 0001:00078c9c       __frnd                     10079c9c f   libucrt:frnd.obj
 0001:00078cb7       _fegetexceptflag           10079cb7 f   libucrt:fegetexceptflag.obj
 0001:00078cf4       _fesetexceptflag           10079cf4 f   libucrt:fesetexceptflag.obj
 0001:00078d55       _fetestexcept              10079d55 f   libucrt:fetestexcept.obj
 0001:00078d80       __FindPESection            10079d80 f   LIBCMT:pesect.obj
 0001:00078de0       __IsNonwritableInCurrentImage 10079de0 f   LIBCMT:pesect.obj
 0001:00078ed0       __ValidateImageBase        10079ed0 f   LIBCMT:pesect.obj
 0001:00078f10       __aulldvrm                 10079f10 f   LIBCMT:ulldvrm.obj
 0001:00078fca       ??1type_info@@UAE@XZ       10079fca f   LIBCMT:std_type_info_static.obj
 0001:00078fd1       ??_Gtype_info@@UAEPAXI@Z   10079fd1 f i LIBCMT:std_type_info_static.obj
 0001:00078fd1       ??_Etype_info@@UAEPAXI@Z   10079fd1 f i LIBCMT:std_type_info_static.obj
 0001:00079000       __SEH_prolog4_GS           1007a000 f   LIBCMT:_sehprolg4gs_.obj
 0001:00079049       __SEH_epilog4_GS           1007a049 f   LIBCMT:_sehprolg4gs_.obj
 0001:00079070       __allmul                   1007a070 f   LIBCMT:llmul.obj
 0001:000790c0       __alldvrm                  1007a0c0 f   LIBCMT:lldvrm.obj
 0001:000791e0       __aullshr                  1007a1e0 f   LIBCMT:ullshr.obj
 0001:00079210       __alloca_probe             1007a210 f   LIBCMT:chkstk.obj
 0001:00079210       __chkstk                   1007a210 f   LIBCMT:chkstk.obj
 0001:00079250       __alloca_probe_16          1007a250 f   LIBCMT:alloca16.obj
 0001:00079266       __alloca_probe_8           1007a266     LIBCMT:alloca16.obj
 0001:00079290       __allshl                   1007a290 f   LIBCMT:llshl.obj
 0001:000792c0       __ftol2_sse                1007a2c0 f   LIBCMT:_ftol2_.obj
 0001:000792c9       __ftol2_pentium4           1007a2c9 f   LIBCMT:_ftol2_.obj
 0001:000792dc       __ftol2_sse_excpt          1007a2dc f   LIBCMT:_ftol2_.obj
 0001:00079300       __ftol2                    1007a300 f   LIBCMT:_ftol2_.obj
 0001:000793a2       __initialize_default_precision 1007a3a2 f   LIBCMT:default_precision.obj
 0001:000793cb       ??3@YAXPAXI@Z              1007a3cb f   LIBCMT:delete_scalar_size.obj
 0001:000793dc       ??3@YAXPAX@Z               1007a3dc f   LIBCMT:delete_scalar.obj
 0001:000793e2       _InterlockedPushEntrySList@8 1007a3e2 f   kernel32:KERNEL32.dll
 0001:000793e8       _InterlockedFlushSList@4   1007a3e8 f   kernel32:KERNEL32.dll
 0001:000793ee       _RtlUnwind@16              1007a3ee f   kernel32:KERNEL32.dll
 0001:000793f4       _GetLastError@0            1007a3f4 f   kernel32:KERNEL32.dll
 0001:000793fa       _SetLastError@4            1007a3fa f   kernel32:KERNEL32.dll
 0001:00079400       _EnterCriticalSection@4    1007a400 f   kernel32:KERNEL32.dll
 0001:00079406       _LeaveCriticalSection@4    1007a406 f   kernel32:KERNEL32.dll
 0001:0007940c       _DeleteCriticalSection@4   1007a40c f   kernel32:KERNEL32.dll
 0001:00079412       _InitializeCriticalSectionAndSpinCount@8 1007a412 f   kernel32:KERNEL32.dll
 0001:00079418       _TlsAlloc@0                1007a418 f   kernel32:KERNEL32.dll
 0001:0007941e       _TlsGetValue@4             1007a41e f   kernel32:KERNEL32.dll
 0001:00079424       _TlsSetValue@8             1007a424 f   kernel32:KERNEL32.dll
 0001:0007942a       _TlsFree@4                 1007a42a f   kernel32:KERNEL32.dll
 0001:00079430       _FreeLibrary@4             1007a430 f   kernel32:KERNEL32.dll
 0001:00079436       _LoadLibraryExW@12         1007a436 f   kernel32:KERNEL32.dll
 0001:0007943c       _ExitProcess@4             1007a43c f   kernel32:KERNEL32.dll
 0001:00079442       _GetModuleHandleExW@12     1007a442 f   kernel32:KERNEL32.dll
 0001:00079448       _GetStdHandle@4            1007a448 f   kernel32:KERNEL32.dll
 0001:0007944e       _GetFileType@4             1007a44e f   kernel32:KERNEL32.dll
 0001:00079454       _GetModuleFileNameA@12     1007a454 f   kernel32:KERNEL32.dll
 0001:0007945a       _GetModuleFileNameW@12     1007a45a f   kernel32:KERNEL32.dll
 0001:00079460       _WriteConsoleW@20          1007a460 f   kernel32:KERNEL32.dll
 0001:00079466       _RaiseException@16         1007a466 f   kernel32:KERNEL32.dll
 0001:0007946c       _MultiByteToWideChar@24    1007a46c f   kernel32:KERNEL32.dll
 0001:00079472       _WideCharToMultiByte@32    1007a472 f   kernel32:KERNEL32.dll
 0001:00079478       _HeapFree@12               1007a478 f   kernel32:KERNEL32.dll
 0001:0007947e       _HeapAlloc@12              1007a47e f   kernel32:KERNEL32.dll
 0001:00079484       _GetDateFormatW@24         1007a484 f   kernel32:KERNEL32.dll
 0001:0007948a       _GetTimeFormatW@24         1007a48a f   kernel32:KERNEL32.dll
 0001:00079490       _CompareStringW@24         1007a490 f   kernel32:KERNEL32.dll
 0001:00079496       _LCMapStringW@24           1007a496 f   kernel32:KERNEL32.dll
 0001:0007949c       _GetLocaleInfoW@16         1007a49c f   kernel32:KERNEL32.dll
 0001:000794a2       _IsValidLocale@8           1007a4a2 f   kernel32:KERNEL32.dll
 0001:000794a8       _GetUserDefaultLCID@0      1007a4a8 f   kernel32:KERNEL32.dll
 0001:000794ae       _EnumSystemLocalesW@8      1007a4ae f   kernel32:KERNEL32.dll
 0001:000794b4       _GetCurrentThread@0        1007a4b4 f   kernel32:KERNEL32.dll
 0001:000794ba       _GetACP@0                  1007a4ba f   kernel32:KERNEL32.dll
 0001:000794c0       _HeapReAlloc@16            1007a4c0 f   kernel32:KERNEL32.dll
 0001:000794c6       _ReadFile@20               1007a4c6 f   kernel32:KERNEL32.dll
 0001:000794cc       _GetConsoleMode@8          1007a4cc f   kernel32:KERNEL32.dll
 0001:000794d2       _ReadConsoleW@20           1007a4d2 f   kernel32:KERNEL32.dll
 0001:000794d8       _WriteFile@20              1007a4d8 f   kernel32:KERNEL32.dll
 0001:000794de       _GetConsoleCP@0            1007a4de f   kernel32:KERNEL32.dll
 0001:000794e4       _DeleteFileW@4             1007a4e4 f   kernel32:KERNEL32.dll
 0001:000794ea       _SetFilePointerEx@20       1007a4ea f   kernel32:KERNEL32.dll
 0001:000794f0       _OutputDebugStringA@4      1007a4f0 f   kernel32:KERNEL32.dll
 0001:000794f6       _OutputDebugStringW@4      1007a4f6 f   kernel32:KERNEL32.dll
 0001:000794fc       _WaitForSingleObjectEx@12  1007a4fc f   kernel32:KERNEL32.dll
 0001:00079502       _SetConsoleCtrlHandler@8   1007a502 f   kernel32:KERNEL32.dll
 0001:00079508       _FindClose@4               1007a508 f   kernel32:KERNEL32.dll
 0001:0007950e       _FindFirstFileExA@24       1007a50e f   kernel32:KERNEL32.dll
 0001:00079514       _FindFirstFileExW@24       1007a514 f   kernel32:KERNEL32.dll
 0001:0007951a       _FindNextFileA@8           1007a51a f   kernel32:KERNEL32.dll
 0001:00079520       _FindNextFileW@8           1007a520 f   kernel32:KERNEL32.dll
 0001:00079526       _IsValidCodePage@4         1007a526 f   kernel32:KERNEL32.dll
 0001:0007952c       _GetOEMCP@0                1007a52c f   kernel32:KERNEL32.dll
 0001:00079532       _GetCPInfo@8               1007a532 f   kernel32:KERNEL32.dll
 0001:00079538       _GetCommandLineA@0         1007a538 f   kernel32:KERNEL32.dll
 0001:0007953e       _GetCommandLineW@0         1007a53e f   kernel32:KERNEL32.dll
 0001:00079544       _GetEnvironmentStringsW@0  1007a544 f   kernel32:KERNEL32.dll
 0001:0007954a       _FreeEnvironmentStringsW@4 1007a54a f   kernel32:KERNEL32.dll
 0001:00079550       _SetEnvironmentVariableA@8 1007a550 f   kernel32:KERNEL32.dll
 0001:00079556       _SetEnvironmentVariableW@8 1007a556 f   kernel32:KERNEL32.dll
 0001:0007955c       _GetProcessHeap@0          1007a55c f   kernel32:KERNEL32.dll
 0001:00079562       _GetStringTypeW@16         1007a562 f   kernel32:KERNEL32.dll
 0001:00079568       _FlushFileBuffers@4        1007a568 f   kernel32:KERNEL32.dll
 0001:0007956e       _SetStdHandle@8            1007a56e f   kernel32:KERNEL32.dll
 0001:00079574       _CreateFileW@28            1007a574 f   kernel32:KERNEL32.dll
 0001:0007957a       _HeapSize@12               1007a57a f   kernel32:KERNEL32.dll
 0001:00079580       _SetEndOfFile@4            1007a580 f   kernel32:KERNEL32.dll
 0001:00079586       _EncodePointer@4           1007a586 f   kernel32:KERNEL32.dll
 0001:0007958c       _DecodePointer@4           1007a58c f   kernel32:KERNEL32.dll
 0001:000795a0       _strrchr                   1007a5a0 f   libvcruntime:strrchr.obj
 0001:00079887       _memcmp                    1007a887 f   libvcruntime:_memcmp_.obj
 0001:0007d36f       _wcschr                    1007e36f f   libvcruntime:wcschr.obj
 0002:00000000       ___xc_a                    10080000     LIBCMT:initializers.obj
 0002:00000104       ___xc_z                    10080104     LIBCMT:initializers.obj
 0002:00000208       ___xi_a                    10080208     LIBCMT:initializers.obj
 0002:0000030c       ___acrt_stdio_initializer  1008030c     libucrt:stdio_initializer.obj
 0002:00000310       ___acrt_multibyte_initializer 10080310     libucrt:multibyte_initializer.obj
 0002:00000314       ___acrt_tran_sse2_initializer 10080314     libucrt:sse2_initializer.obj
 0002:0000041c       ___xi_z                    1008041c     LIBCMT:initializers.obj
 0002:00000520       ___xp_a                    10080520     LIBCMT:initializers.obj
 0002:00000624       ___acrt_locale_terminator  10080624     libucrt:locale_initializer.obj
 0002:00000628       ___dcrt_console_output_terminator 10080628     libucrt:console_output_initializer.obj
 0002:00000730       ___acrt_stdio_terminator   10080730     libucrt:stdio_initializer.obj
 0002:00000834       ___xp_z                    10080834     LIBCMT:initializers.obj
 0002:00000938       ___xt_a                    10080938     LIBCMT:initializers.obj
 0002:00000a3c       ___xt_z                    10080a3c     LIBCMT:initializers.obj
 0002:00000b40       _aaa_RGND                  10080b40     aaa.obj
 0002:00000b48       _aaa_M                     10080b48     aaa.obj
 0002:00000b50       ??_C@_0BI@PAJNFNID@Error?5creating?5scope?55?6?$AA@ 10080b50     aaa.obj
 0002:00000b6c       ??_C@_0BO@JEGFKAKH@Subsystem2?1shoudong?1Chart?1p26?$AA@ 10080b6c     aaa.obj
 0002:00000b90       ??_C@_0BO@INHOJBOG@Subsystem2?1shoudong?1Chart?1p27?$AA@ 10080b90     aaa.obj
 0002:00000bb4       ??_C@_06KFNFIEK@?$CF15?46f?$AA@ 10080bb4     aaa.obj
 0002:00000bbc       ??_C@_0BI@PEBACBDB@Error?5creating?5scope?53?6?$AA@ 10080bbc     aaa.obj
 0002:00000bd8       ??_C@_0BP@BPJIAEHP@Subsystem2?1Multiport?5Switch?1s1?$AA@ 10080bd8     aaa.obj
 0002:00000c00       ??_C@_0BP@DELFFHLM@Subsystem2?1Multiport?5Switch?1s2?$AA@ 10080c00     aaa.obj
 0002:00000c28       ??_C@_0BP@CNKOGGPN@Subsystem2?1Multiport?5Switch?1s3?$AA@ 10080c28     aaa.obj
 0002:00000c50       ??_C@_0BP@GCOPPADK@Subsystem2?1Multiport?5Switch?1s4?$AA@ 10080c50     aaa.obj
 0002:00000c78       ??_C@_0BP@HLPEMBHL@Subsystem2?1Multiport?5Switch?1s5?$AA@ 10080c78     aaa.obj
 0002:00000ca0       ??_C@_0BP@FANJJCLI@Subsystem2?1Multiport?5Switch?1s6?$AA@ 10080ca0     aaa.obj
 0002:00000cc8       ??_C@_0BP@EJMCKDPJ@Subsystem2?1Multiport?5Switch?1s7?$AA@ 10080cc8     aaa.obj
 0002:00000cf0       ??_C@_0BP@MOFKLPDG@Subsystem2?1Multiport?5Switch?1s8?$AA@ 10080cf0     aaa.obj
 0002:00000d18       ??_C@_0BI@PHJEPFFP@Error?5creating?5scope?51?6?$AA@ 10080d18     aaa.obj
 0002:00000d34       ??_C@_0BJ@KJPPDLK@Data?5Type?5Conversion5?1s1?$AA@ 10080d34     aaa.obj
 0002:00000d54       ??_C@_0BJ@CBLCKAHJ@Data?5Type?5Conversion5?1s2?$AA@ 10080d54     aaa.obj
 0002:00000d74       ??_C@_0BJ@DIKJJBDI@Data?5Type?5Conversion5?1s3?$AA@ 10080d74     aaa.obj
 0002:00000d94       ??_C@_0BJ@HHOIAHPP@Data?5Type?5Conversion5?1s4?$AA@ 10080d94     aaa.obj
 0002:00000db4       ??_C@_0BJ@GOPDDGLO@Data?5Type?5Conversion5?1s5?$AA@ 10080db4     aaa.obj
 0002:00000dd4       ??_C@_0BI@PFNCELAG@Error?5creating?5scope?52?6?$AA@ 10080dd4     aaa.obj
 0002:00000df0       ??_C@_0BJ@HAFPKANK@Data?5Type?5Conversion7?1s1?$AA@ 10080df0     aaa.obj
 0002:00000e10       ??_C@_0BJ@FLHCPDBJ@Data?5Type?5Conversion7?1s2?$AA@ 10080e10     aaa.obj
 0002:00000e30       ??_C@_0BJ@ECGJMCFI@Data?5Type?5Conversion7?1s3?$AA@ 10080e30     aaa.obj
 0002:00000e50       ??_C@_0BJ@NCIFEJP@Data?5Type?5Conversion7?1s4?$AA@ 10080e50     aaa.obj
 0002:00000e70       ??_C@_0BJ@BEDDGFNO@Data?5Type?5Conversion7?1s5?$AA@ 10080e70     aaa.obj
 0002:00000e90       ??_C@_0BJ@DPBODGBN@Data?5Type?5Conversion7?1s6?$AA@ 10080e90     aaa.obj
 0002:00000eb0       ??_C@_0BJ@CGAFAHFM@Data?5Type?5Conversion7?1s7?$AA@ 10080eb0     aaa.obj
 0002:00000ed0       ??_C@_0BJ@KBJNBLJD@Data?5Type?5Conversion7?1s8?$AA@ 10080ed0     aaa.obj
 0002:00000ef0       ??_C@_0BJ@LIIGCKNC@Data?5Type?5Conversion7?1s9?$AA@ 10080ef0     aaa.obj
 0002:00000f10       ??_C@_0BK@LJDAFCJJ@Data?5Type?5Conversion7?1s10?$AA@ 10080f10     aaa.obj
 0002:00000f30       ??_C@_0BK@KACLGDNI@Data?5Type?5Conversion7?1s11?$AA@ 10080f30     aaa.obj
 0002:00000f50       ??_C@_0BI@PBFPDHLE@Error?5creating?5scope?54?6?$AA@ 10080f50     aaa.obj
 0002:00000f6c       ??_C@_0BK@BFBDLNEM@Data?5Type?5Conversion24?1s1?$AA@ 10080f6c     aaa.obj
 0002:00000f8c       ??_C@_0BK@DODOOOIP@Data?5Type?5Conversion24?1s2?$AA@ 10080f8c     aaa.obj
 0002:00000fac       ??_C@_0BK@CHCFNPMO@Data?5Type?5Conversion24?1s3?$AA@ 10080fac     aaa.obj
 0002:00000fcc       ??_C@_0BK@GIGEEJAJ@Data?5Type?5Conversion24?1s4?$AA@ 10080fcc     aaa.obj
 0002:00000fec       ??_C@_0BK@HBHPHIEI@Data?5Type?5Conversion24?1s5?$AA@ 10080fec     aaa.obj
 0002:0000100c       ??_C@_0BK@FKFCCLIL@Data?5Type?5Conversion24?1s6?$AA@ 1008100c     aaa.obj
 0002:0000102c       ??_C@_0BK@EDEJBKMK@Data?5Type?5Conversion24?1s7?$AA@ 1008102c     aaa.obj
 0002:0000104c       ??_C@_0BK@MENBAGAF@Data?5Type?5Conversion24?1s8?$AA@ 1008104c     aaa.obj
 0002:0000106c       ??_C@_0BK@NNMKDHEE@Data?5Type?5Conversion24?1s9?$AA@ 1008106c     aaa.obj
 0002:0000108c       ??_C@_0BL@KADJCIPF@Data?5Type?5Conversion24?1s10?$AA@ 1008108c     aaa.obj
 0002:000010ac       ??_C@_0BL@LJCCBJLE@Data?5Type?5Conversion24?1s11?$AA@ 100810ac     aaa.obj
 0002:000010cc       ??_C@_0BL@JCAPEKHH@Data?5Type?5Conversion24?1s12?$AA@ 100810cc     aaa.obj
 0002:000010ec       ??_C@_0BI@PCNLODNK@Error?5creating?5scope?56?6?$AA@ 100810ec     aaa.obj
 0002:00001108       ??_C@_0BK@FCLDMHJM@Data?5Type?5Conversion27?1s1?$AA@ 10081108     aaa.obj
 0002:00001128       ??_C@_0BK@GAIFKFBO@Data?5Type?5Conversion27?1s3?$AA@ 10081128     aaa.obj
 0002:00001148       ??_C@_0BK@DGNPACJI@Data?5Type?5Conversion27?1s5?$AA@ 10081148     aaa.obj
 0002:00001168       ??_C@_0BI@PDBJIJON@Error?5creating?5scope?57?6?$AA@ 10081168     aaa.obj
 0002:00001184       ??_C@_0CC@MIAOOJLC@chuanganqi?1CAN?5bit?9unpacking?55?1p@ 10081184     aaa.obj
 0002:000011ac       ??_C@_0CC@ODCDLKHB@chuanganqi?1CAN?5bit?9unpacking?55?1p@ 100811ac     aaa.obj
 0002:000011d4       ??_C@_0CC@PKDIILDA@chuanganqi?1CAN?5bit?9unpacking?55?1p@ 100811d4     aaa.obj
 0002:000011fc       ??_C@_0BC@OJJPBDHH@FixedStepDiscrete?$AA@ 100811fc     aaa.obj
 0002:00001214       ??_C@_04EPKDLPPB@tout?$AA@ 10081214     aaa.obj
 0002:0000121a       ??_C@_00CNPNBAHC@?$AA@     1008121a     aaa.obj
 0002:0000121c       ??_C@_03HBFGMJOD@rt_?$AA@  1008121c     aaa.obj
 0002:00001220       ??_C@_0M@JNFNAMK@PCI1716DIO1?$AA@ 10081220     aaa.obj
 0002:00001230       ??_C@_0BI@ODILACLF@aaa?1PCI1716?1PCI1716DIO1?$AA@ 10081230     aaa.obj
 0002:0000124c       ??_C@_0O@GHMOKHOA@PCI?96208A?5DA?5?$AA@ 1008124c     aaa.obj
 0002:0000125c       ??_C@_0BK@KOFEEMDL@aaa?1PCI6208?1PCI?96208A?5DA?5?$AA@ 1008125c     aaa.obj
 0002:0000127c       ??_C@_06LJFBBHBB@Setup?5?$AA@ 1008127c     aaa.obj
 0002:00001284       ??_C@_0BG@IAKKKDIO@aaa?1chuanganqi?1Setup?5?$AA@ 10081284     aaa.obj
 0002:000012a0       ??_C@_08MGPIFPJK@PCI?91784?$AA@ 100812a0     aaa.obj
 0002:000012ac       ??_C@_0N@GABLDPKP@aaa?1PCI?91784?$AA@ 100812ac     aaa.obj
 0002:000012c0       __real@3d90898717660383    100812c0     aaa.obj
 0002:000012d0       __real@3d908987941b2364    100812d0     aaa.obj
 0002:000012e0       __real@3df7a45df0d9b4e6    100812e0     aaa.obj
 0002:000012f0       __real@3df9f61a130ebaee    100812f0     aaa.obj
 0002:00001300       __real@3e4e106771ba06bb    10081300     aaa.obj
 0002:00001310       __real@3e524b0130be3d37    10081310     aaa.obj
 0002:00001320       __real@3e966f6443ff4293    10081320     aaa.obj
 0002:00001330       __real@3e9e7641c5f26c23    10081330     aaa.obj
 0002:00001340       __real@3ed5e36f45ef8e41    10081340     aaa.obj
 0002:00001350       __real@3ee099d8aa22cd61    10081350     aaa.obj
 0002:00001360       __real@3f0d89cf8abc1bf7    10081360     aaa.obj
 0002:00001370       __real@3f18d32786b59822    10081370     aaa.obj
 0002:00001380       __real@3f3c8506ca8afcfc    10081380     aaa.obj
 0002:00001390       __real@3f4a0e46db88d036    10081390     aaa.obj
 0002:000013a0       __real@3f60624dd2f1a9fc    100813a0     aaa.obj
 0002:000013b0       __real@3f63d1b169c476cb    100813b0     aaa.obj
 0002:000013c0       __real@3f6402cf1054cd6f    100813c0     aaa.obj
 0002:000013d0       __real@3f737dffbd692755    100813d0     aaa.obj
 0002:000013e0       __real@3f747ae147ae147b    100813e0     aaa.obj
 0002:000013f0       __real@3f7acd98bd37950d    100813f0     aaa.obj
 0002:00001400       __real@3f841d3961119ee4    10081400     aaa.obj
 0002:00001410       __real@3f847ae147ae147b    10081410     aaa.obj
 0002:00001420       __real@3f91a4eb723d259d    10081420     aaa.obj
 0002:00001430       __real@3f953ca6d2040211    10081430     aaa.obj
 0002:00001440       __real@3f9b9592ddd16352    10081440     aaa.obj
 0002:00001450       __real@3f9eb851eb851eb8    10081450     aaa.obj
 0002:00001460       __real@3faa535442bdb407    10081460     aaa.obj
 0002:00001470       __real@3fadea720405e6a1    10081470     aaa.obj
 0002:00001480       __real@3fb13b1bd5a941b7    10081480     aaa.obj
 0002:00001490       __real@3fb3ac8c47fee351    10081490     aaa.obj
 0002:000014a0       __real@3fba6e473326b514    100814a0     aaa.obj
 0002:000014b0       __real@3fc3e30b7c6eae05    100814b0     aaa.obj
 0002:000014c0       __real@3fc9ca7462fdd64b    100814c0     aaa.obj
 0002:000014d0       __real@3fdb9a241ea3f5a0    100814d0     aaa.obj
 0002:000014e0       __real@3fe0000000000000    100814e0     aaa.obj
 0002:000014f0       __real@3ff0000000000000    100814f0     aaa.obj
 0002:00001500       __real@4000000000000000    10081500     aaa.obj
 0002:00001510       __real@4001715afdc27a1d    10081510     aaa.obj
 0002:00001520       __real@400654f4a220e760    10081520     aaa.obj
 0002:00001530       __real@4008000000000000    10081530     aaa.obj
 0002:00001540       __real@4010000000000000    10081540     aaa.obj
 0002:00001550       __real@4014000000000000    10081550     aaa.obj
 0002:00001560       __real@4018000000000000    10081560     aaa.obj
 0002:00001570       __real@401c000000000000    10081570     aaa.obj
 0002:00001580       __real@4020000000000000    10081580     aaa.obj
 0002:00001590       __real@4022000000000000    10081590     aaa.obj
 0002:000015a0       __real@4024000000000000    100815a0     aaa.obj
 0002:000015b0       __real@4026000000000000    100815b0     aaa.obj
 0002:000015c0       __real@4028000000000000    100815c0     aaa.obj
 0002:000015d0       __real@402a000000000000    100815d0     aaa.obj
 0002:000015e0       __real@402c000000000000    100815e0     aaa.obj
 0002:000015f0       __real@402e000000000000    100815f0     aaa.obj
 0002:00001600       __real@4030000000000000    10081600     aaa.obj
 0002:00001610       __real@4034000f9367d0d3    10081610     aaa.obj
 0002:00001620       __real@406f400000000000    10081620     aaa.obj
 0002:00001630       __real@4070000000000000    10081630     aaa.obj
 0002:00001640       __real@4082c0002b39662d    10081640     aaa.obj
 0002:00001650       __real@41f0000000000000    10081650     aaa.obj
 0002:00001660       __real@4330000000000000    10081660     aaa.obj
 0002:00001670       __real@8000000000000000    10081670     aaa.obj
 0002:00001680       __real@bff0000000000000    10081680     aaa.obj
 0002:00001690       __xmm@00000000000000003ff0000000000000 10081690     aaa.obj
 0002:000016b0       __xmm@00000001000000010000000100000001 100816b0     aaa.obj
 0002:000016d0       __xmm@0000022c000001c9000002f900000002 100816d0     aaa.obj
 0002:000016f0       __xmm@3f60624dd2f1a9fc0000000000000000 100816f0     aaa.obj
 0002:00001710       __xmm@3ff00000000000000000000000000000 10081710     aaa.obj
 0002:00001730       __xmm@3ff00000000000003ff0000000000000 10081730     aaa.obj
 0002:00001750       __xmm@41f00000000000000000000000000000 10081750     aaa.obj
 0002:00001770       __xmm@7fffffffffffffff7fffffffffffffff 10081770     aaa.obj
 0002:00007d14       ??_C@_08CHMPKCOC@Constant?$AA@ 10087d14     aaa_capi.obj
 0002:00007d20       ??_C@_0N@DIGCPNGN@?K?$KO?$LC?U?W?n?$LE?s?Q?$LJ?A?$KG?$AA@ 10087d20     aaa_capi.obj
 0002:00007d30       ??_C@_09NOCEOMMC@Constant7?$AA@ 10087d30     aaa_capi.obj
 0002:00007d3c       ??_C@_0BD@OIHKCOHP@?M?$LJ?D?$KE?I?O?O?B?G?$LL?W?n?$LE?s?Q?$LJ?A?$KG?$AA@ 10087d3c     aaa_capi.obj
 0002:00007d54       ??_C@_09FJLMPAAN@Constant8?$AA@ 10087d54     aaa_capi.obj
 0002:00007d60       ??_C@_0BD@NGMFOPHF@?M?$LJ?D?$KE?I?O?O?B?G?$LL?W?n?P?$KB?Q?$LJ?A?$KG?$AA@ 10087d60     aaa_capi.obj
 0002:00007d78       ??_C@_0N@BDJHIDIJ@diancifa11_3?$AA@ 10087d78     aaa_capi.obj
 0002:00007d88       ??_C@_0N@FMNGBFEO@diancifa11_4?$AA@ 10087d88     aaa_capi.obj
 0002:00007d98       ??_C@_0N@JHFLIKHB@diancifa16_2?$AA@ 10087d98     aaa_capi.obj
 0002:00007da8       ??_C@_0N@IOEALLDA@diancifa16_3?$AA@ 10087da8     aaa_capi.obj
 0002:00007db8       ??_C@_06EACHIIHE@jiting?$AA@ 10087db8     aaa_capi.obj
 0002:00007dc0       ??_C@_0BG@OOMJLOH@Data?5Type?5Conversion1?$AA@ 10087dc0     aaa_capi.obj
 0002:00007ddc       ??_C@_0BH@OBCGKNLD@Data?5Type?5Conversion10?$AA@ 10087ddc     aaa_capi.obj
 0002:00007df8       ??_C@_0BH@PIDNJMPC@Data?5Type?5Conversion11?$AA@ 10087df8     aaa_capi.obj
 0002:00007e14       ??_C@_0BH@NDBAMPDB@Data?5Type?5Conversion12?$AA@ 10087e14     aaa_capi.obj
 0002:00007e30       ??_C@_0BH@MKALPOHA@Data?5Type?5Conversion13?$AA@ 10087e30     aaa_capi.obj
 0002:00007e4c       ??_C@_0BH@IFEKGILH@Data?5Type?5Conversion14?$AA@ 10087e4c     aaa_capi.obj
 0002:00007e68       ??_C@_0BH@JMFBFJPG@Data?5Type?5Conversion15?$AA@ 10087e68     aaa_capi.obj
 0002:00007e84       ??_C@_0BH@LHHMAKDF@Data?5Type?5Conversion16?$AA@ 10087e84     aaa_capi.obj
 0002:00007ea0       ??_C@_0BH@KOGHDLHE@Data?5Type?5Conversion17?$AA@ 10087ea0     aaa_capi.obj
 0002:00007ebc       ??_C@_0BH@CJPPCHLL@Data?5Type?5Conversion18?$AA@ 10087ebc     aaa_capi.obj
 0002:00007ed8       ??_C@_0BH@DAOEBGPK@Data?5Type?5Conversion19?$AA@ 10087ed8     aaa_capi.obj
 0002:00007ef4       ??_C@_0BG@CFMBMICE@Data?5Type?5Conversion2?$AA@ 10087ef4     aaa_capi.obj
 0002:00007f10       ??_C@_0BH@ODGABDOK@Data?5Type?5Conversion20?$AA@ 10087f10     aaa_capi.obj
 0002:00007f2c       ??_C@_0BH@PKHLCCKL@Data?5Type?5Conversion21?$AA@ 10087f2c     aaa_capi.obj
 0002:00007f48       ??_C@_0BH@NBFGHBGI@Data?5Type?5Conversion22?$AA@ 10087f48     aaa_capi.obj
 0002:00007f64       ??_C@_0BH@MIENEACJ@Data?5Type?5Conversion23?$AA@ 10087f64     aaa_capi.obj
 0002:00007f80       ??_C@_0BH@IHAMNGOO@Data?5Type?5Conversion24?$AA@ 10087f80     aaa_capi.obj
 0002:00007f9c       ??_C@_0BH@JOBHOHKP@Data?5Type?5Conversion25?$AA@ 10087f9c     aaa_capi.obj
 0002:00007fb8       ??_C@_0BH@LFDKLEGM@Data?5Type?5Conversion26?$AA@ 10087fb8     aaa_capi.obj
 0002:00007fd4       ??_C@_0BH@KMCBIFCN@Data?5Type?5Conversion27?$AA@ 10087fd4     aaa_capi.obj
 0002:00007ff0       ??_C@_0BH@CLLJJJOC@Data?5Type?5Conversion28?$AA@ 10087ff0     aaa_capi.obj
 0002:0000800c       ??_C@_0BH@DCKCKIKD@Data?5Type?5Conversion29?$AA@ 1008800c     aaa_capi.obj
 0002:00008028       ??_C@_0BG@DMNKPJGF@Data?5Type?5Conversion3?$AA@ 10088028     aaa_capi.obj
 0002:00008044       ??_C@_0BH@OCKCHJNN@Data?5Type?5Conversion30?$AA@ 10088044     aaa_capi.obj
 0002:00008060       ??_C@_0BH@PLLJEIJM@Data?5Type?5Conversion31?$AA@ 10088060     aaa_capi.obj
 0002:0000807c       ??_C@_0BH@NAJEBLFP@Data?5Type?5Conversion32?$AA@ 1008807c     aaa_capi.obj
 0002:00008098       ??_C@_0BH@MJIPCKBO@Data?5Type?5Conversion33?$AA@ 10088098     aaa_capi.obj
 0002:000080b4       ??_C@_0BH@IGMOLMNJ@Data?5Type?5Conversion34?$AA@ 100880b4     aaa_capi.obj
 0002:000080d0       ??_C@_0BH@JPNFINJI@Data?5Type?5Conversion35?$AA@ 100880d0     aaa_capi.obj
 0002:000080ec       ??_C@_0BG@HDJLGPKC@Data?5Type?5Conversion4?$AA@ 100880ec     aaa_capi.obj
 0002:00008108       ??_C@_0BG@GKIAFOOD@Data?5Type?5Conversion5?$AA@ 10088108     aaa_capi.obj
 0002:00008124       ??_C@_0BG@EBKNANCA@Data?5Type?5Conversion6?$AA@ 10088124     aaa_capi.obj
 0002:00008140       ??_C@_0BG@FILGDMGB@Data?5Type?5Conversion7?$AA@ 10088140     aaa_capi.obj
 0002:0000815c       ??_C@_0BG@NPCOCAKO@Data?5Type?5Conversion8?$AA@ 1008815c     aaa_capi.obj
 0002:00008178       ??_C@_0BG@MGDFBBOP@Data?5Type?5Conversion9?$AA@ 10088178     aaa_capi.obj
 0002:00008194       ??_C@_04OMOMKKFL@Gain?$AA@ 10088194     aaa_capi.obj
 0002:0000819c       ??_C@_0BB@ILJOCOID@Logical?5Operator?$AA@ 1008819c     aaa_capi.obj
 0002:000081b0       ??_C@_0BC@LCGHELAG@Logical?5Operator1?$AA@ 100881b0     aaa_capi.obj
 0002:000081c8       ??_C@_0BD@DGJHPEIN@Logical?5Operator10?$AA@ 100881c8     aaa_capi.obj
 0002:000081e0       ??_C@_0BD@CPIMMFMM@Logical?5Operator11?$AA@ 100881e0     aaa_capi.obj
 0002:000081f8       ??_C@_0BD@EKBJGAP@Logical?5Operator12?$AA@ 100881f8     aaa_capi.obj
 0002:00008210       ??_C@_0BC@JJEKBIMF@Logical?5Operator2?$AA@ 10088210     aaa_capi.obj
 0002:00008228       ??_C@_0BC@IAFBCJIE@Logical?5Operator3?$AA@ 10088228     aaa_capi.obj
 0002:00008240       ??_C@_0BC@MPBALPED@Logical?5Operator4?$AA@ 10088240     aaa_capi.obj
 0002:00008258       ??_C@_0BC@NGALIOAC@Logical?5Operator5?$AA@ 10088258     aaa_capi.obj
 0002:00008270       ??_C@_0BC@PNCGNNMB@Logical?5Operator6?$AA@ 10088270     aaa_capi.obj
 0002:00008288       ??_C@_0BC@OEDNOMIA@Logical?5Operator7?$AA@ 10088288     aaa_capi.obj
 0002:000082a0       ??_C@_0BC@GDKFPAEP@Logical?5Operator8?$AA@ 100882a0     aaa_capi.obj
 0002:000082b8       ??_C@_0BC@HKLOMBAO@Logical?5Operator9?$AA@ 100882b8     aaa_capi.obj
 0002:000082d0       ??_C@_0BB@KOPENPJA@1?9D?5Lookup?5Table?$AA@ 100882d0     aaa_capi.obj
 0002:000082e4       ??_C@_06LEBJIAPJ@Memory?$AA@ 100882e4     aaa_capi.obj
 0002:000082ec       ??_C@_07CIIFEIK@Memory1?$AA@ 100882ec     aaa_capi.obj
 0002:000082f8       ??_C@_07CJKFAHEJ@Memory2?$AA@ 100882f8     aaa_capi.obj
 0002:00008304       ??_C@_0M@BEDMNGNP@PCI?91784?1p1?$AA@ 10088304     aaa_capi.obj
 0002:00008314       ??_C@_0M@DPBBIFBM@PCI?91784?1p2?$AA@ 10088314     aaa_capi.obj
 0002:00008324       ??_C@_0M@CGAKLEFN@PCI?91784?1p3?$AA@ 10088324     aaa_capi.obj
 0002:00008334       ??_C@_0M@GJELCCJK@PCI?91784?1p4?$AA@ 10088334     aaa_capi.obj
 0002:00008344       ??_C@_0M@HAFABDNL@PCI?91784?1p5?$AA@ 10088344     aaa_capi.obj
 0002:00008354       ??_C@_0M@FLHNEABI@PCI?91784?1p6?$AA@ 10088354     aaa_capi.obj
 0002:00008364       ??_C@_0M@ECGGHBFJ@PCI?91784?1p7?$AA@ 10088364     aaa_capi.obj
 0002:00008374       ??_C@_0M@MFPOGNJG@PCI?91784?1p8?$AA@ 10088374     aaa_capi.obj
 0002:00008384       ??_C@_03LDFMNCOE@Add?$AA@  10088384     aaa_capi.obj
 0002:00008388       ??_C@_04GBIJHNAB@Add1?$AA@ 10088388     aaa_capi.obj
 0002:00008390       ??_C@_06PBEDFIPD@Switch?$AA@ 10088390     aaa_capi.obj
 0002:00008398       ??_C@_0BM@OOINMBFC@Compare?5To?5Constant?1Compare?$AA@ 10088398     aaa_capi.obj
 0002:000083bc       ??_C@_0BN@JOHKGFND@Compare?5To?5Constant1?1Compare?$AA@ 100883bc     aaa_capi.obj
 0002:000083e0       ??_C@_0BN@HFENNONA@Compare?5To?5Constant2?1Compare?$AA@ 100883e0     aaa_capi.obj
 0002:00008404       ??_C@_0BN@JKIPLFOO@Compare?5To?5Constant3?1Compare?$AA@ 10088404     aaa_capi.obj
 0002:00008428       ??_C@_0BB@MGCGPKBN@PCI1716?1constant?$AA@ 10088428     aaa_capi.obj
 0002:0000843c       ??_C@_0BN@ODNLAOPN@PCI1716?1Data?5Type?5Conversion?$AA@ 1008843c     aaa_capi.obj
 0002:00008460       ??_C@_0BO@FLCFCBN@PCI1716?1Data?5Type?5Conversion1?$AA@ 10088460     aaa_capi.obj
 0002:00008484       ??_C@_0BO@COJPABNO@PCI1716?1Data?5Type?5Conversion2?$AA@ 10088484     aaa_capi.obj
 0002:000084a8       ??_C@_0BJ@LHLDBJGK@PCI1716?1Logical?5Operator?$AA@ 100884a8     aaa_capi.obj
 0002:000084c8       ??_C@_0BK@GLINDMON@PCI1716?1Logical?5Operator1?$AA@ 100884c8     aaa_capi.obj
 0002:000084e8       ??_C@_0BH@OGHBIFCM@PCI1716?1PCI1716DIO1?1p1?$AA@ 100884e8     aaa_capi.obj
 0002:00008504       ??_C@_0BH@MNFMNGOP@PCI1716?1PCI1716DIO1?1p2?$AA@ 10088504     aaa_capi.obj
 0002:00008520       ??_C@_0BN@JHIPLFF@PCI6208?1Data?5Type?5Conversion?$AA@ 10088520     aaa_capi.obj
 0002:00008544       ??_C@_0BD@JBLHFPKI@PCI6208?1Saturation?$AA@ 10088544     aaa_capi.obj
 0002:0000855c       ??_C@_0BE@BOMBJLDH@PCI6208?1Saturation1?$AA@ 1008855c     aaa_capi.obj
 0002:00008574       ??_C@_0BE@DFOMMIPE@PCI6208?1Saturation2?$AA@ 10088574     aaa_capi.obj
 0002:0000858c       ??_C@_0BE@CMPHPJLF@PCI6208?1Saturation3?$AA@ 1008858c     aaa_capi.obj
 0002:000085a4       ??_C@_0BE@GDLGGPHC@PCI6208?1Saturation4?$AA@ 100885a4     aaa_capi.obj
 0002:000085bc       ??_C@_0BE@HKKNFODD@PCI6208?1Saturation5?$AA@ 100885bc     aaa_capi.obj
 0002:000085d4       ??_C@_0BE@FBIAANPA@PCI6208?1Saturation6?$AA@ 100885d4     aaa_capi.obj
 0002:000085ec       ??_C@_0BE@EIJLDMLB@PCI6208?1Saturation7?$AA@ 100885ec     aaa_capi.obj
 0002:00008604       ??_C@_0BD@LBGOLMFA@Subsystem1?1Switch1?$AA@ 10088604     aaa_capi.obj
 0002:0000861c       ??_C@_0BE@LEJMAJLL@Subsystem1?1Switch10?$AA@ 1008861c     aaa_capi.obj
 0002:00008634       ??_C@_0BE@KNIHDIPK@Subsystem1?1Switch11?$AA@ 10088634     aaa_capi.obj
 0002:0000864c       ??_C@_0BE@IGKKGLDJ@Subsystem1?1Switch12?$AA@ 1008864c     aaa_capi.obj
 0002:00008664       ??_C@_0BE@JPLBFKHI@Subsystem1?1Switch13?$AA@ 10088664     aaa_capi.obj
 0002:0000867c       ??_C@_0BE@NAPAMMLP@Subsystem1?1Switch14?$AA@ 1008867c     aaa_capi.obj
 0002:00008694       ??_C@_0BE@PLNNJPHM@Subsystem1?1Switch17?$AA@ 10088694     aaa_capi.obj
 0002:000086ac       ??_C@_0BE@HMEFIDLD@Subsystem1?1Switch18?$AA@ 100886ac     aaa_capi.obj
 0002:000086c4       ??_C@_0BD@JKEDOPJD@Subsystem1?1Switch2?$AA@ 100886c4     aaa_capi.obj
 0002:000086dc       ??_C@_0BD@IDFINONC@Subsystem1?1Switch3?$AA@ 100886dc     aaa_capi.obj
 0002:000086f4       ??_C@_0BD@MMBJEIBF@Subsystem1?1Switch4?$AA@ 100886f4     aaa_capi.obj
 0002:0000870c       ??_C@_0BD@NFACHJFE@Subsystem1?1Switch5?$AA@ 1008870c     aaa_capi.obj
 0002:00008724       ??_C@_0BD@POCPCKJH@Subsystem1?1Switch6?$AA@ 10088724     aaa_capi.obj
 0002:0000873c       ??_C@_0BD@OHDEBLNG@Subsystem1?1Switch7?$AA@ 1008873c     aaa_capi.obj
 0002:00008754       ??_C@_0BD@GAKMAHBJ@Subsystem1?1Switch8?$AA@ 10088754     aaa_capi.obj
 0002:0000876c       ??_C@_0BD@HJLHDGFI@Subsystem1?1Switch9?$AA@ 1008876c     aaa_capi.obj
 0002:00008784       ??_C@_0CB@NONNIIGN@Subsystem2?1Data?5Type?5Conversion1@ 10088784     aaa_capi.obj
 0002:000087ac       ??_C@_0CB@LKLBENGJ@Subsystem2?1Data?5Type?5Conversion5@ 100887ac     aaa_capi.obj
 0002:000087d4       ??_C@_0BM@GPNCGJJH@Subsystem2?1Logical?5Operator?$AA@ 100887d4     aaa_capi.obj
 0002:000087f8       ??_C@_0BN@KIFJNDDM@Subsystem2?1Logical?5Operator1?$AA@ 100887f8     aaa_capi.obj
 0002:0000881c       ??_C@_0BN@IDHEIAPP@Subsystem2?1Logical?5Operator2?$AA@ 1008881c     aaa_capi.obj
 0002:00008840       ??_C@_0BN@JKGPLBLO@Subsystem2?1Logical?5Operator3?$AA@ 10088840     aaa_capi.obj
 0002:00008864       ??_C@_0BM@JHMGNPAC@Subsystem2?1Multiport?5Switch?$AA@ 10088864     aaa_capi.obj
 0002:00008888       ??_C@_0BN@CIMEKAEB@Subsystem2?1Multiport?5Switch1?$AA@ 10088888     aaa_capi.obj
 0002:000088ac       ??_C@_0BN@DOJPDIC@Subsystem2?1Multiport?5Switch2?$AA@ 100888ac     aaa_capi.obj
 0002:000088d0       ??_C@_0BN@BKPCMCMD@Subsystem2?1Multiport?5Switch3?$AA@ 100888d0     aaa_capi.obj
 0002:000088f4       ??_C@_0P@PNDOPHF@Subsystem3?1Add?$AA@ 100888f4     aaa_capi.obj
 0002:00008908       ??_C@_0P@BCNGNPMN@Subsystem4?1Add?$AA@ 10088908     aaa_capi.obj
 0002:0000891c       ??_C@_0CA@NBMJKFGL@chuanganqi?1Data?5Type?5Conversion?$AA@ 1008891c     aaa_capi.obj
 0002:00008944       ??_C@_0CB@BMOMHGMH@chuanganqi?1Data?5Type?5Conversion1@ 10088944     aaa_capi.obj
 0002:0000896c       ??_C@_0CC@NKFKINJG@chuanganqi?1Data?5Type?5Conversion1@ 1008896c     aaa_capi.obj
 0002:00008994       ??_C@_0CC@MDEBLMNH@chuanganqi?1Data?5Type?5Conversion1@ 10088994     aaa_capi.obj
 0002:000089bc       ??_C@_0CC@OIGMOPBE@chuanganqi?1Data?5Type?5Conversion1@ 100889bc     aaa_capi.obj
 0002:000089e4       ??_C@_0CC@PBHHNOFF@chuanganqi?1Data?5Type?5Conversion1@ 100889e4     aaa_capi.obj
 0002:00008a0c       ??_C@_0CC@LODGEIJC@chuanganqi?1Data?5Type?5Conversion1@ 10088a0c     aaa_capi.obj
 0002:00008a34       ??_C@_0CC@KHCNHJND@chuanganqi?1Data?5Type?5Conversion1@ 10088a34     aaa_capi.obj
 0002:00008a5c       ??_C@_0CC@IMAACKBA@chuanganqi?1Data?5Type?5Conversion1@ 10088a5c     aaa_capi.obj
 0002:00008a84       ??_C@_0CC@JFBLBLFB@chuanganqi?1Data?5Type?5Conversion1@ 10088a84     aaa_capi.obj
 0002:00008aac       ??_C@_0CC@BCIDAHJO@chuanganqi?1Data?5Type?5Conversion1@ 10088aac     aaa_capi.obj
 0002:00008ad4       ??_C@_0CC@LJIDGNP@chuanganqi?1Data?5Type?5Conversion1@ 10088ad4     aaa_capi.obj
 0002:00008afc       ??_C@_0CB@DHMBCFAE@chuanganqi?1Data?5Type?5Conversion2@ 10088afc     aaa_capi.obj
 0002:00008b24       ??_C@_0CC@NIBMDDMP@chuanganqi?1Data?5Type?5Conversion2@ 10088b24     aaa_capi.obj
 0002:00008b4c       ??_C@_0CC@MBAHACIO@chuanganqi?1Data?5Type?5Conversion2@ 10088b4c     aaa_capi.obj
 0002:00008b74       ??_C@_0CC@OKCKFBEN@chuanganqi?1Data?5Type?5Conversion2@ 10088b74     aaa_capi.obj
 0002:00008b9c       ??_C@_0CC@PDDBGAAM@chuanganqi?1Data?5Type?5Conversion2@ 10088b9c     aaa_capi.obj
 0002:00008bc4       ??_C@_0CC@LMHAPGML@chuanganqi?1Data?5Type?5Conversion2@ 10088bc4     aaa_capi.obj
 0002:00008bec       ??_C@_0CC@KFGLMHIK@chuanganqi?1Data?5Type?5Conversion2@ 10088bec     aaa_capi.obj
 0002:00008c14       ??_C@_0CC@IOEGJEEJ@chuanganqi?1Data?5Type?5Conversion2@ 10088c14     aaa_capi.obj
 0002:00008c3c       ??_C@_0CC@JHFNKFAI@chuanganqi?1Data?5Type?5Conversion2@ 10088c3c     aaa_capi.obj
 0002:00008c64       ??_C@_0CC@BAMFLJMH@chuanganqi?1Data?5Type?5Conversion2@ 10088c64     aaa_capi.obj
 0002:00008c8c       ??_C@_0CC@JNOIIIG@chuanganqi?1Data?5Type?5Conversion2@ 10088c8c     aaa_capi.obj
 0002:00008cb4       ??_C@_0CB@CONKBEEF@chuanganqi?1Data?5Type?5Conversion3@ 10088cb4     aaa_capi.obj
 0002:00008cdc       ??_C@_0CC@NJNOFJPI@chuanganqi?1Data?5Type?5Conversion3@ 10088cdc     aaa_capi.obj
 0002:00008d04       ??_C@_0CC@MAMFGILJ@chuanganqi?1Data?5Type?5Conversion3@ 10088d04     aaa_capi.obj
 0002:00008d2c       ??_C@_0CC@OLOIDLHK@chuanganqi?1Data?5Type?5Conversion3@ 10088d2c     aaa_capi.obj
 0002:00008d54       ??_C@_0CC@PCPDAKDL@chuanganqi?1Data?5Type?5Conversion3@ 10088d54     aaa_capi.obj
 0002:00008d7c       ??_C@_0CC@LNLCJMPM@chuanganqi?1Data?5Type?5Conversion3@ 10088d7c     aaa_capi.obj
 0002:00008da4       ??_C@_0CC@KEKJKNLN@chuanganqi?1Data?5Type?5Conversion3@ 10088da4     aaa_capi.obj
 0002:00008dcc       ??_C@_0CC@IPIEPOHO@chuanganqi?1Data?5Type?5Conversion3@ 10088dcc     aaa_capi.obj
 0002:00008df4       ??_C@_0CC@JGJPMPDP@chuanganqi?1Data?5Type?5Conversion3@ 10088df4     aaa_capi.obj
 0002:00008e1c       ??_C@_0CC@BBAHNDPA@chuanganqi?1Data?5Type?5Conversion3@ 10088e1c     aaa_capi.obj
 0002:00008e44       ??_C@_0CC@IBMOCLB@chuanganqi?1Data?5Type?5Conversion3@ 10088e44     aaa_capi.obj
 0002:00008e6c       ??_C@_0CB@GBJLICIC@chuanganqi?1Data?5Type?5Conversion4@ 10088e6c     aaa_capi.obj
 0002:00008e94       ??_C@_0CC@NMJBEPHN@chuanganqi?1Data?5Type?5Conversion4@ 10088e94     aaa_capi.obj
 0002:00008ebc       ??_C@_0CC@MFIKHODM@chuanganqi?1Data?5Type?5Conversion4@ 10088ebc     aaa_capi.obj
 0002:00008ee4       ??_C@_0CC@OOKHCNPP@chuanganqi?1Data?5Type?5Conversion4@ 10088ee4     aaa_capi.obj
 0002:00008f0c       ??_C@_0CC@PHLMBMLO@chuanganqi?1Data?5Type?5Conversion4@ 10088f0c     aaa_capi.obj
 0002:00008f34       ??_C@_0CC@LIPNIKHJ@chuanganqi?1Data?5Type?5Conversion4@ 10088f34     aaa_capi.obj
 0002:00008f5c       ??_C@_0CC@KBOGLLDI@chuanganqi?1Data?5Type?5Conversion4@ 10088f5c     aaa_capi.obj
 0002:00008f84       ??_C@_0CC@IKMLOIPL@chuanganqi?1Data?5Type?5Conversion4@ 10088f84     aaa_capi.obj
 0002:00008fac       ??_C@_0CC@JDNANJLK@chuanganqi?1Data?5Type?5Conversion4@ 10088fac     aaa_capi.obj
 0002:00008fd4       ??_C@_0CC@BEEIMFHF@chuanganqi?1Data?5Type?5Conversion4@ 10088fd4     aaa_capi.obj
 0002:00008ffc       ??_C@_0CC@NFDPEDE@chuanganqi?1Data?5Type?5Conversion4@ 10088ffc     aaa_capi.obj
 0002:00009024       ??_C@_0CB@HIIALDMD@chuanganqi?1Data?5Type?5Conversion5@ 10089024     aaa_capi.obj
 0002:0000904c       ??_C@_0CC@NNFDCFEK@chuanganqi?1Data?5Type?5Conversion5@ 1008904c     aaa_capi.obj
 0002:00009074       ??_C@_0CC@MEEIBEAL@chuanganqi?1Data?5Type?5Conversion5@ 10089074     aaa_capi.obj
 0002:0000909c       ??_C@_0CC@OPGFEHMI@chuanganqi?1Data?5Type?5Conversion5@ 1008909c     aaa_capi.obj
 0002:000090c4       ??_C@_0CC@PGHOHGIJ@chuanganqi?1Data?5Type?5Conversion5@ 100890c4     aaa_capi.obj
 0002:000090ec       ??_C@_0CC@LJDPOAEO@chuanganqi?1Data?5Type?5Conversion5@ 100890ec     aaa_capi.obj
 0002:00009114       ??_C@_0CB@FDKNOAAA@chuanganqi?1Data?5Type?5Conversion6@ 10089114     aaa_capi.obj
 0002:0000913c       ??_C@_0CB@EKLGNBEB@chuanganqi?1Data?5Type?5Conversion7@ 1008913c     aaa_capi.obj
 0002:00009164       ??_C@_0CB@MNCOMNIO@chuanganqi?1Data?5Type?5Conversion8@ 10089164     aaa_capi.obj
 0002:0000918c       ??_C@_0CB@NEDFPMMP@chuanganqi?1Data?5Type?5Conversion9@ 1008918c     aaa_capi.obj
 0002:000091b4       ??_C@_0BM@FPGLLEBA@chuanganqi?1Logical?5Operator?$AA@ 100891b4     aaa_capi.obj
 0002:000091d8       ??_C@_0BN@NLLFHMGC@chuanganqi?1Logical?5Operator1?$AA@ 100891d8     aaa_capi.obj
 0002:000091fc       ??_C@_0BM@HKABEFAD@chuanganqi?11?9D?5Lookup?5Table?$AA@ 100891fc     aaa_capi.obj
 0002:00009220       ??_C@_0BN@FPCOFHEN@chuanganqi?11?9D?5Lookup?5Table1?$AA@ 10089220     aaa_capi.obj
 0002:00009244       ??_C@_0BN@HEADAEIO@chuanganqi?11?9D?5Lookup?5Table2?$AA@ 10089244     aaa_capi.obj
 0002:00009268       ??_C@_0BN@GNBIDFMP@chuanganqi?11?9D?5Lookup?5Table3?$AA@ 10089268     aaa_capi.obj
 0002:0000928c       ??_C@_0BN@CCFJKDAI@chuanganqi?11?9D?5Lookup?5Table4?$AA@ 1008928c     aaa_capi.obj
 0002:000092b0       ??_C@_0BN@DLECJCEJ@chuanganqi?11?9D?5Lookup?5Table5?$AA@ 100892b0     aaa_capi.obj
 0002:000092d4       ??_C@_0BN@BAGPMBIK@chuanganqi?11?9D?5Lookup?5Table6?$AA@ 100892d4     aaa_capi.obj
 0002:000092f8       ??_C@_0BD@OHCLJOBK@chuanganqi?1Product?$AA@ 100892f8     aaa_capi.obj
 0002:00009310       ??_C@_0BE@DLNINFFG@chuanganqi?1Product1?$AA@ 10089310     aaa_capi.obj
 0002:00009328       ??_C@_0BM@KIHOAJN@chuanganqi?1CAN?5bit?9packing?5?$AA@ 10089328     aaa_capi.obj
 0002:0000934c       ??_C@_0BN@EIOJGPKL@chuanganqi?1CAN?5bit?9packing?51?$AA@ 1008934c     aaa_capi.obj
 0002:00009370       ??_C@_0BN@GDMEDMGI@chuanganqi?1CAN?5bit?9packing?52?$AA@ 10089370     aaa_capi.obj
 0002:00009394       ??_C@_0BN@HKNPANCJ@chuanganqi?1CAN?5bit?9packing?53?$AA@ 10089394     aaa_capi.obj
 0002:000093b8       ??_C@_0BN@DFJOJLOO@chuanganqi?1CAN?5bit?9packing?54?$AA@ 100893b8     aaa_capi.obj
 0002:000093dc       ??_C@_0CC@HKCODFKC@chuanganqi?1CAN?5bit?9unpacking?52?1p@ 100893dc     aaa_capi.obj
 0002:00009404       ??_C@_0CC@FBADGGGB@chuanganqi?1CAN?5bit?9unpacking?52?1p@ 10089404     aaa_capi.obj
 0002:0000942c       ??_C@_0CC@EIBIFHCA@chuanganqi?1CAN?5bit?9unpacking?52?1p@ 1008942c     aaa_capi.obj
 0002:00009454       ??_C@_0CC@HFJMBOH@chuanganqi?1CAN?5bit?9unpacking?52?1p@ 10089454     aaa_capi.obj
 0002:0000947c       ??_C@_0CC@BOECPAKG@chuanganqi?1CAN?5bit?9unpacking?52?1p@ 1008947c     aaa_capi.obj
 0002:000094a4       ??_C@_0CC@DFGPKDGF@chuanganqi?1CAN?5bit?9unpacking?52?1p@ 100894a4     aaa_capi.obj
 0002:000094cc       ??_C@_0CC@CMHEJCCE@chuanganqi?1CAN?5bit?9unpacking?52?1p@ 100894cc     aaa_capi.obj
 0002:000094f4       ??_C@_0CC@KLOMIOOL@chuanganqi?1CAN?5bit?9unpacking?52?1p@ 100894f4     aaa_capi.obj
 0002:0000951c       ??_C@_0CC@LCPHLPKK@chuanganqi?1CAN?5bit?9unpacking?52?1p@ 1008951c     aaa_capi.obj
 0002:00009544       ??_C@_0CD@OHOENKAC@chuanganqi?1CAN?5bit?9unpacking?52?1p@ 10089544     aaa_capi.obj
 0002:00009570       ??_C@_0CD@POPPOLED@chuanganqi?1CAN?5bit?9unpacking?52?1p@ 10089570     aaa_capi.obj
 0002:0000959c       ??_C@_0CD@NFNCLIIA@chuanganqi?1CAN?5bit?9unpacking?52?1p@ 1008959c     aaa_capi.obj
 0002:000095c8       ??_C@_0CD@MMMJIJMB@chuanganqi?1CAN?5bit?9unpacking?52?1p@ 100895c8     aaa_capi.obj
 0002:000095f4       ??_C@_0CD@IDIIBPAG@chuanganqi?1CAN?5bit?9unpacking?52?1p@ 100895f4     aaa_capi.obj
 0002:00009620       ??_C@_0CD@JKJDCOEH@chuanganqi?1CAN?5bit?9unpacking?52?1p@ 10089620     aaa_capi.obj
 0002:0000964c       ??_C@_0CD@LBLOHNIE@chuanganqi?1CAN?5bit?9unpacking?52?1p@ 1008964c     aaa_capi.obj
 0002:00009678       ??_C@_0CC@EHEOBMBC@chuanganqi?1CAN?5bit?9unpacking?53?1p@ 10089678     aaa_capi.obj
 0002:000096a0       ??_C@_0CC@GMGDEPNB@chuanganqi?1CAN?5bit?9unpacking?53?1p@ 100896a0     aaa_capi.obj
 0002:000096c8       ??_C@_0CC@HFHIHOJA@chuanganqi?1CAN?5bit?9unpacking?53?1p@ 100896c8     aaa_capi.obj
 0002:000096f0       ??_C@_0CC@DKDJOIFH@chuanganqi?1CAN?5bit?9unpacking?53?1p@ 100896f0     aaa_capi.obj
 0002:00009718       ??_C@_0CC@PFGOMAAC@chuanganqi?1CAN?5bit?9unpacking?54?1p@ 10089718     aaa_capi.obj
 0002:00009740       ??_C@_0CC@NOEDJDMB@chuanganqi?1CAN?5bit?9unpacking?54?1p@ 10089740     aaa_capi.obj
 0002:00009768       ??_C@_0CC@IPKOJDGC@chuanganqi?1CAN?5bit?9unpacking?56?1p@ 10089768     aaa_capi.obj
 0002:00009790       ??_C@_0CC@KEIDMAKB@chuanganqi?1CAN?5bit?9unpacking?56?1p@ 10089790     aaa_capi.obj
 0002:000097b8       ??_C@_0CC@LCMOLKNC@chuanganqi?1CAN?5bit?9unpacking?57?1p@ 100897b8     aaa_capi.obj
 0002:000097e0       ??_C@_0CC@JJODOJBB@chuanganqi?1CAN?5bit?9unpacking?57?1p@ 100897e0     aaa_capi.obj
 0002:00009808       ??_C@_0CC@IAPINIFA@chuanganqi?1CAN?5bit?9unpacking?57?1p@ 10089808     aaa_capi.obj
 0002:00009830       ??_C@_0CC@MPLJEOJH@chuanganqi?1CAN?5bit?9unpacking?57?1p@ 10089830     aaa_capi.obj
 0002:00009858       ??_C@_0BP@BNJHHMPD@chuanganqi?1CAN?5bit?9unpacking?58?$AA@ 10089858     aaa_capi.obj
 0002:00009880       ??_C@_0CC@NPOAELD@chuanganqi?1CAN?5bit?9unpacking?59?1p@ 10089880     aaa_capi.obj
 0002:000098a8       ??_C@_0CC@CGNDFHHA@chuanganqi?1CAN?5bit?9unpacking?59?1p@ 100898a8     aaa_capi.obj
 0002:000098d0       ??_C@_0CC@DPMIGGDB@chuanganqi?1CAN?5bit?9unpacking?59?1p@ 100898d0     aaa_capi.obj
 0002:000098f8       ??_C@_0BP@JNOOMEDF@chuanganqi?1kaiguangaiweiyi3402?$AA@ 100898f8     aaa_capi.obj
 0002:00009920       ??_C@_0CK@HLAFJDAN@chuanganqi?1liuliangji_fuqiuyewei@ 10089920     aaa_capi.obj
 0002:00009954       ??_C@_0L@HCDOBLHP@liuliangji?$AA@ 10089954     aaa_capi.obj
 0002:00009964       ??_C@_0CK@FACIMAMO@chuanganqi?1liuliangji_fuqiuyewei@ 10089964     aaa_capi.obj
 0002:00009998       ??_C@_0BO@KHHJLOAJ@chuanganqi?1tonggai1808Receive?$AA@ 10089998     aaa_capi.obj
 0002:000099bc       ??_C@_0CB@FOPHGJNB@chuanganqi?1tonggai3402Receive?1p1@ 100899bc     aaa_capi.obj
 0002:000099e4       ??_C@_0CB@HFNKDKBC@chuanganqi?1tonggai3402Receive?1p2@ 100899e4     aaa_capi.obj
 0002:00009a0c       ??_C@_0CB@PNAHGNAN@chuanganqi?1yalichuanganqi3402?1p1@ 10089a0c     aaa_capi.obj
 0002:00009a34       ??_C@_0CB@NGCKDOMO@chuanganqi?1yalichuanganqi3402?1p2@ 10089a34     aaa_capi.obj
 0002:00009a5c       ??_C@_0BA@FDDIAOKL@chuanganqi?1Step?$AA@ 10089a5c     aaa_capi.obj
 0002:00009a70       ??_C@_0BB@IHAKEFNM@chuanganqi?1Step1?$AA@ 10089a70     aaa_capi.obj
 0002:00009a84       ??_C@_0BJ@IIPNOMNM@chuanganqi?1Manual?5Switch?$AA@ 10089a84     aaa_capi.obj
 0002:00009aa4       ??_C@_0BK@EJLAGEKB@chuanganqi?1Manual?5Switch1?$AA@ 10089aa4     aaa_capi.obj
 0002:00009ac4       ??_C@_0BK@GCJNDHGC@chuanganqi?1Manual?5Switch2?$AA@ 10089ac4     aaa_capi.obj
 0002:00009ae4       ??_C@_0BK@HLIGAGCD@chuanganqi?1Manual?5Switch3?$AA@ 10089ae4     aaa_capi.obj
 0002:00009b04       ??_C@_0BK@DEMHJAOE@chuanganqi?1Manual?5Switch4?$AA@ 10089b04     aaa_capi.obj
 0002:00009b24       ??_C@_0BF@NANEGONG@guangaiquxian?1Chart1?$AA@ 10089b24     aaa_capi.obj
 0002:00009b40       ??_C@_0BC@EBNMFNPP@guangaiquxian?1Fcn?$AA@ 10089b40     aaa_capi.obj
 0002:00009b58       ??_C@_0BJ@BFHDKPJ@guangaiquxian?1Saturation?$AA@ 10089b58     aaa_capi.obj
 0002:00009b78       ??_C@_0BK@CDNBKDA@guangaiquxian?1Saturation1?$AA@ 10089b78     aaa_capi.obj
 0002:00009b98       ??_C@_0BC@CDKLJLEJ@guangaiquxian?1Add?$AA@ 10089b98     aaa_capi.obj
 0002:00009bb0       ??_C@_0BJ@NEEPCPM@jinjichuli?1jinjichuli?1p1?$AA@ 10089bb0     aaa_capi.obj
 0002:00009bd0       ??_C@_0BJ@CGGJKBDP@jinjichuli?1jinjichuli?1p2?$AA@ 10089bd0     aaa_capi.obj
 0002:00009bf0       ??_C@_0BJ@DPHCJAHO@jinjichuli?1jinjichuli?1p3?$AA@ 10089bf0     aaa_capi.obj
 0002:00009c10       ??_C@_0BJ@HADDAGLJ@jinjichuli?1jinjichuli?1p4?$AA@ 10089c10     aaa_capi.obj
 0002:00009c30       ??_C@_0BJ@GJCIDHPI@jinjichuli?1jinjichuli?1p5?$AA@ 10089c30     aaa_capi.obj
 0002:00009c50       ??_C@_0BJ@ECAFGEDL@jinjichuli?1jinjichuli?1p6?$AA@ 10089c50     aaa_capi.obj
 0002:00009c70       ??_C@_0BJ@FLBOFFHK@jinjichuli?1jinjichuli?1p7?$AA@ 10089c70     aaa_capi.obj
 0002:00009c90       ??_C@_0BJ@NMIGEJLF@jinjichuli?1jinjichuli?1p8?$AA@ 10089c90     aaa_capi.obj
 0002:00009cb0       ??_C@_0BJ@MFJNHIPE@jinjichuli?1jinjichuli?1p9?$AA@ 10089cb0     aaa_capi.obj
 0002:00009cd0       ??_C@_0BK@GLEAMMDG@jinjichuli?1jinjichuli?1p10?$AA@ 10089cd0     aaa_capi.obj
 0002:00009cf0       ??_C@_0BK@HCFLPNHH@jinjichuli?1jinjichuli?1p11?$AA@ 10089cf0     aaa_capi.obj
 0002:00009d10       ??_C@_0BK@FJHGKOLE@jinjichuli?1jinjichuli?1p12?$AA@ 10089d10     aaa_capi.obj
 0002:00009d30       ??_C@_0BK@EAGNJPPF@jinjichuli?1jinjichuli?1p13?$AA@ 10089d30     aaa_capi.obj
 0002:00009d50       ??_C@_0BK@PCMAJDC@jinjichuli?1jinjichuli?1p14?$AA@ 10089d50     aaa_capi.obj
 0002:00009d70       ??_C@_0BK@BGDHDIHD@jinjichuli?1jinjichuli?1p15?$AA@ 10089d70     aaa_capi.obj
 0002:00009d90       ??_C@_0BK@DNBKGLLA@jinjichuli?1jinjichuli?1p16?$AA@ 10089d90     aaa_capi.obj
 0002:00009db0       ??_C@_0BD@FJJGHEGE@kaigaiquxian?1Chart?$AA@ 10089db0     aaa_capi.obj
 0002:00009dc8       ??_C@_0BB@CELJMPMK@kaigaiquxian?1Fcn?$AA@ 10089dc8     aaa_capi.obj
 0002:00009ddc       ??_C@_0BI@PGIIPIEI@kaigaiquxian?1Saturation?$AA@ 10089ddc     aaa_capi.obj
 0002:00009df8       ??_C@_0BJ@LOKMEGOI@kaigaiquxian?1Saturation1?$AA@ 10089df8     aaa_capi.obj
 0002:00009e18       ??_C@_0BB@EGMOAJHM@kaigaiquxian?1Add?$AA@ 10089e18     aaa_capi.obj
 0002:00009e2c       ??_C@_0BB@PPBDHLF@tiaoshifa?1fa11_1?$AA@ 10089e2c     aaa_capi.obj
 0002:00009e40       ??_C@_0BB@CENMGEHG@tiaoshifa?1fa11_2?$AA@ 10089e40     aaa_capi.obj
 0002:00009e54       ??_C@_0BB@GLJNPCLB@tiaoshifa?1fa11_5?$AA@ 10089e54     aaa_capi.obj
 0002:00009e68       ??_C@_0BB@JCCGAPAM@tiaoshifa?1fa16_1?$AA@ 10089e68     aaa_capi.obj
 0002:00009e7c       ??_C@_0BB@HCPJHIDP@tiaoshifa?1fa18_1?$AA@ 10089e7c     aaa_capi.obj
 0002:00009e90       ??_C@_0BB@FJNECLPM@tiaoshifa?1fa18_2?$AA@ 10089e90     aaa_capi.obj
 0002:00009ea4       ??_C@_0BB@EAMPBKLN@tiaoshifa?1fa18_3?$AA@ 10089ea4     aaa_capi.obj
 0002:00009eb8       ??_C@_0BB@PIOIMHK@tiaoshifa?1fa18_4?$AA@ 10089eb8     aaa_capi.obj
 0002:00009ecc       ??_C@_0P@PKOKMIJN@tiaoshifa?1fa20?$AA@ 10089ecc     aaa_capi.obj
 0002:00009ee0       ??_C@_0P@ODPBPJNM@tiaoshifa?1fa21?$AA@ 10089ee0     aaa_capi.obj
 0002:00009ef4       ??_C@_0O@NKDHPPPD@tiaoshifa?1fa3?$AA@ 10089ef4     aaa_capi.obj
 0002:00009f04       ??_C@_0BB@ELNKFPKF@tiaoshifa?1fa_kgg?$AA@ 10089f04     aaa_capi.obj
 0002:00009f18       ??_C@_0BJ@NBIMFADG@tiaoshifa?1jiesuomingling?$AA@ 10089f18     aaa_capi.obj
 0002:00009f38       ??_C@_0BK@OJHBBGGM@tiaoshifa?1suodingmingling?$AA@ 10089f38     aaa_capi.obj
 0002:00009f58       ??_C@_0BK@OANOOCMO@tiaoshifa?1xuanjinmingling?$AA@ 10089f58     aaa_capi.obj
 0002:00009f78       ??_C@_0BL@GPJNDEGN@tiaoshifa?1xuansongmingling?$AA@ 10089f78     aaa_capi.obj
 0002:00009f98       ??_C@_0BI@HDLPCAFP@Subsystem2?1husuo?1Memory?$AA@ 10089f98     aaa_capi.obj
 0002:00009fb4       ??_C@_0BJ@DNPKPEPH@Subsystem2?1husuo?1Memory1?$AA@ 10089fb4     aaa_capi.obj
 0002:00009fd4       ??_C@_0BI@DGOFPIFF@Subsystem2?1husuo?1Switch?$AA@ 10089fd4     aaa_capi.obj
 0002:00009ff0       ??_C@_0BJ@PGEHBEPC@Subsystem2?1husuo?1Switch2?$AA@ 10089ff0     aaa_capi.obj
 0002:0000a010       ??_C@_0BJ@DHHBMJIK@Subsystem2?1husuo1?1Memory?$AA@ 1008a010     aaa_capi.obj
 0002:0000a030       ??_C@_0BK@MLAHBMEF@Subsystem2?1husuo1?1Memory1?$AA@ 1008a030     aaa_capi.obj
 0002:0000a050       ??_C@_0BJ@HCCLBBIA@Subsystem2?1husuo1?1Switch?$AA@ 1008a050     aaa_capi.obj
 0002:0000a070       ??_C@_0BK@LKPMEA@Subsystem2?1husuo1?1Switch2?$AA@ 1008a070     aaa_capi.obj
 0002:0000a090       ??_C@_0BJ@OPMPFEP@Subsystem2?1husuo2?1Memory?$AA@ 1008a090     aaa_capi.obj
 0002:0000a0b0       ??_C@_0BK@CADAKHEG@Subsystem2?1husuo2?1Memory1?$AA@ 1008a0b0     aaa_capi.obj
 0002:0000a0d0       ??_C@_0BJ@ELKGCNEF@Subsystem2?1husuo2?1Switch?$AA@ 1008a0d0     aaa_capi.obj
 0002:0000a0f0       ??_C@_0BK@OLINEHED@Subsystem2?1husuo2?1Switch2?$AA@ 1008a0f0     aaa_capi.obj
 0002:0000a110       ??_C@_0BN@OFAMOFND@Subsystem2?1shoudong?1Chart?1p1?$AA@ 1008a110     aaa_capi.obj
 0002:0000a134       ??_C@_0BN@MOCBLGBA@Subsystem2?1shoudong?1Chart?1p2?$AA@ 1008a134     aaa_capi.obj
 0002:0000a158       ??_C@_0BN@NHDKIHFB@Subsystem2?1shoudong?1Chart?1p3?$AA@ 1008a158     aaa_capi.obj
 0002:0000a17c       ??_C@_0BN@JIHLBBJG@Subsystem2?1shoudong?1Chart?1p4?$AA@ 1008a17c     aaa_capi.obj
 0002:0000a1a0       ??_C@_0BN@IBGACANH@Subsystem2?1shoudong?1Chart?1p5?$AA@ 1008a1a0     aaa_capi.obj
 0002:0000a1c4       ??_C@_0BN@KKENHDBE@Subsystem2?1shoudong?1Chart?1p6?$AA@ 1008a1c4     aaa_capi.obj
 0002:0000a1e8       ??_C@_0BN@LDFGECFF@Subsystem2?1shoudong?1Chart?1p7?$AA@ 1008a1e8     aaa_capi.obj
 0002:0000a20c       ??_C@_0BN@DEMOFOJK@Subsystem2?1shoudong?1Chart?1p8?$AA@ 1008a20c     aaa_capi.obj
 0002:0000a230       ??_C@_0BN@CNNFGPNL@Subsystem2?1shoudong?1Chart?1p9?$AA@ 1008a230     aaa_capi.obj
 0002:0000a254       ??_C@_0BO@MAHJLJHI@Subsystem2?1shoudong?1Chart?1p10?$AA@ 1008a254     aaa_capi.obj
 0002:0000a278       ??_C@_0BO@NJGCIIDJ@Subsystem2?1shoudong?1Chart?1p11?$AA@ 1008a278     aaa_capi.obj
 0002:0000a29c       ??_C@_0BO@PCEPNLPK@Subsystem2?1shoudong?1Chart?1p12?$AA@ 1008a29c     aaa_capi.obj
 0002:0000a2c0       ??_C@_0BO@OLFEOKLL@Subsystem2?1shoudong?1Chart?1p13?$AA@ 1008a2c0     aaa_capi.obj
 0002:0000a2e4       ??_C@_0BO@KEBFHMHM@Subsystem2?1shoudong?1Chart?1p14?$AA@ 1008a2e4     aaa_capi.obj
 0002:0000a308       ??_C@_0BO@LNAOENDN@Subsystem2?1shoudong?1Chart?1p15?$AA@ 1008a308     aaa_capi.obj
 0002:0000a32c       ??_C@_0BO@JGCDBOPO@Subsystem2?1shoudong?1Chart?1p16?$AA@ 1008a32c     aaa_capi.obj
 0002:0000a350       ??_C@_0BO@IPDICPLP@Subsystem2?1shoudong?1Chart?1p17?$AA@ 1008a350     aaa_capi.obj
 0002:0000a374       ??_C@_0BO@IKADDHA@Subsystem2?1shoudong?1Chart?1p18?$AA@ 1008a374     aaa_capi.obj
 0002:0000a398       ??_C@_0BO@BBLLACDB@Subsystem2?1shoudong?1Chart?1p19?$AA@ 1008a398     aaa_capi.obj
 0002:0000a3bc       ??_C@_0BO@MCDPAHCB@Subsystem2?1shoudong?1Chart?1p20?$AA@ 1008a3bc     aaa_capi.obj
 0002:0000a3e0       ??_C@_0BO@NLCEDGGA@Subsystem2?1shoudong?1Chart?1p21?$AA@ 1008a3e0     aaa_capi.obj
 0002:0000a404       ??_C@_0BO@PAAJGFKD@Subsystem2?1shoudong?1Chart?1p22?$AA@ 1008a404     aaa_capi.obj
 0002:0000a428       ??_C@_0BO@OJBCFEOC@Subsystem2?1shoudong?1Chart?1p23?$AA@ 1008a428     aaa_capi.obj
 0002:0000a44c       ??_C@_0BO@KGFDMCCF@Subsystem2?1shoudong?1Chart?1p24?$AA@ 1008a44c     aaa_capi.obj
 0002:0000a470       ??_C@_0BO@LPEIPDGE@Subsystem2?1shoudong?1Chart?1p25?$AA@ 1008a470     aaa_capi.obj
 0002:0000a494       ??_C@_0BL@BNOIGCOE@Subsystem2?1zidong?1Chart?1p1?$AA@ 1008a494     aaa_capi.obj
 0002:0000a4b4       ??_C@_0BL@DGMFDBCH@Subsystem2?1zidong?1Chart?1p2?$AA@ 1008a4b4     aaa_capi.obj
 0002:0000a4d4       ??_C@_0BL@CPNOAAGG@Subsystem2?1zidong?1Chart?1p3?$AA@ 1008a4d4     aaa_capi.obj
 0002:0000a4f4       ??_C@_0BL@GAJPJGKB@Subsystem2?1zidong?1Chart?1p4?$AA@ 1008a4f4     aaa_capi.obj
 0002:0000a514       ??_C@_0BL@HJIEKHOA@Subsystem2?1zidong?1Chart?1p5?$AA@ 1008a514     aaa_capi.obj
 0002:0000a534       ??_C@_0BL@FCKJPECD@Subsystem2?1zidong?1Chart?1p6?$AA@ 1008a534     aaa_capi.obj
 0002:0000a554       ??_C@_0BL@ELLCMFGC@Subsystem2?1zidong?1Chart?1p7?$AA@ 1008a554     aaa_capi.obj
 0002:0000a574       ??_C@_0BL@MMCKNJKN@Subsystem2?1zidong?1Chart?1p8?$AA@ 1008a574     aaa_capi.obj
 0002:0000a594       ??_C@_0BL@NFDBOIOM@Subsystem2?1zidong?1Chart?1p9?$AA@ 1008a594     aaa_capi.obj
 0002:0000a5b4       ??_C@_0BM@HIDMPIPA@Subsystem2?1zidong?1Chart?1p10?$AA@ 1008a5b4     aaa_capi.obj
 0002:0000a5d8       ??_C@_0BM@GBCHMJLB@Subsystem2?1zidong?1Chart?1p11?$AA@ 1008a5d8     aaa_capi.obj
 0002:0000a5fc       ??_C@_0BM@EKAKJKHC@Subsystem2?1zidong?1Chart?1p12?$AA@ 1008a5fc     aaa_capi.obj
 0002:0000a620       ??_C@_0BM@FDBBKLDD@Subsystem2?1zidong?1Chart?1p13?$AA@ 1008a620     aaa_capi.obj
 0002:0000a644       ??_C@_0BM@BMFADNPE@Subsystem2?1zidong?1Chart?1p14?$AA@ 1008a644     aaa_capi.obj
 0002:0000a668       ??_C@_0BM@FELAMLF@Subsystem2?1zidong?1Chart?1p15?$AA@ 1008a668     aaa_capi.obj
 0002:0000a68c       ??_C@_0BM@COGGFPHG@Subsystem2?1zidong?1Chart?1p16?$AA@ 1008a68c     aaa_capi.obj
 0002:0000a6b0       ??_C@_0BM@DHHNGODH@Subsystem2?1zidong?1Chart?1p17?$AA@ 1008a6b0     aaa_capi.obj
 0002:0000a6d4       ??_C@_0BM@LAOFHCPI@Subsystem2?1zidong?1Chart?1p18?$AA@ 1008a6d4     aaa_capi.obj
 0002:0000a6f8       ??_C@_0BM@KJPOEDLJ@Subsystem2?1zidong?1Chart?1p19?$AA@ 1008a6f8     aaa_capi.obj
 0002:0000a71c       ??_C@_0BM@HKHKEGKJ@Subsystem2?1zidong?1Chart?1p20?$AA@ 1008a71c     aaa_capi.obj
 0002:0000a740       ??_C@_0BM@GDGBHHOI@Subsystem2?1zidong?1Chart?1p21?$AA@ 1008a740     aaa_capi.obj
 0002:0000a764       ??_C@_0BM@EIEMCECL@Subsystem2?1zidong?1Chart?1p22?$AA@ 1008a764     aaa_capi.obj
 0002:0000a788       ??_C@_0BM@FBFHBFGK@Subsystem2?1zidong?1Chart?1p23?$AA@ 1008a788     aaa_capi.obj
 0002:0000a7ac       ??_C@_0BM@BOBGIDKN@Subsystem2?1zidong?1Chart?1p24?$AA@ 1008a7ac     aaa_capi.obj
 0002:0000a7d0       ??_C@_0BM@HANLCOM@Subsystem2?1zidong?1Chart?1p25?$AA@ 1008a7d0     aaa_capi.obj
 0002:0000a7f4       ??_C@_0CN@OCMEDLFC@chuanganqi?1yalishangxiaxian?1Logi@ 1008a7f4     aaa_capi.obj
 0002:0000a82c       ??_C@_0BO@FIIPDKMD@Subsystem2?1shoudong?1SQfa?1Gain?$AA@ 1008a82c     aaa_capi.obj
 0002:0000a850       ??_C@_0BP@MEGIBLIC@Subsystem2?1shoudong?1SQfa?1Gain1?$AA@ 1008a850     aaa_capi.obj
 0002:0000a878       ??_C@_0CK@OPBGLDEC@Subsystem2?1shoudong?1SQfa?1Multipo@ 1008a878     aaa_capi.obj
 0002:0000a8ac       ??_C@_0CB@CKMFLEHB@Subsystem2?1shoudong?1SQfa?1Product@ 1008a8ac     aaa_capi.obj
 0002:0000a8d4       ??_C@_0CC@OBHFIDKM@Subsystem2?1shoudong?1SQfa?1Product@ 1008a8d4     aaa_capi.obj
 0002:0000a8fc       ??_C@_0CJ@NEOEFHEE@Subsystem2?1shoudong?1SQfa?1Sum?5of?5@ 1008a8fc     aaa_capi.obj
 0002:0000a930       ??_C@_0CB@LEOCLEEI@Subsystem2?1shoudong?1SQfa?1Switch1@ 1008a930     aaa_capi.obj
 0002:0000a958       ??_C@_0CB@JPMPOHIL@Subsystem2?1shoudong?1SQfa?1Switch2@ 1008a958     aaa_capi.obj
 0002:0000a980       ??_C@_0CB@IGNENGMK@Subsystem2?1shoudong?1SQfa?1Switch3@ 1008a980     aaa_capi.obj
 0002:0000a9a8       ??_C@_0CB@MJJFEAAN@Subsystem2?1shoudong?1SQfa?1Switch4@ 1008a9a8     aaa_capi.obj
 0002:0000a9d0       ??_C@_0CB@NAIOHBEM@Subsystem2?1shoudong?1SQfa?1Switch5@ 1008a9d0     aaa_capi.obj
 0002:0000a9f8       ??_C@_0CB@PLKDCCIP@Subsystem2?1shoudong?1SQfa?1Switch6@ 1008a9f8     aaa_capi.obj
 0002:0000aa20       ??_C@_0CB@OCLIBDMO@Subsystem2?1shoudong?1SQfa?1Switch7@ 1008aa20     aaa_capi.obj
 0002:0000aa48       ??_C@_0CB@GFCAAPAB@Subsystem2?1shoudong?1SQfa?1Switch8@ 1008aa48     aaa_capi.obj
 0002:0000aa70       ??_C@_0CB@HMDLDOEA@Subsystem2?1shoudong?1SQfa?1Switch9@ 1008aa70     aaa_capi.obj
 0002:0000aa98       ??_C@_0CD@PLCMHIK@Subsystem2?1shoudong?1Subsystem?1Ga@ 1008aa98     aaa_capi.obj
 0002:0000aac4       ??_C@_0CE@MLDPNPEL@Subsystem2?1shoudong?1Subsystem?1Ga@ 1008aac4     aaa_capi.obj
 0002:0000aaf0       ??_C@_0CP@ILLFDBHP@Subsystem2?1shoudong?1Subsystem?1Mu@ 1008aaf0     aaa_capi.obj
 0002:0000ab28       ??_C@_0CG@KMPENBII@Subsystem2?1shoudong?1Subsystem?1Pr@ 1008ab28     aaa_capi.obj
 0002:0000ab58       ??_C@_0CD@ICNHBANA@Subsystem2?1shoudong?1Subsystem?1Ad@ 1008ab58     aaa_capi.obj
 0002:0000ab84       ??_C@_0CC@LIAMPMHG@Subsystem2?1shoudong?1Subsystem?1Su@ 1008ab84     aaa_capi.obj
 0002:0000abac       ??_C@_0CD@HPIDNPEH@Subsystem2?1shoudong?1Subsystem?1Su@ 1008abac     aaa_capi.obj
 0002:0000abd8       ??_C@_0CE@JKMIAKCH@Subsystem2?1shoudong?1Subsystem2?1G@ 1008abd8     aaa_capi.obj
 0002:0000ac04       ??_C@_0CF@GDMNHKND@Subsystem2?1shoudong?1Subsystem2?1G@ 1008ac04     aaa_capi.obj
 0002:0000ac30       ??_C@_0CF@EIOACJBA@Subsystem2?1shoudong?1Subsystem2?1G@ 1008ac30     aaa_capi.obj
 0002:0000ac5c       ??_C@_0CF@FBPLBIFB@Subsystem2?1shoudong?1Subsystem2?1G@ 1008ac5c     aaa_capi.obj
 0002:0000ac88       ??_C@_0DA@GGLIPHNO@Subsystem2?1shoudong?1Subsystem2?1M@ 1008ac88     aaa_capi.obj
 0002:0000acc4       ??_C@_0DB@KHFAEAJG@Subsystem2?1shoudong?1Subsystem2?1M@ 1008acc4     aaa_capi.obj
 0002:0000ad00       ??_C@_0CH@LDNACOAP@Subsystem2?1shoudong?1Subsystem2?1P@ 1008ad00     aaa_capi.obj
 0002:0000ad30       ??_C@_0CE@BHKNNNHN@Subsystem2?1shoudong?1Subsystem2?1A@ 1008ad30     aaa_capi.obj
 0002:0000ad5c       ??_C@_0CD@HNILNDLO@Subsystem2?1shoudong?1Subsystem2?1S@ 1008ad5c     aaa_capi.obj
 0002:0000ad88       ??_C@_0CE@OKPJBCOK@Subsystem2?1shoudong?1Subsystem2?1S@ 1008ad88     aaa_capi.obj
 0002:0000adb4       ??_C@_0CE@MBNEEBCJ@Subsystem2?1shoudong?1Subsystem2?1S@ 1008adb4     aaa_capi.obj
 0002:0000ade0       ??_C@_0CE@NIMPHAGI@Subsystem2?1shoudong?1Subsystem2?1S@ 1008ade0     aaa_capi.obj
 0002:0000ae0c       ??_C@_0CK@GPCNDIAC@Subsystem2?1shoudong?1XQfa?1Multipo@ 1008ae0c     aaa_capi.obj
 0002:0000ae40       ??_C@_0CB@MNAMALNC@Subsystem2?1shoudong?1XQfa?1Product@ 1008ae40     aaa_capi.obj
 0002:0000ae68       ??_C@_0CC@KOENLIEB@Subsystem2?1shoudong?1XQfa?1Product@ 1008ae68     aaa_capi.obj
 0002:0000ae90       ??_C@_0CJ@IKAINMNB@Subsystem2?1shoudong?1XQfa?1Sum?5of?5@ 1008ae90     aaa_capi.obj
 0002:0000aec4       ??_C@_0CB@FDCLALOL@Subsystem2?1shoudong?1XQfa?1Switch1@ 1008aec4     aaa_capi.obj
 0002:0000aeec       ??_C@_0CB@HIAGFICI@Subsystem2?1shoudong?1XQfa?1Switch2@ 1008aeec     aaa_capi.obj
 0002:0000af14       ??_C@_0CB@GBBNGJGJ@Subsystem2?1shoudong?1XQfa?1Switch3@ 1008af14     aaa_capi.obj
 0002:0000af3c       ??_C@_0CB@COFMPPKO@Subsystem2?1shoudong?1XQfa?1Switch4@ 1008af3c     aaa_capi.obj
 0002:0000af64       ??_C@_0CB@DHEHMOOP@Subsystem2?1shoudong?1XQfa?1Switch5@ 1008af64     aaa_capi.obj
 0002:0000af8c       ??_C@_0CB@BMGKJNCM@Subsystem2?1shoudong?1XQfa?1Switch6@ 1008af8c     aaa_capi.obj
 0002:0000afb4       ??_C@_0CB@FHBKMGN@Subsystem2?1shoudong?1XQfa?1Switch7@ 1008afb4     aaa_capi.obj
 0002:0000afdc       ??_C@_0CB@ICOJLAKC@Subsystem2?1shoudong?1XQfa?1Switch8@ 1008afdc     aaa_capi.obj
 0002:0000b004       ??_C@_0CB@JLPCIBOD@Subsystem2?1shoudong?1XQfa?1Switch9@ 1008b004     aaa_capi.obj
 0002:0000b02c       ??_C@_0BM@OAMKHLEL@Subsystem2?1zidong?1SQfa?1Gain?$AA@ 1008b02c     aaa_capi.obj
 0002:0000b050       ??_C@_0BN@CHLDFFNB@Subsystem2?1zidong?1SQfa?1Gain1?$AA@ 1008b050     aaa_capi.obj
 0002:0000b074       ??_C@_0CI@BFDEMCBC@Subsystem2?1zidong?1SQfa?1Multiport@ 1008b074     aaa_capi.obj
 0002:0000b0a4       ??_C@_0BP@CKDHDFKK@Subsystem2?1zidong?1SQfa?1Product?$AA@ 1008b0a4     aaa_capi.obj
 0002:0000b0cc       ??_C@_0CA@PAHEHKHB@Subsystem2?1zidong?1SQfa?1Product1?$AA@ 1008b0cc     aaa_capi.obj
 0002:0000b0f4       ??_C@_0CH@PJKIGEFK@Subsystem2?1zidong?1SQfa?1Sum?5of?5El@ 1008b0f4     aaa_capi.obj
 0002:0000b124       ??_C@_0BP@LEBADFJD@Subsystem2?1zidong?1SQfa?1Switch1?$AA@ 1008b124     aaa_capi.obj
 0002:0000b14c       ??_C@_0BP@JPDNGGFA@Subsystem2?1zidong?1SQfa?1Switch2?$AA@ 1008b14c     aaa_capi.obj
 0002:0000b174       ??_C@_0BP@IGCGFHBB@Subsystem2?1zidong?1SQfa?1Switch3?$AA@ 1008b174     aaa_capi.obj
 0002:0000b19c       ??_C@_0BP@MJGHMBNG@Subsystem2?1zidong?1SQfa?1Switch4?$AA@ 1008b19c     aaa_capi.obj
 0002:0000b1c4       ??_C@_0BP@NAHMPAJH@Subsystem2?1zidong?1SQfa?1Switch5?$AA@ 1008b1c4     aaa_capi.obj
 0002:0000b1ec       ??_C@_0BP@PLFBKDFE@Subsystem2?1zidong?1SQfa?1Switch6?$AA@ 1008b1ec     aaa_capi.obj
 0002:0000b214       ??_C@_0BP@OCEKJCBF@Subsystem2?1zidong?1SQfa?1Switch7?$AA@ 1008b214     aaa_capi.obj
 0002:0000b23c       ??_C@_0BP@GFNCIONK@Subsystem2?1zidong?1SQfa?1Switch8?$AA@ 1008b23c     aaa_capi.obj
 0002:0000b264       ??_C@_0BP@HMMJLPJL@Subsystem2?1zidong?1SQfa?1Switch9?$AA@ 1008b264     aaa_capi.obj
 0002:0000b28c       ??_C@_0CB@PHMBGIBK@Subsystem2?1zidong?1Subsystem?1Gain@ 1008b28c     aaa_capi.obj
 0002:0000b2b4       ??_C@_0CC@DLMIDPKA@Subsystem2?1zidong?1Subsystem?1Gain@ 1008b2b4     aaa_capi.obj
 0002:0000b2dc       ??_C@_0CN@LFLPKCPE@Subsystem2?1zidong?1Subsystem?1Mult@ 1008b2dc     aaa_capi.obj
 0002:0000b314       ??_C@_0CE@LBHEOJCA@Subsystem2?1zidong?1Subsystem?1Prod@ 1008b314     aaa_capi.obj
 0002:0000b340       ??_C@_0CB@HKKELPEA@Subsystem2?1zidong?1Subsystem?1Add1@ 1008b340     aaa_capi.obj
 0002:0000b368       ??_C@_0CA@KJANAFKL@Subsystem2?1zidong?1Subsystem?1Sum?$AA@ 1008b368     aaa_capi.obj
 0002:0000b390       ??_C@_0CB@IHPAHANH@Subsystem2?1zidong?1Subsystem?1Sum1@ 1008b390     aaa_capi.obj
 0002:0000b3b8       ??_C@_0CC@FLNHPAFB@Subsystem2?1zidong?1Subsystem1?1Gai@ 1008b3b8     aaa_capi.obj
 0002:0000b3e0       ??_C@_0CD@NKGKLBCA@Subsystem2?1zidong?1Subsystem1?1Gai@ 1008b3e0     aaa_capi.obj
 0002:0000b40c       ??_C@_0CD@PBEHOCOD@Subsystem2?1zidong?1Subsystem1?1Gai@ 1008b40c     aaa_capi.obj
 0002:0000b438       ??_C@_0CD@OIFMNDKC@Subsystem2?1zidong?1Subsystem1?1Gai@ 1008b438     aaa_capi.obj
 0002:0000b464       ??_C@_0CO@LPLKCBEM@Subsystem2?1zidong?1Subsystem1?1Mul@ 1008b464     aaa_capi.obj
 0002:0000b49c       ??_C@_0CP@LJIILACI@Subsystem2?1zidong?1Subsystem1?1Mul@ 1008b49c     aaa_capi.obj
 0002:0000b4d4       ??_C@_0CF@IAPHDOOO@Subsystem2?1zidong?1Subsystem1?1Pro@ 1008b4d4     aaa_capi.obj
 0002:0000b500       ??_C@_0CC@NGLCCHAL@Subsystem2?1zidong?1Subsystem1?1Add@ 1008b500     aaa_capi.obj
 0002:0000b528       ??_C@_0CB@DGMAOIA@Subsystem2?1zidong?1Subsystem1?1Sum@ 1008b528     aaa_capi.obj
 0002:0000b550       ??_C@_0CC@CLOGOIJM@Subsystem2?1zidong?1Subsystem1?1Sum@ 1008b550     aaa_capi.obj
 0002:0000b578       ??_C@_0CC@MLLLFP@Subsystem2?1zidong?1Subsystem1?1Sum@ 1008b578     aaa_capi.obj
 0002:0000b5a0       ??_C@_0CC@BJNAIKBO@Subsystem2?1zidong?1Subsystem1?1Sum@ 1008b5a0     aaa_capi.obj
 0002:0000b5c8       ??_C@_0CI@JFAPEJFC@Subsystem2?1zidong?1XQfa?1Multiport@ 1008b5c8     aaa_capi.obj
 0002:0000b5f8       ??_C@_0BP@MNPOIKAJ@Subsystem2?1zidong?1XQfa?1Product?$AA@ 1008b5f8     aaa_capi.obj
 0002:0000b620       ??_C@_0CA@LPEMEBJM@Subsystem2?1zidong?1XQfa?1Product1?$AA@ 1008b620     aaa_capi.obj
 0002:0000b648       ??_C@_0CH@KHEEOPMP@Subsystem2?1zidong?1XQfa?1Sum?5of?5El@ 1008b648     aaa_capi.obj
 0002:0000b678       ??_C@_0BP@FDNJIKDA@Subsystem2?1zidong?1XQfa?1Switch1?$AA@ 1008b678     aaa_capi.obj
 0002:0000b6a0       ??_C@_0BP@HIPENJPD@Subsystem2?1zidong?1XQfa?1Switch2?$AA@ 1008b6a0     aaa_capi.obj
 0002:0000b6c8       ??_C@_0BP@GBOPOILC@Subsystem2?1zidong?1XQfa?1Switch3?$AA@ 1008b6c8     aaa_capi.obj
 0002:0000b6f0       ??_C@_0BP@COKOHOHF@Subsystem2?1zidong?1XQfa?1Switch4?$AA@ 1008b6f0     aaa_capi.obj
 0002:0000b718       ??_C@_0BP@DHLFEPDE@Subsystem2?1zidong?1XQfa?1Switch5?$AA@ 1008b718     aaa_capi.obj
 0002:0000b740       ??_C@_0BP@BMJIBMPH@Subsystem2?1zidong?1XQfa?1Switch6?$AA@ 1008b740     aaa_capi.obj
 0002:0000b768       ??_C@_0BP@FIDCNLG@Subsystem2?1zidong?1XQfa?1Switch7?$AA@ 1008b768     aaa_capi.obj
 0002:0000b790       ??_C@_0BP@ICBLDBHJ@Subsystem2?1zidong?1XQfa?1Switch8?$AA@ 1008b790     aaa_capi.obj
 0002:0000b7b8       ??_C@_0BP@JLAAAADI@Subsystem2?1zidong?1XQfa?1Switch9?$AA@ 1008b7b8     aaa_capi.obj
 0002:0000b7e0       ??_C@_0DJ@NIDEFFKH@chuanganqi?1yalishangxiaxian?1Comp@ 1008b7e0     aaa_capi.obj
 0002:0000b824       ??_C@_0DK@FDJLNKNE@chuanganqi?1yalishangxiaxian?1Comp@ 1008b824     aaa_capi.obj
 0002:0000b86c       ??_C@_0DJ@NMMBIFJK@chuanganqi?1yalishangxiaxian?1Comp@ 1008b86c     aaa_capi.obj
 0002:0000b8b0       ??_C@_0DJ@NBNPPFNN@chuanganqi?1yalishangxiaxian?1Comp@ 1008b8b0     aaa_capi.obj
 0002:0000b8f4       ??_C@_0DJ@NFCKCFOA@chuanganqi?1yalishangxiaxian?1Comp@ 1008b8f4     aaa_capi.obj
 0002:0000b938       ??_C@_0DJ@MLODBFFD@chuanganqi?1yalishangxiaxian?1Comp@ 1008b938     aaa_capi.obj
 0002:0000b97c       ??_C@_0DF@OJDHHNBN@Subsystem2?1shoudong?1Subsystem2?1S@ 1008b97c     aaa_capi.obj
 0002:0000b9bc       ??_C@_0DG@PFCNGGHP@Subsystem2?1shoudong?1Subsystem2?1S@ 1008b9bc     aaa_capi.obj
 0002:0000b9fc       ??_C@_0DG@MMKAFKLK@Subsystem2?1shoudong?1Subsystem2?1S@ 1008b9fc     aaa_capi.obj
 0002:0000ba3c       ??_C@_0DG@NLNLEOPJ@Subsystem2?1shoudong?1Subsystem2?1S@ 1008ba3c     aaa_capi.obj
 0002:0000ba7c       ??_C@_0DD@BCLAEFBA@Subsystem2?1zidong?1Subsystem1?1Sig@ 1008ba7c     aaa_capi.obj
 0002:0000babc       ??_C@_0DE@ILGHJNPK@Subsystem2?1zidong?1Subsystem1?1Sig@ 1008babc     aaa_capi.obj
 0002:0000bafc       ??_C@_0DE@LCOKKBDP@Subsystem2?1zidong?1Subsystem1?1Sig@ 1008bafc     aaa_capi.obj
 0002:0000bb3c       ??_C@_0DE@KFJBLFHM@Subsystem2?1zidong?1Subsystem1?1Sig@ 1008bb3c     aaa_capi.obj
 0002:0000bb7c       ??_C@_0BE@DNHKNIOA@Compare?5To?5Constant?$AA@ 1008bb7c     aaa_capi.obj
 0002:0000bb94       ??_C@_05BNCCCJPP@const?$AA@ 1008bb94     aaa_capi.obj
 0002:0000bb9c       ??_C@_0BF@GGGKJPBC@Compare?5To?5Constant1?$AA@ 1008bb9c     aaa_capi.obj
 0002:0000bbb8       ??_C@_0BF@ENEHMMNB@Compare?5To?5Constant2?$AA@ 1008bbb8     aaa_capi.obj
 0002:0000bbd4       ??_C@_0BF@FEFMPNJA@Compare?5To?5Constant3?$AA@ 1008bbd4     aaa_capi.obj
 0002:0000bbf0       ??_C@_09BJIKHCJG@BCQbushui?$AA@ 1008bbf0     aaa_capi.obj
 0002:0000bbfc       ??_C@_05LPIJGKJ@Value?$AA@ 1008bbfc     aaa_capi.obj
 0002:0000bc04       ??_C@_09IIHOELEE@Constant1?$AA@ 1008bc04     aaa_capi.obj
 0002:0000bc10       ??_C@_09KDFDBIIH@Constant2?$AA@ 1008bc10     aaa_capi.obj
 0002:0000bc1c       ??_C@_09LKEICJMG@Constant3?$AA@ 1008bc1c     aaa_capi.obj
 0002:0000bc28       ??_C@_07KNIGBLAI@SCjiaya?$AA@ 1008bc28     aaa_capi.obj
 0002:0000bc34       ??_C@_07GMPKCPMP@SCxieya?$AA@ 1008bc34     aaa_capi.obj
 0002:0000bc40       ??_C@_09NBIKLJAO@SCzhushui?$AA@ 1008bc40     aaa_capi.obj
 0002:0000bc4c       ??_C@_08DFCKFGBI@SXQjunya?$AA@ 1008bc4c     aaa_capi.obj
 0002:0000bc58       ??_C@_08JCFAIAK@SXQxieya?$AA@ 1008bc58     aaa_capi.obj
 0002:0000bc64       ??_C@_0N@CNBMNMJ@bilijianyafa?$AA@ 1008bc64     aaa_capi.obj
 0002:0000bc74       ??_C@_07EANCNNCI@guangai?$AA@ 1008bc74     aaa_capi.obj
 0002:0000bc80       ??_C@_06PKKJEHCE@jiesuo?$AA@ 1008bc80     aaa_capi.obj
 0002:0000bc88       ??_C@_06OHHDEPBO@kaigai?$AA@ 1008bc88     aaa_capi.obj
 0002:0000bc90       ??_C@_06DHNJLEFJ@kaishi?$AA@ 1008bc90     aaa_capi.obj
 0002:0000bc98       ??_C@_07PLPIKNFL@qiehuan?$AA@ 1008bc98     aaa_capi.obj
 0002:0000bca4       ??_C@_0N@FDOFLCNH@shiyabuchang?$AA@ 1008bca4     aaa_capi.obj
 0002:0000bcb4       ??_C@_07LNJJIGKI@suoding?$AA@ 1008bcb4     aaa_capi.obj
 0002:0000bcc0       ??_C@_07PPFCMPKN@tiaoshi?$AA@ 1008bcc0     aaa_capi.obj
 0002:0000bccc       ??_C@_07FGHBOBAN@xuanjin?$AA@ 1008bccc     aaa_capi.obj
 0002:0000bcd8       ??_C@_0O@EKMIPCIH@xuanjinjianya?$AA@ 1008bcd8     aaa_capi.obj
 0002:0000bce8       ??_C@_08BMMAFKBD@xuansong?$AA@ 1008bce8     aaa_capi.obj
 0002:0000bcf4       ??_C@_0O@FKCBCPMJ@zidongguangai?$AA@ 1008bcf4     aaa_capi.obj
 0002:0000bd04       ??_C@_0N@MOFFNDAK@zidongkaigai?$AA@ 1008bd04     aaa_capi.obj
 0002:0000bd14       ??_C@_05LFBINIGO@Table?$AA@ 1008bd14     aaa_capi.obj
 0002:0000bd1c       ??_C@_0BJ@GCDCIOIA@BreakpointsForDimension1?$AA@ 1008bd1c     aaa_capi.obj
 0002:0000bd3c       ??_C@_02LNFHGPBG@X0?$AA@   1008bd3c     aaa_capi.obj
 0002:0000bd40       ??_C@_02KKFPAPOP@P1?$AA@   1008bd40     aaa_capi.obj
 0002:0000bd44       ??_C@_02IBHCFMCM@P2?$AA@   1008bd44     aaa_capi.obj
 0002:0000bd48       ??_C@_02JIGJGNGN@P3?$AA@   1008bd48     aaa_capi.obj
 0002:0000bd4c       ??_C@_0BE@EMILCLO@PCI1716?1PCI1716DIO1?$AA@ 1008bd4c     aaa_capi.obj
 0002:0000bd64       ??_C@_0BB@PFOGAGAE@PCI6208?1Constant?$AA@ 1008bd64     aaa_capi.obj
 0002:0000bd78       ??_C@_0BC@MBMFCFKN@PCI6208?1Constant1?$AA@ 1008bd78     aaa_capi.obj
 0002:0000bd90       ??_C@_0L@FBCGKKEN@UpperLimit?$AA@ 1008bd90     aaa_capi.obj
 0002:0000bda0       ??_C@_0L@DGFJOHKP@LowerLimit?$AA@ 1008bda0     aaa_capi.obj
 0002:0000bdb0       ??_C@_0BG@IGMBMBDP@PCI6208?1PCI?96208A?5DA?5?$AA@ 1008bdb0     aaa_capi.obj
 0002:0000bdcc       ??_C@_02NHCIPLKK@P4?$AA@   1008bdcc     aaa_capi.obj
 0002:0000bdd0       ??_C@_02MODDMKOL@P5?$AA@   1008bdd0     aaa_capi.obj
 0002:0000bdd4       ??_C@_02OFBOJJCI@P6?$AA@   1008bdd4     aaa_capi.obj
 0002:0000bdd8       ??_C@_09HLCHFPPJ@Threshold?$AA@ 1008bdd8     aaa_capi.obj
 0002:0000bde4       ??_C@_0BA@KNIOHMAF@Subsystem3?1Out1?$AA@ 1008bde4     aaa_capi.obj
 0002:0000bdf8       ??_C@_0O@LILIEJBO@InitialOutput?$AA@ 1008bdf8     aaa_capi.obj
 0002:0000be08       ??_C@_0BE@GLPBDBDH@Subsystem3?1Constant?$AA@ 1008be08     aaa_capi.obj
 0002:0000be20       ??_C@_0BA@GICJECIL@Subsystem4?1Out1?$AA@ 1008be20     aaa_capi.obj
 0002:0000be34       ??_C@_0BE@ECMKCELE@Subsystem4?1Constant?$AA@ 1008be34     aaa_capi.obj
 0002:0000be4c       ??_C@_0BE@PKFJMKFC@chuanganqi?1Constant?$AA@ 1008be4c     aaa_capi.obj
 0002:0000be64       ??_C@_0BF@EDMCGOKA@chuanganqi?1Constant1?$AA@ 1008be64     aaa_capi.obj
 0002:0000be80       ??_C@_0BG@JNDFHHF@chuanganqi?1Constant10?$AA@ 1008be80     aaa_capi.obj
 0002:0000be9c       ??_C@_0BG@BAMIGGDE@chuanganqi?1Constant11?$AA@ 1008be9c     aaa_capi.obj
 0002:0000beb8       ??_C@_0BG@DLOFDFPH@chuanganqi?1Constant12?$AA@ 1008beb8     aaa_capi.obj
 0002:0000bed4       ??_C@_0BG@CCPOAELG@chuanganqi?1Constant13?$AA@ 1008bed4     aaa_capi.obj
 0002:0000bef0       ??_C@_0BG@GNLPJCHB@chuanganqi?1Constant14?$AA@ 1008bef0     aaa_capi.obj
 0002:0000bf0c       ??_C@_0BG@HEKEKDDA@chuanganqi?1Constant15?$AA@ 1008bf0c     aaa_capi.obj
 0002:0000bf28       ??_C@_0BG@FPIJPAPD@chuanganqi?1Constant16?$AA@ 1008bf28     aaa_capi.obj
 0002:0000bf44       ??_C@_0BG@EGJCMBLC@chuanganqi?1Constant17?$AA@ 1008bf44     aaa_capi.obj
 0002:0000bf60       ??_C@_0BG@MBAKNNHN@chuanganqi?1Constant18?$AA@ 1008bf60     aaa_capi.obj
 0002:0000bf7c       ??_C@_0BG@NIBBOMDM@chuanganqi?1Constant19?$AA@ 1008bf7c     aaa_capi.obj
 0002:0000bf98       ??_C@_0BF@GIOPDNGD@chuanganqi?1Constant2?$AA@ 1008bf98     aaa_capi.obj
 0002:0000bfb4       ??_C@_0BG@LJFOJCM@chuanganqi?1Constant20?$AA@ 1008bfb4     aaa_capi.obj
 0002:0000bfd0       ??_C@_0BG@BCIONIGN@chuanganqi?1Constant21?$AA@ 1008bfd0     aaa_capi.obj
 0002:0000bfec       ??_C@_0BG@DJKDILKO@chuanganqi?1Constant22?$AA@ 1008bfec     aaa_capi.obj
 0002:0000c008       ??_C@_0BG@CALILKOP@chuanganqi?1Constant23?$AA@ 1008c008     aaa_capi.obj
 0002:0000c024       ??_C@_0BG@GPPJCMCI@chuanganqi?1Constant24?$AA@ 1008c024     aaa_capi.obj
 0002:0000c040       ??_C@_0BG@HGOCBNGJ@chuanganqi?1Constant25?$AA@ 1008c040     aaa_capi.obj
 0002:0000c05c       ??_C@_0BG@FNMPEOKK@chuanganqi?1Constant26?$AA@ 1008c05c     aaa_capi.obj
 0002:0000c078       ??_C@_0BG@EENEHPOL@chuanganqi?1Constant27?$AA@ 1008c078     aaa_capi.obj
 0002:0000c094       ??_C@_0BG@MDEMGDCE@chuanganqi?1Constant28?$AA@ 1008c094     aaa_capi.obj
 0002:0000c0b0       ??_C@_0BG@NKFHFCGF@chuanganqi?1Constant29?$AA@ 1008c0b0     aaa_capi.obj
 0002:0000c0cc       ??_C@_0BF@HBPEAMCC@chuanganqi?1Constant3?$AA@ 1008c0cc     aaa_capi.obj
 0002:0000c0e8       ??_C@_0BG@KFHIDBL@chuanganqi?1Constant30?$AA@ 1008c0e8     aaa_capi.obj
 0002:0000c104       ??_C@_0BG@BDEMLCFK@chuanganqi?1Constant31?$AA@ 1008c104     aaa_capi.obj
 0002:0000c120       ??_C@_0BG@DIGBOBJJ@chuanganqi?1Constant32?$AA@ 1008c120     aaa_capi.obj
 0002:0000c13c       ??_C@_0BG@CBHKNANI@chuanganqi?1Constant33?$AA@ 1008c13c     aaa_capi.obj
 0002:0000c158       ??_C@_0BG@GODLEGBP@chuanganqi?1Constant34?$AA@ 1008c158     aaa_capi.obj
 0002:0000c174       ??_C@_0BG@HHCAHHFO@chuanganqi?1Constant35?$AA@ 1008c174     aaa_capi.obj
 0002:0000c190       ??_C@_0BG@FMANCEJN@chuanganqi?1Constant36?$AA@ 1008c190     aaa_capi.obj
 0002:0000c1ac       ??_C@_0BG@EFBGBFNM@chuanganqi?1Constant37?$AA@ 1008c1ac     aaa_capi.obj
 0002:0000c1c8       ??_C@_0BG@MCIOAJBD@chuanganqi?1Constant38?$AA@ 1008c1c8     aaa_capi.obj
 0002:0000c1e4       ??_C@_0BG@NLJFDIFC@chuanganqi?1Constant39?$AA@ 1008c1e4     aaa_capi.obj
 0002:0000c200       ??_C@_0BF@DOLFJKOF@chuanganqi?1Constant4?$AA@ 1008c200     aaa_capi.obj
 0002:0000c21c       ??_C@_0BG@PBIJFJO@chuanganqi?1Constant40?$AA@ 1008c21c     aaa_capi.obj
 0002:0000c238       ??_C@_0BG@BGADKENP@chuanganqi?1Constant41?$AA@ 1008c238     aaa_capi.obj
 0002:0000c254       ??_C@_0BG@DNCOPHBM@chuanganqi?1Constant42?$AA@ 1008c254     aaa_capi.obj
 0002:0000c270       ??_C@_0BG@CEDFMGFN@chuanganqi?1Constant43?$AA@ 1008c270     aaa_capi.obj
 0002:0000c28c       ??_C@_0BG@GLHEFAJK@chuanganqi?1Constant44?$AA@ 1008c28c     aaa_capi.obj
 0002:0000c2a8       ??_C@_0BG@HCGPGBNL@chuanganqi?1Constant45?$AA@ 1008c2a8     aaa_capi.obj
 0002:0000c2c4       ??_C@_0BG@FJECDCBI@chuanganqi?1Constant46?$AA@ 1008c2c4     aaa_capi.obj
 0002:0000c2e0       ??_C@_0BG@EAFJADFJ@chuanganqi?1Constant47?$AA@ 1008c2e0     aaa_capi.obj
 0002:0000c2fc       ??_C@_0BF@CHKOKLKE@chuanganqi?1Constant5?$AA@ 1008c2fc     aaa_capi.obj
 0002:0000c318       ??_C@_0BF@MIDPIGH@chuanganqi?1Constant6?$AA@ 1008c318     aaa_capi.obj
 0002:0000c334       ??_C@_0BF@BFJIMJCG@chuanganqi?1Constant7?$AA@ 1008c334     aaa_capi.obj
 0002:0000c350       ??_C@_0BF@JCAANFOJ@chuanganqi?1Constant8?$AA@ 1008c350     aaa_capi.obj
 0002:0000c36c       ??_C@_0BF@ILBLOEKI@chuanganqi?1Constant9?$AA@ 1008c36c     aaa_capi.obj
 0002:0000c388       ??_C@_0BC@MJOKMINB@chuanganqi?1Setup?5?$AA@ 1008c388     aaa_capi.obj
 0002:0000c3a0       ??_C@_03PGECKHFE@P11?$AA@  1008c3a0     aaa_capi.obj
 0002:0000c3a4       ??_C@_03JCCOGCFA@P15?$AA@  1008c3a4     aaa_capi.obj
 0002:0000c3a8       ??_C@_03LJADDBJD@P16?$AA@  1008c3a8     aaa_capi.obj
 0002:0000c3ac       ??_C@_03KABIAANC@P17?$AA@  1008c3ac     aaa_capi.obj
 0002:0000c3b0       ??_C@_03CHIABMBN@P18?$AA@  1008c3b0     aaa_capi.obj
 0002:0000c3b4       ??_C@_03DOJLCNFM@P19?$AA@  1008c3b4     aaa_capi.obj
 0002:0000c3b8       ??_C@_03ONBPCIEM@P20?$AA@  1008c3b8     aaa_capi.obj
 0002:0000c3bc       ??_C@_03PEAEBJAN@P21?$AA@  1008c3bc     aaa_capi.obj
 0002:0000c3c0       ??_C@_03NPCJEKMO@P22?$AA@  1008c3c0     aaa_capi.obj
 0002:0000c3c4       ??_C@_03MGDCHLIP@P23?$AA@  1008c3c4     aaa_capi.obj
 0002:0000c3c8       ??_C@_03IJHDONEI@P24?$AA@  1008c3c8     aaa_capi.obj
 0002:0000c3cc       ??_C@_04OKOFBOPB@Time?$AA@ 1008c3cc     aaa_capi.obj
 0002:0000c3d4       ??_C@_06NDPGJMFM@Before?$AA@ 1008c3d4     aaa_capi.obj
 0002:0000c3dc       ??_C@_05CLADCAAM@After?$AA@ 1008c3dc     aaa_capi.obj
 0002:0000c3e4       ??_C@_0P@HMEAEHIM@CurrentSetting?$AA@ 1008c3e4     aaa_capi.obj
 0002:0000c3f8       ??_C@_0BK@JEENNMD@Subsystem2?1husuo?1Constant?$AA@ 1008c3f8     aaa_capi.obj
 0002:0000c418       ??_C@_0BL@OPBEIDKG@Subsystem2?1husuo?1Constant2?$AA@ 1008c418     aaa_capi.obj
 0002:0000c438       ??_C@_0BL@CMNNPCIL@Subsystem2?1husuo1?1Constant?$AA@ 1008c438     aaa_capi.obj
 0002:0000c458       ??_C@_0BM@JHDGNDCL@Subsystem2?1husuo1?1Constant2?$AA@ 1008c458     aaa_capi.obj
 0002:0000c47c       ??_C@_0BL@LFDPJEIK@Subsystem2?1husuo2?1Constant?$AA@ 1008c47c     aaa_capi.obj
 0002:0000c49c       ??_C@_0BM@OAKIABNL@Subsystem2?1husuo2?1Constant2?$AA@ 1008c49c     aaa_capi.obj
 0002:0000c4c0       ??_C@_0CH@IHDDCDPD@Subsystem2?1shoudong?1bililiuliang@ 1008c4c0     aaa_capi.obj
 0002:0000c4f0       ??_C@_0CH@KMBOHADA@Subsystem2?1shoudong?1bililiuliang@ 1008c4f0     aaa_capi.obj
 0002:0000c520       ??_C@_0CH@LFAFEBHB@Subsystem2?1shoudong?1bililiuliang@ 1008c520     aaa_capi.obj
 0002:0000c550       ??_C@_0CH@PKEENHLG@Subsystem2?1shoudong?1bililiuliang@ 1008c550     aaa_capi.obj
 0002:0000c580       ??_C@_0CB@PMBHJHMC@Subsystem2?1shoudong?1kaiguangaifa@ 1008c580     aaa_capi.obj
 0002:0000c5a8       ??_C@_0CF@FPCDIIBB@Subsystem2?1zidong?1bililiuliangfa@ 1008c5a8     aaa_capi.obj
 0002:0000c5d4       ??_C@_0CF@HEAONLNC@Subsystem2?1zidong?1bililiuliangfa@ 1008c5d4     aaa_capi.obj
 0002:0000c600       ??_C@_0CF@GNBFOKJD@Subsystem2?1zidong?1bililiuliangfa@ 1008c600     aaa_capi.obj
 0002:0000c62c       ??_C@_0CF@CCFEHMFE@Subsystem2?1zidong?1bililiuliangfa@ 1008c62c     aaa_capi.obj
 0002:0000c658       ??_C@_0BP@PMOFBGBJ@Subsystem2?1zidong?1kaiguangaifa?$AA@ 1008c658     aaa_capi.obj
 0002:0000c680       ??_C@_0DB@JGFFEMFH@chuanganqi?1yalishangxiaxian?1Comp@ 1008c680     aaa_capi.obj
 0002:0000c6bc       ??_C@_0DC@DDMEJGKJ@chuanganqi?1yalishangxiaxian?1Comp@ 1008c6bc     aaa_capi.obj
 0002:0000c6f8       ??_C@_0DB@KEGDCONF@chuanganqi?1yalishangxiaxian?1Comp@ 1008c6f8     aaa_capi.obj
 0002:0000c734       ??_C@_0DB@PCDJIJFD@chuanganqi?1yalishangxiaxian?1Comp@ 1008c734     aaa_capi.obj
 0002:0000c770       ??_C@_0DB@MAAPOLNB@chuanganqi?1yalishangxiaxian?1Comp@ 1008c770     aaa_capi.obj
 0002:0000c7ac       ??_C@_0DB@FOIMMGFP@chuanganqi?1yalishangxiaxian?1Comp@ 1008c7ac     aaa_capi.obj
 0002:0000c7e8       ??_C@_0CC@CAPEJMKI@Subsystem2?1shoudong?1SQfa?1Constan@ 1008c7e8     aaa_capi.obj
 0002:0000c810       ??_C@_0CD@BOHANIPE@Subsystem2?1shoudong?1SQfa?1Constan@ 1008c810     aaa_capi.obj
 0002:0000c83c       ??_C@_0CE@GFIIHACO@Subsystem2?1shoudong?1SQfa?1Constan@ 1008c83c     aaa_capi.obj
 0002:0000c868       ??_C@_0CE@HMJDEBGP@Subsystem2?1shoudong?1SQfa?1Constan@ 1008c868     aaa_capi.obj
 0002:0000c894       ??_C@_0CE@FHLOBCKM@Subsystem2?1shoudong?1SQfa?1Constan@ 1008c894     aaa_capi.obj
 0002:0000c8c0       ??_C@_0CE@EOKFCDON@Subsystem2?1shoudong?1SQfa?1Constan@ 1008c8c0     aaa_capi.obj
 0002:0000c8ec       ??_C@_0CE@BOELFCK@Subsystem2?1shoudong?1SQfa?1Constan@ 1008c8ec     aaa_capi.obj
 0002:0000c918       ??_C@_0CE@BIPPIEGL@Subsystem2?1shoudong?1SQfa?1Constan@ 1008c918     aaa_capi.obj
 0002:0000c944       ??_C@_0CE@DDNCNHKI@Subsystem2?1shoudong?1SQfa?1Constan@ 1008c944     aaa_capi.obj
 0002:0000c970       ??_C@_0CE@CKMJOGOJ@Subsystem2?1shoudong?1SQfa?1Constan@ 1008c970     aaa_capi.obj
 0002:0000c99c       ??_C@_0CE@KNFBPKCG@Subsystem2?1shoudong?1SQfa?1Constan@ 1008c99c     aaa_capi.obj
 0002:0000c9c8       ??_C@_0CE@LEEKMLGH@Subsystem2?1shoudong?1SQfa?1Constan@ 1008c9c8     aaa_capi.obj
 0002:0000c9f4       ??_C@_0CD@DFFNILDH@Subsystem2?1shoudong?1SQfa?1Constan@ 1008c9f4     aaa_capi.obj
 0002:0000ca20       ??_C@_0CE@GHMOMOHH@Subsystem2?1shoudong?1SQfa?1Constan@ 1008ca20     aaa_capi.obj
 0002:0000ca4c       ??_C@_0CE@HONFPPDG@Subsystem2?1shoudong?1SQfa?1Constan@ 1008ca4c     aaa_capi.obj
 0002:0000ca78       ??_C@_0CE@FFPIKMPF@Subsystem2?1shoudong?1SQfa?1Constan@ 1008ca78     aaa_capi.obj
 0002:0000caa4       ??_C@_0CE@EMODJNLE@Subsystem2?1shoudong?1SQfa?1Constan@ 1008caa4     aaa_capi.obj
 0002:0000cad0       ??_C@_0CE@DKCALHD@Subsystem2?1shoudong?1SQfa?1Constan@ 1008cad0     aaa_capi.obj
 0002:0000cafc       ??_C@_0CE@BKLJDKDC@Subsystem2?1shoudong?1SQfa?1Constan@ 1008cafc     aaa_capi.obj
 0002:0000cb28       ??_C@_0CE@DBJEGJPB@Subsystem2?1shoudong?1SQfa?1Constan@ 1008cb28     aaa_capi.obj
 0002:0000cb54       ??_C@_0CE@CIIPFILA@Subsystem2?1shoudong?1SQfa?1Constan@ 1008cb54     aaa_capi.obj
 0002:0000cb80       ??_C@_0CE@KPBHEEHP@Subsystem2?1shoudong?1SQfa?1Constan@ 1008cb80     aaa_capi.obj
 0002:0000cbac       ??_C@_0CE@LGAMHFDO@Subsystem2?1shoudong?1SQfa?1Constan@ 1008cbac     aaa_capi.obj
 0002:0000cbd8       ??_C@_0CD@CMEGLKHG@Subsystem2?1shoudong?1SQfa?1Constan@ 1008cbd8     aaa_capi.obj
 0002:0000cc04       ??_C@_0CD@GDAHCMLB@Subsystem2?1shoudong?1SQfa?1Constan@ 1008cc04     aaa_capi.obj
 0002:0000cc30       ??_C@_0CD@HKBMBNPA@Subsystem2?1shoudong?1SQfa?1Constan@ 1008cc30     aaa_capi.obj
 0002:0000cc5c       ??_C@_0CD@FBDBEODD@Subsystem2?1shoudong?1SQfa?1Constan@ 1008cc5c     aaa_capi.obj
 0002:0000cc88       ??_C@_0CD@EICKHPHC@Subsystem2?1shoudong?1SQfa?1Constan@ 1008cc88     aaa_capi.obj
 0002:0000ccb4       ??_C@_0CD@MPLCGDLN@Subsystem2?1shoudong?1SQfa?1Constan@ 1008ccb4     aaa_capi.obj
 0002:0000cce0       ??_C@_0CD@NGKJFCPM@Subsystem2?1shoudong?1SQfa?1Constan@ 1008cce0     aaa_capi.obj
 0002:0000cd0c       ??_C@_0CH@OEBDOHHF@Subsystem2?1shoudong?1Subsystem?1Co@ 1008cd0c     aaa_capi.obj
 0002:0000cd3c       ??_C@_0CI@OGNGJBOG@Subsystem2?1shoudong?1Subsystem?1Co@ 1008cd3c     aaa_capi.obj
 0002:0000cd6c       ??_C@_0CI@JHNANFAJ@Subsystem2?1shoudong?1Subsystem2?1C@ 1008cd6c     aaa_capi.obj
 0002:0000cd9c       ??_C@_0CJ@LPBGGPMD@Subsystem2?1shoudong?1Subsystem2?1C@ 1008cd9c     aaa_capi.obj
 0002:0000cdd0       ??_C@_0CJ@JEDLDMAA@Subsystem2?1shoudong?1Subsystem2?1C@ 1008cdd0     aaa_capi.obj
 0002:0000ce04       ??_C@_0CC@GPMMKHEF@Subsystem2?1shoudong?1XQfa?1Constan@ 1008ce04     aaa_capi.obj
 0002:0000ce2c       ??_C@_0CD@MAIEHOAK@Subsystem2?1shoudong?1XQfa?1Constan@ 1008ce2c     aaa_capi.obj
 0002:0000ce58       ??_C@_0CE@DPFDFLJD@Subsystem2?1shoudong?1XQfa?1Constan@ 1008ce58     aaa_capi.obj
 0002:0000ce84       ??_C@_0CE@CGEIGKNC@Subsystem2?1shoudong?1XQfa?1Constan@ 1008ce84     aaa_capi.obj
 0002:0000ceb0       ??_C@_0CE@NGFDJBB@Subsystem2?1shoudong?1XQfa?1Constan@ 1008ceb0     aaa_capi.obj
 0002:0000cedc       ??_C@_0CE@BEHOAIFA@Subsystem2?1shoudong?1XQfa?1Constan@ 1008cedc     aaa_capi.obj
 0002:0000cf08       ??_C@_0CE@FLDPJOJH@Subsystem2?1shoudong?1XQfa?1Constan@ 1008cf08     aaa_capi.obj
 0002:0000cf34       ??_C@_0CE@ECCEKPNG@Subsystem2?1shoudong?1XQfa?1Constan@ 1008cf34     aaa_capi.obj
 0002:0000cf60       ??_C@_0CE@GJAJPMBF@Subsystem2?1shoudong?1XQfa?1Constan@ 1008cf60     aaa_capi.obj
 0002:0000cf8c       ??_C@_0CE@HABCMNFE@Subsystem2?1shoudong?1XQfa?1Constan@ 1008cf8c     aaa_capi.obj
 0002:0000cfb8       ??_C@_0CE@PHIKNBJL@Subsystem2?1shoudong?1XQfa?1Constan@ 1008cfb8     aaa_capi.obj
 0002:0000cfe4       ??_C@_0CE@OOJBOANK@Subsystem2?1shoudong?1XQfa?1Constan@ 1008cfe4     aaa_capi.obj
 0002:0000d010       ??_C@_0CD@OLKJCNMJ@Subsystem2?1shoudong?1XQfa?1Constan@ 1008d010     aaa_capi.obj
 0002:0000d03c       ??_C@_0CE@DNBFOFMK@Subsystem2?1shoudong?1XQfa?1Constan@ 1008d03c     aaa_capi.obj
 0002:0000d068       ??_C@_0CE@CEAONEIL@Subsystem2?1shoudong?1XQfa?1Constan@ 1008d068     aaa_capi.obj
 0002:0000d094       ??_C@_0CE@PCDIHEI@Subsystem2?1shoudong?1XQfa?1Constan@ 1008d094     aaa_capi.obj
 0002:0000d0c0       ??_C@_0CE@BGDILGAJ@Subsystem2?1shoudong?1XQfa?1Constan@ 1008d0c0     aaa_capi.obj
 0002:0000d0ec       ??_C@_0CE@FJHJCAMO@Subsystem2?1shoudong?1XQfa?1Constan@ 1008d0ec     aaa_capi.obj
 0002:0000d118       ??_C@_0CE@EAGCBBIP@Subsystem2?1shoudong?1XQfa?1Constan@ 1008d118     aaa_capi.obj
 0002:0000d144       ??_C@_0CE@GLEPECEM@Subsystem2?1shoudong?1XQfa?1Constan@ 1008d144     aaa_capi.obj
 0002:0000d170       ??_C@_0CE@HCFEHDAN@Subsystem2?1shoudong?1XQfa?1Constan@ 1008d170     aaa_capi.obj
 0002:0000d19c       ??_C@_0CE@PFMMGPMC@Subsystem2?1shoudong?1XQfa?1Constan@ 1008d19c     aaa_capi.obj
 0002:0000d1c8       ??_C@_0CE@OMNHFOID@Subsystem2?1shoudong?1XQfa?1Constan@ 1008d1c8     aaa_capi.obj
 0002:0000d1f4       ??_C@_0CD@PCLCBMII@Subsystem2?1shoudong?1XQfa?1Constan@ 1008d1f4     aaa_capi.obj
 0002:0000d220       ??_C@_0CD@LNPDIKEP@Subsystem2?1shoudong?1XQfa?1Constan@ 1008d220     aaa_capi.obj
 0002:0000d24c       ??_C@_0CD@KEOILLAO@Subsystem2?1shoudong?1XQfa?1Constan@ 1008d24c     aaa_capi.obj
 0002:0000d278       ??_C@_0CD@IPMFOIMN@Subsystem2?1shoudong?1XQfa?1Constan@ 1008d278     aaa_capi.obj
 0002:0000d2a4       ??_C@_0CD@JGNONJIM@Subsystem2?1shoudong?1XQfa?1Constan@ 1008d2a4     aaa_capi.obj
 0002:0000d2d0       ??_C@_0CD@BBEGMFED@Subsystem2?1shoudong?1XQfa?1Constan@ 1008d2d0     aaa_capi.obj
 0002:0000d2fc       ??_C@_0CD@IFNPEAC@Subsystem2?1shoudong?1XQfa?1Constan@ 1008d2fc     aaa_capi.obj
 0002:0000d328       ??_C@_0CB@OGADHHGE@Subsystem2?1zidong?1SQfa?1Constant1@ 1008d328     aaa_capi.obj
 0002:0000d350       ??_C@_0CC@JFHPJAMF@Subsystem2?1zidong?1SQfa?1Constant1@ 1008d350     aaa_capi.obj
 0002:0000d378       ??_C@_0CC@IMGEKBIE@Subsystem2?1zidong?1SQfa?1Constant1@ 1008d378     aaa_capi.obj
 0002:0000d3a0       ??_C@_0CC@KHEJPCEH@Subsystem2?1zidong?1SQfa?1Constant1@ 1008d3a0     aaa_capi.obj
 0002:0000d3c8       ??_C@_0CC@LOFCMDAG@Subsystem2?1zidong?1SQfa?1Constant1@ 1008d3c8     aaa_capi.obj
 0002:0000d3f0       ??_C@_0CC@PBBDFFMB@Subsystem2?1zidong?1SQfa?1Constant1@ 1008d3f0     aaa_capi.obj
 0002:0000d418       ??_C@_0CC@OIAIGEIA@Subsystem2?1zidong?1SQfa?1Constant1@ 1008d418     aaa_capi.obj
 0002:0000d440       ??_C@_0CC@MDCFDHED@Subsystem2?1zidong?1SQfa?1Constant1@ 1008d440     aaa_capi.obj
 0002:0000d468       ??_C@_0CC@NKDOAGAC@Subsystem2?1zidong?1SQfa?1Constant1@ 1008d468     aaa_capi.obj
 0002:0000d490       ??_C@_0CC@FNKGBKMN@Subsystem2?1zidong?1SQfa?1Constant1@ 1008d490     aaa_capi.obj
 0002:0000d4b8       ??_C@_0CC@EELNCLIM@Subsystem2?1zidong?1SQfa?1Constant1@ 1008d4b8     aaa_capi.obj
 0002:0000d4e0       ??_C@_0CB@MNCOCEKH@Subsystem2?1zidong?1SQfa?1Constant2@ 1008d4e0     aaa_capi.obj
 0002:0000d508       ??_C@_0CC@JHDJCOJM@Subsystem2?1zidong?1SQfa?1Constant2@ 1008d508     aaa_capi.obj
 0002:0000d530       ??_C@_0CC@IOCCBPNN@Subsystem2?1zidong?1SQfa?1Constant2@ 1008d530     aaa_capi.obj
 0002:0000d558       ??_C@_0CC@KFAPEMBO@Subsystem2?1zidong?1SQfa?1Constant2@ 1008d558     aaa_capi.obj
 0002:0000d580       ??_C@_0CC@LMBEHNFP@Subsystem2?1zidong?1SQfa?1Constant2@ 1008d580     aaa_capi.obj
 0002:0000d5a8       ??_C@_0CC@PDFFOLJI@Subsystem2?1zidong?1SQfa?1Constant2@ 1008d5a8     aaa_capi.obj
 0002:0000d5d0       ??_C@_0CC@OKEONKNJ@Subsystem2?1zidong?1SQfa?1Constant2@ 1008d5d0     aaa_capi.obj
 0002:0000d5f8       ??_C@_0CC@MBGDIJBK@Subsystem2?1zidong?1SQfa?1Constant2@ 1008d5f8     aaa_capi.obj
 0002:0000d620       ??_C@_0CC@NIHILIFL@Subsystem2?1zidong?1SQfa?1Constant2@ 1008d620     aaa_capi.obj
 0002:0000d648       ??_C@_0CC@FPOAKEJE@Subsystem2?1zidong?1SQfa?1Constant2@ 1008d648     aaa_capi.obj
 0002:0000d670       ??_C@_0CC@EGPLJFNF@Subsystem2?1zidong?1SQfa?1Constant2@ 1008d670     aaa_capi.obj
 0002:0000d698       ??_C@_0CB@NEDFBFOG@Subsystem2?1zidong?1SQfa?1Constant3@ 1008d698     aaa_capi.obj
 0002:0000d6c0       ??_C@_0CB@JLHEIDCB@Subsystem2?1zidong?1SQfa?1Constant4@ 1008d6c0     aaa_capi.obj
 0002:0000d6e8       ??_C@_0CB@ICGPLCGA@Subsystem2?1zidong?1SQfa?1Constant5@ 1008d6e8     aaa_capi.obj
 0002:0000d710       ??_C@_0CB@KJECOBKD@Subsystem2?1zidong?1SQfa?1Constant6@ 1008d710     aaa_capi.obj
 0002:0000d738       ??_C@_0CB@LAFJNAOC@Subsystem2?1zidong?1SQfa?1Constant7@ 1008d738     aaa_capi.obj
 0002:0000d760       ??_C@_0CB@DHMBMMCN@Subsystem2?1zidong?1SQfa?1Constant8@ 1008d760     aaa_capi.obj
 0002:0000d788       ??_C@_0CB@CONKPNGM@Subsystem2?1zidong?1SQfa?1Constant9@ 1008d788     aaa_capi.obj
 0002:0000d7b0       ??_C@_0CF@DMADEMJH@Subsystem2?1zidong?1Subsystem?1Cons@ 1008d7b0     aaa_capi.obj
 0002:0000d7dc       ??_C@_0CG@KIAKACBJ@Subsystem2?1zidong?1Subsystem?1Cons@ 1008d7dc     aaa_capi.obj
 0002:0000d80c       ??_C@_0CG@EAOOCAPH@Subsystem2?1zidong?1Subsystem1?1Con@ 1008d80c     aaa_capi.obj
 0002:0000d83c       ??_C@_0CH@OFMEIOCN@Subsystem2?1zidong?1Subsystem1?1Con@ 1008d83c     aaa_capi.obj
 0002:0000d86c       ??_C@_0CH@MOOJNNOO@Subsystem2?1zidong?1Subsystem1?1Con@ 1008d86c     aaa_capi.obj
 0002:0000d89c       ??_C@_0CB@DIPHNBJK@Subsystem2?1zidong?1XQfa?1Constant1@ 1008d89c     aaa_capi.obj
 0002:0000d8c4       ??_C@_0CC@MPKELLHI@Subsystem2?1zidong?1XQfa?1Constant1@ 1008d8c4     aaa_capi.obj
 0002:0000d8ec       ??_C@_0CC@NGLPIKDJ@Subsystem2?1zidong?1XQfa?1Constant1@ 1008d8ec     aaa_capi.obj
 0002:0000d914       ??_C@_0CC@PNJCNJPK@Subsystem2?1zidong?1XQfa?1Constant1@ 1008d914     aaa_capi.obj
 0002:0000d93c       ??_C@_0CC@OEIJOILL@Subsystem2?1zidong?1XQfa?1Constant1@ 1008d93c     aaa_capi.obj
 0002:0000d964       ??_C@_0CC@KLMIHOHM@Subsystem2?1zidong?1XQfa?1Constant1@ 1008d964     aaa_capi.obj
 0002:0000d98c       ??_C@_0CC@LCNDEPDN@Subsystem2?1zidong?1XQfa?1Constant1@ 1008d98c     aaa_capi.obj
 0002:0000d9b4       ??_C@_0CC@JJPOBMPO@Subsystem2?1zidong?1XQfa?1Constant1@ 1008d9b4     aaa_capi.obj
 0002:0000d9dc       ??_C@_0CC@IAOFCNLP@Subsystem2?1zidong?1XQfa?1Constant1@ 1008d9dc     aaa_capi.obj
 0002:0000da04       ??_C@_0CC@HHNDBHA@Subsystem2?1zidong?1XQfa?1Constant1@ 1008da04     aaa_capi.obj
 0002:0000da2c       ??_C@_0CC@BOGGAADB@Subsystem2?1zidong?1XQfa?1Constant1@ 1008da2c     aaa_capi.obj
 0002:0000da54       ??_C@_0CB@BDNKICFJ@Subsystem2?1zidong?1XQfa?1Constant2@ 1008da54     aaa_capi.obj
 0002:0000da7c       ??_C@_0CC@MNOCAFCB@Subsystem2?1zidong?1XQfa?1Constant2@ 1008da7c     aaa_capi.obj
 0002:0000daa4       ??_C@_0CC@NEPJDEGA@Subsystem2?1zidong?1XQfa?1Constant2@ 1008daa4     aaa_capi.obj
 0002:0000dacc       ??_C@_0CC@PPNEGHKD@Subsystem2?1zidong?1XQfa?1Constant2@ 1008dacc     aaa_capi.obj
 0002:0000daf4       ??_C@_0CC@OGMPFGOC@Subsystem2?1zidong?1XQfa?1Constant2@ 1008daf4     aaa_capi.obj
 0002:0000db1c       ??_C@_0CC@KJIOMACF@Subsystem2?1zidong?1XQfa?1Constant2@ 1008db1c     aaa_capi.obj
 0002:0000db44       ??_C@_0CC@LAJFPBGE@Subsystem2?1zidong?1XQfa?1Constant2@ 1008db44     aaa_capi.obj
 0002:0000db6c       ??_C@_0CC@JLLIKCKH@Subsystem2?1zidong?1XQfa?1Constant2@ 1008db6c     aaa_capi.obj
 0002:0000db94       ??_C@_0CC@ICKDJDOG@Subsystem2?1zidong?1XQfa?1Constant2@ 1008db94     aaa_capi.obj
 0002:0000dbbc       ??_C@_0CC@FDLIPCJ@Subsystem2?1zidong?1XQfa?1Constant2@ 1008dbbc     aaa_capi.obj
 0002:0000dbe4       ??_C@_0CC@BMCALOGI@Subsystem2?1zidong?1XQfa?1Constant2@ 1008dbe4     aaa_capi.obj
 0002:0000dc0c       ??_C@_0CB@KMBLDBI@Subsystem2?1zidong?1XQfa?1Constant3@ 1008dc0c     aaa_capi.obj
 0002:0000dc34       ??_C@_0CB@EFIACFNP@Subsystem2?1zidong?1XQfa?1Constant4@ 1008dc34     aaa_capi.obj
 0002:0000dc5c       ??_C@_0CB@FMJLBEJO@Subsystem2?1zidong?1XQfa?1Constant5@ 1008dc5c     aaa_capi.obj
 0002:0000dc84       ??_C@_0CB@HHLGEHFN@Subsystem2?1zidong?1XQfa?1Constant6@ 1008dc84     aaa_capi.obj
 0002:0000dcac       ??_C@_0CB@GOKNHGBM@Subsystem2?1zidong?1XQfa?1Constant7@ 1008dcac     aaa_capi.obj
 0002:0000dcd4       ??_C@_0CB@OJDFGKND@Subsystem2?1zidong?1XQfa?1Constant8@ 1008dcd4     aaa_capi.obj
 0002:0000dcfc       ??_C@_0CB@PACOFLJC@Subsystem2?1zidong?1XQfa?1Constant9@ 1008dcfc     aaa_capi.obj
 0002:0000dd24       ??_C@_06BNJCAIGJ@double?$AA@ 1008dd24     aaa_capi.obj
 0002:0000dd2c       ??_C@_06CNMIJIPB@real_T?$AA@ 1008dd2c     aaa_capi.obj
 0002:0000dd34       ??_C@_0O@PPAIJIHF@unsigned?5char?$AA@ 1008dd34     aaa_capi.obj
 0002:0000dd44       ??_C@_09JBMFCIMO@boolean_T?$AA@ 1008dd44     aaa_capi.obj
 0002:0000dd50       ??_C@_0P@IIMKEEHB@unsigned?5short?$AA@ 1008dd50     aaa_capi.obj
 0002:0000dd64       ??_C@_08NHGKGJKC@uint16_T?$AA@ 1008dd64     aaa_capi.obj
 0002:0000dd70       ??_C@_07NCEHLPOC@uint8_T?$AA@ 1008dd70     aaa_capi.obj
 0002:0000dd7c       ??_C@_05KNFBNCOH@float?$AA@ 1008dd7c     aaa_capi.obj
 0002:0000e5e8       ??_C@_0DJ@FHKINPLE@Unexpected?5itemKind?5?$DN?5DATA_ITEM?5@ 1008e5e8     rt_logging.obj
 0002:0000e62c       ??_C@_0DA@IEHFPFCJ@Unexpected?5itemKind?$DN?$CFd?5in?5rt_Pro@ 1008e62c     rt_logging.obj
 0002:0000e668       ??_C@_0DA@IFLHJPBO@Unexpected?5itemKind?$DN?$CFd?5in?5rt_Pro@ 1008e668     rt_logging.obj
 0002:0000e6a4       ??_C@_0DA@IAPIIJJL@Unexpected?5itemKind?$DN?$CFd?5in?5rt_Pro@ 1008e6a4     rt_logging.obj
 0002:0000e6e0       ??_C@_0BE@LCIGPJIG@MATLAB?55?40?5MAT?9file?$AA@ 1008e6e0     rt_logging.obj
 0002:0000e6f8       ??_C@_0FB@PCJEAJIB@?$CK?$CK?$CK?5Log?5variable?5?$CFs?5has?5wrapped?5@ 1008e6f8     rt_logging.obj
 0002:0000e760       ??_C@_0MG@NKMLMOGF@?$CK?$CK?$CK?5To?5avoid?5wrapping?0?5explicitl@ 1008e760     rt_logging.obj
 0002:0000e850       ??_C@_0N@IPAEOLLP@_rtw_tmw?4tmw?$AA@ 1008e850     rt_logging.obj
 0002:0000e860       ??_C@_04HDOCAJNK@?$CFs?$CFs?$AA@ 1008e860     rt_logging.obj
 0002:0000e868       ??_C@_03ELIABIOC@w?$CLb?$AA@ 1008e868     rt_logging.obj
 0002:0000e86c       ??_C@_0BF@JPILDDFA@?$CK?$CK?$CK?5Error?5opening?5?$CFs?$AA@ 1008e86c     rt_logging.obj
 0002:0000e888       ??_C@_0BK@EEMDELA@unable?5to?5open?5data?5file?6?$AA@ 1008e888     rt_logging.obj
 0002:0000e8a8       ??_C@_04CGFJFPFD@none?$AA@ 1008e8a8     rt_logging.obj
 0002:0000e8b0       ??_C@_0EE@LCGFPNON@?$CK?$CK?$CK?5Error?5creating?5signals?5struc@ 1008e8b0     rt_logging.obj
 0002:0000e904       ??_C@_0CE@NHECEDMK@?$CK?$CK?$CK?5Error?5creating?5log?5variable?5@ 1008e904     rt_logging.obj
 0002:0000e930       ??_C@_0DB@IOCGKAGH@?$CK?$CK?$CK?5Errors?5occurred?5when?5startin@ 1008e930     rt_logging.obj
 0002:0000e96c       ??_C@_0BO@BBLOGEBK@?$CK?$CK?$CK?5Memory?5allocation?5error?4?6?$AA@ 1008e96c     rt_logging.obj
 0002:0000e990       ??_C@_0N@LGFBAGEL@?5?$CIreal?5part?$CJ?$AA@ 1008e990     rt_logging.obj
 0002:0000e9a0       ??_C@_0KH@CGNMHNFE@?5?5?5?5varName?5?5?5?5?5?5?5?5?5?5?$DN?5?$CFs?$CFs?6?5?5?5?5@ 1008e9a0     rt_logging.obj
 0002:0000ea68       ??_C@_0LE@OALKKEFM@?5?5?5?5varName?5?5?5?5?5?5?5?5?5?5?$DN?5?$CFs?5?$CIcompl@ 1008ea68     rt_logging.obj
 0002:0000eb40       ??_C@_0KF@JDDLEOKO@?5?5?5?5varName?5?5?5?5?5?5?5?5?5?5?$DN?5?$CFs?6?5?5?5?5nR@ 1008eb40     rt_logging.obj
 0002:0000ec08       ??_C@_0DP@HPDMIOFM@?$CK?$CK?$CK?5Using?5a?5default?5buffer?5of?5si@ 1008ec08     rt_logging.obj
 0002:0000ec58       ??_C@_0KE@JEFOLKNF@?6?$CK?$CK?$CK?5Memory?5required?5to?5log?5vari@ 1008ec58     rt_logging.obj
 0002:0000ed20       ??_C@_0JP@DKLMHCBI@?$CK?$CK?$CK?5Details?3?6?5?5?5?5?5?5?5varName?5?5?5?5?5@ 1008ed20     rt_logging.obj
 0002:0000ede0       ??_C@_0CM@CAMILBED@?$CK?$CK?$CK?5Error?5allocating?5memory?5for?5@ 1008ede0     rt_logging.obj
 0002:0000ee14       ??_C@_0DF@BBCNMOPM@?$CK?$CK?$CK?5Error?5allocating?5memory?5for?5@ 1008ee14     rt_logging.obj
 0002:0000ee58       ??_C@_0JP@DBCLPCCI@?$CK?$CK?$CK?5Details?3?6?5?5?5?5?5?5?5varName?5?5?5?5?5@ 1008ee58     rt_logging.obj
 0002:0000ef18       ??_C@_0FK@DPGAOBGA@?$CK?$CK?$CK?5Error?5allocating?5memory?5for?5@ 1008ef18     rt_logging.obj
 0002:0000ef84       ??_C@_0BI@GGDNPHLJ@?$CK?$CK?$CK?5Error?5writing?5to?5?$CFs?$AA@ 1008ef84     rt_logging.obj
 0002:0000efa0       ??_C@_0CB@IBGJGELG@?$CK?$CK?$CK?5Error?5writing?5?$CFs?5due?5to?3?5?$CFs?6@ 1008efa0     rt_logging.obj
 0002:0000efc8       ??_C@_0CN@FLMCHCPB@?$CK?$CK?$CK?5Error?5writing?5log?5variable?5?$CF@ 1008efc8     rt_logging.obj
 0002:0000f000       ??_C@_0DH@GAJCNOJP@?$CK?$CK?$CK?5Error?5writing?5structure?5log?5@ 1008f000     rt_logging.obj
 0002:0000f044       ??_C@_0BD@POEALECL@?$CK?$CK?5created?5?$CFs?5?$CK?$CK?6?6?$AA@ 1008f044     rt_logging.obj
 0002:0000f060       __real@0000000000000000    1008f060     rt_logging.obj
 0002:0000f070       __real@41dfffffffc00000    1008f070     rt_logging.obj
 0002:0000f080       __real@41efffffffe00000    1008f080     rt_logging.obj
 0002:0000f090       __real@bfbf9add3afd2773    1008f090     rt_logging.obj
 0002:0000f0a0       __real@c000000000000000    1008f0a0     rt_logging.obj
 0002:0000f0b0       __xmm@20202020202020202020202020202020 1008f0b0     rt_logging.obj
 0002:0000f0e0       __real@3cb0000000000000    1008f0e0     rt_matrx.obj
 0002:0000f0ec       ??_C@_0BI@INNPNFJN@Memory?5Allocation?5Error?$AA@ 1008f0ec     rtw_modelmap_utils.obj
 0002:0000f108       ??_C@_1GI@JMAMOIHM@?$AAD?$AA?3?$AA?2?$AAM?$AAA?$AAT?$AAL?$AAA?$AAB?$AA?$HO?$AA3?$AA?2?$AAM?$AAA?$AAT?$AAL?$AAA?$AAB?$AA?$HO?$AA2?$AA?2?$AAr?$AAt?$AAw?$AA?2?$AAc?$AA?2?$AAs?$AAr?$AAc?$AA?2?$AAr@ 1008f108     rtw_modelmap_utils.obj
 0002:0000f184       ??_C@_1CI@OEAJCJND@?$AAj?$AA?5?$AA?$DN?$AA?$DN?$AA?5?$AAe?$AAn?$AAc?$AAo?$AAd?$AAe?$AAd?$AAP?$AAa?$AAt?$AAh?$AAL?$AAe?$AAn?$AA?$AA@ 1008f184     rtw_modelmap_utils.obj
 0002:0000f1b4       ??_C@_1DC@NFAOIFKB@?$AAe?$AAn?$AAc?$AAo?$AAd?$AAe?$AAd?$AAP?$AAa?$AAt?$AAh?$AA?$FL?$AAj?$AA?9?$AA1?$AA?$FN?$AA?5?$AA?$DN?$AA?$DN?$AA?5?$AA?8?$AA?2?$AA0?$AA?8?$AA?$AA@ 1008f1b4     rtw_modelmap_utils.obj
 0002:0000f1f0       ??_C@_1DI@FLNJGPEE@?$AAs?$AAi?$AAg?$AAC?$AAo?$AAm?$AAp?$AAl?$AAe?$AAx?$AAi?$AAt?$AAy?$AA?$FL?$AA?$CK?$AAs?$AAi?$AAg?$AAI?$AAd?$AAx?$AA?$FN?$AA?5?$AA?$CB?$AA?$DN?$AA?5?$AA1?$AA?$AA@ 1008f1f0     rtw_modelmap_utils.obj
 0002:0000f238       ??_C@_1KI@OFELMGBG@?$AA?$CI?$AA?$CI?$AA?$CI?$AAd?$AAa?$AAt?$AAa?$AAT?$AAy?$AAp?$AAe?$AAM?$AAa?$AAp?$AA?$CJ?$AA?$FL?$AA?$CI?$AA?$CI?$AA?$CI?$AAs?$AAt?$AAa?$AAt?$AAe?$AAs?$AA?$CJ?$AA?$FL?$AA?$CI?$AAi?$AA?$CJ?$AA?$FN?$AA?4@ 1008f238     rtw_modelmap_utils.obj
 0002:0000f304       ??_C@_1DA@ILCMPHNE@?$AAf?$AAu?$AAl?$AAl?$AAP?$AAa?$AAt?$AAh?$AA?5?$AA?$CB?$AA?$DN?$AA?5?$AA?$CI?$AA?$CI?$AAv?$AAo?$AAi?$AAd?$AA?5?$AA?$CK?$AA?$CJ?$AA0?$AA?$CJ?$AA?$AA@ 1008f304     rtw_modelmap_utils.obj
 0002:0000f340       ??_C@_1CI@OEPPFCCA@?$AAp?$AAa?$AAt?$AAh?$AA?5?$AA?$CB?$AA?$DN?$AA?5?$AA?$CI?$AA?$CI?$AAv?$AAo?$AAi?$AAd?$AA?5?$AA?$CK?$AA?$CJ?$AA0?$AA?$CJ?$AA?$AA@ 1008f340     rtw_modelmap_utils.obj
 0002:0000f370       ??_C@_1FK@GLJIMFHB@?$AA?$CI?$AA?$CI?$AAm?$AAm?$AAi?$AA?$CJ?$AA?9?$AA?$DO?$AAI?$AAn?$AAs?$AAt?$AAa?$AAn?$AAc?$AAe?$AAM?$AAa?$AAp?$AA?4?$AAf?$AAu?$AAl?$AAl?$AAP?$AAa?$AAt?$AAh?$AA?$CJ?$AA?5?$AA?$DN?$AA?$DN@ 1008f370     rtw_modelmap_utils.obj
 0002:0000f3dc       ??_C@_1DG@HPCJGNCE@?$AAm?$AAm?$AAi?$AAP?$AAa?$AAt?$AAh?$AA?$FL?$AAp?$AAa?$AAt?$AAh?$AAL?$AAe?$AAn?$AA?9?$AA1?$AA?$FN?$AA?5?$AA?$DN?$AA?$DN?$AA?5?$AA?8?$AA?2?$AA0?$AA?8?$AA?$AA@ 1008f3dc     rtw_modelmap_utils.obj
 0002:0000f41c       ??_C@_1DM@DBAOGGOO@?$AAm?$AAm?$AAi?$AAP?$AAa?$AAt?$AAh?$AA?$FL?$AAm?$AAm?$AAi?$AAP?$AAa?$AAt?$AAh?$AAL?$AAe?$AAn?$AA?9?$AA1?$AA?$FN?$AA?5?$AA?$DN?$AA?$DN?$AA?5?$AA?8?$AA?2?$AA0?$AA?8?$AA?$AA@ 1008f41c     rtw_modelmap_utils.obj
 0002:0000f464       ??_C@_1DC@LHIAKAFE@?$AAb?$AAl?$AAo?$AAc?$AAk?$AAP?$AAa?$AAt?$AAh?$AA?5?$AA?$CB?$AA?$DN?$AA?5?$AA?$CI?$AA?$CI?$AAv?$AAo?$AAi?$AAd?$AA?5?$AA?$CK?$AA?$CJ?$AA0?$AA?$CJ?$AA?$AA@ 1008f464     rtw_modelmap_utils.obj
 0002:0000f4a0       ??_C@_1GI@KIEJKPGC@?$AAf?$AAu?$AAl?$AAl?$AAS?$AAt?$AAa?$AAt?$AAe?$AAB?$AAl?$AAo?$AAc?$AAk?$AAP?$AAa?$AAt?$AAh?$AA?$FL?$AAf?$AAu?$AAl?$AAl?$AAS?$AAt?$AAa?$AAt?$AAe?$AAB?$AAl?$AAo?$AAc@ 1008f4a0     rtw_modelmap_utils.obj
 0002:0000f520       ??_C@_1EE@DNPIBJHC@?$AA?$CI?$AA?$CI?$AAd?$AAi?$AAm?$AAM?$AAa?$AAp?$AA?$CJ?$AA?$FL?$AA?$CI?$AAm?$AAa?$AAp?$AAI?$AAd?$AAx?$AA?$CJ?$AA?$FN?$AA?4?$AAn?$AAu?$AAm?$AAD?$AAi?$AAm?$AAs?$AA?$CJ?$AA?5?$AA?$DN?$AA?$DN?$AA?5@ 1008f520     rtw_modelmap_utils.obj
 0002:0000f574       ??_C@_06JFOKFOED@CSTATE?$AA@ 1008f574     rtw_modelmap_utils.obj
 0002:0000f57c       ??_C@_06FAENGAMN@DSTATE?$AA@ 1008f57c     rtw_modelmap_utils.obj
 0002:0000f584       ??_C@_1BI@LEBJNOGG@?$AAc?$AAs?$AAv?$AAI?$AAd?$AAx?$AA?5?$AA?$DO?$AA?$DN?$AA?5?$AA0?$AA?$AA@ 1008f584     rtw_modelmap_utils.obj
 0002:0000f5a0       ??_C@_1BA@KDMGHCHP@?$AAT?$AAI?$AAD?$AA?$DN?$AA?$DN?$AA?9?$AA1?$AA?$AA@ 1008f5a0     rtw_modelmap_utils.obj
 0002:0000f5b4       ??_C@_1DM@DHGKBPCE@?$AAs?$AAi?$AAg?$AAP?$AAa?$AAt?$AAh?$AA?$FL?$AAs?$AAi?$AAg?$AAP?$AAa?$AAt?$AAh?$AAL?$AAe?$AAn?$AA?9?$AA1?$AA?$FN?$AA?5?$AA?$DN?$AA?$DN?$AA?5?$AA?8?$AA?2?$AA0?$AA?8?$AA?$AA@ 1008f5b4     rtw_modelmap_utils.obj
 0002:0000f5fc       _serialfifoground          1008f5fc     xpc_datatype_ground.obj
 0002:0000f608       _bcmsg1553ground           1008f608     xpc_datatype_ground.obj
 0002:0000f618       _bcstatground              1008f618     xpc_datatype_ground.obj
 0002:0000f630       _bmmsg1553ground           1008f630     xpc_datatype_ground.obj
 0002:0000f650       _ptsetfilename             1008f650     xpctarget.obj
 0002:0000f654       _xmlfile                   1008f654     xpctarget.obj
 0002:0000f65c       ??_C@_03GINCELHE@aaa?$AA@  1008f65c     xpctarget.obj
 0002:0000f660       ??_C@_0L@CHBJKKFC@xpceSetVar?$AA@ 1008f660     xpctarget.obj
 0002:0000f670       ??_C@_03JLBJCOMC@6?45?$AA@ 1008f670     xpctarget.obj
 0002:0000f678       __real@3fb999999999999a    1008f678     xpctarget.obj
 0002:0000f688       __real@407f400000000000    1008f688     xpctarget.obj
 0002:0000f698       _aaa_BIOMAP                1008f698     appmappingData.obj
 0002:00010c10       _aaa_LBLMAP                10090c10     appmappingData.obj
 0002:00012188       _aaa_SIDMAP                10092188     appmappingData.obj
 0002:00013700       _aaa_SBIO                  10093700     appmappingData.obj
 0002:00013e28       _aaa_SLBL                  10093e28     appmappingData.obj
 0002:00014550       _aaa_PTIDSMAP              10094550     appmappingData.obj
 0002:00015268       _aaa_PTNAMESMAP            10095268     appmappingData.obj
 0002:00015f80       _aaa_SPTMAP                10095f80     appmappingData.obj
 0002:0001660c       _aaa_dtmap                 1009660c     appmappingData.obj
 0002:00016640       _appInfo                   10096640     appmappingData.obj
 0002:00017cf0       ??_C@_0ED@LKHIFFLC@Wrong?5number?5of?5input?5arguments?5@ 10097cf0     adpci_1784.obj
 0002:00017d40       ??_C@_0M@EMGCEMH@ADLINK?99114?$AA@ 10097d40     adpci_1784.obj
 0002:00017d50       ??_C@_0BG@EPCOHGPO@?$CFs?3?5board?5not?5present?$AA@ 10097d50     adpci_1784.obj
 0002:00017d6c       ??_C@_0CI@NFFNBHJA@?$CFs?5?$CIbus?5?$CFd?0?5slot?5?$CFd?$CJ?3?5board?5not?5@ 10097d6c     adpci_1784.obj
 0002:00017d9c       ??_C@_0BK@LNMFPOJE@ErrorCode?$DN?$CFd?5?5Error?5Text?3?$AA@ 10097d9c     canac2pcisetupx.obj
 0002:00017dbc       ??_C@_0BL@LBDCLEE@?5can?8t?5open?5IniFile?5?5?5?5?5?5?5?$AA@ 10097dbc     canac2pcisetupx.obj
 0002:00017ddc       ??_C@_0BL@GMCJFMGA@?5format?5error?5in?5INI?9file?5?$AA@ 10097ddc     canac2pcisetupx.obj
 0002:00017dfc       ??_C@_0BL@EIFEICM@?5error?5opening?5binary?9file?$AA@ 10097dfc     canac2pcisetupx.obj
 0002:00017e1c       ??_C@_0BL@EGFOFLEL@?5error?5reading?5binary?9file?$AA@ 10097e1c     canac2pcisetupx.obj
 0002:00017e3c       ??_C@_0BL@JCLHGCOK@?5binary?9file?5too?5long?5?5?5?5?5?$AA@ 10097e3c     canac2pcisetupx.obj
 0002:00017e5c       ??_C@_0BL@DKMABEA@?5binary?9data?5format?5error?5?$AA@ 10097e5c     canac2pcisetupx.obj
 0002:00017e7c       ??_C@_0CC@NKNABABE@?5binary?9data?5checksum?5error?5?5?5?5?5@ 10097e7c     canac2pcisetupx.obj
 0002:00017ea4       ??_C@_0BL@IANOGCDJ@?5no?5card?5present?5?5?5?5?5?5?5?5?5?5?$AA@ 10097ea4     canac2pcisetupx.obj
 0002:00017ec4       ??_C@_0BL@DEPHJBMB@?5no?5physical?5memory?5?5?5?5?5?5?5?$AA@ 10097ec4     canac2pcisetupx.obj
 0002:00017ee4       ??_C@_0BL@NKJKAOEG@?5invalid?5IRQ?9number?5?5?5?5?5?5?5?$AA@ 10097ee4     canac2pcisetupx.obj
 0002:00017f04       ??_C@_0BL@DHOAIMOD@?5error?5accessing?5dpram?5?5?5?5?$AA@ 10097f04     canac2pcisetupx.obj
 0002:00017f24       ??_C@_0BL@BHDCLMIJ@?5bad?5response?5from?5card?5?5?5?$AA@ 10097f24     canac2pcisetupx.obj
 0002:00017f44       ??_C@_0BL@HECAOICO@?5sram?5seems?5to?5be?5damaged?5?$AA@ 10097f44     canac2pcisetupx.obj
 0002:00017f64       ??_C@_0CC@BLEKLLPB@?5invalid?5program?5start?5address?5?5@ 10097f64     canac2pcisetupx.obj
 0002:00017f8c       ??_C@_0BL@OGENALEB@?5invalid?5record?5type?5?5?5?5?5?5?$AA@ 10097f8c     canac2pcisetupx.obj
 0002:00017fac       ??_C@_0CC@LLIEHGNJ@?5no?5response?5after?5program?5start@ 10097fac     canac2pcisetupx.obj
 0002:00017fd4       ??_C@_0CC@EHIDOFAK@?5bad?5response?5after?5program?5star@ 10097fd4     canac2pcisetupx.obj
 0002:00017ffc       ??_C@_0BL@JLDDBAKE@?5pcmcia?5chip?5not?5supported?$AA@ 10097ffc     canac2pcisetupx.obj
 0002:0001801c       ??_C@_0CC@MLFENEO@?5error?5reading?5ocmcia?5parameters@ 1009801c     canac2pcisetupx.obj
 0002:00018044       ??_C@_0BL@LGEMKKDE@?5error?5initializing?5chip?5?5?$AA@ 10098044     canac2pcisetupx.obj
 0002:00018064       ??_C@_0O@JGGAGPAH@return?5value?5?$AA@ 10098064     canac2pcisetupx.obj
 0002:00018074       ??_C@_01EEMJAFIK@?6?$AA@   10098074     canac2pcisetupx.obj
 0002:00018078       ??_C@_0CL@LLBFOOA@?9?9?$DOError?5in?5CANPC_start_chip_mbx@ 10098078     canac2pcisetupx.obj
 0002:000180ac       ??_C@_0DE@GGIMIOBE@?9?9?$DOError?5in?5CANPC_enable_dyn_obj@ 100980ac     canac2pcisetupx.obj
 0002:000180ec       ??_C@_0DG@JCBGLGDJ@?9?9?$DOError?5in?5CANPC_initialize_int@ 100980ec     canac2pcisetupx.obj
 0002:00018130       ??_C@_0EF@CKEKFKJF@?9?9?$DOError?5in?5CANPC_define_object_@ 10098130     canac2pcisetupx.obj
 0002:00018184       ??_C@_0BL@LJLMJMND@indexing?5assumption?5failed?$AA@ 10098184     canac2pcisetupx.obj
 0002:000181a4       ??_C@_0DP@KBMGJHFI@?9?9?$DOError?5in?5CANPC_define_object_@ 100981a4     canac2pcisetupx.obj
 0002:000181f0       ??_C@_0DN@MLCNOCPB@?9?9?$DOError?5in?5CANPC_define_object2@ 100981f0     canac2pcisetupx.obj
 0002:00018240       ??_C@_0EA@MEKOONNL@?9?9?$DOError?5in?5CANPC_define_object2@ 10098240     canac2pcisetupx.obj
 0002:0001828c       ??_C@_0CN@FHALBPDL@?9?9?$DOError?5in?5CANPC_reset_chip_mbx@ 1009828c     canac2pcisetupx.obj
 0002:000182c4       ??_C@_0CP@JPNCEBFF@?9?9?$DOError?5in?5CANPC_init_signals_m@ 100982c4     canac2pcisetupx.obj
 0002:000182fc       ??_C@_0DA@CNNNEDOA@?9?9?$DOError?5in?5CANPC_read_signals1_@ 100982fc     canac2pcisetupx.obj
 0002:00018338       ??_C@_0DA@MHFLJOIC@?9?9?$DOError?5in?5CANPC_read_signals2_@ 10098338     canac2pcisetupx.obj
 0002:00018374       ??_C@_0DB@EGCEMPCG@?9?9?$DOError?5in?5CANPC_write_signals1@ 10098374     canac2pcisetupx.obj
 0002:000183b0       ??_C@_0DB@FBLNJFFM@?5?5?5?5?5?5?5?5CAN?51?3?5Physical?5bus?5chan@ 100983b0     canac2pcisetupx.obj
 0002:000183ec       ??_C@_0CM@BFGEKPCM@?5?5?5?5?5?5?5?5CAN?51?3?5Lowspeed?5module?5n@ 100983ec     canac2pcisetupx.obj
 0002:00018420       ??_C@_0DB@KMKCBCEE@?9?9?$DOError?5in?5CANPC_write_signals2@ 10098420     canac2pcisetupx.obj
 0002:0001845c       ??_C@_0DB@LNMKKDM@?5?5?5?5?5?5?5?5CAN?52?3?5Physical?5bus?5chan@ 1009845c     canac2pcisetupx.obj
 0002:00018498       ??_C@_0CM@NMHLKHJD@?5?5?5?5?5?5?5?5CAN?52?3?5Lowspeed?5module?5n@ 10098498     canac2pcisetupx.obj
 0002:000184cc       ??_C@_0DC@FADAOIKF@?9?9?$DOError?5in?5CANPC_initialize_chi@ 100984cc     canac2pcisetupx.obj
 0002:00018508       ??_C@_0DD@COBNGEFP@?9?9?$DOError?5in?5CANPC_initialize_chi@ 10098508     canac2pcisetupx.obj
 0002:00018548       ??_C@_0DB@EKIEPFNP@?9?9?$DOError?5in?5CANPC_set_acceptance@ 10098548     canac2pcisetupx.obj
 0002:00018584       ??_C@_0DC@JONHEIGA@?9?9?$DOError?5in?5CANPC_set_acceptance@ 10098584     canac2pcisetupx.obj
 0002:000185c0       ??_C@_0CL@DEKLAPHL@?9?9?$DOError?5in?5CANPC_set_mode_mbx?0?5@ 100985c0     canac2pcisetupx.obj
 0002:000185f4       ??_C@_0CM@EPBCAAGL@?9?9?$DOError?5in?5CANPC_set_mode2_mbx?0@ 100985f4     canac2pcisetupx.obj
 0002:00018628       ??_C@_0DF@HHJLLCJD@?9?9?$DOError?5in?5CANPC_set_output_con@ 10098628     canac2pcisetupx.obj
 0002:00018668       ??_C@_0DG@OBIAFKJM@?9?9?$DOError?5in?5CANPC_set_output_con@ 10098668     canac2pcisetupx.obj
 0002:000186a8       ??_C@_0BE@EGCKDKDM@init?5ret?5code?50x?$CFx?6?$AA@ 100986a8     canac2pcisetupx.obj
 0002:000186c0       ??_C@_0CM@DJALBMJK@CAN?9AC2?9PCI?5Board?5?$CFd?3?5Initializa@ 100986c0     canac2pcisetupx.obj
 0002:000186f4       ??_C@_0DG@IKMIDPHG@?5?5?5?5?5?5?5?5downloading?5CAN?9AC2?9PCI?5@ 100986f4     canac2pcisetupx.obj
 0002:00018734       ??_C@_0CE@MOOIFDOM@?9?9?$DOError?5in?5CANPC_reset_board_mb@ 10098734     canac2pcisetupx.obj
 0002:00018760       ??_C@_0DD@EAPAOCNE@?5?5?5?5?5?5?5?5downloading?5CAN?9AC2?9PCI?5@ 10098760     canac2pcisetupx.obj
 0002:000187a0       ??_C@_0CF@IJHBPDBG@?9?9?$DOInitialize_can_parameter?5fail@ 100987a0     canac2pcisetupx.obj
 0002:000187cc       ??_C@_0CA@PAJEMEGP@?9?9?$DOInitialize_DOB_mode?5failed?5?6?$AA@ 100987cc     canac2pcisetupx.obj
 0002:000187f4       ??_C@_0BH@DGCALJLI@?9?9?$DOStart_chip?5failed?5?6?$AA@ 100987f4     canac2pcisetupx.obj
 0002:00018810       ??_C@_0CK@CFMOHDPD@ERROR?3?5?5CANPC_write_object_mbx?5C@ 10098810     canac2pcisetupx.obj
 0002:00018844       ??_C@_0CK@BECGGJGO@ERROR?3?5?5CANPC_write_object_mbx?5C@ 10098844     canac2pcisetupx.obj
 0002:00018878       ??_C@_0O@KDNHLNEN@canac2_sem_?$CFd?$AA@ 10098878     canac2pcisetupx.obj
 0002:00018888       ??_C@_0CP@OANLNPFC@?9?9?$DOError?5in?5CANPC_reinitialize_m@ 10098888     canac2pcisetupx.obj
 0002:000188c0       ??_C@_0M@PIDBHPHD@Adlink?56208?$AA@ 100988c0     da6208.obj
 0002:000188d0       ??_C@_01MCMALHOG@a?$AA@    100988d0     da6208.obj
 0002:000188d8       __real@40e0000000000000    100988d8     da6208.obj
 0002:000188e4       ??_C@_07POCAPGBA@pci1716?$AA@ 100988e4     pci1716DIO.obj
 0002:000188f0       __real@3f34000000000000    100988f0     pci1716DIO.obj
 0002:00018900       __real@40efffe000000000    10098900     pci1716DIO.obj
 0002:00018910       __real@bfb999999999999a    10098910     pci1716DIO.obj
 0002:0001891c       ??_C@_0O@CHBECCKN@?2LOADCARD?4INI?$AA@ 1009891c     xpccanac2pci_vc:card_can_mbx.obj
 0002:0001892c       ??_C@_02CEGDFPFP@?4?2?$AA@ 1009892c     xpccanac2pci_vc:card_can_mbx.obj
 0002:00018930       __real@408f400000000000    10098930     xpccanac2pci_vc:card_can_mbx.obj
 0002:00018940       __real@4132342800000000    10098940     xpccanac2pci_vc:card_can_mbx.obj
 0002:0001894c       ??_C@_07JJGBLIAE@PCI?2VEN?$AA@ 1009894c     xpccanac2pci_vc:devacc32_mbx.obj
 0002:00018958       ??_C@_0CC@KFAPHHGD@SOFTING?5GmbH?5CAN?9AC?5PCI?5Interfac@ 10098958     xpccanac2pci_vc:devacc32_mbx.obj
 0002:00018980       ??_C@_0M@EKFABCAE@LDBOARD?4INI?$AA@ 10098980     xpccanac2pci_vc:devacc32_mbx.obj
 0002:00018990       ??_C@_0M@BCALDNPE@BOOT_CP?4SBN?$AA@ 10098990     xpccanac2pci_vc:devacc32_mbx.obj
 0002:000189a0       ??_C@_0M@DDKPMKFM@LDBOARD?4SBN?$AA@ 100989a0     xpccanac2pci_vc:devacc32_mbx.obj
 0002:000189b0       ??_C@_0L@OMFEIHM@CANPCI?4SBN?$AA@ 100989b0     xpccanac2pci_vc:devacc32_mbx.obj
 0002:000189c0       ??_C@_08DCGOAHCE@VCANPCID?$AA@ 100989c0     xpccanac2pci_vc:devacc32_mbx.obj
 0002:000189cc       ??_C@_0M@IANJNLEG@enable?5IRQ?6?$AA@ 100989cc     xpccanac2pci_vc:devacc32_mbx.obj
 0002:000189e0       ??_C@_0EK@HKKPIPEA@?6ERROR?5in?5a?5CAN?9AC2?9PCI?5driver?3?5@ 100989e0     xpccanac2pci_vc:devacc32_mbx.obj
 0002:00018a38       ??_C@_0FF@COKCEECK@?6ERROR?5in?5?5CAN?9AC2?9PCI?5driver?3?5C@ 10098a38     xpccanac2pci_vc:devacc32_mbx.obj
 0002:00018aa0       ??_C@_07KAJBENLI@Error?3?5?$AA@ 10098aa0     xpccanac2pci_vc:loadcard_mbx.obj
 0002:00018aac       ??_C@_09CKCJCCOK@Warning?3?5?$AA@ 10098aac     xpccanac2pci_vc:loadcard_mbx.obj
 0002:00018ab8       ??_C@_0CH@GIHNHFPH@Structured?5Binary?5Format?0?5Softin@ 10098ab8     xpccanac2pci_vc:loadcard_mbx.obj
 0002:00018ae8       ??_C@_0CK@OALHOBHI@?$CFscard?5DPRAM?5cannot?5be?5accessed?5@ 10098ae8     xpccanac2pci_vc:loadcard_mbx.obj
 0002:00018b1c       ??_C@_0BL@DNJKJNDF@?$CFscan?8t?5open?5BootFile?5?8?$CFs?8?$AA@ 10098b1c     xpccanac2pci_vc:loadcard_mbx.obj
 0002:00018b3c       ??_C@_0BL@FEBBJGBM@?$CFscan?8t?5read?5BootFile?5?8?$CFs?8?$AA@ 10098b3c     xpccanac2pci_vc:loadcard_mbx.obj
 0002:00018b5c       ??_C@_0CH@LHLLKLCM@?$CFsBootFile?5size?5exceeds?5DPRAM?5si@ 10098b5c     xpccanac2pci_vc:loadcard_mbx.obj
 0002:00018b8c       ??_C@_0DA@JPMOGDAF@?$CFsBootFile?5?8?$CFs?8?5has?5no?5Structure@ 10098b8c     xpccanac2pci_vc:loadcard_mbx.obj
 0002:00018bc8       ??_C@_0CC@IGEBFOHK@?$CFswrong?5checksum?5in?5BootFile?5?8?$CFs@ 10098bc8     xpccanac2pci_vc:loadcard_mbx.obj
 0002:00018bf0       ??_C@_0BL@LBMGNPGA@?$CFscan?8t?5open?5LoadFile?5?8?$CFs?8?$AA@ 10098bf0     xpccanac2pci_vc:loadcard_mbx.obj
 0002:00018c10       ??_C@_0BL@NIENNEEJ@?$CFscan?8t?5read?5LoadFile?5?8?$CFs?8?$AA@ 10098c10     xpccanac2pci_vc:loadcard_mbx.obj
 0002:00018c30       ??_C@_0CH@PMPLLKEH@?$CFsLoadFile?5size?5exceeds?5DPRAM?5si@ 10098c30     xpccanac2pci_vc:loadcard_mbx.obj
 0002:00018c60       ??_C@_0DA@NAHNMCBP@?$CFsLoadFile?5?8?$CFs?8?5has?5no?5Structure@ 10098c60     xpccanac2pci_vc:loadcard_mbx.obj
 0002:00018c9c       ??_C@_0CC@KBNBMCP@?$CFswrong?5checksum?5in?5LoadFile?5?8?$CFs@ 10098c9c     xpccanac2pci_vc:loadcard_mbx.obj
 0002:00018cc4       ??_C@_0CG@DEOKDKBE@?$CFsno?5response?5from?5card?5after?5bo@ 10098cc4     xpccanac2pci_vc:loadcard_mbx.obj
 0002:00018cf4       ??_C@_0CG@DDJEONLI@?$CFsno?5response?5from?5card?5while?5lo@ 10098cf4     xpccanac2pci_vc:loadcard_mbx.obj
 0002:00018d24       ??_C@_0CN@MNKDHG@?$CFsbad?5response?5from?5card?5after?5b@ 10098d24     xpccanac2pci_vc:loadcard_mbx.obj
 0002:00018d5c       ??_C@_0CH@PJFOINGG@?$CFsbad?5response?5from?5card?5while?5l@ 10098d5c     xpccanac2pci_vc:loadcard_mbx.obj
 0002:00018d8c       ??_C@_0CA@NFABAKKG@?$CFscard?5SRAM?5seems?5to?5be?5damaged?$AA@ 10098d8c     xpccanac2pci_vc:loadcard_mbx.obj
 0002:00018db4       ??_C@_0CM@OKEHKJEF@?$CFsno?5response?5from?5card?5after?5pr@ 10098db4     xpccanac2pci_vc:loadcard_mbx.obj
 0002:00018de8       ??_C@_0CN@NOIJLOKD@?$CFsbad?5response?5from?5card?5after?5p@ 10098de8     xpccanac2pci_vc:loadcard_mbx.obj
 0002:00018e20       ??_C@_0BB@NFIGKIIA@card?5not?5booted?6?$AA@ 10098e20     xpccanac2pci_vc:loadcard_mbx.obj
 0002:00018e38       __real@3e112e0be826d695    10098e38     xpcruntime:xpcPCFunctions.obj
 0002:00018e48       __real@3f538bcdfefbf402    10098e48     xpcruntime:xpcPCFunctions.obj
 0002:00018e58       __real@40112e0be826d695    10098e58     xpcruntime:xpcPCFunctions.obj
 0002:00018e64       ??_C@_0CC@DMFKNLL@VendorId?5?$DN?50x?$CFx?0?5DeviceId?5?$DN?50x?$CFx@ 10098e64     xpcruntime:xpcimports.obj
 0002:00018e8c       ??_C@_0DH@OHCBLNMG@Subsystem?5Device?5ID?5?$DN?50x?$CFx?6Subsy@ 10098e8c     xpcruntime:xpcimports.obj
 0002:00018ed0       ??_C@_0BD@MMMMEFCM@Class?5Code?5?$DN?50x?$CFx?6?$AA@ 10098ed0     xpcruntime:xpcimports.obj
 0002:00018ee8       ??_C@_0BE@OLDDDNHM@InterruptLine?5?$DN?5?$CFd?6?$AA@ 10098ee8     xpcruntime:xpcimports.obj
 0002:00018f00       ??_C@_0BF@OLKLEKBD@bus?5?$DN?5?$CFd?0?5slot?5?$DN?5?$CFd?6?$AA@ 10098f00     xpcruntime:xpcimports.obj
 0002:00018f1c       ??_C@_0CE@DGLLGDFH@?5?5?5?5Phys?5?5?5Virtual?5?5?5Length?5IO?1M@ 10098f1c     xpcruntime:xpcimports.obj
 0002:00018f48       ??_C@_0BI@FEOPLEMG@?$CF08x?5?$CF08x?5?$CF08x?5?5?5?5?5?5?$CFc?6?$AA@ 10098f48     xpcruntime:xpcimports.obj
 0002:00018f64       ??_C@_0BB@BNNCEDPC@rl32eScopeExists?$AA@ 10098f64     xpcruntime:xpcimports.obj
 0002:00018f78       ??_C@_0BM@FJBFEGFG@rl32eScopeExists?5not?5found?6?$AA@ 10098f78     xpcruntime:xpcimports.obj
 0002:00018f9c       ??_C@_0O@BNNGKJEA@rl32eDefScope?$AA@ 10098f9c     xpcruntime:xpcimports.obj
 0002:00018fac       ??_C@_0BJ@CDNOENKA@rl32eDefScope?5not?5found?6?$AA@ 10098fac     xpcruntime:xpcimports.obj
 0002:00018fcc       ??_C@_0P@CKNKILDP@rl32eAddSignal?$AA@ 10098fcc     xpcruntime:xpcimports.obj
 0002:00018fe0       ??_C@_0BK@GMJAJBAI@rl32eAddSignal?5not?5found?6?$AA@ 10098fe0     xpcruntime:xpcimports.obj
 0002:00019000       ??_C@_0BB@LDMIHGCE@rl32eGetSignalNo?$AA@ 10099000     xpcruntime:xpcimports.obj
 0002:00019014       ??_C@_0BM@LGAMBAID@rl32eGetSignalNo?5not?5found?6?$AA@ 10099014     xpcruntime:xpcimports.obj
 0002:00019038       ??_C@_0O@CFDGALBP@rl32eSetScope?$AA@ 10099038     xpcruntime:xpcimports.obj
 0002:00019048       ??_C@_0BJ@JCLHHIN@rl32eSetScope?5not?5found?6?$AA@ 10099048     xpcruntime:xpcimports.obj
 0002:00019068       ??_C@_0P@IKMCBMHH@xpceFSScopeSet?$AA@ 10099068     xpcruntime:xpcimports.obj
 0002:0001907c       ??_C@_0BK@JODJPNNH@xpceFSScopeSet?5not?5found?6?$AA@ 1009907c     xpcruntime:xpcimports.obj
 0002:0001909c       ??_C@_0BE@DLACEEJM@rl32eSetTargetScope?$AA@ 1009909c     xpcruntime:xpcimports.obj
 0002:000190b4       ??_C@_0BP@JCHFMKPJ@rl32eSetTargetScope?5not?5found?6?$AA@ 100990b4     xpcruntime:xpcimports.obj
 0002:000190dc       ??_C@_0BJ@LIDLNDHC@rl32eSetTargetScopeSigFt?$AA@ 100990dc     xpcruntime:xpcimports.obj
 0002:000190fc       ??_C@_0CE@JLGHCFHI@rl32eSetTargetScopeSigFt?5not?5fou@ 100990fc     xpcruntime:xpcimports.obj
 0002:00019128       ??_C@_0BI@JAPOIDNG@rl32eRestartAcquisition?$AA@ 10099128     xpcruntime:xpcimports.obj
 0002:00019144       ??_C@_0CD@LLBEFFBO@rl32eRestartAcquisition?5not?5foun@ 10099144     xpcruntime:xpcimports.obj
 0002:00019170       ??_C@_0P@IEIIADJB@xpceScopeAcqOK?$AA@ 10099170     xpcruntime:xpcimports.obj
 0002:00019184       ??_C@_0BK@NJCKNFPN@xpceScopeAcqOK?5not?5found?6?$AA@ 10099184     xpcruntime:xpcimports.obj
 0002:000191a4       ??_C@_0BA@IJINKAHF@xpceRegisterISR?$AA@ 100991a4     xpcruntime:xpcimports.obj
 0002:000191b8       ??_C@_0BL@NNDLOEJE@xpceRegisterISR?5not?5found?6?$AA@ 100991b8     xpcruntime:xpcimports.obj
 0002:000191d8       ??_C@_0BC@NLBADGKF@xpceDeRegisterISR?$AA@ 100991d8     xpcruntime:xpcimports.obj
 0002:000191f0       ??_C@_0BN@DCAIKFFD@xpceDeRegisterISR?5not?5found?6?$AA@ 100991f0     xpcruntime:xpcimports.obj
 0002:00019214       ??_C@_07JPMEPILD@xpcInpB?$AA@ 10099214     xpcruntime:xpcimports.obj
 0002:00019220       ??_C@_0BD@PGABEJOL@xpcInpB?5not?5found?6?$AA@ 10099220     xpcruntime:xpcimports.obj
 0002:00019238       ??_C@_07KIHBBOKH@xpcInpW?$AA@ 10099238     xpcruntime:xpcimports.obj
 0002:00019244       ??_C@_0BD@FPCJFMCC@xpcInpW?5not?5found?6?$AA@ 10099244     xpcruntime:xpcimports.obj
 0002:0001925c       ??_C@_08KDIAJBOP@xpcInpDW?$AA@ 1009925c     xpcruntime:xpcimports.obj
 0002:00019268       ??_C@_0BE@PIELDNIL@xpcInpDW?5not?5found?6?$AA@ 10099268     xpcruntime:xpcimports.obj
 0002:00019280       ??_C@_08PJFMOIGO@xpcOutpB?$AA@ 10099280     xpcruntime:xpcimports.obj
 0002:0001928c       ??_C@_0BE@HCKNCEKF@xpcOutpB?5not?5found?6?$AA@ 1009928c     xpcruntime:xpcimports.obj
 0002:000192a4       ??_C@_08MOOJAOHK@xpcOutpW?$AA@ 100992a4     xpcruntime:xpcimports.obj
 0002:000192b0       ??_C@_0BE@NLIFDBGM@xpcOutpW?5not?5found?6?$AA@ 100992b0     xpcruntime:xpcimports.obj
 0002:000192c8       ??_C@_09FLIEKHJG@xpcOutpDW?$AA@ 100992c8     xpcruntime:xpcimports.obj
 0002:000192d4       ??_C@_0BF@GJKLPNHB@xpcOutpDW?5not?5found?6?$AA@ 100992d4     xpcruntime:xpcimports.obj
 0002:000192f0       ??_C@_0BH@EHOLELHH@xpcReserveMemoryRegion?$AA@ 100992f0     xpcruntime:xpcimports.obj
 0002:0001930c       ??_C@_0CC@KAAAGPI@xpcReserveMemoryRegion?5not?5found@ 1009930c     xpcruntime:xpcimports.obj
 0002:00019334       ??_C@_0BA@JGPMHGAF@rl32eShowPCIDev?$AA@ 10099334     xpcruntime:xpcimports.obj
 0002:00019348       ??_C@_0BL@DDFFLNHI@rl32eShowPCIDev?5not?5found?6?$AA@ 10099348     xpcruntime:xpcimports.obj
 0002:00019368       ??_C@_0BB@KBCOJPFB@rl32eShowPCIInfo?$AA@ 10099368     xpcruntime:xpcimports.obj
 0002:0001937c       ??_C@_0BM@IFDMAGLO@rl32eShowPCIInfo?5not?5found?6?$AA@ 1009937c     xpcruntime:xpcimports.obj
 0002:000193a0       ??_C@_0BA@BGPAADB@rl32eGetPCIInfo?$AA@ 100993a0     xpcruntime:xpcimports.obj
 0002:000193b4       ??_C@_0BL@IGOMLDCK@rl32eGetPCIInfo?5not?5found?6?$AA@ 100993b4     xpcruntime:xpcimports.obj
 0002:000193d4       ??_C@_0BG@NJPFKFDP@rl32eGetPCIInfoAtSlot?$AA@ 100993d4     xpcruntime:xpcimports.obj
 0002:000193f0       ??_C@_0CB@BBKIPMLA@rl32eGetPCIInfoAtSlot?5not?5found?6@ 100993f0     xpcruntime:xpcimports.obj
 0002:00019418       ??_C@_0BH@OKBOPNFG@xpceAssignPCIInterrupt?$AA@ 10099418     xpcruntime:xpcimports.obj
 0002:00019434       ??_C@_0CC@CDNDNJBJ@xpceAssignPCIInterrupt?5not?5found@ 10099434     xpcruntime:xpcimports.obj
 0002:0001945c       ??_C@_0BD@PCKOKHO@xpceGetSignalValue?$AA@ 1009945c     xpcruntime:xpcimports.obj
 0002:00019474       ??_C@_0BO@GCBDJHMB@xpceGetSignalValue?5not?5found?6?$AA@ 10099474     xpcruntime:xpcimports.obj
 0002:00019498       ??_C@_0BB@BJONJAGA@xpceSetParameter?$AA@ 10099498     xpcruntime:xpcimports.obj
 0002:000194ac       ??_C@_0BM@BJIKDLHA@xpceSetParameter?5not?5found?6?$AA@ 100994ac     xpcruntime:xpcimports.obj
 0002:000194d0       ??_C@_0BB@GNFDFMCM@xpceGetParameter?$AA@ 100994d0     xpcruntime:xpcimports.obj
 0002:000194e4       ??_C@_0BM@POHNKBC@xpceGetParameter?5not?5found?6?$AA@ 100994e4     xpcruntime:xpcimports.obj
 0002:00019508       ??_C@_0BB@CEIJLFCD@xpceGetParamDims?$AA@ 10099508     xpcruntime:xpcimports.obj
 0002:0001951c       ??_C@_0BM@OABDBKAO@xpceGetParamDims?5not?5found?6?$AA@ 1009951c     xpcruntime:xpcimports.obj
 0002:00019540       ??_C@_0L@OCBLLHBM@xpceGetTET?$AA@ 10099540     xpcruntime:xpcimports.obj
 0002:00019550       ??_C@_0BG@HNOFBOB@xpceGetTET?5not?5found?6?$AA@ 10099550     xpcruntime:xpcimports.obj
 0002:0001956c       ??_C@_0P@OKGNGAGH@xpcIsModelInit?$AA@ 1009956c     xpcruntime:xpcimports.obj
 0002:00019580       ??_C@_0BK@DHEMLBIM@xpcIsModelInit?5not?5found?6?$AA@ 10099580     xpcruntime:xpcimports.obj
 0002:000195a0       ??_C@_0BH@KJJLCAOJ@xpcAllocPhysicalMemory?$AA@ 100995a0     xpcruntime:xpcimports.obj
 0002:000195bc       ??_C@_0CC@MOJPNHKL@xpcAllocPhysicalMemory?5not?5found@ 100995bc     xpcruntime:xpcimports.obj
 0002:000195e4       ??_C@_0BG@CBNPGAEL@xpcFreePhysicalMemory?$AA@ 100995e4     xpcruntime:xpcimports.obj
 0002:00019600       ??_C@_0CB@PKJEBPOG@xpcFreePhysicalMemory?5not?5found?6@ 10099600     xpcruntime:xpcimports.obj
 0002:00019628       ??_C@_0BC@JGKNLICL@xpcGetElapsedTime?$AA@ 10099628     xpcruntime:xpcimports.obj
 0002:00019640       ??_C@_0BN@OEOAHCIO@xpcGetElapsedTime?5not?5found?6?$AA@ 10099640     xpcruntime:xpcimports.obj
 0002:00019664       ??_C@_0M@ICBLMODA@xpcBusyWait?$AA@ 10099664     xpcruntime:xpcimports.obj
 0002:00019674       ??_C@_0BH@FBOPECBI@xpcBusyWait?5not?5found?6?$AA@ 10099674     xpcruntime:xpcimports.obj
 0002:00019690       ??_C@_0N@LKKJEKKA@TBCreateSpin?$AA@ 10099690     xpcruntime:xpcimports.obj
 0002:000196a0       ??_C@_0BI@FHKMLKOE@TBCreateSpin?5not?5found?6?$AA@ 100996a0     xpcruntime:xpcimports.obj
 0002:000196bc       ??_C@_0N@HOAJHNBD@TBDeleteSpin?$AA@ 100996bc     xpcruntime:xpcimports.obj
 0002:000196cc       ??_C@_0BI@BKCPAAG@TBDeleteSpin?5not?5found?6?$AA@ 100996cc     xpcruntime:xpcimports.obj
 0002:000196e8       ??_C@_0P@DAHDDBJG@TBTakeSpinFast?$AA@ 100996e8     xpcruntime:xpcimports.obj
 0002:000196fc       ??_C@_0BK@NKAIBHGB@TBTakeSpinFast?5not?5found?6?$AA@ 100996fc     xpcruntime:xpcimports.obj
 0002:0001971c       ??_C@_0P@FKNAAELA@TBGiveSpinFast?$AA@ 1009971c     xpcruntime:xpcimports.obj
 0002:00019730       ??_C@_0BK@KGPJBJND@TBGiveSpinFast?5not?5found?6?$AA@ 10099730     xpcruntime:xpcimports.obj
 0002:00019750       ??_C@_0BE@IIGBFDHK@xpceCreateSemaphore?$AA@ 10099750     xpcruntime:xpcimports.obj
 0002:00019768       ??_C@_0BP@KFBAFFKJ@xpceCreateSemaphore?5not?5found?6?$AA@ 10099768     xpcruntime:xpcimports.obj
 0002:00019790       ??_C@_0BC@IFNIONKJ@xpceWaitSemaphore?$AA@ 10099790     xpcruntime:xpcimports.obj
 0002:000197a8       ??_C@_0BN@NMFAADIO@xpceWaitSemaphore?5not?5found?6?$AA@ 100997a8     xpcruntime:xpcimports.obj
 0002:000197cc       ??_C@_0BE@NNDIOBKE@xpceSignalSemaphore?$AA@ 100997cc     xpcruntime:xpcimports.obj
 0002:000197e4       ??_C@_0BP@LBANMHJP@xpceSignalSemaphore?5not?5found?6?$AA@ 100997e4     xpcruntime:xpcimports.obj
 0002:0001980c       ??_C@_0BE@MEBEKOIM@xpceDeleteSemaphore?$AA@ 1009980c     xpcruntime:xpcimports.obj
 0002:00019824       ??_C@_0BP@OFNCKOJH@xpceDeleteSemaphore?5not?5found?6?$AA@ 10099824     xpcruntime:xpcimports.obj
 0002:0001984c       ??_C@_0BD@MFNDMBOF@FindUsbVideoDevice?$AA@ 1009984c     xpcruntime:xpcimports.obj
 0002:00019864       ??_C@_0BO@POKLDHMI@FindUsbVideoDevice?5not?5found?6?$AA@ 10099864     xpcruntime:xpcimports.obj
 0002:00019888       ??_C@_0BA@PLPAPNAB@GetVideoConfigs?$AA@ 10099888     xpcruntime:xpcimports.obj
 0002:0001989c       ??_C@_0BL@DALDHKHC@GetVideoConfigs?5not?5found?6?$AA@ 1009989c     xpcruntime:xpcimports.obj
 0002:000198bc       ??_C@_0L@GBAEMHMH@StartVideo?$AA@ 100998bc     xpcruntime:xpcimports.obj
 0002:000198cc       ??_C@_0BG@HDCELEBP@StartVideo?5not?5found?6?$AA@ 100998cc     xpcruntime:xpcimports.obj
 0002:000198e8       ??_C@_0BA@FDNPOCLN@ReadFrameBuffer?$AA@ 100998e8     xpcruntime:xpcimports.obj
 0002:000198fc       ??_C@_0BL@JHGHPNBI@ReadFrameBuffer?5not?5found?6?$AA@ 100998fc     xpcruntime:xpcimports.obj
 0002:0001991c       ??_C@_09FAHCLKAG@StopVideo?$AA@ 1009991c     xpcruntime:xpcimports.obj
 0002:00019928       ??_C@_0BF@NKGKKADL@StopVideo?5not?5found?6?$AA@ 10099928     xpcruntime:xpcimports.obj
 0002:00019944       ??_C@_0O@MCPKDLLL@ConvertUImage?$AA@ 10099944     xpcruntime:xpcimports.obj
 0002:00019954       ??_C@_0BJ@PHJKOAFL@ConvertUImage?5not?5found?6?$AA@ 10099954     xpcruntime:xpcimports.obj
 0002:00019974       ??_C@_0BD@NKCBPBJJ@CreateVideoDisplay?$AA@ 10099974     xpcruntime:xpcimports.obj
 0002:0001998c       ??_C@_0BO@HPPLLNFP@CreateVideoDisplay?5not?5found?6?$AA@ 1009998c     xpcruntime:xpcimports.obj
 0002:000199b0       ??_C@_0BE@KJCKGPHA@DestroyVideoDisplay?$AA@ 100999b0     xpcruntime:xpcimports.obj
 0002:000199c8       ??_C@_0BP@FMGLJAIJ@DestroyVideoDisplay?5not?5found?6?$AA@ 100999c8     xpcruntime:xpcimports.obj
 0002:000199f0       ??_C@_0BC@HCMIMIDN@StartVideoDisplay?$AA@ 100999f0     xpcruntime:xpcimports.obj
 0002:00019a08       ??_C@_0BN@EFIEBGOO@StartVideoDisplay?5not?5found?6?$AA@ 10099a08     xpcruntime:xpcimports.obj
 0002:00019a2c       ??_C@_0BB@JBBLMILG@StopVideoDisplay?$AA@ 10099a2c     xpcruntime:xpcimports.obj
 0002:00019a40       ??_C@_0BM@DBJBPLEL@StopVideoDisplay?5not?5found?6?$AA@ 10099a40     xpcruntime:xpcimports.obj
 0002:00019a64       ??_C@_0M@MFJEGMHC@StreamVideo?$AA@ 10099a64     xpcruntime:xpcimports.obj
 0002:00019a74       ??_C@_0BH@OINCDMLA@StreamVideo?5not?5found?6?$AA@ 10099a74     xpcruntime:xpcimports.obj
 0002:00019a90       ??_C@_0N@IGGLCIGE@xpceaddEvent?$AA@ 10099a90     xpcruntime:xpcimports.obj
 0002:00019aa0       ??_C@_0BI@NHJNFMKH@xpceaddEvent?5not?5found?6?$AA@ 10099aa0     xpcruntime:xpcimports.obj
 0002:00019abc       ??_C@_0BB@LCMHHHFN@getMemoryService?$AA@ 10099abc     xpcruntime:xpcimports.obj
 0002:00019ad0       ??_C@_0BM@MPLCNIIE@getMemoryService?5not?5found?6?$AA@ 10099ad0     xpcruntime:xpcimports.obj
 0002:00019af4       ??_C@_0P@KIKONDKK@getCommService?$AA@ 10099af4     xpcruntime:xpcimports.obj
 0002:00019b08       ??_C@_0BK@NCECBKNM@getCommService?5not?5found?6?$AA@ 10099b08     xpcruntime:xpcimports.obj
 0002:00019b28       ??_C@_0P@GDLHFECE@getStatusFlags?$AA@ 10099b28     xpcruntime:xpcimports.obj
 0002:00019b3c       ??_C@_0BK@NEKDLJHG@getStatusFlags?5not?5found?6?$AA@ 10099b3c     xpcruntime:xpcimports.obj
 0002:00019b5c       ??_C@_0BL@CDFCLKOL@startToAsyncQueueTgtAppSvc?$AA@ 10099b5c     xpcruntime:xpcimports.obj
 0002:00019b7c       ??_C@_0CG@JGOFFKEL@startToAsyncQueueTgtAppSvc?5not?5f@ 10099b7c     xpcruntime:xpcimports.obj
 0002:00019bac       ??_C@_0BP@IJNGPPPE@terminateToAsyncQueueTgtAppSvc?$AA@ 10099bac     xpcruntime:xpcimports.obj
 0002:00019bd4       ??_C@_0CK@NDEMAMKF@terminateToAsyncQueueTgtAppSvc?5n@ 10099bd4     xpcruntime:xpcimports.obj
 0002:00019c08       ??_C@_0BK@IDACEHAO@sendToAsyncQueueTgtAppSvc?$AA@ 10099c08     xpcruntime:xpcimports.obj
 0002:00019c28       ??_C@_0CF@PNCKPEHN@sendToAsyncQueueTgtAppSvc?5not?5fo@ 10099c28     xpcruntime:xpcimports.obj
 0002:00019c54       ??_C@_0BN@HJOHIFOM@xpceGetIntTimerGranularityNS?$AA@ 10099c54     xpcruntime:xpcimports.obj
 0002:00019c78       ??_C@_0CI@OADDPMKB@xpceGetIntTimerGranularityNS?5not@ 10099c78     xpcruntime:xpcimports.obj
 0002:00019ca8       ??_C@_0BG@CCHICKPN@slrteSetStepSizeDelta?$AA@ 10099ca8     xpcruntime:xpcimports.obj
 0002:00019cc4       ??_C@_0CB@MKHINEIJ@slrteSetStepSizeDelta?5not?5found?6@ 10099cc4     xpcruntime:xpcimports.obj
 0002:00019cec       ??_C@_0BI@CLNBLDKJ@slrteGetCurrentStepSize?$AA@ 10099cec     xpcruntime:xpcimports.obj
 0002:00019d08       ??_C@_0CD@GIOJPGJA@slrteGetCurrentStepSize?5not?5foun@ 10099d08     xpcruntime:xpcimports.obj
 0002:00019d34       ??_C@_0BE@FCLCBOC@registerPTPTimeRead?$AA@ 10099d34     xpcruntime:xpcimports.obj
 0002:00019d4c       ??_C@_0BP@LHPKAJIP@registerPTPTimeRead?5not?5found?6?$AA@ 10099d4c     xpcruntime:xpcimports.obj
 0002:00019d74       ??_C@_0BG@KIGCDDJI@unRegisterPTPTimeRead?$AA@ 10099d74     xpcruntime:xpcimports.obj
 0002:00019d90       ??_C@_0CB@MLFFBFCM@unRegisterPTPTimeRead?5not?5found?6@ 10099d90     xpcruntime:xpcimports.obj
 0002:00019db8       ??_C@_0BB@IPMDDBHK@slTestInitialize?$AA@ 10099db8     xpcruntime:xpcimports.obj
 0002:00019dcc       ??_C@_0BM@LAJFCCJH@slTestInitialize?5not?5found?6?$AA@ 10099dcc     xpcruntime:xpcimports.obj
 0002:00019df0       ??_C@_0BF@OOMPMEBC@slTestLogAssessments?$AA@ 10099df0     xpcruntime:xpcimports.obj
 0002:00019e0c       ??_C@_0CA@FGJCEBAG@slTestLogAssessments?5not?5found?6?$AA@ 10099e0c     xpcruntime:xpcimports.obj
 0002:00019e34       ??_C@_0BB@HJHKONHO@slTestEvalOnFail?$AA@ 10099e34     xpcruntime:xpcimports.obj
 0002:00019e48       ??_C@_0BM@JIKCFFNJ@slTestEvalOnFail?5not?5found?6?$AA@ 10099e48     xpcruntime:xpcimports.obj
 0002:00019e6c       ??_C@_0BA@LBHLABFP@slTestTerminate?$AA@ 10099e6c     xpcruntime:xpcimports.obj
 0002:00019e80       ??_C@_0BL@EMFGKAPA@slTestTerminate?5not?5found?6?$AA@ 10099e80     xpcruntime:xpcimports.obj
 0002:00019ea0       ??_C@_0BE@JPNPBBEO@slTestRegAssessment?$AA@ 10099ea0     xpcruntime:xpcimports.obj
 0002:00019eb8       ??_C@_0BP@FBDEJJJH@slTestRegAssessment?5not?5found?6?$AA@ 10099eb8     xpcruntime:xpcimports.obj
 0002:00019ee0       ??_C@_0O@NCLGDNIB@slrteSetupMSI?$AA@ 10099ee0     xpcruntime:xpcimports.obj
 0002:00019ef0       ??_C@_0BJ@HEFMECLM@slrteSetupMSI?5not?5found?6?$AA@ 10099ef0     xpcruntime:xpcimports.obj
 0002:00019f10       ??_C@_0BH@BPOLALHD@slrtGetCRBScratchSpace?$AA@ 10099f10     xpcruntime:xpcimports.obj
 0002:00019f2c       ??_C@_0CC@KCKAJKKJ@slrtGetCRBScratchSpace?5not?5found@ 10099f2c     xpcruntime:xpcimports.obj
 0002:00019f54       ??_C@_0BC@MKFDAKOL@slrtGetSgCRBSpace?$AA@ 10099f54     xpcruntime:xpcimports.obj
 0002:00019f6c       ??_C@_0BN@JDPHPLHL@slrtGetSgCRBSpace?5not?5found?6?$AA@ 10099f6c     xpcruntime:xpcimports.obj
 0002:00019f90       ??_C@_0P@EPAPKLIF@slrtfsOpenFile?$AA@ 10099f90     xpcruntime:xpcimports.obj
 0002:00019fa4       ??_C@_0BK@FIHCBOHG@slrtfsOpenFile?5not?5found?6?$AA@ 10099fa4     xpcruntime:xpcimports.obj
 0002:00019fc4       ??_C@_0BA@LILAFDDL@slrtfsCloseFile?$AA@ 10099fc4     xpcruntime:xpcimports.obj
 0002:00019fd8       ??_C@_0BL@DEGHJFIB@slrtfsCloseFile?5not?5found?6?$AA@ 10099fd8     xpcruntime:xpcimports.obj
 0002:00019ff8       ??_C@_0BC@OKMJDIEH@slrtfsWriteToFile?$AA@ 10099ff8     xpcruntime:xpcimports.obj
 0002:0001a010       ??_C@_0BN@KCFLCLAH@slrtfsWriteToFile?5not?5found?6?$AA@ 1009a010     xpcruntime:xpcimports.obj
 0002:0001a034       ??_C@_0BK@GIPNFFFF@slrtfsGetFileErrorMessage?$AA@ 1009a034     xpcruntime:xpcimports.obj
 0002:0001a054       ??_C@_0CF@BCBLMKLE@slrtfsGetFileErrorMessage?5not?5fo@ 1009a054     xpcruntime:xpcimports.obj
 0002:0001a080       ??_C@_0BD@ICBOKMK@slrtfsGetFileError?$AA@ 1009a080     xpcruntime:xpcimports.obj
 0002:0001a098       ??_C@_0BO@FNBANAE@slrtfsGetFileError?5not?5found?6?$AA@ 1009a098     xpcruntime:xpcimports.obj
 0002:0001a0bc       ??_C@_0BE@PPAJMHJP@slrtfsOpenFileAsync?$AA@ 1009a0bc     xpcruntime:xpcimports.obj
 0002:0001a0d4       ??_C@_0BP@HKBMMJOK@slrtfsOpenFileAsync?5not?5found?6?$AA@ 1009a0d4     xpcruntime:xpcimports.obj
 0002:0001a0fc       ??_C@_0BF@IGNDIBPF@slrtfsCloseFileAsync?$AA@ 1009a0fc     xpcruntime:xpcimports.obj
 0002:0001a118       ??_C@_0CA@GJPFDBKN@slrtfsCloseFileAsync?5not?5found?6?$AA@ 1009a118     xpcruntime:xpcimports.obj
 0002:0001a140       ??_C@_0BE@IOLEBNB@slrtfsGetFileStatus?$AA@ 1009a140     xpcruntime:xpcimports.obj
 0002:0001a158       ??_C@_0BP@PEFHDGHL@slrtfsGetFileStatus?5not?5found?6?$AA@ 1009a158     xpcruntime:xpcimports.obj
 0002:0001a180       ??_C@_0N@IDKFJOHI@getlasterror?$AA@ 1009a180     xpcruntime:xpcimports.obj
 0002:0001a190       ??_C@_0BI@MIHMCHGL@getlasterror?5not?5found?6?$AA@ 1009a190     xpcruntime:xpcimports.obj
 0002:0001a1ac       ??_C@_0N@EAAOMIIE@isUsedByRTIP?$AA@ 1009a1ac     xpcruntime:xpcimports.obj
 0002:0001a1bc       ??_C@_0BI@GNHHHICK@isUsedByRTIP?5not?5found?6?$AA@ 1009a1bc     xpcruntime:xpcimports.obj
 0002:0001a1d8       ??_C@_0BC@HLDKJAG@SetIPTASKPriority?$AA@ 1009a1d8     xpcruntime:xpcimports.obj
 0002:0001a1f0       ??_C@_0BN@OGKMHHAE@SetIPTASKPriority?5not?5found?6?$AA@ 1009a1f0     xpcruntime:xpcimports.obj
 0002:0001a214       ??_C@_0O@LHENMBDD@OpenInterface?$AA@ 1009a214     xpcruntime:xpcimports.obj
 0002:0001a224       ??_C@_0BJ@PFGDBKHB@OpenInterface?5not?5found?6?$AA@ 1009a224     xpcruntime:xpcimports.obj
 0002:0001a244       ??_C@_0P@IINFELKD@CloseInterface?$AA@ 1009a244     xpcruntime:xpcimports.obj
 0002:0001a258       ??_C@_0BK@PAPDNDBK@CloseInterface?5not?5found?6?$AA@ 1009a258     xpcruntime:xpcimports.obj
 0002:0001a278       ??_C@_05LEFIAAOI@SetIP?$AA@ 1009a278     xpcruntime:xpcimports.obj
 0002:0001a280       ??_C@_0BB@CGLIBAMM@SetIP?5not?5found?6?$AA@ 1009a280     xpcruntime:xpcimports.obj
 0002:0001a294       ??_C@_0BA@HIJJHHMD@AddGatewayRoute?$AA@ 1009a294     xpcruntime:xpcimports.obj
 0002:0001a2a8       ??_C@_0BL@BFCFMDMN@AddGatewayRoute?5not?5found?6?$AA@ 1009a2a8     xpcruntime:xpcimports.obj
 0002:0001a2c8       ??_C@_0M@PHMABFPI@DeleteRoute?$AA@ 1009a2c8     xpcruntime:xpcimports.obj
 0002:0001a2d8       ??_C@_0BH@JPJGLLID@DeleteRoute?5not?5found?6?$AA@ 1009a2d8     xpcruntime:xpcimports.obj
 0002:0001a2f4       ??_C@_0BA@FCDIMKIJ@GetHostTarIPAdd?$AA@ 1009a2f4     xpcruntime:xpcimports.obj
 0002:0001a308       ??_C@_0BL@MBKDGKBO@GetHostTarIPAdd?5not?5found?6?$AA@ 1009a308     xpcruntime:xpcimports.obj
 0002:0001a328       ??_C@_0M@HPMIPIBI@GetDCUUsage?$AA@ 1009a328     xpcruntime:xpcimports.obj
 0002:0001a338       ??_C@_0BH@EBLJKCJC@GetDCUUsage?5not?5found?6?$AA@ 1009a338     xpcruntime:xpcimports.obj
 0002:0001a354       ??_C@_06MPKMECK@accept?$AA@ 1009a354     xpcruntime:xpcimports.obj
 0002:0001a35c       ??_C@_0BC@GBGIEMNO@accept?5not?5found?6?$AA@ 1009a35c     xpcruntime:xpcimports.obj
 0002:0001a374       ??_C@_04NPNJNMMP@bind?$AA@ 1009a374     xpcruntime:xpcimports.obj
 0002:0001a37c       ??_C@_0BA@DAJNENLO@bind?5not?5found?6?$AA@ 1009a37c     xpcruntime:xpcimports.obj
 0002:0001a390       ??_C@_0L@CKHNIFCM@setsockopt?$AA@ 1009a390     xpcruntime:xpcimports.obj
 0002:0001a3a0       ??_C@_0BG@MFIIOMFE@setsockopt?5not?5found?6?$AA@ 1009a3a0     xpcruntime:xpcimports.obj
 0002:0001a3bc       ??_C@_0M@ODDJDCDK@closesocket?$AA@ 1009a3bc     xpcruntime:xpcimports.obj
 0002:0001a3cc       ??_C@_0BH@JHGHMIL@closesocket?5not?5found?6?$AA@ 1009a3cc     xpcruntime:xpcimports.obj
 0002:0001a3e8       ??_C@_07KAIBNCHO@connect?$AA@ 1009a3e8     xpcruntime:xpcimports.obj
 0002:0001a3f4       ??_C@_0BD@MKLLMBM@connect?5not?5found?6?$AA@ 1009a3f4     xpcruntime:xpcimports.obj
 0002:0001a40c       ??_C@_0M@PBPOCKDG@ioctlsocket?$AA@ 1009a40c     xpcruntime:xpcimports.obj
 0002:0001a41c       ??_C@_0BH@NFCNHHIH@ioctlsocket?5not?5found?6?$AA@ 1009a41c     xpcruntime:xpcimports.obj
 0002:0001a438       ??_C@_06OODDLKLE@listen?$AA@ 1009a438     xpcruntime:xpcimports.obj
 0002:0001a440       ??_C@_0BC@NHBILEKI@listen?5not?5found?6?$AA@ 1009a440     xpcruntime:xpcimports.obj
 0002:0001a458       ??_C@_08HMBBGFHE@recvfrom?$AA@ 1009a458     xpcruntime:xpcimports.obj
 0002:0001a464       ??_C@_0BE@BJAJFFLF@recvfrom?5not?5found?6?$AA@ 1009a464     xpcruntime:xpcimports.obj
 0002:0001a47c       ??_C@_06MEPBGKEC@sendto?$AA@ 1009a47c     xpcruntime:xpcimports.obj
 0002:0001a484       ??_C@_0BC@BHPIMDJO@sendto?5not?5found?6?$AA@ 1009a484     xpcruntime:xpcimports.obj
 0002:0001a49c       ??_C@_09JKBDEEOB@inet_addr?$AA@ 1009a49c     xpcruntime:xpcimports.obj
 0002:0001a4a8       ??_C@_0BF@HKJPGECN@inet_addr?5not?5found?6?$AA@ 1009a4a8     xpcruntime:xpcimports.obj
 0002:0001a4c4       ??_C@_06HBELJPBO@socket?$AA@ 1009a4c4     xpcruntime:xpcimports.obj
 0002:0001a4cc       ??_C@_0BC@NAGFFJGA@socket?5not?5found?6?$AA@ 1009a4cc     xpcruntime:xpcimports.obj
 0002:0001a58c       __pRawDllMain              1009a58c     LIBCMT:dll_dllmain.obj
 0002:0001a58c       __pDefaultRawDllMain       1009a58c     LIBCMT:dll_dllmain.obj
 0002:0001a5a4       ??_C@_1BC@DNHGCMLG@?$AAa?$AAd?$AAv?$AAa?$AAp?$AAi?$AA3?$AA2?$AA?$AA@ 1009a5a4     libvcruntime:winapi_downlevel.obj
 0002:0001a5bc       ??_C@_1DM@KHCHBNEB@?$AAa?$AAp?$AAi?$AA?9?$AAm?$AAs?$AA?9?$AAw?$AAi?$AAn?$AA?9?$AAc?$AAo?$AAr?$AAe?$AA?9?$AAf?$AAi?$AAb?$AAe?$AAr?$AAs?$AA?9?$AAl?$AA1?$AA?9?$AA1?$AA?9?$AA1?$AA?$AA@ 1009a5bc     libvcruntime:winapi_downlevel.obj
 0002:0001a604       ??_C@_1DK@LPPGFMPP@?$AAa?$AAp?$AAi?$AA?9?$AAm?$AAs?$AA?9?$AAw?$AAi?$AAn?$AA?9?$AAc?$AAo?$AAr?$AAe?$AA?9?$AAs?$AAy?$AAn?$AAc?$AAh?$AA?9?$AAl?$AA1?$AA?9?$AA2?$AA?9?$AA0?$AA?$AA@ 1009a604     libvcruntime:winapi_downlevel.obj
 0002:0001a64c       ??_C@_1BC@GDMECMAK@?$AAk?$AAe?$AAr?$AAn?$AAe?$AAl?$AA3?$AA2?$AA?$AA@ 1009a64c     libvcruntime:winapi_downlevel.obj
 0002:0001a668       ??_C@_0O@BAMBGLIE@EventRegister?$AA@ 1009a668     libvcruntime:winapi_downlevel.obj
 0002:0001a67c       ??_C@_0BE@BJEEGHGK@EventSetInformation?$AA@ 1009a67c     libvcruntime:winapi_downlevel.obj
 0002:0001a698       ??_C@_0BA@FAKLIPIC@EventUnregister?$AA@ 1009a698     libvcruntime:winapi_downlevel.obj
 0002:0001a6b0       ??_C@_0BD@PKLHJPHD@EventWriteTransfer?$AA@ 1009a6b0     libvcruntime:winapi_downlevel.obj
 0002:0001a6d4       ??_C@_08KNHFBNJ@FlsAlloc?$AA@ 1009a6d4     libvcruntime:winapi_downlevel.obj
 0002:0001a6ec       ??_C@_07PEJMOBNF@FlsFree?$AA@ 1009a6ec     libvcruntime:winapi_downlevel.obj
 0002:0001a704       ??_C@_0M@GDNOONDI@FlsGetValue?$AA@ 1009a704     libvcruntime:winapi_downlevel.obj
 0002:0001a720       ??_C@_0M@JCPCPOEF@FlsSetValue?$AA@ 1009a720     libvcruntime:winapi_downlevel.obj
 0002:0001a73c       ??_C@_0BM@HCFOFFN@InitializeCriticalSectionEx?$AA@ 1009a73c     libvcruntime:winapi_downlevel.obj
 0002:0001a940       ??_C@_08EHJDFFNH@__based?$CI?$AA@ 1009a940     libvcruntime:undname.obj
 0002:0001a94c       ??_C@_07KOLFKCDI@__cdecl?$AA@ 1009a94c     libvcruntime:undname.obj
 0002:0001a958       ??_C@_08GHMPAG@__pascal?$AA@ 1009a958     libvcruntime:undname.obj
 0002:0001a964       ??_C@_09IFJBGAPI@__stdcall?$AA@ 1009a964     libvcruntime:undname.obj
 0002:0001a970       ??_C@_0L@NPHFGOKO@__thiscall?$AA@ 1009a970     libvcruntime:undname.obj
 0002:0001a980       ??_C@_0L@JMKHOMEK@__fastcall?$AA@ 1009a980     libvcruntime:undname.obj
 0002:0001a990       ??_C@_0N@BCKKPABJ@__vectorcall?$AA@ 1009a990     libvcruntime:undname.obj
 0002:0001a9a0       ??_C@_09HIJEGCPM@__clrcall?$AA@ 1009a9a0     libvcruntime:undname.obj
 0002:0001a9ac       ??_C@_06GHPCKEAG@__eabi?$AA@ 1009a9ac     libvcruntime:undname.obj
 0002:0001a9b4       ??_C@_07JOMMBBKO@__ptr64?$AA@ 1009a9b4     libvcruntime:undname.obj
 0002:0001a9c0       ??_C@_0L@PILCLIHE@__restrict?$AA@ 1009a9c0     libvcruntime:undname.obj
 0002:0001a9d0       ??_C@_0M@GFIIJFMG@__unaligned?$AA@ 1009a9d0     libvcruntime:undname.obj
 0002:0001a9e0       ??_C@_09DHDLOLLB@restrict?$CI?$AA@ 1009a9e0     libvcruntime:undname.obj
 0002:0001a9ec       ??_C@_04NIHEBCM@?5new?$AA@ 1009a9ec     libvcruntime:undname.obj
 0002:0001a9f4       ??_C@_07FPCDHGMM@?5delete?$AA@ 1009a9f4     libvcruntime:undname.obj
 0002:0001aa00       ??_C@_01NEMOKFLO@?$DN?$AA@ 1009aa00     libvcruntime:undname.obj
 0002:0001aa04       ??_C@_02GPIOPFAK@?$DO?$DO?$AA@ 1009aa04     libvcruntime:undname.obj
 0002:0001aa08       ??_C@_02FODMEDOG@?$DM?$DM?$AA@ 1009aa08     libvcruntime:undname.obj
 0002:0001aa0c       ??_C@_01DCLJPIOD@?$CB?$AA@ 1009aa0c     libvcruntime:undname.obj
 0002:0001aa10       ??_C@_02EGOFBIJA@?$DN?$DN?$AA@ 1009aa10     libvcruntime:undname.obj
 0002:0001aa14       ??_C@_02FDNJECIE@?$CB?$DN?$AA@ 1009aa14     libvcruntime:undname.obj
 0002:0001aa18       ??_C@_02GPECMEKF@?$FL?$FN?$AA@ 1009aa18     libvcruntime:undname.obj
 0002:0001aa1c       ??_C@_08LHJFAFGD@operator?$AA@ 1009aa1c     libvcruntime:undname.obj
 0002:0001aa28       ??_C@_02HBOOOICD@?9?$DO?$AA@ 1009aa28     libvcruntime:undname.obj
 0002:0001aa2c       ??_C@_01NBENCBCI@?$CK?$AA@ 1009aa2c     libvcruntime:undname.obj
 0002:0001aa30       ??_C@_02ECNGHCIF@?$CL?$CL?$AA@ 1009aa30     libvcruntime:undname.obj
 0002:0001aa34       ??_C@_02BAABKJLB@?9?9?$AA@ 1009aa34     libvcruntime:undname.obj
 0002:0001aa38       ??_C@_01JOAMLHOP@?9?$AA@   1009aa38     libvcruntime:undname.obj
 0002:0001aa3c       ??_C@_01MIFGBAGJ@?$CL?$AA@ 1009aa3c     libvcruntime:undname.obj
 0002:0001aa40       ??_C@_01HNPIGOCE@?$CG?$AA@ 1009aa40     libvcruntime:undname.obj
 0002:0001aa44       ??_C@_03MNHNFDLC@?9?$DO?$CK?$AA@ 1009aa44     libvcruntime:undname.obj
 0002:0001aa48       ??_C@_01KMDKNFGN@?1?$AA@   1009aa48     libvcruntime:undname.obj
 0002:0001aa4c       ??_C@_01FGNFDNOH@?$CF?$AA@ 1009aa4c     libvcruntime:undname.obj
 0002:0001aa50       ??_C@_01MNNFJEPP@?$DM?$AA@ 1009aa50     libvcruntime:undname.obj
 0002:0001aa54       ??_C@_02EHCHHCKH@?$DM?$DN?$AA@ 1009aa54     libvcruntime:undname.obj
 0002:0001aa58       ??_C@_01PPODPGHN@?$DO?$AA@ 1009aa58     libvcruntime:undname.obj
 0002:0001aa5c       ??_C@_02EEKDKGMJ@?$DO?$DN?$AA@ 1009aa5c     libvcruntime:undname.obj
 0002:0001aa60       ??_C@_01IHBHIGKO@?0?$AA@   1009aa60     libvcruntime:undname.obj
 0002:0001aa64       ??_C@_02HCKGKOFO@?$CI?$CJ?$AA@ 1009aa64     libvcruntime:undname.obj
 0002:0001aa68       ??_C@_01PJKLJHI@?$HO?$AA@  1009aa68     libvcruntime:undname.obj
 0002:0001aa6c       ??_C@_01JKBOJNNK@?$FO?$AA@ 1009aa6c     libvcruntime:undname.obj
 0002:0001aa70       ??_C@_01DNKMNLPK@?$HM?$AA@ 1009aa70     libvcruntime:undname.obj
 0002:0001aa74       ??_C@_02PPKAJPJL@?$CG?$CG?$AA@ 1009aa74     libvcruntime:undname.obj
 0002:0001aa78       ??_C@_02NONPIBCD@?$HM?$HM?$AA@ 1009aa78     libvcruntime:undname.obj
 0002:0001aa7c       ??_C@_02FPIMKNGF@?$CK?$DN?$AA@ 1009aa7c     libvcruntime:undname.obj
 0002:0001aa80       ??_C@_02FOEOMHFC@?$CL?$DN?$AA@ 1009aa80     libvcruntime:undname.obj
 0002:0001aa84       ??_C@_02FKMDLLOA@?9?$DN?$AA@ 1009aa84     libvcruntime:undname.obj
 0002:0001aa88       ??_C@_02FJEHGPIO@?1?$DN?$AA@ 1009aa88     libvcruntime:undname.obj
 0002:0001aa8c       ??_C@_02FENAOKFI@?$CF?$DN?$AA@ 1009aa8c     libvcruntime:undname.obj
 0002:0001aa90       ??_C@_03IKFCCPFF@?$DO?$DO?$DN?$AA@ 1009aa90     libvcruntime:undname.obj
 0002:0001aa94       ??_C@_03CDNPDDLA@?$DM?$DM?$DN?$AA@ 1009aa94     libvcruntime:undname.obj
 0002:0001aa98       ??_C@_02FGJGFEAB@?$CG?$DN?$AA@ 1009aa98     libvcruntime:undname.obj
 0002:0001aa9c       ??_C@_02DHLNPPGH@?$HM?$DN?$AA@ 1009aa9c     libvcruntime:undname.obj
 0002:0001aaa0       ??_C@_02MHEGNOJ@?$FO?$DN?$AA@ 1009aaa0     libvcruntime:undname.obj
 0002:0001aaa4       ??_C@_09IFPLHPGF@?$GAvftable?8?$AA@ 1009aaa4     libvcruntime:undname.obj
 0002:0001aab0       ??_C@_09BLBHBJP@?$GAvbtable?8?$AA@ 1009aab0     libvcruntime:undname.obj
 0002:0001aabc       ??_C@_07FEEIOKP@?$GAvcall?8?$AA@ 1009aabc     libvcruntime:undname.obj
 0002:0001aac8       ??_C@_08LLFFHHDJ@?$GAtypeof?8?$AA@ 1009aac8     libvcruntime:undname.obj
 0002:0001aad4       ??_C@_0BF@KDPPACIK@?$GAlocal?5static?5guard?8?$AA@ 1009aad4     libvcruntime:undname.obj
 0002:0001aaf0       ??_C@_08OBABFOLI@?$GAstring?8?$AA@ 1009aaf0     libvcruntime:undname.obj
 0002:0001aafc       ??_C@_0BD@JDLKDPAB@?$GAvbase?5destructor?8?$AA@ 1009aafc     libvcruntime:undname.obj
 0002:0001ab14       ??_C@_0BN@DEGPLNFK@?$GAvector?5deleting?5destructor?8?$AA@ 1009ab14     libvcruntime:undname.obj
 0002:0001ab38       ??_C@_0BO@OBMKPJIG@?$GAdefault?5constructor?5closure?8?$AA@ 1009ab38     libvcruntime:undname.obj
 0002:0001ab5c       ??_C@_0BN@IMDCHIKM@?$GAscalar?5deleting?5destructor?8?$AA@ 1009ab5c     libvcruntime:undname.obj
 0002:0001ab80       ??_C@_0BO@PFGOCPJJ@?$GAvector?5constructor?5iterator?8?$AA@ 1009ab80     libvcruntime:undname.obj
 0002:0001aba4       ??_C@_0BN@LFPFMEDL@?$GAvector?5destructor?5iterator?8?$AA@ 1009aba4     libvcruntime:undname.obj
 0002:0001abc8       ??_C@_0CE@IKBNEHA@?$GAvector?5vbase?5constructor?5iterat@ 1009abc8     libvcruntime:undname.obj
 0002:0001abf4       ??_C@_0BL@NILFHHPC@?$GAvirtual?5displacement?5map?8?$AA@ 1009abf4     libvcruntime:undname.obj
 0002:0001ac14       ??_C@_0CB@JONCMFFK@?$GAeh?5vector?5constructor?5iterator?8@ 1009ac14     libvcruntime:undname.obj
 0002:0001ac3c       ??_C@_0CA@GCEOPDGL@?$GAeh?5vector?5destructor?5iterator?8?$AA@ 1009ac3c     libvcruntime:undname.obj
 0002:0001ac64       ??_C@_0CH@OOJPLCPH@?$GAeh?5vector?5vbase?5constructor?5ite@ 1009ac64     libvcruntime:undname.obj
 0002:0001ac94       ??_C@_0BL@LLKPOHJI@?$GAcopy?5constructor?5closure?8?$AA@ 1009ac94     libvcruntime:undname.obj
 0002:0001acb4       ??_C@_0BA@KBCDOMBN@?$GAudt?5returning?8?$AA@ 1009acb4     libvcruntime:undname.obj
 0002:0001acc8       ??_C@_03KLGMFNMG@?$GAEH?$AA@ 1009acc8     libvcruntime:undname.obj
 0002:0001accc       ??_C@_05KHLCHHI@?$GARTTI?$AA@ 1009accc     libvcruntime:undname.obj
 0002:0001acd4       ??_C@_0BA@KKLDJDLB@?$GAlocal?5vftable?8?$AA@ 1009acd4     libvcruntime:undname.obj
 0002:0001ace8       ??_C@_0CE@IIHCMGGL@?$GAlocal?5vftable?5constructor?5closu@ 1009ace8     libvcruntime:undname.obj
 0002:0001ad14       ??_C@_06FHBGPFGH@?5new?$FL?$FN?$AA@ 1009ad14     libvcruntime:undname.obj
 0002:0001ad1c       ??_C@_09LBNFPBCA@?5delete?$FL?$FN?$AA@ 1009ad1c     libvcruntime:undname.obj
 0002:0001ad28       ??_C@_0P@HJKNJFNN@?$GAomni?5callsig?8?$AA@ 1009ad28     libvcruntime:undname.obj
 0002:0001ad3c       ??_C@_0BL@CNOONJFP@?$GAplacement?5delete?5closure?8?$AA@ 1009ad3c     libvcruntime:undname.obj
 0002:0001ad5c       ??_C@_0BN@CKNJLHMB@?$GAplacement?5delete?$FL?$FN?5closure?8?$AA@ 1009ad5c     libvcruntime:undname.obj
 0002:0001ad80       ??_C@_0CG@CFDHKGGD@?$GAmanaged?5vector?5constructor?5iter@ 1009ad80     libvcruntime:undname.obj
 0002:0001adb0       ??_C@_0CF@IMGKMJNO@?$GAmanaged?5vector?5destructor?5itera@ 1009adb0     libvcruntime:undname.obj
 0002:0001addc       ??_C@_0CG@HLDDJMAG@?$GAeh?5vector?5copy?5constructor?5iter@ 1009addc     libvcruntime:undname.obj
 0002:0001ae0c       ??_C@_0CM@FCBBDIGB@?$GAeh?5vector?5vbase?5copy?5constructo@ 1009ae0c     libvcruntime:undname.obj
 0002:0001ae40       ??_C@_0BL@CLIPGLGB@?$GAdynamic?5initializer?5for?5?8?$AA@ 1009ae40     libvcruntime:undname.obj
 0002:0001ae60       ??_C@_0CB@PDBIFEP@?$GAdynamic?5atexit?5destructor?5for?5?8@ 1009ae60     libvcruntime:undname.obj
 0002:0001ae88       ??_C@_0CD@CGAJBKEJ@?$GAvector?5copy?5constructor?5iterato@ 1009ae88     libvcruntime:undname.obj
 0002:0001aeb4       ??_C@_0CJ@GJELGAMM@?$GAvector?5vbase?5copy?5constructor?5i@ 1009aeb4     libvcruntime:undname.obj
 0002:0001aee8       ??_C@_0CL@FGIJHLCE@?$GAmanaged?5vector?5copy?5constructor@ 1009aee8     libvcruntime:undname.obj
 0002:0001af1c       ??_C@_0BM@PMGGMLDN@?$GAlocal?5static?5thread?5guard?8?$AA@ 1009af1c     libvcruntime:undname.obj
 0002:0001af40       ??_C@_0N@BDNMDMOL@operator?5?$CC?$CC?5?$AA@ 1009af40     libvcruntime:undname.obj
 0002:0001af50       ??_C@_0BC@DAFEJGAK@?5Type?5Descriptor?8?$AA@ 1009af50     libvcruntime:undname.obj
 0002:0001af68       ??_C@_0BM@LDKODKLH@?5Base?5Class?5Descriptor?5at?5?$CI?$AA@ 1009af68     libvcruntime:undname.obj
 0002:0001af8c       ??_C@_0BD@LGICGFMM@?5Base?5Class?5Array?8?$AA@ 1009af8c     libvcruntime:undname.obj
 0002:0001afa4       ??_C@_0BN@MECKDCOJ@?5Class?5Hierarchy?5Descriptor?8?$AA@ 1009afa4     libvcruntime:undname.obj
 0002:0001afc8       ??_C@_0BK@CFCOFLF@?5Complete?5Object?5Locator?8?$AA@ 1009afc8     libvcruntime:undname.obj
 0002:0001afe8       ??_C@_04HEJADOOB@CV?3?5?$AA@ 1009afe8     libvcruntime:undname.obj
 0002:0001aff0       ??_C@_02MOLJINC@?3?3?$AA@  1009aff0     libvcruntime:undname.obj
 0002:0001aff4       ??_C@_0BE@JAEOCHPE@template?9parameter?9?$AA@ 1009aff4     libvcruntime:undname.obj
 0002:0001b00c       ??_C@_0O@KHGCOMHP@generic?9type?9?$AA@ 1009b00c     libvcruntime:undname.obj
 0002:0001b01c       ??_C@_01NLNLIGKH@?$GA?$AA@ 1009b01c     libvcruntime:undname.obj
 0002:0001b020       ??_C@_01GEODFPGF@?8?$AA@   1009b020     libvcruntime:undname.obj
 0002:0001b024       ??_C@_0BG@JNJLAMPM@?$GAanonymous?5namespace?8?$AA@ 1009b024     libvcruntime:undname.obj
 0002:0001b040       ??_C@_02OHHJMEON@?8?8?$AA@ 1009b040     libvcruntime:undname.obj
 0002:0001b044       ??_C@_0BN@IBLMMFAP@?$GAnon?9type?9template?9parameter?$AA@ 1009b044     libvcruntime:undname.obj
 0002:0001b068       ??_C@_04GKJNKENE@void?$AA@ 1009b068     libvcruntime:undname.obj
 0002:0001b070       ??_C@_0BE@EODMJLIF@?$GAtemplate?9parameter?$AA@ 1009b070     libvcruntime:undname.obj
 0002:0001b088       ??_C@_03KHICJKCI@?4?4?4?$AA@ 1009b088     libvcruntime:undname.obj
 0002:0001b08c       ??_C@_04HIBGFPH@NULL?$AA@  1009b08c     libvcruntime:undname.obj
 0002:0001b094       ??_C@_02DPKJAMEF@?$CFd?$AA@ 1009b094     libvcruntime:undname.obj
 0002:0001b098       ??_C@_0BK@IHCCFNEL@?$GAtemplate?9type?9parameter?9?$AA@ 1009b098     libvcruntime:undname.obj
 0002:0001b0b8       ??_C@_0BK@OFCNNNKO@?$GAgeneric?9class?9parameter?9?$AA@ 1009b0b8     libvcruntime:undname.obj
 0002:0001b0d8       ??_C@_0BL@NGJBLFIL@?$GAgeneric?9method?9parameter?9?$AA@ 1009b0d8     libvcruntime:undname.obj
 0002:0001b0f8       ??_C@_03OPGICMGF@?$HN?8?5?$AA@ 1009b0f8     libvcruntime:undname.obj
 0002:0001b0fc       ??_C@_02IGFCGPIL@?$HN?8?$AA@ 1009b0fc     libvcruntime:undname.obj
 0002:0001b100       ??_C@_01CLKCMJKC@?5?$AA@   1009b100     libvcruntime:undname.obj
 0002:0001b104       ??_C@_0N@CBHHHENL@?$GAvtordispex?$HL?$AA@ 1009b104     libvcruntime:undname.obj
 0002:0001b114       ??_C@_0L@GHPFDFH@?$GAvtordisp?$HL?$AA@ 1009b114     libvcruntime:undname.obj
 0002:0001b124       ??_C@_0L@HNGCOGAE@?$GAadjustor?$HL?$AA@ 1009b124     libvcruntime:undname.obj
 0002:0001b134       ??_C@_0CB@KJDOOODE@?$GAlocal?5static?5destructor?5helper?8@ 1009b134     libvcruntime:undname.obj
 0002:0001b15c       ??_C@_0DB@ILEFOCIJ@?$GAtemplate?5static?5data?5member?5con@ 1009b15c     libvcruntime:undname.obj
 0002:0001b198       ??_C@_0DA@HGFJFBBE@?$GAtemplate?5static?5data?5member?5des@ 1009b198     libvcruntime:undname.obj
 0002:0001b1d4       ??_C@_07PGOEDBHP@static?5?$AA@ 1009b1d4     libvcruntime:undname.obj
 0002:0001b1e0       ??_C@_08NIEOINHE@virtual?5?$AA@ 1009b1e0     libvcruntime:undname.obj
 0002:0001b1ec       ??_C@_09LAPHOOG@private?3?5?$AA@ 1009b1ec     libvcruntime:undname.obj
 0002:0001b1f8       ??_C@_0M@GAIFPFIP@protected?3?5?$AA@ 1009b1f8     libvcruntime:undname.obj
 0002:0001b208       ??_C@_08GPDDCMKI@public?3?5?$AA@ 1009b208     libvcruntime:undname.obj
 0002:0001b214       ??_C@_08KJLFOPNE@?$FLthunk?$FN?3?$AA@ 1009b214     libvcruntime:undname.obj
 0002:0001b220       ??_C@_0M@DHNBOJMP@extern?5?$CCC?$CC?5?$AA@ 1009b220     libvcruntime:undname.obj
 0002:0001b230       ??_C@_02KCKGHPCA@?$CJ?5?$AA@ 1009b230     libvcruntime:undname.obj
 0002:0001b234       ??_C@_05CIHEBHNO@char?5?$AA@ 1009b234     libvcruntime:undname.obj
 0002:0001b23c       ??_C@_06EHJMALKF@short?5?$AA@ 1009b23c     libvcruntime:undname.obj
 0002:0001b244       ??_C@_04LAHKHJMA@int?5?$AA@ 1009b244     libvcruntime:undname.obj
 0002:0001b24c       ??_C@_05CJIMAING@long?5?$AA@ 1009b24c     libvcruntime:undname.obj
 0002:0001b254       ??_C@_09EBBEKKIH@unsigned?5?$AA@ 1009b254     libvcruntime:undname.obj
 0002:0001b260       ??_C@_05BEFAKPML@void?5?$AA@ 1009b260     libvcruntime:undname.obj
 0002:0001b268       ??_C@_08PABEKFH@volatile?$AA@ 1009b268     libvcruntime:undname.obj
 0002:0001b274       ??_C@_0BA@LKIJLKPP@std?3?3nullptr_t?5?$AA@ 1009b274     libvcruntime:undname.obj
 0002:0001b288       ??_C@_0P@GCOCNKDM@std?3?3nullptr_t?$AA@ 1009b288     libvcruntime:undname.obj
 0002:0001b29c       ??_C@_0L@EGPHHEKN@?$DMellipsis?$DO?$AA@ 1009b29c     libvcruntime:undname.obj
 0002:0001b2ac       ??_C@_04EENFHACM@?0?4?4?4?$AA@ 1009b2ac     libvcruntime:undname.obj
 0002:0001b2b4       ??_C@_0M@ELJOJFFH@?0?$DMellipsis?$DO?$AA@ 1009b2b4     libvcruntime:undname.obj
 0002:0001b2c4       ??_C@_07HDJPLPEK@?5throw?$CI?$AA@ 1009b2c4     libvcruntime:undname.obj
 0002:0001b2d0       ??_C@_03PBJBJNON@cpu?$AA@  1009b2d0     libvcruntime:undname.obj
 0002:0001b2d4       ??_C@_03DCBBJBAA@amp?$AA@  1009b2d4     libvcruntime:undname.obj
 0002:0001b2d8       ??_C@_02KEGNLNML@?0?5?$AA@ 1009b2d8     libvcruntime:undname.obj
 0002:0001b2dc       ??_C@_04ENMBGAPA@char?$AA@ 1009b2dc     libvcruntime:undname.obj
 0002:0001b2e4       ??_C@_05BFKKPKCG@short?$AA@ 1009b2e4     libvcruntime:undname.obj
 0002:0001b2ec       ??_C@_03JBIPMCLC@int?$AA@  1009b2ec     libvcruntime:undname.obj
 0002:0001b2f0       ??_C@_04GOKPGOLB@long?$AA@ 1009b2f0     libvcruntime:undname.obj
 0002:0001b2f8       ??_C@_04DDKJGDCM@bool?$AA@ 1009b2f8     libvcruntime:undname.obj
 0002:0001b300       ??_C@_06EBGKOKIG@__int8?$AA@ 1009b300     libvcruntime:undname.obj
 0002:0001b308       ??_C@_07ICFHOGAF@__int16?$AA@ 1009b308     libvcruntime:undname.obj
 0002:0001b314       ??_C@_07OFLPPHGP@__int32?$AA@ 1009b314     libvcruntime:undname.obj
 0002:0001b320       ??_C@_07LFCOJCAC@__int64?$AA@ 1009b320     libvcruntime:undname.obj
 0002:0001b32c       ??_C@_08GAHOLHEO@__int128?$AA@ 1009b32c     libvcruntime:undname.obj
 0002:0001b338       ??_C@_09EEKGDCPH@?$DMunknown?$DO?$AA@ 1009b338     libvcruntime:undname.obj
 0002:0001b344       ??_C@_08HBIPOFJB@char16_t?$AA@ 1009b344     libvcruntime:undname.obj
 0002:0001b350       ??_C@_08IECNCBKG@char32_t?$AA@ 1009b350     libvcruntime:undname.obj
 0002:0001b35c       ??_C@_07CLGGIAMF@wchar_t?$AA@ 1009b35c     libvcruntime:undname.obj
 0002:0001b368       ??_C@_06GCICPBLB@__w64?5?$AA@ 1009b368     libvcruntime:undname.obj
 0002:0001b370       ??_C@_07NFANNNEC@UNKNOWN?$AA@ 1009b370     libvcruntime:undname.obj
 0002:0001b37c       ??_C@_07EDHNAJHC@signed?5?$AA@ 1009b37c     libvcruntime:undname.obj
 0002:0001b388       ??_C@_09EFNPDFFP@?5volatile?$AA@ 1009b388     libvcruntime:undname.obj
 0002:0001b394       ??_C@_0P@GCIFDJCJ@?$GAunknown?5ecsu?8?$AA@ 1009b394     libvcruntime:undname.obj
 0002:0001b3a8       ??_C@_06MOJHIBMG@union?5?$AA@ 1009b3a8     libvcruntime:undname.obj
 0002:0001b3b0       ??_C@_07DIBCDNGL@struct?5?$AA@ 1009b3b0     libvcruntime:undname.obj
 0002:0001b3bc       ??_C@_06LJBABKPM@class?5?$AA@ 1009b3bc     libvcruntime:undname.obj
 0002:0001b3c4       ??_C@_08KOFANOFK@coclass?5?$AA@ 1009b3c4     libvcruntime:undname.obj
 0002:0001b3d0       ??_C@_0N@DLIEFKNA@cointerface?5?$AA@ 1009b3d0     libvcruntime:undname.obj
 0002:0001b3e0       ??_C@_05LJGMCFOG@enum?5?$AA@ 1009b3e0     libvcruntime:undname.obj
 0002:0001b3e8       ??_C@_09GAIEOBLP@volatile?5?$AA@ 1009b3e8     libvcruntime:undname.obj
 0002:0001b3f4       ??_C@_06LIJLOJAG@const?5?$AA@ 1009b3f4     libvcruntime:undname.obj
 0002:0001b3fc       ??_C@_02KJPKDIBN@?$CG?5?$AA@ 1009b3fc     libvcruntime:undname.obj
 0002:0001b400       ??_C@_03PCKGMOPB@?$CG?$CG?5?$AA@ 1009b400     libvcruntime:undname.obj
 0002:0001b404       ??_C@_0M@EALIELKG@cli?3?3array?$DM?$AA@ 1009b404     libvcruntime:undname.obj
 0002:0001b414       ??_C@_0O@GKABPPIF@cli?3?3pin_ptr?$DM?$AA@ 1009b414     libvcruntime:undname.obj
 0002:0001b424       ??_C@_02GOGNNPBN@?$CJ?$FL?$AA@ 1009b424     libvcruntime:undname.obj
 0002:0001b428       ??_C@_06EEGAIFAK@?$HLflat?$HN?$AA@ 1009b428     libvcruntime:undname.obj
 0002:0001b430       ??_C@_05JIBOFOHK@?$HLfor?5?$AA@ 1009b430     libvcruntime:undname.obj
 0002:0001b438       ??_C@_02MDINNEEG@s?5?$AA@  1009b438     libvcruntime:undname.obj
 0002:0001b440       ??_7DNameNode@@6B@         1009b440     libvcruntime:undname.obj
 0002:0001b454       ??_7charNode@@6B@          1009b454     libvcruntime:undname.obj
 0002:0001b468       ??_7pcharNode@@6B@         1009b468     libvcruntime:undname.obj
 0002:0001b47c       ??_7pDNameNode@@6B@        1009b47c     libvcruntime:undname.obj
 0002:0001b490       ??_7DNameStatusNode@@6B@   1009b490     libvcruntime:undname.obj
 0002:0001b4a4       ??_7pairNode@@6B@          1009b4a4     libvcruntime:undname.obj
 0002:0001b4b4       ??_C@_04OKOHEJBO@?5?$DP?$DP?5?$AA@ 1009b4b4     libvcruntime:undname.obj
 0002:0001b4c0       _standard_lookup_table     1009b4c0     libucrt:output.obj
 0002:0001b530       _format_validation_lookup_table 1009b530     libucrt:output.obj
 0002:0001b5a0       ??_C@_06OJHGLDPL@?$CInull?$CJ?$AA@ 1009b5a0     libucrt:output.obj
 0002:0001b5a8       ??_C@_1O@CEDCILHN@?$AA?$CI?$AAn?$AAu?$AAl?$AAl?$AA?$CJ?$AA?$AA@ 1009b5a8     libucrt:output.obj
 0002:0001b5c0       __OP_FMODjmptab            1009b5c0     libucrt:87fmod.obj
 0002:0001b73c       _RtlNtPathSeperatorString  1009b73c     libucrt:exit.obj
 0002:0001b748       ??_C@_13FPGAJAPJ@?$AA?2?$AA?$AA@ 1009b748     libucrt:exit.obj
 0002:0001b74c       _RtlDosPathSeperatorsString 1009b74c     libucrt:exit.obj
 0002:0001b758       ??_C@_15MNCACJLI@?$AA?2?$AA?1?$AA?$AA@ 1009b758     libucrt:exit.obj
 0002:0001b760       _RtlAlternateDosPathSeperatorString 1009b760     libucrt:exit.obj
 0002:0001b76c       ??_C@_13CGOKJPIL@?$AA?1?$AA?$AA@ 1009b76c     libucrt:exit.obj
 0002:0001b770       ??_C@_1BI@BGOHAHKC@?$AAm?$AAs?$AAc?$AAo?$AAr?$AAe?$AAe?$AA?4?$AAd?$AAl?$AAl?$AA?$AA@ 1009b770     libucrt:exit.obj
 0002:0001b78c       ??_C@_0P@MIGLKIOC@CorExitProcess?$AA@ 1009b78c     libucrt:exit.obj
 0002:0001b7a0       ??_C@_0CF@GOGNBNAK@Microsoft?5Visual?5C?$CL?$CL?5Runtime?5Lib@ 1009b7a0     libucrt:assert.obj
 0002:0001b7d0       ??_C@_1EK@MBDPDCGA@?$AAM?$AAi?$AAc?$AAr?$AAo?$AAs?$AAo?$AAf?$AAt?$AA?5?$AAV?$AAi?$AAs?$AAu?$AAa?$AAl?$AA?5?$AAC?$AA?$CL?$AA?$CL?$AA?5?$AAR?$AAu?$AAn?$AAt?$AAi?$AAm?$AAe?$AA?5?$AAL?$AAi?$AAb@ 1009b7d0     libucrt:assert.obj
 0002:0001b828       ??_C@_0CK@CFPGFGGO@Assertion?5failed?3?5?$CFTs?0?5file?5?$CFTs?0@ 1009b828     libucrt:assert.obj
 0002:0001b860       ??_C@_1FE@LHBLIKM@?$AAA?$AAs?$AAs?$AAe?$AAr?$AAt?$AAi?$AAo?$AAn?$AA?5?$AAf?$AAa?$AAi?$AAl?$AAe?$AAd?$AA?3?$AA?5?$AA?$CF?$AAT?$AAs?$AA?0?$AA?5?$AAf?$AAi?$AAl?$AAe?$AA?5?$AA?$CF?$AAT?$AAs?$AA?0@ 1009b860     libucrt:assert.obj
 0002:0001b8c4       ??_C@_0BC@LAIDCHCH@Assertion?5failed?$CB?$AA@ 1009b8c4     libucrt:assert.obj
 0002:0001b8dc       ??_C@_1CE@OJBNHDMO@?$AAA?$AAs?$AAs?$AAe?$AAr?$AAt?$AAi?$AAo?$AAn?$AA?5?$AAf?$AAa?$AAi?$AAl?$AAe?$AAd?$AA?$CB?$AA?$AA@ 1009b8dc     libucrt:assert.obj
 0002:0001b908       ??_C@_09KLGCKDOD@Program?3?5?$AA@ 1009b908     libucrt:assert.obj
 0002:0001b914       ??_C@_1BE@PHKBBGE@?$AAP?$AAr?$AAo?$AAg?$AAr?$AAa?$AAm?$AA?3?$AA?5?$AA?$AA@ 1009b914     libucrt:assert.obj
 0002:0001b92c       ??_C@_06IGPBOHMJ@File?3?5?$AA@ 1009b92c     libucrt:assert.obj
 0002:0001b934       ??_C@_1O@HEMHKNDC@?$AAF?$AAi?$AAl?$AAe?$AA?3?$AA?5?$AA?$AA@ 1009b934     libucrt:assert.obj
 0002:0001b944       ??_C@_06FIEBOLOH@Line?3?5?$AA@ 1009b944     libucrt:assert.obj
 0002:0001b94c       ??_C@_1O@KCAFKHJE@?$AAL?$AAi?$AAn?$AAe?$AA?3?$AA?5?$AA?$AA@ 1009b94c     libucrt:assert.obj
 0002:0001b95c       ??_C@_0N@MEECIJGN@Expression?3?5?$AA@ 1009b95c     libucrt:assert.obj
 0002:0001b96c       ??_C@_1BK@PEDCIPMA@?$AAE?$AAx?$AAp?$AAr?$AAe?$AAs?$AAs?$AAi?$AAo?$AAn?$AA?3?$AA?5?$AA?$AA@ 1009b96c     libucrt:assert.obj
 0002:0001b990       ??_C@_0HA@OJHAGA@For?5information?5on?5how?5your?5prog@ 1009b990     libucrt:assert.obj
 0002:0001ba18       ??_C@_1OA@EGMLFBHJ@?$AAF?$AAo?$AAr?$AA?5?$AAi?$AAn?$AAf?$AAo?$AAr?$AAm?$AAa?$AAt?$AAi?$AAo?$AAn?$AA?5?$AAo?$AAn?$AA?5?$AAh?$AAo?$AAw?$AA?5?$AAy?$AAo?$AAu?$AAr?$AA?5?$AAp?$AAr?$AAo?$AAg@ 1009ba18     libucrt:assert.obj
 0002:0001bb24       ??_C@_0DN@EBBNMLME@?$CIPress?5Retry?5to?5debug?5the?5applic@ 1009bb24     libucrt:assert.obj
 0002:0001bb70       ??_C@_1HK@POCJMFGK@?$AA?$CI?$AAP?$AAr?$AAe?$AAs?$AAs?$AA?5?$AAR?$AAe?$AAt?$AAr?$AAy?$AA?5?$AAt?$AAo?$AA?5?$AAd?$AAe?$AAb?$AAu?$AAg?$AA?5?$AAt?$AAh?$AAe?$AA?5?$AAa?$AAp?$AAp?$AAl?$AAi?$AAc@ 1009bb70     libucrt:assert.obj
 0002:0001bc04       ??_C@_17LGKOMLJ@?$AA?4?$AA?4?$AA?4?$AA?$AA@ 1009bc04     libucrt:assert.obj
 0002:0001bc10       ??_C@_13LBAGMAIH@?$AA?6?$AA?$AA@ 1009bc10     libucrt:assert.obj
 0002:0001bc14       ??_C@_02PHMGELLB@?6?6?$AA@ 1009bc14     libucrt:assert.obj
 0002:0001bc18       ??_C@_15IABLJNFO@?$AA?6?$AA?6?$AA?$AA@ 1009bc18     libucrt:assert.obj
 0002:0001bc20       ??_C@_0BH@DNAGHKFM@?$DMprogram?5name?5unknown?$DO?$AA@ 1009bc20     libucrt:assert.obj
 0002:0001bc3c       ??_C@_1CO@EAEJAADC@?$AA?$DM?$AAp?$AAr?$AAo?$AAg?$AAr?$AAa?$AAm?$AA?5?$AAn?$AAa?$AAm?$AAe?$AA?5?$AAu?$AAn?$AAk?$AAn?$AAo?$AAw?$AAn?$AA?$DO?$AA?$AA@ 1009bc3c     libucrt:assert.obj
 0002:0001bc74       ??_C@_04FJHINJAO@tanh?$AA@ 1009bc74     libucrt:fpexcept.obj
 0002:0001bc7c       ??_C@_04FIHNOPOL@asin?$AA@ 1009bc7c     libucrt:fpexcept.obj
 0002:0001bc84       ??_C@_04PDIFKINK@acos?$AA@ 1009bc84     libucrt:fpexcept.obj
 0002:0001bc8c       ??_C@_04MLLJIGOK@atan?$AA@ 1009bc8c     libucrt:fpexcept.obj
 0002:0001bc94       ??_C@_05KNGEOGJB@atan2?$AA@ 1009bc94     libucrt:fpexcept.obj
 0002:0001bc9c       ??_C@_04EIAKFFMI@sqrt?$AA@ 1009bc9c     libucrt:fpexcept.obj
 0002:0001bca4       ??_C@_03BLEJJJBH@sin?$AA@  1009bca4     libucrt:fpexcept.obj
 0002:0001bca8       ??_C@_03LALBNOCG@cos?$AA@  1009bca8     libucrt:fpexcept.obj
 0002:0001bcac       ??_C@_03IIINPABG@tan?$AA@  1009bcac     libucrt:fpexcept.obj
 0002:0001bcb0       ??_C@_04GFPJNGEK@ceil?$AA@ 1009bcb0     libucrt:fpexcept.obj
 0002:0001bcb8       ??_C@_05PBJFFIGL@floor?$AA@ 1009bcb8     libucrt:fpexcept.obj
 0002:0001bcc0       ??_C@_04ODHECPBC@fabs?$AA@ 1009bcc0     libucrt:fpexcept.obj
 0002:0001bcc8       ??_C@_04EHEDPDJG@modf?$AA@ 1009bcc8     libucrt:fpexcept.obj
 0002:0001bcd0       ??_C@_05CEJMAHNP@ldexp?$AA@ 1009bcd0     libucrt:fpexcept.obj
 0002:0001bcd8       ??_C@_05KBKMEMPO@_cabs?$AA@ 1009bcd8     libucrt:fpexcept.obj
 0002:0001bce0       ??_C@_06MEIMCGCF@_hypot?$AA@ 1009bce0     libucrt:fpexcept.obj
 0002:0001bce8       ??_C@_04KEPJIHGP@fmod?$AA@ 1009bce8     libucrt:fpexcept.obj
 0002:0001bcf0       ??_C@_05GKKHEGJL@frexp?$AA@ 1009bcf0     libucrt:fpexcept.obj
 0002:0001bcf8       ??_C@_03MJLDFKDL@_y0?$AA@  1009bcf8     libucrt:fpexcept.obj
 0002:0001bcfc       ??_C@_03NAKIGLHK@_y1?$AA@  1009bcfc     libucrt:fpexcept.obj
 0002:0001bd00       ??_C@_03ONILCKOB@_yn?$AA@  1009bd00     libucrt:fpexcept.obj
 0002:0001bd04       ??_C@_05JGDBENOH@_logb?$AA@ 1009bd04     libucrt:fpexcept.obj
 0002:0001bd0c       ??_C@_0L@KDOEJCKC@_nextafter?$AA@ 1009bd0c     libucrt:fpexcept.obj
 0002:0001be38       ??_C@_03KHJOGHMM@exp?$AA@  1009be38     libucrt:fpexcept.obj
 0002:0001be3c       ??_C@_03JGHBODFD@pow?$AA@  1009be3c     libucrt:fpexcept.obj
 0002:0001be40       ??_C@_03MGHMBJCF@log?$AA@  1009be40     libucrt:fpexcept.obj
 0002:0001be44       ??_C@_05HGHHAHAP@log10?$AA@ 1009be44     libucrt:fpexcept.obj
 0002:0001be4c       ??_C@_04COOMCNPB@sinh?$AA@ 1009be4c     libucrt:fpexcept.obj
 0002:0001be54       ??_C@_04HPJJNFIM@cosh?$AA@ 1009be54     libucrt:fpexcept.obj
 0002:0001be60       ___acrt_exception_action_table 1009be60     libucrt:exception_filter.obj
 0002:0001bf0c       ___acrt_signal_action_table_count 1009bf0c     libucrt:exception_filter.obj
 0002:0001bf10       ___acrt_signal_action_table_size 1009bf10     libucrt:exception_filter.obj
 0002:0001bf14       ___acrt_signal_action_first_fpe_index 1009bf14     libucrt:exception_filter.obj
 0002:0001bf18       ___acrt_signal_action_fpe_count 1009bf18     libucrt:exception_filter.obj
 0002:0001bfb0       ??_C@_1BG@HHIFPOEK@?$AAm?$AAs?$AAv?$AAc?$AAr?$AAt?$AA?4?$AAd?$AAl?$AAl?$AA?$AA@ 1009bfb0     libucrt:free_base.obj
 0002:0001bfcc       __Fenv0                    1009bfcc     libucrt:atox.obj
 0002:0001c1e8       ??_C@_1EG@CNNIPFIM@?$AAa?$AAp?$AAi?$AA?9?$AAm?$AAs?$AA?9?$AAw?$AAi?$AAn?$AA?9?$AAa?$AAp?$AAp?$AAm?$AAo?$AAd?$AAe?$AAl?$AA?9?$AAr?$AAu?$AAn?$AAt?$AAi?$AAm?$AAe?$AA?9?$AAl?$AA1?$AA?9?$AA1@ 1009c1e8     libucrt:winapi_thunks.obj
 0002:0001c240       ??_C@_1EA@JGEFHKEI@?$AAa?$AAp?$AAi?$AA?9?$AAm?$AAs?$AA?9?$AAw?$AAi?$AAn?$AA?9?$AAc?$AAo?$AAr?$AAe?$AA?9?$AAd?$AAa?$AAt?$AAe?$AAt?$AAi?$AAm?$AAe?$AA?9?$AAl?$AA1?$AA?9?$AA1?$AA?9?$AA1?$AA?$AA@ 1009c240     libucrt:winapi_thunks.obj
 0002:0001c28c       ??_C@_1DI@GCIAAENM@?$AAa?$AAp?$AAi?$AA?9?$AAm?$AAs?$AA?9?$AAw?$AAi?$AAn?$AA?9?$AAc?$AAo?$AAr?$AAe?$AA?9?$AAf?$AAi?$AAl?$AAe?$AA?9?$AAl?$AA2?$AA?9?$AA1?$AA?9?$AA1?$AA?$AA@ 1009c28c     libucrt:winapi_thunks.obj
 0002:0001c2d0       ??_C@_1EI@MPIAOHOC@?$AAa?$AAp?$AAi?$AA?9?$AAm?$AAs?$AA?9?$AAw?$AAi?$AAn?$AA?9?$AAc?$AAo?$AAr?$AAe?$AA?9?$AAl?$AAo?$AAc?$AAa?$AAl?$AAi?$AAz?$AAa?$AAt?$AAi?$AAo?$AAn?$AA?9?$AAl?$AA1?$AA?9@ 1009c2d0     libucrt:winapi_thunks.obj
 0002:0001c328       ??_C@_1FK@FPHCKFIE@?$AAa?$AAp?$AAi?$AA?9?$AAm?$AAs?$AA?9?$AAw?$AAi?$AAn?$AA?9?$AAc?$AAo?$AAr?$AAe?$AA?9?$AAl?$AAo?$AAc?$AAa?$AAl?$AAi?$AAz?$AAa?$AAt?$AAi?$AAo?$AAn?$AA?9?$AAo?$AAb?$AAs@ 1009c328     libucrt:winapi_thunks.obj
 0002:0001c398       ??_C@_1EM@DILCGIIO@?$AAa?$AAp?$AAi?$AA?9?$AAm?$AAs?$AA?9?$AAw?$AAi?$AAn?$AA?9?$AAc?$AAo?$AAr?$AAe?$AA?9?$AAp?$AAr?$AAo?$AAc?$AAe?$AAs?$AAs?$AAt?$AAh?$AAr?$AAe?$AAa?$AAd?$AAs?$AA?9?$AAl@ 1009c398     libucrt:winapi_thunks.obj
 0002:0001c3f4       ??_C@_1DM@LNCGDDPN@?$AAa?$AAp?$AAi?$AA?9?$AAm?$AAs?$AA?9?$AAw?$AAi?$AAn?$AA?9?$AAc?$AAo?$AAr?$AAe?$AA?9?$AAs?$AAt?$AAr?$AAi?$AAn?$AAg?$AA?9?$AAl?$AA1?$AA?9?$AA1?$AA?9?$AA0?$AA?$AA@ 1009c3f4     libucrt:winapi_thunks.obj
 0002:0001c43c       ??_C@_1DO@FPAPJEMD@?$AAa?$AAp?$AAi?$AA?9?$AAm?$AAs?$AA?9?$AAw?$AAi?$AAn?$AA?9?$AAc?$AAo?$AAr?$AAe?$AA?9?$AAs?$AAy?$AAs?$AAi?$AAn?$AAf?$AAo?$AA?9?$AAl?$AA1?$AA?9?$AA2?$AA?9?$AA1?$AA?$AA@ 1009c43c     libucrt:winapi_thunks.obj
 0002:0001c488       ??_C@_1DK@NDHNAHIO@?$AAa?$AAp?$AAi?$AA?9?$AAm?$AAs?$AA?9?$AAw?$AAi?$AAn?$AA?9?$AAc?$AAo?$AAr?$AAe?$AA?9?$AAw?$AAi?$AAn?$AAr?$AAt?$AA?9?$AAl?$AA1?$AA?9?$AA1?$AA?9?$AA0?$AA?$AA@ 1009c488     libucrt:winapi_thunks.obj
 0002:0001c4d0       ??_C@_1DM@KGHDGBCM@?$AAa?$AAp?$AAi?$AA?9?$AAm?$AAs?$AA?9?$AAw?$AAi?$AAn?$AA?9?$AAc?$AAo?$AAr?$AAe?$AA?9?$AAx?$AAs?$AAt?$AAa?$AAt?$AAe?$AA?9?$AAl?$AA2?$AA?9?$AA1?$AA?9?$AA0?$AA?$AA@ 1009c4d0     libucrt:winapi_thunks.obj
 0002:0001c518       ??_C@_1EO@IJIOEFOH@?$AAa?$AAp?$AAi?$AA?9?$AAm?$AAs?$AA?9?$AAw?$AAi?$AAn?$AA?9?$AAr?$AAt?$AAc?$AAo?$AAr?$AAe?$AA?9?$AAn?$AAt?$AAu?$AAs?$AAe?$AAr?$AA?9?$AAw?$AAi?$AAn?$AAd?$AAo?$AAw?$AA?9@ 1009c518     libucrt:winapi_thunks.obj
 0002:0001c578       ??_C@_1FG@HHGEKANL@?$AAa?$AAp?$AAi?$AA?9?$AAm?$AAs?$AA?9?$AAw?$AAi?$AAn?$AA?9?$AAs?$AAe?$AAc?$AAu?$AAr?$AAi?$AAt?$AAy?$AA?9?$AAs?$AAy?$AAs?$AAt?$AAe?$AAm?$AAf?$AAu?$AAn?$AAc?$AAt?$AAi@ 1009c578     libucrt:winapi_thunks.obj
 0002:0001c5e0       ??_C@_1FG@NCKKOLKO@?$AAe?$AAx?$AAt?$AA?9?$AAm?$AAs?$AA?9?$AAw?$AAi?$AAn?$AA?9?$AAk?$AAe?$AAr?$AAn?$AAe?$AAl?$AA3?$AA2?$AA?9?$AAp?$AAa?$AAc?$AAk?$AAa?$AAg?$AAe?$AA?9?$AAc?$AAu?$AAr?$AAr@ 1009c5e0     libucrt:winapi_thunks.obj
 0002:0001c648       ??_C@_1EG@DBIOJECG@?$AAe?$AAx?$AAt?$AA?9?$AAm?$AAs?$AA?9?$AAw?$AAi?$AAn?$AA?9?$AAn?$AAt?$AAu?$AAs?$AAe?$AAr?$AA?9?$AAd?$AAi?$AAa?$AAl?$AAo?$AAg?$AAb?$AAo?$AAx?$AA?9?$AAl?$AA1?$AA?9?$AA1@ 1009c648     libucrt:winapi_thunks.obj
 0002:0001c6a0       ??_C@_1EO@FIHMJCLF@?$AAe?$AAx?$AAt?$AA?9?$AAm?$AAs?$AA?9?$AAw?$AAi?$AAn?$AA?9?$AAn?$AAt?$AAu?$AAs?$AAe?$AAr?$AA?9?$AAw?$AAi?$AAn?$AAd?$AAo?$AAw?$AAs?$AAt?$AAa?$AAt?$AAi?$AAo?$AAn?$AA?9@ 1009c6a0     libucrt:winapi_thunks.obj
 0002:0001c700       ??_C@_1O@BCCLBEOE@?$AAu?$AAs?$AAe?$AAr?$AA3?$AA2?$AA?$AA@ 1009c700     libucrt:winapi_thunks.obj
 0002:0001c714       ??_C@_0BA@FHFNEAED@AreFileApisANSI?$AA@ 1009c714     libucrt:winapi_thunks.obj
 0002:0001c734       ??_C@_0BA@IHGNDAEB@CompareStringEx?$AA@ 1009c734     libucrt:winapi_thunks.obj
 0002:0001c754       ??_C@_0BE@LJANKFHF@EnumSystemLocalesEx?$AA@ 1009c754     libucrt:winapi_thunks.obj
 0002:0001c7a8       ??_C@_0BA@HNOPNCHB@GetActiveWindow?$AA@ 1009c7a8     libucrt:winapi_thunks.obj
 0002:0001c7c8       ??_C@_0BE@JOGNEJCI@GetCurrentPackageId?$AA@ 1009c7c8     libucrt:winapi_thunks.obj
 0002:0001c7ec       ??_C@_0BA@EPCJIIPD@GetDateFormatEx?$AA@ 1009c7ec     libucrt:winapi_thunks.obj
 0002:0001c80c       ??_C@_0BJ@DIBIJBHA@GetEnabledXStateFeatures?$AA@ 1009c80c     libucrt:winapi_thunks.obj
 0002:0001c838       ??_C@_0BN@NEEHBBPO@GetFileInformationByHandleEx?$AA@ 1009c838     libucrt:winapi_thunks.obj
 0002:0001c868       ??_C@_0BD@HHGDFDBJ@GetLastActivePopup?$AA@ 1009c868     libucrt:winapi_thunks.obj
 0002:0001c88c       ??_C@_0BA@ONOKGCMP@GetLocaleInfoEx?$AA@ 1009c88c     libucrt:winapi_thunks.obj
 0002:0001c8ac       ??_C@_0BI@DFKBFLJE@GetProcessWindowStation?$AA@ 1009c8ac     libucrt:winapi_thunks.obj
 0002:0001c8cc       ??_C@_0BP@FPNJPEJC@GetSystemTimePreciseAsFileTime?$AA@ 1009c8cc     libucrt:winapi_thunks.obj
 0002:0001c900       ??_C@_0BA@CIJJKCJJ@GetTimeFormatEx?$AA@ 1009c900     libucrt:winapi_thunks.obj
 0002:0001c920       ??_C@_0BJ@PBCCBIPI@GetUserDefaultLocaleName?$AA@ 1009c920     libucrt:winapi_thunks.obj
 0002:0001c94c       ??_C@_0BK@DEKFELLI@GetUserObjectInformationW?$AA@ 1009c94c     libucrt:winapi_thunks.obj
 0002:0001c978       ??_C@_0BG@IKLDMBLM@GetXStateFeaturesMask?$AA@ 1009c978     libucrt:winapi_thunks.obj
 0002:0001c9ac       ??_C@_0BC@CELBKLLA@IsValidLocaleName?$AA@ 1009c9ac     libucrt:winapi_thunks.obj
 0002:0001c9d0       ??_C@_0O@KKBNKAPF@LCMapStringEx?$AA@ 1009c9d0     libucrt:winapi_thunks.obj
 0002:0001c9ec       ??_C@_0BB@CDHDDLLP@LCIDToLocaleName?$AA@ 1009c9ec     libucrt:winapi_thunks.obj
 0002:0001ca0c       ??_C@_0BB@HBDEELFH@LocaleNameToLCID?$AA@ 1009ca0c     libucrt:winapi_thunks.obj
 0002:0001ca2c       ??_C@_0BE@KINNKFDA@LocateXStateFeature?$AA@ 1009ca2c     libucrt:winapi_thunks.obj
 0002:0001ca50       ??_C@_0M@CHKKJDAI@MessageBoxA?$AA@ 1009ca50     libucrt:winapi_thunks.obj
 0002:0001ca6c       ??_C@_0M@DLDCCGNP@MessageBoxW?$AA@ 1009ca6c     libucrt:winapi_thunks.obj
 0002:0001ca80       ??_C@_0N@PPOMPGGK@RoInitialize?$AA@ 1009ca80     libucrt:winapi_thunks.obj
 0002:0001ca94       ??_C@_0P@LLFHBIJD@RoUninitialize?$AA@ 1009ca94     libucrt:winapi_thunks.obj
 0002:0001cab4       ??_C@_0BI@BKLFFAPO@SetThreadStackGuarantee?$AA@ 1009cab4     libucrt:winapi_thunks.obj
 0002:0001cadc       ??_C@_0BC@JEAENNKH@SystemFunction036?$AA@ 1009cadc     libucrt:winapi_thunks.obj
 0002:0001caf4       ??_C@_03OEIAHPBN@INF?$AA@  1009caf4     libucrt:cvt.obj
 0002:0001caf8       ??_C@_03OJHLLCGB@inf?$AA@  1009caf8     libucrt:cvt.obj
 0002:0001cafc       ??_C@_03LKNCIKJB@NAN?$AA@  1009cafc     libucrt:cvt.obj
 0002:0001cb00       ??_C@_03LHCJEHON@nan?$AA@  1009cb00     libucrt:cvt.obj
 0002:0001cb04       ??_C@_09OFJJIMPC@NAN?$CISNAN?$CJ?$AA@ 1009cb04     libucrt:cvt.obj
 0002:0001cb10       ??_C@_09IPFBKMDL@nan?$CIsnan?$CJ?$AA@ 1009cb10     libucrt:cvt.obj
 0002:0001cb1c       ??_C@_08IKHNHAJ@NAN?$CIIND?$CJ?$AA@ 1009cb1c     libucrt:cvt.obj
 0002:0001cb28       ??_C@_08OFCDMILK@nan?$CIind?$CJ?$AA@ 1009cb28     libucrt:cvt.obj
 0002:0001cb34       ??_C@_05KLBDPFGC@e?$CL000?$AA@ 1009cb34     libucrt:cvt.obj
 0002:0001cb40       ___lc_category             1009cb40     libucrt:wsetlocale.obj
 0002:0001cb98       ??_C@_1O@GIFLHMA@?$AAL?$AAC?$AA_?$AAA?$AAL?$AAL?$AA?$AA@ 1009cb98     libucrt:wsetlocale.obj
 0002:0001cba8       ??_C@_1BG@PPOMIBNJ@?$AAL?$AAC?$AA_?$AAC?$AAO?$AAL?$AAL?$AAA?$AAT?$AAE?$AA?$AA@ 1009cba8     libucrt:wsetlocale.obj
 0002:0001cbc4       ??_C@_1BC@FFJGAPJM@?$AAL?$AAC?$AA_?$AAC?$AAT?$AAY?$AAP?$AAE?$AA?$AA@ 1009cbc4     libucrt:wsetlocale.obj
 0002:0001cbdc       ??_C@_1BI@PCKFNJFB@?$AAL?$AAC?$AA_?$AAM?$AAO?$AAN?$AAE?$AAT?$AAA?$AAR?$AAY?$AA?$AA@ 1009cbdc     libucrt:wsetlocale.obj
 0002:0001cbf8       ??_C@_1BG@ENIEDKID@?$AAL?$AAC?$AA_?$AAN?$AAU?$AAM?$AAE?$AAR?$AAI?$AAC?$AA?$AA@ 1009cbf8     libucrt:wsetlocale.obj
 0002:0001cc14       ??_C@_1BA@HAAOMIIG@?$AAL?$AAC?$AA_?$AAT?$AAI?$AAM?$AAE?$AA?$AA@ 1009cc14     libucrt:wsetlocale.obj
 0002:0001ccc0       ??_C@_15NBPDDFIP@?$AA?$DN?$AA?$DL?$AA?$AA@ 1009ccc0     libucrt:wsetlocale.obj
 0002:0001ccc8       ??_C@_13PJJBFPED@?$AA?$DL?$AA?$AA@ 1009ccc8     libucrt:wsetlocale.obj
 0002:0001cccc       ??_C@_13NMPKAAJP@?$AA?$DN?$AA?$AA@ 1009cccc     libucrt:wsetlocale.obj
 0002:0001ccd0       ??_C@_13FHBKNHDA@?$AAC?$AA?$AA@ 1009ccd0     libucrt:wsetlocale.obj
 0002:0001ccd4       ??_C@_17MBJJLFDM@?$AA_?$AA?4?$AA?0?$AA?$AA@ 1009ccd4     libucrt:wsetlocale.obj
 0002:0001cce0       ??_C@_13ENNFDPBH@?$AA_?$AA?$AA@ 1009cce0     libucrt:wsetlocale.obj
 0002:0001cce4       ??_C@_13JOFGPIOO@?$AA?4?$AA?$AA@ 1009cce4     libucrt:wsetlocale.obj
 0002:0001cce8       ??_C@_03KOEHGMDN@Sun?$AA@  1009cce8     libucrt:nlsdata.obj
 0002:0001ccec       ??_C@_03PDAGKDH@Mon?$AA@   1009ccec     libucrt:nlsdata.obj
 0002:0001ccf0       ??_C@_03NAGEINEP@Tue?$AA@  1009ccf0     libucrt:nlsdata.obj
 0002:0001ccf4       ??_C@_03MHOMLAJA@Wed?$AA@  1009ccf4     libucrt:nlsdata.obj
 0002:0001ccf8       ??_C@_03IOFIKPDN@Thu?$AA@  1009ccf8     libucrt:nlsdata.obj
 0002:0001ccfc       ??_C@_03IDIOELNC@Fri?$AA@  1009ccfc     libucrt:nlsdata.obj
 0002:0001cd00       ??_C@_03FEFJNEK@Sat?$AA@   1009cd00     libucrt:nlsdata.obj
 0002:0001cd04       ??_C@_06OOPIFAJ@Sunday?$AA@ 1009cd04     libucrt:nlsdata.obj
 0002:0001cd0c       ??_C@_06JLEDEDGH@Monday?$AA@ 1009cd0c     libucrt:nlsdata.obj
 0002:0001cd14       ??_C@_07BAAGCFCM@Tuesday?$AA@ 1009cd14     libucrt:nlsdata.obj
 0002:0001cd20       ??_C@_09DLIGFAKA@Wednesday?$AA@ 1009cd20     libucrt:nlsdata.obj
 0002:0001cd2c       ??_C@_08HACCIKIA@Thursday?$AA@ 1009cd2c     libucrt:nlsdata.obj
 0002:0001cd38       ??_C@_06JECMNKMI@Friday?$AA@ 1009cd38     libucrt:nlsdata.obj
 0002:0001cd40       ??_C@_08INBOOONO@Saturday?$AA@ 1009cd40     libucrt:nlsdata.obj
 0002:0001cd4c       ??_C@_03JIHJHPIE@Jan?$AA@  1009cd4c     libucrt:nlsdata.obj
 0002:0001cd50       ??_C@_03HJBDCHOM@Feb?$AA@  1009cd50     libucrt:nlsdata.obj
 0002:0001cd54       ??_C@_03ODNJBKGA@Mar?$AA@  1009cd54     libucrt:nlsdata.obj
 0002:0001cd58       ??_C@_03LEOLGMJP@Apr?$AA@  1009cd58     libucrt:nlsdata.obj
 0002:0001cd5c       ??_C@_03CNMDKL@May?$AA@    1009cd5c     libucrt:nlsdata.obj
 0002:0001cd60       ??_C@_03IDFGHECI@Jun?$AA@  1009cd60     libucrt:nlsdata.obj
 0002:0001cd64       ??_C@_03LBGABGKK@Jul?$AA@  1009cd64     libucrt:nlsdata.obj
 0002:0001cd68       ??_C@_03IFJFEIGA@Aug?$AA@  1009cd68     libucrt:nlsdata.obj
 0002:0001cd6c       ??_C@_03GGCAPAJC@Sep?$AA@  1009cd6c     libucrt:nlsdata.obj
 0002:0001cd70       ??_C@_03BMAOKBAD@Oct?$AA@  1009cd70     libucrt:nlsdata.obj
 0002:0001cd74       ??_C@_03JPJOFNIA@Nov?$AA@  1009cd74     libucrt:nlsdata.obj
 0002:0001cd78       ??_C@_03MKABNOCG@Dec?$AA@  1009cd78     libucrt:nlsdata.obj
 0002:0001cd7c       ??_C@_07CGJPFGJA@January?$AA@ 1009cd7c     libucrt:nlsdata.obj
 0002:0001cd88       ??_C@_08GNJGEPFN@February?$AA@ 1009cd88     libucrt:nlsdata.obj
 0002:0001cd94       ??_C@_05HPCKOFNC@March?$AA@ 1009cd94     libucrt:nlsdata.obj
 0002:0001cd9c       ??_C@_05DMJDNLEJ@April?$AA@ 1009cd9c     libucrt:nlsdata.obj
 0002:0001cda4       ??_C@_04CNLMGBGM@June?$AA@ 1009cda4     libucrt:nlsdata.obj
 0002:0001cdac       ??_C@_04MIEPOIFP@July?$AA@ 1009cdac     libucrt:nlsdata.obj
 0002:0001cdb4       ??_C@_06LBBHFDDG@August?$AA@ 1009cdb4     libucrt:nlsdata.obj
 0002:0001cdbc       ??_C@_09BHHEALKD@September?$AA@ 1009cdbc     libucrt:nlsdata.obj
 0002:0001cdc8       ??_C@_07JJNFCEND@October?$AA@ 1009cdc8     libucrt:nlsdata.obj
 0002:0001cdd4       ??_C@_08HCHEGEOA@November?$AA@ 1009cdd4     libucrt:nlsdata.obj
 0002:0001cde0       ??_C@_08EDHMEBNP@December?$AA@ 1009cde0     libucrt:nlsdata.obj
 0002:0001cdec       ??_C@_02DEDBPAFC@AM?$AA@   1009cdec     libucrt:nlsdata.obj
 0002:0001cdf0       ??_C@_02CJNFDJBF@PM?$AA@   1009cdf0     libucrt:nlsdata.obj
 0002:0001cdf4       ??_C@_08BPBNCDIB@MM?1dd?1yy?$AA@ 1009cdf4     libucrt:nlsdata.obj
 0002:0001ce00       ??_C@_0BE@CKGJFCPC@dddd?0?5MMMM?5dd?0?5yyyy?$AA@ 1009ce00     libucrt:nlsdata.obj
 0002:0001ce18       ??_C@_08JCCMCCIL@HH?3mm?3ss?$AA@ 1009ce18     libucrt:nlsdata.obj
 0002:0001ce24       ??_C@_17MBGCMIPB@?$AAS?$AAu?$AAn?$AA?$AA@ 1009ce24     libucrt:nlsdata.obj
 0002:0001ce30       ??_C@_17KBOMKBF@?$AAM?$AAo?$AAn?$AA?$AA@ 1009ce30     libucrt:nlsdata.obj
 0002:0001ce3c       ??_C@_17BMKGEGOJ@?$AAT?$AAu?$AAe?$AA?$AA@ 1009ce3c     libucrt:nlsdata.obj
 0002:0001ce48       ??_C@_17CJEDCEPE@?$AAW?$AAe?$AAd?$AA?$AA@ 1009ce48     libucrt:nlsdata.obj
 0002:0001ce54       ??_C@_17PDPHAADD@?$AAT?$AAh?$AAu?$AA?$AA@ 1009ce54     libucrt:nlsdata.obj
 0002:0001ce60       ??_C@_17HFOLPPLP@?$AAF?$AAr?$AAi?$AA?$AA@ 1009ce60     libucrt:nlsdata.obj
 0002:0001ce6c       ??_C@_17GGIBDPIH@?$AAS?$AAa?$AAt?$AA?$AA@ 1009ce6c     libucrt:nlsdata.obj
 0002:0001ce78       ??_C@_1O@IHNHDHPB@?$AAS?$AAu?$AAn?$AAd?$AAa?$AAy?$AA?$AA@ 1009ce78     libucrt:nlsdata.obj
 0002:0001ce88       ??_C@_1O@MMNBFLIA@?$AAM?$AAo?$AAn?$AAd?$AAa?$AAy?$AA?$AA@ 1009ce88     libucrt:nlsdata.obj
 0002:0001ce98       ??_C@_1BA@ENFBFFEK@?$AAT?$AAu?$AAe?$AAs?$AAd?$AAa?$AAy?$AA?$AA@ 1009ce98     libucrt:nlsdata.obj
 0002:0001ceac       ??_C@_1BE@EBOGMDOH@?$AAW?$AAe?$AAd?$AAn?$AAe?$AAs?$AAd?$AAa?$AAy?$AA?$AA@ 1009ceac     libucrt:nlsdata.obj
 0002:0001cec4       ??_C@_1BC@HHMNLIHE@?$AAT?$AAh?$AAu?$AAr?$AAs?$AAd?$AAa?$AAy?$AA?$AA@ 1009cec4     libucrt:nlsdata.obj
 0002:0001cedc       ??_C@_1O@PDICJHAG@?$AAF?$AAr?$AAi?$AAd?$AAa?$AAy?$AA?$AA@ 1009cedc     libucrt:nlsdata.obj
 0002:0001ceec       ??_C@_1BC@ENMNNPAJ@?$AAS?$AAa?$AAt?$AAu?$AAr?$AAd?$AAa?$AAy?$AA?$AA@ 1009ceec     libucrt:nlsdata.obj
 0002:0001cf04       ??_C@_17DKNBKCHM@?$AAJ?$AAa?$AAn?$AA?$AA@ 1009cf04     libucrt:nlsdata.obj
 0002:0001cf10       ??_C@_17LMDJEKJN@?$AAF?$AAe?$AAb?$AA?$AA@ 1009cf10     libucrt:nlsdata.obj
 0002:0001cf1c       ??_C@_17CKNLEDEC@?$AAM?$AAa?$AAr?$AA?$AA@ 1009cf1c     libucrt:nlsdata.obj
 0002:0001cf28       ??_C@_17LFPOIHDD@?$AAA?$AAp?$AAr?$AA?$AA@ 1009cf28     libucrt:nlsdata.obj
 0002:0001cf34       ??_C@_17PNNKMEED@?$AAM?$AAa?$AAy?$AA?$AA@ 1009cf34     libucrt:nlsdata.obj
 0002:0001cf40       ??_C@_17KCJGOCPB@?$AAJ?$AAu?$AAn?$AA?$AA@ 1009cf40     libucrt:nlsdata.obj
 0002:0001cf4c       ??_C@_17IJPCKHK@?$AAJ?$AAu?$AAl?$AA?$AA@ 1009cf4c     libucrt:nlsdata.obj
 0002:0001cf58       ??_C@_17ICPELBCN@?$AAA?$AAu?$AAg?$AA?$AA@ 1009cf58     libucrt:nlsdata.obj
 0002:0001cf64       ??_C@_17HCHCOKMG@?$AAS?$AAe?$AAp?$AA?$AA@ 1009cf64     libucrt:nlsdata.obj
 0002:0001cf70       ??_C@_17FNLKOI@?$AAO?$AAc?$AAt?$AA?$AA@ 1009cf70     libucrt:nlsdata.obj
 0002:0001cf7c       ??_C@_17BBDMLCIG@?$AAN?$AAo?$AAv?$AA?$AA@ 1009cf7c     libucrt:nlsdata.obj
 0002:0001cf88       ??_C@_17EGKACKIF@?$AAD?$AAe?$AAc?$AA?$AA@ 1009cf88     libucrt:nlsdata.obj
 0002:0001cf94       ??_C@_1BA@EFMEIEBA@?$AAJ?$AAa?$AAn?$AAu?$AAa?$AAr?$AAy?$AA?$AA@ 1009cf94     libucrt:nlsdata.obj
 0002:0001cfa8       ??_C@_1BC@JGDDFFAM@?$AAF?$AAe?$AAb?$AAr?$AAu?$AAa?$AAr?$AAy?$AA?$AA@ 1009cfa8     libucrt:nlsdata.obj
 0002:0001cfc0       ??_C@_1M@IKEENEDF@?$AAM?$AAa?$AAr?$AAc?$AAh?$AA?$AA@ 1009cfc0     libucrt:nlsdata.obj
 0002:0001cfd0       ??_C@_1M@GJNLMHFD@?$AAA?$AAp?$AAr?$AAi?$AAl?$AA?$AA@ 1009cfd0     libucrt:nlsdata.obj
 0002:0001cfe0       ??_C@_19EPFLPGAP@?$AAJ?$AAu?$AAn?$AAe?$AA?$AA@ 1009cfe0     libucrt:nlsdata.obj
 0002:0001cfec       ??_C@_19BIFMLPCD@?$AAJ?$AAu?$AAl?$AAy?$AA?$AA@ 1009cfec     libucrt:nlsdata.obj
 0002:0001cff8       ??_C@_1O@PAHLKOAC@?$AAA?$AAu?$AAg?$AAu?$AAs?$AAt?$AA?$AA@ 1009cff8     libucrt:nlsdata.obj
 0002:0001d008       ??_C@_1BE@DKAAMBJL@?$AAS?$AAe?$AAp?$AAt?$AAe?$AAm?$AAb?$AAe?$AAr?$AA?$AA@ 1009d008     libucrt:nlsdata.obj
 0002:0001d020       ??_C@_1BA@EPANDLNG@?$AAO?$AAc?$AAt?$AAo?$AAb?$AAe?$AAr?$AA?$AA@ 1009d020     libucrt:nlsdata.obj
 0002:0001d034       ??_C@_1BC@BGLIFPF@?$AAN?$AAo?$AAv?$AAe?$AAm?$AAb?$AAe?$AAr?$AA?$AA@ 1009d034     libucrt:nlsdata.obj
 0002:0001d04c       ??_C@_1BC@FEMKIFH@?$AAD?$AAe?$AAc?$AAe?$AAm?$AAb?$AAe?$AAr?$AA?$AA@ 1009d04c     libucrt:nlsdata.obj
 0002:0001d064       ??_C@_15ODEHAHHF@?$AAA?$AAM?$AA?$AA@ 1009d064     libucrt:nlsdata.obj
 0002:0001d06c       ??_C@_15CLMNNGEL@?$AAP?$AAM?$AA?$AA@ 1009d06c     libucrt:nlsdata.obj
 0002:0001d074       ??_C@_1BC@IEBCMHCM@?$AAM?$AAM?$AA?1?$AAd?$AAd?$AA?1?$AAy?$AAy?$AA?$AA@ 1009d074     libucrt:nlsdata.obj
 0002:0001d08c       ??_C@_1CI@KNAKOEBC@?$AAd?$AAd?$AAd?$AAd?$AA?0?$AA?5?$AAM?$AAM?$AAM?$AAM?$AA?5?$AAd?$AAd?$AA?0?$AA?5?$AAy?$AAy?$AAy?$AAy?$AA?$AA@ 1009d08c     libucrt:nlsdata.obj
 0002:0001d0bc       ??_C@_1BC@GDGBMEMK@?$AAH?$AAH?$AA?3?$AAm?$AAm?$AA?3?$AAs?$AAs?$AA?$AA@ 1009d0bc     libucrt:nlsdata.obj
 0002:0001d0d4       ??_C@_1M@BMHNFIME@?$AAe?$AAn?$AA?9?$AAU?$AAS?$AA?$AA@ 1009d0d4     libucrt:nlsdata.obj
 0002:0001d0e8       ___lc_time_c               1009d0e8     libucrt:nlsdata.obj
 0002:0001d2e0       __indefinite               1009d2e0     libucrt:87disp.obj
 0002:0001d2ea       __piby2                    1009d2ea     libucrt:87disp.obj
 0002:0001d2f4       __piby4                    1009d2f4     libucrt:87disp.obj
 0002:0001d330       ___acrt_pow_rcp_t1         1009d330     libucrt:pow_tables.obj
 0002:0001d810       ___acrt_pow_log2_t1        1009d810     libucrt:pow_tables.obj
 0002:0001e1c0       ___acrt_pow_rcp_t2         1009e1c0     libucrt:pow_tables.obj
 0002:0001e6a0       ___acrt_pow_log2_t2        1009e6a0     libucrt:pow_tables.obj
 0002:0001f050       ___acrt_pow_rcp_t3         1009f050     libucrt:pow_tables.obj
 0002:0001fa00       ___acrt_pow_log2_t3        1009fa00     libucrt:pow_tables.obj
 0002:00020d50       ___acrt_pow_clv            100a0d50     libucrt:pow_tables.obj
 0002:00020d80       ___acrt_pow_exp2_tbl       100a0d80     libucrt:pow_tables.obj
 0002:0002171c       ?ccs@?BL@???$__acrt_stdio_parse_mode@D@@YA?AU__acrt_stdio_stream_mode@@QBD@Z@4QBDB 100a171c     libucrt:openfile.obj
 0002:00021720       ?utf8_encoding@?BL@???$__acrt_stdio_parse_mode@D@@YA?AU__acrt_stdio_stream_mode@@QBD@Z@4QBDB 100a1720     libucrt:openfile.obj
 0002:00021728       ?utf16_encoding@?BL@???$__acrt_stdio_parse_mode@D@@YA?AU__acrt_stdio_stream_mode@@QBD@Z@4QBDB 100a1728     libucrt:openfile.obj
 0002:00021734       ?unicode_encoding@?BL@???$__acrt_stdio_parse_mode@D@@YA?AU__acrt_stdio_stream_mode@@QBD@Z@4QBDB 100a1734     libucrt:openfile.obj
 0002:0002173c       ?ccs@?BL@???$__acrt_stdio_parse_mode@_W@@YA?AU__acrt_stdio_stream_mode@@QB_W@Z@4QB_WB 100a173c     libucrt:openfile.obj
 0002:00021744       ?utf8_encoding@?BL@???$__acrt_stdio_parse_mode@_W@@YA?AU__acrt_stdio_stream_mode@@QB_W@Z@4QB_WB 100a1744     libucrt:openfile.obj
 0002:00021750       ?utf16_encoding@?BL@???$__acrt_stdio_parse_mode@_W@@YA?AU__acrt_stdio_stream_mode@@QB_W@Z@4QB_WB 100a1750     libucrt:openfile.obj
 0002:00021764       ?unicode_encoding@?BL@???$__acrt_stdio_parse_mode@_W@@YA?AU__acrt_stdio_stream_mode@@QB_W@Z@4QB_WB 100a1764     libucrt:openfile.obj
 0002:00021778       __d_inf                    100a1778     libucrt:util.obj
 0002:00021788       __d_ind                    100a1788     libucrt:util.obj
 0002:00021798       __d_max                    100a1798     libucrt:util.obj
 0002:000217a8       __d_min                    100a17a8     libucrt:util.obj
 0002:000217b8       __d_mzero                  100a17b8     libucrt:util.obj
 0002:000217e4       ??_C@_1DE@JNGNBFGO@?$AAR?$AAu?$AAn?$AAt?$AAi?$AAm?$AAe?$AA?5?$AAE?$AAr?$AAr?$AAo?$AAr?$AA?$CB?$AA?6?$AA?6?$AAP?$AAr?$AAo?$AAg?$AAr?$AAa?$AAm?$AA?3?$AA?5?$AA?$AA@ 100a17e4     libucrt:report_runtime_error.obj
 0002:00021838       ??_C@_1M@HPNHIDJI@?$AAj?$AAa?$AA?9?$AAJ?$AAP?$AA?$AA@ 100a1838     libucrt:mbctype.obj
 0002:00021848       ??_C@_1M@BIBDDEMK@?$AAz?$AAh?$AA?9?$AAC?$AAN?$AA?$AA@ 100a1848     libucrt:mbctype.obj
 0002:00021858       ??_C@_1M@JLOOOEGK@?$AAk?$AAo?$AA?9?$AAK?$AAR?$AA?$AA@ 100a1858     libucrt:mbctype.obj
 0002:00021868       ??_C@_1M@CLNBBOPM@?$AAz?$AAh?$AA?9?$AAT?$AAW?$AA?$AA@ 100a1868     libucrt:mbctype.obj
 0002:00021878       __wctype                   100a1878     libucrt:ctype.obj
 0002:00021ae8       ___newctype                100a1ae8     libucrt:ctype.obj
 0002:00021e88       ___newclmap                100a1e88     libucrt:ctype.obj
 0002:00022058       ___newcumap                100a2058     libucrt:ctype.obj
 0002:00022ab4       ??_C@_15EMKDOKLE@?$AAa?$AAr?$AA?$AA@ 100a2ab4     libucrt:lcidtoname_downlevel.obj
 0002:00022abc       ??_C@_15KNPADPLH@?$AAb?$AAg?$AA?$AA@ 100a2abc     libucrt:lcidtoname_downlevel.obj
 0002:00022ac4       ??_C@_15EDMHLDMO@?$AAc?$AAa?$AA?$AA@ 100a2ac4     libucrt:lcidtoname_downlevel.obj
 0002:00022acc       ??_C@_1O@BPEAJADD@?$AAz?$AAh?$AA?9?$AAC?$AAH?$AAS?$AA?$AA@ 100a2acc     libucrt:lcidtoname_downlevel.obj
 0002:00022adc       ??_C@_15LJNHCMNK@?$AAc?$AAs?$AA?$AA@ 100a2adc     libucrt:lcidtoname_downlevel.obj
 0002:00022ae4       ??_C@_15FOMCIDHG@?$AAd?$AAa?$AA?$AA@ 100a2ae4     libucrt:lcidtoname_downlevel.obj
 0002:00022aec       ??_C@_15NBKABECB@?$AAd?$AAe?$AA?$AA@ 100a2aec     libucrt:lcidtoname_downlevel.obj
 0002:00022af4       ??_C@_15GHPEIIAO@?$AAe?$AAl?$AA?$AA@ 100a2af4     libucrt:lcidtoname_downlevel.obj
 0002:00022afc       ??_C@_15MNPNEAIF@?$AAe?$AAn?$AA?$AA@ 100a2afc     libucrt:lcidtoname_downlevel.obj
 0002:00022b04       ??_C@_15GPIOMPMH@?$AAe?$AAs?$AA?$AA@ 100a2b04     libucrt:lcidtoname_downlevel.obj
 0002:00022b0c       ??_C@_15NGLOAKJC@?$AAf?$AAi?$AA?$AA@ 100a2b0c     libucrt:lcidtoname_downlevel.obj
 0002:00022b14       ??_C@_15FBKGNKAM@?$AAf?$AAr?$AA?$AA@ 100a2b14     libucrt:lcidtoname_downlevel.obj
 0002:00022b1c       ??_C@_15KGGCNEFK@?$AAh?$AAe?$AA?$AA@ 100a2b1c     libucrt:lcidtoname_downlevel.obj
 0002:00022b24       ??_C@_15PGHLIDMF@?$AAh?$AAu?$AA?$AA@ 100a2b24     libucrt:lcidtoname_downlevel.obj
 0002:00022b2c       ??_C@_15BIEMAPLM@?$AAi?$AAs?$AA?$AA@ 100a2b2c     libucrt:lcidtoname_downlevel.obj
 0002:00022b34       ??_C@_15IFJLDHAF@?$AAi?$AAt?$AA?$AA@ 100a2b34     libucrt:lcidtoname_downlevel.obj
 0002:00022b3c       ??_C@_15GEMIOCAG@?$AAj?$AAa?$AA?$AA@ 100a2b3c     libucrt:lcidtoname_downlevel.obj
 0002:00022b44       ??_C@_15EPELEGJA@?$AAk?$AAo?$AA?$AA@ 100a2b44     libucrt:lcidtoname_downlevel.obj
 0002:00022b4c       ??_C@_15NDDHIMN@?$AAn?$AAl?$AA?$AA@ 100a2b4c     libucrt:lcidtoname_downlevel.obj
 0002:00022b54       ??_C@_15BPIGNHCD@?$AAn?$AAo?$AA?$AA@ 100a2b54     libucrt:lcidtoname_downlevel.obj
 0002:00022b5c       ??_C@_15DEOPBLCG@?$AAp?$AAl?$AA?$AA@ 100a2b5c     libucrt:lcidtoname_downlevel.obj
 0002:00022b64       ??_C@_15KBECGEFG@?$AAp?$AAt?$AA?$AA@ 100a2b64     libucrt:lcidtoname_downlevel.obj
 0002:00022b6c       ??_C@_15GLJCBFMD@?$AAr?$AAo?$AA?$AA@ 100a2b6c     libucrt:lcidtoname_downlevel.obj
 0002:00022b74       ??_C@_15FEDGKCDI@?$AAr?$AAu?$AA?$AA@ 100a2b74     libucrt:lcidtoname_downlevel.obj
 0002:00022b7c       ??_C@_15GLKMLLHM@?$AAh?$AAr?$AA?$AA@ 100a2b7c     libucrt:lcidtoname_downlevel.obj
 0002:00022b84       ??_C@_15CPKMFBDB@?$AAs?$AAk?$AA?$AA@ 100a2b84     libucrt:lcidtoname_downlevel.obj
 0002:00022b8c       ??_C@_15BAAIOGMK@?$AAs?$AAq?$AA?$AA@ 100a2b8c     libucrt:lcidtoname_downlevel.obj
 0002:00022b94       ??_C@_15INNPNOHD@?$AAs?$AAv?$AA?$AA@ 100a2b94     libucrt:lcidtoname_downlevel.obj
 0002:00022b9c       ??_C@_15CABMMOGH@?$AAt?$AAh?$AA?$AA@ 100a2b9c     libucrt:lcidtoname_downlevel.obj
 0002:00022ba4       ??_C@_15BPLIHJJM@?$AAt?$AAr?$AA?$AA@ 100a2ba4     libucrt:lcidtoname_downlevel.obj
 0002:00022bac       ??_C@_15NEOEKKDJ@?$AAu?$AAr?$AA?$AA@ 100a2bac     libucrt:lcidtoname_downlevel.obj
 0002:00022bb4       ??_C@_15NFICGAJK@?$AAi?$AAd?$AA?$AA@ 100a2bb4     libucrt:lcidtoname_downlevel.obj
 0002:00022bbc       ??_C@_15PJPFLCCM@?$AAu?$AAk?$AA?$AA@ 100a2bbc     libucrt:lcidtoname_downlevel.obj
 0002:00022bc4       ??_C@_15HPJPHDM@?$AAb?$AAe?$AA?$AA@ 100a2bc4     libucrt:lcidtoname_downlevel.obj
 0002:00022bcc       ??_C@_15LCHLGJII@?$AAs?$AAl?$AA?$AA@ 100a2bcc     libucrt:lcidtoname_downlevel.obj
 0002:00022bd4       ??_C@_15PCFJPHHO@?$AAe?$AAt?$AA?$AA@ 100a2bd4     libucrt:lcidtoname_downlevel.obj
 0002:00022bdc       ??_C@_15HPFPGODN@?$AAl?$AAv?$AA?$AA@ 100a2bdc     libucrt:lcidtoname_downlevel.obj
 0002:00022be4       ??_C@_15NFFGKGLG@?$AAl?$AAt?$AA?$AA@ 100a2be4     libucrt:lcidtoname_downlevel.obj
 0002:00022bec       ??_C@_15BDAKCCHN@?$AAf?$AAa?$AA?$AA@ 100a2bec     libucrt:lcidtoname_downlevel.obj
 0002:00022bf4       ??_C@_15NFGIAIAJ@?$AAv?$AAi?$AA?$AA@ 100a2bf4     libucrt:lcidtoname_downlevel.obj
 0002:00022bfc       ??_C@_15LMKNDMHN@?$AAh?$AAy?$AA?$AA@ 100a2bfc     libucrt:lcidtoname_downlevel.obj
 0002:00022c04       ??_C@_15IJBHMCFL@?$AAa?$AAz?$AA?$AA@ 100a2c04     libucrt:lcidtoname_downlevel.obj
 0002:00022c0c       ??_C@_15EKOFJABL@?$AAe?$AAu?$AA?$AA@ 100a2c0c     libucrt:lcidtoname_downlevel.obj
 0002:00022c14       ??_C@_15BGHADCNK@?$AAm?$AAk?$AA?$AA@ 100a2c14     libucrt:lcidtoname_downlevel.obj
 0002:00022c1c       ??_C@_15JDNICKHM@?$AAa?$AAf?$AA?$AA@ 100a2c1c     libucrt:lcidtoname_downlevel.obj
 0002:00022c24       ??_C@_15KPJEDBKD@?$AAk?$AAa?$AA?$AA@ 100a2c24     libucrt:lcidtoname_downlevel.obj
 0002:00022c2c       ??_C@_15PDNFFFEO@?$AAf?$AAo?$AA?$AA@ 100a2c2c     libucrt:lcidtoname_downlevel.obj
 0002:00022c34       ??_C@_15OMLEGLOC@?$AAh?$AAi?$AA?$AA@ 100a2c34     libucrt:lcidtoname_downlevel.obj
 0002:00022c3c       ??_C@_15IDNNENKK@?$AAm?$AAs?$AA?$AA@ 100a2c3c     libucrt:lcidtoname_downlevel.obj
 0002:00022c44       ??_C@_15MACJNBMH@?$AAk?$AAk?$AA?$AA@ 100a2c44     libucrt:lcidtoname_downlevel.obj
 0002:00022c4c       ??_C@_15DKDJEOND@?$AAk?$AAy?$AA?$AA@ 100a2c4c     libucrt:lcidtoname_downlevel.obj
 0002:00022c54       ??_C@_15DFGDLJBG@?$AAs?$AAw?$AA?$AA@ 100a2c54     libucrt:lcidtoname_downlevel.obj
 0002:00022c5c       ??_C@_15BBFAICNG@?$AAu?$AAz?$AA?$AA@ 100a2c5c     libucrt:lcidtoname_downlevel.obj
 0002:00022c64       ??_C@_15DKNDCGEA@?$AAt?$AAt?$AA?$AA@ 100a2c64     libucrt:lcidtoname_downlevel.obj
 0002:00022c6c       ??_C@_15MGIFMDPL@?$AAp?$AAa?$AA?$AA@ 100a2c6c     libucrt:lcidtoname_downlevel.obj
 0002:00022c74       ??_C@_15HCNDBBA@?$AAg?$AAu?$AA?$AA@ 100a2c74     libucrt:lcidtoname_downlevel.obj
 0002:00022c7c       ??_C@_15FNBEIBON@?$AAt?$AAa?$AA?$AA@ 100a2c7c     libucrt:lcidtoname_downlevel.obj
 0002:00022c84       ??_C@_15NCHGBGLK@?$AAt?$AAe?$AA?$AA@ 100a2c84     libucrt:lcidtoname_downlevel.obj
 0002:00022c8c       ??_C@_15PHPHCBPF@?$AAk?$AAn?$AA?$AA@ 100a2c8c     libucrt:lcidtoname_downlevel.obj
 0002:00022c94       ??_C@_15DLGBCKMP@?$AAm?$AAr?$AA?$AA@ 100a2c94     libucrt:lcidtoname_downlevel.obj
 0002:00022c9c       ??_C@_15EABBLBFF@?$AAs?$AAa?$AA?$AA@ 100a2c9c     libucrt:lcidtoname_downlevel.obj
 0002:00022ca4       ??_C@_15CBKOMCOI@?$AAm?$AAn?$AA?$AA@ 100a2ca4     libucrt:lcidtoname_downlevel.obj
 0002:00022cac       ??_C@_15CKDMCJAF@?$AAg?$AAl?$AA?$AA@ 100a2cac     libucrt:lcidtoname_downlevel.obj
 0002:00022cb4       ??_C@_17CNJFBPG@?$AAk?$AAo?$AAk?$AA?$AA@ 100a2cb4     libucrt:lcidtoname_downlevel.obj
 0002:00022cc0       ??_C@_17FFBJICPL@?$AAs?$AAy?$AAr?$AA?$AA@ 100a2cc0     libucrt:lcidtoname_downlevel.obj
 0002:00022ccc       ??_C@_17KPNDCPAF@?$AAd?$AAi?$AAv?$AA?$AA@ 100a2ccc     libucrt:lcidtoname_downlevel.obj
 0002:00022cd8       ??_C@_11LOCGONAA@?$AA?$AA@ 100a2cd8     libucrt:lcidtoname_downlevel.obj
 0002:00022cdc       ??_C@_1M@OKAHONE@?$AAa?$AAr?$AA?9?$AAS?$AAA?$AA?$AA@ 100a2cdc     libucrt:lcidtoname_downlevel.obj
 0002:00022cec       ??_C@_1M@FFFIGIGK@?$AAb?$AAg?$AA?9?$AAB?$AAG?$AA?$AA@ 100a2cec     libucrt:lcidtoname_downlevel.obj
 0002:00022cfc       ??_C@_1M@BJNKEDC@?$AAc?$AAa?$AA?9?$AAE?$AAS?$AA?$AA@ 100a2cfc     libucrt:lcidtoname_downlevel.obj
 0002:00022d0c       ??_C@_1M@IJJHFJHA@?$AAc?$AAs?$AA?9?$AAC?$AAZ?$AA?$AA@ 100a2d0c     libucrt:lcidtoname_downlevel.obj
 0002:00022d1c       ??_C@_1M@CLPEOBGI@?$AAd?$AAa?$AA?9?$AAD?$AAK?$AA?$AA@ 100a2d1c     libucrt:lcidtoname_downlevel.obj
 0002:00022d2c       ??_C@_1M@MCMADGCB@?$AAd?$AAe?$AA?9?$AAD?$AAE?$AA?$AA@ 100a2d2c     libucrt:lcidtoname_downlevel.obj
 0002:00022d3c       ??_C@_1M@OOCKEMAM@?$AAe?$AAl?$AA?9?$AAG?$AAR?$AA?$AA@ 100a2d3c     libucrt:lcidtoname_downlevel.obj
 0002:00022d4c       ??_C@_1M@DDNJFGID@?$AAf?$AAi?$AA?9?$AAF?$AAI?$AA?$AA@ 100a2d4c     libucrt:lcidtoname_downlevel.obj
 0002:00022d5c       ??_C@_1M@GLIPPMAC@?$AAf?$AAr?$AA?9?$AAF?$AAR?$AA?$AA@ 100a2d5c     libucrt:lcidtoname_downlevel.obj
 0002:00022d6c       ??_C@_1M@GFMCHPE@?$AAh?$AAe?$AA?9?$AAI?$AAL?$AA?$AA@ 100a2d6c     libucrt:lcidtoname_downlevel.obj
 0002:00022d7c       ??_C@_1M@MHLPGNKM@?$AAh?$AAu?$AA?9?$AAH?$AAU?$AA?$AA@ 100a2d7c     libucrt:lcidtoname_downlevel.obj
 0002:00022d8c       ??_C@_1M@LPDDNNPN@?$AAi?$AAs?$AA?9?$AAI?$AAS?$AA?$AA@ 100a2d8c     libucrt:lcidtoname_downlevel.obj
 0002:00022d9c       ??_C@_1M@MADIPODN@?$AAi?$AAt?$AA?9?$AAI?$AAT?$AA?$AA@ 100a2d9c     libucrt:lcidtoname_downlevel.obj
 0002:00022dac       ??_C@_1M@IHBJJGG@?$AAn?$AAl?$AA?9?$AAN?$AAL?$AA?$AA@ 100a2dac     libucrt:lcidtoname_downlevel.obj
 0002:00022dbc       ??_C@_1M@EANAGDL@?$AAn?$AAb?$AA?9?$AAN?$AAO?$AA?$AA@ 100a2dbc     libucrt:lcidtoname_downlevel.obj
 0002:00022dcc       ??_C@_1M@NEIEMEGP@?$AAp?$AAl?$AA?9?$AAP?$AAL?$AA?$AA@ 100a2dcc     libucrt:lcidtoname_downlevel.obj
 0002:00022ddc       ??_C@_1M@BOCFIGEP@?$AAp?$AAt?$AA?9?$AAB?$AAR?$AA?$AA@ 100a2ddc     libucrt:lcidtoname_downlevel.obj
 0002:00022dec       ??_C@_1M@IMPFOPBG@?$AAr?$AAo?$AA?9?$AAR?$AAO?$AA?$AA@ 100a2dec     libucrt:lcidtoname_downlevel.obj
 0002:00022dfc       ??_C@_1M@IDNNEJMM@?$AAr?$AAu?$AA?9?$AAR?$AAU?$AA?$AA@ 100a2dfc     libucrt:lcidtoname_downlevel.obj
 0002:00022e0c       ??_C@_1M@LILEEOGM@?$AAh?$AAr?$AA?9?$AAH?$AAR?$AA?$AA@ 100a2e0c     libucrt:lcidtoname_downlevel.obj
 0002:00022e1c       ??_C@_1M@FKIFEHPB@?$AAs?$AAk?$AA?9?$AAS?$AAK?$AA?$AA@ 100a2e1c     libucrt:lcidtoname_downlevel.obj
 0002:00022e2c       ??_C@_1M@LJMAMNPJ@?$AAs?$AAq?$AA?9?$AAA?$AAL?$AA?$AA@ 100a2e2c     libucrt:lcidtoname_downlevel.obj
 0002:00022e3c       ??_C@_1M@GIAKDKJK@?$AAs?$AAv?$AA?9?$AAS?$AAE?$AA?$AA@ 100a2e3c     libucrt:lcidtoname_downlevel.obj
 0002:00022e4c       ??_C@_1M@MKJKIKCL@?$AAt?$AAh?$AA?9?$AAT?$AAH?$AA?$AA@ 100a2e4c     libucrt:lcidtoname_downlevel.obj
 0002:00022e5c       ??_C@_1M@MFLCCMPB@?$AAt?$AAr?$AA?9?$AAT?$AAR?$AA?$AA@ 100a2e5c     libucrt:lcidtoname_downlevel.obj
 0002:00022e6c       ??_C@_1M@OIJHDKJN@?$AAu?$AAr?$AA?9?$AAP?$AAK?$AA?$AA@ 100a2e6c     libucrt:lcidtoname_downlevel.obj
 0002:00022e7c       ??_C@_1M@LHIPCIEK@?$AAi?$AAd?$AA?9?$AAI?$AAD?$AA?$AA@ 100a2e7c     libucrt:lcidtoname_downlevel.obj
 0002:00022e8c       ??_C@_1M@MFMOBGI@?$AAu?$AAk?$AA?9?$AAU?$AAA?$AA?$AA@ 100a2e8c     libucrt:lcidtoname_downlevel.obj
 0002:00022e9c       ??_C@_1M@OBGLJIPL@?$AAb?$AAe?$AA?9?$AAB?$AAY?$AA?$AA@ 100a2e9c     libucrt:lcidtoname_downlevel.obj
 0002:00022eac       ??_C@_1M@BCFAJEAD@?$AAs?$AAl?$AA?9?$AAS?$AAI?$AA?$AA@ 100a2eac     libucrt:lcidtoname_downlevel.obj
 0002:00022ebc       ??_C@_1M@FKFFEDDN@?$AAe?$AAt?$AA?9?$AAE?$AAE?$AA?$AA@ 100a2ebc     libucrt:lcidtoname_downlevel.obj
 0002:00022ecc       ??_C@_1M@KGKKAACI@?$AAl?$AAv?$AA?9?$AAL?$AAV?$AA?$AA@ 100a2ecc     libucrt:lcidtoname_downlevel.obj
 0002:00022edc       ??_C@_1M@IFGBIJO@?$AAl?$AAt?$AA?9?$AAL?$AAT?$AA?$AA@ 100a2edc     libucrt:lcidtoname_downlevel.obj
 0002:00022eec       ??_C@_1M@FGEAHEDM@?$AAf?$AAa?$AA?9?$AAI?$AAR?$AA?$AA@ 100a2eec     libucrt:lcidtoname_downlevel.obj
 0002:00022efc       ??_C@_1M@KBMAIBFN@?$AAv?$AAi?$AA?9?$AAV?$AAN?$AA?$AA@ 100a2efc     libucrt:lcidtoname_downlevel.obj
 0002:00022f0c       ??_C@_1M@GPCBKDJK@?$AAh?$AAy?$AA?9?$AAA?$AAM?$AA?$AA@ 100a2f0c     libucrt:lcidtoname_downlevel.obj
 0002:00022f1c       ??_C@_1BG@BECMDDJB@?$AAa?$AAz?$AA?9?$AAA?$AAZ?$AA?9?$AAL?$AAa?$AAt?$AAn?$AA?$AA@ 100a2f1c     libucrt:lcidtoname_downlevel.obj
 0002:00022f38       ??_C@_1M@MAOFCAEA@?$AAe?$AAu?$AA?9?$AAE?$AAS?$AA?$AA@ 100a2f38     libucrt:lcidtoname_downlevel.obj
 0002:00022f48       ??_C@_1M@IGHABKPI@?$AAm?$AAk?$AA?9?$AAM?$AAK?$AA?$AA@ 100a2f48     libucrt:lcidtoname_downlevel.obj
 0002:00022f58       ??_C@_1M@IAIGNEJG@?$AAt?$AAn?$AA?9?$AAZ?$AAA?$AA?$AA@ 100a2f58     libucrt:lcidtoname_downlevel.obj
 0002:00022f68       ??_C@_1M@IIJCOJFA@?$AAx?$AAh?$AA?9?$AAZ?$AAA?$AA?$AA@ 100a2f68     libucrt:lcidtoname_downlevel.obj
 0002:00022f78       ??_C@_1M@LGPJHNJH@?$AAz?$AAu?$AA?9?$AAZ?$AAA?$AA?$AA@ 100a2f78     libucrt:lcidtoname_downlevel.obj
 0002:00022f88       ??_C@_1M@HOKAOIO@?$AAa?$AAf?$AA?9?$AAZ?$AAA?$AA?$AA@ 100a2f88     libucrt:lcidtoname_downlevel.obj
 0002:00022f98       ??_C@_1M@DPCLHLIE@?$AAk?$AAa?$AA?9?$AAG?$AAE?$AA?$AA@ 100a2f98     libucrt:lcidtoname_downlevel.obj
 0002:00022fa8       ??_C@_1M@BLKMHJBI@?$AAf?$AAo?$AA?9?$AAF?$AAO?$AA?$AA@ 100a2fa8     libucrt:lcidtoname_downlevel.obj
 0002:00022fb8       ??_C@_1M@LGGJAPPB@?$AAh?$AAi?$AA?9?$AAI?$AAN?$AA?$AA@ 100a2fb8     libucrt:lcidtoname_downlevel.obj
 0002:00022fc8       ??_C@_1M@FIKPIHFE@?$AAm?$AAt?$AA?9?$AAM?$AAT?$AA?$AA@ 100a2fc8     libucrt:lcidtoname_downlevel.obj
 0002:00022fd8       ??_C@_1M@HEGGPBFA@?$AAs?$AAe?$AA?9?$AAN?$AAO?$AA?$AA@ 100a2fd8     libucrt:lcidtoname_downlevel.obj
 0002:00022fe8       ??_C@_1M@EIBJEEPA@?$AAm?$AAs?$AA?9?$AAM?$AAY?$AA?$AA@ 100a2fe8     libucrt:lcidtoname_downlevel.obj
 0002:00022ff8       ??_C@_1M@FHLBGMPP@?$AAk?$AAk?$AA?9?$AAK?$AAZ?$AA?$AA@ 100a2ff8     libucrt:lcidtoname_downlevel.obj
 0002:00023008       ??_C@_1M@NGJJLCGI@?$AAk?$AAy?$AA?9?$AAK?$AAG?$AA?$AA@ 100a3008     libucrt:lcidtoname_downlevel.obj
 0002:00023018       ??_C@_1M@GIENNBFC@?$AAs?$AAw?$AA?9?$AAK?$AAE?$AA?$AA@ 100a3018     libucrt:lcidtoname_downlevel.obj
 0002:00023028       ??_C@_1BG@NDGMJIMJ@?$AAu?$AAz?$AA?9?$AAU?$AAZ?$AA?9?$AAL?$AAa?$AAt?$AAn?$AA?$AA@ 100a3028     libucrt:lcidtoname_downlevel.obj
 0002:00023044       ??_C@_1M@IDCCIHBC@?$AAt?$AAt?$AA?9?$AAR?$AAU?$AA?$AA@ 100a3044     libucrt:lcidtoname_downlevel.obj
 0002:00023054       ??_C@_1M@LOICPMOJ@?$AAb?$AAn?$AA?9?$AAI?$AAN?$AA?$AA@ 100a3054     libucrt:lcidtoname_downlevel.obj
 0002:00023064       ??_C@_1M@KPKKNEAH@?$AAp?$AAa?$AA?9?$AAI?$AAN?$AA?$AA@ 100a3064     libucrt:lcidtoname_downlevel.obj
 0002:00023074       ??_C@_1M@PJGPPBOG@?$AAg?$AAu?$AA?9?$AAI?$AAN?$AA?$AA@ 100a3074     libucrt:lcidtoname_downlevel.obj
 0002:00023084       ??_C@_1M@KMKMOPHI@?$AAt?$AAa?$AA?9?$AAI?$AAN?$AA?$AA@ 100a3084     libucrt:lcidtoname_downlevel.obj
 0002:00023094       ??_C@_1M@KFEHEPAC@?$AAt?$AAe?$AA?9?$AAI?$AAN?$AA?$AA@ 100a3094     libucrt:lcidtoname_downlevel.obj
 0002:000230a4       ??_C@_1M@CDCLMGHI@?$AAk?$AAn?$AA?9?$AAI?$AAN?$AA?$AA@ 100a30a4     libucrt:lcidtoname_downlevel.obj
 0002:000230b4       ??_C@_1M@MIODLDKF@?$AAm?$AAl?$AA?9?$AAI?$AAN?$AA?$AA@ 100a30b4     libucrt:lcidtoname_downlevel.obj
 0002:000230c4       ??_C@_1M@PBIEACPO@?$AAm?$AAr?$AA?9?$AAI?$AAN?$AA?$AA@ 100a30c4     libucrt:lcidtoname_downlevel.obj
 0002:000230d4       ??_C@_1M@NIDEAGPH@?$AAs?$AAa?$AA?9?$AAI?$AAN?$AA?$AA@ 100a30d4     libucrt:lcidtoname_downlevel.obj
 0002:000230e4       ??_C@_1M@FHIHCBIO@?$AAm?$AAn?$AA?9?$AAM?$AAN?$AA?$AA@ 100a30e4     libucrt:lcidtoname_downlevel.obj
 0002:000230f4       ??_C@_1M@JAIJPENP@?$AAc?$AAy?$AA?9?$AAG?$AAB?$AA?$AA@ 100a30f4     libucrt:lcidtoname_downlevel.obj
 0002:00023104       ??_C@_1M@PHGFBEPN@?$AAg?$AAl?$AA?9?$AAE?$AAS?$AA?$AA@ 100a3104     libucrt:lcidtoname_downlevel.obj
 0002:00023114       ??_C@_1O@KPIPDNCP@?$AAk?$AAo?$AAk?$AA?9?$AAI?$AAN?$AA?$AA@ 100a3114     libucrt:lcidtoname_downlevel.obj
 0002:00023124       ??_C@_1O@KNHJLDJA@?$AAs?$AAy?$AAr?$AA?9?$AAS?$AAY?$AA?$AA@ 100a3124     libucrt:lcidtoname_downlevel.obj
 0002:00023134       ??_C@_1O@MKEKBLAH@?$AAd?$AAi?$AAv?$AA?9?$AAM?$AAV?$AA?$AA@ 100a3134     libucrt:lcidtoname_downlevel.obj
 0002:00023144       ??_C@_1O@OHDCKDDF@?$AAq?$AAu?$AAz?$AA?9?$AAB?$AAO?$AA?$AA@ 100a3144     libucrt:lcidtoname_downlevel.obj
 0002:00023154       ??_C@_1M@LEPJNLFD@?$AAn?$AAs?$AA?9?$AAZ?$AAA?$AA?$AA@ 100a3154     libucrt:lcidtoname_downlevel.obj
 0002:00023164       ??_C@_1M@OMLEIIJB@?$AAm?$AAi?$AA?9?$AAN?$AAZ?$AA?$AA@ 100a3164     libucrt:lcidtoname_downlevel.obj
 0002:00023174       ??_C@_1M@PMPEAILG@?$AAa?$AAr?$AA?9?$AAI?$AAQ?$AA?$AA@ 100a3174     libucrt:lcidtoname_downlevel.obj
 0002:00023184       ??_C@_1M@CNKPNOEE@?$AAd?$AAe?$AA?9?$AAC?$AAH?$AA?$AA@ 100a3184     libucrt:lcidtoname_downlevel.obj
 0002:00023194       ??_C@_1M@LKMGMLKO@?$AAe?$AAn?$AA?9?$AAG?$AAB?$AA?$AA@ 100a3194     libucrt:lcidtoname_downlevel.obj
 0002:000231a4       ??_C@_1M@PGKJFFGL@?$AAe?$AAs?$AA?9?$AAM?$AAX?$AA?$AA@ 100a31a4     libucrt:lcidtoname_downlevel.obj
 0002:000231b4       ??_C@_1M@DNNANBDC@?$AAf?$AAr?$AA?9?$AAB?$AAE?$AA?$AA@ 100a31b4     libucrt:lcidtoname_downlevel.obj
 0002:000231c4       ??_C@_1M@HLGMDFHM@?$AAi?$AAt?$AA?9?$AAC?$AAH?$AA?$AA@ 100a31c4     libucrt:lcidtoname_downlevel.obj
 0002:000231d4       ??_C@_1M@CLLBGJH@?$AAn?$AAl?$AA?9?$AAB?$AAE?$AA?$AA@ 100a31d4     libucrt:lcidtoname_downlevel.obj
 0002:000231e4       ??_C@_1M@BODBOGLF@?$AAn?$AAn?$AA?9?$AAN?$AAO?$AA?$AA@ 100a31e4     libucrt:lcidtoname_downlevel.obj
 0002:000231f4       ??_C@_1M@HFFAHKAD@?$AAp?$AAt?$AA?9?$AAP?$AAT?$AA?$AA@ 100a31f4     libucrt:lcidtoname_downlevel.obj
 0002:00023204       ??_C@_1BG@LNOAKHIE@?$AAs?$AAr?$AA?9?$AAS?$AAP?$AA?9?$AAL?$AAa?$AAt?$AAn?$AA?$AA@ 100a3204     libucrt:lcidtoname_downlevel.obj
 0002:00023220       ??_C@_1M@HBMHBGAK@?$AAs?$AAv?$AA?9?$AAF?$AAI?$AA?$AA@ 100a3220     libucrt:lcidtoname_downlevel.obj
 0002:00023230       ??_C@_1BG@DGCJGJBE@?$AAa?$AAz?$AA?9?$AAA?$AAZ?$AA?9?$AAC?$AAy?$AAr?$AAl?$AA?$AA@ 100a3230     libucrt:lcidtoname_downlevel.obj
 0002:0002324c       ??_C@_1M@KEJDAAHB@?$AAs?$AAe?$AA?9?$AAS?$AAE?$AA?$AA@ 100a324c     libucrt:lcidtoname_downlevel.obj
 0002:0002325c       ??_C@_1M@HEIBJJAD@?$AAm?$AAs?$AA?9?$AAB?$AAN?$AA?$AA@ 100a325c     libucrt:lcidtoname_downlevel.obj
 0002:0002326c       ??_C@_1BG@PBGJMCEM@?$AAu?$AAz?$AA?9?$AAU?$AAZ?$AA?9?$AAC?$AAy?$AAr?$AAl?$AA?$AA@ 100a326c     libucrt:lcidtoname_downlevel.obj
 0002:00023288       ??_C@_1O@LAOBCMDF@?$AAq?$AAu?$AAz?$AA?9?$AAE?$AAC?$AA?$AA@ 100a3288     libucrt:lcidtoname_downlevel.obj
 0002:00023298       ??_C@_1M@POEEMAIO@?$AAa?$AAr?$AA?9?$AAE?$AAG?$AA?$AA@ 100a3298     libucrt:lcidtoname_downlevel.obj
 0002:000232a8       ??_C@_1M@EFAKDEDL@?$AAz?$AAh?$AA?9?$AAH?$AAK?$AA?$AA@ 100a32a8     libucrt:lcidtoname_downlevel.obj
 0002:000232b8       ??_C@_1M@HKKIJHGI@?$AAd?$AAe?$AA?9?$AAA?$AAT?$AA?$AA@ 100a32b8     libucrt:lcidtoname_downlevel.obj
 0002:000232c8       ??_C@_1M@KBFBEHJF@?$AAe?$AAn?$AA?9?$AAA?$AAU?$AA?$AA@ 100a32c8     libucrt:lcidtoname_downlevel.obj
 0002:000232d8       ??_C@_1M@MNPLFAAH@?$AAe?$AAs?$AA?9?$AAE?$AAS?$AA?$AA@ 100a32d8     libucrt:lcidtoname_downlevel.obj
 0002:000232e8       ??_C@_1M@HJOOJFMA@?$AAf?$AAr?$AA?9?$AAC?$AAA?$AA?$AA@ 100a32e8     libucrt:lcidtoname_downlevel.obj
 0002:000232f8       ??_C@_1BG@JPOFPNAB@?$AAs?$AAr?$AA?9?$AAS?$AAP?$AA?9?$AAC?$AAy?$AAr?$AAl?$AA?$AA@ 100a32f8     libucrt:lcidtoname_downlevel.obj
 0002:00023314       ??_C@_1M@LNFOCMOB@?$AAs?$AAe?$AA?9?$AAF?$AAI?$AA?$AA@ 100a3314     libucrt:lcidtoname_downlevel.obj
 0002:00023324       ??_C@_1O@MGJBOAMB@?$AAq?$AAu?$AAz?$AA?9?$AAP?$AAE?$AA?$AA@ 100a3324     libucrt:lcidtoname_downlevel.obj
 0002:00023334       ??_C@_1M@GJINLBOK@?$AAa?$AAr?$AA?9?$AAL?$AAY?$AA?$AA@ 100a3334     libucrt:lcidtoname_downlevel.obj
 0002:00023344       ??_C@_1M@GGMNHJNL@?$AAz?$AAh?$AA?9?$AAS?$AAG?$AA?$AA@ 100a3344     libucrt:lcidtoname_downlevel.obj
 0002:00023354       ??_C@_1M@HOIKODND@?$AAd?$AAe?$AA?9?$AAL?$AAU?$AA?$AA@ 100a3354     libucrt:lcidtoname_downlevel.obj
 0002:00023364       ??_C@_1M@DDOCCGFG@?$AAe?$AAn?$AA?9?$AAC?$AAA?$AA?$AA@ 100a3364     libucrt:lcidtoname_downlevel.obj
 0002:00023374       ??_C@_1M@BNOEMJLF@?$AAe?$AAs?$AA?9?$AAG?$AAT?$AA?$AA@ 100a3374     libucrt:lcidtoname_downlevel.obj
 0002:00023384       ??_C@_1M@EOGNKEK@?$AAf?$AAr?$AA?9?$AAC?$AAH?$AA?$AA@ 100a3384     libucrt:lcidtoname_downlevel.obj
 0002:00023394       ??_C@_1M@FLIDJFHL@?$AAh?$AAr?$AA?9?$AAB?$AAA?$AA?$AA@ 100a3394     libucrt:lcidtoname_downlevel.obj
 0002:000233a4       ??_C@_1O@FMCELNAJ@?$AAs?$AAm?$AAj?$AA?9?$AAN?$AAO?$AA?$AA@ 100a33a4     libucrt:lcidtoname_downlevel.obj
 0002:000233b4       ??_C@_1M@JHGLJMGJ@?$AAa?$AAr?$AA?9?$AAD?$AAZ?$AA?$AA@ 100a33b4     libucrt:lcidtoname_downlevel.obj
 0002:000233c4       ??_C@_1M@JKKFDCNP@?$AAz?$AAh?$AA?9?$AAM?$AAO?$AA?$AA@ 100a33c4     libucrt:lcidtoname_downlevel.obj
 0002:000233d4       ??_C@_1M@GEEFALPE@?$AAd?$AAe?$AA?9?$AAL?$AAI?$AA?$AA@ 100a33d4     libucrt:lcidtoname_downlevel.obj
 0002:000233e4       ??_C@_1M@IGEOFBG@?$AAe?$AAn?$AA?9?$AAN?$AAZ?$AA?$AA@ 100a33e4     libucrt:lcidtoname_downlevel.obj
 0002:000233f4       ??_C@_1M@KDBONEHP@?$AAe?$AAs?$AA?9?$AAC?$AAR?$AA?$AA@ 100a33f4     libucrt:lcidtoname_downlevel.obj
 0002:00023404       ??_C@_1M@FHMDOHNN@?$AAf?$AAr?$AA?9?$AAL?$AAU?$AA?$AA@ 100a3404     libucrt:lcidtoname_downlevel.obj
 0002:00023414       ??_C@_1BG@NFKKMAFG@?$AAb?$AAs?$AA?9?$AAB?$AAA?$AA?9?$AAL?$AAa?$AAt?$AAn?$AA?$AA@ 100a3414     libucrt:lcidtoname_downlevel.obj
 0002:00023430       ??_C@_1O@IMNBEMCI@?$AAs?$AAm?$AAj?$AA?9?$AAS?$AAE?$AA?$AA@ 100a3430     libucrt:lcidtoname_downlevel.obj
 0002:00023440       ??_C@_1M@DHHMBNDP@?$AAa?$AAr?$AA?9?$AAM?$AAA?$AA?$AA@ 100a3440     libucrt:lcidtoname_downlevel.obj
 0002:00023450       ??_C@_1M@BNBLJCGH@?$AAe?$AAn?$AA?9?$AAI?$AAE?$AA?$AA@ 100a3450     libucrt:lcidtoname_downlevel.obj
 0002:00023460       ??_C@_1M@GEPAFMDL@?$AAe?$AAs?$AA?9?$AAP?$AAA?$AA?$AA@ 100a3460     libucrt:lcidtoname_downlevel.obj
 0002:00023470       ??_C@_1M@OJONDMDL@?$AAf?$AAr?$AA?9?$AAM?$AAC?$AA?$AA@ 100a3470     libucrt:lcidtoname_downlevel.obj
 0002:00023480       ??_C@_1BG@OBCNFJB@?$AAs?$AAr?$AA?9?$AAB?$AAA?$AA?9?$AAL?$AAa?$AAt?$AAn?$AA?$AA@ 100a3480     libucrt:lcidtoname_downlevel.obj
 0002:0002349c       ??_C@_1O@KEMEEGPO@?$AAs?$AAm?$AAa?$AA?9?$AAN?$AAO?$AA?$AA@ 100a349c     libucrt:lcidtoname_downlevel.obj
 0002:000234ac       ??_C@_1M@ELMGFODK@?$AAa?$AAr?$AA?9?$AAT?$AAN?$AA?$AA@ 100a34ac     libucrt:lcidtoname_downlevel.obj
 0002:000234bc       ??_C@_1M@BHDLHFAF@?$AAe?$AAn?$AA?9?$AAZ?$AAA?$AA?$AA@ 100a34bc     libucrt:lcidtoname_downlevel.obj
 0002:000234cc       ??_C@_1M@BMGIGLIF@?$AAe?$AAs?$AA?9?$AAD?$AAO?$AA?$AA@ 100a34cc     libucrt:lcidtoname_downlevel.obj
 0002:000234dc       ??_C@_1BG@CMBHIPBE@?$AAs?$AAr?$AA?9?$AAB?$AAA?$AA?9?$AAC?$AAy?$AAr?$AAl?$AA?$AA@ 100a34dc     libucrt:lcidtoname_downlevel.obj
 0002:000234f8       ??_C@_1O@HEDBLHNP@?$AAs?$AAm?$AAa?$AA?9?$AAS?$AAE?$AA?$AA@ 100a34f8     libucrt:lcidtoname_downlevel.obj
 0002:00023508       ??_C@_1M@DAGCADIM@?$AAa?$AAr?$AA?9?$AAO?$AAM?$AA?$AA@ 100a3508     libucrt:lcidtoname_downlevel.obj
 0002:00023518       ??_C@_1M@FODLMICG@?$AAe?$AAn?$AA?9?$AAJ?$AAM?$AA?$AA@ 100a3518     libucrt:lcidtoname_downlevel.obj
 0002:00023528       ??_C@_1M@DNMLCIHB@?$AAe?$AAs?$AA?9?$AAV?$AAE?$AA?$AA@ 100a3528     libucrt:lcidtoname_downlevel.obj
 0002:00023538       ??_C@_1O@EOKHMKJK@?$AAs?$AAm?$AAs?$AA?9?$AAF?$AAI?$AA?$AA@ 100a3538     libucrt:lcidtoname_downlevel.obj
 0002:00023548       ??_C@_1M@CAFJMKOF@?$AAa?$AAr?$AA?9?$AAY?$AAE?$AA?$AA@ 100a3548     libucrt:lcidtoname_downlevel.obj
 0002:00023558       ??_C@_1M@CBFHIJLI@?$AAe?$AAn?$AA?9?$AAC?$AAB?$AA?$AA@ 100a3558     libucrt:lcidtoname_downlevel.obj
 0002:00023568       ??_C@_1M@BGNFLDN@?$AAe?$AAs?$AA?9?$AAC?$AAO?$AA?$AA@ 100a3568     libucrt:lcidtoname_downlevel.obj
 0002:00023578       ??_C@_1O@JMPHMAMC@?$AAs?$AAm?$AAn?$AA?9?$AAF?$AAI?$AA?$AA@ 100a3578     libucrt:lcidtoname_downlevel.obj
 0002:00023588       ??_C@_1M@JLANABKE@?$AAa?$AAr?$AA?9?$AAS?$AAY?$AA?$AA@ 100a3588     libucrt:lcidtoname_downlevel.obj
 0002:00023598       ??_C@_1M@HPKGCFGN@?$AAe?$AAn?$AA?9?$AAB?$AAZ?$AA?$AA@ 100a3598     libucrt:lcidtoname_downlevel.obj
 0002:000235a8       ??_C@_1M@OLJCMLGM@?$AAe?$AAs?$AA?9?$AAP?$AAE?$AA?$AA@ 100a35a8     libucrt:lcidtoname_downlevel.obj
 0002:000235b8       ??_C@_1M@MKKGFKLE@?$AAa?$AAr?$AA?9?$AAJ?$AAO?$AA?$AA@ 100a35b8     libucrt:lcidtoname_downlevel.obj
 0002:000235c8       ??_C@_1M@EKPGLDNI@?$AAe?$AAn?$AA?9?$AAT?$AAT?$AA?$AA@ 100a35c8     libucrt:lcidtoname_downlevel.obj
 0002:000235d8       ??_C@_1M@OONGHFHE@?$AAe?$AAs?$AA?9?$AAA?$AAR?$AA?$AA@ 100a35d8     libucrt:lcidtoname_downlevel.obj
 0002:000235e8       ??_C@_1M@OOJFGBHE@?$AAa?$AAr?$AA?9?$AAL?$AAB?$AA?$AA@ 100a35e8     libucrt:lcidtoname_downlevel.obj
 0002:000235f8       ??_C@_1M@GCEJHNEG@?$AAe?$AAn?$AA?9?$AAZ?$AAW?$AA?$AA@ 100a35f8     libucrt:lcidtoname_downlevel.obj
 0002:00023608       ??_C@_1M@JNOCAHJI@?$AAe?$AAs?$AA?9?$AAE?$AAC?$AA?$AA@ 100a3608     libucrt:lcidtoname_downlevel.obj
 0002:00023618       ??_C@_1M@JEFHPGGB@?$AAa?$AAr?$AA?9?$AAK?$AAW?$AA?$AA@ 100a3618     libucrt:lcidtoname_downlevel.obj
 0002:00023628       ??_C@_1M@MLKIBJOJ@?$AAe?$AAn?$AA?9?$AAP?$AAH?$AA?$AA@ 100a3628     libucrt:lcidtoname_downlevel.obj
 0002:00023638       ??_C@_1M@BDNIPEND@?$AAe?$AAs?$AA?9?$AAC?$AAL?$AA?$AA@ 100a3638     libucrt:lcidtoname_downlevel.obj
 0002:00023648       ??_C@_1M@MPNMEKBD@?$AAa?$AAr?$AA?9?$AAA?$AAE?$AA?$AA@ 100a3648     libucrt:lcidtoname_downlevel.obj
 0002:00023658       ??_C@_1M@KBJALCPI@?$AAe?$AAs?$AA?9?$AAU?$AAY?$AA?$AA@ 100a3658     libucrt:lcidtoname_downlevel.obj
 0002:00023668       ??_C@_1M@LLCCOAGA@?$AAa?$AAr?$AA?9?$AAB?$AAH?$AA?$AA@ 100a3668     libucrt:lcidtoname_downlevel.obj
 0002:00023678       ??_C@_1M@PBFNCDEL@?$AAe?$AAs?$AA?9?$AAP?$AAY?$AA?$AA@ 100a3678     libucrt:lcidtoname_downlevel.obj
 0002:00023688       ??_C@_1M@EDGINPNP@?$AAa?$AAr?$AA?9?$AAQ?$AAA?$AA?$AA@ 100a3688     libucrt:lcidtoname_downlevel.obj
 0002:00023698       ??_C@_1M@MKDBIIJI@?$AAe?$AAs?$AA?9?$AAB?$AAO?$AA?$AA@ 100a3698     libucrt:lcidtoname_downlevel.obj
 0002:000236a8       ??_C@_1M@CPKKEBLD@?$AAe?$AAs?$AA?9?$AAS?$AAV?$AA?$AA@ 100a36a8     libucrt:lcidtoname_downlevel.obj
 0002:000236b8       ??_C@_1M@NDBGMMJL@?$AAe?$AAs?$AA?9?$AAH?$AAN?$AA?$AA@ 100a36b8     libucrt:lcidtoname_downlevel.obj
 0002:000236c8       ??_C@_1M@JIJIBHDP@?$AAe?$AAs?$AA?9?$AAN?$AAI?$AA?$AA@ 100a36c8     libucrt:lcidtoname_downlevel.obj
 0002:000236d8       ??_C@_1M@CGFMKEEK@?$AAe?$AAs?$AA?9?$AAP?$AAR?$AA?$AA@ 100a36d8     libucrt:lcidtoname_downlevel.obj
 0002:000236e8       ??_C@_1O@ICJHKIIK@?$AAz?$AAh?$AA?9?$AAC?$AAH?$AAT?$AA?$AA@ 100a36e8     libucrt:lcidtoname_downlevel.obj
 0002:000236f8       ??_C@_15CLNEJCE@?$AAs?$AAr?$AA?$AA@ 100a36f8     libucrt:lcidtoname_downlevel.obj
 0002:00023f8c       ??_C@_1M@KAHEKEIG@?$AAa?$AAf?$AA?9?$AAz?$AAa?$AA?$AA@ 100a3f8c     libucrt:lcidtoname_downlevel.obj
 0002:00023f9c       ??_C@_1M@GIECOABL@?$AAa?$AAr?$AA?9?$AAa?$AAe?$AA?$AA@ 100a3f9c     libucrt:lcidtoname_downlevel.obj
 0002:00023fac       ??_C@_1M@BMLMEKGI@?$AAa?$AAr?$AA?9?$AAb?$AAh?$AA?$AA@ 100a3fac     libucrt:lcidtoname_downlevel.obj
 0002:00023fbc       ??_C@_1M@DAPFDGGB@?$AAa?$AAr?$AA?9?$AAd?$AAz?$AA?$AA@ 100a3fbc     libucrt:lcidtoname_downlevel.obj
 0002:00023fcc       ??_C@_1M@FJNKGKIG@?$AAa?$AAr?$AA?9?$AAe?$AAg?$AA?$AA@ 100a3fcc     libucrt:lcidtoname_downlevel.obj
 0002:00023fdc       ??_C@_1M@FLGKKCLO@?$AAa?$AAr?$AA?9?$AAi?$AAq?$AA?$AA@ 100a3fdc     libucrt:lcidtoname_downlevel.obj
 0002:00023fec       ??_C@_1M@GNDIPALM@?$AAa?$AAr?$AA?9?$AAj?$AAo?$AA?$AA@ 100a3fec     libucrt:lcidtoname_downlevel.obj
 0002:00023ffc       ??_C@_1M@DDMJFMGJ@?$AAa?$AAr?$AA?9?$AAk?$AAw?$AA?$AA@ 100a3ffc     libucrt:lcidtoname_downlevel.obj
 0002:0002400c       ??_C@_1M@EJALMLHM@?$AAa?$AAr?$AA?9?$AAl?$AAb?$AA?$AA@ 100a400c     libucrt:lcidtoname_downlevel.obj
 0002:0002401c       ??_C@_1M@MOBDBLOC@?$AAa?$AAr?$AA?9?$AAl?$AAy?$AA?$AA@ 100a401c     libucrt:lcidtoname_downlevel.obj
 0002:0002402c       ??_C@_1M@JAOCLHDH@?$AAa?$AAr?$AA?9?$AAm?$AAa?$AA?$AA@ 100a402c     libucrt:lcidtoname_downlevel.obj
 0002:0002403c       ??_C@_1M@JHPMKJIE@?$AAa?$AAr?$AA?9?$AAo?$AAm?$AA?$AA@ 100a403c     libucrt:lcidtoname_downlevel.obj
 0002:0002404c       ??_C@_1M@OEPGHFNH@?$AAa?$AAr?$AA?9?$AAq?$AAa?$AA?$AA@ 100a404c     libucrt:lcidtoname_downlevel.obj
 0002:0002405c       ??_C@_1M@KJDONENM@?$AAa?$AAr?$AA?9?$AAs?$AAa?$AA?$AA@ 100a405c     libucrt:lcidtoname_downlevel.obj
 0002:0002406c       ??_C@_1M@DMJDKLKM@?$AAa?$AAr?$AA?9?$AAs?$AAy?$AA?$AA@ 100a406c     libucrt:lcidtoname_downlevel.obj
 0002:0002407c       ??_C@_1M@OMFIPEDC@?$AAa?$AAr?$AA?9?$AAt?$AAn?$AA?$AA@ 100a407c     libucrt:lcidtoname_downlevel.obj
 0002:0002408c       ??_C@_1M@IHMHGAON@?$AAa?$AAr?$AA?9?$AAy?$AAe?$AA?$AA@ 100a408c     libucrt:lcidtoname_downlevel.obj
 0002:0002409c       ??_C@_1BG@KDCPGJGB@?$AAa?$AAz?$AA?9?$AAa?$AAz?$AA?9?$AAc?$AAy?$AAr?$AAl?$AA?$AA@ 100a409c     libucrt:lcidtoname_downlevel.obj
 0002:000240b8       ??_C@_1BG@IBCKDDOE@?$AAa?$AAz?$AA?9?$AAa?$AAz?$AA?9?$AAl?$AAa?$AAt?$AAn?$AA?$AA@ 100a40b8     libucrt:lcidtoname_downlevel.obj
 0002:000240d4       ??_C@_1M@EGPFDCPD@?$AAb?$AAe?$AA?9?$AAb?$AAy?$AA?$AA@ 100a40d4     libucrt:lcidtoname_downlevel.obj
 0002:000240e4       ??_C@_1M@PCMGMCGC@?$AAb?$AAg?$AA?9?$AAb?$AAg?$AA?$AA@ 100a40e4     libucrt:lcidtoname_downlevel.obj
 0002:000240f4       ??_C@_1M@BJBMFGOB@?$AAb?$AAn?$AA?9?$AAi?$AAn?$AA?$AA@ 100a40f4     libucrt:lcidtoname_downlevel.obj
 0002:00024104       ??_C@_1BG@EAKMMACD@?$AAb?$AAs?$AA?9?$AAb?$AAa?$AA?9?$AAl?$AAa?$AAt?$AAn?$AA?$AA@ 100a4104     libucrt:lcidtoname_downlevel.obj
 0002:00024120       ??_C@_1M@KGADAODK@?$AAc?$AAa?$AA?9?$AAe?$AAs?$AA?$AA@ 100a4120     libucrt:lcidtoname_downlevel.obj
 0002:00024130       ??_C@_1M@COAJPDHI@?$AAc?$AAs?$AA?9?$AAc?$AAz?$AA?$AA@ 100a4130     libucrt:lcidtoname_downlevel.obj
 0002:00024140       ??_C@_1M@DHBHFONH@?$AAc?$AAy?$AA?9?$AAg?$AAb?$AA?$AA@ 100a4140     libucrt:lcidtoname_downlevel.obj
 0002:00024150       ??_C@_1M@IMGKELGA@?$AAd?$AAa?$AA?9?$AAd?$AAk?$AA?$AA@ 100a4150     libucrt:lcidtoname_downlevel.obj
 0002:00024160       ??_C@_1M@NNDGDNGA@?$AAd?$AAe?$AA?9?$AAa?$AAt?$AA?$AA@ 100a4160     libucrt:lcidtoname_downlevel.obj
 0002:00024170       ??_C@_1M@IKDBHEEM@?$AAd?$AAe?$AA?9?$AAc?$AAh?$AA?$AA@ 100a4170     libucrt:lcidtoname_downlevel.obj
 0002:00024180       ??_C@_1M@GFFOJMCJ@?$AAd?$AAe?$AA?9?$AAd?$AAe?$AA?$AA@ 100a4180     libucrt:lcidtoname_downlevel.obj
 0002:00024190       ??_C@_1M@MDNLKBPM@?$AAd?$AAe?$AA?9?$AAl?$AAi?$AA?$AA@ 100a4190     libucrt:lcidtoname_downlevel.obj
 0002:000241a0       ??_C@_1M@NJBEEJNL@?$AAd?$AAe?$AA?9?$AAl?$AAu?$AA?$AA@ 100a41a0     libucrt:lcidtoname_downlevel.obj
 0002:000241b0       ??_C@_1O@GNNELBAP@?$AAd?$AAi?$AAv?$AA?9?$AAm?$AAv?$AA?$AA@ 100a41b0     libucrt:lcidtoname_downlevel.obj
 0002:000241c0       ??_C@_1M@EJLEOGAE@?$AAe?$AAl?$AA?9?$AAg?$AAr?$AA?$AA@ 100a41c0     libucrt:lcidtoname_downlevel.obj
 0002:000241d0       ??_C@_1M@GMPONJN@?$AAe?$AAn?$AA?9?$AAa?$AAu?$AA?$AA@ 100a41d0     libucrt:lcidtoname_downlevel.obj
 0002:000241e0       ??_C@_1M@NIDIIPGF@?$AAe?$AAn?$AA?9?$AAb?$AAz?$AA?$AA@ 100a41e0     libucrt:lcidtoname_downlevel.obj
 0002:000241f0       ??_C@_1M@JEHMIMFO@?$AAe?$AAn?$AA?9?$AAc?$AAa?$AA?$AA@ 100a41f0     libucrt:lcidtoname_downlevel.obj
 0002:00024200       ??_C@_1M@IGMJCDLA@?$AAe?$AAn?$AA?9?$AAc?$AAb?$AA?$AA@ 100a4200     libucrt:lcidtoname_downlevel.obj
 0002:00024210       ??_C@_1M@BNFIGBKG@?$AAe?$AAn?$AA?9?$AAg?$AAb?$AA?$AA@ 100a4210     libucrt:lcidtoname_downlevel.obj
 0002:00024220       ??_C@_1M@LKIFDIGP@?$AAe?$AAn?$AA?9?$AAi?$AAe?$AA?$AA@ 100a4220     libucrt:lcidtoname_downlevel.obj
 0002:00024230       ??_C@_1M@PJKFGCCO@?$AAe?$AAn?$AA?9?$AAj?$AAm?$AA?$AA@ 100a4230     libucrt:lcidtoname_downlevel.obj
 0002:00024240       ??_C@_1M@KPPKEPBO@?$AAe?$AAn?$AA?9?$AAn?$AAz?$AA?$AA@ 100a4240     libucrt:lcidtoname_downlevel.obj
 0002:00024250       ??_C@_1M@GMDGLDOB@?$AAe?$AAn?$AA?9?$AAp?$AAh?$AA?$AA@ 100a4250     libucrt:lcidtoname_downlevel.obj
 0002:00024260       ??_C@_1M@ONGIBJNA@?$AAe?$AAn?$AA?9?$AAt?$AAt?$AA?$AA@ 100a4260     libucrt:lcidtoname_downlevel.obj
 0002:00024270       ??_C@_1M@LLODPCMM@?$AAe?$AAn?$AA?9?$AAu?$AAs?$AA?$AA@ 100a4270     libucrt:lcidtoname_downlevel.obj
 0002:00024280       ??_C@_1M@LAKFNPAN@?$AAe?$AAn?$AA?9?$AAz?$AAa?$AA?$AA@ 100a4280     libucrt:lcidtoname_downlevel.obj
 0002:00024290       ??_C@_1M@MFNHNHEO@?$AAe?$AAn?$AA?9?$AAz?$AAw?$AA?$AA@ 100a4290     libucrt:lcidtoname_downlevel.obj
 0002:000242a0       ??_C@_1M@EJEINPHM@?$AAe?$AAs?$AA?9?$AAa?$AAr?$AA?$AA@ 100a42a0     libucrt:lcidtoname_downlevel.obj
 0002:000242b0       ??_C@_1M@GNKPCCJA@?$AAe?$AAs?$AA?9?$AAb?$AAo?$AA?$AA@ 100a42b0     libucrt:lcidtoname_downlevel.obj
 0002:000242c0       ??_C@_1M@LEEGFONL@?$AAe?$AAs?$AA?9?$AAc?$AAl?$AA?$AA@ 100a42c0     libucrt:lcidtoname_downlevel.obj
 0002:000242d0       ??_C@_1M@KGPDPBDF@?$AAe?$AAs?$AA?9?$AAc?$AAo?$AA?$AA@ 100a42d0     libucrt:lcidtoname_downlevel.obj
 0002:000242e0       ??_C@_1M@EIAHOHH@?$AAe?$AAs?$AA?9?$AAc?$AAr?$AA?$AA@ 100a42e0     libucrt:lcidtoname_downlevel.obj
 0002:000242f0       ??_C@_1M@LLPGMBIN@?$AAe?$AAs?$AA?9?$AAd?$AAo?$AA?$AA@ 100a42f0     libucrt:lcidtoname_downlevel.obj
 0002:00024300       ??_C@_1M@DKHMKNJA@?$AAe?$AAs?$AA?9?$AAe?$AAc?$AA?$AA@ 100a4300     libucrt:lcidtoname_downlevel.obj
 0002:00024310       ??_C@_1M@GKGFPKAP@?$AAe?$AAs?$AA?9?$AAe?$AAs?$AA?$AA@ 100a4310     libucrt:lcidtoname_downlevel.obj
 0002:00024320       ??_C@_1M@LKHKGDLN@?$AAe?$AAs?$AA?9?$AAg?$AAt?$AA?$AA@ 100a4320     libucrt:lcidtoname_downlevel.obj
 0002:00024330       ??_C@_1M@HEIIGGJD@?$AAe?$AAs?$AA?9?$AAh?$AAn?$AA?$AA@ 100a4330     libucrt:lcidtoname_downlevel.obj
 0002:00024340       ??_C@_1M@FBDHPPGD@?$AAe?$AAs?$AA?9?$AAm?$AAx?$AA?$AA@ 100a4340     libucrt:lcidtoname_downlevel.obj
 0002:00024350       ??_C@_1M@DPAGLNDH@?$AAe?$AAs?$AA?9?$AAn?$AAi?$AA?$AA@ 100a4350     libucrt:lcidtoname_downlevel.obj
 0002:00024360       ??_C@_1M@MDGOPGDD@?$AAe?$AAs?$AA?9?$AAp?$AAa?$AA?$AA@ 100a4360     libucrt:lcidtoname_downlevel.obj
 0002:00024370       ??_C@_1M@EMAMGBGE@?$AAe?$AAs?$AA?9?$AAp?$AAe?$AA?$AA@ 100a4370     libucrt:lcidtoname_downlevel.obj
 0002:00024380       ??_C@_1M@IBMCAOEC@?$AAe?$AAs?$AA?9?$AAp?$AAr?$AA?$AA@ 100a4380     libucrt:lcidtoname_downlevel.obj
 0002:00024390       ??_C@_1M@FGMDIJED@?$AAe?$AAs?$AA?9?$AAp?$AAy?$AA?$AA@ 100a4390     libucrt:lcidtoname_downlevel.obj
 0002:000243a0       ??_C@_1M@IIDEOLLL@?$AAe?$AAs?$AA?9?$AAs?$AAv?$AA?$AA@ 100a43a0     libucrt:lcidtoname_downlevel.obj
 0002:000243b0       ??_C@_1M@GAOBIPA@?$AAe?$AAs?$AA?9?$AAu?$AAy?$AA?$AA@ 100a43b0     libucrt:lcidtoname_downlevel.obj
 0002:000243c0       ??_C@_1M@JKFFICHJ@?$AAe?$AAs?$AA?9?$AAv?$AAe?$AA?$AA@ 100a43c0     libucrt:lcidtoname_downlevel.obj
 0002:000243d0       ??_C@_1M@PNMLOJDF@?$AAe?$AAt?$AA?9?$AAe?$AAe?$AA?$AA@ 100a43d0     libucrt:lcidtoname_downlevel.obj
 0002:000243e0       ??_C@_1M@GHHLIKEI@?$AAe?$AAu?$AA?9?$AAe?$AAs?$AA?$AA@ 100a43e0     libucrt:lcidtoname_downlevel.obj
 0002:000243f0       ??_C@_1M@PBNONODE@?$AAf?$AAa?$AA?9?$AAi?$AAr?$AA?$AA@ 100a43f0     libucrt:lcidtoname_downlevel.obj
 0002:00024400       ??_C@_1M@JEEHPMIL@?$AAf?$AAi?$AA?9?$AAf?$AAi?$AA?$AA@ 100a4400     libucrt:lcidtoname_downlevel.obj
 0002:00024410       ??_C@_1M@LMDCNDBA@?$AAf?$AAo?$AA?9?$AAf?$AAo?$AA?$AA@ 100a4410     libucrt:lcidtoname_downlevel.obj
 0002:00024420       ??_C@_1M@JKEOHLDK@?$AAf?$AAr?$AA?9?$AAb?$AAe?$AA?$AA@ 100a4420     libucrt:lcidtoname_downlevel.obj
 0002:00024430       ??_C@_1M@NOHADPMI@?$AAf?$AAr?$AA?9?$AAc?$AAa?$AA?$AA@ 100a4430     libucrt:lcidtoname_downlevel.obj
 0002:00024440       ??_C@_1M@KDHIHAEC@?$AAf?$AAr?$AA?9?$AAc?$AAh?$AA?$AA@ 100a4440     libucrt:lcidtoname_downlevel.obj
 0002:00024450       ??_C@_1M@MMBBFGAK@?$AAf?$AAr?$AA?9?$AAf?$AAr?$AA?$AA@ 100a4450     libucrt:lcidtoname_downlevel.obj
 0002:00024460       ??_C@_1M@PAFNENNF@?$AAf?$AAr?$AA?9?$AAl?$AAu?$AA?$AA@ 100a4460     libucrt:lcidtoname_downlevel.obj
 0002:00024470       ??_C@_1M@EOHDJGDD@?$AAf?$AAr?$AA?9?$AAm?$AAc?$AA?$AA@ 100a4470     libucrt:lcidtoname_downlevel.obj
 0002:00024480       ??_C@_1M@FAPLLOPF@?$AAg?$AAl?$AA?9?$AAe?$AAs?$AA?$AA@ 100a4480     libucrt:lcidtoname_downlevel.obj
 0002:00024490       ??_C@_1M@FOPBFLOO@?$AAg?$AAu?$AA?9?$AAi?$AAn?$AA?$AA@ 100a4490     libucrt:lcidtoname_downlevel.obj
 0002:000244a0       ??_C@_1M@KBMCINPM@?$AAh?$AAe?$AA?9?$AAi?$AAl?$AA?$AA@ 100a44a0     libucrt:lcidtoname_downlevel.obj
 0002:000244b0       ??_C@_1M@BBPHKFPJ@?$AAh?$AAi?$AA?9?$AAi?$AAn?$AA?$AA@ 100a44b0     libucrt:lcidtoname_downlevel.obj
 0002:000244c0       ??_C@_1M@PMBNDPHD@?$AAh?$AAr?$AA?9?$AAb?$AAa?$AA?$AA@ 100a44c0     libucrt:lcidtoname_downlevel.obj
 0002:000244d0       ??_C@_1M@BPCKOEGE@?$AAh?$AAr?$AA?9?$AAh?$AAr?$AA?$AA@ 100a44d0     libucrt:lcidtoname_downlevel.obj
 0002:000244e0       ??_C@_1M@GACBMHKE@?$AAh?$AAu?$AA?9?$AAh?$AAu?$AA?$AA@ 100a44e0     libucrt:lcidtoname_downlevel.obj
 0002:000244f0       ??_C@_1M@MILPAJJC@?$AAh?$AAy?$AA?9?$AAa?$AAm?$AA?$AA@ 100a44f0     libucrt:lcidtoname_downlevel.obj
 0002:00024500       ??_C@_1M@BABBICEC@?$AAi?$AAd?$AA?9?$AAi?$AAd?$AA?$AA@ 100a4500     libucrt:lcidtoname_downlevel.obj
 0002:00024510       ??_C@_1M@BIKNHHPF@?$AAi?$AAs?$AA?9?$AAi?$AAs?$AA?$AA@ 100a4510     libucrt:lcidtoname_downlevel.obj
 0002:00024520       ??_C@_1M@NMPCJPHE@?$AAi?$AAt?$AA?9?$AAc?$AAh?$AA?$AA@ 100a4520     libucrt:lcidtoname_downlevel.obj
 0002:00024530       ??_C@_1M@GHKGFEDF@?$AAi?$AAt?$AA?9?$AAi?$AAt?$AA?$AA@ 100a4530     libucrt:lcidtoname_downlevel.obj
 0002:00024540       ??_C@_1M@NIEJCJJA@?$AAj?$AAa?$AA?9?$AAj?$AAp?$AA?$AA@ 100a4540     libucrt:lcidtoname_downlevel.obj
 0002:00024550       ??_C@_1M@JILFNBIM@?$AAk?$AAa?$AA?9?$AAg?$AAe?$AA?$AA@ 100a4550     libucrt:lcidtoname_downlevel.obj
 0002:00024560       ??_C@_1M@PACPMGPH@?$AAk?$AAk?$AA?9?$AAk?$AAz?$AA?$AA@ 100a4560     libucrt:lcidtoname_downlevel.obj
 0002:00024570       ??_C@_1M@IELFGMHA@?$AAk?$AAn?$AA?9?$AAi?$AAn?$AA?$AA@ 100a4570     libucrt:lcidtoname_downlevel.obj
 0002:00024580       ??_C@_1O@IBBJHCH@?$AAk?$AAo?$AAk?$AA?9?$AAi?$AAn?$AA?$AA@ 100a4580     libucrt:lcidtoname_downlevel.obj
 0002:00024590       ??_C@_1M@DMHAEOGC@?$AAk?$AAo?$AA?9?$AAk?$AAr?$AA?$AA@ 100a4590     libucrt:lcidtoname_downlevel.obj
 0002:000245a0       ??_C@_1M@HBAHBIGA@?$AAk?$AAy?$AA?9?$AAk?$AAg?$AA?$AA@ 100a45a0     libucrt:lcidtoname_downlevel.obj
 0002:000245b0       ??_C@_1M@KPMILCJG@?$AAl?$AAt?$AA?9?$AAl?$AAt?$AA?$AA@ 100a45b0     libucrt:lcidtoname_downlevel.obj
 0002:000245c0       ??_C@_1M@BDEKKCA@?$AAl?$AAv?$AA?9?$AAl?$AAv?$AA?$AA@ 100a45c0     libucrt:lcidtoname_downlevel.obj
 0002:000245d0       ??_C@_1M@ELCKCCJJ@?$AAm?$AAi?$AA?9?$AAn?$AAz?$AA?$AA@ 100a45d0     libucrt:lcidtoname_downlevel.obj
 0002:000245e0       ??_C@_1M@CBOOLAPA@?$AAm?$AAk?$AA?9?$AAm?$AAk?$AA?$AA@ 100a45e0     libucrt:lcidtoname_downlevel.obj
 0002:000245f0       ??_C@_1M@GPHNBJKN@?$AAm?$AAl?$AA?9?$AAi?$AAn?$AA?$AA@ 100a45f0     libucrt:lcidtoname_downlevel.obj
 0002:00024600       ??_C@_1M@PABJILIG@?$AAm?$AAn?$AA?9?$AAm?$AAn?$AA?$AA@ 100a4600     libucrt:lcidtoname_downlevel.obj
 0002:00024610       ??_C@_1M@FGBKKIPG@?$AAm?$AAr?$AA?9?$AAi?$AAn?$AA?$AA@ 100a4610     libucrt:lcidtoname_downlevel.obj
 0002:00024620       ??_C@_1M@NDBPDDAL@?$AAm?$AAs?$AA?9?$AAb?$AAn?$AA?$AA@ 100a4620     libucrt:lcidtoname_downlevel.obj
 0002:00024630       ??_C@_1M@OPIHOOPI@?$AAm?$AAs?$AA?9?$AAm?$AAy?$AA?$AA@ 100a4630     libucrt:lcidtoname_downlevel.obj
 0002:00024640       ??_C@_1M@PPDBCNFM@?$AAm?$AAt?$AA?9?$AAm?$AAt?$AA?$AA@ 100a4640     libucrt:lcidtoname_downlevel.obj
 0002:00024650       ??_C@_1M@KDJDKMDD@?$AAn?$AAb?$AA?9?$AAn?$AAo?$AA?$AA@ 100a4650     libucrt:lcidtoname_downlevel.obj
 0002:00024660       ??_C@_1M@KFCFLMJP@?$AAn?$AAl?$AA?9?$AAb?$AAe?$AA?$AA@ 100a4660     libucrt:lcidtoname_downlevel.obj
 0002:00024670       ??_C@_1M@KPOPDDGO@?$AAn?$AAl?$AA?9?$AAn?$AAl?$AA?$AA@ 100a4670     libucrt:lcidtoname_downlevel.obj
 0002:00024680       ??_C@_1M@LJKPEMLN@?$AAn?$AAn?$AA?9?$AAn?$AAo?$AA?$AA@ 100a4680     libucrt:lcidtoname_downlevel.obj
 0002:00024690       ??_C@_1M@BDGHHBFL@?$AAn?$AAs?$AA?9?$AAz?$AAa?$AA?$AA@ 100a4690     libucrt:lcidtoname_downlevel.obj
 0002:000246a0       ??_C@_1M@IDEHOAP@?$AAp?$AAa?$AA?9?$AAi?$AAn?$AA?$AA@ 100a46a0     libucrt:lcidtoname_downlevel.obj
 0002:000246b0       ??_C@_1M@HDBKGOGH@?$AAp?$AAl?$AA?9?$AAp?$AAl?$AA?$AA@ 100a46b0     libucrt:lcidtoname_downlevel.obj
 0002:000246c0       ??_C@_1M@LJLLCMEH@?$AAp?$AAt?$AA?9?$AAb?$AAr?$AA?$AA@ 100a46c0     libucrt:lcidtoname_downlevel.obj
 0002:000246d0       ??_C@_1M@NCMONAAL@?$AAp?$AAt?$AA?9?$AAp?$AAt?$AA?$AA@ 100a46d0     libucrt:lcidtoname_downlevel.obj
 0002:000246e0       ??_C@_1O@EAKMAJDN@?$AAq?$AAu?$AAz?$AA?9?$AAb?$AAo?$AA?$AA@ 100a46e0     libucrt:lcidtoname_downlevel.obj
 0002:000246f0       ??_C@_1O@BHHPIGDN@?$AAq?$AAu?$AAz?$AA?9?$AAe?$AAc?$AA?$AA@ 100a46f0     libucrt:lcidtoname_downlevel.obj
 0002:00024700       ??_C@_1O@GBAPEKMJ@?$AAq?$AAu?$AAz?$AA?9?$AAp?$AAe?$AA?$AA@ 100a4700     libucrt:lcidtoname_downlevel.obj
 0002:00024710       ??_C@_1M@CLGLEFBO@?$AAr?$AAo?$AA?9?$AAr?$AAo?$AA?$AA@ 100a4710     libucrt:lcidtoname_downlevel.obj
 0002:00024720       ??_C@_1M@CEEDODME@?$AAr?$AAu?$AA?9?$AAr?$AAu?$AA?$AA@ 100a4720     libucrt:lcidtoname_downlevel.obj
 0002:00024730       ??_C@_1M@HPKKKMPP@?$AAs?$AAa?$AA?9?$AAi?$AAn?$AA?$AA@ 100a4730     libucrt:lcidtoname_downlevel.obj
 0002:00024740       ??_C@_1M@BKMAIGOJ@?$AAs?$AAe?$AA?9?$AAf?$AAi?$AA?$AA@ 100a4740     libucrt:lcidtoname_downlevel.obj
 0002:00024750       ??_C@_1M@NDPIFLFI@?$AAs?$AAe?$AA?9?$AAn?$AAo?$AA?$AA@ 100a4750     libucrt:lcidtoname_downlevel.obj
 0002:00024760       ??_C@_1M@DANKKHJ@?$AAs?$AAe?$AA?9?$AAs?$AAe?$AA?$AA@ 100a4760     libucrt:lcidtoname_downlevel.obj
 0002:00024770       ??_C@_1M@PNBLONPJ@?$AAs?$AAk?$AA?9?$AAs?$AAk?$AA?$AA@ 100a4770     libucrt:lcidtoname_downlevel.obj
 0002:00024780       ??_C@_1M@LFMODOAL@?$AAs?$AAl?$AA?9?$AAs?$AAi?$AA?$AA@ 100a4780     libucrt:lcidtoname_downlevel.obj
 0002:00024790       ??_C@_1O@DFKOMPG@?$AAs?$AAm?$AAa?$AA?9?$AAn?$AAo?$AA?$AA@ 100a4790     libucrt:lcidtoname_downlevel.obj
 0002:000247a0       ??_C@_1O@NDKPBNNH@?$AAs?$AAm?$AAa?$AA?9?$AAs?$AAe?$AA?$AA@ 100a47a0     libucrt:lcidtoname_downlevel.obj
 0002:000247b0       ??_C@_1O@PLLKBHAB@?$AAs?$AAm?$AAj?$AA?9?$AAn?$AAo?$AA?$AA@ 100a47b0     libucrt:lcidtoname_downlevel.obj
 0002:000247c0       ??_C@_1O@CLEPOGCA@?$AAs?$AAm?$AAj?$AA?9?$AAs?$AAe?$AA?$AA@ 100a47c0     libucrt:lcidtoname_downlevel.obj
 0002:000247d0       ??_C@_1O@DLGJGKMK@?$AAs?$AAm?$AAn?$AA?9?$AAf?$AAi?$AA?$AA@ 100a47d0     libucrt:lcidtoname_downlevel.obj
 0002:000247e0       ??_C@_1O@OJDJGAJC@?$AAs?$AAm?$AAs?$AA?9?$AAf?$AAi?$AA?$AA@ 100a47e0     libucrt:lcidtoname_downlevel.obj
 0002:000247f0       ??_C@_1M@BOFOGHPB@?$AAs?$AAq?$AA?9?$AAa?$AAl?$AA?$AA@ 100a47f0     libucrt:lcidtoname_downlevel.obj
 0002:00024800       ??_C@_1BG@LJBBIPGB@?$AAs?$AAr?$AA?9?$AAb?$AAa?$AA?9?$AAc?$AAy?$AAr?$AAl?$AA?$AA@ 100a4800     libucrt:lcidtoname_downlevel.obj
 0002:0002481c       ??_C@_1BG@JLBENFOE@?$AAs?$AAr?$AA?9?$AAb?$AAa?$AA?9?$AAl?$AAa?$AAt?$AAn?$AA?$AA@ 100a481c     libucrt:lcidtoname_downlevel.obj
 0002:00024838       ??_C@_1BG@KODPNHE@?$AAs?$AAr?$AA?9?$AAs?$AAp?$AA?9?$AAc?$AAy?$AAr?$AAl?$AA?$AA@ 100a4838     libucrt:lcidtoname_downlevel.obj
 0002:00024854       ??_C@_1BG@CIOGKHPB@?$AAs?$AAr?$AA?9?$AAs?$AAp?$AA?9?$AAl?$AAa?$AAt?$AAn?$AA?$AA@ 100a4854     libucrt:lcidtoname_downlevel.obj
 0002:00024870       ??_C@_1M@NGFJLMAC@?$AAs?$AAv?$AA?9?$AAf?$AAi?$AA?$AA@ 100a4870     libucrt:lcidtoname_downlevel.obj
 0002:00024880       ??_C@_1M@MPJEJAJC@?$AAs?$AAv?$AA?9?$AAs?$AAe?$AA?$AA@ 100a4880     libucrt:lcidtoname_downlevel.obj
 0002:00024890       ??_C@_1M@MPNDHLFK@?$AAs?$AAw?$AA?9?$AAk?$AAe?$AA?$AA@ 100a4890     libucrt:lcidtoname_downlevel.obj
 0002:000248a0       ??_C@_1O@KOHBJJI@?$AAs?$AAy?$AAr?$AA?9?$AAs?$AAy?$AA?$AA@ 100a48a0     libucrt:lcidtoname_downlevel.obj
 0002:000248b0       ??_C@_1M@LDCEFHA@?$AAt?$AAa?$AA?9?$AAi?$AAn?$AA?$AA@ 100a48b0     libucrt:lcidtoname_downlevel.obj
 0002:000248c0       ??_C@_1M@CNJOFAK@?$AAt?$AAe?$AA?9?$AAi?$AAn?$AA?$AA@ 100a48c0     libucrt:lcidtoname_downlevel.obj
 0002:000248d0       ??_C@_1M@GNAECACD@?$AAt?$AAh?$AA?9?$AAt?$AAh?$AA?$AA@ 100a48d0     libucrt:lcidtoname_downlevel.obj
 0002:000248e0       ??_C@_1M@CHBIHOJO@?$AAt?$AAn?$AA?9?$AAz?$AAa?$AA?$AA@ 100a48e0     libucrt:lcidtoname_downlevel.obj
 0002:000248f0       ??_C@_1M@GCCMIGPJ@?$AAt?$AAr?$AA?9?$AAt?$AAr?$AA?$AA@ 100a48f0     libucrt:lcidtoname_downlevel.obj
 0002:00024900       ??_C@_1M@CELMCNBK@?$AAt?$AAt?$AA?9?$AAr?$AAu?$AA?$AA@ 100a4900     libucrt:lcidtoname_downlevel.obj
 0002:00024910       ??_C@_1M@KLMCELGA@?$AAu?$AAk?$AA?9?$AAu?$AAa?$AA?$AA@ 100a4910     libucrt:lcidtoname_downlevel.obj
 0002:00024920       ??_C@_1M@EPAJJAJF@?$AAu?$AAr?$AA?9?$AAp?$AAk?$AA?$AA@ 100a4920     libucrt:lcidtoname_downlevel.obj
 0002:00024930       ??_C@_1BG@GEGPMCDJ@?$AAu?$AAz?$AA?9?$AAu?$AAz?$AA?9?$AAc?$AAy?$AAr?$AAl?$AA?$AA@ 100a4930     libucrt:lcidtoname_downlevel.obj
 0002:0002494c       ??_C@_1BG@EGGKJILM@?$AAu?$AAz?$AA?9?$AAu?$AAz?$AA?9?$AAl?$AAa?$AAt?$AAn?$AA?$AA@ 100a494c     libucrt:lcidtoname_downlevel.obj
 0002:00024968       ??_C@_1M@GFOCLFF@?$AAv?$AAi?$AA?9?$AAv?$AAn?$AA?$AA@ 100a4968     libucrt:lcidtoname_downlevel.obj
 0002:00024978       ??_C@_1M@CPAMEDFI@?$AAx?$AAh?$AA?9?$AAz?$AAa?$AA?$AA@ 100a4978     libucrt:lcidtoname_downlevel.obj
 0002:00024988       ??_C@_1O@EBKIFIGN@?$AAz?$AAh?$AA?9?$AAc?$AAh?$AAs?$AA?$AA@ 100a4988     libucrt:lcidtoname_downlevel.obj
 0002:00024998       ??_C@_1O@NMHPGANE@?$AAz?$AAh?$AA?9?$AAc?$AAh?$AAt?$AA?$AA@ 100a4998     libucrt:lcidtoname_downlevel.obj
 0002:000249a8       ??_C@_1M@LPINJOMC@?$AAz?$AAh?$AA?9?$AAc?$AAn?$AA?$AA@ 100a49a8     libucrt:lcidtoname_downlevel.obj
 0002:000249b8       ??_C@_1M@OCJEJODD@?$AAz?$AAh?$AA?9?$AAh?$AAk?$AA?$AA@ 100a49b8     libucrt:lcidtoname_downlevel.obj
 0002:000249c8       ??_C@_1M@DNDLJINH@?$AAz?$AAh?$AA?9?$AAm?$AAo?$AA?$AA@ 100a49c8     libucrt:lcidtoname_downlevel.obj
 0002:000249d8       ??_C@_1M@MBFDNDND@?$AAz?$AAh?$AA?9?$AAs?$AAg?$AA?$AA@ 100a49d8     libucrt:lcidtoname_downlevel.obj
 0002:000249e8       ??_C@_1M@IMEPLEPE@?$AAz?$AAh?$AA?9?$AAt?$AAw?$AA?$AA@ 100a49e8     libucrt:lcidtoname_downlevel.obj
 0002:000249f8       ??_C@_1M@BBGHNHJP@?$AAz?$AAu?$AA?9?$AAz?$AAa?$AA?$AA@ 100a49f8     libucrt:lcidtoname_downlevel.obj
 0002:00024a08       ?large_power_data@?1??multiply_by_power_of_ten@__crt_strtox@@YA_NAAUbig_integer@2@I@Z@4QBIB 100a4a08     libucrt:cfout.obj
 0002:000254e0       ?large_power_indices@?1??multiply_by_power_of_ten@__crt_strtox@@YA_NAAUbig_integer@2@I@Z@4QBUunpack_index@?1??12@YA_N0I@Z@B 100a54e0     libucrt:cfout.obj
 0002:00025598       ?small_powers_of_ten@?6??multiply_by_power_of_ten@__crt_strtox@@YA_NAAUbig_integer@2@I@Z@4QBIB 100a5598     libucrt:cfout.obj
 0002:000255c4       ??_C@_01GBGANLPD@0?$AA@    100a55c4     libucrt:cfout.obj
 0002:000255c8       ??_C@_05DNEBIAHO@1?$CDINF?$AA@ 100a55c8     libucrt:cfout.obj
 0002:000255d0       ??_C@_06IMKFLFPG@1?$CDQNAN?$AA@ 100a55d0     libucrt:cfout.obj
 0002:000255d8       ??_C@_06PGGFOGJG@1?$CDSNAN?$AA@ 100a55d8     libucrt:cfout.obj
 0002:000255e0       ??_C@_05PHHOCPM@1?$CDIND?$AA@ 100a55e0     libucrt:cfout.obj
 0002:000255e8       ??_C@_1BC@LLOKLNP@?$AAa?$AAm?$AAe?$AAr?$AAi?$AAc?$AAa?$AAn?$AA?$AA@ 100a55e8     libucrt:get_qualified_locale.obj
 0002:00025600       ??_C@_1CC@HEIGCDGG@?$AAa?$AAm?$AAe?$AAr?$AAi?$AAc?$AAa?$AAn?$AA?5?$AAe?$AAn?$AAg?$AAl?$AAi?$AAs?$AAh?$AA?$AA@ 100a5600     libucrt:get_qualified_locale.obj
 0002:00025628       ??_C@_1CC@IHCNOMIN@?$AAa?$AAm?$AAe?$AAr?$AAi?$AAc?$AAa?$AAn?$AA?9?$AAe?$AAn?$AAg?$AAl?$AAi?$AAs?$AAh?$AA?$AA@ 100a5628     libucrt:get_qualified_locale.obj
 0002:00025650       ??_C@_1BG@GKAGPCGG@?$AAa?$AAu?$AAs?$AAt?$AAr?$AAa?$AAl?$AAi?$AAa?$AAn?$AA?$AA@ 100a5650     libucrt:get_qualified_locale.obj
 0002:0002566c       ??_C@_1BA@GMENCENF@?$AAb?$AAe?$AAl?$AAg?$AAi?$AAa?$AAn?$AA?$AA@ 100a566c     libucrt:get_qualified_locale.obj
 0002:00025680       ??_C@_1BC@PJMIIAAN@?$AAc?$AAa?$AAn?$AAa?$AAd?$AAi?$AAa?$AAn?$AA?$AA@ 100a5680     libucrt:get_qualified_locale.obj
 0002:00025698       ??_C@_17NOIMNFBF@?$AAc?$AAh?$AAh?$AA?$AA@ 100a5698     libucrt:get_qualified_locale.obj
 0002:000256a4       ??_C@_17GGDALCHA@?$AAc?$AAh?$AAi?$AA?$AA@ 100a56a4     libucrt:get_qualified_locale.obj
 0002:000256b0       ??_C@_1BA@NPNJKIBL@?$AAc?$AAh?$AAi?$AAn?$AAe?$AAs?$AAe?$AA?$AA@ 100a56b0     libucrt:get_qualified_locale.obj
 0002:000256c4       ??_C@_1CC@DINBAMMJ@?$AAc?$AAh?$AAi?$AAn?$AAe?$AAs?$AAe?$AA?9?$AAh?$AAo?$AAn?$AAg?$AAk?$AAo?$AAn?$AAg?$AA?$AA@ 100a56c4     libucrt:get_qualified_locale.obj
 0002:000256ec       ??_C@_1CG@IOBJPACO@?$AAc?$AAh?$AAi?$AAn?$AAe?$AAs?$AAe?$AA?9?$AAs?$AAi?$AAm?$AAp?$AAl?$AAi?$AAf?$AAi?$AAe?$AAd?$AA?$AA@ 100a56ec     libucrt:get_qualified_locale.obj
 0002:0002571c       ??_C@_1CE@GAJNDCKG@?$AAc?$AAh?$AAi?$AAn?$AAe?$AAs?$AAe?$AA?9?$AAs?$AAi?$AAn?$AAg?$AAa?$AAp?$AAo?$AAr?$AAe?$AA?$AA@ 100a571c     libucrt:get_qualified_locale.obj
 0002:00025748       ??_C@_1CI@PAJPIOOD@?$AAc?$AAh?$AAi?$AAn?$AAe?$AAs?$AAe?$AA?9?$AAt?$AAr?$AAa?$AAd?$AAi?$AAt?$AAi?$AAo?$AAn?$AAa?$AAl?$AA?$AA@ 100a5748     libucrt:get_qualified_locale.obj
 0002:00025778       ??_C@_1BM@NILJBMMD@?$AAd?$AAu?$AAt?$AAc?$AAh?$AA?9?$AAb?$AAe?$AAl?$AAg?$AAi?$AAa?$AAn?$AA?$AA@ 100a5778     libucrt:get_qualified_locale.obj
 0002:0002579c       ??_C@_1CC@OOJPJNEJ@?$AAe?$AAn?$AAg?$AAl?$AAi?$AAs?$AAh?$AA?9?$AAa?$AAm?$AAe?$AAr?$AAi?$AAc?$AAa?$AAn?$AA?$AA@ 100a579c     libucrt:get_qualified_locale.obj
 0002:000257c4       ??_C@_1BI@IOLFEEM@?$AAe?$AAn?$AAg?$AAl?$AAi?$AAs?$AAh?$AA?9?$AAa?$AAu?$AAs?$AA?$AA@ 100a57c4     libucrt:get_qualified_locale.obj
 0002:000257e0       ??_C@_1BO@HFFNLENJ@?$AAe?$AAn?$AAg?$AAl?$AAi?$AAs?$AAh?$AA?9?$AAb?$AAe?$AAl?$AAi?$AAz?$AAe?$AA?$AA@ 100a57e0     libucrt:get_qualified_locale.obj
 0002:00025804       ??_C@_1BI@HAPKJMPO@?$AAe?$AAn?$AAg?$AAl?$AAi?$AAs?$AAh?$AA?9?$AAc?$AAa?$AAn?$AA?$AA@ 100a5804     libucrt:get_qualified_locale.obj
 0002:00025820       ??_C@_1CE@HLNDMIOJ@?$AAe?$AAn?$AAg?$AAl?$AAi?$AAs?$AAh?$AA?9?$AAc?$AAa?$AAr?$AAi?$AAb?$AAb?$AAe?$AAa?$AAn?$AA?$AA@ 100a5820     libucrt:get_qualified_locale.obj
 0002:0002584c       ??_C@_1BI@LDHJHHAC@?$AAe?$AAn?$AAg?$AAl?$AAi?$AAs?$AAh?$AA?9?$AAi?$AAr?$AAe?$AA?$AA@ 100a584c     libucrt:get_qualified_locale.obj
 0002:00025868       ??_C@_1CA@NJMMCFOC@?$AAe?$AAn?$AAg?$AAl?$AAi?$AAs?$AAh?$AA?9?$AAj?$AAa?$AAm?$AAa?$AAi?$AAc?$AAa?$AA?$AA@ 100a5868     libucrt:get_qualified_locale.obj
 0002:00025890       ??_C@_1BG@BHJEBBGG@?$AAe?$AAn?$AAg?$AAl?$AAi?$AAs?$AAh?$AA?9?$AAn?$AAz?$AA?$AA@ 100a5890     libucrt:get_qualified_locale.obj
 0002:000258ac       ??_C@_1CK@FGOEJJCO@?$AAe?$AAn?$AAg?$AAl?$AAi?$AAs?$AAh?$AA?9?$AAs?$AAo?$AAu?$AAt?$AAh?$AA?5?$AAa?$AAf?$AAr?$AAi?$AAc?$AAa?$AA?$AA@ 100a58ac     libucrt:get_qualified_locale.obj
 0002:000258e0       ??_C@_1DE@PDBJPCJ@?$AAe?$AAn?$AAg?$AAl?$AAi?$AAs?$AAh?$AA?9?$AAt?$AAr?$AAi?$AAn?$AAi?$AAd?$AAa?$AAd?$AA?5?$AAy?$AA?5?$AAt?$AAo?$AAb?$AAa?$AAg?$AAo?$AA?$AA@ 100a58e0     libucrt:get_qualified_locale.obj
 0002:00025920       ??_C@_1BG@JGCANDME@?$AAe?$AAn?$AAg?$AAl?$AAi?$AAs?$AAh?$AA?9?$AAu?$AAk?$AA?$AA@ 100a5920     libucrt:get_qualified_locale.obj
 0002:0002593c       ??_C@_1BG@DINKMLE@?$AAe?$AAn?$AAg?$AAl?$AAi?$AAs?$AAh?$AA?9?$AAu?$AAs?$AA?$AA@ 100a593c     libucrt:get_qualified_locale.obj
 0002:00025958       ??_C@_1BI@NMFDBHJE@?$AAe?$AAn?$AAg?$AAl?$AAi?$AAs?$AAh?$AA?9?$AAu?$AAs?$AAa?$AA?$AA@ 100a5958     libucrt:get_qualified_locale.obj
 0002:00025974       ??_C@_1BO@OIHKJKII@?$AAf?$AAr?$AAe?$AAn?$AAc?$AAh?$AA?9?$AAb?$AAe?$AAl?$AAg?$AAi?$AAa?$AAn?$AA?$AA@ 100a5974     libucrt:get_qualified_locale.obj
 0002:00025998       ??_C@_1CA@NKAELJKI@?$AAf?$AAr?$AAe?$AAn?$AAc?$AAh?$AA?9?$AAc?$AAa?$AAn?$AAa?$AAd?$AAi?$AAa?$AAn?$AA?$AA@ 100a5998     libucrt:get_qualified_locale.obj
 0002:000259c0       ??_C@_1CE@MGKCNLGN@?$AAf?$AAr?$AAe?$AAn?$AAc?$AAh?$AA?9?$AAl?$AAu?$AAx?$AAe?$AAm?$AAb?$AAo?$AAu?$AAr?$AAg?$AA?$AA@ 100a59c0     libucrt:get_qualified_locale.obj
 0002:000259ec       ??_C@_1BK@CEGEAILM@?$AAf?$AAr?$AAe?$AAn?$AAc?$AAh?$AA?9?$AAs?$AAw?$AAi?$AAs?$AAs?$AA?$AA@ 100a59ec     libucrt:get_qualified_locale.obj
 0002:00025a0c       ??_C@_1CA@PAFKEOCC@?$AAg?$AAe?$AAr?$AAm?$AAa?$AAn?$AA?9?$AAa?$AAu?$AAs?$AAt?$AAr?$AAi?$AAa?$AAn?$AA?$AA@ 100a5a0c     libucrt:get_qualified_locale.obj
 0002:00025a34       ??_C@_1CI@HCFHGOFD@?$AAg?$AAe?$AAr?$AAm?$AAa?$AAn?$AA?9?$AAl?$AAi?$AAc?$AAh?$AAt?$AAe?$AAn?$AAs?$AAt?$AAe?$AAi?$AAn?$AA?$AA@ 100a5a34     libucrt:get_qualified_locale.obj
 0002:00025a64       ??_C@_1CE@FEDDNPDG@?$AAg?$AAe?$AAr?$AAm?$AAa?$AAn?$AA?9?$AAl?$AAu?$AAx?$AAe?$AAm?$AAb?$AAo?$AAu?$AAr?$AAg?$AA?$AA@ 100a5a64     libucrt:get_qualified_locale.obj
 0002:00025a90       ??_C@_1BK@LIMINNMN@?$AAg?$AAe?$AAr?$AAm?$AAa?$AAn?$AA?9?$AAs?$AAw?$AAi?$AAs?$AAs?$AA?$AA@ 100a5a90     libucrt:get_qualified_locale.obj
 0002:00025ab0       ??_C@_1BM@LGMDBEPD@?$AAi?$AAr?$AAi?$AAs?$AAh?$AA?9?$AAe?$AAn?$AAg?$AAl?$AAi?$AAs?$AAh?$AA?$AA@ 100a5ab0     libucrt:get_qualified_locale.obj
 0002:00025ad4       ??_C@_1BM@NNCFBAEE@?$AAi?$AAt?$AAa?$AAl?$AAi?$AAa?$AAn?$AA?9?$AAs?$AAw?$AAi?$AAs?$AAs?$AA?$AA@ 100a5ad4     libucrt:get_qualified_locale.obj
 0002:00025af8       ??_C@_1BE@FEDJNPIB@?$AAn?$AAo?$AAr?$AAw?$AAe?$AAg?$AAi?$AAa?$AAn?$AA?$AA@ 100a5af8     libucrt:get_qualified_locale.obj
 0002:00025b10       ??_C@_1CC@CILKDEIE@?$AAn?$AAo?$AAr?$AAw?$AAe?$AAg?$AAi?$AAa?$AAn?$AA?9?$AAb?$AAo?$AAk?$AAm?$AAa?$AAl?$AA?$AA@ 100a5b10     libucrt:get_qualified_locale.obj
 0002:00025b38       ??_C@_1CE@DHMMHEPL@?$AAn?$AAo?$AAr?$AAw?$AAe?$AAg?$AAi?$AAa?$AAn?$AA?9?$AAn?$AAy?$AAn?$AAo?$AAr?$AAs?$AAk?$AA?$AA@ 100a5b38     libucrt:get_qualified_locale.obj
 0002:00025b64       ??_C@_1CK@OPNMHECD@?$AAp?$AAo?$AAr?$AAt?$AAu?$AAg?$AAu?$AAe?$AAs?$AAe?$AA?9?$AAb?$AAr?$AAa?$AAz?$AAi?$AAl?$AAi?$AAa?$AAn?$AA?$AA@ 100a5b64     libucrt:get_qualified_locale.obj
 0002:00025b98       ??_C@_1CE@KEEHCDB@?$AAs?$AAp?$AAa?$AAn?$AAi?$AAs?$AAh?$AA?9?$AAa?$AAr?$AAg?$AAe?$AAn?$AAt?$AAi?$AAn?$AAa?$AA?$AA@ 100a5b98     libucrt:get_qualified_locale.obj
 0002:00025bc4       ??_C@_1CA@GIAOLHJD@?$AAs?$AAp?$AAa?$AAn?$AAi?$AAs?$AAh?$AA?9?$AAb?$AAo?$AAl?$AAi?$AAv?$AAi?$AAa?$AA?$AA@ 100a5bc4     libucrt:get_qualified_locale.obj
 0002:00025bec       ??_C@_1BM@OJNDFNPD@?$AAs?$AAp?$AAa?$AAn?$AAi?$AAs?$AAh?$AA?9?$AAc?$AAh?$AAi?$AAl?$AAe?$AA?$AA@ 100a5bec     libucrt:get_qualified_locale.obj
 0002:00025c10       ??_C@_1CC@OCOLPALL@?$AAs?$AAp?$AAa?$AAn?$AAi?$AAs?$AAh?$AA?9?$AAc?$AAo?$AAl?$AAo?$AAm?$AAb?$AAi?$AAa?$AA?$AA@ 100a5c10     libucrt:get_qualified_locale.obj
 0002:00025c38       ??_C@_1CG@BPOFMKBB@?$AAs?$AAp?$AAa?$AAn?$AAi?$AAs?$AAh?$AA?9?$AAc?$AAo?$AAs?$AAt?$AAa?$AA?5?$AAr?$AAi?$AAc?$AAa?$AA?$AA@ 100a5c38     libucrt:get_qualified_locale.obj
 0002:00025c68       ??_C@_1DG@IGOBAPBB@?$AAs?$AAp?$AAa?$AAn?$AAi?$AAs?$AAh?$AA?9?$AAd?$AAo?$AAm?$AAi?$AAn?$AAi?$AAc?$AAa?$AAn?$AA?5?$AAr?$AAe?$AAp?$AAu?$AAb?$AAl?$AAi?$AAc?$AA?$AA@ 100a5c68     libucrt:get_qualified_locale.obj
 0002:00025ca8       ??_C@_1CA@JHAPGEGI@?$AAs?$AAp?$AAa?$AAn?$AAi?$AAs?$AAh?$AA?9?$AAe?$AAc?$AAu?$AAa?$AAd?$AAo?$AAr?$AA?$AA@ 100a5ca8     libucrt:get_qualified_locale.obj
 0002:00025cd0       ??_C@_1CI@LAPALJPP@?$AAs?$AAp?$AAa?$AAn?$AAi?$AAs?$AAh?$AA?9?$AAe?$AAl?$AA?5?$AAs?$AAa?$AAl?$AAv?$AAa?$AAd?$AAo?$AAr?$AA?$AA@ 100a5cd0     libucrt:get_qualified_locale.obj
 0002:00025d00       ??_C@_1CE@PDGBOFOM@?$AAs?$AAp?$AAa?$AAn?$AAi?$AAs?$AAh?$AA?9?$AAg?$AAu?$AAa?$AAt?$AAe?$AAm?$AAa?$AAl?$AAa?$AA?$AA@ 100a5d00     libucrt:get_qualified_locale.obj
 0002:00025d2c       ??_C@_1CC@NBEBAODI@?$AAs?$AAp?$AAa?$AAn?$AAi?$AAs?$AAh?$AA?9?$AAh?$AAo?$AAn?$AAd?$AAu?$AAr?$AAa?$AAs?$AA?$AA@ 100a5d2c     libucrt:get_qualified_locale.obj
 0002:00025d54       ??_C@_1CA@LLKGHBMF@?$AAs?$AAp?$AAa?$AAn?$AAi?$AAs?$AAh?$AA?9?$AAm?$AAe?$AAx?$AAi?$AAc?$AAa?$AAn?$AA?$AA@ 100a5d54     libucrt:get_qualified_locale.obj
 0002:00025d7c       ??_C@_1BO@LKNDOIGD@?$AAs?$AAp?$AAa?$AAn?$AAi?$AAs?$AAh?$AA?9?$AAm?$AAo?$AAd?$AAe?$AAr?$AAn?$AA?$AA@ 100a5d7c     libucrt:get_qualified_locale.obj
 0002:00025da0       ??_C@_1CE@NMDMOEEB@?$AAs?$AAp?$AAa?$AAn?$AAi?$AAs?$AAh?$AA?9?$AAn?$AAi?$AAc?$AAa?$AAr?$AAa?$AAg?$AAu?$AAa?$AA?$AA@ 100a5da0     libucrt:get_qualified_locale.obj
 0002:00025dcc       ??_C@_1BO@LLCBEJGB@?$AAs?$AAp?$AAa?$AAn?$AAi?$AAs?$AAh?$AA?9?$AAp?$AAa?$AAn?$AAa?$AAm?$AAa?$AA?$AA@ 100a5dcc     libucrt:get_qualified_locale.obj
 0002:00025df0       ??_C@_1CC@FKPGGIHO@?$AAs?$AAp?$AAa?$AAn?$AAi?$AAs?$AAh?$AA?9?$AAp?$AAa?$AAr?$AAa?$AAg?$AAu?$AAa?$AAy?$AA?$AA@ 100a5df0     libucrt:get_qualified_locale.obj
 0002:00025e18       ??_C@_1BK@CDEIHOOP@?$AAs?$AAp?$AAa?$AAn?$AAi?$AAs?$AAh?$AA?9?$AAp?$AAe?$AAr?$AAu?$AA?$AA@ 100a5e18     libucrt:get_qualified_locale.obj
 0002:00025e38       ??_C@_1CI@GAHAKKGP@?$AAs?$AAp?$AAa?$AAn?$AAi?$AAs?$AAh?$AA?9?$AAp?$AAu?$AAe?$AAr?$AAt?$AAo?$AA?5?$AAr?$AAi?$AAc?$AAo?$AA?$AA@ 100a5e38     libucrt:get_qualified_locale.obj
 0002:00025e68       ??_C@_1CA@NKJBCAGP@?$AAs?$AAp?$AAa?$AAn?$AAi?$AAs?$AAh?$AA?9?$AAu?$AAr?$AAu?$AAg?$AAu?$AAa?$AAy?$AA?$AA@ 100a5e68     libucrt:get_qualified_locale.obj
 0002:00025e90       ??_C@_1CE@ODILCONM@?$AAs?$AAp?$AAa?$AAn?$AAi?$AAs?$AAh?$AA?9?$AAv?$AAe?$AAn?$AAe?$AAz?$AAu?$AAe?$AAl?$AAa?$AA?$AA@ 100a5e90     libucrt:get_qualified_locale.obj
 0002:00025ebc       ??_C@_1CA@OBNMCGFO@?$AAs?$AAw?$AAe?$AAd?$AAi?$AAs?$AAh?$AA?9?$AAf?$AAi?$AAn?$AAl?$AAa?$AAn?$AAd?$AA?$AA@ 100a5ebc     libucrt:get_qualified_locale.obj
 0002:00025ee4       ??_C@_1M@PIPDDPPI@?$AAs?$AAw?$AAi?$AAs?$AAs?$AA?$AA@ 100a5ee4     libucrt:get_qualified_locale.obj
 0002:00025ef4       ??_C@_15GMFIMNFM@?$AAu?$AAs?$AA?$AA@ 100a5ef4     libucrt:get_qualified_locale.obj
 0002:00025efc       ??_C@_17HAEBFAGL@?$AAu?$AAs?$AAa?$AA?$AA@ 100a5efc     libucrt:get_qualified_locale.obj
 0002:00025f08       ??_C@_1BA@DPFJEPHB@?$AAa?$AAm?$AAe?$AAr?$AAi?$AAc?$AAa?$AA?$AA@ 100a5f08     libucrt:get_qualified_locale.obj
 0002:00025f1c       ??_C@_1BA@ELOGGFK@?$AAb?$AAr?$AAi?$AAt?$AAa?$AAi?$AAn?$AA?$AA@ 100a5f1c     libucrt:get_qualified_locale.obj
 0002:00025f30       ??_C@_1M@GHBGIGDA@?$AAc?$AAh?$AAi?$AAn?$AAa?$AA?$AA@ 100a5f30     libucrt:get_qualified_locale.obj
 0002:00025f40       ??_C@_1M@NCHEJOPO@?$AAc?$AAz?$AAe?$AAc?$AAh?$AA?$AA@ 100a5f40     libucrt:get_qualified_locale.obj
 0002:00025f50       ??_C@_1BA@BKPAPBLA@?$AAe?$AAn?$AAg?$AAl?$AAa?$AAn?$AAd?$AA?$AA@ 100a5f50     libucrt:get_qualified_locale.obj
 0002:00025f64       ??_C@_1BM@HKBCKIPC@?$AAg?$AAr?$AAe?$AAa?$AAt?$AA?5?$AAb?$AAr?$AAi?$AAt?$AAa?$AAi?$AAn?$AA?$AA@ 100a5f64     libucrt:get_qualified_locale.obj
 0002:00025f88       ??_C@_1BA@PPCHPGJB@?$AAh?$AAo?$AAl?$AAl?$AAa?$AAn?$AAd?$AA?$AA@ 100a5f88     libucrt:get_qualified_locale.obj
 0002:00025f9c       ??_C@_1BE@JBMPEGDG@?$AAh?$AAo?$AAn?$AAg?$AA?9?$AAk?$AAo?$AAn?$AAg?$AA?$AA@ 100a5f9c     libucrt:get_qualified_locale.obj
 0002:00025fb4       ??_C@_1BI@KOELBBPJ@?$AAn?$AAe?$AAw?$AA?9?$AAz?$AAe?$AAa?$AAl?$AAa?$AAn?$AAd?$AA?$AA@ 100a5fb4     libucrt:get_qualified_locale.obj
 0002:00025fd0       ??_C@_15HIEBHAIO@?$AAn?$AAz?$AA?$AA@ 100a5fd0     libucrt:get_qualified_locale.obj
 0002:00025fd8       ??_C@_1BC@CHBCPFPI@?$AAp?$AAr?$AA?5?$AAc?$AAh?$AAi?$AAn?$AAa?$AA?$AA@ 100a5fd8     libucrt:get_qualified_locale.obj
 0002:00025ff0       ??_C@_1BC@JAOIIFKD@?$AAp?$AAr?$AA?9?$AAc?$AAh?$AAi?$AAn?$AAa?$AA?$AA@ 100a5ff0     libucrt:get_qualified_locale.obj
 0002:00026008       ??_C@_1BI@BEHPPHKC@?$AAp?$AAu?$AAe?$AAr?$AAt?$AAo?$AA?9?$AAr?$AAi?$AAc?$AAo?$AA?$AA@ 100a6008     libucrt:get_qualified_locale.obj
 0002:00026024       ??_C@_1O@PAEOFKDI@?$AAs?$AAl?$AAo?$AAv?$AAa?$AAk?$AA?$AA@ 100a6024     libucrt:get_qualified_locale.obj
 0002:00026034       ??_C@_1BK@FIHMCKAM@?$AAs?$AAo?$AAu?$AAt?$AAh?$AA?5?$AAa?$AAf?$AAr?$AAi?$AAc?$AAa?$AA?$AA@ 100a6034     libucrt:get_qualified_locale.obj
 0002:00026054       ??_C@_1BI@NAEOODKB@?$AAs?$AAo?$AAu?$AAt?$AAh?$AA?5?$AAk?$AAo?$AAr?$AAe?$AAa?$AA?$AA@ 100a6054     libucrt:get_qualified_locale.obj
 0002:00026070       ??_C@_1BK@FBDGGIFF@?$AAs?$AAo?$AAu?$AAt?$AAh?$AA?9?$AAa?$AAf?$AAr?$AAi?$AAc?$AAa?$AA?$AA@ 100a6070     libucrt:get_qualified_locale.obj
 0002:00026090       ??_C@_1BI@GHLEJDPK@?$AAs?$AAo?$AAu?$AAt?$AAh?$AA?9?$AAk?$AAo?$AAr?$AAe?$AAa?$AA?$AA@ 100a6090     libucrt:get_qualified_locale.obj
 0002:000260ac       ??_C@_1CE@PLHLOMJF@?$AAt?$AAr?$AAi?$AAn?$AAi?$AAd?$AAa?$AAd?$AA?5?$AA?$CG?$AA?5?$AAt?$AAo?$AAb?$AAa?$AAg?$AAo?$AA?$AA@ 100a60ac     libucrt:get_qualified_locale.obj
 0002:000260d8       ??_C@_1BO@MODIMHHI@?$AAu?$AAn?$AAi?$AAt?$AAe?$AAd?$AA?9?$AAk?$AAi?$AAn?$AAg?$AAd?$AAo?$AAm?$AA?$AA@ 100a60d8     libucrt:get_qualified_locale.obj
 0002:000260fc       ??_C@_1BM@FFHJONBJ@?$AAu?$AAn?$AAi?$AAt?$AAe?$AAd?$AA?9?$AAs?$AAt?$AAa?$AAt?$AAe?$AAs?$AA?$AA@ 100a60fc     libucrt:get_qualified_locale.obj
 0002:00026120       ___acrt_rg_language        100a6120     libucrt:get_qualified_locale.obj
 0002:000264c8       ___acrt_rg_language_count  100a64c8     libucrt:get_qualified_locale.obj
 0002:000264d0       ___acrt_rg_country         100a64d0     libucrt:get_qualified_locale.obj
 0002:0002661c       ___acrt_rg_country_count   100a661c     libucrt:get_qualified_locale.obj
 0002:00026620       ??_C@_17DNCLJFIF@?$AAA?$AAC?$AAP?$AA?$AA@ 100a6620     libucrt:get_qualified_locale.obj
 0002:0002662c       ??_C@_17CIKBIHLH@?$AAO?$AAC?$AAP?$AA?$AA@ 100a662c     libucrt:get_qualified_locale.obj
 0002:00026638       ___rglangidNotDefault      100a6638     libucrt:getqloc_downlevel.obj
 0002:000266b8       ??_C@_1BA@BALFACEM@?$AAC?$AAO?$AAN?$AAO?$AAU?$AAT?$AA$?$AA?$AA@ 100a66b8     libucrt:initcon.obj
 0002:00026810       __infinity                 100a6810     libucrt:87tran.obj
 0002:0002681a       __minfinity                100a681a     libucrt:87tran.obj
 0002:00026824       __logemax                  100a6824     libucrt:87tran.obj
 0002:0002684a       __OP_EXPjmptab             100a684a     libucrt:87tran.obj
 0002:00026888       __DEFAULT_CW_in_mem        100a6888     libucrt:common.obj
 0002:0002688a       __pi_by_2_to_61            100a688a     libucrt:common.obj
 0002:000269e0       ___acrt_log10_table_t      100a69e0     libucrt:log10_tables.obj
 0002:00026ec0       ___acrt_log10_table_cb     100a6ec0     libucrt:log10_tables.obj
 0002:000273a4       ??_7type_info@@6B@         100a73a4     LIBCMT:std_type_info_static.obj
 0002:000273e8       __load_config_used         100a73e8     LIBCMT:loadcfg.obj
 0002:00027c68       ??_R4DNameNode@@6B@        100a7c68     libvcruntime:undname.obj
 0002:00027c80       ??_R3DNameNode@@8          100a7c80     libvcruntime:undname.obj
 0002:00027c94       ??_R2DNameNode@@8          100a7c94     libvcruntime:undname.obj
 0002:00027c9c       ??_R1A@?0A@EA@DNameNode@@8 100a7c9c     libvcruntime:undname.obj
 0002:00027cc0       ??_R4charNode@@6B@         100a7cc0     libvcruntime:undname.obj
 0002:00027cd8       ??_R3charNode@@8           100a7cd8     libvcruntime:undname.obj
 0002:00027cec       ??_R2charNode@@8           100a7cec     libvcruntime:undname.obj
 0002:00027cf8       ??_R1A@?0A@EA@charNode@@8  100a7cf8     libvcruntime:undname.obj
 0002:00027d1c       ??_R4pcharNode@@6B@        100a7d1c     libvcruntime:undname.obj
 0002:00027d34       ??_R3pcharNode@@8          100a7d34     libvcruntime:undname.obj
 0002:00027d48       ??_R2pcharNode@@8          100a7d48     libvcruntime:undname.obj
 0002:00027d54       ??_R1A@?0A@EA@pcharNode@@8 100a7d54     libvcruntime:undname.obj
 0002:00027d78       ??_R4pDNameNode@@6B@       100a7d78     libvcruntime:undname.obj
 0002:00027d90       ??_R3pDNameNode@@8         100a7d90     libvcruntime:undname.obj
 0002:00027da4       ??_R2pDNameNode@@8         100a7da4     libvcruntime:undname.obj
 0002:00027db0       ??_R1A@?0A@EA@pDNameNode@@8 100a7db0     libvcruntime:undname.obj
 0002:00027dd4       ??_R4DNameStatusNode@@6B@  100a7dd4     libvcruntime:undname.obj
 0002:00027dec       ??_R3DNameStatusNode@@8    100a7dec     libvcruntime:undname.obj
 0002:00027e00       ??_R2DNameStatusNode@@8    100a7e00     libvcruntime:undname.obj
 0002:00027e0c       ??_R1A@?0A@EA@DNameStatusNode@@8 100a7e0c     libvcruntime:undname.obj
 0002:00027e30       ??_R4pairNode@@6B@         100a7e30     libvcruntime:undname.obj
 0002:00027e48       ??_R3pairNode@@8           100a7e48     libvcruntime:undname.obj
 0002:00027e5c       ??_R2pairNode@@8           100a7e5c     libvcruntime:undname.obj
 0002:00027e68       ??_R1A@?0A@EA@pairNode@@8  100a7e68     libvcruntime:undname.obj
 0002:00027e8c       ??_R4type_info@@6B@        100a7e8c     LIBCMT:std_type_info_static.obj
 0002:00027ea4       ??_R3type_info@@8          100a7ea4     LIBCMT:std_type_info_static.obj
 0002:00027eb8       ??_R2type_info@@8          100a7eb8     LIBCMT:std_type_info_static.obj
 0002:00027ec0       ??_R1A@?0A@EA@type_info@@8 100a7ec0     LIBCMT:std_type_info_static.obj
 0002:00028000       ___safe_se_handler_table   100a8000     <linker-defined>
 0002:00028294       ___rtc_iaa                 100a8294     LIBCMT:_initsect_.obj
 0002:00028398       ___rtc_izz                 100a8398     LIBCMT:_initsect_.obj
 0002:0002849c       ___rtc_taa                 100a849c     LIBCMT:_initsect_.obj
 0002:000285a0       ___rtc_tzz                 100a85a0     LIBCMT:_initsect_.obj
 0003:00001490       _aaa_P                     100ab490     aaa_data.obj
 0003:00002940       _pci20041digout            100ac940     xpctarget.obj
 0003:00002944       _nipcdio24cnfg             100ac944     xpctarget.obj
 0003:00002948       _rtddm6604cnfg             100ac948     xpctarget.obj
 0003:00002a70       _sysPath_mb                100aca70     xpccanac2pci_vc:card_can_mbx.obj
 0003:00002ad0       _dldDeviceLoadData_pcmcia8_mb 100acad0     xpccanac2pci_vc:loadcard_mbx.obj
 0003:00002af0       _dldDeviceLoadData_pcmcia16_mb 100acaf0     xpccanac2pci_vc:loadcard_mbx.obj
 0003:00002b10       _dldDeviceLoadData_pci_mb  100acb10     xpccanac2pci_vc:loadcard_mbx.obj
 0003:00002b30       _dldDeviceLoadData_pc104_mb 100acb30     xpccanac2pci_vc:loadcard_mbx.obj
 0003:00002b60       _TimeoutCard_mb            100acb60     xpccanac2pci_vc:loadcard_mbx.obj
 0003:00002b88       _wboot_cpBytes_mb          100acb88     xpccanac2pci_vc:fboot_cp_mbx.obj
 0003:00002b90       _bboot_cpData_mb           100acb90     xpccanac2pci_vc:fboot_cp_mbx.obj
 0003:00002c68       _wldboardBytes_mb          100acc68     xpccanac2pci_vc:fldboard_mbx.obj
 0003:00002c70       _bldboardData_mb           100acc70     xpccanac2pci_vc:fldboard_mbx.obj
 0003:000032b8       _wcanpciBytes_mb           100ad2b8     xpccanac2pci_vc:fcanpci_mbx.obj
 0003:000032c0       _bcanpciData_mb            100ad2c0     xpccanac2pci_vc:fcanpci_mbx.obj
 0003:00011068       _DefaultCOMIOBase          100bb068     xpcruntime:xpcimports.obj
 0003:00011078       _DefaultCOMIRQ             100bb078     xpcruntime:xpcimports.obj
 0003:00011090       ___security_cookie_complement 100bb090     LIBCMT:gs_cookie.obj
 0003:00011094       ___security_cookie         100bb094     LIBCMT:gs_cookie.obj
 0003:0001109c       __fltused                  100bb09c     LIBCMT:fltused.obj
 0003:000110a0       ___isa_enabled             100bb0a0     LIBCMT:_cpu_disp_.obj
 0003:000110a4       ___scrt_native_dllmain_reason 100bb0a4     LIBCMT:utility.obj
 0003:000110c0       __NLG_Destination          100bb0c0     libvcruntime:_exsup_.obj
 0003:000110d8       __iob                      100bb0d8     libucrt:_file.obj
 0003:000111b4       ___abort_behavior          100bb1b4     libucrt:abort.obj
 0003:000111c0       ___badioinfo               100bb1c0     libucrt:ioinit.obj
 0003:00011204       ___mb_cur_max              100bb204     libucrt:nlsdata.obj
 0003:00011208       ___acrt_initial_locale_data 100bb208     libucrt:nlsdata.obj
 0003:000112e4       ___acrt_initial_locale_pointers 100bb2e4     libucrt:nlsdata.obj
 0003:000112f0       ___acrt_wide_c_locale_string 100bb2f0     libucrt:nlsdata.obj
 0003:00011300       __lookuptrailbytes         100bb300     libucrt:read.obj
 0003:00011560       __mbctype                  100bb560     libucrt:mbctype.obj
 0003:00011698       __mbcasemap                100bb698     libucrt:mbctype.obj
 0003:000117d0       ___acrt_initial_multibyte_data 100bb7d0     libucrt:mbctype.obj
 0003:00011a5c       ___acrt_current_multibyte_data 100bba5c     libucrt:mbctype.obj
 0003:00011a60       __pctype                   100bba60     libucrt:ctype.obj
 0003:00011a64       __pwctype                  100bba64     libucrt:ctype.obj
 0003:00011a68       ___globallocalestatus      100bba68     libucrt:glstatus.obj
 0003:00011a6c       ___acrt_lconv_static_decimal 100bba6c     libucrt:localeconv.obj
 0003:00011a70       ___acrt_lconv_static_W_decimal 100bba70     libucrt:localeconv.obj
 0003:00011a78       ___acrt_lconv_c            100bba78     libucrt:localeconv.obj
 0003:00011ad8       ___acrt_lconv              100bbad8     libucrt:localeconv.obj
 0003:00011ae0       ___dcrt_lowio_console_output_handle 100bbae0     libucrt:initcon.obj
 0003:00011c28       ??_R0?AVDNameNode@@@8      100bbc28     libvcruntime:undname.obj
 0003:00011c44       ??_R0?AVcharNode@@@8       100bbc44     libvcruntime:undname.obj
 0003:00011c60       ??_R0?AVpcharNode@@@8      100bbc60     libvcruntime:undname.obj
 0003:00011c7c       ??_R0?AVpDNameNode@@@8     100bbc7c     libvcruntime:undname.obj
 0003:00011c9c       ??_R0?AVDNameStatusNode@@@8 100bbc9c     libvcruntime:undname.obj
 0003:00011cc0       ??_R0?AVpairNode@@@8       100bbcc0     libvcruntime:undname.obj
 0003:00011cdc       ??_R0?AVtype_info@@@8      100bbcdc     LIBCMT:std_type_info_static.obj
 0003:00011e5c       ___isa_available_default   100bbe5c     rt_logging.obj
 0003:00011e6c       _xmlsize                   100bbe6c     xpctarget.obj
 0003:00011e70       _pci20098PortA             100bbe70     xpctarget.obj
 0003:00011e74       _pci20098PortB             100bbe74     xpctarget.obj
 0003:00011e78       _siepowercan_firmware_initialized 100bbe78     xpctarget.obj
 0003:00011e7c       _siepowercan_port1_configured 100bbe7c     xpctarget.obj
 0003:00011e80       _siepowercan_port2_configured 100bbe80     xpctarget.obj
 0003:00011e84       _CANAC2_FIRMWARE_LOADED    100bbe84     xpctarget.obj
 0003:00011e88       _rs232ports                100bbe88     xpctarget.obj
 0003:00011e98       _NI_AT_MIO_16F_5_commreg2  100bbe98     xpctarget.obj
 0003:00011e9c       _RTD_DM6430_init           100bbe9c     xpctarget.obj
 0003:00011ea0       _RTD_DM6420_init           100bbea0     xpctarget.obj
 0003:00011ea4       _CANAC2_FIRMWARE_LOADED_mb1 100bbea4     xpctarget.obj
 0003:00011ea8       _CANAC2_FIRMWARE_LOADED_mb2 100bbea8     xpctarget.obj
 0003:00011eac       _CANAC2_FIRMWARE_LOADED_mb3 100bbeac     xpctarget.obj
 0003:00012448       _SignalsDefined_mbx        100bc448     xpccanac2pci_vc:card_can_mbx.obj
 0003:00012460       _bus_state1_mbx            100bc460     xpccanac2pci_vc:card_can_mbx.obj
 0003:000124a8       _bus_state2_mbx            100bc4a8     xpccanac2pci_vc:card_can_mbx.obj
 0003:000124ec       _old_status_reg1_mbx       100bc4ec     xpccanac2pci_vc:card_can_mbx.obj
 0003:00012500       _old_status_reg2_mbx       100bc500     xpccanac2pci_vc:card_can_mbx.obj
 0003:00012540       _boLoadCardSuccessful_mbx  100bc540     xpccanac2pci_vc:card_ini_mbx.obj
 0003:00012588       _PnPPhysAccessHandle_mbx   100bc588     xpccanac2pci_vc:card_ini_mbx.obj
 0003:000125d0       _dpram_ptr_mbx             100bc5d0     xpccanac2pci_vc:card_ini_mbx.obj
 0003:00012618       _attribute_ptr_mbx         100bc618     xpccanac2pci_vc:card_ini_mbx.obj
 0003:000140c4       ___isa_available           100be0c4     LIBCMT:_cpu_disp_.obj
 0003:000140c8       ___favor                   100be0c8     LIBCMT:_cpu_disp_.obj
 0003:000140d4       ___scrt_current_native_startup_state 100be0d4     LIBCMT:utility.obj
 0003:000140d8       ___scrt_native_startup_lock 100be0d8     LIBCMT:utility.obj
 0003:00014100       ?__type_info_root_node@@3U__type_info_node@@A 100be100     LIBCMT:tncleanup.obj
 0003:00014110       ?_OptionsStorage@?1??__local_stdio_printf_options@@9@4_KA 100be110     LIBCMT:default_local_stdio_options.obj
 0003:00014120       ?_OptionsStorage@?1??__local_stdio_scanf_options@@9@4_KA 100be120     LIBCMT:default_local_stdio_options.obj
 0003:0001412c       ___scrt_debugger_hook_flag 100be12c     LIBCMT:utility_desktop.obj
 0003:000141c4       ___pPurecall               100be1c4     libvcruntime:purevirt_data.obj
 0003:000141c8       ?pArgList@UnDecorator@@0PAVReplicator@@A 100be1c8     libvcruntime:undname.obj
 0003:000141cc       ?pZNameList@UnDecorator@@0PAVReplicator@@A 100be1cc     libvcruntime:undname.obj
 0003:000141d0       ?pTemplateArgList@UnDecorator@@0PAVReplicator@@A 100be1d0     libvcruntime:undname.obj
 0003:000141d4       ?gName@UnDecorator@@0PBDB  100be1d4     libvcruntime:undname.obj
 0003:000141d8       ?name@UnDecorator@@0PBDB   100be1d8     libvcruntime:undname.obj
 0003:000141dc       ?outputString@UnDecorator@@0PADA 100be1dc     libvcruntime:undname.obj
 0003:000141e0       ?maxStringLength@UnDecorator@@0HA 100be1e0     libvcruntime:undname.obj
 0003:000141e4       ?disableFlags@UnDecorator@@0KA 100be1e4     libvcruntime:undname.obj
 0003:000141e8       ?fExplicitTemplateParams@UnDecorator@@0_NA 100be1e8     libvcruntime:undname.obj
 0003:000141e9       ?fGetTemplateArgumentList@UnDecorator@@0_NA 100be1e9     libvcruntime:undname.obj
 0003:000141ec       ?m_pGetParameter@UnDecorator@@0P6APADJ@ZA 100be1ec     libvcruntime:undname.obj
 0003:00014210       ?nodes@?1??make@DNameStatusNode@@SAPAV2@W4DNameStatus@@@Z@4PAV2@A 100be210     libvcruntime:undname.obj
 0003:0001424c       ??_B?1??make@DNameStatusNode@@SAPAV1@W4DNameStatus@@@Z@51 100be24c     libvcruntime:undname.obj
 0003:00014250       __nstream                  100be250     libucrt:_file.obj
 0003:00014254       ___piob                    100be254     libucrt:_file.obj
 0003:0001425c       __cflush                   100be25c     libucrt:_file.obj
 0003:00014624       __environ_table            100be624     libucrt:environment_initialization.obj
 0003:00014628       __wenviron_table           100be628     libucrt:environment_initialization.obj
 0003:00014630       ___dcrt_initial_wide_environment 100be630     libucrt:environment_initialization.obj
 0003:00014634       ___dcrt_initial_narrow_environment 100be634     libucrt:environment_initialization.obj
 0003:00014638       ___acrt_atexit_table       100be638     libucrt:onexit.obj
 0003:00014648       ___acrt_at_quick_exit_table 100be648     libucrt:onexit.obj
 0003:00014768       ___pioinfo                 100be768     libucrt:ioinit.obj
 0003:000149d0       __nhandle                  100be9d0     libucrt:ioinit.obj
 0003:000149d8       ___acrt_stdout_buffer      100be9d8     libucrt:_sftbuf.obj
 0003:000149dc       ___acrt_stderr_buffer      100be9dc     libucrt:_sftbuf.obj
 0003:000149e0       ___acrt_locale_changed_data 100be9e0     libucrt:wsetlocale.obj
 0003:000149e4       ___acrt_current_locale_data 100be9e4     libucrt:nlsdata.obj
 0003:000152ec       ___mblocalename            100bf2ec     libucrt:mbctype.obj
 0003:000152f0       ___mbcodepage              100bf2f0     libucrt:mbctype.obj
 0003:000152f4       ___ismbcodepage            100bf2f4     libucrt:mbctype.obj
 0003:000152f8       ___mbulinfo                100bf2f8     libucrt:mbctype.obj
 0003:0001530c       ___argc                    100bf30c     libucrt:argv_data.obj
 0003:00015310       ___argv                    100bf310     libucrt:argv_data.obj
 0003:00015314       ___wargv                   100bf314     libucrt:argv_data.obj
 0003:00015318       __acmdln                   100bf318     libucrt:argv_data.obj
 0003:0001531c       __wcmdln                   100bf31c     libucrt:argv_data.obj
 0003:00015320       __pgmptr                   100bf320     libucrt:argv_data.obj
 0003:00015324       __wpgmptr                  100bf324     libucrt:argv_data.obj
 0003:00015328       ___acrt_heap               100bf328     libucrt:heap_handle.obj
 0003:00015334       ___acrt_lconv_static_null  100bf334     libucrt:localeconv.obj
 0003:00015338       ___acrt_lconv_static_W_null 100bf338     libucrt:localeconv.obj
 0003:0001533c       ___fastflag                100bf33c     libucrt:fp_flags.obj
 0003:00015340       __commode                  100bf340     libucrt:ncommode.obj
 0003:00015344       __umaskval                 100bf344     libucrt:umask.obj
 0003:0001534c       __fmode                    100bf34c     libucrt:txtmode.obj
 0003:00015360       _g_xpccanac2busstatusx     100bf360     <common>
 0003:000153b4       _Base_2                    100bf3b4     <common>
 0003:000153c4       _Base_1                    100bf3c4     <common>
 0003:000153e0       _CANAC2_2_receiveindex_mb3 100bf3e0     <common>
 0003:000184b4       _CANAC2_2_receivemaxindex_mb3 100c24b4     <common>
 0003:000184c0       _CANAC2_2_sendindex_mb3    100c24c0     <common>
 0003:000187e0       _CANAC2_2_sendmaxindex_mb3 100c27e0     <common>
 0003:00018800       _CANAC2_1_receiveindex_mb3 100c2800     <common>
 0003:00018b20       _CANAC2_1_receivemaxindex_mb3 100c2b20     <common>
 0003:00018b40       _CANAC2_1_sendindex_mb3    100c2b40     <common>
 0003:00018e60       _CANAC2_1_sendmaxindex_mb3 100c2e60     <common>
 0003:00018e80       _CANAC2_2_receive_mb3      100c2e80     <common>
 0003:000191a0       _CANAC2_2_send_mb3         100c31a0     <common>
 0003:000194c0       _CANAC2_1_receive_mb3      100c34c0     <common>
 0003:000197e0       _CANAC2_1_send_mb3         100c37e0     <common>
 0003:00019b00       _CANAC2_2_receiveindex_mb2 100c3b00     <common>
 0003:00019e20       _CANAC2_2_receivemaxindex_mb2 100c3e20     <common>
 0003:00019e40       _CANAC2_2_sendindex_mb2    100c3e40     <common>
 0003:0001a160       _CANAC2_2_sendmaxindex_mb2 100c4160     <common>
 0003:0001a180       _CANAC2_1_receiveindex_mb2 100c4180     <common>
 0003:0001a4a0       _CANAC2_1_receivemaxindex_mb2 100c44a0     <common>
 0003:0001a4c0       _CANAC2_1_sendindex_mb2    100c44c0     <common>
 0003:0001a7e0       _CANAC2_1_sendmaxindex_mb2 100c47e0     <common>
 0003:0001a800       _CANAC2_2_receive_mb2      100c4800     <common>
 0003:0001ab20       _CANAC2_2_send_mb2         100c4b20     <common>
 0003:0001ae40       _CANAC2_1_receive_mb2      100c4e40     <common>
 0003:0001b160       _CANAC2_1_send_mb2         100c5160     <common>
 0003:0001b480       _CANAC2_2_receiveindex_mb1 100c5480     <common>
 0003:0001b7a0       _CANAC2_2_receivemaxindex_mb1 100c57a0     <common>
 0003:0001b7c0       _CANAC2_2_sendindex_mb1    100c57c0     <common>
 0003:0001bae0       _CANAC2_2_sendmaxindex_mb1 100c5ae0     <common>
 0003:0001bb00       _CANAC2_1_receiveindex_mb1 100c5b00     <common>
 0003:0001be20       _CANAC2_1_receivemaxindex_mb1 100c5e20     <common>
 0003:0001be40       _CANAC2_1_sendindex_mb1    100c5e40     <common>
 0003:0001c160       _CANAC2_1_sendmaxindex_mb1 100c6160     <common>
 0003:0001c180       _CANAC2_2_receive_mb1      100c6180     <common>
 0003:0001c4a0       _CANAC2_2_send_mb1         100c64a0     <common>
 0003:0001c7c0       _CANAC2_1_receive_mb1      100c67c0     <common>
 0003:0001cae0       _CANAC2_1_send_mb1         100c6ae0     <common>
 0003:0001ce00       _CANAC2_2_receiveindex     100c6e00     <common>
 0003:0001d120       _CANAC2_2_receivemaxindex  100c7120     <common>
 0003:0001d140       _CANAC2_2_sendindex        100c7140     <common>
 0003:0001d460       _CANAC2_2_sendmaxindex     100c7460     <common>
 0003:0001d480       _CANAC2_1_receiveindex     100c7480     <common>
 0003:0001d7a0       _CANAC2_1_receivemaxindex  100c77a0     <common>
 0003:0001d7c0       _CANAC2_1_sendindex        100c77c0     <common>
 0003:0001dae0       _CANAC2_1_sendmaxindex     100c7ae0     <common>
 0003:0001db00       _CANAC2_2_receive          100c7b00     <common>
 0003:0001de20       _CANAC2_2_send             100c7e20     <common>
 0003:0001e140       _CANAC2_1_receive          100c8140     <common>
 0003:0001e460       _CANAC2_1_send             100c8460     <common>
 0003:0001e780       _siepowercan_can_object_buffer_port2 100c8780     <common>
 0003:000227a0       _siepowercan_can_object_buffer_port1 100cc7a0     <common>
 0003:000267a0       _rtNaNF                    100d07a0     <common>
 0003:000267b4       _rtMinusInfF               100d07b4     <common>
 0003:000267b8       _rtInfF                    100d07b8     <common>
 0003:000267c0       _rtNaN                     100d07c0     <common>
 0003:000267c8       _rtMinusInf                100d07c8     <common>
 0003:000267d0       _rtInf                     100d07d0     <common>
 0003:000267d8       ?_OptionsStorage@?1??__local_stdio_printf_options@@9@9 100d07d8     <common>
 0003:000271a0       _aaa_M_                    100d11a0     <common>
 0003:00028e60       _aaa_DW                    100d2e60     <common>
 0003:00029320       _aaa_B                     100d3320     <common>
 0003:0002a220       _ToutStartTime_mbx         100d4220     <common>
 0003:0002a320       _CanCardINIData_mbx        100d4320     <common>
 0003:0002a480       _CSnotused_mbx             100d4480     <common>
 0003:0002a4e0       _odOpenDevices_mbx         100d44e0     <common>
 0003:0002c720       _ditDeviceList_mbx         100d6720     <common>
 0003:0002cb60       _strDriverDLLName_mbx      100d6b60     <common>
 0003:0002cc80       _memBase_mbx               100d6c80     <common>
 0003:0002cce0       _access_mbx                100d6ce0     <common>
 0003:0002cd20       _intNo_mbx                 100d6d20     <common>
 0003:0002cd60       _ioBase_mbx                100d6d60     <common>
 0003:0002cda0       _bcancrd2Data_mbx          100d6da0     <common>
 0003:0002cdc0       _bcansjaData_mbx           100d6dc0     <common>
 0003:0002cdd1       _bcancardData_mb           100d6dd1     <common>
 0003:0002cde0       _bldcard2Data_mbx          100d6de0     <common>
 0003:0002ce00       _bldcardData_mbx           100d6e00     <common>
 0003:0002ce20       _bbcard2Data_mbx           100d6e20     <common>
 0003:0002ce40       _bbcardData_mbx            100d6e40     <common>
 0003:0002ce60       _Intr_mbx                  100d6e60     <common>
 0003:0002cee0       _IoAddress_mbx             100d6ee0     <common>
 0003:0002cf40       _int_regs2_mbx             100d6f40     <common>
 0003:0002d160       _info2_mbx                 100d7160     <common>
 0003:0002d1c0       _int_regs1_mbx             100d71c0     <common>
 0003:0002d220       _info1_mbx                 100d7220     <common>
 0003:0002d280       _fct2_mbx                  100d7280     <common>
 0003:0002d2e0       _fct1_mbx                  100d72e0     <common>
 0003:0002d340       _xmt_fifo2_mbx             100d7340     <common>
 0003:0002d3a0       _rcv_fifo2_mbx             100d73a0     <common>
 0003:0002d400       _xmt_fifo1_mbx             100d7400     <common>
 0003:0002d460       _rcv_fifo1_mbx             100d7460     <common>
 0003:0002d4c0       _temp2_mbx                 100d74c0     <common>
 0003:0002d4e0       _temp1_mbx                 100d74e0     <common>
 0003:0002d500       _object_buffer_enable2_mbx 100d7500     <common>
 0003:0002d560       _dyn_enable2_mbx           100d7560     <common>
 0003:0002d5c0       _object_buffer_enable1_mbx 100d75c0     <common>
 0003:0002d620       _dyn_enable1_mbx           100d7620     <common>
 0003:0002d680       _number_of_xmt_objects2_mbx 100d7680     <common>
 0003:0002d6e0       _number_of_xmt_objects1_mbx 100d76e0     <common>
 0003:0002d740       _number_of_rcv_objects2_mbx 100d7740     <common>
 0003:0002d7a0       _number_of_rcv_objects1_mbx 100d77a0     <common>
 0003:0002d800       _pb_mbx                    100d7800     <common>
 0003:0002d8e0       _TimeStampType_mbx         100d78e0     <common>
 0003:0002d940       _time2_temp3A_mbx          100d7940     <common>
 0003:0002d9a0       _time2_temp1A_mbx          100d79a0     <common>
 0003:0002da00       _time2_temp3_mbx           100d7a00     <common>
 0003:0002da60       _time2_temp2_mbx           100d7a60     <common>
 0003:0002dac0       _time2_temp1_mbx           100d7ac0     <common>
 0003:0002db20       _time1_temp3A_mbx          100d7b20     <common>
 0003:0002db80       _time1_temp1A_mbx          100d7b80     <common>
 0003:0002dbe0       _time1_temp3_mbx           100d7be0     <common>
 0003:0002dc40       _time1_temp2_mbx           100d7c40     <common>
 0003:0002dca0       _time1_temp1_mbx           100d7ca0     <common>
 0003:0002dce4       _socket                    100d7ce4     <common>
 0003:0002dd44       _inet_addr                 100d7d44     <common>
 0003:0002dd48       _sendto                    100d7d48     <common>
 0003:0002dd4c       _recvfrom                  100d7d4c     <common>
 0003:0002dd50       _listen                    100d7d50     <common>
 0003:0002dd54       _ioctlsocket               100d7d54     <common>
 0003:0002dd58       _connect                   100d7d58     <common>
 0003:0002dd5c       _closesocket               100d7d5c     <common>
 0003:0002dd60       _setsockopt                100d7d60     <common>
 0003:0002dd64       _bind                      100d7d64     <common>
 0003:0002dd68       _accept                    100d7d68     <common>
 0003:0002dd6c       _GetHostTarIPAdd           100d7d6c     <common>
 0003:0002dd70       _GetDCUUsage               100d7d70     <common>
 0003:0002dd74       _DeleteRoute               100d7d74     <common>
 0003:0002dd78       _AddGatewayRoute           100d7d78     <common>
 0003:0002dd7c       _SetIP                     100d7d7c     <common>
 0003:0002dd80       _CloseInterface            100d7d80     <common>
 0003:0002dd84       _OpenInterface             100d7d84     <common>
 0003:0002dd88       _SetIPTASKPriority         100d7d88     <common>
 0003:0002dd8c       _isUsedByRTIP              100d7d8c     <common>
 0003:0002dd90       _getlasterror              100d7d90     <common>
 0003:0002dd94       _slrtfsGetFileStatus       100d7d94     <common>
 0003:0002dd98       _slrtfsOpenFileAsync       100d7d98     <common>
 0003:0002dd9c       _slrtfsCloseFileAsync      100d7d9c     <common>
 0003:0002dda0       _slrtfsGetFileErrorMessage 100d7da0     <common>
 0003:0002dda4       _slrtfsGetFileError        100d7da4     <common>
 0003:0002dda8       _slrtfsWriteToFile         100d7da8     <common>
 0003:0002ddac       _slrtfsCloseFile           100d7dac     <common>
 0003:0002ddb0       _slrtfsOpenFile            100d7db0     <common>
 0003:0002ddb4       _slrtGetSgCRBSpace         100d7db4     <common>
 0003:0002ddb8       _slrtGetCRBScratchSpace    100d7db8     <common>
 0003:0002ddbc       _slrteSetupMSI             100d7dbc     <common>
 0003:0002ddc0       _slTestRegAssessment       100d7dc0     <common>
 0003:0002ddc4       _slTestTerminate           100d7dc4     <common>
 0003:0002ddc8       _slTestEvalOnFail          100d7dc8     <common>
 0003:0002ddcc       _slTestLogAssessments      100d7dcc     <common>
 0003:0002ddd0       _slTestInitialize          100d7dd0     <common>
 0003:0002ddd4       _unRegisterPTPTimeRead     100d7dd4     <common>
 0003:0002ddd8       _registerPTPTimeRead       100d7dd8     <common>
 0003:0002dddc       _slrteGetCurrentStepSize   100d7ddc     <common>
 0003:0002dde0       _slrteSetStepSizeDelta     100d7de0     <common>
 0003:0002dde4       _xpceGetIntTimerGranularityNS 100d7de4     <common>
 0003:0002dde8       _sendToAsyncQueueTgtAppSvc 100d7de8     <common>
 0003:0002ddec       _terminateToAsyncQueueTgtAppSvc 100d7dec     <common>
 0003:0002ddf0       _startToAsyncQueueTgtAppSvc 100d7df0     <common>
 0003:0002ddf4       _getStatusFlags            100d7df4     <common>
 0003:0002ddf8       _getCommService            100d7df8     <common>
 0003:0002ddfc       _getMemoryService          100d7dfc     <common>
 0003:0002de00       _StreamVideo               100d7e00     <common>
 0003:0002de04       _StopVideoDisplay          100d7e04     <common>
 0003:0002de08       _StartVideoDisplay         100d7e08     <common>
 0003:0002de0c       _DestroyVideoDisplay       100d7e0c     <common>
 0003:0002de10       _CreateVideoDisplay        100d7e10     <common>
 0003:0002de14       _ConvertUImage             100d7e14     <common>
 0003:0002de18       _StopVideo                 100d7e18     <common>
 0003:0002de1c       _ReadFrameBuffer           100d7e1c     <common>
 0003:0002de20       _StartVideo                100d7e20     <common>
 0003:0002de24       _GetVideoConfigs           100d7e24     <common>
 0003:0002de28       _FindUsbVideoDevice        100d7e28     <common>
 0003:0002de2c       _xpceDeleteSemaphore       100d7e2c     <common>
 0003:0002de30       _xpceSignalSemaphore       100d7e30     <common>
 0003:0002de34       _xpceWaitSemaphore         100d7e34     <common>
 0003:0002de38       _xpceCreateSemaphore       100d7e38     <common>
 0003:0002de3c       _TBGiveSpinFast            100d7e3c     <common>
 0003:0002de40       _TBTakeSpinFast            100d7e40     <common>
 0003:0002de44       _TBDeleteSpin              100d7e44     <common>
 0003:0002de48       _TBCreateSpin              100d7e48     <common>
 0003:0002de4c       _xpceScopeAcqOK            100d7e4c     <common>
 0003:0002de50       _rl32eRestartAcquisition   100d7e50     <common>
 0003:0002de54       _rl32eSetTargetScopeSigFt  100d7e54     <common>
 0003:0002de58       _rl32eSetTargetScope       100d7e58     <common>
 0003:0002de5c       _xpceFSScopeSet            100d7e5c     <common>
 0003:0002de60       _rl32eSetScope             100d7e60     <common>
 0003:0002de64       _rl32eAddSignal            100d7e64     <common>
 0003:0002de68       _rl32eGetSignalNo          100d7e68     <common>
 0003:0002de6c       _rl32eDefScope             100d7e6c     <common>
 0003:0002de70       _rl32eScopeExists          100d7e70     <common>
 0003:0002de74       _xpceGetParamDims          100d7e74     <common>
 0003:0002de78       _xpceGetParameter          100d7e78     <common>
 0003:0002de7c       _xpceSetParameter          100d7e7c     <common>
 0003:0002de80       _xpceGetSignalValue        100d7e80     <common>
 0003:0002de84       _xpceAssignPCIInterrupt    100d7e84     <common>
 0003:0002de88       _rl32eGetPCIInfoAtSlot     100d7e88     <common>
 0003:0002de8c       _rl32eGetPCIInfo           100d7e8c     <common>
 0003:0002de90       _rl32eShowPCIInfo          100d7e90     <common>
 0003:0002de94       _rl32eShowPCIDev           100d7e94     <common>
 0003:0002de98       _xpceGetTET                100d7e98     <common>
 0003:0002de9c       _xpceaddEvent              100d7e9c     <common>
 0003:0002dea0       _xpceDeRegisterISR         100d7ea0     <common>
 0003:0002dea4       _xpceRegisterISR           100d7ea4     <common>
 0003:0002dea8       _xpcIsModelInit            100d7ea8     <common>
 0003:0002deac       _xpcGetElapsedTime         100d7eac     <common>
 0003:0002deb0       _xpcBusyWait               100d7eb0     <common>
 0003:0002deb4       _xpcFreePhysicalMemory     100d7eb4     <common>
 0003:0002deb8       _xpcAllocPhysicalMemory    100d7eb8     <common>
 0003:0002debc       _xpcReserveMemoryRegion    100d7ebc     <common>
 0003:0002dec0       _xpcOutpB                  100d7ec0     <common>
 0003:0002dec4       _xpcOutpW                  100d7ec4     <common>
 0003:0002dec8       _xpcOutpDW                 100d7ec8     <common>
 0003:0002decc       _xpcInpB                   100d7ecc     <common>
 0003:0002ded0       _xpcInpW                   100d7ed0     <common>
 0003:0002ded4       _xpcInpDW                  100d7ed4     <common>
 0003:0002ded8       ___scrt_ucrt_dll_is_in_use 100d7ed8     <common>
 0003:0002dee4       ___dyn_tls_init_callback   100d7ee4     <common>
 0003:0002def0       __pDestructExceptionObject 100d7ef0     <common>
 0003:0002defc       __pmatherr                 100d7efc     <common>
 0003:0002df08       ___use_sse2_mathfcns       100d7f08     <common>
 0004:00000000       __imp__GetModuleHandleA@4  100d8000     kernel32:KERNEL32.dll
 0004:00000004       __imp__GetProcAddress@8    100d8004     kernel32:KERNEL32.dll
 0004:00000008       __imp__CloseHandle@4       100d8008     kernel32:KERNEL32.dll
 0004:0000000c       __imp__ReleaseSemaphore@12 100d800c     kernel32:KERNEL32.dll
 0004:00000010       __imp__WaitForSingleObject@8 100d8010     kernel32:KERNEL32.dll
 0004:00000014       __imp__Sleep@4             100d8014     kernel32:KERNEL32.dll
 0004:00000018       __imp__CreateThread@24     100d8018     kernel32:KERNEL32.dll
 0004:0000001c       __imp__TerminateThread@8   100d801c     kernel32:KERNEL32.dll
 0004:00000020       __imp__GetSystemTimeAsFileTime@4 100d8020     kernel32:KERNEL32.dll
 0004:00000024       __imp__CreateSemaphoreA@16 100d8024     kernel32:KERNEL32.dll
 0004:00000028       __imp__lstrlenA@4          100d8028     kernel32:KERNEL32.dll
 0004:0000002c       __imp__UnhandledExceptionFilter@4 100d802c     kernel32:KERNEL32.dll
 0004:00000030       __imp__SetUnhandledExceptionFilter@4 100d8030     kernel32:KERNEL32.dll
 0004:00000034       __imp__GetCurrentProcess@0 100d8034     kernel32:KERNEL32.dll
 0004:00000038       __imp__TerminateProcess@8  100d8038     kernel32:KERNEL32.dll
 0004:0000003c       __imp__IsProcessorFeaturePresent@4 100d803c     kernel32:KERNEL32.dll
 0004:00000040       __imp__QueryPerformanceCounter@4 100d8040     kernel32:KERNEL32.dll
 0004:00000044       __imp__GetCurrentProcessId@0 100d8044     kernel32:KERNEL32.dll
 0004:00000048       __imp__GetCurrentThreadId@0 100d8048     kernel32:KERNEL32.dll
 0004:0000004c       __imp__InitializeSListHead@4 100d804c     kernel32:KERNEL32.dll
 0004:00000050       __imp__IsDebuggerPresent@0 100d8050     kernel32:KERNEL32.dll
 0004:00000054       __imp__GetStartupInfoW@4   100d8054     kernel32:KERNEL32.dll
 0004:00000058       __imp__GetModuleHandleW@4  100d8058     kernel32:KERNEL32.dll
 0004:0000005c       __imp__InterlockedPushEntrySList@8 100d805c     kernel32:KERNEL32.dll
 0004:00000060       __imp__InterlockedFlushSList@4 100d8060     kernel32:KERNEL32.dll
 0004:00000064       __imp__RtlUnwind@16        100d8064     kernel32:KERNEL32.dll
 0004:00000068       __imp__GetLastError@0      100d8068     kernel32:KERNEL32.dll
 0004:0000006c       __imp__SetLastError@4      100d806c     kernel32:KERNEL32.dll
 0004:00000070       __imp__EnterCriticalSection@4 100d8070     kernel32:KERNEL32.dll
 0004:00000074       __imp__LeaveCriticalSection@4 100d8074     kernel32:KERNEL32.dll
 0004:00000078       __imp__DeleteCriticalSection@4 100d8078     kernel32:KERNEL32.dll
 0004:0000007c       __imp__InitializeCriticalSectionAndSpinCount@8 100d807c     kernel32:KERNEL32.dll
 0004:00000080       __imp__TlsAlloc@0          100d8080     kernel32:KERNEL32.dll
 0004:00000084       __imp__TlsGetValue@4       100d8084     kernel32:KERNEL32.dll
 0004:00000088       __imp__TlsSetValue@8       100d8088     kernel32:KERNEL32.dll
 0004:0000008c       __imp__TlsFree@4           100d808c     kernel32:KERNEL32.dll
 0004:00000090       __imp__FreeLibrary@4       100d8090     kernel32:KERNEL32.dll
 0004:00000094       __imp__LoadLibraryExW@12   100d8094     kernel32:KERNEL32.dll
 0004:00000098       __imp__ExitProcess@4       100d8098     kernel32:KERNEL32.dll
 0004:0000009c       __imp__GetModuleHandleExW@12 100d809c     kernel32:KERNEL32.dll
 0004:000000a0       __imp__GetStdHandle@4      100d80a0     kernel32:KERNEL32.dll
 0004:000000a4       __imp__GetFileType@4       100d80a4     kernel32:KERNEL32.dll
 0004:000000a8       __imp__GetModuleFileNameA@12 100d80a8     kernel32:KERNEL32.dll
 0004:000000ac       __imp__GetModuleFileNameW@12 100d80ac     kernel32:KERNEL32.dll
 0004:000000b0       __imp__WriteConsoleW@20    100d80b0     kernel32:KERNEL32.dll
 0004:000000b4       __imp__RaiseException@16   100d80b4     kernel32:KERNEL32.dll
 0004:000000b8       __imp__MultiByteToWideChar@24 100d80b8     kernel32:KERNEL32.dll
 0004:000000bc       __imp__WideCharToMultiByte@32 100d80bc     kernel32:KERNEL32.dll
 0004:000000c0       __imp__HeapFree@12         100d80c0     kernel32:KERNEL32.dll
 0004:000000c4       __imp__HeapAlloc@12        100d80c4     kernel32:KERNEL32.dll
 0004:000000c8       __imp__GetDateFormatW@24   100d80c8     kernel32:KERNEL32.dll
 0004:000000cc       __imp__GetTimeFormatW@24   100d80cc     kernel32:KERNEL32.dll
 0004:000000d0       __imp__CompareStringW@24   100d80d0     kernel32:KERNEL32.dll
 0004:000000d4       __imp__LCMapStringW@24     100d80d4     kernel32:KERNEL32.dll
 0004:000000d8       __imp__GetLocaleInfoW@16   100d80d8     kernel32:KERNEL32.dll
 0004:000000dc       __imp__IsValidLocale@8     100d80dc     kernel32:KERNEL32.dll
 0004:000000e0       __imp__GetUserDefaultLCID@0 100d80e0     kernel32:KERNEL32.dll
 0004:000000e4       __imp__EnumSystemLocalesW@8 100d80e4     kernel32:KERNEL32.dll
 0004:000000e8       __imp__GetCurrentThread@0  100d80e8     kernel32:KERNEL32.dll
 0004:000000ec       __imp__GetACP@0            100d80ec     kernel32:KERNEL32.dll
 0004:000000f0       __imp__HeapReAlloc@16      100d80f0     kernel32:KERNEL32.dll
 0004:000000f4       __imp__ReadFile@20         100d80f4     kernel32:KERNEL32.dll
 0004:000000f8       __imp__GetConsoleMode@8    100d80f8     kernel32:KERNEL32.dll
 0004:000000fc       __imp__ReadConsoleW@20     100d80fc     kernel32:KERNEL32.dll
 0004:00000100       __imp__WriteFile@20        100d8100     kernel32:KERNEL32.dll
 0004:00000104       __imp__GetConsoleCP@0      100d8104     kernel32:KERNEL32.dll
 0004:00000108       __imp__DeleteFileW@4       100d8108     kernel32:KERNEL32.dll
 0004:0000010c       __imp__SetFilePointerEx@20 100d810c     kernel32:KERNEL32.dll
 0004:00000110       __imp__OutputDebugStringA@4 100d8110     kernel32:KERNEL32.dll
 0004:00000114       __imp__OutputDebugStringW@4 100d8114     kernel32:KERNEL32.dll
 0004:00000118       __imp__WaitForSingleObjectEx@12 100d8118     kernel32:KERNEL32.dll
 0004:0000011c       __imp__SetConsoleCtrlHandler@8 100d811c     kernel32:KERNEL32.dll
 0004:00000120       __imp__FindClose@4         100d8120     kernel32:KERNEL32.dll
 0004:00000124       __imp__FindFirstFileExA@24 100d8124     kernel32:KERNEL32.dll
 0004:00000128       __imp__FindFirstFileExW@24 100d8128     kernel32:KERNEL32.dll
 0004:0000012c       __imp__FindNextFileA@8     100d812c     kernel32:KERNEL32.dll
 0004:00000130       __imp__FindNextFileW@8     100d8130     kernel32:KERNEL32.dll
 0004:00000134       __imp__IsValidCodePage@4   100d8134     kernel32:KERNEL32.dll
 0004:00000138       __imp__GetOEMCP@0          100d8138     kernel32:KERNEL32.dll
 0004:0000013c       __imp__GetCPInfo@8         100d813c     kernel32:KERNEL32.dll
 0004:00000140       __imp__GetCommandLineA@0   100d8140     kernel32:KERNEL32.dll
 0004:00000144       __imp__GetCommandLineW@0   100d8144     kernel32:KERNEL32.dll
 0004:00000148       __imp__GetEnvironmentStringsW@0 100d8148     kernel32:KERNEL32.dll
 0004:0000014c       __imp__FreeEnvironmentStringsW@4 100d814c     kernel32:KERNEL32.dll
 0004:00000150       __imp__SetEnvironmentVariableA@8 100d8150     kernel32:KERNEL32.dll
 0004:00000154       __imp__SetEnvironmentVariableW@8 100d8154     kernel32:KERNEL32.dll
 0004:00000158       __imp__GetProcessHeap@0    100d8158     kernel32:KERNEL32.dll
 0004:0000015c       __imp__GetStringTypeW@16   100d815c     kernel32:KERNEL32.dll
 0004:00000160       __imp__FlushFileBuffers@4  100d8160     kernel32:KERNEL32.dll
 0004:00000164       __imp__SetStdHandle@8      100d8164     kernel32:KERNEL32.dll
 0004:00000168       __imp__CreateFileW@28      100d8168     kernel32:KERNEL32.dll
 0004:0000016c       __imp__HeapSize@12         100d816c     kernel32:KERNEL32.dll
 0004:00000170       __imp__SetEndOfFile@4      100d8170     kernel32:KERNEL32.dll
 0004:00000174       __imp__EncodePointer@4     100d8174     kernel32:KERNEL32.dll
 0004:00000178       __imp__DecodePointer@4     100d8178     kernel32:KERNEL32.dll
 0004:0000017c       \177KERNEL32_NULL_THUNK_DATA 100d817c     kernel32:KERNEL32.dll
 0004:000001f4       __IMPORT_DESCRIPTOR_KERNEL32 100d81f4     kernel32:KERNEL32.dll
 0004:00000208       __NULL_IMPORT_DESCRIPTOR   100d8208     kernel32:KERNEL32.dll
 0006:00000000       ___guard_check_icall_fptr  100da000     LIBCMT:guard_support.obj
