 a210514_xpc

 Timestamp is 609e301e (Fri May 14 16:09:02 2021)

 Preferred load address is 10000000

 Start         Length     Name                   Class
 0001:00000000 00060458H .text$mn                CODE
 0002:00000000 00000104H .CRT$XCA                DATA
 0002:00000104 00000104H .CRT$XCZ                DATA
 0002:00000208 00000104H .CRT$XIA                DATA
 0002:0000030c 00000110H .CRT$XIC                DATA
 0002:0000041c 00000104H .CRT$XIZ                DATA
 0002:00000520 00000104H .CRT$XPA                DATA
 0002:00000624 0000010cH .CRT$XPX                DATA
 0002:00000730 00000104H .CRT$XPXA               DATA
 0002:00000834 00000104H .CRT$XPZ                DATA
 0002:00000938 00000104H .CRT$XTA                DATA
 0002:00000a3c 00000104H .CRT$XTZ                DATA
 0002:00000b40 0000c860H .rdata                  DATA
 0002:0000d3a0 00000390H .rdata$r                DATA
 0002:0000d730 00000110H .rdata$sxdata           DATA
 0002:0000d840 0000018cH .rdata$zzzdbg           DATA
 0002:0000d9cc 00000104H .rtc$IAA                DATA
 0002:0000dad0 00000104H .rtc$IZZ                DATA
 0002:0000dbd4 00000104H .rtc$TAA                DATA
 0002:0000dcd8 00000108H .rtc$TZZ                DATA
 0002:0000dde0 00000ac0H .xdata$x                DATA
 0002:0000e8a0 000001dfH .edata                  DATA
 0003:00000000 00000e04H .data                   DATA
 0003:00000e04 000001dcH .data$r                 DATA
 0003:00000fe0 00013090H .bss                    DATA
 0004:00000000 000001d4H .idata$5                DATA
 0004:000001d4 00000014H .idata$2                DATA
 0004:000001e8 00000014H .idata$3                DATA
 0004:000001fc 000001d4H .idata$4                DATA
 0004:000003d0 00000843H .idata$6                DATA
 0005:00000000 00000224H .gfids$x                DATA
 0005:00000224 000001a5H .gfids$y                DATA
 0006:00000000 00000104H .00cfg                  DATA

  Address         Publics by Value              Rva+Base       Lib:Object

 0000:00000000       ___guard_fids_table        00000000     <absolute>
 0000:00000000       ___guard_fids_count        00000000     <absolute>
 0000:00000000       ___guard_longjmp_table     00000000     <absolute>
 0000:00000000       ___dynamic_value_reloc_table 00000000     <absolute>
 0000:00000000       ___guard_longjmp_count     00000000     <absolute>
 0000:00000000       ___guard_iat_table         00000000     <absolute>
 0000:00000000       __except_list              00000000     <absolute>
 0000:00000000       ___guard_iat_count         00000000     <absolute>
 0000:00000003       ___safe_se_handler_count   00000003     <absolute>
 0000:00000100       ___guard_flags             00000100     <absolute>
 0000:00000000       ___ImageBase               10000000     <linker-defined>
 0001:00005ea0       _MdlInitialize             10006ea0 f   a210514.obj
 0001:00005eb0       _MdlInitializeSampleTimes  10006eb0 f   a210514.obj
 0001:00005ec0       _MdlInitializeSizes        10006ec0 f   a210514.obj
 0001:00005ed0       _MdlOutputs                10006ed0 f   a210514.obj
 0001:00005ee0       _MdlStart                  10006ee0 f   a210514.obj
 0001:00005ef0       _MdlTerminate              10006ef0 f   a210514.obj
 0001:00005f00       _MdlUpdate                 10006f00 f   a210514.obj
 0001:00005f90       _a210514                   10006f90 f   a210514.obj
 0001:00006ab0       _a210514_GetCAPIStaticMap  10007ab0 f   a210514_capi.obj
 0001:00006ac0       _a210514_InitializeDataMapInfo 10007ac0 f   a210514_capi.obj
 0001:00006b50       _rtGetInf                  10007b50 f   rtGetInf.obj
 0001:00006b80       _rtGetInfF                 10007b80 f   rtGetInf.obj
 0001:00006ba0       _rtGetMinusInf             10007ba0 f   rtGetInf.obj
 0001:00006bd0       _rtGetMinusInfF            10007bd0 f   rtGetInf.obj
 0001:00006bf0       _rtGetNaN                  10007bf0 f   rtGetNaN.obj
 0001:00006c20       _rtGetNaNF                 10007c20 f   rtGetNaN.obj
 0001:00006c40       ___local_stdio_printf_options 10007c40 f i rt_logging.obj
 0001:00006c50       __vfprintf_l               10007c50 f i rt_logging.obj
 0001:00006c80       __vsnprintf_l              10007c80 f i rt_logging.obj
 0001:00006cc0       __vsprintf_l               10007cc0 f i rt_logging.obj
 0001:00006d00       _fprintf                   10007d00 f i rt_logging.obj
 0001:00007610       _printf                    10008610 f i rt_logging.obj
 0001:00007650       _rt_CreateLogVar           10008650 f   rt_logging.obj
 0001:000076e0       _rt_CreateLogVarWithConvert 100086e0 f   rt_logging.obj
 0001:00008060       _rt_CreateStructLogVar     10009060 f   rt_logging.obj
 0001:00008dc0       _rt_GetMxIdFromDTypeId     10009dc0 f   rt_logging.obj
 0001:00008df0       _rt_GetMxIdFromDTypeIdForRSim 10009df0 f   rt_logging.obj
 0001:0000b6c0       _rt_StartDataLogging       1000c6c0 f   rt_logging.obj
 0001:0000bb80       _rt_StartDataLoggingWithStartTime 1000cb80 f   rt_logging.obj
 0001:0000c4e0       _rt_StopDataLogging        1000d4e0 f   rt_logging.obj
 0001:0000c500       _rt_StopDataLoggingImpl    1000d500 f   rt_logging.obj
 0001:0000c830       _rt_UpdateLogVar           1000d830 f   rt_logging.obj
 0001:0000d950       _rt_UpdateStructLogVar     1000e950 f   rt_logging.obj
 0001:0000d9e0       _rt_UpdateTXXFYLogVars     1000e9e0 f   rt_logging.obj
 0001:0000dd10       _rt_UpdateTXYLogVars       1000ed10 f   rt_logging.obj
 0001:0000df60       _sprintf                   1000ef60 f i rt_logging.obj
 0001:0000dfa0       _rt_CleanUpForStateLogWithMMI 1000efa0 f   rt_logging_mmi.obj
 0001:0000e0b0       _rt_FillStateSigInfoFromMMI 1000f0b0 f   rt_logging_mmi.obj
 0001:0000e450       _rtIsInf                   1000f450 f   rt_nonfinite.obj
 0001:0000e490       _rtIsInfF                  1000f490 f   rt_nonfinite.obj
 0001:0000e4d0       _rtIsNaN                   1000f4d0 f   rt_nonfinite.obj
 0001:0000e4f0       _rtIsNaNF                  1000f4f0 f   rt_nonfinite.obj
 0001:0000e510       _rt_InitInfAndNaN          1000f510 f   rt_nonfinite.obj
 0001:0000e570       _rtwCAPI_CountSysRan       1000f570 f   rtw_modelmap_utils.obj
 0001:0000e610       _rtwCAPI_EncodePath        1000f610 f   rtw_modelmap_utils.obj
 0001:0000e710       _rtwCAPI_FillSysRan        1000f710 f   rtw_modelmap_utils.obj
 0001:0000e800       _rtwCAPI_FreeFullPaths     1000f800 f   rtw_modelmap_utils.obj
 0001:0000e890       _rtwCAPI_GetFullStateBlockPath 1000f890 f   rtw_modelmap_utils.obj
 0001:0000ea40       _rtwCAPI_GetNumContStateRecords 1000fa40 f   rtw_modelmap_utils.obj
 0001:0000eb00       _rtwCAPI_GetNumSigLogRecords 1000fb00 f   rtw_modelmap_utils.obj
 0001:0000eb50       _rtwCAPI_GetNumSigLogRecordsForRTWLogging 1000fb50 f   rtw_modelmap_utils.obj
 0001:0000ebf0       _rtwCAPI_GetNumStateRecords 1000fbf0 f   rtw_modelmap_utils.obj
 0001:0000ec40       _rtwCAPI_GetNumStateRecordsForRTWLogging 1000fc40 f   rtw_modelmap_utils.obj
 0001:0000ece0       _rtwCAPI_GetSigAddrFromMap 1000fce0 f   rtw_modelmap_utils.obj
 0001:0000eda0       _rtwCAPI_GetSigLogRecordInfo 1000fda0 f   rtw_modelmap_utils.obj
 0001:0000f1d0       _rtwCAPI_GetStateRecordInfo 100101d0 f   rtw_modelmap_utils.obj
 0001:0000f680       _rtwCAPI_GetStateWidth     10010680 f   rtw_modelmap_utils.obj
 0001:0000f6e0       _rtwCAPI_HasStates         100106e0 f   rtw_modelmap_utils.obj
 0001:0000f750       _rtwCAPI_UpdateFullPaths   10010750 f   rtw_modelmap_utils.obj
 0001:0000f930       _DllMain@12                10010930 f   xpctarget.obj
 0001:0000f940       _SLRTSetErrorStatus        10010940 f   xpctarget.obj
 0001:0000f960       _a210514_ChangeStepSize    10010960 f   xpctarget.obj
 0001:0000f9b0       _changeStepSize            100109b0 f   xpctarget.obj
 0001:0000fa00       _getDLMVersion             10010a00 f   xpctarget.obj
 0001:0000fa10       _getRefMdlPath             10010a10 f   xpctarget.obj
 0001:0000fa90       _getRefMdlSignalNumber     10010a90 f   xpctarget.obj
 0001:0000fb40       _getrlmdlinfo              10010b40 f   xpctarget.obj
 0001:0000fd20       _updateDiscreteEvents      10010d20 f   xpctarget.obj
 0001:0000fd30       _getNumRef                 10010d30 f   appmappingData.obj
 0001:0000fd40       _vprintf                   10010d40 f i legacy_stdio.obj
 0001:0000fd80       _GetPCIDeviceFull          10010d80 f   xpcruntime:xpcimports.obj
 0001:0000fdc0       _ShowPCIDevice             10010dc0 f   xpcruntime:xpcimports.obj
 0001:00010580       _xpcGetPciConfigAtSlot     10011580 f   xpcruntime:xpcimports.obj
 0001:00010890       _xpcInitProcs              10011890 f   xpcruntime:xpcimports.obj
 0001:000119a0       _xpceuploadevent           100129a0 f   xpcruntime:xpcimports.obj
 0001:000119a1       @__security_check_cookie@4 100129a1 f   LIBCMT:_secchk_.obj
 0001:000119b6       ___raise_securityfailure   100129b6 f   LIBCMT:gs_report.obj
 0001:000119e8       ___report_gsfailure        100129e8 f   LIBCMT:gs_report.obj
 0001:00011b21       ___report_rangecheckfailure 10012b21 f   LIBCMT:gs_report.obj
 0001:00011b30       ___report_securityfailure  10012b30 f   LIBCMT:gs_report.obj
 0001:00011c34       ___report_securityfailureEx 10012c34 f   LIBCMT:gs_report.obj
 0001:00011d90       __ftoui3                   10012d90 f   LIBCMT:_ftol3_.obj
 0001:00011d9f       __ftoul3                   10012d9f f   LIBCMT:_ftol3_.obj
 0001:00011dae       __ftol3                    10012dae f   LIBCMT:_ftol3_.obj
 0001:00011dbb       __ftol3_NaN                10012dbb f   LIBCMT:_ftol3_.obj
 0001:00011dd3       __ftol3_work               10012dd3 f   LIBCMT:_ftol3_.obj
 0001:00011e59       __ftol3_common             10012e59 f   LIBCMT:_ftol3_.obj
 0001:00011f1b       __ftol3_arg_error          10012f1b f   LIBCMT:_ftol3_.obj
 0001:00011f2d       __ftol3_except             10012f2d f   LIBCMT:_ftol3_.obj
 0001:00011f71       __dtoui3                   10012f71 f   LIBCMT:_ftol3_.obj
 0001:00011f80       __dtoul3                   10012f80 f   LIBCMT:_ftol3_.obj
 0001:00011f8f       __dtol3                    10012f8f f   LIBCMT:_ftol3_.obj
 0001:00011f9c       __dtol3_NaN                10012f9c f   LIBCMT:_ftol3_.obj
 0001:00011fb9       __dtol3_work               10012fb9 f   LIBCMT:_ftol3_.obj
 0001:000120a0       __ultod3                   100130a0 f   LIBCMT:_ftol3_.obj
 0001:000120e0       __ltod3                    100130e0 f   LIBCMT:_ftol3_.obj
 0001:000121e4       ___isa_available_init      100131e4 f   LIBCMT:_cpu_disp_.obj
 0001:000127ac       __CRT_INIT@12              100137ac f   LIBCMT:dll_dllmain.obj
 0001:000127b7       __DllMainCRTStartup@12     100137b7 f   LIBCMT:dll_dllmain.obj
 0001:000127e2       ??$__crt_fast_decode_pointer@PAP6AXXZ@@YAPAP6AXXZQAP6AXXZ@Z 100137e2 f i LIBCMT:utility.obj
 0001:000127fb       ??$__crt_fast_encode_pointer@PAP6AXXZ@@YAPAP6AXXZQAP6AXXZ@Z 100137fb f i LIBCMT:utility.obj
 0001:0001281f       ?__crt_rotate_pointer_value@@YAIIH@Z 1001381f f i LIBCMT:utility.obj
 0001:0001282f       ?configure_argv@__scrt_narrow_argv_policy@@SAHXZ 1001382f f i LIBCMT:utility.obj
 0001:000128d3       _NtCurrentTeb              100138d3 f i LIBCMT:utility.obj
 0001:000128da       ___scrt_acquire_startup_lock 100138da f   LIBCMT:utility.obj
 0001:0001291c       ___scrt_dllmain_after_initialize_c 1001391c f   LIBCMT:utility.obj
 0001:00012951       ___scrt_dllmain_before_initialize_c 10013951 f   LIBCMT:utility.obj
 0001:00012962       ___scrt_dllmain_crt_thread_attach 10013962 f   LIBCMT:utility.obj
 0001:00012988       ___scrt_dllmain_crt_thread_detach 10013988 f   LIBCMT:utility.obj
 0001:00012998       ___scrt_dllmain_exception_filter 10013998 f   LIBCMT:utility.obj
 0001:000129d7       ___scrt_dllmain_uninitialize_c 100139d7 f   LIBCMT:utility.obj
 0001:00012a02       ___scrt_dllmain_uninitialize_critical 10013a02 f   LIBCMT:utility.obj
 0001:00012a12       ___scrt_initialize_crt     10013a12 f   LIBCMT:utility.obj
 0001:00012a59       ___scrt_initialize_onexit_tables 10013a59 f   LIBCMT:utility.obj
 0001:00012b15       ___scrt_is_nonwritable_in_current_image 10013b15 f   LIBCMT:utility.obj
 0001:00012bc1       ___scrt_release_startup_lock 10013bc1 f   LIBCMT:utility.obj
 0001:00012be5       ___scrt_uninitialize_crt   10013be5 f   LIBCMT:utility.obj
 0001:00012c17       __onexit                   10013c17 f   LIBCMT:utility.obj
 0001:00012c60       _at_quick_exit             10013c60 f   LIBCMT:utility.obj
 0001:00012c9d       _atexit                    10013c9d f   LIBCMT:utility.obj
 0001:00012cb7       ___security_init_cookie    10013cb7 f   LIBCMT:gs_support.obj
 0001:00012d7a       ?__scrt_initialize_type_info@@YAXXZ 10013d7a f   LIBCMT:tncleanup.obj
 0001:00012d89       ?__scrt_uninitialize_type_info@@YAXXZ 10013d89 f   LIBCMT:tncleanup.obj
 0001:00012d98       ___local_stdio_scanf_options 10013d98 f i LIBCMT:default_local_stdio_options.obj
 0001:00012d9e       ___scrt_initialize_default_local_stdio_options 10013d9e f   LIBCMT:default_local_stdio_options.obj
 0001:00012dc2       ___scrt_get_dyn_tls_init_callback 10013dc2 f   LIBCMT:dyn_tls_init.obj
 0001:00012dc8       ___scrt_fastfail           10013dc8 f   LIBCMT:utility_desktop.obj
 0001:00012f29       ___scrt_get_show_window_mode 10013f29 f   LIBCMT:utility_desktop.obj
 0001:00012f68       ___scrt_initialize_winrt   10013f68 f   LIBCMT:utility_desktop.obj
 0001:00012f6b       ___scrt_is_managed_app     10013f6b f   LIBCMT:utility_desktop.obj
 0001:00012fc0       ___scrt_set_unhandled_exception_filter 10013fc0 f   LIBCMT:utility_desktop.obj
 0001:00012fcf       ___scrt_unhandled_exception_filter@4 10013fcf f   LIBCMT:utility_desktop.obj
 0001:00013020       __crt_debugger_hook        10014020 f   LIBCMT:utility_desktop.obj
 0001:0001302a       __RTC_Initialize           1001402a f   LIBCMT:_initsect_.obj
 0001:0001305f       __RTC_Terminate            1001405f f   LIBCMT:_initsect_.obj
 0001:00013094       @_guard_check_icall@4      10014094 f i LIBCMT:checkcfg.obj
 0001:000130a0       __SEH_prolog4              100140a0 f   LIBCMT:_sehprolg4_.obj
 0001:000130e6       __SEH_epilog4              100140e6 f   LIBCMT:_sehprolg4_.obj
 0001:00013111       __get_startup_argv_mode    10014111 f   LIBCMT:argv_mode.obj
 0001:00013115       ___scrt_is_ucrt_dll_in_use 10014115 f   LIBCMT:ucrt_detection.obj
 0001:00013124       @_guard_check_icall_nop@4  10014124 f i LIBCMT:guard_support.obj
 0001:00013125       __guard_icall_checks_enforced 10014125 f i LIBCMT:guard_support.obj
 0001:0001313c       _GetModuleHandleA@4        1001413c f   kernel32:KERNEL32.dll
 0001:00013142       _GetProcAddress@8          10014142 f   kernel32:KERNEL32.dll
 0001:00013148       _UnhandledExceptionFilter@4 10014148 f   kernel32:KERNEL32.dll
 0001:0001314e       _SetUnhandledExceptionFilter@4 1001414e f   kernel32:KERNEL32.dll
 0001:00013154       _GetCurrentProcess@0       10014154 f   kernel32:KERNEL32.dll
 0001:0001315a       _TerminateProcess@8        1001415a f   kernel32:KERNEL32.dll
 0001:00013160       _IsProcessorFeaturePresent@4 10014160 f   kernel32:KERNEL32.dll
 0001:00013166       _QueryPerformanceCounter@4 10014166 f   kernel32:KERNEL32.dll
 0001:0001316c       _GetCurrentProcessId@0     1001416c f   kernel32:KERNEL32.dll
 0001:00013172       _GetCurrentThreadId@0      10014172 f   kernel32:KERNEL32.dll
 0001:00013178       _GetSystemTimeAsFileTime@4 10014178 f   kernel32:KERNEL32.dll
 0001:0001317e       _InitializeSListHead@4     1001417e f   kernel32:KERNEL32.dll
 0001:00013184       _IsDebuggerPresent@0       10014184 f   kernel32:KERNEL32.dll
 0001:0001318a       _GetStartupInfoW@4         1001418a f   kernel32:KERNEL32.dll
 0001:00013190       _GetModuleHandleW@4        10014190 f   kernel32:KERNEL32.dll
 0001:000131a0       _memcpy                    100141a0 f   libvcruntime:memcpy.obj
 0001:00013880       _memset                    10014880 f   libvcruntime:memset.obj
 0001:00013a30       _memmove                   10014a30 f   libvcruntime:memmove.obj
 0001:00014110       _strchr                    10015110 f   libvcruntime:strchr.obj
 0001:0001417e       ___from_strstr_to_strchr   1001517e     libvcruntime:strchr.obj
 0001:000142d0       __except_handler4          100152d0 f   libvcruntime:_chandler4_.obj
 0001:0001448f       ___vcrt_initialize         1001548f f   libvcruntime:initialization.obj
 0001:000144c2       ___vcrt_thread_attach      100154c2 f   libvcruntime:initialization.obj
 0001:000144cf       ___vcrt_thread_detach      100154cf f   libvcruntime:initialization.obj
 0001:000144dc       ___vcrt_uninitialize       100154dc f   libvcruntime:initialization.obj
 0001:00014502       ___vcrt_uninitialize_critical 10015502 f   libvcruntime:initialization.obj
 0001:0001451d       ??$?RD@__crt_internal_free_policy@@QBEXQBD@Z 1001551d f i libvcruntime:std_type_info.obj
 0001:00014531       ??$?RX@__crt_internal_free_policy@@QBEXQBX@Z 10015531 f i libvcruntime:std_type_info.obj
 0001:00014545       ??$__crt_interlocked_compare_exchange_pointer@$$CBD$$T$$T@@YAPBDPDSBD$$T1@Z 10015545 f i libvcruntime:std_type_info.obj
 0001:0001455b       ??$__crt_interlocked_compare_exchange_pointer@$$CBDPAD$$T@@YAPBDPDSBDQAD$$T@Z 1001555b f i libvcruntime:std_type_info.obj
 0001:00014571       ??$__crt_interlocked_read_pointer@$$CBD@@YAPBDPDSBD@Z 10015571 f i libvcruntime:std_type_info.obj
 0001:00014585       ??0?$__crt_unique_heap_ptr@DU__crt_internal_free_policy@@@@QAE@QAD@Z 10015585 f i libvcruntime:std_type_info.obj
 0001:00014596       ??0?$__crt_unique_heap_ptr@XU__crt_internal_free_policy@@@@QAE@QAX@Z 10015596 f i libvcruntime:std_type_info.obj
 0001:000145a7       ??1?$__crt_unique_heap_ptr@DU__crt_internal_free_policy@@@@QAE@XZ 100155a7 f i libvcruntime:std_type_info.obj
 0001:000145bb       ??1?$__crt_unique_heap_ptr@XU__crt_internal_free_policy@@@@QAE@XZ 100155bb f i libvcruntime:std_type_info.obj
 0001:000145db       ??B?$__crt_unique_heap_ptr@DU__crt_internal_free_policy@@@@QBE_NXZ 100155db f i libvcruntime:std_type_info.obj
 0001:000145e2       ??B?$__crt_unique_heap_ptr@XU__crt_internal_free_policy@@@@QBE_NXZ 100155e2 f i libvcruntime:std_type_info.obj
 0001:00014611       ?detach@?$__crt_unique_heap_ptr@XU__crt_internal_free_policy@@@@QAEPAXXZ 10015611 f i libvcruntime:std_type_info.obj
 0001:00014617       ?get@?$__crt_unique_heap_ptr@DU__crt_internal_free_policy@@@@QBEPADXZ 10015617 f i libvcruntime:std_type_info.obj
 0001:0001461a       ?get@?$__crt_unique_heap_ptr@XU__crt_internal_free_policy@@@@QBEPAXXZ 1001561a f i libvcruntime:std_type_info.obj
 0001:0001461d       ?is_valid@?$__crt_unique_heap_ptr@DU__crt_internal_free_policy@@@@QBE_NXZ 1001561d f i libvcruntime:std_type_info.obj
 0001:00014624       ?is_valid@?$__crt_unique_heap_ptr@XU__crt_internal_free_policy@@@@QBE_NXZ 10015624 f i libvcruntime:std_type_info.obj
 0001:0001462b       ?release@?$__crt_unique_heap_ptr@DU__crt_internal_free_policy@@@@QAEXXZ 1001562b f i libvcruntime:std_type_info.obj
 0001:0001463f       ?release@?$__crt_unique_heap_ptr@XU__crt_internal_free_policy@@@@QAEXXZ 1001563f f i libvcruntime:std_type_info.obj
 0001:00014653       ___std_type_info_compare   10015653 f   libvcruntime:std_type_info.obj
 0001:0001469e       ___std_type_info_destroy_list 1001569e f   libvcruntime:std_type_info.obj
 0001:000146c9       ___std_type_info_hash      100156c9 f   libvcruntime:std_type_info.obj
 0001:000146f8       ___std_type_info_name      100156f8 f   libvcruntime:std_type_info.obj
 0001:00014800       __local_unwind4            10015800 f   libvcruntime:_exsup4_.obj
 0001:000148d6       __seh_longjmp_unwind4@4    100158d6 f   libvcruntime:_exsup4_.obj
 0001:000148fe       @_EH4_CallFilterFunc@8     100158fe f   libvcruntime:_exsup4_.obj
 0001:00014915       @_EH4_TransferToHandler@8  10015915 f   libvcruntime:_exsup4_.obj
 0001:0001492e       @_EH4_GlobalUnwind2@8      1001592e f   libvcruntime:_exsup4_.obj
 0001:00014947       @_EH4_LocalUnwind@16       10015947 f   libvcruntime:_exsup4_.obj
 0001:000149b5       ___except_validate_context_record 100159b5 f   libvcruntime:jbcxrval.obj
 0001:000149b6       ___except_validate_jump_buffer 100159b6 f   libvcruntime:jbcxrval.obj
 0001:000149b7       ??$?RU__vcrt_ptd@@@__crt_internal_free_policy@@QBEXQBU__vcrt_ptd@@@Z 100159b7 f i libvcruntime:per_thread_data.obj
 0001:000149cb       ??0?$__crt_unique_heap_ptr@U__vcrt_ptd@@U__crt_internal_free_policy@@@@QAE@QAU__vcrt_ptd@@@Z 100159cb f i libvcruntime:per_thread_data.obj
 0001:000149ee       ??1?$__crt_unique_heap_ptr@U__vcrt_ptd@@U__crt_internal_free_policy@@@@QAE@XZ 100159ee f i libvcruntime:per_thread_data.obj
 0001:00014a0d       ??B?$__crt_unique_heap_ptr@U__vcrt_ptd@@U__crt_internal_free_policy@@@@QBE_NXZ 10015a0d f i libvcruntime:per_thread_data.obj
 0001:00014a14       ?detach@?$__crt_unique_heap_ptr@U__vcrt_ptd@@U__crt_internal_free_policy@@@@QAEPAU__vcrt_ptd@@XZ 10015a14 f i libvcruntime:per_thread_data.obj
 0001:00014a1a       ?get@?$__crt_unique_heap_ptr@U__vcrt_ptd@@U__crt_internal_free_policy@@@@QBEPAU__vcrt_ptd@@XZ 10015a1a f i libvcruntime:per_thread_data.obj
 0001:00014a1d       ?is_valid@?$__crt_unique_heap_ptr@U__vcrt_ptd@@U__crt_internal_free_policy@@@@QBE_NXZ 10015a1d f i libvcruntime:per_thread_data.obj
 0001:00014a24       ?release@?$__crt_unique_heap_ptr@U__vcrt_ptd@@U__crt_internal_free_policy@@@@QAEXXZ 10015a24 f i libvcruntime:per_thread_data.obj
 0001:00014a58       ___vcrt_freefls@4          10015a58 f   libvcruntime:per_thread_data.obj
 0001:00014a7b       ___vcrt_freeptd            10015a7b f   libvcruntime:per_thread_data.obj
 0001:00014abe       ___vcrt_getptd             10015abe f   libvcruntime:per_thread_data.obj
 0001:00014acf       ___vcrt_getptd_noexit      10015acf f   libvcruntime:per_thread_data.obj
 0001:00014b85       ___vcrt_initialize_ptd     10015b85 f   libvcruntime:per_thread_data.obj
 0001:00014bc4       ___vcrt_uninitialize_ptd   10015bc4 f   libvcruntime:per_thread_data.obj
 0001:00014be5       ___vcrt_initialize_locks   10015be5 f   libvcruntime:locks.obj
 0001:00014c30       ___vcrt_lock               10015c30 f   libvcruntime:locks.obj
 0001:00014c4a       ___vcrt_uninitialize_locks 10015c4a f   libvcruntime:locks.obj
 0001:00014c84       ___vcrt_unlock             10015c84 f   libvcruntime:locks.obj
 0001:00014c9e       ??$?BX@__crt_fast_encoded_nullptr_t@@QBEPAXXZ 10015c9e f i libvcruntime:winapi_downlevel.obj
 0001:00014cbc       ??$__crt_fast_decode_pointer@PAX@@YAPAXQAX@Z 10015cbc f i libvcruntime:winapi_downlevel.obj
 0001:00014cd5       ??$__crt_fast_encode_pointer@PAX@@YAPAXQAX@Z 10015cd5 f i libvcruntime:winapi_downlevel.obj
 0001:00014cf9       ??$__crt_interlocked_compare_exchange_pointer@UHINSTANCE__@@$$T$$T@@YAPAUHINSTANCE__@@PDSAU0@$$T1@Z 10015cf9 f i libvcruntime:winapi_downlevel.obj
 0001:00014d0f       ??$__crt_interlocked_compare_exchange_pointer@X$$T$$T@@YAPAXPDSAX$$T1@Z 10015d0f f i libvcruntime:winapi_downlevel.obj
 0001:00014d25       ??$__crt_interlocked_exchange_pointer@UHINSTANCE__@@PAU1@@@YAPAUHINSTANCE__@@PDSAU0@QAU0@@Z 10015d25 f i libvcruntime:winapi_downlevel.obj
 0001:00014d35       ??$__crt_interlocked_exchange_pointer@UHINSTANCE__@@PAX@@YAPAUHINSTANCE__@@PDSAU0@QAX@Z 10015d35 f i libvcruntime:winapi_downlevel.obj
 0001:00014d45       ??$__crt_interlocked_exchange_pointer@XPAX@@YAPAXPDSAXQAX@Z 10015d45 f i libvcruntime:winapi_downlevel.obj
 0001:00014d55       ??$__crt_interlocked_read_pointer@UHINSTANCE__@@@@YAPAUHINSTANCE__@@PDSAU0@@Z 10015d55 f i libvcruntime:winapi_downlevel.obj
 0001:00014d69       ??$__crt_interlocked_read_pointer@X@@YAPAXPDSAX@Z 10015d69 f i libvcruntime:winapi_downlevel.obj
 0001:00014d7d       ?__crt_fast_encode_pointer@@YA?AU__crt_fast_encoded_nullptr_t@@$$T@Z 10015d7d f i libvcruntime:winapi_downlevel.obj
 0001:000150c1       ___vcrt_EventRegister      100160c1 f   libvcruntime:winapi_downlevel.obj
 0001:00015111       ___vcrt_EventSetInformation 10016111 f   libvcruntime:winapi_downlevel.obj
 0001:00015164       ___vcrt_EventUnregister    10016164 f   libvcruntime:winapi_downlevel.obj
 0001:000151ac       ___vcrt_EventWriteTransfer 100161ac f   libvcruntime:winapi_downlevel.obj
 0001:00015207       ___vcrt_FlsAlloc           10016207 f   libvcruntime:winapi_downlevel.obj
 0001:0001524f       ___vcrt_FlsFree            1001624f f   libvcruntime:winapi_downlevel.obj
 0001:00015297       ___vcrt_FlsGetValue        10016297 f   libvcruntime:winapi_downlevel.obj
 0001:000152df       ___vcrt_FlsSetValue        100162df f   libvcruntime:winapi_downlevel.obj
 0001:0001532b       ___vcrt_InitializeCriticalSectionEx 1001632b f   libvcruntime:winapi_downlevel.obj
 0001:00015382       ___vcrt_initialize_winapi_thunks 10016382 f   libvcruntime:winapi_downlevel.obj
 0001:000153ca       ___vcrt_uninitialize_winapi_thunks 100163ca f   libvcruntime:winapi_downlevel.obj
 0001:00015408       ??$?B$$A6AXXZ@__crt_fast_encoded_nullptr_t@@QBEP6AXXZXZ 10016408 f i libvcruntime:purevirt_data.obj
 0001:00015426       ??$__crt_fast_encode_pointer@P6AXXZ@@YAP6AXXZQ6AXXZ@Z 10016426 f i libvcruntime:purevirt_data.obj
 0001:0001544a       ___vcrt_initialize_pure_virtual_call_handler 1001644a f   libvcruntime:purevirt_data.obj
 0001:0001546e       ??$__vcrt_va_start_verify_argument_type@QBD@@YAXXZ 1001646e f i libvcruntime:undname.obj
 0001:0001546f       ??0Block@_HeapManager@@QAE@XZ 1001646f f i libvcruntime:undname.obj
 0001:00015475       ??0DName@@QAE@AAPBDD@Z     10016475 f   libvcruntime:undname.obj
 0001:0001555c       ??0DName@@QAE@ABV0@@Z      1001655c f i libvcruntime:undname.obj
 0001:00015577       ??0DName@@QAE@D@Z          10016577 f   libvcruntime:undname.obj
 0001:000155ae       ??0DName@@QAE@PAV0@@Z      100165ae f   libvcruntime:undname.obj
 0001:0001560e       ??0DName@@QAE@PBD@Z        1001660e f   libvcruntime:undname.obj
 0001:00015656       ??0DName@@QAE@W4DNameStatus@@@Z 10016656 f   libvcruntime:undname.obj
 0001:000156a9       ??0DName@@QAE@XZ           100166a9 f i libvcruntime:undname.obj
 0001:000156be       ??0DName@@QAE@_J@Z         100166be f   libvcruntime:undname.obj
 0001:00015778       ??0DName@@QAE@_K@Z         10016778 f   libvcruntime:undname.obj
 0001:00015802       ??0DNameNode@@IAE@XZ       10016802 f   libvcruntime:undname.obj
 0001:0001580d       ??0DNameStatusNode@@AAE@W4DNameStatus@@@Z 1001680d f   libvcruntime:undname.obj
 0001:00015838       ??0Replicator@@QAE@XZ      10016838 f i libvcruntime:undname.obj
 0001:0001583e       ??0UnDecorator@@QAE@PADPBDHP6APADJ@ZK@Z 1001683e f i libvcruntime:undname.obj
 0001:000158c1       ??0charNode@@QAE@D@Z       100168c1 f   libvcruntime:undname.obj
 0001:000158db       ??0pDNameNode@@QAE@PAVDName@@@Z 100168db f   libvcruntime:undname.obj
 0001:0001590d       ??0pairNode@@QAE@PAVDNameNode@@0@Z 1001690d f   libvcruntime:undname.obj
 0001:00015933       ??0pcharNode@@QAE@PBDH@Z   10016933 f   libvcruntime:undname.obj
 0001:000159a2       ??2@YAPAXIAAV_HeapManager@@H@Z 100169a2 f i libvcruntime:undname.obj
 0001:000159bc       ??4DName@@QAEAAV0@ABV0@@Z  100169bc f   libvcruntime:undname.obj
 0001:000159d7       ??4DName@@QAEAAV0@D@Z      100169d7 f i libvcruntime:undname.obj
 0001:00015a0e       ??4DName@@QAEAAV0@PAV0@@Z  10016a0e f   libvcruntime:undname.obj
 0001:00015a69       ??4DName@@QAEAAV0@PBD@Z    10016a69 f   libvcruntime:undname.obj
 0001:00015aa7       ??4DName@@QAEAAV0@W4DNameStatus@@@Z 10016aa7 f   libvcruntime:undname.obj
 0001:00015ae9       ??AReplicator@@QBE?AVDName@@H@Z 10016ae9 f   libvcruntime:undname.obj
 0001:00015b34       ??BUnDecorator@@QAEPADXZ   10016b34 f i libvcruntime:undname.obj
 0001:00015d0b       ??H@YA?AVDName@@DABV0@@Z   10016d0b f i libvcruntime:undname.obj
 0001:00015d38       ??H@YA?AVDName@@PBDABV0@@Z 10016d38 f i libvcruntime:undname.obj
 0001:00015d65       ??H@YA?AVDName@@W4DNameStatus@@ABV0@@Z 10016d65 f i libvcruntime:undname.obj
 0001:00015d92       ??HDName@@QBE?AV0@ABV0@@Z  10016d92 f   libvcruntime:undname.obj
 0001:00015dbc       ??HDName@@QBE?AV0@D@Z      10016dbc f   libvcruntime:undname.obj
 0001:00015de6       ??HDName@@QBE?AV0@PAV0@@Z  10016de6 f   libvcruntime:undname.obj
 0001:00015e10       ??HDName@@QBE?AV0@PBD@Z    10016e10 f   libvcruntime:undname.obj
 0001:00015e3a       ??HDName@@QBE?AV0@W4DNameStatus@@@Z 10016e3a f   libvcruntime:undname.obj
 0001:00015e64       ??YDName@@QAEAAV0@ABV0@@Z  10016e64 f   libvcruntime:undname.obj
 0001:00015eb7       ??YDName@@QAEAAV0@D@Z      10016eb7 f   libvcruntime:undname.obj
 0001:00015f1b       ??YDName@@QAEAAV0@PAV0@@Z  10016f1b f   libvcruntime:undname.obj
 0001:00015f99       ??YDName@@QAEAAV0@PBD@Z    10016f99 f   libvcruntime:undname.obj
 0001:00016012       ??YDName@@QAEAAV0@W4DNameStatus@@@Z 10017012 f   libvcruntime:undname.obj
 0001:00016062       ??YReplicator@@QAEAAV0@ABVDName@@@Z 10017062 f   libvcruntime:undname.obj
 0001:000160be       ??_5DName@@QAEAAV0@ABV0@@Z 100170be f   libvcruntime:undname.obj
 0001:000160e1       ?Constructor@_HeapManager@@QAEXP6APAXI@ZP6AXPAX@Z@Z 100170e1 f i libvcruntime:undname.obj
 0001:00016105       ?Destructor@_HeapManager@@QAEXXZ 10017105 f i libvcruntime:undname.obj
 0001:0001614c       ?UScore@UnDecorator@@SAPBDW4Tokens@@@Z 1001714c f   libvcruntime:undname.obj
 0001:00016170       ?append@DName@@AAEXPAVDNameNode@@@Z 10017170 f   libvcruntime:undname.obj
 0001:000161c7       ?composeDeclaration@UnDecorator@@CA?AVDName@@ABV2@@Z 100171c7 f i libvcruntime:undname.obj
 0001:00017202       ?doAccessSpecifiers@UnDecorator@@SAHXZ 10018202 f i libvcruntime:undname.obj
 0001:00017213       ?doAllocationLanguage@UnDecorator@@SAHXZ 10018213 f i libvcruntime:undname.obj
 0001:00017224       ?doAllocationModel@UnDecorator@@SAHXZ 10018224 f i libvcruntime:undname.obj
 0001:00017235       ?doEcsu@UnDecorator@@SAHXZ 10018235 f i libvcruntime:undname.obj
 0001:00017246       ?doEllipsis@UnDecorator@@SAHXZ 10018246 f i libvcruntime:undname.obj
 0001:00017257       ?doFunctionReturns@UnDecorator@@SAHXZ 10018257 f i libvcruntime:undname.obj
 0001:00017268       ?doMSKeywords@UnDecorator@@SAHXZ 10018268 f i libvcruntime:undname.obj
 0001:00017278       ?doMemberTypes@UnDecorator@@SAHXZ 10018278 f i libvcruntime:undname.obj
 0001:00017289       ?doNameOnly@UnDecorator@@SAHXZ 10018289 f i libvcruntime:undname.obj
 0001:00017296       ?doNoIdentCharCheck@UnDecorator@@SAHXZ 10018296 f i libvcruntime:undname.obj
 0001:000172a3       ?doPchar@DName@@AAEXPBDH@Z 100182a3 f   libvcruntime:undname.obj
 0001:0001734f       ?doPtr64@UnDecorator@@SAHXZ 1001834f f i libvcruntime:undname.obj
 0001:00017360       ?doRestrictionSpec@UnDecorator@@SAHXZ 10018360 f i libvcruntime:undname.obj
 0001:00017371       ?doThisTypes@UnDecorator@@SAHXZ 10018371 f i libvcruntime:undname.obj
 0001:00017387       ?doThrowTypes@UnDecorator@@SAHXZ 10018387 f i libvcruntime:undname.obj
 0001:00017398       ?doTypeOnly@UnDecorator@@SAHXZ 10018398 f i libvcruntime:undname.obj
 0001:000173a5       ?doUnderScore@UnDecorator@@SAHXZ 100183a5 f i libvcruntime:undname.obj
 0001:000173b2       ?getArgumentList@UnDecorator@@CA?AVDName@@XZ 100183b2 f   libvcruntime:undname.obj
 0001:00017501       ?getArgumentTypes@UnDecorator@@CA?AVDName@@XZ 10018501 f   libvcruntime:undname.obj
 0001:00017619       ?getArrayType@UnDecorator@@CA?AVDName@@ABV2@@Z 10018619 f i libvcruntime:undname.obj
 0001:0001789b       ?getBasedType@UnDecorator@@CA?AVDName@@XZ 1001889b f   libvcruntime:undname.obj
 0001:0001795a       ?getBasicDataType@UnDecorator@@CA?AVDName@@ABV2@@Z 1001895a f   libvcruntime:undname.obj
 0001:00017e44       ?getCallIndex@UnDecorator@@CA?AVDName@@XZ 10018e44 f i libvcruntime:undname.obj
 0001:00017e5d       ?getCallingConvention@UnDecorator@@CA?AVDName@@XZ 10018e5d f   libvcruntime:undname.obj
 0001:00017f4b       ?getDataIndirectType@UnDecorator@@CA?AVDName@@ABV2@PBD0H@Z 10018f4b f   libvcruntime:undname.obj
 0001:000186f6       ?getDataIndirectType@UnDecorator@@CA?AVDName@@XZ 100196f6 f i libvcruntime:undname.obj
 0001:0001873d       ?getDataType@UnDecorator@@CA?AVDName@@PAV2@@Z 1001973d f   libvcruntime:undname.obj
 0001:00018843       ?getDecoratedName@UnDecorator@@CA?AVDName@@XZ 10019843 f   libvcruntime:undname.obj
 0001:00018b22       ?getDimension@UnDecorator@@CA?AVDName@@_N@Z 10019b22 f   libvcruntime:undname.obj
 0001:00018ca6       ?getDispatchTarget@UnDecorator@@CA?AVDName@@XZ 10019ca6 f   libvcruntime:undname.obj
 0001:00018d17       ?getDisplacement@UnDecorator@@CA?AVDName@@XZ 10019d17 f i libvcruntime:undname.obj
 0001:00018d30       ?getECSUDataType@UnDecorator@@CA?AVDName@@XZ 10019d30 f   libvcruntime:undname.obj
 0001:00018e94       ?getECSUName@UnDecorator@@CA?AVDName@@XZ 10019e94 f i libvcruntime:undname.obj
 0001:00018ea9       ?getEnumType@UnDecorator@@CA?AVDName@@XZ 10019ea9 f i libvcruntime:undname.obj
 0001:00018fd0       ?getExtendedDataIndirectType@UnDecorator@@CA?AVDName@@AAPBDAA_NH@Z 10019fd0 f   libvcruntime:undname.obj
 0001:000191e3       ?getExternalDataType@UnDecorator@@CA?AVDName@@ABV2@@Z 1001a1e3 f i libvcruntime:undname.obj
 0001:0001927a       ?getFunctionIndirectType@UnDecorator@@CA?AVDName@@ABV2@@Z 1001a27a f   libvcruntime:undname.obj
 0001:00019785       ?getGuardNumber@UnDecorator@@CA?AVDName@@XZ 1001a785 f i libvcruntime:undname.obj
 0001:0001979e       ?getLastChar@DName@@QBEDXZ 1001a79e f i libvcruntime:undname.obj
 0001:000197c4       ?getLastChar@DNameStatusNode@@UBEDXZ 1001a7c4 f i libvcruntime:undname.obj
 0001:000197d3       ?getLastChar@charNode@@UBEDXZ 1001a7d3 f i libvcruntime:undname.obj
 0001:000197d7       ?getLastChar@pDNameNode@@UBEDXZ 1001a7d7 f i libvcruntime:undname.obj
 0001:000197e8       ?getLastChar@pairNode@@UBEDXZ 1001a7e8 f i libvcruntime:undname.obj
 0001:00019827       ?getLastChar@pcharNode@@UBEDXZ 1001a827 f i libvcruntime:undname.obj
 0001:0001983d       ?getLexicalFrame@UnDecorator@@CA?AVDName@@XZ 1001a83d f i libvcruntime:undname.obj
 0001:00019889       ?getMemory@_HeapManager@@QAEPAXIH@Z 1001a889 f   libvcruntime:undname.obj
 0001:0001993a       ?getNumberOfDimensions@UnDecorator@@CAHXZ 1001a93a f   libvcruntime:undname.obj
 0001:000199b3       ?getOperatorName@UnDecorator@@CA?AVDName@@_NPA_N@Z 1001a9b3 f i libvcruntime:undname.obj
 0001:0001a163       ?getPointerType@UnDecorator@@CA?AVDName@@ABV2@0@Z 1001b163 f i libvcruntime:undname.obj
 0001:0001a188       ?getPointerTypeArray@UnDecorator@@CA?AVDName@@ABV2@0@Z 1001b188 f i libvcruntime:undname.obj
 0001:0001a1ad       ?getPrimaryDataType@UnDecorator@@CA?AVDName@@ABV2@@Z 1001b1ad f   libvcruntime:undname.obj
 0001:0001a41e       ?getPtrRefDataType@UnDecorator@@CA?AVDName@@ABV2@H@Z 1001b41e f   libvcruntime:undname.obj
 0001:0001a560       ?getPtrRefType@UnDecorator@@CA?AVDName@@ABV2@0PBD@Z 1001b560 f   libvcruntime:undname.obj
 0001:0001a69b       ?getReferenceType@UnDecorator@@CA?AVDName@@ABV2@0PBD@Z 1001b69b f i libvcruntime:undname.obj
 0001:0001a6be       ?getRestrictionSpec@UnDecorator@@CA?AVDName@@XZ 1001b6be f   libvcruntime:undname.obj
 0001:0001a7ec       ?getReturnType@UnDecorator@@CA?AVDName@@PAV2@@Z 1001b7ec f   libvcruntime:undname.obj
 0001:0001a826       ?getScope@UnDecorator@@CA?AVDName@@XZ 1001b826 f   libvcruntime:undname.obj
 0001:0001acfb       ?getScopedName@UnDecorator@@CA?AVDName@@XZ 1001bcfb f   libvcruntime:undname.obj
 0001:0001ae34       ?getSignedDimension@UnDecorator@@CA?AVDName@@XZ 1001be34 f   libvcruntime:undname.obj
 0001:0001ae9b       ?getStorageConvention@UnDecorator@@CA?AVDName@@XZ 1001be9b f i libvcruntime:undname.obj
 0001:0001aeb0       ?getString@DName@@QBEPADPAD0@Z 1001beb0 f i libvcruntime:undname.obj
 0001:0001aee7       ?getString@DName@@QBEPADPADH@Z 1001bee7 f i libvcruntime:undname.obj
 0001:0001af52       ?getString@DNameStatusNode@@UBEPADPAD0@Z 1001bf52 f i libvcruntime:undname.obj
 0001:0001af82       ?getString@charNode@@UBEPADPAD0@Z 1001bf82 f i libvcruntime:undname.obj
 0001:0001af9c       ?getString@pDNameNode@@UBEPADPAD0@Z 1001bf9c f i libvcruntime:undname.obj
 0001:0001afb8       ?getString@pairNode@@UBEPADPAD0@Z 1001bfb8 f i libvcruntime:undname.obj
 0001:0001b00d       ?getString@pcharNode@@UBEPADPAD0@Z 1001c00d f i libvcruntime:undname.obj
 0001:0001b02e       ?getStringEncoding@UnDecorator@@CA?AVDName@@PADH@Z 1001c02e f   libvcruntime:undname.obj
 0001:0001b0f9       ?getStringHelper@@YAPADPAD00H@Z 1001c0f9 f i libvcruntime:undname.obj
 0001:0001b13d       ?getSymbolName@UnDecorator@@CA?AVDName@@XZ 1001c13d f i libvcruntime:undname.obj
 0001:0001b197       ?getTemplateArgumentList@UnDecorator@@CA?AVDName@@XZ 1001c197 f   libvcruntime:undname.obj
 0001:0001b4e4       ?getTemplateConstant@UnDecorator@@CA?AVDName@@XZ 1001c4e4 f   libvcruntime:undname.obj
 0001:0001b8f9       ?getTemplateName@UnDecorator@@CA?AVDName@@_N@Z 1001c8f9 f   libvcruntime:undname.obj
 0001:0001baa4       ?getThisType@UnDecorator@@CA?AVDName@@XZ 1001caa4 f i libvcruntime:undname.obj
 0001:0001baec       ?getThrowTypes@UnDecorator@@CA?AVDName@@XZ 1001caec f   libvcruntime:undname.obj
 0001:0001bb98       ?getTypeEncoding@UnDecorator@@CAHXZ 1001cb98 f i libvcruntime:undname.obj
 0001:0001bf94       ?getVCallThunkType@UnDecorator@@CA?AVDName@@XZ 1001cf94 f i libvcruntime:undname.obj
 0001:0001bfdd       ?getVbTableType@UnDecorator@@CA?AVDName@@ABV2@@Z 1001cfdd f i libvcruntime:undname.obj
 0001:0001bff7       ?getVdispMapType@UnDecorator@@CA?AVDName@@ABV2@@Z 1001cff7 f i libvcruntime:undname.obj
 0001:0001c062       ?getVfTableType@UnDecorator@@CA?AVDName@@ABV2@@Z 1001d062 f i libvcruntime:undname.obj
 0001:0001c220       ?getZName@UnDecorator@@CA?AVDName@@_N0@Z 1001d220 f   libvcruntime:undname.obj
 0001:0001c4f0       ?haveTemplateParameters@UnDecorator@@SAHXZ 1001d4f0 f i libvcruntime:undname.obj
 0001:0001c4fd       ?isArray@DName@@QBEHXZ     1001d4fd f i libvcruntime:undname.obj
 0001:0001c509       ?isComArray@DName@@QBEHXZ  1001d509 f i libvcruntime:undname.obj
 0001:0001c515       ?isEmpty@DName@@QBEHXZ     1001d515 f i libvcruntime:undname.obj
 0001:0001c51f       ?isFull@Replicator@@QBEHXZ 1001d51f f i libvcruntime:undname.obj
 0001:0001c52a       ?isNoTE@DName@@QBEHXZ      1001d52a f i libvcruntime:undname.obj
 0001:0001c536       ?isPinPtr@DName@@QBEHXZ    1001d536 f i libvcruntime:undname.obj
 0001:0001c542       ?isPtrRef@DName@@QBEHXZ    1001d542 f i libvcruntime:undname.obj
 0001:0001c54e       ?isUDC@DName@@QBEHXZ       1001d54e f i libvcruntime:undname.obj
 0001:0001c563       ?isUDTThunk@DName@@QBEHXZ  1001d563 f i libvcruntime:undname.obj
 0001:0001c578       ?isVCallThunk@DName@@QBEHXZ 1001d578 f i libvcruntime:undname.obj
 0001:0001c584       ?isValid@DName@@QBEHXZ     1001d584 f i libvcruntime:undname.obj
 0001:0001c590       ?length@DName@@QBEHXZ      1001d590 f i libvcruntime:undname.obj
 0001:0001c5b5       ?length@DNameStatusNode@@UBEHXZ 1001d5b5 f i libvcruntime:undname.obj
 0001:0001c5b9       ?length@charNode@@UBEHXZ   1001d5b9 f i libvcruntime:undname.obj
 0001:0001c5bd       ?length@pDNameNode@@UBEHXZ 1001d5bd f i libvcruntime:undname.obj
 0001:0001c5ce       ?length@pairNode@@UBEHXZ   1001d5ce f i libvcruntime:undname.obj
 0001:0001c62a       ?length@pcharNode@@UBEHXZ  1001d62a f i libvcruntime:undname.obj
 0001:0001c62e       ?make@DNameStatusNode@@SAPAV1@W4DNameStatus@@@Z 1001d62e f i libvcruntime:undname.obj
 0001:0001c6d5       ?setIsArray@DName@@QAEXXZ  1001d6d5 f i libvcruntime:undname.obj
 0001:0001c6df       ?setIsComArray@DName@@QAEXXZ 1001d6df f i libvcruntime:undname.obj
 0001:0001c6e9       ?setIsNoTE@DName@@QAEXXZ   1001d6e9 f i libvcruntime:undname.obj
 0001:0001c6f3       ?setIsPinPtr@DName@@QAEXXZ 1001d6f3 f i libvcruntime:undname.obj
 0001:0001c6fd       ?setIsUDC@DName@@QAEXXZ    1001d6fd f i libvcruntime:undname.obj
 0001:0001c70d       ?setIsVCallThunk@DName@@QAEXXZ 1001d70d f i libvcruntime:undname.obj
 0001:0001c717       ?setPtrRef@DName@@QAEAAV1@XZ 1001d717 f i libvcruntime:undname.obj
 0001:0001c723       ?status@DName@@QBE?AW4DNameStatus@@XZ 1001d723 f i libvcruntime:undname.obj
 0001:0001c7a8       ___unDName                 1001d7a8 f   libvcruntime:undname.obj
 0001:0001c862       ___unDNameEx               1001d862 f   libvcruntime:undname.obj
 0001:0001c91c       __vsprintf_s_l             1001d91c f i libvcruntime:undname.obj
 0001:0001c954       _sprintf_s                 1001d954 f i libvcruntime:undname.obj
 0001:0001c980       __global_unwind2           1001d980 f   libvcruntime:_exsup_.obj
 0001:0001c9e5       __local_unwind2            1001d9e5 f   libvcruntime:_exsup_.obj
 0001:0001ca69       __abnormal_termination     1001da69 f   libvcruntime:_exsup_.obj
 0001:0001ca8c       __NLG_Notify1              1001da8c f   libvcruntime:_exsup_.obj
 0001:0001ca95       __NLG_Notify               1001da95 f   libvcruntime:_exsup_.obj
 0001:0001caac       __NLG_Dispatch2            1001daac     libvcruntime:_exsup_.obj
 0001:0001caac       __NLG_Dispatch             1001daac     libvcruntime:_exsup_.obj
 0001:0001cab4       __NLG_Call                 1001dab4 f   libvcruntime:_exsup_.obj
 0001:0001cab6       __NLG_Return2              1001dab6     libvcruntime:_exsup_.obj
 0001:0001cb04       ??$__crt_fast_decode_pointer@P6AXXZ@@YAP6AXXZQ6AXXZ@Z 1001db04 f i libvcruntime:purevirt.obj
 0001:0001cb1d       ??$__crt_interlocked_compare_exchange_pointer@$$A6AXXZ$$T$$T@@YAP6AXXZPDS6AXXZ$$T1@Z 1001db1d f i libvcruntime:purevirt.obj
 0001:0001cb33       ??$__crt_interlocked_exchange_pointer@$$A6AXXZP6AXXZ@@YAP6AXXZPDS6AXXZQ6AXXZ@Z 1001db33 f i libvcruntime:purevirt.obj
 0001:0001cb43       ??$__crt_interlocked_read_pointer@$$A6AXXZ@@YAP6AXXZPDS6AXXZ@Z 1001db43 f i libvcruntime:purevirt.obj
 0001:0001cb57       __get_purecall_handler     1001db57 f   libvcruntime:purevirt.obj
 0001:0001cb7d       __purecall                 1001db7d f   libvcruntime:purevirt.obj
 0001:0001cb9e       __set_purecall_handler     1001db9e f   libvcruntime:purevirt.obj
 0001:0001cbcc       _malloc                    1001dbcc f   libucrt:malloc.obj
 0001:0001cbe0       _fmod                      1001dbe0 f   libucrt:87fmod.obj
 0001:0001cbea       __CIfmod                   1001dbea f   libucrt:87fmod.obj
 0001:0001cc0a       _calloc                    1001dc0a f   libucrt:calloc.obj
 0001:0001cc17       _free                      1001dc17 f   libucrt:free.obj
 0001:0001cc1c       _realloc                   1001dc1c f   libucrt:realloc.obj
 0001:0001cc29       ??$?B$$A6GXPAXK0@Z@__crt_fast_encoded_nullptr_t@@QBEP6GXPAXK0@ZXZ 1001dc29 f i libucrt:exit.obj
 0001:0001cc47       ??$__crt_fast_decode_pointer@P6GXPAXK0@Z@@YAP6GXPAXK0@ZQ6GX0K0@Z@Z 1001dc47 f i libucrt:exit.obj
 0001:0001cc62       ??$__crt_fast_encode_pointer@P6GXPAXK0@Z@@YAP6GXPAXK0@ZQ6GX0K0@Z@Z 1001dc62 f i libucrt:exit.obj
 0001:0001cc88       ??$__crt_get_proc_address@P6GXI@Z@@YAP6GXI@ZQAUHINSTANCE__@@QBD@Z 1001dc88 f i libucrt:exit.obj
 0001:0001cc9f       ??$__crt_interlocked_read@J@@YAJPDJ@Z 1001dc9f f i libucrt:exit.obj
 0001:0001ccae       ??0?$__crt_unique_handle_t@U__crt_hmodule_traits@@@@QAE@QAUHINSTANCE__@@@Z 1001dcae f i libucrt:exit.obj
 0001:0001ccc2       ??1?$__crt_unique_handle_t@U__crt_hmodule_traits@@@@QAE@XZ 1001dcc2 f i libucrt:exit.obj
 0001:0001ccde       ?__crt_interlocked_read_32@@YAHPDH@Z 1001dcde f i libucrt:exit.obj
 0001:0001cd04       ?close@?$__crt_unique_handle_t@U__crt_hmodule_traits@@@@QAEXXZ 1001dd04 f i libucrt:exit.obj
 0001:0001cd20       ?close@__crt_hmodule_traits@@SA_NPAUHINSTANCE__@@@Z 1001dd20 f i libucrt:exit.obj
 0001:0001ceeb       ?get@?$__crt_unique_handle_t@U__crt_hmodule_traits@@@@QBEPAUHINSTANCE__@@XZ 1001deeb f i libucrt:exit.obj
 0001:0001ceee       ?get_address_of@?$__crt_unique_handle_t@U__crt_hmodule_traits@@@@QAEPAPAUHINSTANCE__@@XZ 1001deee f i libucrt:exit.obj
 0001:0001cef1       ?get_invalid_value@__crt_hmodule_traits@@SAPAUHINSTANCE__@@XZ 1001def1 f i libucrt:exit.obj
 0001:0001cfee       __Exit                     1001dfee f   libucrt:exit.obj
 0001:0001d009       ___acrt_initialize_thread_local_exit_callback 1001e009 f   libucrt:exit.obj
 0001:0001d01b       __c_exit                   1001e01b f   libucrt:exit.obj
 0001:0001d02d       __cexit                    1001e02d f   libucrt:exit.obj
 0001:0001d03f       __exit                     1001e03f f   libucrt:exit.obj
 0001:0001d05a       __is_c_termination_complete 1001e05a f   libucrt:exit.obj
 0001:0001d060       __register_thread_local_exe_atexit_callback 1001e060 f   libucrt:exit.obj
 0001:0001d0a6       _exit                      1001e0a6 f   libucrt:exit.obj
 0001:0001d0c1       _quick_exit                1001e0c1 f   libucrt:exit.obj
 0001:0001d0e0       _strncat                   1001e0e0 f   libucrt:strncat.obj
 0001:0001d270       _strncpy                   1001e270 f   libucrt:strncpy.obj
 0001:0001d3dd       ??$?RPAU__crt_stdio_stream_data@@@__crt_internal_free_policy@@QBEXQBQAU__crt_stdio_stream_data@@@Z 1001e3dd f i libucrt:_file.obj
 0001:0001d3f3       ??0?$__crt_unique_heap_ptr@PAU__crt_stdio_stream_data@@U__crt_internal_free_policy@@@@QAE@QAPAU__crt_stdio_stream_data@@@Z 1001e3f3 f i libucrt:_file.obj
 0001:0001d407       ??0__crt_stdio_stream@@QAE@QAU_iobuf@@@Z 1001e407 f i libucrt:_file.obj
 0001:0001d41b       ??1?$__crt_unique_heap_ptr@PAU__crt_stdio_stream_data@@U__crt_internal_free_policy@@@@QAE@XZ 1001e41b f i libucrt:_file.obj
 0001:0001d431       ??C__crt_stdio_stream@@QBEPAU__crt_stdio_stream_data@@XZ 1001e431 f i libucrt:_file.obj
 0001:0001d434       ?detach@?$__crt_unique_heap_ptr@PAU__crt_stdio_stream_data@@U__crt_internal_free_policy@@@@QAEPAPAU__crt_stdio_stream_data@@XZ 1001e434 f i libucrt:_file.obj
 0001:0001d43a       ?release@?$__crt_unique_heap_ptr@PAU__crt_stdio_stream_data@@U__crt_internal_free_policy@@@@QAEXXZ 1001e43a f i libucrt:_file.obj
 0001:0001d450       ___acrt_initialize_stdio   1001e450 f   libucrt:_file.obj
 0001:0001d54a       ___acrt_iob_func           1001e54a f   libucrt:_file.obj
 0001:0001d55e       ___acrt_uninitialize_stdio 1001e55e f   libucrt:_file.obj
 0001:0001d5bd       __get_stream_buffer_pointers 1001e5bd f   libucrt:_file.obj
 0001:0001d614       __lock_file                1001e614 f   libucrt:_file.obj
 0001:0001d62d       __unlock_file              1001e62d f   libucrt:_file.obj
 0001:0001d646       ?get_flags@__crt_stdio_stream@@QBEJXZ 1001e646 f i libucrt:fclose.obj
 0001:0001d64c       ?is_in_use@__crt_stdio_stream@@QBE_NXZ 1001e64c f i libucrt:fclose.obj
 0001:0001d65b       ?is_string_backed@__crt_stdio_stream@@QBE_NXZ 1001e65b f i libucrt:fclose.obj
 0001:0001d66a       ?public_stream@__crt_stdio_stream@@QBEPAU_iobuf@@XZ 1001e66a f i libucrt:fclose.obj
 0001:0001d66d       ?valid@__crt_stdio_stream@@QBE_NXZ 1001e66d f i libucrt:fclose.obj
 0001:0001d677       __fclose_nolock            1001e677 f   libucrt:fclose.obj
 0001:0001d70a       _fclose                    1001e70a f   libucrt:fclose.obj
 0001:0001da3c       ??$open_file@ABQBDABQBDABHPAU_iobuf@@@?$__crt_char_traits@D@@SAPAU_iobuf@@ABQBD0ABH$$QAPAU1@@Z 1001ea3c f i libucrt:fopen.obj
 0001:0001da67       ??$open_file@ABQB_WABQB_WABHPAU_iobuf@@@?$__crt_char_traits@_W@@SAPAU_iobuf@@ABQB_W0ABH$$QAPAU1@@Z 1001ea67 f i libucrt:fopen.obj
 0001:0001da92       ?unlock@__crt_stdio_stream@@QBEXXZ 1001ea92 f i libucrt:fopen.obj
 0001:0001da9d       __fsopen                   1001ea9d f   libucrt:fopen.obj
 0001:0001daaa       __wfopen                   1001eaaa f   libucrt:fopen.obj
 0001:0001dac6       __wfopen_s                 1001eac6 f   libucrt:fopen.obj
 0001:0001db1e       __wfsopen                  1001eb1e f   libucrt:fopen.obj
 0001:0001db2b       _fopen                     1001eb2b f   libucrt:fopen.obj
 0001:0001db47       _fopen_s                   1001eb47 f   libucrt:fopen.obj
 0001:0001db9f       ?has_any_buffer@__crt_stdio_stream@@QBE_NXZ 1001eb9f f i libucrt:fread.obj
 0001:0001dbb4       ?has_any_of@__crt_stdio_stream@@QBE_NJ@Z 1001ebb4 f i libucrt:fread.obj
 0001:0001dbd0       ?set_flags@__crt_stdio_stream@@QBE_NJ@Z 1001ebd0 f i libucrt:fread.obj
 0001:0001dc00       __fread_nolock             1001ec00 f   libucrt:fread.obj
 0001:0001dc24       __fread_nolock_s           1001ec24 f   libucrt:fread.obj
 0001:0001de63       _fread                     1001ee63 f   libucrt:fread.obj
 0001:0001de87       _fread_s                   1001ee87 f   libucrt:fread.obj
 0001:0001dfdf       ??$?RV<lambda_11b4f7b0d3157825a5656a18eba1ae27>@@AAV<lambda_b51c0495177f500e782686251704ae76>@@V<lambda_cf89b47920b5017557bfe891e78aca36>@@@?$__crt_seh_guarded_call@I@@QAEI$$QAV<lambda_11b4f7b0d3157825a5656a18eba1ae27>@@AAV<lambda_b51c0495177f500e782686251704ae76>@@$$QAV<lambda_cf89b47920b5017557bfe891e78aca36>@@@Z 1001efdf f i libucrt:fwrite.obj
 0001:0001e044       ??$__acrt_lock_stream_and_call@V<lambda_b51c0495177f500e782686251704ae76>@@@@YAIQAU_iobuf@@$$QAV<lambda_b51c0495177f500e782686251704ae76>@@@Z 1001f044 f i libucrt:fwrite.obj
 0001:0001e0cc       ??0__acrt_stdio_temporary_buffering_guard@@QAE@QAU_iobuf@@@Z 1001f0cc f i libucrt:fwrite.obj
 0001:0001e0f1       ??1__acrt_stdio_temporary_buffering_guard@@QAE@XZ 1001f0f1 f i libucrt:fwrite.obj
 0001:0001e170       ?has_big_buffer@__crt_stdio_stream@@QBE_NXZ 1001f170 f i libucrt:fwrite.obj
 0001:0001e181       __fwrite_nolock            1001f181 f   libucrt:fwrite.obj
 0001:0001e358       _fwrite                    1001f358 f   libucrt:fwrite.obj
 0001:0001e3c6       ??$?R_W@__crt_internal_free_policy@@QBEXQB_W@Z 1001f3c6 f i libucrt:unlink.obj
 0001:0001e3dc       ??0?$__crt_unique_heap_ptr@_WU__crt_internal_free_policy@@@@QAE@QA_W@Z 1001f3dc f i libucrt:unlink.obj
 0001:0001e3f0       ??1?$__crt_unique_heap_ptr@_WU__crt_internal_free_policy@@@@QAE@XZ 1001f3f0 f i libucrt:unlink.obj
 0001:0001e406       ?get@?$__crt_unique_heap_ptr@_WU__crt_internal_free_policy@@@@QBEPA_WXZ 1001f406 f i libucrt:unlink.obj
 0001:0001e409       ?get_address_of@?$__crt_unique_heap_ptr@_WU__crt_internal_free_policy@@@@QAEPAPA_WXZ 1001f409 f i libucrt:unlink.obj
 0001:0001e40c       ?release@?$__crt_unique_heap_ptr@_WU__crt_internal_free_policy@@@@QAEXXZ 1001f40c f i libucrt:unlink.obj
 0001:0001e422       __unlink                   1001f422 f   libucrt:unlink.obj
 0001:0001e42f       _remove                    1001f42f f   libucrt:unlink.obj
 0001:0001e48f       ?__acrt_stdio_reset_buffer@@YAXV__crt_stdio_stream@@@Z 1001f48f f i libucrt:rewind.obj
 0001:0001e4aa       ?has_all_of@__crt_stdio_stream@@QBE_NJ@Z 1001f4aa f i libucrt:rewind.obj
 0001:0001e4c9       ?unset_flags@__crt_stdio_stream@@QBE_NJ@Z 1001f4c9 f i libucrt:rewind.obj
 0001:0001e4fd       _rewind                    1001f4fd f   libucrt:rewind.obj
 0001:0001e5fe       ??$?0ABV?$stream_output_adapter@D@__crt_stdio_output@@AB_KABQBDABQAU__crt_locale_pointers@@ABQAD@?$format_validation_base@DV?$stream_output_adapter@D@__crt_stdio_output@@@__crt_stdio_output@@IAE@ABV?$stream_output_adapter@D@1@AB_KABQBDABQAU__crt_locale_pointers@@ABQAD@Z 1001f5fe f i libucrt:output.obj
 0001:0001e629       ??$?0ABV?$stream_output_adapter@D@__crt_stdio_output@@AB_KABQBDABQAU__crt_locale_pointers@@ABQAD@?$positional_parameter_base@DV?$stream_output_adapter@D@__crt_stdio_output@@@__crt_stdio_output@@IAE@ABV?$stream_output_adapter@D@1@AB_KABQBDABQAU__crt_locale_pointers@@ABQAD@Z 1001f629 f i libucrt:output.obj
 0001:0001e683       ??$?0ABV?$stream_output_adapter@D@__crt_stdio_output@@AB_KABQBDABQAU__crt_locale_pointers@@ABQAD@?$standard_base@DV?$stream_output_adapter@D@__crt_stdio_output@@@__crt_stdio_output@@IAE@ABV?$stream_output_adapter@D@1@AB_KABQBDABQAU__crt_locale_pointers@@ABQAD@Z 1001f683 f i libucrt:output.obj
 0001:0001e6c5       ??$?0ABV?$stream_output_adapter@_W@__crt_stdio_output@@AB_KABQB_WABQAU__crt_locale_pointers@@ABQAD@?$format_validation_base@_WV?$stream_output_adapter@_W@__crt_stdio_output@@@__crt_stdio_output@@IAE@ABV?$stream_output_adapter@_W@1@AB_KABQB_WABQAU__crt_locale_pointers@@ABQAD@Z 1001f6c5 f i libucrt:output.obj
 0001:0001e6f0       ??$?0ABV?$stream_output_adapter@_W@__crt_stdio_output@@AB_KABQB_WABQAU__crt_locale_pointers@@ABQAD@?$positional_parameter_base@_WV?$stream_output_adapter@_W@__crt_stdio_output@@@__crt_stdio_output@@IAE@ABV?$stream_output_adapter@_W@1@AB_KABQB_WABQAU__crt_locale_pointers@@ABQAD@Z 1001f6f0 f i libucrt:output.obj
 0001:0001e74a       ??$?0ABV?$stream_output_adapter@_W@__crt_stdio_output@@AB_KABQB_WABQAU__crt_locale_pointers@@ABQAD@?$standard_base@_WV?$stream_output_adapter@_W@__crt_stdio_output@@@__crt_stdio_output@@IAE@ABV?$stream_output_adapter@_W@1@AB_KABQB_WABQAU__crt_locale_pointers@@ABQAD@Z 1001f74a f i libucrt:output.obj
 0001:0001e78c       ??$?0ABV?$string_output_adapter@D@__crt_stdio_output@@AB_KABQBDABQAU__crt_locale_pointers@@ABQAD@?$format_validation_base@DV?$string_output_adapter@D@__crt_stdio_output@@@__crt_stdio_output@@IAE@ABV?$string_output_adapter@D@1@AB_KABQBDABQAU__crt_locale_pointers@@ABQAD@Z 1001f78c f i libucrt:output.obj
 0001:0001e7b7       ??$?0ABV?$string_output_adapter@D@__crt_stdio_output@@AB_KABQBDABQAU__crt_locale_pointers@@ABQAD@?$positional_parameter_base@DV?$string_output_adapter@D@__crt_stdio_output@@@__crt_stdio_output@@IAE@ABV?$string_output_adapter@D@1@AB_KABQBDABQAU__crt_locale_pointers@@ABQAD@Z 1001f7b7 f i libucrt:output.obj
 0001:0001e811       ??$?0ABV?$string_output_adapter@D@__crt_stdio_output@@AB_KABQBDABQAU__crt_locale_pointers@@ABQAD@?$standard_base@DV?$string_output_adapter@D@__crt_stdio_output@@@__crt_stdio_output@@IAE@ABV?$string_output_adapter@D@1@AB_KABQBDABQAU__crt_locale_pointers@@ABQAD@Z 1001f811 f i libucrt:output.obj
 0001:0001e853       ??$?0ABV?$string_output_adapter@_W@__crt_stdio_output@@AB_KABQB_WABQAU__crt_locale_pointers@@ABQAD@?$format_validation_base@_WV?$string_output_adapter@_W@__crt_stdio_output@@@__crt_stdio_output@@IAE@ABV?$string_output_adapter@_W@1@AB_KABQB_WABQAU__crt_locale_pointers@@ABQAD@Z 1001f853 f i libucrt:output.obj
 0001:0001e87e       ??$?0ABV?$string_output_adapter@_W@__crt_stdio_output@@AB_KABQB_WABQAU__crt_locale_pointers@@ABQAD@?$positional_parameter_base@_WV?$string_output_adapter@_W@__crt_stdio_output@@@__crt_stdio_output@@IAE@ABV?$string_output_adapter@_W@1@AB_KABQB_WABQAU__crt_locale_pointers@@ABQAD@Z 1001f87e f i libucrt:output.obj
 0001:0001e8d8       ??$?0ABV?$string_output_adapter@_W@__crt_stdio_output@@AB_KABQB_WABQAU__crt_locale_pointers@@ABQAD@?$standard_base@_WV?$string_output_adapter@_W@__crt_stdio_output@@@__crt_stdio_output@@IAE@ABV?$string_output_adapter@_W@1@AB_KABQB_WABQAU__crt_locale_pointers@@ABQAD@Z 1001f8d8 f i libucrt:output.obj
 0001:0001e91a       ??$?RV<lambda_2293f24e3ce1ad6fe22ccfb9dec07671>@@AAV<lambda_2565fc715a641e539f44ad02d6823606>@@V<lambda_d3217f279b832965d9ca670dc2993570>@@@?$__crt_seh_guarded_call@H@@QAEH$$QAV<lambda_2293f24e3ce1ad6fe22ccfb9dec07671>@@AAV<lambda_2565fc715a641e539f44ad02d6823606>@@$$QAV<lambda_d3217f279b832965d9ca670dc2993570>@@@Z 1001f91a f i libucrt:output.obj
 0001:0001e97f       ??$?RV<lambda_4d4ac866be0fa3c441830420fabdd2cb>@@AAV<lambda_63a10c2dc8dbb9e4dd1890be52af7c93>@@V<lambda_002af9fa0f8fe472b648c51882d4fc32>@@@?$__crt_seh_guarded_call@H@@QAEH$$QAV<lambda_4d4ac866be0fa3c441830420fabdd2cb>@@AAV<lambda_63a10c2dc8dbb9e4dd1890be52af7c93>@@$$QAV<lambda_002af9fa0f8fe472b648c51882d4fc32>@@@Z 1001f97f f i libucrt:output.obj
 0001:0001e9e4       ??$?RV<lambda_5be909dfbae0a631386585770cd7b676>@@AAV<lambda_e516058a9c289d98c8ca9fea99247804>@@V<lambda_afe2e0cdc5e0ecf6f0d6f5e2f8985e38>@@@?$__crt_seh_guarded_call@H@@QAEH$$QAV<lambda_5be909dfbae0a631386585770cd7b676>@@AAV<lambda_e516058a9c289d98c8ca9fea99247804>@@$$QAV<lambda_afe2e0cdc5e0ecf6f0d6f5e2f8985e38>@@@Z 1001f9e4 f i libucrt:output.obj
 0001:0001ea49       ??$?RV<lambda_823d65812123d985753d53e2a8c25d20>@@AAV<lambda_0a97c9e57da7be065955385c79108ff2>@@V<lambda_4d2973f3ad2d226f00468307185dca1b>@@@?$__crt_seh_guarded_call@H@@QAEH$$QAV<lambda_823d65812123d985753d53e2a8c25d20>@@AAV<lambda_0a97c9e57da7be065955385c79108ff2>@@$$QAV<lambda_4d2973f3ad2d226f00468307185dca1b>@@@Z 1001fa49 f i libucrt:output.obj
 0001:0001eaae       ??$?RV<lambda_ab9923ffb5d694ec0d78876dd103e44f>@@AAV<lambda_481dd5778c961fbcd3b60b650e9b9dc4>@@V<lambda_7923d86c9e3f319b415918ec4b39749c>@@@?$__crt_seh_guarded_call@H@@QAEH$$QAV<lambda_ab9923ffb5d694ec0d78876dd103e44f>@@AAV<lambda_481dd5778c961fbcd3b60b650e9b9dc4>@@$$QAV<lambda_7923d86c9e3f319b415918ec4b39749c>@@@Z 1001faae f i libucrt:output.obj
 0001:0001eb13       ??$?RV<lambda_db08b09ef7aa9d4f8620ce68402612bc>@@AAV<lambda_4f2c1eaeead2a5fc776db5b62ea0fb9b>@@V<lambda_3ae262bc35d4ba6a3825c4f6bcaaf95c>@@@?$__crt_seh_guarded_call@H@@QAEH$$QAV<lambda_db08b09ef7aa9d4f8620ce68402612bc>@@AAV<lambda_4f2c1eaeead2a5fc776db5b62ea0fb9b>@@$$QAV<lambda_3ae262bc35d4ba6a3825c4f6bcaaf95c>@@@Z 1001fb13 f i libucrt:output.obj
 0001:0001eb78       ??$__acrt_lock_stream_and_call@V<lambda_0a97c9e57da7be065955385c79108ff2>@@@@YAHQAU_iobuf@@$$QAV<lambda_0a97c9e57da7be065955385c79108ff2>@@@Z 1001fb78 f i libucrt:output.obj
 0001:0001ebaa       ??$__acrt_lock_stream_and_call@V<lambda_2565fc715a641e539f44ad02d6823606>@@@@YAHQAU_iobuf@@$$QAV<lambda_2565fc715a641e539f44ad02d6823606>@@@Z 1001fbaa f i libucrt:output.obj
 0001:0001ebdc       ??$__acrt_lock_stream_and_call@V<lambda_481dd5778c961fbcd3b60b650e9b9dc4>@@@@YAHQAU_iobuf@@$$QAV<lambda_481dd5778c961fbcd3b60b650e9b9dc4>@@@Z 1001fbdc f i libucrt:output.obj
 0001:0001ec0e       ??$__acrt_lock_stream_and_call@V<lambda_4f2c1eaeead2a5fc776db5b62ea0fb9b>@@@@YAHQAU_iobuf@@$$QAV<lambda_4f2c1eaeead2a5fc776db5b62ea0fb9b>@@@Z 1001fc0e f i libucrt:output.obj
 0001:0001ec40       ??$__acrt_lock_stream_and_call@V<lambda_63a10c2dc8dbb9e4dd1890be52af7c93>@@@@YAHQAU_iobuf@@$$QAV<lambda_63a10c2dc8dbb9e4dd1890be52af7c93>@@@Z 1001fc40 f i libucrt:output.obj
 0001:0001ec72       ??$__acrt_lock_stream_and_call@V<lambda_e516058a9c289d98c8ca9fea99247804>@@@@YAHQAU_iobuf@@$$QAV<lambda_e516058a9c289d98c8ca9fea99247804>@@@Z 1001fc72 f i libucrt:output.obj
 0001:0001fee0       ??$count@D@formatting_buffer@__crt_stdio_output@@QBEIXZ 10020ee0 f i libucrt:output.obj
 0001:0001fefe       ??$data@D@formatting_buffer@__crt_stdio_output@@QAEPADXZ 10020efe f i libucrt:output.obj
 0001:0001ff0e       ??$data@_W@formatting_buffer@__crt_stdio_output@@QAEPA_WXZ 10020f0e f i libucrt:output.obj
 0001:0001ff1e       ??$ensure_buffer_is_big_enough@D@formatting_buffer@__crt_stdio_output@@QAE_NI@Z 10020f1e f i libucrt:output.obj
 0001:0001ffc5       ??$extract_argument_from_va_list@C_J@?$positional_parameter_base@DV?$stream_output_adapter@D@__crt_stdio_output@@@__crt_stdio_output@@IAE_NAA_J@Z 10020fc5 f i libucrt:output.obj
 0001:00020063       ??$extract_argument_from_va_list@C_J@?$positional_parameter_base@DV?$string_output_adapter@D@__crt_stdio_output@@@__crt_stdio_output@@IAE_NAA_J@Z 10021063 f i libucrt:output.obj
 0001:00020101       ??$extract_argument_from_va_list@C_J@?$positional_parameter_base@_WV?$stream_output_adapter@_W@__crt_stdio_output@@@__crt_stdio_output@@IAE_NAA_J@Z 10021101 f i libucrt:output.obj
 0001:0002019f       ??$extract_argument_from_va_list@C_J@?$positional_parameter_base@_WV?$string_output_adapter@_W@__crt_stdio_output@@@__crt_stdio_output@@IAE_NAA_J@Z 1002119f f i libucrt:output.obj
 0001:0002023d       ??$extract_argument_from_va_list@C_J@?$standard_base@DV?$stream_output_adapter@D@__crt_stdio_output@@@__crt_stdio_output@@IAE_NAA_J@Z 1002123d f i libucrt:output.obj
 0001:00020263       ??$extract_argument_from_va_list@C_J@?$standard_base@DV?$string_output_adapter@D@__crt_stdio_output@@@__crt_stdio_output@@IAE_NAA_J@Z 10021263 f i libucrt:output.obj
 0001:00020289       ??$extract_argument_from_va_list@C_J@?$standard_base@_WV?$stream_output_adapter@_W@__crt_stdio_output@@@__crt_stdio_output@@IAE_NAA_J@Z 10021289 f i libucrt:output.obj
 0001:000202af       ??$extract_argument_from_va_list@C_J@?$standard_base@_WV?$string_output_adapter@_W@__crt_stdio_output@@@__crt_stdio_output@@IAE_NAA_J@Z 100212af f i libucrt:output.obj
 0001:000202d5       ??$extract_argument_from_va_list@E_J@?$positional_parameter_base@DV?$stream_output_adapter@D@__crt_stdio_output@@@__crt_stdio_output@@IAE_NAA_J@Z 100212d5 f i libucrt:output.obj
 0001:00020373       ??$extract_argument_from_va_list@E_J@?$positional_parameter_base@DV?$string_output_adapter@D@__crt_stdio_output@@@__crt_stdio_output@@IAE_NAA_J@Z 10021373 f i libucrt:output.obj
 0001:00020411       ??$extract_argument_from_va_list@E_J@?$positional_parameter_base@_WV?$stream_output_adapter@_W@__crt_stdio_output@@@__crt_stdio_output@@IAE_NAA_J@Z 10021411 f i libucrt:output.obj
 0001:000204af       ??$extract_argument_from_va_list@E_J@?$positional_parameter_base@_WV?$string_output_adapter@_W@__crt_stdio_output@@@__crt_stdio_output@@IAE_NAA_J@Z 100214af f i libucrt:output.obj
 0001:0002054d       ??$extract_argument_from_va_list@E_J@?$standard_base@DV?$stream_output_adapter@D@__crt_stdio_output@@@__crt_stdio_output@@IAE_NAA_J@Z 1002154d f i libucrt:output.obj
 0001:00020573       ??$extract_argument_from_va_list@E_J@?$standard_base@DV?$string_output_adapter@D@__crt_stdio_output@@@__crt_stdio_output@@IAE_NAA_J@Z 10021573 f i libucrt:output.obj
 0001:00020599       ??$extract_argument_from_va_list@E_J@?$standard_base@_WV?$stream_output_adapter@_W@__crt_stdio_output@@@__crt_stdio_output@@IAE_NAA_J@Z 10021599 f i libucrt:output.obj
 0001:000205bf       ??$extract_argument_from_va_list@E_J@?$standard_base@_WV?$string_output_adapter@_W@__crt_stdio_output@@@__crt_stdio_output@@IAE_NAA_J@Z 100215bf f i libucrt:output.obj
 0001:000205e5       ??$extract_argument_from_va_list@F_J@?$positional_parameter_base@DV?$stream_output_adapter@D@__crt_stdio_output@@@__crt_stdio_output@@IAE_NAA_J@Z 100215e5 f i libucrt:output.obj
 0001:00020683       ??$extract_argument_from_va_list@F_J@?$positional_parameter_base@DV?$string_output_adapter@D@__crt_stdio_output@@@__crt_stdio_output@@IAE_NAA_J@Z 10021683 f i libucrt:output.obj
 0001:00020721       ??$extract_argument_from_va_list@F_J@?$positional_parameter_base@_WV?$stream_output_adapter@_W@__crt_stdio_output@@@__crt_stdio_output@@IAE_NAA_J@Z 10021721 f i libucrt:output.obj
 0001:000207bf       ??$extract_argument_from_va_list@F_J@?$positional_parameter_base@_WV?$string_output_adapter@_W@__crt_stdio_output@@@__crt_stdio_output@@IAE_NAA_J@Z 100217bf f i libucrt:output.obj
 0001:0002085d       ??$extract_argument_from_va_list@F_J@?$standard_base@DV?$stream_output_adapter@D@__crt_stdio_output@@@__crt_stdio_output@@IAE_NAA_J@Z 1002185d f i libucrt:output.obj
 0001:00020883       ??$extract_argument_from_va_list@F_J@?$standard_base@DV?$string_output_adapter@D@__crt_stdio_output@@@__crt_stdio_output@@IAE_NAA_J@Z 10021883 f i libucrt:output.obj
 0001:000208a9       ??$extract_argument_from_va_list@F_J@?$standard_base@_WV?$stream_output_adapter@_W@__crt_stdio_output@@@__crt_stdio_output@@IAE_NAA_J@Z 100218a9 f i libucrt:output.obj
 0001:000208cf       ??$extract_argument_from_va_list@F_J@?$standard_base@_WV?$string_output_adapter@_W@__crt_stdio_output@@@__crt_stdio_output@@IAE_NAA_J@Z 100218cf f i libucrt:output.obj
 0001:000208f5       ??$extract_argument_from_va_list@GD@?$positional_parameter_base@DV?$stream_output_adapter@D@__crt_stdio_output@@@__crt_stdio_output@@IAE_NAAD@Z 100218f5 f i libucrt:output.obj
 0001:00020992       ??$extract_argument_from_va_list@GD@?$positional_parameter_base@DV?$string_output_adapter@D@__crt_stdio_output@@@__crt_stdio_output@@IAE_NAAD@Z 10021992 f i libucrt:output.obj
 0001:00020a2f       ??$extract_argument_from_va_list@GD@?$standard_base@DV?$stream_output_adapter@D@__crt_stdio_output@@@__crt_stdio_output@@IAE_NAAD@Z 10021a2f f i libucrt:output.obj
 0001:00020a4f       ??$extract_argument_from_va_list@GD@?$standard_base@DV?$string_output_adapter@D@__crt_stdio_output@@@__crt_stdio_output@@IAE_NAAD@Z 10021a4f f i libucrt:output.obj
 0001:00020a6f       ??$extract_argument_from_va_list@G_J@?$positional_parameter_base@DV?$stream_output_adapter@D@__crt_stdio_output@@@__crt_stdio_output@@IAE_NAA_J@Z 10021a6f f i libucrt:output.obj
 0001:00020b0d       ??$extract_argument_from_va_list@G_J@?$positional_parameter_base@DV?$string_output_adapter@D@__crt_stdio_output@@@__crt_stdio_output@@IAE_NAA_J@Z 10021b0d f i libucrt:output.obj
 0001:00020bab       ??$extract_argument_from_va_list@G_J@?$positional_parameter_base@_WV?$stream_output_adapter@_W@__crt_stdio_output@@@__crt_stdio_output@@IAE_NAA_J@Z 10021bab f i libucrt:output.obj
 0001:00020c49       ??$extract_argument_from_va_list@G_J@?$positional_parameter_base@_WV?$string_output_adapter@_W@__crt_stdio_output@@@__crt_stdio_output@@IAE_NAA_J@Z 10021c49 f i libucrt:output.obj
 0001:00020ce7       ??$extract_argument_from_va_list@G_J@?$standard_base@DV?$stream_output_adapter@D@__crt_stdio_output@@@__crt_stdio_output@@IAE_NAA_J@Z 10021ce7 f i libucrt:output.obj
 0001:00020d0d       ??$extract_argument_from_va_list@G_J@?$standard_base@DV?$string_output_adapter@D@__crt_stdio_output@@@__crt_stdio_output@@IAE_NAA_J@Z 10021d0d f i libucrt:output.obj
 0001:00020d33       ??$extract_argument_from_va_list@G_J@?$standard_base@_WV?$stream_output_adapter@_W@__crt_stdio_output@@@__crt_stdio_output@@IAE_NAA_J@Z 10021d33 f i libucrt:output.obj
 0001:00020d59       ??$extract_argument_from_va_list@G_J@?$standard_base@_WV?$string_output_adapter@_W@__crt_stdio_output@@@__crt_stdio_output@@IAE_NAA_J@Z 10021d59 f i libucrt:output.obj
 0001:00020d7f       ??$extract_argument_from_va_list@H_J@?$positional_parameter_base@DV?$stream_output_adapter@D@__crt_stdio_output@@@__crt_stdio_output@@IAE_NAA_J@Z 10021d7f f i libucrt:output.obj
 0001:00020e1b       ??$extract_argument_from_va_list@H_J@?$positional_parameter_base@DV?$string_output_adapter@D@__crt_stdio_output@@@__crt_stdio_output@@IAE_NAA_J@Z 10021e1b f i libucrt:output.obj
 0001:00020eb7       ??$extract_argument_from_va_list@H_J@?$positional_parameter_base@_WV?$stream_output_adapter@_W@__crt_stdio_output@@@__crt_stdio_output@@IAE_NAA_J@Z 10021eb7 f i libucrt:output.obj
 0001:00020f53       ??$extract_argument_from_va_list@H_J@?$positional_parameter_base@_WV?$string_output_adapter@_W@__crt_stdio_output@@@__crt_stdio_output@@IAE_NAA_J@Z 10021f53 f i libucrt:output.obj
 0001:00020fef       ??$extract_argument_from_va_list@H_J@?$standard_base@DV?$stream_output_adapter@D@__crt_stdio_output@@@__crt_stdio_output@@IAE_NAA_J@Z 10021fef f i libucrt:output.obj
 0001:00021014       ??$extract_argument_from_va_list@H_J@?$standard_base@DV?$string_output_adapter@D@__crt_stdio_output@@@__crt_stdio_output@@IAE_NAA_J@Z 10022014 f i libucrt:output.obj
 0001:00021039       ??$extract_argument_from_va_list@H_J@?$standard_base@_WV?$stream_output_adapter@_W@__crt_stdio_output@@@__crt_stdio_output@@IAE_NAA_J@Z 10022039 f i libucrt:output.obj
 0001:0002105e       ??$extract_argument_from_va_list@H_J@?$standard_base@_WV?$string_output_adapter@_W@__crt_stdio_output@@@__crt_stdio_output@@IAE_NAA_J@Z 1002205e f i libucrt:output.obj
 0001:00021083       ??$extract_argument_from_va_list@I_J@?$positional_parameter_base@DV?$stream_output_adapter@D@__crt_stdio_output@@@__crt_stdio_output@@IAE_NAA_J@Z 10022083 f i libucrt:output.obj
 0001:0002112a       ??$extract_argument_from_va_list@I_J@?$positional_parameter_base@DV?$string_output_adapter@D@__crt_stdio_output@@@__crt_stdio_output@@IAE_NAA_J@Z 1002212a f i libucrt:output.obj
 0001:000211d1       ??$extract_argument_from_va_list@I_J@?$positional_parameter_base@_WV?$stream_output_adapter@_W@__crt_stdio_output@@@__crt_stdio_output@@IAE_NAA_J@Z 100221d1 f i libucrt:output.obj
 0001:00021278       ??$extract_argument_from_va_list@I_J@?$positional_parameter_base@_WV?$string_output_adapter@_W@__crt_stdio_output@@@__crt_stdio_output@@IAE_NAA_J@Z 10022278 f i libucrt:output.obj
 0001:0002131f       ??$extract_argument_from_va_list@I_J@?$standard_base@DV?$stream_output_adapter@D@__crt_stdio_output@@@__crt_stdio_output@@IAE_NAA_J@Z 1002231f f i libucrt:output.obj
 0001:00021344       ??$extract_argument_from_va_list@I_J@?$standard_base@DV?$string_output_adapter@D@__crt_stdio_output@@@__crt_stdio_output@@IAE_NAA_J@Z 10022344 f i libucrt:output.obj
 0001:00021369       ??$extract_argument_from_va_list@I_J@?$standard_base@_WV?$stream_output_adapter@_W@__crt_stdio_output@@@__crt_stdio_output@@IAE_NAA_J@Z 10022369 f i libucrt:output.obj
 0001:0002138e       ??$extract_argument_from_va_list@I_J@?$standard_base@_WV?$string_output_adapter@_W@__crt_stdio_output@@@__crt_stdio_output@@IAE_NAA_J@Z 1002238e f i libucrt:output.obj
 0001:000213b3       ??$extract_argument_from_va_list@PADPAD@?$positional_parameter_base@DV?$stream_output_adapter@D@__crt_stdio_output@@@__crt_stdio_output@@IAE_NAAPAD@Z 100223b3 f i libucrt:output.obj
 0001:00021450       ??$extract_argument_from_va_list@PADPAD@?$positional_parameter_base@DV?$string_output_adapter@D@__crt_stdio_output@@@__crt_stdio_output@@IAE_NAAPAD@Z 10022450 f i libucrt:output.obj
 0001:000214ed       ??$extract_argument_from_va_list@PADPAD@?$positional_parameter_base@_WV?$stream_output_adapter@_W@__crt_stdio_output@@@__crt_stdio_output@@IAE_NAAPAD@Z 100224ed f i libucrt:output.obj
 0001:0002158a       ??$extract_argument_from_va_list@PADPAD@?$positional_parameter_base@_WV?$string_output_adapter@_W@__crt_stdio_output@@@__crt_stdio_output@@IAE_NAAPAD@Z 1002258a f i libucrt:output.obj
 0001:00021627       ??$extract_argument_from_va_list@PADPAD@?$standard_base@DV?$stream_output_adapter@D@__crt_stdio_output@@@__crt_stdio_output@@IAE_NAAPAD@Z 10022627 f i libucrt:output.obj
 0001:00021647       ??$extract_argument_from_va_list@PADPAD@?$standard_base@DV?$string_output_adapter@D@__crt_stdio_output@@@__crt_stdio_output@@IAE_NAAPAD@Z 10022647 f i libucrt:output.obj
 0001:00021667       ??$extract_argument_from_va_list@PADPAD@?$standard_base@_WV?$stream_output_adapter@_W@__crt_stdio_output@@@__crt_stdio_output@@IAE_NAAPAD@Z 10022667 f i libucrt:output.obj
 0001:00021687       ??$extract_argument_from_va_list@PADPAD@?$standard_base@_WV?$string_output_adapter@_W@__crt_stdio_output@@@__crt_stdio_output@@IAE_NAAPAD@Z 10022687 f i libucrt:output.obj
 0001:000216a7       ??$extract_argument_from_va_list@PAUansi_string@?1??type_case_Z@?$output_processor@DV?$stream_output_adapter@D@__crt_stdio_output@@V?$format_validation_base@DV?$stream_output_adapter@D@__crt_stdio_output@@@2@@__crt_stdio_output@@AAE_NXZ@PAU1?1??234@AAE_NXZ@@?$standard_base@DV?$stream_output_adapter@D@__crt_stdio_output@@@__crt_stdio_output@@IAE_NAAPAUansi_string@?1??type_case_Z@?$output_processor@DV?$stream_output_adapter@D@__crt_stdio_output@@V?$format_validation_base@DV?$stream_output_adapter@D@__crt_stdio_output@@@2@@1@AAE_NXZ@@Z 100226a7 f i libucrt:output.obj
 0001:000216c7       ??$extract_argument_from_va_list@PAUansi_string@?1??type_case_Z@?$output_processor@DV?$stream_output_adapter@D@__crt_stdio_output@@V?$positional_parameter_base@DV?$stream_output_adapter@D@__crt_stdio_output@@@2@@__crt_stdio_output@@AAE_NXZ@PAU1?1??234@AAE_NXZ@@?$positional_parameter_base@DV?$stream_output_adapter@D@__crt_stdio_output@@@__crt_stdio_output@@IAE_NAAPAUansi_string@?1??type_case_Z@?$output_processor@DV?$stream_output_adapter@D@__crt_stdio_output@@V?$positional_parameter_base@DV?$stream_output_adapter@D@__crt_stdio_output@@@2@@1@AAE_NXZ@@Z 100226c7 f i libucrt:output.obj
 0001:00021764       ??$extract_argument_from_va_list@PAUansi_string@?1??type_case_Z@?$output_processor@DV?$stream_output_adapter@D@__crt_stdio_output@@V?$positional_parameter_base@DV?$stream_output_adapter@D@__crt_stdio_output@@@2@@__crt_stdio_output@@AAE_NXZ@PAU1?1??234@AAE_NXZ@@?$standard_base@DV?$stream_output_adapter@D@__crt_stdio_output@@@__crt_stdio_output@@IAE_NAAPAUansi_string@?1??type_case_Z@?$output_processor@DV?$stream_output_adapter@D@__crt_stdio_output@@V?$positional_parameter_base@DV?$stream_output_adapter@D@__crt_stdio_output@@@2@@1@AAE_NXZ@@Z 10022764 f i libucrt:output.obj
 0001:00021784       ??$extract_argument_from_va_list@PAUansi_string@?1??type_case_Z@?$output_processor@DV?$stream_output_adapter@D@__crt_stdio_output@@V?$standard_base@DV?$stream_output_adapter@D@__crt_stdio_output@@@2@@__crt_stdio_output@@AAE_NXZ@PAU1?1??234@AAE_NXZ@@?$standard_base@DV?$stream_output_adapter@D@__crt_stdio_output@@@__crt_stdio_output@@IAE_NAAPAUansi_string@?1??type_case_Z@?$output_processor@DV?$stream_output_adapter@D@__crt_stdio_output@@V?$standard_base@DV?$stream_output_adapter@D@__crt_stdio_output@@@2@@1@AAE_NXZ@@Z 10022784 f i libucrt:output.obj
 0001:000217a4       ??$extract_argument_from_va_list@PAUansi_string@?1??type_case_Z@?$output_processor@DV?$string_output_adapter@D@__crt_stdio_output@@V?$format_validation_base@DV?$string_output_adapter@D@__crt_stdio_output@@@2@@__crt_stdio_output@@AAE_NXZ@PAU1?1??234@AAE_NXZ@@?$standard_base@DV?$string_output_adapter@D@__crt_stdio_output@@@__crt_stdio_output@@IAE_NAAPAUansi_string@?1??type_case_Z@?$output_processor@DV?$string_output_adapter@D@__crt_stdio_output@@V?$format_validation_base@DV?$string_output_adapter@D@__crt_stdio_output@@@2@@1@AAE_NXZ@@Z 100227a4 f i libucrt:output.obj
 0001:000217c4       ??$extract_argument_from_va_list@PAUansi_string@?1??type_case_Z@?$output_processor@DV?$string_output_adapter@D@__crt_stdio_output@@V?$positional_parameter_base@DV?$string_output_adapter@D@__crt_stdio_output@@@2@@__crt_stdio_output@@AAE_NXZ@PAU1?1??234@AAE_NXZ@@?$positional_parameter_base@DV?$string_output_adapter@D@__crt_stdio_output@@@__crt_stdio_output@@IAE_NAAPAUansi_string@?1??type_case_Z@?$output_processor@DV?$string_output_adapter@D@__crt_stdio_output@@V?$positional_parameter_base@DV?$string_output_adapter@D@__crt_stdio_output@@@2@@1@AAE_NXZ@@Z 100227c4 f i libucrt:output.obj
 0001:00021861       ??$extract_argument_from_va_list@PAUansi_string@?1??type_case_Z@?$output_processor@DV?$string_output_adapter@D@__crt_stdio_output@@V?$positional_parameter_base@DV?$string_output_adapter@D@__crt_stdio_output@@@2@@__crt_stdio_output@@AAE_NXZ@PAU1?1??234@AAE_NXZ@@?$standard_base@DV?$string_output_adapter@D@__crt_stdio_output@@@__crt_stdio_output@@IAE_NAAPAUansi_string@?1??type_case_Z@?$output_processor@DV?$string_output_adapter@D@__crt_stdio_output@@V?$positional_parameter_base@DV?$string_output_adapter@D@__crt_stdio_output@@@2@@1@AAE_NXZ@@Z 10022861 f i libucrt:output.obj
 0001:00021881       ??$extract_argument_from_va_list@PAUansi_string@?1??type_case_Z@?$output_processor@DV?$string_output_adapter@D@__crt_stdio_output@@V?$standard_base@DV?$string_output_adapter@D@__crt_stdio_output@@@2@@__crt_stdio_output@@AAE_NXZ@PAU1?1??234@AAE_NXZ@@?$standard_base@DV?$string_output_adapter@D@__crt_stdio_output@@@__crt_stdio_output@@IAE_NAAPAUansi_string@?1??type_case_Z@?$output_processor@DV?$string_output_adapter@D@__crt_stdio_output@@V?$standard_base@DV?$string_output_adapter@D@__crt_stdio_output@@@2@@1@AAE_NXZ@@Z 10022881 f i libucrt:output.obj
 0001:000218a1       ??$extract_argument_from_va_list@PAUansi_string@?1??type_case_Z@?$output_processor@_WV?$stream_output_adapter@_W@__crt_stdio_output@@V?$format_validation_base@_WV?$stream_output_adapter@_W@__crt_stdio_output@@@2@@__crt_stdio_output@@AAE_NXZ@PAU1?1??234@AAE_NXZ@@?$standard_base@_WV?$stream_output_adapter@_W@__crt_stdio_output@@@__crt_stdio_output@@IAE_NAAPAUansi_string@?1??type_case_Z@?$output_processor@_WV?$stream_output_adapter@_W@__crt_stdio_output@@V?$format_validation_base@_WV?$stream_output_adapter@_W@__crt_stdio_output@@@2@@1@AAE_NXZ@@Z 100228a1 f i libucrt:output.obj
 0001:000218c1       ??$extract_argument_from_va_list@PAUansi_string@?1??type_case_Z@?$output_processor@_WV?$stream_output_adapter@_W@__crt_stdio_output@@V?$positional_parameter_base@_WV?$stream_output_adapter@_W@__crt_stdio_output@@@2@@__crt_stdio_output@@AAE_NXZ@PAU1?1??234@AAE_NXZ@@?$positional_parameter_base@_WV?$stream_output_adapter@_W@__crt_stdio_output@@@__crt_stdio_output@@IAE_NAAPAUansi_string@?1??type_case_Z@?$output_processor@_WV?$stream_output_adapter@_W@__crt_stdio_output@@V?$positional_parameter_base@_WV?$stream_output_adapter@_W@__crt_stdio_output@@@2@@1@AAE_NXZ@@Z 100228c1 f i libucrt:output.obj
 0001:0002195e       ??$extract_argument_from_va_list@PAUansi_string@?1??type_case_Z@?$output_processor@_WV?$stream_output_adapter@_W@__crt_stdio_output@@V?$positional_parameter_base@_WV?$stream_output_adapter@_W@__crt_stdio_output@@@2@@__crt_stdio_output@@AAE_NXZ@PAU1?1??234@AAE_NXZ@@?$standard_base@_WV?$stream_output_adapter@_W@__crt_stdio_output@@@__crt_stdio_output@@IAE_NAAPAUansi_string@?1??type_case_Z@?$output_processor@_WV?$stream_output_adapter@_W@__crt_stdio_output@@V?$positional_parameter_base@_WV?$stream_output_adapter@_W@__crt_stdio_output@@@2@@1@AAE_NXZ@@Z 1002295e f i libucrt:output.obj
 0001:0002197e       ??$extract_argument_from_va_list@PAUansi_string@?1??type_case_Z@?$output_processor@_WV?$stream_output_adapter@_W@__crt_stdio_output@@V?$standard_base@_WV?$stream_output_adapter@_W@__crt_stdio_output@@@2@@__crt_stdio_output@@AAE_NXZ@PAU1?1??234@AAE_NXZ@@?$standard_base@_WV?$stream_output_adapter@_W@__crt_stdio_output@@@__crt_stdio_output@@IAE_NAAPAUansi_string@?1??type_case_Z@?$output_processor@_WV?$stream_output_adapter@_W@__crt_stdio_output@@V?$standard_base@_WV?$stream_output_adapter@_W@__crt_stdio_output@@@2@@1@AAE_NXZ@@Z 1002297e f i libucrt:output.obj
 0001:0002199e       ??$extract_argument_from_va_list@PAUansi_string@?1??type_case_Z@?$output_processor@_WV?$string_output_adapter@_W@__crt_stdio_output@@V?$format_validation_base@_WV?$string_output_adapter@_W@__crt_stdio_output@@@2@@__crt_stdio_output@@AAE_NXZ@PAU1?1??234@AAE_NXZ@@?$standard_base@_WV?$string_output_adapter@_W@__crt_stdio_output@@@__crt_stdio_output@@IAE_NAAPAUansi_string@?1??type_case_Z@?$output_processor@_WV?$string_output_adapter@_W@__crt_stdio_output@@V?$format_validation_base@_WV?$string_output_adapter@_W@__crt_stdio_output@@@2@@1@AAE_NXZ@@Z 1002299e f i libucrt:output.obj
 0001:000219be       ??$extract_argument_from_va_list@PAUansi_string@?1??type_case_Z@?$output_processor@_WV?$string_output_adapter@_W@__crt_stdio_output@@V?$positional_parameter_base@_WV?$string_output_adapter@_W@__crt_stdio_output@@@2@@__crt_stdio_output@@AAE_NXZ@PAU1?1??234@AAE_NXZ@@?$positional_parameter_base@_WV?$string_output_adapter@_W@__crt_stdio_output@@@__crt_stdio_output@@IAE_NAAPAUansi_string@?1??type_case_Z@?$output_processor@_WV?$string_output_adapter@_W@__crt_stdio_output@@V?$positional_parameter_base@_WV?$string_output_adapter@_W@__crt_stdio_output@@@2@@1@AAE_NXZ@@Z 100229be f i libucrt:output.obj
 0001:00021a5b       ??$extract_argument_from_va_list@PAUansi_string@?1??type_case_Z@?$output_processor@_WV?$string_output_adapter@_W@__crt_stdio_output@@V?$positional_parameter_base@_WV?$string_output_adapter@_W@__crt_stdio_output@@@2@@__crt_stdio_output@@AAE_NXZ@PAU1?1??234@AAE_NXZ@@?$standard_base@_WV?$string_output_adapter@_W@__crt_stdio_output@@@__crt_stdio_output@@IAE_NAAPAUansi_string@?1??type_case_Z@?$output_processor@_WV?$string_output_adapter@_W@__crt_stdio_output@@V?$positional_parameter_base@_WV?$string_output_adapter@_W@__crt_stdio_output@@@2@@1@AAE_NXZ@@Z 10022a5b f i libucrt:output.obj
 0001:00021a7b       ??$extract_argument_from_va_list@PAUansi_string@?1??type_case_Z@?$output_processor@_WV?$string_output_adapter@_W@__crt_stdio_output@@V?$standard_base@_WV?$string_output_adapter@_W@__crt_stdio_output@@@2@@__crt_stdio_output@@AAE_NXZ@PAU1?1??234@AAE_NXZ@@?$standard_base@_WV?$string_output_adapter@_W@__crt_stdio_output@@@__crt_stdio_output@@IAE_NAAPAUansi_string@?1??type_case_Z@?$output_processor@_WV?$string_output_adapter@_W@__crt_stdio_output@@V?$standard_base@_WV?$string_output_adapter@_W@__crt_stdio_output@@@2@@1@AAE_NXZ@@Z 10022a7b f i libucrt:output.obj
 0001:00021a9b       ??$extract_argument_from_va_list@PAXPAX@?$positional_parameter_base@DV?$stream_output_adapter@D@__crt_stdio_output@@@__crt_stdio_output@@IAE_NAAPAX@Z 10022a9b f i libucrt:output.obj
 0001:00021b38       ??$extract_argument_from_va_list@PAXPAX@?$positional_parameter_base@DV?$string_output_adapter@D@__crt_stdio_output@@@__crt_stdio_output@@IAE_NAAPAX@Z 10022b38 f i libucrt:output.obj
 0001:00021bd5       ??$extract_argument_from_va_list@PAXPAX@?$positional_parameter_base@_WV?$stream_output_adapter@_W@__crt_stdio_output@@@__crt_stdio_output@@IAE_NAAPAX@Z 10022bd5 f i libucrt:output.obj
 0001:00021c72       ??$extract_argument_from_va_list@PAXPAX@?$positional_parameter_base@_WV?$string_output_adapter@_W@__crt_stdio_output@@@__crt_stdio_output@@IAE_NAAPAX@Z 10022c72 f i libucrt:output.obj
 0001:00021d0f       ??$extract_argument_from_va_list@PAXPAX@?$standard_base@DV?$stream_output_adapter@D@__crt_stdio_output@@@__crt_stdio_output@@IAE_NAAPAX@Z 10022d0f f i libucrt:output.obj
 0001:00021d2f       ??$extract_argument_from_va_list@PAXPAX@?$standard_base@DV?$string_output_adapter@D@__crt_stdio_output@@@__crt_stdio_output@@IAE_NAAPAX@Z 10022d2f f i libucrt:output.obj
 0001:00021d4f       ??$extract_argument_from_va_list@PAXPAX@?$standard_base@_WV?$stream_output_adapter@_W@__crt_stdio_output@@@__crt_stdio_output@@IAE_NAAPAX@Z 10022d4f f i libucrt:output.obj
 0001:00021d6f       ??$extract_argument_from_va_list@PAXPAX@?$standard_base@_WV?$string_output_adapter@_W@__crt_stdio_output@@@__crt_stdio_output@@IAE_NAAPAX@Z 10022d6f f i libucrt:output.obj
 0001:00021d8f       ??$extract_argument_from_va_list@U_CRT_DOUBLE@@U1@@?$positional_parameter_base@DV?$stream_output_adapter@D@__crt_stdio_output@@@__crt_stdio_output@@IAE_NAAU_CRT_DOUBLE@@@Z 10022d8f f i libucrt:output.obj
 0001:00021e40       ??$extract_argument_from_va_list@U_CRT_DOUBLE@@U1@@?$positional_parameter_base@DV?$string_output_adapter@D@__crt_stdio_output@@@__crt_stdio_output@@IAE_NAAU_CRT_DOUBLE@@@Z 10022e40 f i libucrt:output.obj
 0001:00021ef1       ??$extract_argument_from_va_list@U_CRT_DOUBLE@@U1@@?$positional_parameter_base@_WV?$stream_output_adapter@_W@__crt_stdio_output@@@__crt_stdio_output@@IAE_NAAU_CRT_DOUBLE@@@Z 10022ef1 f i libucrt:output.obj
 0001:00021fa2       ??$extract_argument_from_va_list@U_CRT_DOUBLE@@U1@@?$positional_parameter_base@_WV?$string_output_adapter@_W@__crt_stdio_output@@@__crt_stdio_output@@IAE_NAAU_CRT_DOUBLE@@@Z 10022fa2 f i libucrt:output.obj
 0001:00022053       ??$extract_argument_from_va_list@U_CRT_DOUBLE@@U1@@?$standard_base@DV?$stream_output_adapter@D@__crt_stdio_output@@@__crt_stdio_output@@IAE_NAAU_CRT_DOUBLE@@@Z 10023053 f i libucrt:output.obj
 0001:0002207b       ??$extract_argument_from_va_list@U_CRT_DOUBLE@@U1@@?$standard_base@DV?$string_output_adapter@D@__crt_stdio_output@@@__crt_stdio_output@@IAE_NAAU_CRT_DOUBLE@@@Z 1002307b f i libucrt:output.obj
 0001:000220a3       ??$extract_argument_from_va_list@U_CRT_DOUBLE@@U1@@?$standard_base@_WV?$stream_output_adapter@_W@__crt_stdio_output@@@__crt_stdio_output@@IAE_NAAU_CRT_DOUBLE@@@Z 100230a3 f i libucrt:output.obj
 0001:000220cb       ??$extract_argument_from_va_list@U_CRT_DOUBLE@@U1@@?$standard_base@_WV?$string_output_adapter@_W@__crt_stdio_output@@@__crt_stdio_output@@IAE_NAAU_CRT_DOUBLE@@@Z 100230cb f i libucrt:output.obj
 0001:000220f3       ??$extract_argument_from_va_list@_J_J@?$positional_parameter_base@DV?$stream_output_adapter@D@__crt_stdio_output@@@__crt_stdio_output@@IAE_NAA_J@Z 100230f3 f i libucrt:output.obj
 0001:000221a4       ??$extract_argument_from_va_list@_J_J@?$positional_parameter_base@DV?$string_output_adapter@D@__crt_stdio_output@@@__crt_stdio_output@@IAE_NAA_J@Z 100231a4 f i libucrt:output.obj
 0001:00022255       ??$extract_argument_from_va_list@_J_J@?$positional_parameter_base@_WV?$stream_output_adapter@_W@__crt_stdio_output@@@__crt_stdio_output@@IAE_NAA_J@Z 10023255 f i libucrt:output.obj
 0001:00022306       ??$extract_argument_from_va_list@_J_J@?$positional_parameter_base@_WV?$string_output_adapter@_W@__crt_stdio_output@@@__crt_stdio_output@@IAE_NAA_J@Z 10023306 f i libucrt:output.obj
 0001:000223b7       ??$extract_argument_from_va_list@_J_J@?$standard_base@DV?$stream_output_adapter@D@__crt_stdio_output@@@__crt_stdio_output@@IAE_NAA_J@Z 100233b7 f i libucrt:output.obj
 0001:000223df       ??$extract_argument_from_va_list@_J_J@?$standard_base@DV?$string_output_adapter@D@__crt_stdio_output@@@__crt_stdio_output@@IAE_NAA_J@Z 100233df f i libucrt:output.obj
 0001:00022407       ??$extract_argument_from_va_list@_J_J@?$standard_base@_WV?$stream_output_adapter@_W@__crt_stdio_output@@@__crt_stdio_output@@IAE_NAA_J@Z 10023407 f i libucrt:output.obj
 0001:0002242f       ??$extract_argument_from_va_list@_J_J@?$standard_base@_WV?$string_output_adapter@_W@__crt_stdio_output@@@__crt_stdio_output@@IAE_NAA_J@Z 1002342f f i libucrt:output.obj
 0001:00022457       ??$extract_argument_from_va_list@_K_J@?$positional_parameter_base@DV?$stream_output_adapter@D@__crt_stdio_output@@@__crt_stdio_output@@IAE_NAA_J@Z 10023457 f i libucrt:output.obj
 0001:00022508       ??$extract_argument_from_va_list@_K_J@?$positional_parameter_base@DV?$string_output_adapter@D@__crt_stdio_output@@@__crt_stdio_output@@IAE_NAA_J@Z 10023508 f i libucrt:output.obj
 0001:000225b9       ??$extract_argument_from_va_list@_K_J@?$positional_parameter_base@_WV?$stream_output_adapter@_W@__crt_stdio_output@@@__crt_stdio_output@@IAE_NAA_J@Z 100235b9 f i libucrt:output.obj
 0001:0002266a       ??$extract_argument_from_va_list@_K_J@?$positional_parameter_base@_WV?$string_output_adapter@_W@__crt_stdio_output@@@__crt_stdio_output@@IAE_NAA_J@Z 1002366a f i libucrt:output.obj
 0001:0002271b       ??$extract_argument_from_va_list@_K_J@?$standard_base@DV?$stream_output_adapter@D@__crt_stdio_output@@@__crt_stdio_output@@IAE_NAA_J@Z 1002371b f i libucrt:output.obj
 0001:00022743       ??$extract_argument_from_va_list@_K_J@?$standard_base@DV?$string_output_adapter@D@__crt_stdio_output@@@__crt_stdio_output@@IAE_NAA_J@Z 10023743 f i libucrt:output.obj
 0001:0002276b       ??$extract_argument_from_va_list@_K_J@?$standard_base@_WV?$stream_output_adapter@_W@__crt_stdio_output@@@__crt_stdio_output@@IAE_NAA_J@Z 1002376b f i libucrt:output.obj
 0001:00022793       ??$extract_argument_from_va_list@_K_J@?$standard_base@_WV?$string_output_adapter@_W@__crt_stdio_output@@@__crt_stdio_output@@IAE_NAA_J@Z 10023793 f i libucrt:output.obj
 0001:000227bb       ??$extract_argument_from_va_list@_W_W@?$positional_parameter_base@DV?$stream_output_adapter@D@__crt_stdio_output@@@__crt_stdio_output@@IAE_NAA_W@Z 100237bb f i libucrt:output.obj
 0001:0002285d       ??$extract_argument_from_va_list@_W_W@?$positional_parameter_base@DV?$string_output_adapter@D@__crt_stdio_output@@@__crt_stdio_output@@IAE_NAA_W@Z 1002385d f i libucrt:output.obj
 0001:000228ff       ??$extract_argument_from_va_list@_W_W@?$positional_parameter_base@_WV?$stream_output_adapter@_W@__crt_stdio_output@@@__crt_stdio_output@@IAE_NAA_W@Z 100238ff f i libucrt:output.obj
 0001:000229a1       ??$extract_argument_from_va_list@_W_W@?$positional_parameter_base@_WV?$string_output_adapter@_W@__crt_stdio_output@@@__crt_stdio_output@@IAE_NAA_W@Z 100239a1 f i libucrt:output.obj
 0001:00022a43       ??$extract_argument_from_va_list@_W_W@?$standard_base@DV?$stream_output_adapter@D@__crt_stdio_output@@@__crt_stdio_output@@IAE_NAA_W@Z 10023a43 f i libucrt:output.obj
 0001:00022a66       ??$extract_argument_from_va_list@_W_W@?$standard_base@DV?$string_output_adapter@D@__crt_stdio_output@@@__crt_stdio_output@@IAE_NAA_W@Z 10023a66 f i libucrt:output.obj
 0001:00022a89       ??$extract_argument_from_va_list@_W_W@?$standard_base@_WV?$stream_output_adapter@_W@__crt_stdio_output@@@__crt_stdio_output@@IAE_NAA_W@Z 10023a89 f i libucrt:output.obj
 0001:00022aac       ??$extract_argument_from_va_list@_W_W@?$standard_base@_WV?$string_output_adapter@_W@__crt_stdio_output@@@__crt_stdio_output@@IAE_NAA_W@Z 10023aac f i libucrt:output.obj
 0001:00022acf       ??$get_parameter_type@D@?$positional_parameter_base@DV?$stream_output_adapter@D@__crt_stdio_output@@@__crt_stdio_output@@CA?AW4parameter_type@01@PAD@Z 10023acf f i libucrt:output.obj
 0001:00022ad3       ??$get_parameter_type@D@?$positional_parameter_base@DV?$string_output_adapter@D@__crt_stdio_output@@@__crt_stdio_output@@CA?AW4parameter_type@01@PAD@Z 10023ad3 f i libucrt:output.obj
 0001:00022ad7       ??$get_parameter_type@D@?$positional_parameter_base@_WV?$stream_output_adapter@_W@__crt_stdio_output@@@__crt_stdio_output@@CA?AW4parameter_type@01@PAD@Z 10023ad7 f i libucrt:output.obj
 0001:00022adb       ??$get_parameter_type@D@?$positional_parameter_base@_WV?$string_output_adapter@_W@__crt_stdio_output@@@__crt_stdio_output@@CA?AW4parameter_type@01@PAD@Z 10023adb f i libucrt:output.obj
 0001:00022adf       ??$get_parameter_type@Uansi_string@?1??type_case_Z@?$output_processor@DV?$stream_output_adapter@D@__crt_stdio_output@@V?$positional_parameter_base@DV?$stream_output_adapter@D@__crt_stdio_output@@@2@@__crt_stdio_output@@AAE_NXZ@@?$positional_parameter_base@DV?$stream_output_adapter@D@__crt_stdio_output@@@__crt_stdio_output@@CA?AW4parameter_type@01@PAUansi_string@?1??type_case_Z@?$output_processor@DV?$stream_output_adapter@D@__crt_stdio_output@@V?$positional_parameter_base@DV?$stream_output_adapter@D@__crt_stdio_output@@@2@@1@AAE_NXZ@@Z 10023adf f i libucrt:output.obj
 0001:00022ae3       ??$get_parameter_type@Uansi_string@?1??type_case_Z@?$output_processor@DV?$string_output_adapter@D@__crt_stdio_output@@V?$positional_parameter_base@DV?$string_output_adapter@D@__crt_stdio_output@@@2@@__crt_stdio_output@@AAE_NXZ@@?$positional_parameter_base@DV?$string_output_adapter@D@__crt_stdio_output@@@__crt_stdio_output@@CA?AW4parameter_type@01@PAUansi_string@?1??type_case_Z@?$output_processor@DV?$string_output_adapter@D@__crt_stdio_output@@V?$positional_parameter_base@DV?$string_output_adapter@D@__crt_stdio_output@@@2@@1@AAE_NXZ@@Z 10023ae3 f i libucrt:output.obj
 0001:00022ae7       ??$get_parameter_type@Uansi_string@?1??type_case_Z@?$output_processor@_WV?$stream_output_adapter@_W@__crt_stdio_output@@V?$positional_parameter_base@_WV?$stream_output_adapter@_W@__crt_stdio_output@@@2@@__crt_stdio_output@@AAE_NXZ@@?$positional_parameter_base@_WV?$stream_output_adapter@_W@__crt_stdio_output@@@__crt_stdio_output@@CA?AW4parameter_type@01@PAUansi_string@?1??type_case_Z@?$output_processor@_WV?$stream_output_adapter@_W@__crt_stdio_output@@V?$positional_parameter_base@_WV?$stream_output_adapter@_W@__crt_stdio_output@@@2@@1@AAE_NXZ@@Z 10023ae7 f i libucrt:output.obj
 0001:00022aeb       ??$get_parameter_type@Uansi_string@?1??type_case_Z@?$output_processor@_WV?$string_output_adapter@_W@__crt_stdio_output@@V?$positional_parameter_base@_WV?$string_output_adapter@_W@__crt_stdio_output@@@2@@__crt_stdio_output@@AAE_NXZ@@?$positional_parameter_base@_WV?$string_output_adapter@_W@__crt_stdio_output@@@__crt_stdio_output@@CA?AW4parameter_type@01@PAUansi_string@?1??type_case_Z@?$output_processor@_WV?$string_output_adapter@_W@__crt_stdio_output@@V?$positional_parameter_base@_WV?$string_output_adapter@_W@__crt_stdio_output@@@2@@1@AAE_NXZ@@Z 10023aeb f i libucrt:output.obj
 0001:00022aef       ??$get_parameter_type@X@?$positional_parameter_base@DV?$stream_output_adapter@D@__crt_stdio_output@@@__crt_stdio_output@@CA?AW4parameter_type@01@PAX@Z 10023aef f i libucrt:output.obj
 0001:00022af3       ??$get_parameter_type@X@?$positional_parameter_base@DV?$string_output_adapter@D@__crt_stdio_output@@@__crt_stdio_output@@CA?AW4parameter_type@01@PAX@Z 10023af3 f i libucrt:output.obj
 0001:00022af7       ??$get_parameter_type@X@?$positional_parameter_base@_WV?$stream_output_adapter@_W@__crt_stdio_output@@@__crt_stdio_output@@CA?AW4parameter_type@01@PAX@Z 10023af7 f i libucrt:output.obj
 0001:00022afb       ??$get_parameter_type@X@?$positional_parameter_base@_WV?$string_output_adapter@_W@__crt_stdio_output@@@__crt_stdio_output@@CA?AW4parameter_type@01@PAX@Z 10023afb f i libucrt:output.obj
 0001:00022aff       ??$is_character_specifier@D@?$positional_parameter_base@DV?$stream_output_adapter@D@__crt_stdio_output@@@__crt_stdio_output@@CA_ND@Z 10023aff f i libucrt:output.obj
 0001:00022b1e       ??$is_character_specifier@D@?$positional_parameter_base@DV?$string_output_adapter@D@__crt_stdio_output@@@__crt_stdio_output@@CA_ND@Z 10023b1e f i libucrt:output.obj
 0001:00022b3d       ??$is_character_specifier@_W@?$positional_parameter_base@_WV?$stream_output_adapter@_W@__crt_stdio_output@@@__crt_stdio_output@@CA_N_W@Z 10023b3d f i libucrt:output.obj
 0001:00022b60       ??$is_character_specifier@_W@?$positional_parameter_base@_WV?$string_output_adapter@_W@__crt_stdio_output@@@__crt_stdio_output@@CA_N_W@Z 10023b60 f i libucrt:output.obj
 0001:00022b83       ??$is_integral_specifier@D@?$positional_parameter_base@DV?$stream_output_adapter@D@__crt_stdio_output@@@__crt_stdio_output@@CA_ND@Z 10023b83 f i libucrt:output.obj
 0001:00022bbb       ??$is_integral_specifier@D@?$positional_parameter_base@DV?$string_output_adapter@D@__crt_stdio_output@@@__crt_stdio_output@@CA_ND@Z 10023bbb f i libucrt:output.obj
 0001:00022bf3       ??$is_integral_specifier@_W@?$positional_parameter_base@_WV?$stream_output_adapter@_W@__crt_stdio_output@@@__crt_stdio_output@@CA_N_W@Z 10023bf3 f i libucrt:output.obj
 0001:00022c3e       ??$is_integral_specifier@_W@?$positional_parameter_base@_WV?$string_output_adapter@_W@__crt_stdio_output@@@__crt_stdio_output@@CA_N_W@Z 10023c3e f i libucrt:output.obj
 0001:00022c89       ??$is_pointer_specifier@D@?$positional_parameter_base@DV?$stream_output_adapter@D@__crt_stdio_output@@@__crt_stdio_output@@CA_ND@Z 10023c89 f i libucrt:output.obj
 0001:00022c9d       ??$is_pointer_specifier@D@?$positional_parameter_base@DV?$string_output_adapter@D@__crt_stdio_output@@@__crt_stdio_output@@CA_ND@Z 10023c9d f i libucrt:output.obj
 0001:00022cb1       ??$is_pointer_specifier@_W@?$positional_parameter_base@_WV?$stream_output_adapter@_W@__crt_stdio_output@@@__crt_stdio_output@@CA_N_W@Z 10023cb1 f i libucrt:output.obj
 0001:00022cc6       ??$is_pointer_specifier@_W@?$positional_parameter_base@_WV?$string_output_adapter@_W@__crt_stdio_output@@@__crt_stdio_output@@CA_N_W@Z 10023cc6 f i libucrt:output.obj
 0001:00022cdb       ??$is_string_specifier@D@?$positional_parameter_base@DV?$stream_output_adapter@D@__crt_stdio_output@@@__crt_stdio_output@@CA_ND@Z 10023cdb f i libucrt:output.obj
 0001:00022cfa       ??$is_string_specifier@D@?$positional_parameter_base@DV?$string_output_adapter@D@__crt_stdio_output@@@__crt_stdio_output@@CA_ND@Z 10023cfa f i libucrt:output.obj
 0001:00022d19       ??$is_string_specifier@_W@?$positional_parameter_base@_WV?$stream_output_adapter@_W@__crt_stdio_output@@@__crt_stdio_output@@CA_N_W@Z 10023d19 f i libucrt:output.obj
 0001:00022d3c       ??$is_string_specifier@_W@?$positional_parameter_base@_WV?$string_output_adapter@_W@__crt_stdio_output@@@__crt_stdio_output@@CA_N_W@Z 10023d3c f i libucrt:output.obj
 0001:00022d5f       ??$is_wide_character_specifier@D@__crt_stdio_output@@YA_N_KDW4length_modifier@0@@Z 10023d5f f i libucrt:output.obj
 0001:00022daf       ??$is_wide_character_specifier@_W@__crt_stdio_output@@YA_N_K_WW4length_modifier@0@@Z 10023daf f i libucrt:output.obj
 0001:00022e11       ??$peek_va_arg@C@__crt_stdio_output@@YACPAD@Z 10023e11 f i libucrt:output.obj
 0001:00022e20       ??$peek_va_arg@E@__crt_stdio_output@@YAEPAD@Z 10023e20 f i libucrt:output.obj
 0001:00022e2f       ??$peek_va_arg@F@__crt_stdio_output@@YAFPAD@Z 10023e2f f i libucrt:output.obj
 0001:00022e3f       ??$peek_va_arg@G@__crt_stdio_output@@YAGPAD@Z 10023e3f f i libucrt:output.obj
 0001:00022e4f       ??$peek_va_arg@H@__crt_stdio_output@@YAHPAD@Z 10023e4f f i libucrt:output.obj
 0001:00022e5e       ??$peek_va_arg@I@__crt_stdio_output@@YAIPAD@Z 10023e5e f i libucrt:output.obj
 0001:00022e6d       ??$peek_va_arg@PAD@__crt_stdio_output@@YAPADPAD@Z 10023e6d f i libucrt:output.obj
 0001:00022e7c       ??$peek_va_arg@PAUansi_string@?1??type_case_Z@?$output_processor@DV?$stream_output_adapter@D@__crt_stdio_output@@V?$positional_parameter_base@DV?$stream_output_adapter@D@__crt_stdio_output@@@2@@__crt_stdio_output@@AAE_NXZ@@__crt_stdio_output@@YAPAUansi_string@?1??type_case_Z@?$output_processor@DV?$stream_output_adapter@D@__crt_stdio_output@@V?$positional_parameter_base@DV?$stream_output_adapter@D@__crt_stdio_output@@@2@@0@AAE_NXZ@PAD@Z 10023e7c f i libucrt:output.obj
 0001:00022e8b       ??$peek_va_arg@PAUansi_string@?1??type_case_Z@?$output_processor@DV?$string_output_adapter@D@__crt_stdio_output@@V?$positional_parameter_base@DV?$string_output_adapter@D@__crt_stdio_output@@@2@@__crt_stdio_output@@AAE_NXZ@@__crt_stdio_output@@YAPAUansi_string@?1??type_case_Z@?$output_processor@DV?$string_output_adapter@D@__crt_stdio_output@@V?$positional_parameter_base@DV?$string_output_adapter@D@__crt_stdio_output@@@2@@0@AAE_NXZ@PAD@Z 10023e8b f i libucrt:output.obj
 0001:00022e9a       ??$peek_va_arg@PAUansi_string@?1??type_case_Z@?$output_processor@_WV?$stream_output_adapter@_W@__crt_stdio_output@@V?$positional_parameter_base@_WV?$stream_output_adapter@_W@__crt_stdio_output@@@2@@__crt_stdio_output@@AAE_NXZ@@__crt_stdio_output@@YAPAUansi_string@?1??type_case_Z@?$output_processor@_WV?$stream_output_adapter@_W@__crt_stdio_output@@V?$positional_parameter_base@_WV?$stream_output_adapter@_W@__crt_stdio_output@@@2@@0@AAE_NXZ@PAD@Z 10023e9a f i libucrt:output.obj
 0001:00022ea9       ??$peek_va_arg@PAUansi_string@?1??type_case_Z@?$output_processor@_WV?$string_output_adapter@_W@__crt_stdio_output@@V?$positional_parameter_base@_WV?$string_output_adapter@_W@__crt_stdio_output@@@2@@__crt_stdio_output@@AAE_NXZ@@__crt_stdio_output@@YAPAUansi_string@?1??type_case_Z@?$output_processor@_WV?$string_output_adapter@_W@__crt_stdio_output@@V?$positional_parameter_base@_WV?$string_output_adapter@_W@__crt_stdio_output@@@2@@0@AAE_NXZ@PAD@Z 10023ea9 f i libucrt:output.obj
 0001:00022eb8       ??$peek_va_arg@PAX@__crt_stdio_output@@YAPAXPAD@Z 10023eb8 f i libucrt:output.obj
 0001:00022ec7       ??$peek_va_arg@U_CRT_DOUBLE@@@__crt_stdio_output@@YA?AU_CRT_DOUBLE@@PAD@Z 10023ec7 f i libucrt:output.obj
 0001:00022ed9       ??$peek_va_arg@_J@__crt_stdio_output@@YA_JPAD@Z 10023ed9 f i libucrt:output.obj
 0001:00022eeb       ??$peek_va_arg@_K@__crt_stdio_output@@YA_KPAD@Z 10023eeb f i libucrt:output.obj
 0001:00022efd       ??$peek_va_arg@_W@__crt_stdio_output@@YA_WPAD@Z 10023efd f i libucrt:output.obj
 0001:00022f0d       ??$puttc_nolock@ABDPAU_iobuf@@@?$__crt_char_traits@D@@SAHABD$$QAPAU_iobuf@@@Z 10023f0d f i libucrt:output.obj
 0001:00022f2d       ??$puttc_nolock@AB_WPAU_iobuf@@@?$__crt_char_traits@_W@@SAGAB_W$$QAPAU_iobuf@@@Z 10023f2d f i libucrt:output.obj
 0001:00022f4d       ??$read_va_arg@C@__crt_stdio_output@@YACAAPAD@Z 10023f4d f i libucrt:output.obj
 0001:00022f63       ??$read_va_arg@E@__crt_stdio_output@@YAEAAPAD@Z 10023f63 f i libucrt:output.obj
 0001:00022f79       ??$read_va_arg@F@__crt_stdio_output@@YAFAAPAD@Z 10023f79 f i libucrt:output.obj
 0001:00022f90       ??$read_va_arg@G@__crt_stdio_output@@YAGAAPAD@Z 10023f90 f i libucrt:output.obj
 0001:00022fa7       ??$read_va_arg@H@__crt_stdio_output@@YAHAAPAD@Z 10023fa7 f i libucrt:output.obj
 0001:00022fbd       ??$read_va_arg@I@__crt_stdio_output@@YAIAAPAD@Z 10023fbd f i libucrt:output.obj
 0001:00022fd3       ??$read_va_arg@PAD@__crt_stdio_output@@YAPADAAPAD@Z 10023fd3 f i libucrt:output.obj
 0001:00022fe9       ??$read_va_arg@PAUansi_string@?1??type_case_Z@?$output_processor@DV?$stream_output_adapter@D@__crt_stdio_output@@V?$format_validation_base@DV?$stream_output_adapter@D@__crt_stdio_output@@@2@@__crt_stdio_output@@AAE_NXZ@@__crt_stdio_output@@YAPAUansi_string@?1??type_case_Z@?$output_processor@DV?$stream_output_adapter@D@__crt_stdio_output@@V?$format_validation_base@DV?$stream_output_adapter@D@__crt_stdio_output@@@2@@0@AAE_NXZ@AAPAD@Z 10023fe9 f i libucrt:output.obj
 0001:00022fff       ??$read_va_arg@PAUansi_string@?1??type_case_Z@?$output_processor@DV?$stream_output_adapter@D@__crt_stdio_output@@V?$positional_parameter_base@DV?$stream_output_adapter@D@__crt_stdio_output@@@2@@__crt_stdio_output@@AAE_NXZ@@__crt_stdio_output@@YAPAUansi_string@?1??type_case_Z@?$output_processor@DV?$stream_output_adapter@D@__crt_stdio_output@@V?$positional_parameter_base@DV?$stream_output_adapter@D@__crt_stdio_output@@@2@@0@AAE_NXZ@AAPAD@Z 10023fff f i libucrt:output.obj
 0001:00023015       ??$read_va_arg@PAUansi_string@?1??type_case_Z@?$output_processor@DV?$stream_output_adapter@D@__crt_stdio_output@@V?$standard_base@DV?$stream_output_adapter@D@__crt_stdio_output@@@2@@__crt_stdio_output@@AAE_NXZ@@__crt_stdio_output@@YAPAUansi_string@?1??type_case_Z@?$output_processor@DV?$stream_output_adapter@D@__crt_stdio_output@@V?$standard_base@DV?$stream_output_adapter@D@__crt_stdio_output@@@2@@0@AAE_NXZ@AAPAD@Z 10024015 f i libucrt:output.obj
 0001:0002302b       ??$read_va_arg@PAUansi_string@?1??type_case_Z@?$output_processor@DV?$string_output_adapter@D@__crt_stdio_output@@V?$format_validation_base@DV?$string_output_adapter@D@__crt_stdio_output@@@2@@__crt_stdio_output@@AAE_NXZ@@__crt_stdio_output@@YAPAUansi_string@?1??type_case_Z@?$output_processor@DV?$string_output_adapter@D@__crt_stdio_output@@V?$format_validation_base@DV?$string_output_adapter@D@__crt_stdio_output@@@2@@0@AAE_NXZ@AAPAD@Z 1002402b f i libucrt:output.obj
 0001:00023041       ??$read_va_arg@PAUansi_string@?1??type_case_Z@?$output_processor@DV?$string_output_adapter@D@__crt_stdio_output@@V?$positional_parameter_base@DV?$string_output_adapter@D@__crt_stdio_output@@@2@@__crt_stdio_output@@AAE_NXZ@@__crt_stdio_output@@YAPAUansi_string@?1??type_case_Z@?$output_processor@DV?$string_output_adapter@D@__crt_stdio_output@@V?$positional_parameter_base@DV?$string_output_adapter@D@__crt_stdio_output@@@2@@0@AAE_NXZ@AAPAD@Z 10024041 f i libucrt:output.obj
 0001:00023057       ??$read_va_arg@PAUansi_string@?1??type_case_Z@?$output_processor@DV?$string_output_adapter@D@__crt_stdio_output@@V?$standard_base@DV?$string_output_adapter@D@__crt_stdio_output@@@2@@__crt_stdio_output@@AAE_NXZ@@__crt_stdio_output@@YAPAUansi_string@?1??type_case_Z@?$output_processor@DV?$string_output_adapter@D@__crt_stdio_output@@V?$standard_base@DV?$string_output_adapter@D@__crt_stdio_output@@@2@@0@AAE_NXZ@AAPAD@Z 10024057 f i libucrt:output.obj
 0001:0002306d       ??$read_va_arg@PAUansi_string@?1??type_case_Z@?$output_processor@_WV?$stream_output_adapter@_W@__crt_stdio_output@@V?$format_validation_base@_WV?$stream_output_adapter@_W@__crt_stdio_output@@@2@@__crt_stdio_output@@AAE_NXZ@@__crt_stdio_output@@YAPAUansi_string@?1??type_case_Z@?$output_processor@_WV?$stream_output_adapter@_W@__crt_stdio_output@@V?$format_validation_base@_WV?$stream_output_adapter@_W@__crt_stdio_output@@@2@@0@AAE_NXZ@AAPAD@Z 1002406d f i libucrt:output.obj
 0001:00023083       ??$read_va_arg@PAUansi_string@?1??type_case_Z@?$output_processor@_WV?$stream_output_adapter@_W@__crt_stdio_output@@V?$positional_parameter_base@_WV?$stream_output_adapter@_W@__crt_stdio_output@@@2@@__crt_stdio_output@@AAE_NXZ@@__crt_stdio_output@@YAPAUansi_string@?1??type_case_Z@?$output_processor@_WV?$stream_output_adapter@_W@__crt_stdio_output@@V?$positional_parameter_base@_WV?$stream_output_adapter@_W@__crt_stdio_output@@@2@@0@AAE_NXZ@AAPAD@Z 10024083 f i libucrt:output.obj
 0001:00023099       ??$read_va_arg@PAUansi_string@?1??type_case_Z@?$output_processor@_WV?$stream_output_adapter@_W@__crt_stdio_output@@V?$standard_base@_WV?$stream_output_adapter@_W@__crt_stdio_output@@@2@@__crt_stdio_output@@AAE_NXZ@@__crt_stdio_output@@YAPAUansi_string@?1??type_case_Z@?$output_processor@_WV?$stream_output_adapter@_W@__crt_stdio_output@@V?$standard_base@_WV?$stream_output_adapter@_W@__crt_stdio_output@@@2@@0@AAE_NXZ@AAPAD@Z 10024099 f i libucrt:output.obj
 0001:000230af       ??$read_va_arg@PAUansi_string@?1??type_case_Z@?$output_processor@_WV?$string_output_adapter@_W@__crt_stdio_output@@V?$format_validation_base@_WV?$string_output_adapter@_W@__crt_stdio_output@@@2@@__crt_stdio_output@@AAE_NXZ@@__crt_stdio_output@@YAPAUansi_string@?1??type_case_Z@?$output_processor@_WV?$string_output_adapter@_W@__crt_stdio_output@@V?$format_validation_base@_WV?$string_output_adapter@_W@__crt_stdio_output@@@2@@0@AAE_NXZ@AAPAD@Z 100240af f i libucrt:output.obj
 0001:000230c5       ??$read_va_arg@PAUansi_string@?1??type_case_Z@?$output_processor@_WV?$string_output_adapter@_W@__crt_stdio_output@@V?$positional_parameter_base@_WV?$string_output_adapter@_W@__crt_stdio_output@@@2@@__crt_stdio_output@@AAE_NXZ@@__crt_stdio_output@@YAPAUansi_string@?1??type_case_Z@?$output_processor@_WV?$string_output_adapter@_W@__crt_stdio_output@@V?$positional_parameter_base@_WV?$string_output_adapter@_W@__crt_stdio_output@@@2@@0@AAE_NXZ@AAPAD@Z 100240c5 f i libucrt:output.obj
 0001:000230db       ??$read_va_arg@PAUansi_string@?1??type_case_Z@?$output_processor@_WV?$string_output_adapter@_W@__crt_stdio_output@@V?$standard_base@_WV?$string_output_adapter@_W@__crt_stdio_output@@@2@@__crt_stdio_output@@AAE_NXZ@@__crt_stdio_output@@YAPAUansi_string@?1??type_case_Z@?$output_processor@_WV?$string_output_adapter@_W@__crt_stdio_output@@V?$standard_base@_WV?$string_output_adapter@_W@__crt_stdio_output@@@2@@0@AAE_NXZ@AAPAD@Z 100240db f i libucrt:output.obj
 0001:000230f1       ??$read_va_arg@PAX@__crt_stdio_output@@YAPAXAAPAD@Z 100240f1 f i libucrt:output.obj
 0001:00023107       ??$read_va_arg@U_CRT_DOUBLE@@@__crt_stdio_output@@YA?AU_CRT_DOUBLE@@AAPAD@Z 10024107 f i libucrt:output.obj
 0001:00023121       ??$read_va_arg@_J@__crt_stdio_output@@YA_JAAPAD@Z 10024121 f i libucrt:output.obj
 0001:0002313b       ??$read_va_arg@_K@__crt_stdio_output@@YA_KAAPAD@Z 1002413b f i libucrt:output.obj
 0001:00023155       ??$read_va_arg@_W@__crt_stdio_output@@YA_WAAPAD@Z 10024155 f i libucrt:output.obj
 0001:0002316c       ??$scratch_count@D@formatting_buffer@__crt_stdio_output@@QBEIXZ 1002416c f i libucrt:output.obj
 0001:00023171       ??$scratch_data@D@formatting_buffer@__crt_stdio_output@@QAEPADXZ 10024171 f i libucrt:output.obj
 0001:00023196       ??$tcstol@AAPBDPAPADH@?$__crt_char_traits@D@@SAJAAPBD$$QAPAPAD$$QAH@Z 10024196 f i libucrt:output.obj
 0001:000231bb       ??$tcstol@AAPB_WPAPA_WH@?$__crt_char_traits@_W@@SAJAAPB_W$$QAPAPA_W$$QAH@Z 100241bb f i libucrt:output.obj
 0001:000231e0       ??$tcstol@PBDPAPADH@?$__crt_char_traits@D@@SAJ$$QAPBD$$QAPAPAD$$QAH@Z 100241e0 f i libucrt:output.obj
 0001:00023205       ??$tcstol@PB_WPAPA_WH@?$__crt_char_traits@_W@@SAJ$$QAPB_W$$QAPAPA_W$$QAH@Z 10024205 f i libucrt:output.obj
 0001:0002322a       ??$type_case_integer_parse_into_buffer@I@?$output_processor@DV?$stream_output_adapter@D@__crt_stdio_output@@V?$format_validation_base@DV?$stream_output_adapter@D@__crt_stdio_output@@@2@@__crt_stdio_output@@AAEXII_N@Z 1002422a f i libucrt:output.obj
 0001:000232bc       ??$type_case_integer_parse_into_buffer@I@?$output_processor@DV?$stream_output_adapter@D@__crt_stdio_output@@V?$positional_parameter_base@DV?$stream_output_adapter@D@__crt_stdio_output@@@2@@__crt_stdio_output@@AAEXII_N@Z 100242bc f i libucrt:output.obj
 0001:0002334e       ??$type_case_integer_parse_into_buffer@I@?$output_processor@DV?$stream_output_adapter@D@__crt_stdio_output@@V?$standard_base@DV?$stream_output_adapter@D@__crt_stdio_output@@@2@@__crt_stdio_output@@AAEXII_N@Z 1002434e f i libucrt:output.obj
 0001:000233e0       ??$type_case_integer_parse_into_buffer@I@?$output_processor@DV?$string_output_adapter@D@__crt_stdio_output@@V?$format_validation_base@DV?$string_output_adapter@D@__crt_stdio_output@@@2@@__crt_stdio_output@@AAEXII_N@Z 100243e0 f i libucrt:output.obj
 0001:00023472       ??$type_case_integer_parse_into_buffer@I@?$output_processor@DV?$string_output_adapter@D@__crt_stdio_output@@V?$positional_parameter_base@DV?$string_output_adapter@D@__crt_stdio_output@@@2@@__crt_stdio_output@@AAEXII_N@Z 10024472 f i libucrt:output.obj
 0001:00023504       ??$type_case_integer_parse_into_buffer@I@?$output_processor@DV?$string_output_adapter@D@__crt_stdio_output@@V?$standard_base@DV?$string_output_adapter@D@__crt_stdio_output@@@2@@__crt_stdio_output@@AAEXII_N@Z 10024504 f i libucrt:output.obj
 0001:00023596       ??$type_case_integer_parse_into_buffer@I@?$output_processor@_WV?$stream_output_adapter@_W@__crt_stdio_output@@V?$format_validation_base@_WV?$stream_output_adapter@_W@__crt_stdio_output@@@2@@__crt_stdio_output@@AAEXII_N@Z 10024596 f i libucrt:output.obj
 0001:00023628       ??$type_case_integer_parse_into_buffer@I@?$output_processor@_WV?$stream_output_adapter@_W@__crt_stdio_output@@V?$positional_parameter_base@_WV?$stream_output_adapter@_W@__crt_stdio_output@@@2@@__crt_stdio_output@@AAEXII_N@Z 10024628 f i libucrt:output.obj
 0001:000236ba       ??$type_case_integer_parse_into_buffer@I@?$output_processor@_WV?$stream_output_adapter@_W@__crt_stdio_output@@V?$standard_base@_WV?$stream_output_adapter@_W@__crt_stdio_output@@@2@@__crt_stdio_output@@AAEXII_N@Z 100246ba f i libucrt:output.obj
 0001:0002374c       ??$type_case_integer_parse_into_buffer@I@?$output_processor@_WV?$string_output_adapter@_W@__crt_stdio_output@@V?$format_validation_base@_WV?$string_output_adapter@_W@__crt_stdio_output@@@2@@__crt_stdio_output@@AAEXII_N@Z 1002474c f i libucrt:output.obj
 0001:000237de       ??$type_case_integer_parse_into_buffer@I@?$output_processor@_WV?$string_output_adapter@_W@__crt_stdio_output@@V?$positional_parameter_base@_WV?$string_output_adapter@_W@__crt_stdio_output@@@2@@__crt_stdio_output@@AAEXII_N@Z 100247de f i libucrt:output.obj
 0001:00023870       ??$type_case_integer_parse_into_buffer@I@?$output_processor@_WV?$string_output_adapter@_W@__crt_stdio_output@@V?$standard_base@_WV?$string_output_adapter@_W@__crt_stdio_output@@@2@@__crt_stdio_output@@AAEXII_N@Z 10024870 f i libucrt:output.obj
 0001:00023902       ??$type_case_integer_parse_into_buffer@_K@?$output_processor@DV?$stream_output_adapter@D@__crt_stdio_output@@V?$format_validation_base@DV?$stream_output_adapter@D@__crt_stdio_output@@@2@@__crt_stdio_output@@AAEX_KI_N@Z 10024902 f i libucrt:output.obj
 0001:000239ac       ??$type_case_integer_parse_into_buffer@_K@?$output_processor@DV?$stream_output_adapter@D@__crt_stdio_output@@V?$positional_parameter_base@DV?$stream_output_adapter@D@__crt_stdio_output@@@2@@__crt_stdio_output@@AAEX_KI_N@Z 100249ac f i libucrt:output.obj
 0001:00023a56       ??$type_case_integer_parse_into_buffer@_K@?$output_processor@DV?$stream_output_adapter@D@__crt_stdio_output@@V?$standard_base@DV?$stream_output_adapter@D@__crt_stdio_output@@@2@@__crt_stdio_output@@AAEX_KI_N@Z 10024a56 f i libucrt:output.obj
 0001:00023b00       ??$type_case_integer_parse_into_buffer@_K@?$output_processor@DV?$string_output_adapter@D@__crt_stdio_output@@V?$format_validation_base@DV?$string_output_adapter@D@__crt_stdio_output@@@2@@__crt_stdio_output@@AAEX_KI_N@Z 10024b00 f i libucrt:output.obj
 0001:00023baa       ??$type_case_integer_parse_into_buffer@_K@?$output_processor@DV?$string_output_adapter@D@__crt_stdio_output@@V?$positional_parameter_base@DV?$string_output_adapter@D@__crt_stdio_output@@@2@@__crt_stdio_output@@AAEX_KI_N@Z 10024baa f i libucrt:output.obj
 0001:00023c54       ??$type_case_integer_parse_into_buffer@_K@?$output_processor@DV?$string_output_adapter@D@__crt_stdio_output@@V?$standard_base@DV?$string_output_adapter@D@__crt_stdio_output@@@2@@__crt_stdio_output@@AAEX_KI_N@Z 10024c54 f i libucrt:output.obj
 0001:00023cfe       ??$type_case_integer_parse_into_buffer@_K@?$output_processor@_WV?$stream_output_adapter@_W@__crt_stdio_output@@V?$format_validation_base@_WV?$stream_output_adapter@_W@__crt_stdio_output@@@2@@__crt_stdio_output@@AAEX_KI_N@Z 10024cfe f i libucrt:output.obj
 0001:00023da8       ??$type_case_integer_parse_into_buffer@_K@?$output_processor@_WV?$stream_output_adapter@_W@__crt_stdio_output@@V?$positional_parameter_base@_WV?$stream_output_adapter@_W@__crt_stdio_output@@@2@@__crt_stdio_output@@AAEX_KI_N@Z 10024da8 f i libucrt:output.obj
 0001:00023e52       ??$type_case_integer_parse_into_buffer@_K@?$output_processor@_WV?$stream_output_adapter@_W@__crt_stdio_output@@V?$standard_base@_WV?$stream_output_adapter@_W@__crt_stdio_output@@@2@@__crt_stdio_output@@AAEX_KI_N@Z 10024e52 f i libucrt:output.obj
 0001:00023efc       ??$type_case_integer_parse_into_buffer@_K@?$output_processor@_WV?$string_output_adapter@_W@__crt_stdio_output@@V?$format_validation_base@_WV?$string_output_adapter@_W@__crt_stdio_output@@@2@@__crt_stdio_output@@AAEX_KI_N@Z 10024efc f i libucrt:output.obj
 0001:00023fa6       ??$type_case_integer_parse_into_buffer@_K@?$output_processor@_WV?$string_output_adapter@_W@__crt_stdio_output@@V?$positional_parameter_base@_WV?$string_output_adapter@_W@__crt_stdio_output@@@2@@__crt_stdio_output@@AAEX_KI_N@Z 10024fa6 f i libucrt:output.obj
 0001:00024050       ??$type_case_integer_parse_into_buffer@_K@?$output_processor@_WV?$string_output_adapter@_W@__crt_stdio_output@@V?$standard_base@_WV?$string_output_adapter@_W@__crt_stdio_output@@@2@@__crt_stdio_output@@AAEX_KI_N@Z 10025050 f i libucrt:output.obj
 0001:000240fa       ??$write_multiple_characters@V?$stream_output_adapter@D@__crt_stdio_output@@D@__crt_stdio_output@@YAXABV?$stream_output_adapter@D@0@DHQAH@Z 100250fa f i libucrt:output.obj
 0001:00024131       ??$write_multiple_characters@V?$stream_output_adapter@_W@__crt_stdio_output@@D@__crt_stdio_output@@YAXABV?$stream_output_adapter@_W@0@DHQAH@Z 10025131 f i libucrt:output.obj
 0001:0002416e       ??$write_multiple_characters@V?$string_output_adapter@D@__crt_stdio_output@@D@__crt_stdio_output@@YAXABV?$string_output_adapter@D@0@DHQAH@Z 1002516e f i libucrt:output.obj
 0001:000241a5       ??$write_multiple_characters@V?$string_output_adapter@_W@__crt_stdio_output@@D@__crt_stdio_output@@YAXABV?$string_output_adapter@_W@0@DHQAH@Z 100251a5 f i libucrt:output.obj
 0001:00024416       ??0?$common_data@D@__crt_stdio_output@@IAE@XZ 10025416 f i libucrt:output.obj
 0001:0002446e       ??0?$common_data@_W@__crt_stdio_output@@IAE@XZ 1002546e f i libucrt:output.obj
 0001:000244cd       ??0?$output_adapter_data@DV?$stream_output_adapter@D@__crt_stdio_output@@@__crt_stdio_output@@IAE@ABV?$stream_output_adapter@D@1@_KQBDQAU__crt_locale_pointers@@QAD@Z 100254cd f i libucrt:output.obj
 0001:00024518       ??0?$output_adapter_data@DV?$string_output_adapter@D@__crt_stdio_output@@@__crt_stdio_output@@IAE@ABV?$string_output_adapter@D@1@_KQBDQAU__crt_locale_pointers@@QAD@Z 10025518 f i libucrt:output.obj
 0001:00024563       ??0?$output_adapter_data@_WV?$stream_output_adapter@_W@__crt_stdio_output@@@__crt_stdio_output@@IAE@ABV?$stream_output_adapter@_W@1@_KQB_WQAU__crt_locale_pointers@@QAD@Z 10025563 f i libucrt:output.obj
 0001:000245ae       ??0?$output_adapter_data@_WV?$string_output_adapter@_W@__crt_stdio_output@@@__crt_stdio_output@@IAE@ABV?$string_output_adapter@_W@1@_KQB_WQAU__crt_locale_pointers@@QAD@Z 100255ae f i libucrt:output.obj
 0001:000245f9       ??0?$output_processor@DV?$stream_output_adapter@D@__crt_stdio_output@@V?$format_validation_base@DV?$stream_output_adapter@D@__crt_stdio_output@@@2@@__crt_stdio_output@@QAE@ABV?$stream_output_adapter@D@1@_KQBDQAU__crt_locale_pointers@@QAD@Z 100255f9 f i libucrt:output.obj
 0001:0002463b       ??0?$output_processor@DV?$stream_output_adapter@D@__crt_stdio_output@@V?$positional_parameter_base@DV?$stream_output_adapter@D@__crt_stdio_output@@@2@@__crt_stdio_output@@QAE@ABV?$stream_output_adapter@D@1@_KQBDQAU__crt_locale_pointers@@QAD@Z 1002563b f i libucrt:output.obj
 0001:00024675       ??0?$output_processor@DV?$stream_output_adapter@D@__crt_stdio_output@@V?$standard_base@DV?$stream_output_adapter@D@__crt_stdio_output@@@2@@__crt_stdio_output@@QAE@ABV?$stream_output_adapter@D@1@_KQBDQAU__crt_locale_pointers@@QAD@Z 10025675 f i libucrt:output.obj
 0001:000246b7       ??0?$output_processor@DV?$string_output_adapter@D@__crt_stdio_output@@V?$format_validation_base@DV?$string_output_adapter@D@__crt_stdio_output@@@2@@__crt_stdio_output@@QAE@ABV?$string_output_adapter@D@1@_KQBDQAU__crt_locale_pointers@@QAD@Z 100256b7 f i libucrt:output.obj
 0001:000246f9       ??0?$output_processor@DV?$string_output_adapter@D@__crt_stdio_output@@V?$positional_parameter_base@DV?$string_output_adapter@D@__crt_stdio_output@@@2@@__crt_stdio_output@@QAE@ABV?$string_output_adapter@D@1@_KQBDQAU__crt_locale_pointers@@QAD@Z 100256f9 f i libucrt:output.obj
 0001:00024733       ??0?$output_processor@DV?$string_output_adapter@D@__crt_stdio_output@@V?$standard_base@DV?$string_output_adapter@D@__crt_stdio_output@@@2@@__crt_stdio_output@@QAE@ABV?$string_output_adapter@D@1@_KQBDQAU__crt_locale_pointers@@QAD@Z 10025733 f i libucrt:output.obj
 0001:00024775       ??0?$output_processor@_WV?$stream_output_adapter@_W@__crt_stdio_output@@V?$format_validation_base@_WV?$stream_output_adapter@_W@__crt_stdio_output@@@2@@__crt_stdio_output@@QAE@ABV?$stream_output_adapter@_W@1@_KQB_WQAU__crt_locale_pointers@@QAD@Z 10025775 f i libucrt:output.obj
 0001:000247b7       ??0?$output_processor@_WV?$stream_output_adapter@_W@__crt_stdio_output@@V?$positional_parameter_base@_WV?$stream_output_adapter@_W@__crt_stdio_output@@@2@@__crt_stdio_output@@QAE@ABV?$stream_output_adapter@_W@1@_KQB_WQAU__crt_locale_pointers@@QAD@Z 100257b7 f i libucrt:output.obj
 0001:000247f1       ??0?$output_processor@_WV?$stream_output_adapter@_W@__crt_stdio_output@@V?$standard_base@_WV?$stream_output_adapter@_W@__crt_stdio_output@@@2@@__crt_stdio_output@@QAE@ABV?$stream_output_adapter@_W@1@_KQB_WQAU__crt_locale_pointers@@QAD@Z 100257f1 f i libucrt:output.obj
 0001:00024833       ??0?$output_processor@_WV?$string_output_adapter@_W@__crt_stdio_output@@V?$format_validation_base@_WV?$string_output_adapter@_W@__crt_stdio_output@@@2@@__crt_stdio_output@@QAE@ABV?$string_output_adapter@_W@1@_KQB_WQAU__crt_locale_pointers@@QAD@Z 10025833 f i libucrt:output.obj
 0001:00024875       ??0?$output_processor@_WV?$string_output_adapter@_W@__crt_stdio_output@@V?$positional_parameter_base@_WV?$string_output_adapter@_W@__crt_stdio_output@@@2@@__crt_stdio_output@@QAE@ABV?$string_output_adapter@_W@1@_KQB_WQAU__crt_locale_pointers@@QAD@Z 10025875 f i libucrt:output.obj
 0001:000248af       ??0?$output_processor@_WV?$string_output_adapter@_W@__crt_stdio_output@@V?$standard_base@_WV?$string_output_adapter@_W@__crt_stdio_output@@@2@@__crt_stdio_output@@QAE@ABV?$string_output_adapter@_W@1@_KQB_WQAU__crt_locale_pointers@@QAD@Z 100258af f i libucrt:output.obj
 0001:000248f1       ??0?$stream_output_adapter@D@__crt_stdio_output@@QAE@QAU_iobuf@@@Z 100258f1 f i libucrt:output.obj
 0001:00024905       ??0?$stream_output_adapter@_W@__crt_stdio_output@@QAE@QAU_iobuf@@@Z 10025905 f i libucrt:output.obj
 0001:00024919       ??0?$string_output_adapter@D@__crt_stdio_output@@QAE@QAU?$string_output_adapter_context@D@1@@Z 10025919 f i libucrt:output.obj
 0001:0002492d       ??0?$string_output_adapter@_W@__crt_stdio_output@@QAE@QAU?$string_output_adapter_context@_W@1@@Z 1002592d f i libucrt:output.obj
 0001:00024941       ??0_LocaleUpdate@@QAE@QAU__crt_locale_pointers@@@Z 10025941 f i libucrt:output.obj
 0001:000249e4       ??0__crt_errno_guard@@QAE@QAH@Z 100259e4 f i libucrt:output.obj
 0001:00024a02       ??0formatting_buffer@__crt_stdio_output@@QAE@XZ 10025a02 f i libucrt:output.obj
 0001:00024a17       ??1?$common_data@D@__crt_stdio_output@@QAE@XZ 10025a17 f i libucrt:output.obj
 0001:00024a21       ??1?$common_data@_W@__crt_stdio_output@@QAE@XZ 10025a21 f i libucrt:output.obj
 0001:00024a2b       ??1?$format_validation_base@DV?$stream_output_adapter@D@__crt_stdio_output@@@__crt_stdio_output@@QAE@XZ 10025a2b f i libucrt:output.obj
 0001:00024a35       ??1?$format_validation_base@DV?$string_output_adapter@D@__crt_stdio_output@@@__crt_stdio_output@@QAE@XZ 10025a35 f i libucrt:output.obj
 0001:00024a3f       ??1?$format_validation_base@_WV?$stream_output_adapter@_W@__crt_stdio_output@@@__crt_stdio_output@@QAE@XZ 10025a3f f i libucrt:output.obj
 0001:00024a49       ??1?$format_validation_base@_WV?$string_output_adapter@_W@__crt_stdio_output@@@__crt_stdio_output@@QAE@XZ 10025a49 f i libucrt:output.obj
 0001:00024a53       ??1?$output_adapter_data@DV?$stream_output_adapter@D@__crt_stdio_output@@@__crt_stdio_output@@QAE@XZ 10025a53 f i libucrt:output.obj
 0001:00024a5d       ??1?$output_adapter_data@DV?$string_output_adapter@D@__crt_stdio_output@@@__crt_stdio_output@@QAE@XZ 10025a5d f i libucrt:output.obj
 0001:00024a67       ??1?$output_adapter_data@_WV?$stream_output_adapter@_W@__crt_stdio_output@@@__crt_stdio_output@@QAE@XZ 10025a67 f i libucrt:output.obj
 0001:00024a71       ??1?$output_adapter_data@_WV?$string_output_adapter@_W@__crt_stdio_output@@@__crt_stdio_output@@QAE@XZ 10025a71 f i libucrt:output.obj
 0001:00024a7b       ??1?$output_processor@DV?$stream_output_adapter@D@__crt_stdio_output@@V?$format_validation_base@DV?$stream_output_adapter@D@__crt_stdio_output@@@2@@__crt_stdio_output@@QAE@XZ 10025a7b f i libucrt:output.obj
 0001:00024a85       ??1?$output_processor@DV?$stream_output_adapter@D@__crt_stdio_output@@V?$positional_parameter_base@DV?$stream_output_adapter@D@__crt_stdio_output@@@2@@__crt_stdio_output@@QAE@XZ 10025a85 f i libucrt:output.obj
 0001:00024a8f       ??1?$output_processor@DV?$stream_output_adapter@D@__crt_stdio_output@@V?$standard_base@DV?$stream_output_adapter@D@__crt_stdio_output@@@2@@__crt_stdio_output@@QAE@XZ 10025a8f f i libucrt:output.obj
 0001:00024a99       ??1?$output_processor@DV?$string_output_adapter@D@__crt_stdio_output@@V?$format_validation_base@DV?$string_output_adapter@D@__crt_stdio_output@@@2@@__crt_stdio_output@@QAE@XZ 10025a99 f i libucrt:output.obj
 0001:00024aa3       ??1?$output_processor@DV?$string_output_adapter@D@__crt_stdio_output@@V?$positional_parameter_base@DV?$string_output_adapter@D@__crt_stdio_output@@@2@@__crt_stdio_output@@QAE@XZ 10025aa3 f i libucrt:output.obj
 0001:00024aad       ??1?$output_processor@DV?$string_output_adapter@D@__crt_stdio_output@@V?$standard_base@DV?$string_output_adapter@D@__crt_stdio_output@@@2@@__crt_stdio_output@@QAE@XZ 10025aad f i libucrt:output.obj
 0001:00024ab7       ??1?$output_processor@_WV?$stream_output_adapter@_W@__crt_stdio_output@@V?$format_validation_base@_WV?$stream_output_adapter@_W@__crt_stdio_output@@@2@@__crt_stdio_output@@QAE@XZ 10025ab7 f i libucrt:output.obj
 0001:00024ac1       ??1?$output_processor@_WV?$stream_output_adapter@_W@__crt_stdio_output@@V?$positional_parameter_base@_WV?$stream_output_adapter@_W@__crt_stdio_output@@@2@@__crt_stdio_output@@QAE@XZ 10025ac1 f i libucrt:output.obj
 0001:00024acb       ??1?$output_processor@_WV?$stream_output_adapter@_W@__crt_stdio_output@@V?$standard_base@_WV?$stream_output_adapter@_W@__crt_stdio_output@@@2@@__crt_stdio_output@@QAE@XZ 10025acb f i libucrt:output.obj
 0001:00024ad5       ??1?$output_processor@_WV?$string_output_adapter@_W@__crt_stdio_output@@V?$format_validation_base@_WV?$string_output_adapter@_W@__crt_stdio_output@@@2@@__crt_stdio_output@@QAE@XZ 10025ad5 f i libucrt:output.obj
 0001:00024adf       ??1?$output_processor@_WV?$string_output_adapter@_W@__crt_stdio_output@@V?$positional_parameter_base@_WV?$string_output_adapter@_W@__crt_stdio_output@@@2@@__crt_stdio_output@@QAE@XZ 10025adf f i libucrt:output.obj
 0001:00024ae9       ??1?$output_processor@_WV?$string_output_adapter@_W@__crt_stdio_output@@V?$standard_base@_WV?$string_output_adapter@_W@__crt_stdio_output@@@2@@__crt_stdio_output@@QAE@XZ 10025ae9 f i libucrt:output.obj
 0001:00024af3       ??1?$positional_parameter_base@DV?$stream_output_adapter@D@__crt_stdio_output@@@__crt_stdio_output@@QAE@XZ 10025af3 f i libucrt:output.obj
 0001:00024afd       ??1?$positional_parameter_base@DV?$string_output_adapter@D@__crt_stdio_output@@@__crt_stdio_output@@QAE@XZ 10025afd f i libucrt:output.obj
 0001:00024b07       ??1?$positional_parameter_base@_WV?$stream_output_adapter@_W@__crt_stdio_output@@@__crt_stdio_output@@QAE@XZ 10025b07 f i libucrt:output.obj
 0001:00024b11       ??1?$positional_parameter_base@_WV?$string_output_adapter@_W@__crt_stdio_output@@@__crt_stdio_output@@QAE@XZ 10025b11 f i libucrt:output.obj
 0001:00024b1b       ??1?$standard_base@DV?$stream_output_adapter@D@__crt_stdio_output@@@__crt_stdio_output@@QAE@XZ 10025b1b f i libucrt:output.obj
 0001:00024b25       ??1?$standard_base@DV?$string_output_adapter@D@__crt_stdio_output@@@__crt_stdio_output@@QAE@XZ 10025b25 f i libucrt:output.obj
 0001:00024b2f       ??1?$standard_base@_WV?$stream_output_adapter@_W@__crt_stdio_output@@@__crt_stdio_output@@QAE@XZ 10025b2f f i libucrt:output.obj
 0001:00024b39       ??1?$standard_base@_WV?$string_output_adapter@_W@__crt_stdio_output@@@__crt_stdio_output@@QAE@XZ 10025b39 f i libucrt:output.obj
 0001:00024b43       ??1_LocaleUpdate@@QAE@XZ   10025b43 f i libucrt:output.obj
 0001:00024b57       ??1__crt_errno_guard@@QAE@XZ 10025b57 f i libucrt:output.obj
 0001:00024b6c       ??1formatting_buffer@__crt_stdio_output@@QAE@XZ 10025b6c f i libucrt:output.obj
 0001:00024b8c       ??4?$__crt_unique_heap_ptr@DU__crt_internal_free_policy@@@@QAEAAV0@$$QAV0@@Z 10025b8c f i libucrt:output.obj
 0001:0002526f       ?GetLocaleT@_LocaleUpdate@@QAEPAU__crt_locale_pointers@@XZ 1002626f f i libucrt:output.obj
 0001:00025273       ?adjust_hexit@?$output_processor@DV?$stream_output_adapter@D@__crt_stdio_output@@V?$format_validation_base@DV?$stream_output_adapter@D@__crt_stdio_output@@@2@@__crt_stdio_output@@CADH_N@Z 10026273 f i libucrt:output.obj
 0001:00025298       ?adjust_hexit@?$output_processor@DV?$stream_output_adapter@D@__crt_stdio_output@@V?$positional_parameter_base@DV?$stream_output_adapter@D@__crt_stdio_output@@@2@@__crt_stdio_output@@CADH_N@Z 10026298 f i libucrt:output.obj
 0001:000252bd       ?adjust_hexit@?$output_processor@DV?$stream_output_adapter@D@__crt_stdio_output@@V?$standard_base@DV?$stream_output_adapter@D@__crt_stdio_output@@@2@@__crt_stdio_output@@CADH_N@Z 100262bd f i libucrt:output.obj
 0001:000252e2       ?adjust_hexit@?$output_processor@DV?$string_output_adapter@D@__crt_stdio_output@@V?$format_validation_base@DV?$string_output_adapter@D@__crt_stdio_output@@@2@@__crt_stdio_output@@CADH_N@Z 100262e2 f i libucrt:output.obj
 0001:00025307       ?adjust_hexit@?$output_processor@DV?$string_output_adapter@D@__crt_stdio_output@@V?$positional_parameter_base@DV?$string_output_adapter@D@__crt_stdio_output@@@2@@__crt_stdio_output@@CADH_N@Z 10026307 f i libucrt:output.obj
 0001:0002532c       ?adjust_hexit@?$output_processor@DV?$string_output_adapter@D@__crt_stdio_output@@V?$standard_base@DV?$string_output_adapter@D@__crt_stdio_output@@@2@@__crt_stdio_output@@CADH_N@Z 1002632c f i libucrt:output.obj
 0001:00025351       ?adjust_hexit@?$output_processor@_WV?$stream_output_adapter@_W@__crt_stdio_output@@V?$format_validation_base@_WV?$stream_output_adapter@_W@__crt_stdio_output@@@2@@__crt_stdio_output@@CADH_N@Z 10026351 f i libucrt:output.obj
 0001:00025376       ?adjust_hexit@?$output_processor@_WV?$stream_output_adapter@_W@__crt_stdio_output@@V?$positional_parameter_base@_WV?$stream_output_adapter@_W@__crt_stdio_output@@@2@@__crt_stdio_output@@CADH_N@Z 10026376 f i libucrt:output.obj
 0001:0002539b       ?adjust_hexit@?$output_processor@_WV?$stream_output_adapter@_W@__crt_stdio_output@@V?$standard_base@_WV?$stream_output_adapter@_W@__crt_stdio_output@@@2@@__crt_stdio_output@@CADH_N@Z 1002639b f i libucrt:output.obj
 0001:000253c0       ?adjust_hexit@?$output_processor@_WV?$string_output_adapter@_W@__crt_stdio_output@@V?$format_validation_base@_WV?$string_output_adapter@_W@__crt_stdio_output@@@2@@__crt_stdio_output@@CADH_N@Z 100263c0 f i libucrt:output.obj
 0001:000253e5       ?adjust_hexit@?$output_processor@_WV?$string_output_adapter@_W@__crt_stdio_output@@V?$positional_parameter_base@_WV?$string_output_adapter@_W@__crt_stdio_output@@@2@@__crt_stdio_output@@CADH_N@Z 100263e5 f i libucrt:output.obj
 0001:0002540a       ?adjust_hexit@?$output_processor@_WV?$string_output_adapter@_W@__crt_stdio_output@@V?$standard_base@_WV?$string_output_adapter@_W@__crt_stdio_output@@@2@@__crt_stdio_output@@CADH_N@Z 1002640a f i libucrt:output.obj
 0001:0002542f       ?advance_to_next_pass@?$positional_parameter_base@DV?$stream_output_adapter@D@__crt_stdio_output@@@__crt_stdio_output@@IAE_NXZ 1002642f f i libucrt:output.obj
 0001:0002548e       ?advance_to_next_pass@?$positional_parameter_base@DV?$string_output_adapter@D@__crt_stdio_output@@@__crt_stdio_output@@IAE_NXZ 1002648e f i libucrt:output.obj
 0001:000254ed       ?advance_to_next_pass@?$positional_parameter_base@_WV?$stream_output_adapter@_W@__crt_stdio_output@@@__crt_stdio_output@@IAE_NXZ 100264ed f i libucrt:output.obj
 0001:0002554c       ?advance_to_next_pass@?$positional_parameter_base@_WV?$string_output_adapter@_W@__crt_stdio_output@@@__crt_stdio_output@@IAE_NXZ 1002654c f i libucrt:output.obj
 0001:000255ab       ?advance_to_next_pass@?$standard_base@DV?$stream_output_adapter@D@__crt_stdio_output@@@__crt_stdio_output@@IAE_NXZ 100265ab f i libucrt:output.obj
 0001:000255c2       ?advance_to_next_pass@?$standard_base@DV?$string_output_adapter@D@__crt_stdio_output@@@__crt_stdio_output@@IAE_NXZ 100265c2 f i libucrt:output.obj
 0001:000255d9       ?advance_to_next_pass@?$standard_base@_WV?$stream_output_adapter@_W@__crt_stdio_output@@@__crt_stdio_output@@IAE_NXZ 100265d9 f i libucrt:output.obj
 0001:000255f0       ?advance_to_next_pass@?$standard_base@_WV?$string_output_adapter@_W@__crt_stdio_output@@@__crt_stdio_output@@IAE_NXZ 100265f0 f i libucrt:output.obj
 0001:00025607       ?crop_zeroes@__crt_stdio_output@@YAXPADQAU__crt_locale_pointers@@@Z 10026607 f i libucrt:output.obj
 0001:00025673       ?find_next_state@?$output_processor@DV?$stream_output_adapter@D@__crt_stdio_output@@V?$format_validation_base@DV?$stream_output_adapter@D@__crt_stdio_output@@@2@@__crt_stdio_output@@ABE?AW4state@2@DW432@@Z 10026673 f i libucrt:output.obj
 0001:000256b5       ?find_next_state@?$output_processor@DV?$stream_output_adapter@D@__crt_stdio_output@@V?$positional_parameter_base@DV?$stream_output_adapter@D@__crt_stdio_output@@@2@@__crt_stdio_output@@ABE?AW4state@2@DW432@@Z 100266b5 f i libucrt:output.obj
 0001:000256f7       ?find_next_state@?$output_processor@DV?$stream_output_adapter@D@__crt_stdio_output@@V?$standard_base@DV?$stream_output_adapter@D@__crt_stdio_output@@@2@@__crt_stdio_output@@ABE?AW4state@2@DW432@@Z 100266f7 f i libucrt:output.obj
 0001:00025735       ?find_next_state@?$output_processor@DV?$string_output_adapter@D@__crt_stdio_output@@V?$format_validation_base@DV?$string_output_adapter@D@__crt_stdio_output@@@2@@__crt_stdio_output@@ABE?AW4state@2@DW432@@Z 10026735 f i libucrt:output.obj
 0001:00025777       ?find_next_state@?$output_processor@DV?$string_output_adapter@D@__crt_stdio_output@@V?$positional_parameter_base@DV?$string_output_adapter@D@__crt_stdio_output@@@2@@__crt_stdio_output@@ABE?AW4state@2@DW432@@Z 10026777 f i libucrt:output.obj
 0001:000257b9       ?find_next_state@?$output_processor@DV?$string_output_adapter@D@__crt_stdio_output@@V?$standard_base@DV?$string_output_adapter@D@__crt_stdio_output@@@2@@__crt_stdio_output@@ABE?AW4state@2@DW432@@Z 100267b9 f i libucrt:output.obj
 0001:000257f7       ?find_next_state@?$output_processor@_WV?$stream_output_adapter@_W@__crt_stdio_output@@V?$format_validation_base@_WV?$stream_output_adapter@_W@__crt_stdio_output@@@2@@__crt_stdio_output@@ABE?AW4state@2@_WW432@@Z 100267f7 f i libucrt:output.obj
 0001:0002583b       ?find_next_state@?$output_processor@_WV?$stream_output_adapter@_W@__crt_stdio_output@@V?$positional_parameter_base@_WV?$stream_output_adapter@_W@__crt_stdio_output@@@2@@__crt_stdio_output@@ABE?AW4state@2@_WW432@@Z 1002683b f i libucrt:output.obj
 0001:0002587f       ?find_next_state@?$output_processor@_WV?$stream_output_adapter@_W@__crt_stdio_output@@V?$standard_base@_WV?$stream_output_adapter@_W@__crt_stdio_output@@@2@@__crt_stdio_output@@ABE?AW4state@2@_WW432@@Z 1002687f f i libucrt:output.obj
 0001:000258c0       ?find_next_state@?$output_processor@_WV?$string_output_adapter@_W@__crt_stdio_output@@V?$format_validation_base@_WV?$string_output_adapter@_W@__crt_stdio_output@@@2@@__crt_stdio_output@@ABE?AW4state@2@_WW432@@Z 100268c0 f i libucrt:output.obj
 0001:00025904       ?find_next_state@?$output_processor@_WV?$string_output_adapter@_W@__crt_stdio_output@@V?$positional_parameter_base@_WV?$string_output_adapter@_W@__crt_stdio_output@@@2@@__crt_stdio_output@@ABE?AW4state@2@_WW432@@Z 10026904 f i libucrt:output.obj
 0001:00025948       ?find_next_state@?$output_processor@_WV?$string_output_adapter@_W@__crt_stdio_output@@V?$standard_base@_WV?$string_output_adapter@_W@__crt_stdio_output@@@2@@__crt_stdio_output@@ABE?AW4state@2@_WW432@@Z 10026948 f i libucrt:output.obj
 0001:00025989       ?force_decimal_point@__crt_stdio_output@@YAXPADQAU__crt_locale_pointers@@@Z 10026989 f i libucrt:output.obj
 0001:000259fc       ?get_parameter_type@?$positional_parameter_base@DV?$stream_output_adapter@D@__crt_stdio_output@@@__crt_stdio_output@@CA?AW4parameter_type@12@F@Z 100269fc f i libucrt:output.obj
 0001:00025a00       ?get_parameter_type@?$positional_parameter_base@DV?$stream_output_adapter@D@__crt_stdio_output@@@__crt_stdio_output@@CA?AW4parameter_type@12@G@Z 10026a00 f i libucrt:output.obj
 0001:00025a04       ?get_parameter_type@?$positional_parameter_base@DV?$stream_output_adapter@D@__crt_stdio_output@@@__crt_stdio_output@@CA?AW4parameter_type@12@H@Z 10026a04 f i libucrt:output.obj
 0001:00025a08       ?get_parameter_type@?$positional_parameter_base@DV?$stream_output_adapter@D@__crt_stdio_output@@@__crt_stdio_output@@CA?AW4parameter_type@12@I@Z 10026a08 f i libucrt:output.obj
 0001:00025a0c       ?get_parameter_type@?$positional_parameter_base@DV?$stream_output_adapter@D@__crt_stdio_output@@@__crt_stdio_output@@CA?AW4parameter_type@12@U_CRT_DOUBLE@@@Z 10026a0c f i libucrt:output.obj
 0001:00025a10       ?get_parameter_type@?$positional_parameter_base@DV?$stream_output_adapter@D@__crt_stdio_output@@@__crt_stdio_output@@CA?AW4parameter_type@12@_J@Z 10026a10 f i libucrt:output.obj
 0001:00025a14       ?get_parameter_type@?$positional_parameter_base@DV?$stream_output_adapter@D@__crt_stdio_output@@@__crt_stdio_output@@CA?AW4parameter_type@12@_K@Z 10026a14 f i libucrt:output.obj
 0001:00025a18       ?get_parameter_type@?$positional_parameter_base@DV?$stream_output_adapter@D@__crt_stdio_output@@@__crt_stdio_output@@CA?AW4parameter_type@12@_W@Z 10026a18 f i libucrt:output.obj
 0001:00025a1c       ?get_parameter_type@?$positional_parameter_base@DV?$string_output_adapter@D@__crt_stdio_output@@@__crt_stdio_output@@CA?AW4parameter_type@12@F@Z 10026a1c f i libucrt:output.obj
 0001:00025a20       ?get_parameter_type@?$positional_parameter_base@DV?$string_output_adapter@D@__crt_stdio_output@@@__crt_stdio_output@@CA?AW4parameter_type@12@G@Z 10026a20 f i libucrt:output.obj
 0001:00025a24       ?get_parameter_type@?$positional_parameter_base@DV?$string_output_adapter@D@__crt_stdio_output@@@__crt_stdio_output@@CA?AW4parameter_type@12@H@Z 10026a24 f i libucrt:output.obj
 0001:00025a28       ?get_parameter_type@?$positional_parameter_base@DV?$string_output_adapter@D@__crt_stdio_output@@@__crt_stdio_output@@CA?AW4parameter_type@12@I@Z 10026a28 f i libucrt:output.obj
 0001:00025a2c       ?get_parameter_type@?$positional_parameter_base@DV?$string_output_adapter@D@__crt_stdio_output@@@__crt_stdio_output@@CA?AW4parameter_type@12@U_CRT_DOUBLE@@@Z 10026a2c f i libucrt:output.obj
 0001:00025a30       ?get_parameter_type@?$positional_parameter_base@DV?$string_output_adapter@D@__crt_stdio_output@@@__crt_stdio_output@@CA?AW4parameter_type@12@_J@Z 10026a30 f i libucrt:output.obj
 0001:00025a34       ?get_parameter_type@?$positional_parameter_base@DV?$string_output_adapter@D@__crt_stdio_output@@@__crt_stdio_output@@CA?AW4parameter_type@12@_K@Z 10026a34 f i libucrt:output.obj
 0001:00025a38       ?get_parameter_type@?$positional_parameter_base@DV?$string_output_adapter@D@__crt_stdio_output@@@__crt_stdio_output@@CA?AW4parameter_type@12@_W@Z 10026a38 f i libucrt:output.obj
 0001:00025a3c       ?get_parameter_type@?$positional_parameter_base@_WV?$stream_output_adapter@_W@__crt_stdio_output@@@__crt_stdio_output@@CA?AW4parameter_type@12@F@Z 10026a3c f i libucrt:output.obj
 0001:00025a40       ?get_parameter_type@?$positional_parameter_base@_WV?$stream_output_adapter@_W@__crt_stdio_output@@@__crt_stdio_output@@CA?AW4parameter_type@12@G@Z 10026a40 f i libucrt:output.obj
 0001:00025a44       ?get_parameter_type@?$positional_parameter_base@_WV?$stream_output_adapter@_W@__crt_stdio_output@@@__crt_stdio_output@@CA?AW4parameter_type@12@H@Z 10026a44 f i libucrt:output.obj
 0001:00025a48       ?get_parameter_type@?$positional_parameter_base@_WV?$stream_output_adapter@_W@__crt_stdio_output@@@__crt_stdio_output@@CA?AW4parameter_type@12@I@Z 10026a48 f i libucrt:output.obj
 0001:00025a4c       ?get_parameter_type@?$positional_parameter_base@_WV?$stream_output_adapter@_W@__crt_stdio_output@@@__crt_stdio_output@@CA?AW4parameter_type@12@U_CRT_DOUBLE@@@Z 10026a4c f i libucrt:output.obj
 0001:00025a50       ?get_parameter_type@?$positional_parameter_base@_WV?$stream_output_adapter@_W@__crt_stdio_output@@@__crt_stdio_output@@CA?AW4parameter_type@12@_J@Z 10026a50 f i libucrt:output.obj
 0001:00025a54       ?get_parameter_type@?$positional_parameter_base@_WV?$stream_output_adapter@_W@__crt_stdio_output@@@__crt_stdio_output@@CA?AW4parameter_type@12@_K@Z 10026a54 f i libucrt:output.obj
 0001:00025a58       ?get_parameter_type@?$positional_parameter_base@_WV?$stream_output_adapter@_W@__crt_stdio_output@@@__crt_stdio_output@@CA?AW4parameter_type@12@_W@Z 10026a58 f i libucrt:output.obj
 0001:00025a5c       ?get_parameter_type@?$positional_parameter_base@_WV?$string_output_adapter@_W@__crt_stdio_output@@@__crt_stdio_output@@CA?AW4parameter_type@12@F@Z 10026a5c f i libucrt:output.obj
 0001:00025a60       ?get_parameter_type@?$positional_parameter_base@_WV?$string_output_adapter@_W@__crt_stdio_output@@@__crt_stdio_output@@CA?AW4parameter_type@12@G@Z 10026a60 f i libucrt:output.obj
 0001:00025a64       ?get_parameter_type@?$positional_parameter_base@_WV?$string_output_adapter@_W@__crt_stdio_output@@@__crt_stdio_output@@CA?AW4parameter_type@12@H@Z 10026a64 f i libucrt:output.obj
 0001:00025a68       ?get_parameter_type@?$positional_parameter_base@_WV?$string_output_adapter@_W@__crt_stdio_output@@@__crt_stdio_output@@CA?AW4parameter_type@12@I@Z 10026a68 f i libucrt:output.obj
 0001:00025a6c       ?get_parameter_type@?$positional_parameter_base@_WV?$string_output_adapter@_W@__crt_stdio_output@@@__crt_stdio_output@@CA?AW4parameter_type@12@U_CRT_DOUBLE@@@Z 10026a6c f i libucrt:output.obj
 0001:00025a70       ?get_parameter_type@?$positional_parameter_base@_WV?$string_output_adapter@_W@__crt_stdio_output@@@__crt_stdio_output@@CA?AW4parameter_type@12@_J@Z 10026a70 f i libucrt:output.obj
 0001:00025a74       ?get_parameter_type@?$positional_parameter_base@_WV?$string_output_adapter@_W@__crt_stdio_output@@@__crt_stdio_output@@CA?AW4parameter_type@12@_K@Z 10026a74 f i libucrt:output.obj
 0001:00025a78       ?get_parameter_type@?$positional_parameter_base@_WV?$string_output_adapter@_W@__crt_stdio_output@@@__crt_stdio_output@@CA?AW4parameter_type@12@_W@Z 10026a78 f i libucrt:output.obj
 0001:00025a7c       ?has_flag@?$output_processor@DV?$stream_output_adapter@D@__crt_stdio_output@@V?$format_validation_base@DV?$stream_output_adapter@D@__crt_stdio_output@@@2@@__crt_stdio_output@@ABE_NI@Z 10026a7c f i libucrt:output.obj
 0001:00025a96       ?has_flag@?$output_processor@DV?$stream_output_adapter@D@__crt_stdio_output@@V?$positional_parameter_base@DV?$stream_output_adapter@D@__crt_stdio_output@@@2@@__crt_stdio_output@@ABE_NI@Z 10026a96 f i libucrt:output.obj
 0001:00025ab0       ?has_flag@?$output_processor@DV?$stream_output_adapter@D@__crt_stdio_output@@V?$standard_base@DV?$stream_output_adapter@D@__crt_stdio_output@@@2@@__crt_stdio_output@@ABE_NI@Z 10026ab0 f i libucrt:output.obj
 0001:00025aca       ?has_flag@?$output_processor@DV?$string_output_adapter@D@__crt_stdio_output@@V?$format_validation_base@DV?$string_output_adapter@D@__crt_stdio_output@@@2@@__crt_stdio_output@@ABE_NI@Z 10026aca f i libucrt:output.obj
 0001:00025ae4       ?has_flag@?$output_processor@DV?$string_output_adapter@D@__crt_stdio_output@@V?$positional_parameter_base@DV?$string_output_adapter@D@__crt_stdio_output@@@2@@__crt_stdio_output@@ABE_NI@Z 10026ae4 f i libucrt:output.obj
 0001:00025afe       ?has_flag@?$output_processor@DV?$string_output_adapter@D@__crt_stdio_output@@V?$standard_base@DV?$string_output_adapter@D@__crt_stdio_output@@@2@@__crt_stdio_output@@ABE_NI@Z 10026afe f i libucrt:output.obj
 0001:00025b18       ?has_flag@?$output_processor@_WV?$stream_output_adapter@_W@__crt_stdio_output@@V?$format_validation_base@_WV?$stream_output_adapter@_W@__crt_stdio_output@@@2@@__crt_stdio_output@@ABE_NI@Z 10026b18 f i libucrt:output.obj
 0001:00025b32       ?has_flag@?$output_processor@_WV?$stream_output_adapter@_W@__crt_stdio_output@@V?$positional_parameter_base@_WV?$stream_output_adapter@_W@__crt_stdio_output@@@2@@__crt_stdio_output@@ABE_NI@Z 10026b32 f i libucrt:output.obj
 0001:00025b4c       ?has_flag@?$output_processor@_WV?$stream_output_adapter@_W@__crt_stdio_output@@V?$standard_base@_WV?$stream_output_adapter@_W@__crt_stdio_output@@@2@@__crt_stdio_output@@ABE_NI@Z 10026b4c f i libucrt:output.obj
 0001:00025b66       ?has_flag@?$output_processor@_WV?$string_output_adapter@_W@__crt_stdio_output@@V?$format_validation_base@_WV?$string_output_adapter@_W@__crt_stdio_output@@@2@@__crt_stdio_output@@ABE_NI@Z 10026b66 f i libucrt:output.obj
 0001:00025b80       ?has_flag@?$output_processor@_WV?$string_output_adapter@_W@__crt_stdio_output@@V?$positional_parameter_base@_WV?$string_output_adapter@_W@__crt_stdio_output@@@2@@__crt_stdio_output@@ABE_NI@Z 10026b80 f i libucrt:output.obj
 0001:00025b9a       ?has_flag@?$output_processor@_WV?$string_output_adapter@_W@__crt_stdio_output@@V?$standard_base@_WV?$string_output_adapter@_W@__crt_stdio_output@@@2@@__crt_stdio_output@@ABE_NI@Z 10026b9a f i libucrt:output.obj
 0001:00025bb4       ?is_positional_parameter_reappearance_consistent@?$positional_parameter_base@DV?$stream_output_adapter@D@__crt_stdio_output@@@__crt_stdio_output@@AAE_NABUparameter_data@12@W4parameter_type@12@DW4length_modifier@2@@Z 10026bb4 f i libucrt:output.obj
 0001:00025d2d       ?is_positional_parameter_reappearance_consistent@?$positional_parameter_base@DV?$string_output_adapter@D@__crt_stdio_output@@@__crt_stdio_output@@AAE_NABUparameter_data@12@W4parameter_type@12@DW4length_modifier@2@@Z 10026d2d f i libucrt:output.obj
 0001:00025ea6       ?is_positional_parameter_reappearance_consistent@?$positional_parameter_base@_WV?$stream_output_adapter@_W@__crt_stdio_output@@@__crt_stdio_output@@AAE_NABUparameter_data@12@W4parameter_type@12@_WW4length_modifier@2@@Z 10026ea6 f i libucrt:output.obj
 0001:00026011       ?is_positional_parameter_reappearance_consistent@?$positional_parameter_base@_WV?$string_output_adapter@_W@__crt_stdio_output@@@__crt_stdio_output@@AAE_NABUparameter_data@12@W4parameter_type@12@_WW4length_modifier@2@@Z 10027011 f i libucrt:output.obj
 0001:0002617c       ?narrow_null_string@?$output_processor@DV?$stream_output_adapter@D@__crt_stdio_output@@V?$format_validation_base@DV?$stream_output_adapter@D@__crt_stdio_output@@@2@@__crt_stdio_output@@CAPADXZ 1002717c f i libucrt:output.obj
 0001:00026182       ?narrow_null_string@?$output_processor@DV?$stream_output_adapter@D@__crt_stdio_output@@V?$positional_parameter_base@DV?$stream_output_adapter@D@__crt_stdio_output@@@2@@__crt_stdio_output@@CAPADXZ 10027182 f i libucrt:output.obj
 0001:00026188       ?narrow_null_string@?$output_processor@DV?$stream_output_adapter@D@__crt_stdio_output@@V?$standard_base@DV?$stream_output_adapter@D@__crt_stdio_output@@@2@@__crt_stdio_output@@CAPADXZ 10027188 f i libucrt:output.obj
 0001:0002618e       ?narrow_null_string@?$output_processor@DV?$string_output_adapter@D@__crt_stdio_output@@V?$format_validation_base@DV?$string_output_adapter@D@__crt_stdio_output@@@2@@__crt_stdio_output@@CAPADXZ 1002718e f i libucrt:output.obj
 0001:00026194       ?narrow_null_string@?$output_processor@DV?$string_output_adapter@D@__crt_stdio_output@@V?$positional_parameter_base@DV?$string_output_adapter@D@__crt_stdio_output@@@2@@__crt_stdio_output@@CAPADXZ 10027194 f i libucrt:output.obj
 0001:0002619a       ?narrow_null_string@?$output_processor@DV?$string_output_adapter@D@__crt_stdio_output@@V?$standard_base@DV?$string_output_adapter@D@__crt_stdio_output@@@2@@__crt_stdio_output@@CAPADXZ 1002719a f i libucrt:output.obj
 0001:000261a0       ?narrow_null_string@?$output_processor@_WV?$stream_output_adapter@_W@__crt_stdio_output@@V?$format_validation_base@_WV?$stream_output_adapter@_W@__crt_stdio_output@@@2@@__crt_stdio_output@@CAPADXZ 100271a0 f i libucrt:output.obj
 0001:000261a6       ?narrow_null_string@?$output_processor@_WV?$stream_output_adapter@_W@__crt_stdio_output@@V?$positional_parameter_base@_WV?$stream_output_adapter@_W@__crt_stdio_output@@@2@@__crt_stdio_output@@CAPADXZ 100271a6 f i libucrt:output.obj
 0001:000261ac       ?narrow_null_string@?$output_processor@_WV?$stream_output_adapter@_W@__crt_stdio_output@@V?$standard_base@_WV?$stream_output_adapter@_W@__crt_stdio_output@@@2@@__crt_stdio_output@@CAPADXZ 100271ac f i libucrt:output.obj
 0001:000261b2       ?narrow_null_string@?$output_processor@_WV?$string_output_adapter@_W@__crt_stdio_output@@V?$format_validation_base@_WV?$string_output_adapter@_W@__crt_stdio_output@@@2@@__crt_stdio_output@@CAPADXZ 100271b2 f i libucrt:output.obj
 0001:000261b8       ?narrow_null_string@?$output_processor@_WV?$string_output_adapter@_W@__crt_stdio_output@@V?$positional_parameter_base@_WV?$string_output_adapter@_W@__crt_stdio_output@@@2@@__crt_stdio_output@@CAPADXZ 100271b8 f i libucrt:output.obj
 0001:000261be       ?narrow_null_string@?$output_processor@_WV?$string_output_adapter@_W@__crt_stdio_output@@V?$standard_base@_WV?$string_output_adapter@_W@__crt_stdio_output@@@2@@__crt_stdio_output@@CAPADXZ 100271be f i libucrt:output.obj
 0001:000261c4       ?parse_int_from_format_string@?$output_processor@DV?$stream_output_adapter@D@__crt_stdio_output@@V?$format_validation_base@DV?$stream_output_adapter@D@__crt_stdio_output@@@2@@__crt_stdio_output@@AAE_NQAH@Z 100271c4 f i libucrt:output.obj
 0001:00026237       ?parse_int_from_format_string@?$output_processor@DV?$stream_output_adapter@D@__crt_stdio_output@@V?$positional_parameter_base@DV?$stream_output_adapter@D@__crt_stdio_output@@@2@@__crt_stdio_output@@AAE_NQAH@Z 10027237 f i libucrt:output.obj
 0001:000262aa       ?parse_int_from_format_string@?$output_processor@DV?$stream_output_adapter@D@__crt_stdio_output@@V?$standard_base@DV?$stream_output_adapter@D@__crt_stdio_output@@@2@@__crt_stdio_output@@AAE_NQAH@Z 100272aa f i libucrt:output.obj
 0001:0002631d       ?parse_int_from_format_string@?$output_processor@DV?$string_output_adapter@D@__crt_stdio_output@@V?$format_validation_base@DV?$string_output_adapter@D@__crt_stdio_output@@@2@@__crt_stdio_output@@AAE_NQAH@Z 1002731d f i libucrt:output.obj
 0001:00026390       ?parse_int_from_format_string@?$output_processor@DV?$string_output_adapter@D@__crt_stdio_output@@V?$positional_parameter_base@DV?$string_output_adapter@D@__crt_stdio_output@@@2@@__crt_stdio_output@@AAE_NQAH@Z 10027390 f i libucrt:output.obj
 0001:00026403       ?parse_int_from_format_string@?$output_processor@DV?$string_output_adapter@D@__crt_stdio_output@@V?$standard_base@DV?$string_output_adapter@D@__crt_stdio_output@@@2@@__crt_stdio_output@@AAE_NQAH@Z 10027403 f i libucrt:output.obj
 0001:00026476       ?parse_int_from_format_string@?$output_processor@_WV?$stream_output_adapter@_W@__crt_stdio_output@@V?$format_validation_base@_WV?$stream_output_adapter@_W@__crt_stdio_output@@@2@@__crt_stdio_output@@AAE_NQAH@Z 10027476 f i libucrt:output.obj
 0001:000264eb       ?parse_int_from_format_string@?$output_processor@_WV?$stream_output_adapter@_W@__crt_stdio_output@@V?$positional_parameter_base@_WV?$stream_output_adapter@_W@__crt_stdio_output@@@2@@__crt_stdio_output@@AAE_NQAH@Z 100274eb f i libucrt:output.obj
 0001:00026560       ?parse_int_from_format_string@?$output_processor@_WV?$stream_output_adapter@_W@__crt_stdio_output@@V?$standard_base@_WV?$stream_output_adapter@_W@__crt_stdio_output@@@2@@__crt_stdio_output@@AAE_NQAH@Z 10027560 f i libucrt:output.obj
 0001:000265d5       ?parse_int_from_format_string@?$output_processor@_WV?$string_output_adapter@_W@__crt_stdio_output@@V?$format_validation_base@_WV?$string_output_adapter@_W@__crt_stdio_output@@@2@@__crt_stdio_output@@AAE_NQAH@Z 100275d5 f i libucrt:output.obj
 0001:0002664a       ?parse_int_from_format_string@?$output_processor@_WV?$string_output_adapter@_W@__crt_stdio_output@@V?$positional_parameter_base@_WV?$string_output_adapter@_W@__crt_stdio_output@@@2@@__crt_stdio_output@@AAE_NQAH@Z 1002764a f i libucrt:output.obj
 0001:000266bf       ?parse_int_from_format_string@?$output_processor@_WV?$string_output_adapter@_W@__crt_stdio_output@@V?$standard_base@_WV?$string_output_adapter@_W@__crt_stdio_output@@@2@@__crt_stdio_output@@AAE_NQAH@Z 100276bf f i libucrt:output.obj
 0001:00026734       ?process@?$output_processor@DV?$stream_output_adapter@D@__crt_stdio_output@@V?$format_validation_base@DV?$stream_output_adapter@D@__crt_stdio_output@@@2@@__crt_stdio_output@@QAEHXZ 10027734 f i libucrt:output.obj
 0001:000268a6       ?process@?$output_processor@DV?$stream_output_adapter@D@__crt_stdio_output@@V?$positional_parameter_base@DV?$stream_output_adapter@D@__crt_stdio_output@@@2@@__crt_stdio_output@@QAEHXZ 100278a6 f i libucrt:output.obj
 0001:00026a59       ?process@?$output_processor@DV?$stream_output_adapter@D@__crt_stdio_output@@V?$standard_base@DV?$stream_output_adapter@D@__crt_stdio_output@@@2@@__crt_stdio_output@@QAEHXZ 10027a59 f i libucrt:output.obj
 0001:00026bbc       ?process@?$output_processor@DV?$string_output_adapter@D@__crt_stdio_output@@V?$format_validation_base@DV?$string_output_adapter@D@__crt_stdio_output@@@2@@__crt_stdio_output@@QAEHXZ 10027bbc f i libucrt:output.obj
 0001:00026d2e       ?process@?$output_processor@DV?$string_output_adapter@D@__crt_stdio_output@@V?$positional_parameter_base@DV?$string_output_adapter@D@__crt_stdio_output@@@2@@__crt_stdio_output@@QAEHXZ 10027d2e f i libucrt:output.obj
 0001:00026ee1       ?process@?$output_processor@DV?$string_output_adapter@D@__crt_stdio_output@@V?$standard_base@DV?$string_output_adapter@D@__crt_stdio_output@@@2@@__crt_stdio_output@@QAEHXZ 10027ee1 f i libucrt:output.obj
 0001:00027044       ?process@?$output_processor@_WV?$stream_output_adapter@_W@__crt_stdio_output@@V?$format_validation_base@_WV?$stream_output_adapter@_W@__crt_stdio_output@@@2@@__crt_stdio_output@@QAEHXZ 10028044 f i libucrt:output.obj
 0001:000271c0       ?process@?$output_processor@_WV?$stream_output_adapter@_W@__crt_stdio_output@@V?$positional_parameter_base@_WV?$stream_output_adapter@_W@__crt_stdio_output@@@2@@__crt_stdio_output@@QAEHXZ 100281c0 f i libucrt:output.obj
 0001:00027378       ?process@?$output_processor@_WV?$stream_output_adapter@_W@__crt_stdio_output@@V?$standard_base@_WV?$stream_output_adapter@_W@__crt_stdio_output@@@2@@__crt_stdio_output@@QAEHXZ 10028378 f i libucrt:output.obj
 0001:000274e0       ?process@?$output_processor@_WV?$string_output_adapter@_W@__crt_stdio_output@@V?$format_validation_base@_WV?$string_output_adapter@_W@__crt_stdio_output@@@2@@__crt_stdio_output@@QAEHXZ 100284e0 f i libucrt:output.obj
 0001:0002765c       ?process@?$output_processor@_WV?$string_output_adapter@_W@__crt_stdio_output@@V?$positional_parameter_base@_WV?$string_output_adapter@_W@__crt_stdio_output@@@2@@__crt_stdio_output@@QAEHXZ 1002865c f i libucrt:output.obj
 0001:00027814       ?process@?$output_processor@_WV?$string_output_adapter@_W@__crt_stdio_output@@V?$standard_base@_WV?$string_output_adapter@_W@__crt_stdio_output@@@2@@__crt_stdio_output@@QAEHXZ 10028814 f i libucrt:output.obj
 0001:0002797c       ?set_flag@?$output_processor@DV?$stream_output_adapter@D@__crt_stdio_output@@V?$format_validation_base@DV?$stream_output_adapter@D@__crt_stdio_output@@@2@@__crt_stdio_output@@AAEXI@Z 1002897c f i libucrt:output.obj
 0001:0002798e       ?set_flag@?$output_processor@DV?$stream_output_adapter@D@__crt_stdio_output@@V?$positional_parameter_base@DV?$stream_output_adapter@D@__crt_stdio_output@@@2@@__crt_stdio_output@@AAEXI@Z 1002898e f i libucrt:output.obj
 0001:000279a0       ?set_flag@?$output_processor@DV?$stream_output_adapter@D@__crt_stdio_output@@V?$standard_base@DV?$stream_output_adapter@D@__crt_stdio_output@@@2@@__crt_stdio_output@@AAEXI@Z 100289a0 f i libucrt:output.obj
 0001:000279b2       ?set_flag@?$output_processor@DV?$string_output_adapter@D@__crt_stdio_output@@V?$format_validation_base@DV?$string_output_adapter@D@__crt_stdio_output@@@2@@__crt_stdio_output@@AAEXI@Z 100289b2 f i libucrt:output.obj
 0001:000279c4       ?set_flag@?$output_processor@DV?$string_output_adapter@D@__crt_stdio_output@@V?$positional_parameter_base@DV?$string_output_adapter@D@__crt_stdio_output@@@2@@__crt_stdio_output@@AAEXI@Z 100289c4 f i libucrt:output.obj
 0001:000279d6       ?set_flag@?$output_processor@DV?$string_output_adapter@D@__crt_stdio_output@@V?$standard_base@DV?$string_output_adapter@D@__crt_stdio_output@@@2@@__crt_stdio_output@@AAEXI@Z 100289d6 f i libucrt:output.obj
 0001:000279e8       ?set_flag@?$output_processor@_WV?$stream_output_adapter@_W@__crt_stdio_output@@V?$format_validation_base@_WV?$stream_output_adapter@_W@__crt_stdio_output@@@2@@__crt_stdio_output@@AAEXI@Z 100289e8 f i libucrt:output.obj
 0001:000279fa       ?set_flag@?$output_processor@_WV?$stream_output_adapter@_W@__crt_stdio_output@@V?$positional_parameter_base@_WV?$stream_output_adapter@_W@__crt_stdio_output@@@2@@__crt_stdio_output@@AAEXI@Z 100289fa f i libucrt:output.obj
 0001:00027a0c       ?set_flag@?$output_processor@_WV?$stream_output_adapter@_W@__crt_stdio_output@@V?$standard_base@_WV?$stream_output_adapter@_W@__crt_stdio_output@@@2@@__crt_stdio_output@@AAEXI@Z 10028a0c f i libucrt:output.obj
 0001:00027a1e       ?set_flag@?$output_processor@_WV?$string_output_adapter@_W@__crt_stdio_output@@V?$format_validation_base@_WV?$string_output_adapter@_W@__crt_stdio_output@@@2@@__crt_stdio_output@@AAEXI@Z 10028a1e f i libucrt:output.obj
 0001:00027a30       ?set_flag@?$output_processor@_WV?$string_output_adapter@_W@__crt_stdio_output@@V?$positional_parameter_base@_WV?$string_output_adapter@_W@__crt_stdio_output@@@2@@__crt_stdio_output@@AAEXI@Z 10028a30 f i libucrt:output.obj
 0001:00027a42       ?set_flag@?$output_processor@_WV?$string_output_adapter@_W@__crt_stdio_output@@V?$standard_base@_WV?$string_output_adapter@_W@__crt_stdio_output@@@2@@__crt_stdio_output@@AAEXI@Z 10028a42 f i libucrt:output.obj
 0001:00027a54       ?should_format@?$positional_parameter_base@DV?$stream_output_adapter@D@__crt_stdio_output@@@__crt_stdio_output@@IAE_NXZ 10028a54 f i libucrt:output.obj
 0001:00027a6f       ?should_format@?$positional_parameter_base@DV?$string_output_adapter@D@__crt_stdio_output@@@__crt_stdio_output@@IAE_NXZ 10028a6f f i libucrt:output.obj
 0001:00027a8a       ?should_format@?$positional_parameter_base@_WV?$stream_output_adapter@_W@__crt_stdio_output@@@__crt_stdio_output@@IAE_NXZ 10028a8a f i libucrt:output.obj
 0001:00027aa5       ?should_format@?$positional_parameter_base@_WV?$string_output_adapter@_W@__crt_stdio_output@@@__crt_stdio_output@@IAE_NXZ 10028aa5 f i libucrt:output.obj
 0001:00027ac0       ?should_format@?$standard_base@DV?$stream_output_adapter@D@__crt_stdio_output@@@__crt_stdio_output@@IAE_NXZ 10028ac0 f i libucrt:output.obj
 0001:00027ac3       ?should_format@?$standard_base@DV?$string_output_adapter@D@__crt_stdio_output@@@__crt_stdio_output@@IAE_NXZ 10028ac3 f i libucrt:output.obj
 0001:00027ac6       ?should_format@?$standard_base@_WV?$stream_output_adapter@_W@__crt_stdio_output@@@__crt_stdio_output@@IAE_NXZ 10028ac6 f i libucrt:output.obj
 0001:00027ac9       ?should_format@?$standard_base@_WV?$string_output_adapter@_W@__crt_stdio_output@@@__crt_stdio_output@@IAE_NXZ 10028ac9 f i libucrt:output.obj
 0001:00027acc       ?should_skip_normal_state_processing@?$positional_parameter_base@DV?$stream_output_adapter@D@__crt_stdio_output@@@__crt_stdio_output@@IAE_NXZ 10028acc f i libucrt:output.obj
 0001:00027afe       ?should_skip_normal_state_processing@?$positional_parameter_base@DV?$string_output_adapter@D@__crt_stdio_output@@@__crt_stdio_output@@IAE_NXZ 10028afe f i libucrt:output.obj
 0001:00027b30       ?should_skip_normal_state_processing@?$positional_parameter_base@_WV?$stream_output_adapter@_W@__crt_stdio_output@@@__crt_stdio_output@@IAE_NXZ 10028b30 f i libucrt:output.obj
 0001:00027b62       ?should_skip_normal_state_processing@?$positional_parameter_base@_WV?$string_output_adapter@_W@__crt_stdio_output@@@__crt_stdio_output@@IAE_NXZ 10028b62 f i libucrt:output.obj
 0001:00027b94       ?should_skip_normal_state_processing@?$standard_base@DV?$stream_output_adapter@D@__crt_stdio_output@@@__crt_stdio_output@@IAE_NXZ 10028b94 f i libucrt:output.obj
 0001:00027b97       ?should_skip_normal_state_processing@?$standard_base@DV?$string_output_adapter@D@__crt_stdio_output@@@__crt_stdio_output@@IAE_NXZ 10028b97 f i libucrt:output.obj
 0001:00027b9a       ?should_skip_normal_state_processing@?$standard_base@_WV?$stream_output_adapter@_W@__crt_stdio_output@@@__crt_stdio_output@@IAE_NXZ 10028b9a f i libucrt:output.obj
 0001:00027b9d       ?should_skip_normal_state_processing@?$standard_base@_WV?$string_output_adapter@_W@__crt_stdio_output@@@__crt_stdio_output@@IAE_NXZ 10028b9d f i libucrt:output.obj
 0001:00027ba0       ?should_skip_type_state_output@?$positional_parameter_base@DV?$stream_output_adapter@D@__crt_stdio_output@@@__crt_stdio_output@@IBE_NXZ 10028ba0 f i libucrt:output.obj
 0001:00027bbc       ?should_skip_type_state_output@?$positional_parameter_base@DV?$string_output_adapter@D@__crt_stdio_output@@@__crt_stdio_output@@IBE_NXZ 10028bbc f i libucrt:output.obj
 0001:00027bd8       ?should_skip_type_state_output@?$positional_parameter_base@_WV?$stream_output_adapter@_W@__crt_stdio_output@@@__crt_stdio_output@@IBE_NXZ 10028bd8 f i libucrt:output.obj
 0001:00027bf4       ?should_skip_type_state_output@?$positional_parameter_base@_WV?$string_output_adapter@_W@__crt_stdio_output@@@__crt_stdio_output@@IBE_NXZ 10028bf4 f i libucrt:output.obj
 0001:00027c10       ?should_skip_type_state_output@?$standard_base@DV?$stream_output_adapter@D@__crt_stdio_output@@@__crt_stdio_output@@IBE_NXZ 10028c10 f i libucrt:output.obj
 0001:00027c13       ?should_skip_type_state_output@?$standard_base@DV?$string_output_adapter@D@__crt_stdio_output@@@__crt_stdio_output@@IBE_NXZ 10028c13 f i libucrt:output.obj
 0001:00027c16       ?should_skip_type_state_output@?$standard_base@_WV?$stream_output_adapter@_W@__crt_stdio_output@@@__crt_stdio_output@@IBE_NXZ 10028c16 f i libucrt:output.obj
 0001:00027c19       ?should_skip_type_state_output@?$standard_base@_WV?$string_output_adapter@_W@__crt_stdio_output@@@__crt_stdio_output@@IBE_NXZ 10028c19 f i libucrt:output.obj
 0001:00027c1c       ?state_case_dot@?$output_processor@DV?$stream_output_adapter@D@__crt_stdio_output@@V?$format_validation_base@DV?$stream_output_adapter@D@__crt_stdio_output@@@2@@__crt_stdio_output@@AAE_NXZ 10028c1c f i libucrt:output.obj
 0001:00027c23       ?state_case_dot@?$output_processor@DV?$stream_output_adapter@D@__crt_stdio_output@@V?$positional_parameter_base@DV?$stream_output_adapter@D@__crt_stdio_output@@@2@@__crt_stdio_output@@AAE_NXZ 10028c23 f i libucrt:output.obj
 0001:00027c2a       ?state_case_dot@?$output_processor@DV?$stream_output_adapter@D@__crt_stdio_output@@V?$standard_base@DV?$stream_output_adapter@D@__crt_stdio_output@@@2@@__crt_stdio_output@@AAE_NXZ 10028c2a f i libucrt:output.obj
 0001:00027c31       ?state_case_dot@?$output_processor@DV?$string_output_adapter@D@__crt_stdio_output@@V?$format_validation_base@DV?$string_output_adapter@D@__crt_stdio_output@@@2@@__crt_stdio_output@@AAE_NXZ 10028c31 f i libucrt:output.obj
 0001:00027c38       ?state_case_dot@?$output_processor@DV?$string_output_adapter@D@__crt_stdio_output@@V?$positional_parameter_base@DV?$string_output_adapter@D@__crt_stdio_output@@@2@@__crt_stdio_output@@AAE_NXZ 10028c38 f i libucrt:output.obj
 0001:00027c3f       ?state_case_dot@?$output_processor@DV?$string_output_adapter@D@__crt_stdio_output@@V?$standard_base@DV?$string_output_adapter@D@__crt_stdio_output@@@2@@__crt_stdio_output@@AAE_NXZ 10028c3f f i libucrt:output.obj
 0001:00027c46       ?state_case_dot@?$output_processor@_WV?$stream_output_adapter@_W@__crt_stdio_output@@V?$format_validation_base@_WV?$stream_output_adapter@_W@__crt_stdio_output@@@2@@__crt_stdio_output@@AAE_NXZ 10028c46 f i libucrt:output.obj
 0001:00027c4d       ?state_case_dot@?$output_processor@_WV?$stream_output_adapter@_W@__crt_stdio_output@@V?$positional_parameter_base@_WV?$stream_output_adapter@_W@__crt_stdio_output@@@2@@__crt_stdio_output@@AAE_NXZ 10028c4d f i libucrt:output.obj
 0001:00027c54       ?state_case_dot@?$output_processor@_WV?$stream_output_adapter@_W@__crt_stdio_output@@V?$standard_base@_WV?$stream_output_adapter@_W@__crt_stdio_output@@@2@@__crt_stdio_output@@AAE_NXZ 10028c54 f i libucrt:output.obj
 0001:00027c5b       ?state_case_dot@?$output_processor@_WV?$string_output_adapter@_W@__crt_stdio_output@@V?$format_validation_base@_WV?$string_output_adapter@_W@__crt_stdio_output@@@2@@__crt_stdio_output@@AAE_NXZ 10028c5b f i libucrt:output.obj
 0001:00027c62       ?state_case_dot@?$output_processor@_WV?$string_output_adapter@_W@__crt_stdio_output@@V?$positional_parameter_base@_WV?$string_output_adapter@_W@__crt_stdio_output@@@2@@__crt_stdio_output@@AAE_NXZ 10028c62 f i libucrt:output.obj
 0001:00027c69       ?state_case_dot@?$output_processor@_WV?$string_output_adapter@_W@__crt_stdio_output@@V?$standard_base@_WV?$string_output_adapter@_W@__crt_stdio_output@@@2@@__crt_stdio_output@@AAE_NXZ 10028c69 f i libucrt:output.obj
 0001:00027c70       ?state_case_flag@?$output_processor@DV?$stream_output_adapter@D@__crt_stdio_output@@V?$format_validation_base@DV?$stream_output_adapter@D@__crt_stdio_output@@@2@@__crt_stdio_output@@AAE_NXZ 10028c70 f i libucrt:output.obj
 0001:00027cbc       ?state_case_flag@?$output_processor@DV?$stream_output_adapter@D@__crt_stdio_output@@V?$positional_parameter_base@DV?$stream_output_adapter@D@__crt_stdio_output@@@2@@__crt_stdio_output@@AAE_NXZ 10028cbc f i libucrt:output.obj
 0001:00027d08       ?state_case_flag@?$output_processor@DV?$stream_output_adapter@D@__crt_stdio_output@@V?$standard_base@DV?$stream_output_adapter@D@__crt_stdio_output@@@2@@__crt_stdio_output@@AAE_NXZ 10028d08 f i libucrt:output.obj
 0001:00027d54       ?state_case_flag@?$output_processor@DV?$string_output_adapter@D@__crt_stdio_output@@V?$format_validation_base@DV?$string_output_adapter@D@__crt_stdio_output@@@2@@__crt_stdio_output@@AAE_NXZ 10028d54 f i libucrt:output.obj
 0001:00027da0       ?state_case_flag@?$output_processor@DV?$string_output_adapter@D@__crt_stdio_output@@V?$positional_parameter_base@DV?$string_output_adapter@D@__crt_stdio_output@@@2@@__crt_stdio_output@@AAE_NXZ 10028da0 f i libucrt:output.obj
 0001:00027dec       ?state_case_flag@?$output_processor@DV?$string_output_adapter@D@__crt_stdio_output@@V?$standard_base@DV?$string_output_adapter@D@__crt_stdio_output@@@2@@__crt_stdio_output@@AAE_NXZ 10028dec f i libucrt:output.obj
 0001:00027e38       ?state_case_flag@?$output_processor@_WV?$stream_output_adapter@_W@__crt_stdio_output@@V?$format_validation_base@_WV?$stream_output_adapter@_W@__crt_stdio_output@@@2@@__crt_stdio_output@@AAE_NXZ 10028e38 f i libucrt:output.obj
 0001:00027e84       ?state_case_flag@?$output_processor@_WV?$stream_output_adapter@_W@__crt_stdio_output@@V?$positional_parameter_base@_WV?$stream_output_adapter@_W@__crt_stdio_output@@@2@@__crt_stdio_output@@AAE_NXZ 10028e84 f i libucrt:output.obj
 0001:00027ed0       ?state_case_flag@?$output_processor@_WV?$stream_output_adapter@_W@__crt_stdio_output@@V?$standard_base@_WV?$stream_output_adapter@_W@__crt_stdio_output@@@2@@__crt_stdio_output@@AAE_NXZ 10028ed0 f i libucrt:output.obj
 0001:00027f1c       ?state_case_flag@?$output_processor@_WV?$string_output_adapter@_W@__crt_stdio_output@@V?$format_validation_base@_WV?$string_output_adapter@_W@__crt_stdio_output@@@2@@__crt_stdio_output@@AAE_NXZ 10028f1c f i libucrt:output.obj
 0001:00027f68       ?state_case_flag@?$output_processor@_WV?$string_output_adapter@_W@__crt_stdio_output@@V?$positional_parameter_base@_WV?$string_output_adapter@_W@__crt_stdio_output@@@2@@__crt_stdio_output@@AAE_NXZ 10028f68 f i libucrt:output.obj
 0001:00027fb4       ?state_case_flag@?$output_processor@_WV?$string_output_adapter@_W@__crt_stdio_output@@V?$standard_base@_WV?$string_output_adapter@_W@__crt_stdio_output@@@2@@__crt_stdio_output@@AAE_NXZ 10028fb4 f i libucrt:output.obj
 0001:00028000       ?state_case_normal@?$output_processor@DV?$stream_output_adapter@D@__crt_stdio_output@@V?$format_validation_base@DV?$stream_output_adapter@D@__crt_stdio_output@@@2@@__crt_stdio_output@@AAE_NXZ 10029000 f i libucrt:output.obj
 0001:00028026       ?state_case_normal@?$output_processor@DV?$stream_output_adapter@D@__crt_stdio_output@@V?$positional_parameter_base@DV?$stream_output_adapter@D@__crt_stdio_output@@@2@@__crt_stdio_output@@AAE_NXZ 10029026 f i libucrt:output.obj
 0001:00028063       ?state_case_normal@?$output_processor@DV?$stream_output_adapter@D@__crt_stdio_output@@V?$standard_base@DV?$stream_output_adapter@D@__crt_stdio_output@@@2@@__crt_stdio_output@@AAE_NXZ 10029063 f i libucrt:output.obj
 0001:00028089       ?state_case_normal@?$output_processor@DV?$string_output_adapter@D@__crt_stdio_output@@V?$format_validation_base@DV?$string_output_adapter@D@__crt_stdio_output@@@2@@__crt_stdio_output@@AAE_NXZ 10029089 f i libucrt:output.obj
 0001:000280af       ?state_case_normal@?$output_processor@DV?$string_output_adapter@D@__crt_stdio_output@@V?$positional_parameter_base@DV?$string_output_adapter@D@__crt_stdio_output@@@2@@__crt_stdio_output@@AAE_NXZ 100290af f i libucrt:output.obj
 0001:000280ec       ?state_case_normal@?$output_processor@DV?$string_output_adapter@D@__crt_stdio_output@@V?$standard_base@DV?$string_output_adapter@D@__crt_stdio_output@@@2@@__crt_stdio_output@@AAE_NXZ 100290ec f i libucrt:output.obj
 0001:00028112       ?state_case_normal@?$output_processor@_WV?$stream_output_adapter@_W@__crt_stdio_output@@V?$format_validation_base@_WV?$stream_output_adapter@_W@__crt_stdio_output@@@2@@__crt_stdio_output@@AAE_NXZ 10029112 f i libucrt:output.obj
 0001:00028138       ?state_case_normal@?$output_processor@_WV?$stream_output_adapter@_W@__crt_stdio_output@@V?$positional_parameter_base@_WV?$stream_output_adapter@_W@__crt_stdio_output@@@2@@__crt_stdio_output@@AAE_NXZ 10029138 f i libucrt:output.obj
 0001:00028175       ?state_case_normal@?$output_processor@_WV?$stream_output_adapter@_W@__crt_stdio_output@@V?$standard_base@_WV?$stream_output_adapter@_W@__crt_stdio_output@@@2@@__crt_stdio_output@@AAE_NXZ 10029175 f i libucrt:output.obj
 0001:0002819b       ?state_case_normal@?$output_processor@_WV?$string_output_adapter@_W@__crt_stdio_output@@V?$format_validation_base@_WV?$string_output_adapter@_W@__crt_stdio_output@@@2@@__crt_stdio_output@@AAE_NXZ 1002919b f i libucrt:output.obj
 0001:000281c1       ?state_case_normal@?$output_processor@_WV?$string_output_adapter@_W@__crt_stdio_output@@V?$positional_parameter_base@_WV?$string_output_adapter@_W@__crt_stdio_output@@@2@@__crt_stdio_output@@AAE_NXZ 100291c1 f i libucrt:output.obj
 0001:000281fe       ?state_case_normal@?$output_processor@_WV?$string_output_adapter@_W@__crt_stdio_output@@V?$standard_base@_WV?$string_output_adapter@_W@__crt_stdio_output@@@2@@__crt_stdio_output@@AAE_NXZ 100291fe f i libucrt:output.obj
 0001:00028224       ?state_case_normal_common@?$output_processor@DV?$stream_output_adapter@D@__crt_stdio_output@@V?$format_validation_base@DV?$stream_output_adapter@D@__crt_stdio_output@@@2@@__crt_stdio_output@@AAE_NXZ 10029224 f i libucrt:output.obj
 0001:00028258       ?state_case_normal_common@?$output_processor@DV?$stream_output_adapter@D@__crt_stdio_output@@V?$positional_parameter_base@DV?$stream_output_adapter@D@__crt_stdio_output@@@2@@__crt_stdio_output@@AAE_NXZ 10029258 f i libucrt:output.obj
 0001:0002828c       ?state_case_normal_common@?$output_processor@DV?$stream_output_adapter@D@__crt_stdio_output@@V?$standard_base@DV?$stream_output_adapter@D@__crt_stdio_output@@@2@@__crt_stdio_output@@AAE_NXZ 1002928c f i libucrt:output.obj
 0001:000282c0       ?state_case_normal_common@?$output_processor@DV?$string_output_adapter@D@__crt_stdio_output@@V?$format_validation_base@DV?$string_output_adapter@D@__crt_stdio_output@@@2@@__crt_stdio_output@@AAE_NXZ 100292c0 f i libucrt:output.obj
 0001:000282f4       ?state_case_normal_common@?$output_processor@DV?$string_output_adapter@D@__crt_stdio_output@@V?$positional_parameter_base@DV?$string_output_adapter@D@__crt_stdio_output@@@2@@__crt_stdio_output@@AAE_NXZ 100292f4 f i libucrt:output.obj
 0001:00028328       ?state_case_normal_common@?$output_processor@DV?$string_output_adapter@D@__crt_stdio_output@@V?$standard_base@DV?$string_output_adapter@D@__crt_stdio_output@@@2@@__crt_stdio_output@@AAE_NXZ 10029328 f i libucrt:output.obj
 0001:0002835c       ?state_case_normal_common@?$output_processor@_WV?$stream_output_adapter@_W@__crt_stdio_output@@V?$format_validation_base@_WV?$stream_output_adapter@_W@__crt_stdio_output@@@2@@__crt_stdio_output@@AAE_NXZ 1002935c f i libucrt:output.obj
 0001:0002837d       ?state_case_normal_common@?$output_processor@_WV?$stream_output_adapter@_W@__crt_stdio_output@@V?$positional_parameter_base@_WV?$stream_output_adapter@_W@__crt_stdio_output@@@2@@__crt_stdio_output@@AAE_NXZ 1002937d f i libucrt:output.obj
 0001:0002839e       ?state_case_normal_common@?$output_processor@_WV?$stream_output_adapter@_W@__crt_stdio_output@@V?$standard_base@_WV?$stream_output_adapter@_W@__crt_stdio_output@@@2@@__crt_stdio_output@@AAE_NXZ 1002939e f i libucrt:output.obj
 0001:000283bf       ?state_case_normal_common@?$output_processor@_WV?$string_output_adapter@_W@__crt_stdio_output@@V?$format_validation_base@_WV?$string_output_adapter@_W@__crt_stdio_output@@@2@@__crt_stdio_output@@AAE_NXZ 100293bf f i libucrt:output.obj
 0001:000283e0       ?state_case_normal_common@?$output_processor@_WV?$string_output_adapter@_W@__crt_stdio_output@@V?$positional_parameter_base@_WV?$string_output_adapter@_W@__crt_stdio_output@@@2@@__crt_stdio_output@@AAE_NXZ 100293e0 f i libucrt:output.obj
 0001:00028401       ?state_case_normal_common@?$output_processor@_WV?$string_output_adapter@_W@__crt_stdio_output@@V?$standard_base@_WV?$string_output_adapter@_W@__crt_stdio_output@@@2@@__crt_stdio_output@@AAE_NXZ 10029401 f i libucrt:output.obj
 0001:00028422       ?state_case_normal_tchar@?$output_processor@DV?$stream_output_adapter@D@__crt_stdio_output@@V?$format_validation_base@DV?$stream_output_adapter@D@__crt_stdio_output@@@2@@__crt_stdio_output@@AAE_ND@Z 10029422 f i libucrt:output.obj
 0001:0002849b       ?state_case_normal_tchar@?$output_processor@DV?$stream_output_adapter@D@__crt_stdio_output@@V?$positional_parameter_base@DV?$stream_output_adapter@D@__crt_stdio_output@@@2@@__crt_stdio_output@@AAE_ND@Z 1002949b f i libucrt:output.obj
 0001:00028514       ?state_case_normal_tchar@?$output_processor@DV?$stream_output_adapter@D@__crt_stdio_output@@V?$standard_base@DV?$stream_output_adapter@D@__crt_stdio_output@@@2@@__crt_stdio_output@@AAE_ND@Z 10029514 f i libucrt:output.obj
 0001:0002858d       ?state_case_normal_tchar@?$output_processor@DV?$string_output_adapter@D@__crt_stdio_output@@V?$format_validation_base@DV?$string_output_adapter@D@__crt_stdio_output@@@2@@__crt_stdio_output@@AAE_ND@Z 1002958d f i libucrt:output.obj
 0001:00028606       ?state_case_normal_tchar@?$output_processor@DV?$string_output_adapter@D@__crt_stdio_output@@V?$positional_parameter_base@DV?$string_output_adapter@D@__crt_stdio_output@@@2@@__crt_stdio_output@@AAE_ND@Z 10029606 f i libucrt:output.obj
 0001:0002867f       ?state_case_normal_tchar@?$output_processor@DV?$string_output_adapter@D@__crt_stdio_output@@V?$standard_base@DV?$string_output_adapter@D@__crt_stdio_output@@@2@@__crt_stdio_output@@AAE_ND@Z 1002967f f i libucrt:output.obj
 0001:000286f8       ?state_case_normal_tchar@?$output_processor@_WV?$stream_output_adapter@_W@__crt_stdio_output@@V?$format_validation_base@_WV?$stream_output_adapter@_W@__crt_stdio_output@@@2@@__crt_stdio_output@@AAE_N_W@Z 100296f8 f i libucrt:output.obj
 0001:00028703       ?state_case_normal_tchar@?$output_processor@_WV?$stream_output_adapter@_W@__crt_stdio_output@@V?$positional_parameter_base@_WV?$stream_output_adapter@_W@__crt_stdio_output@@@2@@__crt_stdio_output@@AAE_N_W@Z 10029703 f i libucrt:output.obj
 0001:0002870e       ?state_case_normal_tchar@?$output_processor@_WV?$stream_output_adapter@_W@__crt_stdio_output@@V?$standard_base@_WV?$stream_output_adapter@_W@__crt_stdio_output@@@2@@__crt_stdio_output@@AAE_N_W@Z 1002970e f i libucrt:output.obj
 0001:00028719       ?state_case_normal_tchar@?$output_processor@_WV?$string_output_adapter@_W@__crt_stdio_output@@V?$format_validation_base@_WV?$string_output_adapter@_W@__crt_stdio_output@@@2@@__crt_stdio_output@@AAE_N_W@Z 10029719 f i libucrt:output.obj
 0001:00028724       ?state_case_normal_tchar@?$output_processor@_WV?$string_output_adapter@_W@__crt_stdio_output@@V?$positional_parameter_base@_WV?$string_output_adapter@_W@__crt_stdio_output@@@2@@__crt_stdio_output@@AAE_N_W@Z 10029724 f i libucrt:output.obj
 0001:0002872f       ?state_case_normal_tchar@?$output_processor@_WV?$string_output_adapter@_W@__crt_stdio_output@@V?$standard_base@_WV?$string_output_adapter@_W@__crt_stdio_output@@@2@@__crt_stdio_output@@AAE_N_W@Z 1002972f f i libucrt:output.obj
 0001:0002873a       ?state_case_percent@?$output_processor@DV?$stream_output_adapter@D@__crt_stdio_output@@V?$format_validation_base@DV?$stream_output_adapter@D@__crt_stdio_output@@@2@@__crt_stdio_output@@AAE_NXZ 1002973a f i libucrt:output.obj
 0001:00028758       ?state_case_percent@?$output_processor@DV?$stream_output_adapter@D@__crt_stdio_output@@V?$positional_parameter_base@DV?$stream_output_adapter@D@__crt_stdio_output@@@2@@__crt_stdio_output@@AAE_NXZ 10029758 f i libucrt:output.obj
 0001:00028776       ?state_case_percent@?$output_processor@DV?$stream_output_adapter@D@__crt_stdio_output@@V?$standard_base@DV?$stream_output_adapter@D@__crt_stdio_output@@@2@@__crt_stdio_output@@AAE_NXZ 10029776 f i libucrt:output.obj
 0001:00028794       ?state_case_percent@?$output_processor@DV?$string_output_adapter@D@__crt_stdio_output@@V?$format_validation_base@DV?$string_output_adapter@D@__crt_stdio_output@@@2@@__crt_stdio_output@@AAE_NXZ 10029794 f i libucrt:output.obj
 0001:000287b2       ?state_case_percent@?$output_processor@DV?$string_output_adapter@D@__crt_stdio_output@@V?$positional_parameter_base@DV?$string_output_adapter@D@__crt_stdio_output@@@2@@__crt_stdio_output@@AAE_NXZ 100297b2 f i libucrt:output.obj
 0001:000287d0       ?state_case_percent@?$output_processor@DV?$string_output_adapter@D@__crt_stdio_output@@V?$standard_base@DV?$string_output_adapter@D@__crt_stdio_output@@@2@@__crt_stdio_output@@AAE_NXZ 100297d0 f i libucrt:output.obj
 0001:000287ee       ?state_case_percent@?$output_processor@_WV?$stream_output_adapter@_W@__crt_stdio_output@@V?$format_validation_base@_WV?$stream_output_adapter@_W@__crt_stdio_output@@@2@@__crt_stdio_output@@AAE_NXZ 100297ee f i libucrt:output.obj
 0001:0002880c       ?state_case_percent@?$output_processor@_WV?$stream_output_adapter@_W@__crt_stdio_output@@V?$positional_parameter_base@_WV?$stream_output_adapter@_W@__crt_stdio_output@@@2@@__crt_stdio_output@@AAE_NXZ 1002980c f i libucrt:output.obj
 0001:0002882a       ?state_case_percent@?$output_processor@_WV?$stream_output_adapter@_W@__crt_stdio_output@@V?$standard_base@_WV?$stream_output_adapter@_W@__crt_stdio_output@@@2@@__crt_stdio_output@@AAE_NXZ 1002982a f i libucrt:output.obj
 0001:00028848       ?state_case_percent@?$output_processor@_WV?$string_output_adapter@_W@__crt_stdio_output@@V?$format_validation_base@_WV?$string_output_adapter@_W@__crt_stdio_output@@@2@@__crt_stdio_output@@AAE_NXZ 10029848 f i libucrt:output.obj
 0001:00028866       ?state_case_percent@?$output_processor@_WV?$string_output_adapter@_W@__crt_stdio_output@@V?$positional_parameter_base@_WV?$string_output_adapter@_W@__crt_stdio_output@@@2@@__crt_stdio_output@@AAE_NXZ 10029866 f i libucrt:output.obj
 0001:00028884       ?state_case_percent@?$output_processor@_WV?$string_output_adapter@_W@__crt_stdio_output@@V?$standard_base@_WV?$string_output_adapter@_W@__crt_stdio_output@@@2@@__crt_stdio_output@@AAE_NXZ 10029884 f i libucrt:output.obj
 0001:000288a2       ?state_case_precision@?$output_processor@DV?$stream_output_adapter@D@__crt_stdio_output@@V?$format_validation_base@DV?$stream_output_adapter@D@__crt_stdio_output@@@2@@__crt_stdio_output@@AAE_NXZ 100298a2 f i libucrt:output.obj
 0001:000288d4       ?state_case_precision@?$output_processor@DV?$stream_output_adapter@D@__crt_stdio_output@@V?$positional_parameter_base@DV?$stream_output_adapter@D@__crt_stdio_output@@@2@@__crt_stdio_output@@AAE_NXZ 100298d4 f i libucrt:output.obj
 0001:0002891c       ?state_case_precision@?$output_processor@DV?$stream_output_adapter@D@__crt_stdio_output@@V?$standard_base@DV?$stream_output_adapter@D@__crt_stdio_output@@@2@@__crt_stdio_output@@AAE_NXZ 1002991c f i libucrt:output.obj
 0001:0002894e       ?state_case_precision@?$output_processor@DV?$string_output_adapter@D@__crt_stdio_output@@V?$format_validation_base@DV?$string_output_adapter@D@__crt_stdio_output@@@2@@__crt_stdio_output@@AAE_NXZ 1002994e f i libucrt:output.obj
 0001:00028980       ?state_case_precision@?$output_processor@DV?$string_output_adapter@D@__crt_stdio_output@@V?$positional_parameter_base@DV?$string_output_adapter@D@__crt_stdio_output@@@2@@__crt_stdio_output@@AAE_NXZ 10029980 f i libucrt:output.obj
 0001:000289c8       ?state_case_precision@?$output_processor@DV?$string_output_adapter@D@__crt_stdio_output@@V?$standard_base@DV?$string_output_adapter@D@__crt_stdio_output@@@2@@__crt_stdio_output@@AAE_NXZ 100299c8 f i libucrt:output.obj
 0001:000289fa       ?state_case_precision@?$output_processor@_WV?$stream_output_adapter@_W@__crt_stdio_output@@V?$format_validation_base@_WV?$stream_output_adapter@_W@__crt_stdio_output@@@2@@__crt_stdio_output@@AAE_NXZ 100299fa f i libucrt:output.obj
 0001:00028a2d       ?state_case_precision@?$output_processor@_WV?$stream_output_adapter@_W@__crt_stdio_output@@V?$positional_parameter_base@_WV?$stream_output_adapter@_W@__crt_stdio_output@@@2@@__crt_stdio_output@@AAE_NXZ 10029a2d f i libucrt:output.obj
 0001:00028a76       ?state_case_precision@?$output_processor@_WV?$stream_output_adapter@_W@__crt_stdio_output@@V?$standard_base@_WV?$stream_output_adapter@_W@__crt_stdio_output@@@2@@__crt_stdio_output@@AAE_NXZ 10029a76 f i libucrt:output.obj
 0001:00028aa9       ?state_case_precision@?$output_processor@_WV?$string_output_adapter@_W@__crt_stdio_output@@V?$format_validation_base@_WV?$string_output_adapter@_W@__crt_stdio_output@@@2@@__crt_stdio_output@@AAE_NXZ 10029aa9 f i libucrt:output.obj
 0001:00028adc       ?state_case_precision@?$output_processor@_WV?$string_output_adapter@_W@__crt_stdio_output@@V?$positional_parameter_base@_WV?$string_output_adapter@_W@__crt_stdio_output@@@2@@__crt_stdio_output@@AAE_NXZ 10029adc f i libucrt:output.obj
 0001:00028b25       ?state_case_precision@?$output_processor@_WV?$string_output_adapter@_W@__crt_stdio_output@@V?$standard_base@_WV?$string_output_adapter@_W@__crt_stdio_output@@@2@@__crt_stdio_output@@AAE_NXZ 10029b25 f i libucrt:output.obj
 0001:00028b58       ?state_case_size@?$output_processor@DV?$stream_output_adapter@D@__crt_stdio_output@@V?$format_validation_base@DV?$stream_output_adapter@D@__crt_stdio_output@@@2@@__crt_stdio_output@@AAE_NXZ 10029b58 f i libucrt:output.obj
 0001:00028d1b       ?state_case_size@?$output_processor@DV?$stream_output_adapter@D@__crt_stdio_output@@V?$positional_parameter_base@DV?$stream_output_adapter@D@__crt_stdio_output@@@2@@__crt_stdio_output@@AAE_NXZ 10029d1b f i libucrt:output.obj
 0001:00028ede       ?state_case_size@?$output_processor@DV?$stream_output_adapter@D@__crt_stdio_output@@V?$standard_base@DV?$stream_output_adapter@D@__crt_stdio_output@@@2@@__crt_stdio_output@@AAE_NXZ 10029ede f i libucrt:output.obj
 0001:000290a1       ?state_case_size@?$output_processor@DV?$string_output_adapter@D@__crt_stdio_output@@V?$format_validation_base@DV?$string_output_adapter@D@__crt_stdio_output@@@2@@__crt_stdio_output@@AAE_NXZ 1002a0a1 f i libucrt:output.obj
 0001:00029264       ?state_case_size@?$output_processor@DV?$string_output_adapter@D@__crt_stdio_output@@V?$positional_parameter_base@DV?$string_output_adapter@D@__crt_stdio_output@@@2@@__crt_stdio_output@@AAE_NXZ 1002a264 f i libucrt:output.obj
 0001:00029427       ?state_case_size@?$output_processor@DV?$string_output_adapter@D@__crt_stdio_output@@V?$standard_base@DV?$string_output_adapter@D@__crt_stdio_output@@@2@@__crt_stdio_output@@AAE_NXZ 1002a427 f i libucrt:output.obj
 0001:000295ea       ?state_case_size@?$output_processor@_WV?$stream_output_adapter@_W@__crt_stdio_output@@V?$format_validation_base@_WV?$stream_output_adapter@_W@__crt_stdio_output@@@2@@__crt_stdio_output@@AAE_NXZ 1002a5ea f i libucrt:output.obj
 0001:000297c5       ?state_case_size@?$output_processor@_WV?$stream_output_adapter@_W@__crt_stdio_output@@V?$positional_parameter_base@_WV?$stream_output_adapter@_W@__crt_stdio_output@@@2@@__crt_stdio_output@@AAE_NXZ 1002a7c5 f i libucrt:output.obj
 0001:000299a0       ?state_case_size@?$output_processor@_WV?$stream_output_adapter@_W@__crt_stdio_output@@V?$standard_base@_WV?$stream_output_adapter@_W@__crt_stdio_output@@@2@@__crt_stdio_output@@AAE_NXZ 1002a9a0 f i libucrt:output.obj
 0001:00029b7b       ?state_case_size@?$output_processor@_WV?$string_output_adapter@_W@__crt_stdio_output@@V?$format_validation_base@_WV?$string_output_adapter@_W@__crt_stdio_output@@@2@@__crt_stdio_output@@AAE_NXZ 1002ab7b f i libucrt:output.obj
 0001:00029d56       ?state_case_size@?$output_processor@_WV?$string_output_adapter@_W@__crt_stdio_output@@V?$positional_parameter_base@_WV?$string_output_adapter@_W@__crt_stdio_output@@@2@@__crt_stdio_output@@AAE_NXZ 1002ad56 f i libucrt:output.obj
 0001:00029f31       ?state_case_size@?$output_processor@_WV?$string_output_adapter@_W@__crt_stdio_output@@V?$standard_base@_WV?$string_output_adapter@_W@__crt_stdio_output@@@2@@__crt_stdio_output@@AAE_NXZ 1002af31 f i libucrt:output.obj
 0001:0002a10c       ?state_case_type@?$output_processor@DV?$stream_output_adapter@D@__crt_stdio_output@@V?$format_validation_base@DV?$stream_output_adapter@D@__crt_stdio_output@@@2@@__crt_stdio_output@@AAE_NXZ 1002b10c f i libucrt:output.obj
 0001:0002a3c6       ?state_case_type@?$output_processor@DV?$stream_output_adapter@D@__crt_stdio_output@@V?$positional_parameter_base@DV?$stream_output_adapter@D@__crt_stdio_output@@@2@@__crt_stdio_output@@AAE_NXZ 1002b3c6 f i libucrt:output.obj
 0001:0002a68e       ?state_case_type@?$output_processor@DV?$stream_output_adapter@D@__crt_stdio_output@@V?$standard_base@DV?$stream_output_adapter@D@__crt_stdio_output@@@2@@__crt_stdio_output@@AAE_NXZ 1002b68e f i libucrt:output.obj
 0001:0002a948       ?state_case_type@?$output_processor@DV?$string_output_adapter@D@__crt_stdio_output@@V?$format_validation_base@DV?$string_output_adapter@D@__crt_stdio_output@@@2@@__crt_stdio_output@@AAE_NXZ 1002b948 f i libucrt:output.obj
 0001:0002ac02       ?state_case_type@?$output_processor@DV?$string_output_adapter@D@__crt_stdio_output@@V?$positional_parameter_base@DV?$string_output_adapter@D@__crt_stdio_output@@@2@@__crt_stdio_output@@AAE_NXZ 1002bc02 f i libucrt:output.obj
 0001:0002aeca       ?state_case_type@?$output_processor@DV?$string_output_adapter@D@__crt_stdio_output@@V?$standard_base@DV?$string_output_adapter@D@__crt_stdio_output@@@2@@__crt_stdio_output@@AAE_NXZ 1002beca f i libucrt:output.obj
 0001:0002b184       ?state_case_type@?$output_processor@_WV?$stream_output_adapter@_W@__crt_stdio_output@@V?$format_validation_base@_WV?$stream_output_adapter@_W@__crt_stdio_output@@@2@@__crt_stdio_output@@AAE_NXZ 1002c184 f i libucrt:output.obj
 0001:0002b478       ?state_case_type@?$output_processor@_WV?$stream_output_adapter@_W@__crt_stdio_output@@V?$positional_parameter_base@_WV?$stream_output_adapter@_W@__crt_stdio_output@@@2@@__crt_stdio_output@@AAE_NXZ 1002c478 f i libucrt:output.obj
 0001:0002b77f       ?state_case_type@?$output_processor@_WV?$stream_output_adapter@_W@__crt_stdio_output@@V?$standard_base@_WV?$stream_output_adapter@_W@__crt_stdio_output@@@2@@__crt_stdio_output@@AAE_NXZ 1002c77f f i libucrt:output.obj
 0001:0002ba73       ?state_case_type@?$output_processor@_WV?$string_output_adapter@_W@__crt_stdio_output@@V?$format_validation_base@_WV?$string_output_adapter@_W@__crt_stdio_output@@@2@@__crt_stdio_output@@AAE_NXZ 1002ca73 f i libucrt:output.obj
 0001:0002bd67       ?state_case_type@?$output_processor@_WV?$string_output_adapter@_W@__crt_stdio_output@@V?$positional_parameter_base@_WV?$string_output_adapter@_W@__crt_stdio_output@@@2@@__crt_stdio_output@@AAE_NXZ 1002cd67 f i libucrt:output.obj
 0001:0002c06e       ?state_case_type@?$output_processor@_WV?$string_output_adapter@_W@__crt_stdio_output@@V?$standard_base@_WV?$string_output_adapter@_W@__crt_stdio_output@@@2@@__crt_stdio_output@@AAE_NXZ 1002d06e f i libucrt:output.obj
 0001:0002c362       ?state_case_width@?$output_processor@DV?$stream_output_adapter@D@__crt_stdio_output@@V?$format_validation_base@DV?$stream_output_adapter@D@__crt_stdio_output@@@2@@__crt_stdio_output@@AAE_NXZ 1002d362 f i libucrt:output.obj
 0001:0002c397       ?state_case_width@?$output_processor@DV?$stream_output_adapter@D@__crt_stdio_output@@V?$positional_parameter_base@DV?$stream_output_adapter@D@__crt_stdio_output@@@2@@__crt_stdio_output@@AAE_NXZ 1002d397 f i libucrt:output.obj
 0001:0002c3e7       ?state_case_width@?$output_processor@DV?$stream_output_adapter@D@__crt_stdio_output@@V?$standard_base@DV?$stream_output_adapter@D@__crt_stdio_output@@@2@@__crt_stdio_output@@AAE_NXZ 1002d3e7 f i libucrt:output.obj
 0001:0002c41c       ?state_case_width@?$output_processor@DV?$string_output_adapter@D@__crt_stdio_output@@V?$format_validation_base@DV?$string_output_adapter@D@__crt_stdio_output@@@2@@__crt_stdio_output@@AAE_NXZ 1002d41c f i libucrt:output.obj
 0001:0002c451       ?state_case_width@?$output_processor@DV?$string_output_adapter@D@__crt_stdio_output@@V?$positional_parameter_base@DV?$string_output_adapter@D@__crt_stdio_output@@@2@@__crt_stdio_output@@AAE_NXZ 1002d451 f i libucrt:output.obj
 0001:0002c4a1       ?state_case_width@?$output_processor@DV?$string_output_adapter@D@__crt_stdio_output@@V?$standard_base@DV?$string_output_adapter@D@__crt_stdio_output@@@2@@__crt_stdio_output@@AAE_NXZ 1002d4a1 f i libucrt:output.obj
 0001:0002c4d6       ?state_case_width@?$output_processor@_WV?$stream_output_adapter@_W@__crt_stdio_output@@V?$format_validation_base@_WV?$stream_output_adapter@_W@__crt_stdio_output@@@2@@__crt_stdio_output@@AAE_NXZ 1002d4d6 f i libucrt:output.obj
 0001:0002c50d       ?state_case_width@?$output_processor@_WV?$stream_output_adapter@_W@__crt_stdio_output@@V?$positional_parameter_base@_WV?$stream_output_adapter@_W@__crt_stdio_output@@@2@@__crt_stdio_output@@AAE_NXZ 1002d50d f i libucrt:output.obj
 0001:0002c55e       ?state_case_width@?$output_processor@_WV?$stream_output_adapter@_W@__crt_stdio_output@@V?$standard_base@_WV?$stream_output_adapter@_W@__crt_stdio_output@@@2@@__crt_stdio_output@@AAE_NXZ 1002d55e f i libucrt:output.obj
 0001:0002c595       ?state_case_width@?$output_processor@_WV?$string_output_adapter@_W@__crt_stdio_output@@V?$format_validation_base@_WV?$string_output_adapter@_W@__crt_stdio_output@@@2@@__crt_stdio_output@@AAE_NXZ 1002d595 f i libucrt:output.obj
 0001:0002c5cc       ?state_case_width@?$output_processor@_WV?$string_output_adapter@_W@__crt_stdio_output@@V?$positional_parameter_base@_WV?$string_output_adapter@_W@__crt_stdio_output@@@2@@__crt_stdio_output@@AAE_NXZ 1002d5cc f i libucrt:output.obj
 0001:0002c61d       ?state_case_width@?$output_processor@_WV?$string_output_adapter@_W@__crt_stdio_output@@V?$standard_base@_WV?$string_output_adapter@_W@__crt_stdio_output@@@2@@__crt_stdio_output@@AAE_NXZ 1002d61d f i libucrt:output.obj
 0001:0002c654       ?state_count@?$format_validation_base@DV?$stream_output_adapter@D@__crt_stdio_output@@@__crt_stdio_output@@KAIXZ 1002d654 f i libucrt:output.obj
 0001:0002c658       ?state_count@?$format_validation_base@DV?$string_output_adapter@D@__crt_stdio_output@@@__crt_stdio_output@@KAIXZ 1002d658 f i libucrt:output.obj
 0001:0002c65c       ?state_count@?$format_validation_base@_WV?$stream_output_adapter@_W@__crt_stdio_output@@@__crt_stdio_output@@KAIXZ 1002d65c f i libucrt:output.obj
 0001:0002c660       ?state_count@?$format_validation_base@_WV?$string_output_adapter@_W@__crt_stdio_output@@@__crt_stdio_output@@KAIXZ 1002d660 f i libucrt:output.obj
 0001:0002c664       ?state_count@?$standard_base@DV?$stream_output_adapter@D@__crt_stdio_output@@@__crt_stdio_output@@KAIXZ 1002d664 f i libucrt:output.obj
 0001:0002c668       ?state_count@?$standard_base@DV?$string_output_adapter@D@__crt_stdio_output@@@__crt_stdio_output@@KAIXZ 1002d668 f i libucrt:output.obj
 0001:0002c66c       ?state_count@?$standard_base@_WV?$stream_output_adapter@_W@__crt_stdio_output@@@__crt_stdio_output@@KAIXZ 1002d66c f i libucrt:output.obj
 0001:0002c670       ?state_count@?$standard_base@_WV?$string_output_adapter@_W@__crt_stdio_output@@@__crt_stdio_output@@KAIXZ 1002d670 f i libucrt:output.obj
 0001:0002c674       ?state_transition_table@?$format_validation_base@DV?$stream_output_adapter@D@__crt_stdio_output@@@__crt_stdio_output@@KAPBEXZ 1002d674 f i libucrt:output.obj
 0001:0002c67a       ?state_transition_table@?$format_validation_base@DV?$string_output_adapter@D@__crt_stdio_output@@@__crt_stdio_output@@KAPBEXZ 1002d67a f i libucrt:output.obj
 0001:0002c680       ?state_transition_table@?$format_validation_base@_WV?$stream_output_adapter@_W@__crt_stdio_output@@@__crt_stdio_output@@KAPBEXZ 1002d680 f i libucrt:output.obj
 0001:0002c686       ?state_transition_table@?$format_validation_base@_WV?$string_output_adapter@_W@__crt_stdio_output@@@__crt_stdio_output@@KAPBEXZ 1002d686 f i libucrt:output.obj
 0001:0002c68c       ?state_transition_table@?$standard_base@DV?$stream_output_adapter@D@__crt_stdio_output@@@__crt_stdio_output@@KAPBEXZ 1002d68c f i libucrt:output.obj
 0001:0002c692       ?state_transition_table@?$standard_base@DV?$string_output_adapter@D@__crt_stdio_output@@@__crt_stdio_output@@KAPBEXZ 1002d692 f i libucrt:output.obj
 0001:0002c698       ?state_transition_table@?$standard_base@_WV?$stream_output_adapter@_W@__crt_stdio_output@@@__crt_stdio_output@@KAPBEXZ 1002d698 f i libucrt:output.obj
 0001:0002c69e       ?state_transition_table@?$standard_base@_WV?$string_output_adapter@_W@__crt_stdio_output@@@__crt_stdio_output@@KAPBEXZ 1002d69e f i libucrt:output.obj
 0001:0002c6a4       ?to_integer_size@__crt_stdio_output@@YAIW4length_modifier@1@@Z 1002d6a4 f i libucrt:output.obj
 0001:0002c717       ?type_case_X@?$output_processor@DV?$stream_output_adapter@D@__crt_stdio_output@@V?$format_validation_base@DV?$stream_output_adapter@D@__crt_stdio_output@@@2@@__crt_stdio_output@@AAE_NXZ 1002d717 f i libucrt:output.obj
 0001:0002c723       ?type_case_X@?$output_processor@DV?$stream_output_adapter@D@__crt_stdio_output@@V?$positional_parameter_base@DV?$stream_output_adapter@D@__crt_stdio_output@@@2@@__crt_stdio_output@@AAE_NXZ 1002d723 f i libucrt:output.obj
 0001:0002c72f       ?type_case_X@?$output_processor@DV?$stream_output_adapter@D@__crt_stdio_output@@V?$standard_base@DV?$stream_output_adapter@D@__crt_stdio_output@@@2@@__crt_stdio_output@@AAE_NXZ 1002d72f f i libucrt:output.obj
 0001:0002c73b       ?type_case_X@?$output_processor@DV?$string_output_adapter@D@__crt_stdio_output@@V?$format_validation_base@DV?$string_output_adapter@D@__crt_stdio_output@@@2@@__crt_stdio_output@@AAE_NXZ 1002d73b f i libucrt:output.obj
 0001:0002c747       ?type_case_X@?$output_processor@DV?$string_output_adapter@D@__crt_stdio_output@@V?$positional_parameter_base@DV?$string_output_adapter@D@__crt_stdio_output@@@2@@__crt_stdio_output@@AAE_NXZ 1002d747 f i libucrt:output.obj
 0001:0002c753       ?type_case_X@?$output_processor@DV?$string_output_adapter@D@__crt_stdio_output@@V?$standard_base@DV?$string_output_adapter@D@__crt_stdio_output@@@2@@__crt_stdio_output@@AAE_NXZ 1002d753 f i libucrt:output.obj
 0001:0002c75f       ?type_case_X@?$output_processor@_WV?$stream_output_adapter@_W@__crt_stdio_output@@V?$format_validation_base@_WV?$stream_output_adapter@_W@__crt_stdio_output@@@2@@__crt_stdio_output@@AAE_NXZ 1002d75f f i libucrt:output.obj
 0001:0002c76b       ?type_case_X@?$output_processor@_WV?$stream_output_adapter@_W@__crt_stdio_output@@V?$positional_parameter_base@_WV?$stream_output_adapter@_W@__crt_stdio_output@@@2@@__crt_stdio_output@@AAE_NXZ 1002d76b f i libucrt:output.obj
 0001:0002c777       ?type_case_X@?$output_processor@_WV?$stream_output_adapter@_W@__crt_stdio_output@@V?$standard_base@_WV?$stream_output_adapter@_W@__crt_stdio_output@@@2@@__crt_stdio_output@@AAE_NXZ 1002d777 f i libucrt:output.obj
 0001:0002c783       ?type_case_X@?$output_processor@_WV?$string_output_adapter@_W@__crt_stdio_output@@V?$format_validation_base@_WV?$string_output_adapter@_W@__crt_stdio_output@@@2@@__crt_stdio_output@@AAE_NXZ 1002d783 f i libucrt:output.obj
 0001:0002c78f       ?type_case_X@?$output_processor@_WV?$string_output_adapter@_W@__crt_stdio_output@@V?$positional_parameter_base@_WV?$string_output_adapter@_W@__crt_stdio_output@@@2@@__crt_stdio_output@@AAE_NXZ 1002d78f f i libucrt:output.obj
 0001:0002c79b       ?type_case_X@?$output_processor@_WV?$string_output_adapter@_W@__crt_stdio_output@@V?$standard_base@_WV?$string_output_adapter@_W@__crt_stdio_output@@@2@@__crt_stdio_output@@AAE_NXZ 1002d79b f i libucrt:output.obj
 0001:0002c7a7       ?type_case_Z@?$output_processor@DV?$stream_output_adapter@D@__crt_stdio_output@@V?$format_validation_base@DV?$stream_output_adapter@D@__crt_stdio_output@@@2@@__crt_stdio_output@@AAE_NXZ 1002d7a7 f i libucrt:output.obj
 0001:0002c822       ?type_case_Z@?$output_processor@DV?$stream_output_adapter@D@__crt_stdio_output@@V?$positional_parameter_base@DV?$stream_output_adapter@D@__crt_stdio_output@@@2@@__crt_stdio_output@@AAE_NXZ 1002d822 f i libucrt:output.obj
 0001:0002c8c0       ?type_case_Z@?$output_processor@DV?$stream_output_adapter@D@__crt_stdio_output@@V?$standard_base@DV?$stream_output_adapter@D@__crt_stdio_output@@@2@@__crt_stdio_output@@AAE_NXZ 1002d8c0 f i libucrt:output.obj
 0001:0002c93b       ?type_case_Z@?$output_processor@DV?$string_output_adapter@D@__crt_stdio_output@@V?$format_validation_base@DV?$string_output_adapter@D@__crt_stdio_output@@@2@@__crt_stdio_output@@AAE_NXZ 1002d93b f i libucrt:output.obj
 0001:0002c9b6       ?type_case_Z@?$output_processor@DV?$string_output_adapter@D@__crt_stdio_output@@V?$positional_parameter_base@DV?$string_output_adapter@D@__crt_stdio_output@@@2@@__crt_stdio_output@@AAE_NXZ 1002d9b6 f i libucrt:output.obj
 0001:0002ca54       ?type_case_Z@?$output_processor@DV?$string_output_adapter@D@__crt_stdio_output@@V?$standard_base@DV?$string_output_adapter@D@__crt_stdio_output@@@2@@__crt_stdio_output@@AAE_NXZ 1002da54 f i libucrt:output.obj
 0001:0002cacf       ?type_case_Z@?$output_processor@_WV?$stream_output_adapter@_W@__crt_stdio_output@@V?$format_validation_base@_WV?$stream_output_adapter@_W@__crt_stdio_output@@@2@@__crt_stdio_output@@AAE_NXZ 1002dacf f i libucrt:output.obj
 0001:0002cb4a       ?type_case_Z@?$output_processor@_WV?$stream_output_adapter@_W@__crt_stdio_output@@V?$positional_parameter_base@_WV?$stream_output_adapter@_W@__crt_stdio_output@@@2@@__crt_stdio_output@@AAE_NXZ 1002db4a f i libucrt:output.obj
 0001:0002cbe8       ?type_case_Z@?$output_processor@_WV?$stream_output_adapter@_W@__crt_stdio_output@@V?$standard_base@_WV?$stream_output_adapter@_W@__crt_stdio_output@@@2@@__crt_stdio_output@@AAE_NXZ 1002dbe8 f i libucrt:output.obj
 0001:0002cc63       ?type_case_Z@?$output_processor@_WV?$string_output_adapter@_W@__crt_stdio_output@@V?$format_validation_base@_WV?$string_output_adapter@_W@__crt_stdio_output@@@2@@__crt_stdio_output@@AAE_NXZ 1002dc63 f i libucrt:output.obj
 0001:0002ccde       ?type_case_Z@?$output_processor@_WV?$string_output_adapter@_W@__crt_stdio_output@@V?$positional_parameter_base@_WV?$string_output_adapter@_W@__crt_stdio_output@@@2@@__crt_stdio_output@@AAE_NXZ 1002dcde f i libucrt:output.obj
 0001:0002cd7c       ?type_case_Z@?$output_processor@_WV?$string_output_adapter@_W@__crt_stdio_output@@V?$standard_base@_WV?$string_output_adapter@_W@__crt_stdio_output@@@2@@__crt_stdio_output@@AAE_NXZ 1002dd7c f i libucrt:output.obj
 0001:0002cdf7       ?type_case_a@?$output_processor@DV?$stream_output_adapter@D@__crt_stdio_output@@V?$format_validation_base@DV?$stream_output_adapter@D@__crt_stdio_output@@@2@@__crt_stdio_output@@AAE_NXZ 1002ddf7 f i libucrt:output.obj
 0001:0002cfa7       ?type_case_a@?$output_processor@DV?$stream_output_adapter@D@__crt_stdio_output@@V?$positional_parameter_base@DV?$stream_output_adapter@D@__crt_stdio_output@@@2@@__crt_stdio_output@@AAE_NXZ 1002dfa7 f i libucrt:output.obj
 0001:0002d17e       ?type_case_a@?$output_processor@DV?$stream_output_adapter@D@__crt_stdio_output@@V?$standard_base@DV?$stream_output_adapter@D@__crt_stdio_output@@@2@@__crt_stdio_output@@AAE_NXZ 1002e17e f i libucrt:output.obj
 0001:0002d32e       ?type_case_a@?$output_processor@DV?$string_output_adapter@D@__crt_stdio_output@@V?$format_validation_base@DV?$string_output_adapter@D@__crt_stdio_output@@@2@@__crt_stdio_output@@AAE_NXZ 1002e32e f i libucrt:output.obj
 0001:0002d4de       ?type_case_a@?$output_processor@DV?$string_output_adapter@D@__crt_stdio_output@@V?$positional_parameter_base@DV?$string_output_adapter@D@__crt_stdio_output@@@2@@__crt_stdio_output@@AAE_NXZ 1002e4de f i libucrt:output.obj
 0001:0002d6b5       ?type_case_a@?$output_processor@DV?$string_output_adapter@D@__crt_stdio_output@@V?$standard_base@DV?$string_output_adapter@D@__crt_stdio_output@@@2@@__crt_stdio_output@@AAE_NXZ 1002e6b5 f i libucrt:output.obj
 0001:0002d865       ?type_case_a@?$output_processor@_WV?$stream_output_adapter@_W@__crt_stdio_output@@V?$format_validation_base@_WV?$stream_output_adapter@_W@__crt_stdio_output@@@2@@__crt_stdio_output@@AAE_NXZ 1002e865 f i libucrt:output.obj
 0001:0002da33       ?type_case_a@?$output_processor@_WV?$stream_output_adapter@_W@__crt_stdio_output@@V?$positional_parameter_base@_WV?$stream_output_adapter@_W@__crt_stdio_output@@@2@@__crt_stdio_output@@AAE_NXZ 1002ea33 f i libucrt:output.obj
 0001:0002dc28       ?type_case_a@?$output_processor@_WV?$stream_output_adapter@_W@__crt_stdio_output@@V?$standard_base@_WV?$stream_output_adapter@_W@__crt_stdio_output@@@2@@__crt_stdio_output@@AAE_NXZ 1002ec28 f i libucrt:output.obj
 0001:0002ddf6       ?type_case_a@?$output_processor@_WV?$string_output_adapter@_W@__crt_stdio_output@@V?$format_validation_base@_WV?$string_output_adapter@_W@__crt_stdio_output@@@2@@__crt_stdio_output@@AAE_NXZ 1002edf6 f i libucrt:output.obj
 0001:0002dfc4       ?type_case_a@?$output_processor@_WV?$string_output_adapter@_W@__crt_stdio_output@@V?$positional_parameter_base@_WV?$string_output_adapter@_W@__crt_stdio_output@@@2@@__crt_stdio_output@@AAE_NXZ 1002efc4 f i libucrt:output.obj
 0001:0002e1b9       ?type_case_a@?$output_processor@_WV?$string_output_adapter@_W@__crt_stdio_output@@V?$standard_base@_WV?$string_output_adapter@_W@__crt_stdio_output@@@2@@__crt_stdio_output@@AAE_NXZ 1002f1b9 f i libucrt:output.obj
 0001:0002e387       ?type_case_c@?$output_processor@DV?$stream_output_adapter@D@__crt_stdio_output@@V?$format_validation_base@DV?$stream_output_adapter@D@__crt_stdio_output@@@2@@__crt_stdio_output@@AAE_NXZ 1002f387 f i libucrt:output.obj
 0001:0002e391       ?type_case_c@?$output_processor@DV?$stream_output_adapter@D@__crt_stdio_output@@V?$positional_parameter_base@DV?$stream_output_adapter@D@__crt_stdio_output@@@2@@__crt_stdio_output@@AAE_NXZ 1002f391 f i libucrt:output.obj
 0001:0002e39b       ?type_case_c@?$output_processor@DV?$stream_output_adapter@D@__crt_stdio_output@@V?$standard_base@DV?$stream_output_adapter@D@__crt_stdio_output@@@2@@__crt_stdio_output@@AAE_NXZ 1002f39b f i libucrt:output.obj
 0001:0002e3a5       ?type_case_c@?$output_processor@DV?$string_output_adapter@D@__crt_stdio_output@@V?$format_validation_base@DV?$string_output_adapter@D@__crt_stdio_output@@@2@@__crt_stdio_output@@AAE_NXZ 1002f3a5 f i libucrt:output.obj
 0001:0002e3af       ?type_case_c@?$output_processor@DV?$string_output_adapter@D@__crt_stdio_output@@V?$positional_parameter_base@DV?$string_output_adapter@D@__crt_stdio_output@@@2@@__crt_stdio_output@@AAE_NXZ 1002f3af f i libucrt:output.obj
 0001:0002e3b9       ?type_case_c@?$output_processor@DV?$string_output_adapter@D@__crt_stdio_output@@V?$standard_base@DV?$string_output_adapter@D@__crt_stdio_output@@@2@@__crt_stdio_output@@AAE_NXZ 1002f3b9 f i libucrt:output.obj
 0001:0002e3c3       ?type_case_c@?$output_processor@_WV?$stream_output_adapter@_W@__crt_stdio_output@@V?$format_validation_base@_WV?$stream_output_adapter@_W@__crt_stdio_output@@@2@@__crt_stdio_output@@AAE_NXZ 1002f3c3 f i libucrt:output.obj
 0001:0002e3cd       ?type_case_c@?$output_processor@_WV?$stream_output_adapter@_W@__crt_stdio_output@@V?$positional_parameter_base@_WV?$stream_output_adapter@_W@__crt_stdio_output@@@2@@__crt_stdio_output@@AAE_NXZ 1002f3cd f i libucrt:output.obj
 0001:0002e3d7       ?type_case_c@?$output_processor@_WV?$stream_output_adapter@_W@__crt_stdio_output@@V?$standard_base@_WV?$stream_output_adapter@_W@__crt_stdio_output@@@2@@__crt_stdio_output@@AAE_NXZ 1002f3d7 f i libucrt:output.obj
 0001:0002e3e1       ?type_case_c@?$output_processor@_WV?$string_output_adapter@_W@__crt_stdio_output@@V?$format_validation_base@_WV?$string_output_adapter@_W@__crt_stdio_output@@@2@@__crt_stdio_output@@AAE_NXZ 1002f3e1 f i libucrt:output.obj
 0001:0002e3eb       ?type_case_c@?$output_processor@_WV?$string_output_adapter@_W@__crt_stdio_output@@V?$positional_parameter_base@_WV?$string_output_adapter@_W@__crt_stdio_output@@@2@@__crt_stdio_output@@AAE_NXZ 1002f3eb f i libucrt:output.obj
 0001:0002e3f5       ?type_case_c@?$output_processor@_WV?$string_output_adapter@_W@__crt_stdio_output@@V?$standard_base@_WV?$string_output_adapter@_W@__crt_stdio_output@@@2@@__crt_stdio_output@@AAE_NXZ 1002f3f5 f i libucrt:output.obj
 0001:0002e3ff       ?type_case_c_tchar@?$output_processor@DV?$stream_output_adapter@D@__crt_stdio_output@@V?$format_validation_base@DV?$stream_output_adapter@D@__crt_stdio_output@@@2@@__crt_stdio_output@@AAE_ND@Z 1002f3ff f i libucrt:output.obj
 0001:0002e4b3       ?type_case_c_tchar@?$output_processor@DV?$stream_output_adapter@D@__crt_stdio_output@@V?$positional_parameter_base@DV?$stream_output_adapter@D@__crt_stdio_output@@@2@@__crt_stdio_output@@AAE_ND@Z 1002f4b3 f i libucrt:output.obj
 0001:0002e5a3       ?type_case_c_tchar@?$output_processor@DV?$stream_output_adapter@D@__crt_stdio_output@@V?$standard_base@DV?$stream_output_adapter@D@__crt_stdio_output@@@2@@__crt_stdio_output@@AAE_ND@Z 1002f5a3 f i libucrt:output.obj
 0001:0002e657       ?type_case_c_tchar@?$output_processor@DV?$string_output_adapter@D@__crt_stdio_output@@V?$format_validation_base@DV?$string_output_adapter@D@__crt_stdio_output@@@2@@__crt_stdio_output@@AAE_ND@Z 1002f657 f i libucrt:output.obj
 0001:0002e70b       ?type_case_c_tchar@?$output_processor@DV?$string_output_adapter@D@__crt_stdio_output@@V?$positional_parameter_base@DV?$string_output_adapter@D@__crt_stdio_output@@@2@@__crt_stdio_output@@AAE_ND@Z 1002f70b f i libucrt:output.obj
 0001:0002e7fb       ?type_case_c_tchar@?$output_processor@DV?$string_output_adapter@D@__crt_stdio_output@@V?$standard_base@DV?$string_output_adapter@D@__crt_stdio_output@@@2@@__crt_stdio_output@@AAE_ND@Z 1002f7fb f i libucrt:output.obj
 0001:0002e8af       ?type_case_c_tchar@?$output_processor@_WV?$stream_output_adapter@_W@__crt_stdio_output@@V?$format_validation_base@_WV?$stream_output_adapter@_W@__crt_stdio_output@@@2@@__crt_stdio_output@@AAE_N_W@Z 1002f8af f i libucrt:output.obj
 0001:0002e96d       ?type_case_c_tchar@?$output_processor@_WV?$stream_output_adapter@_W@__crt_stdio_output@@V?$positional_parameter_base@_WV?$stream_output_adapter@_W@__crt_stdio_output@@@2@@__crt_stdio_output@@AAE_N_W@Z 1002f96d f i libucrt:output.obj
 0001:0002ea47       ?type_case_c_tchar@?$output_processor@_WV?$stream_output_adapter@_W@__crt_stdio_output@@V?$standard_base@_WV?$stream_output_adapter@_W@__crt_stdio_output@@@2@@__crt_stdio_output@@AAE_N_W@Z 1002fa47 f i libucrt:output.obj
 0001:0002eb05       ?type_case_c_tchar@?$output_processor@_WV?$string_output_adapter@_W@__crt_stdio_output@@V?$format_validation_base@_WV?$string_output_adapter@_W@__crt_stdio_output@@@2@@__crt_stdio_output@@AAE_N_W@Z 1002fb05 f i libucrt:output.obj
 0001:0002ebc3       ?type_case_c_tchar@?$output_processor@_WV?$string_output_adapter@_W@__crt_stdio_output@@V?$positional_parameter_base@_WV?$string_output_adapter@_W@__crt_stdio_output@@@2@@__crt_stdio_output@@AAE_N_W@Z 1002fbc3 f i libucrt:output.obj
 0001:0002ec9d       ?type_case_c_tchar@?$output_processor@_WV?$string_output_adapter@_W@__crt_stdio_output@@V?$standard_base@_WV?$string_output_adapter@_W@__crt_stdio_output@@@2@@__crt_stdio_output@@AAE_N_W@Z 1002fc9d f i libucrt:output.obj
 0001:0002ed5b       ?type_case_d@?$output_processor@DV?$stream_output_adapter@D@__crt_stdio_output@@V?$format_validation_base@DV?$stream_output_adapter@D@__crt_stdio_output@@@2@@__crt_stdio_output@@AAE_NXZ 1002fd5b f i libucrt:output.obj
 0001:0002ed6c       ?type_case_d@?$output_processor@DV?$stream_output_adapter@D@__crt_stdio_output@@V?$positional_parameter_base@DV?$stream_output_adapter@D@__crt_stdio_output@@@2@@__crt_stdio_output@@AAE_NXZ 1002fd6c f i libucrt:output.obj
 0001:0002ed7d       ?type_case_d@?$output_processor@DV?$stream_output_adapter@D@__crt_stdio_output@@V?$standard_base@DV?$stream_output_adapter@D@__crt_stdio_output@@@2@@__crt_stdio_output@@AAE_NXZ 1002fd7d f i libucrt:output.obj
 0001:0002ed8e       ?type_case_d@?$output_processor@DV?$string_output_adapter@D@__crt_stdio_output@@V?$format_validation_base@DV?$string_output_adapter@D@__crt_stdio_output@@@2@@__crt_stdio_output@@AAE_NXZ 1002fd8e f i libucrt:output.obj
 0001:0002ed9f       ?type_case_d@?$output_processor@DV?$string_output_adapter@D@__crt_stdio_output@@V?$positional_parameter_base@DV?$string_output_adapter@D@__crt_stdio_output@@@2@@__crt_stdio_output@@AAE_NXZ 1002fd9f f i libucrt:output.obj
 0001:0002edb0       ?type_case_d@?$output_processor@DV?$string_output_adapter@D@__crt_stdio_output@@V?$standard_base@DV?$string_output_adapter@D@__crt_stdio_output@@@2@@__crt_stdio_output@@AAE_NXZ 1002fdb0 f i libucrt:output.obj
 0001:0002edc1       ?type_case_d@?$output_processor@_WV?$stream_output_adapter@_W@__crt_stdio_output@@V?$format_validation_base@_WV?$stream_output_adapter@_W@__crt_stdio_output@@@2@@__crt_stdio_output@@AAE_NXZ 1002fdc1 f i libucrt:output.obj
 0001:0002edd2       ?type_case_d@?$output_processor@_WV?$stream_output_adapter@_W@__crt_stdio_output@@V?$positional_parameter_base@_WV?$stream_output_adapter@_W@__crt_stdio_output@@@2@@__crt_stdio_output@@AAE_NXZ 1002fdd2 f i libucrt:output.obj
 0001:0002ede3       ?type_case_d@?$output_processor@_WV?$stream_output_adapter@_W@__crt_stdio_output@@V?$standard_base@_WV?$stream_output_adapter@_W@__crt_stdio_output@@@2@@__crt_stdio_output@@AAE_NXZ 1002fde3 f i libucrt:output.obj
 0001:0002edf4       ?type_case_d@?$output_processor@_WV?$string_output_adapter@_W@__crt_stdio_output@@V?$format_validation_base@_WV?$string_output_adapter@_W@__crt_stdio_output@@@2@@__crt_stdio_output@@AAE_NXZ 1002fdf4 f i libucrt:output.obj
 0001:0002ee05       ?type_case_d@?$output_processor@_WV?$string_output_adapter@_W@__crt_stdio_output@@V?$positional_parameter_base@_WV?$string_output_adapter@_W@__crt_stdio_output@@@2@@__crt_stdio_output@@AAE_NXZ 1002fe05 f i libucrt:output.obj
 0001:0002ee16       ?type_case_d@?$output_processor@_WV?$string_output_adapter@_W@__crt_stdio_output@@V?$standard_base@_WV?$string_output_adapter@_W@__crt_stdio_output@@@2@@__crt_stdio_output@@AAE_NXZ 1002fe16 f i libucrt:output.obj
 0001:0002ee27       ?type_case_integer@?$output_processor@DV?$stream_output_adapter@D@__crt_stdio_output@@V?$format_validation_base@DV?$stream_output_adapter@D@__crt_stdio_output@@@2@@__crt_stdio_output@@AAE_NI_N@Z 1002fe27 f i libucrt:output.obj
 0001:0002efc3       ?type_case_integer@?$output_processor@DV?$stream_output_adapter@D@__crt_stdio_output@@V?$positional_parameter_base@DV?$stream_output_adapter@D@__crt_stdio_output@@@2@@__crt_stdio_output@@AAE_NI_N@Z 1002ffc3 f i libucrt:output.obj
 0001:0002f1a0       ?type_case_integer@?$output_processor@DV?$stream_output_adapter@D@__crt_stdio_output@@V?$standard_base@DV?$stream_output_adapter@D@__crt_stdio_output@@@2@@__crt_stdio_output@@AAE_NI_N@Z 100301a0 f i libucrt:output.obj
 0001:0002f33c       ?type_case_integer@?$output_processor@DV?$string_output_adapter@D@__crt_stdio_output@@V?$format_validation_base@DV?$string_output_adapter@D@__crt_stdio_output@@@2@@__crt_stdio_output@@AAE_NI_N@Z 1003033c f i libucrt:output.obj
 0001:0002f4d8       ?type_case_integer@?$output_processor@DV?$string_output_adapter@D@__crt_stdio_output@@V?$positional_parameter_base@DV?$string_output_adapter@D@__crt_stdio_output@@@2@@__crt_stdio_output@@AAE_NI_N@Z 100304d8 f i libucrt:output.obj
 0001:0002f6b5       ?type_case_integer@?$output_processor@DV?$string_output_adapter@D@__crt_stdio_output@@V?$standard_base@DV?$string_output_adapter@D@__crt_stdio_output@@@2@@__crt_stdio_output@@AAE_NI_N@Z 100306b5 f i libucrt:output.obj
 0001:0002f851       ?type_case_integer@?$output_processor@_WV?$stream_output_adapter@_W@__crt_stdio_output@@V?$format_validation_base@_WV?$stream_output_adapter@_W@__crt_stdio_output@@@2@@__crt_stdio_output@@AAE_NI_N@Z 10030851 f i libucrt:output.obj
 0001:0002f9ed       ?type_case_integer@?$output_processor@_WV?$stream_output_adapter@_W@__crt_stdio_output@@V?$positional_parameter_base@_WV?$stream_output_adapter@_W@__crt_stdio_output@@@2@@__crt_stdio_output@@AAE_NI_N@Z 100309ed f i libucrt:output.obj
 0001:0002fbca       ?type_case_integer@?$output_processor@_WV?$stream_output_adapter@_W@__crt_stdio_output@@V?$standard_base@_WV?$stream_output_adapter@_W@__crt_stdio_output@@@2@@__crt_stdio_output@@AAE_NI_N@Z 10030bca f i libucrt:output.obj
 0001:0002fd66       ?type_case_integer@?$output_processor@_WV?$string_output_adapter@_W@__crt_stdio_output@@V?$format_validation_base@_WV?$string_output_adapter@_W@__crt_stdio_output@@@2@@__crt_stdio_output@@AAE_NI_N@Z 10030d66 f i libucrt:output.obj
 0001:0002ff02       ?type_case_integer@?$output_processor@_WV?$string_output_adapter@_W@__crt_stdio_output@@V?$positional_parameter_base@_WV?$string_output_adapter@_W@__crt_stdio_output@@@2@@__crt_stdio_output@@AAE_NI_N@Z 10030f02 f i libucrt:output.obj
 0001:000300df       ?type_case_integer@?$output_processor@_WV?$string_output_adapter@_W@__crt_stdio_output@@V?$standard_base@_WV?$string_output_adapter@_W@__crt_stdio_output@@@2@@__crt_stdio_output@@AAE_NI_N@Z 100310df f i libucrt:output.obj
 0001:0003027b       ?type_case_n@?$output_processor@DV?$stream_output_adapter@D@__crt_stdio_output@@V?$format_validation_base@DV?$stream_output_adapter@D@__crt_stdio_output@@@2@@__crt_stdio_output@@AAE_NXZ 1003127b f i libucrt:output.obj
 0001:0003030c       ?type_case_n@?$output_processor@DV?$stream_output_adapter@D@__crt_stdio_output@@V?$positional_parameter_base@DV?$stream_output_adapter@D@__crt_stdio_output@@@2@@__crt_stdio_output@@AAE_NXZ 1003130c f i libucrt:output.obj
 0001:000303cb       ?type_case_n@?$output_processor@DV?$stream_output_adapter@D@__crt_stdio_output@@V?$standard_base@DV?$stream_output_adapter@D@__crt_stdio_output@@@2@@__crt_stdio_output@@AAE_NXZ 100313cb f i libucrt:output.obj
 0001:0003045c       ?type_case_n@?$output_processor@DV?$string_output_adapter@D@__crt_stdio_output@@V?$format_validation_base@DV?$string_output_adapter@D@__crt_stdio_output@@@2@@__crt_stdio_output@@AAE_NXZ 1003145c f i libucrt:output.obj
 0001:000304ed       ?type_case_n@?$output_processor@DV?$string_output_adapter@D@__crt_stdio_output@@V?$positional_parameter_base@DV?$string_output_adapter@D@__crt_stdio_output@@@2@@__crt_stdio_output@@AAE_NXZ 100314ed f i libucrt:output.obj
 0001:000305ac       ?type_case_n@?$output_processor@DV?$string_output_adapter@D@__crt_stdio_output@@V?$standard_base@DV?$string_output_adapter@D@__crt_stdio_output@@@2@@__crt_stdio_output@@AAE_NXZ 100315ac f i libucrt:output.obj
 0001:0003063d       ?type_case_n@?$output_processor@_WV?$stream_output_adapter@_W@__crt_stdio_output@@V?$format_validation_base@_WV?$stream_output_adapter@_W@__crt_stdio_output@@@2@@__crt_stdio_output@@AAE_NXZ 1003163d f i libucrt:output.obj
 0001:000306ce       ?type_case_n@?$output_processor@_WV?$stream_output_adapter@_W@__crt_stdio_output@@V?$positional_parameter_base@_WV?$stream_output_adapter@_W@__crt_stdio_output@@@2@@__crt_stdio_output@@AAE_NXZ 100316ce f i libucrt:output.obj
 0001:0003078d       ?type_case_n@?$output_processor@_WV?$stream_output_adapter@_W@__crt_stdio_output@@V?$standard_base@_WV?$stream_output_adapter@_W@__crt_stdio_output@@@2@@__crt_stdio_output@@AAE_NXZ 1003178d f i libucrt:output.obj
 0001:0003081e       ?type_case_n@?$output_processor@_WV?$string_output_adapter@_W@__crt_stdio_output@@V?$format_validation_base@_WV?$string_output_adapter@_W@__crt_stdio_output@@@2@@__crt_stdio_output@@AAE_NXZ 1003181e f i libucrt:output.obj
 0001:000308af       ?type_case_n@?$output_processor@_WV?$string_output_adapter@_W@__crt_stdio_output@@V?$positional_parameter_base@_WV?$string_output_adapter@_W@__crt_stdio_output@@@2@@__crt_stdio_output@@AAE_NXZ 100318af f i libucrt:output.obj
 0001:0003096e       ?type_case_n@?$output_processor@_WV?$string_output_adapter@_W@__crt_stdio_output@@V?$standard_base@_WV?$string_output_adapter@_W@__crt_stdio_output@@@2@@__crt_stdio_output@@AAE_NXZ 1003196e f i libucrt:output.obj
 0001:000309ff       ?type_case_o@?$output_processor@DV?$stream_output_adapter@D@__crt_stdio_output@@V?$format_validation_base@DV?$stream_output_adapter@D@__crt_stdio_output@@@2@@__crt_stdio_output@@AAE_NXZ 100319ff f i libucrt:output.obj
 0001:00030a25       ?type_case_o@?$output_processor@DV?$stream_output_adapter@D@__crt_stdio_output@@V?$positional_parameter_base@DV?$stream_output_adapter@D@__crt_stdio_output@@@2@@__crt_stdio_output@@AAE_NXZ 10031a25 f i libucrt:output.obj
 0001:00030a4b       ?type_case_o@?$output_processor@DV?$stream_output_adapter@D@__crt_stdio_output@@V?$standard_base@DV?$stream_output_adapter@D@__crt_stdio_output@@@2@@__crt_stdio_output@@AAE_NXZ 10031a4b f i libucrt:output.obj
 0001:00030a71       ?type_case_o@?$output_processor@DV?$string_output_adapter@D@__crt_stdio_output@@V?$format_validation_base@DV?$string_output_adapter@D@__crt_stdio_output@@@2@@__crt_stdio_output@@AAE_NXZ 10031a71 f i libucrt:output.obj
 0001:00030a97       ?type_case_o@?$output_processor@DV?$string_output_adapter@D@__crt_stdio_output@@V?$positional_parameter_base@DV?$string_output_adapter@D@__crt_stdio_output@@@2@@__crt_stdio_output@@AAE_NXZ 10031a97 f i libucrt:output.obj
 0001:00030abd       ?type_case_o@?$output_processor@DV?$string_output_adapter@D@__crt_stdio_output@@V?$standard_base@DV?$string_output_adapter@D@__crt_stdio_output@@@2@@__crt_stdio_output@@AAE_NXZ 10031abd f i libucrt:output.obj
 0001:00030ae3       ?type_case_o@?$output_processor@_WV?$stream_output_adapter@_W@__crt_stdio_output@@V?$format_validation_base@_WV?$stream_output_adapter@_W@__crt_stdio_output@@@2@@__crt_stdio_output@@AAE_NXZ 10031ae3 f i libucrt:output.obj
 0001:00030b09       ?type_case_o@?$output_processor@_WV?$stream_output_adapter@_W@__crt_stdio_output@@V?$positional_parameter_base@_WV?$stream_output_adapter@_W@__crt_stdio_output@@@2@@__crt_stdio_output@@AAE_NXZ 10031b09 f i libucrt:output.obj
 0001:00030b2f       ?type_case_o@?$output_processor@_WV?$stream_output_adapter@_W@__crt_stdio_output@@V?$standard_base@_WV?$stream_output_adapter@_W@__crt_stdio_output@@@2@@__crt_stdio_output@@AAE_NXZ 10031b2f f i libucrt:output.obj
 0001:00030b55       ?type_case_o@?$output_processor@_WV?$string_output_adapter@_W@__crt_stdio_output@@V?$format_validation_base@_WV?$string_output_adapter@_W@__crt_stdio_output@@@2@@__crt_stdio_output@@AAE_NXZ 10031b55 f i libucrt:output.obj
 0001:00030b7b       ?type_case_o@?$output_processor@_WV?$string_output_adapter@_W@__crt_stdio_output@@V?$positional_parameter_base@_WV?$string_output_adapter@_W@__crt_stdio_output@@@2@@__crt_stdio_output@@AAE_NXZ 10031b7b f i libucrt:output.obj
 0001:00030ba1       ?type_case_o@?$output_processor@_WV?$string_output_adapter@_W@__crt_stdio_output@@V?$standard_base@_WV?$string_output_adapter@_W@__crt_stdio_output@@@2@@__crt_stdio_output@@AAE_NXZ 10031ba1 f i libucrt:output.obj
 0001:00030bc7       ?type_case_p@?$output_processor@DV?$stream_output_adapter@D@__crt_stdio_output@@V?$format_validation_base@DV?$stream_output_adapter@D@__crt_stdio_output@@@2@@__crt_stdio_output@@AAE_NXZ 10031bc7 f i libucrt:output.obj
 0001:00030be5       ?type_case_p@?$output_processor@DV?$stream_output_adapter@D@__crt_stdio_output@@V?$positional_parameter_base@DV?$stream_output_adapter@D@__crt_stdio_output@@@2@@__crt_stdio_output@@AAE_NXZ 10031be5 f i libucrt:output.obj
 0001:00030c03       ?type_case_p@?$output_processor@DV?$stream_output_adapter@D@__crt_stdio_output@@V?$standard_base@DV?$stream_output_adapter@D@__crt_stdio_output@@@2@@__crt_stdio_output@@AAE_NXZ 10031c03 f i libucrt:output.obj
 0001:00030c21       ?type_case_p@?$output_processor@DV?$string_output_adapter@D@__crt_stdio_output@@V?$format_validation_base@DV?$string_output_adapter@D@__crt_stdio_output@@@2@@__crt_stdio_output@@AAE_NXZ 10031c21 f i libucrt:output.obj
 0001:00030c3f       ?type_case_p@?$output_processor@DV?$string_output_adapter@D@__crt_stdio_output@@V?$positional_parameter_base@DV?$string_output_adapter@D@__crt_stdio_output@@@2@@__crt_stdio_output@@AAE_NXZ 10031c3f f i libucrt:output.obj
 0001:00030c5d       ?type_case_p@?$output_processor@DV?$string_output_adapter@D@__crt_stdio_output@@V?$standard_base@DV?$string_output_adapter@D@__crt_stdio_output@@@2@@__crt_stdio_output@@AAE_NXZ 10031c5d f i libucrt:output.obj
 0001:00030c7b       ?type_case_p@?$output_processor@_WV?$stream_output_adapter@_W@__crt_stdio_output@@V?$format_validation_base@_WV?$stream_output_adapter@_W@__crt_stdio_output@@@2@@__crt_stdio_output@@AAE_NXZ 10031c7b f i libucrt:output.obj
 0001:00030c99       ?type_case_p@?$output_processor@_WV?$stream_output_adapter@_W@__crt_stdio_output@@V?$positional_parameter_base@_WV?$stream_output_adapter@_W@__crt_stdio_output@@@2@@__crt_stdio_output@@AAE_NXZ 10031c99 f i libucrt:output.obj
 0001:00030cb7       ?type_case_p@?$output_processor@_WV?$stream_output_adapter@_W@__crt_stdio_output@@V?$standard_base@_WV?$stream_output_adapter@_W@__crt_stdio_output@@@2@@__crt_stdio_output@@AAE_NXZ 10031cb7 f i libucrt:output.obj
 0001:00030cd5       ?type_case_p@?$output_processor@_WV?$string_output_adapter@_W@__crt_stdio_output@@V?$format_validation_base@_WV?$string_output_adapter@_W@__crt_stdio_output@@@2@@__crt_stdio_output@@AAE_NXZ 10031cd5 f i libucrt:output.obj
 0001:00030cf3       ?type_case_p@?$output_processor@_WV?$string_output_adapter@_W@__crt_stdio_output@@V?$positional_parameter_base@_WV?$string_output_adapter@_W@__crt_stdio_output@@@2@@__crt_stdio_output@@AAE_NXZ 10031cf3 f i libucrt:output.obj
 0001:00030d11       ?type_case_p@?$output_processor@_WV?$string_output_adapter@_W@__crt_stdio_output@@V?$standard_base@_WV?$string_output_adapter@_W@__crt_stdio_output@@@2@@__crt_stdio_output@@AAE_NXZ 10031d11 f i libucrt:output.obj
 0001:00030d2f       ?type_case_s@?$output_processor@DV?$stream_output_adapter@D@__crt_stdio_output@@V?$format_validation_base@DV?$stream_output_adapter@D@__crt_stdio_output@@@2@@__crt_stdio_output@@AAE_NXZ 10031d2f f i libucrt:output.obj
 0001:00030dbe       ?type_case_s@?$output_processor@DV?$stream_output_adapter@D@__crt_stdio_output@@V?$positional_parameter_base@DV?$stream_output_adapter@D@__crt_stdio_output@@@2@@__crt_stdio_output@@AAE_NXZ 10031dbe f i libucrt:output.obj
 0001:00030e59       ?type_case_s@?$output_processor@DV?$stream_output_adapter@D@__crt_stdio_output@@V?$standard_base@DV?$stream_output_adapter@D@__crt_stdio_output@@@2@@__crt_stdio_output@@AAE_NXZ 10031e59 f i libucrt:output.obj
 0001:00030ee8       ?type_case_s@?$output_processor@DV?$string_output_adapter@D@__crt_stdio_output@@V?$format_validation_base@DV?$string_output_adapter@D@__crt_stdio_output@@@2@@__crt_stdio_output@@AAE_NXZ 10031ee8 f i libucrt:output.obj
 0001:00030f77       ?type_case_s@?$output_processor@DV?$string_output_adapter@D@__crt_stdio_output@@V?$positional_parameter_base@DV?$string_output_adapter@D@__crt_stdio_output@@@2@@__crt_stdio_output@@AAE_NXZ 10031f77 f i libucrt:output.obj
 0001:00031012       ?type_case_s@?$output_processor@DV?$string_output_adapter@D@__crt_stdio_output@@V?$standard_base@DV?$string_output_adapter@D@__crt_stdio_output@@@2@@__crt_stdio_output@@AAE_NXZ 10032012 f i libucrt:output.obj
 0001:000310a1       ?type_case_s@?$output_processor@_WV?$stream_output_adapter@_W@__crt_stdio_output@@V?$format_validation_base@_WV?$stream_output_adapter@_W@__crt_stdio_output@@@2@@__crt_stdio_output@@AAE_NXZ 100320a1 f i libucrt:output.obj
 0001:00031132       ?type_case_s@?$output_processor@_WV?$stream_output_adapter@_W@__crt_stdio_output@@V?$positional_parameter_base@_WV?$stream_output_adapter@_W@__crt_stdio_output@@@2@@__crt_stdio_output@@AAE_NXZ 10032132 f i libucrt:output.obj
 0001:000311cf       ?type_case_s@?$output_processor@_WV?$stream_output_adapter@_W@__crt_stdio_output@@V?$standard_base@_WV?$stream_output_adapter@_W@__crt_stdio_output@@@2@@__crt_stdio_output@@AAE_NXZ 100321cf f i libucrt:output.obj
 0001:00031260       ?type_case_s@?$output_processor@_WV?$string_output_adapter@_W@__crt_stdio_output@@V?$format_validation_base@_WV?$string_output_adapter@_W@__crt_stdio_output@@@2@@__crt_stdio_output@@AAE_NXZ 10032260 f i libucrt:output.obj
 0001:000312f1       ?type_case_s@?$output_processor@_WV?$string_output_adapter@_W@__crt_stdio_output@@V?$positional_parameter_base@_WV?$string_output_adapter@_W@__crt_stdio_output@@@2@@__crt_stdio_output@@AAE_NXZ 100322f1 f i libucrt:output.obj
 0001:0003138e       ?type_case_s@?$output_processor@_WV?$string_output_adapter@_W@__crt_stdio_output@@V?$standard_base@_WV?$string_output_adapter@_W@__crt_stdio_output@@@2@@__crt_stdio_output@@AAE_NXZ 1003238e f i libucrt:output.obj
 0001:0003141f       ?type_case_s_compute_narrow_string_length@?$output_processor@DV?$stream_output_adapter@D@__crt_stdio_output@@V?$format_validation_base@DV?$stream_output_adapter@D@__crt_stdio_output@@@2@@__crt_stdio_output@@ABEHHD@Z 1003241f f i libucrt:output.obj
 0001:0003143a       ?type_case_s_compute_narrow_string_length@?$output_processor@DV?$stream_output_adapter@D@__crt_stdio_output@@V?$positional_parameter_base@DV?$stream_output_adapter@D@__crt_stdio_output@@@2@@__crt_stdio_output@@ABEHHD@Z 1003243a f i libucrt:output.obj
 0001:00031455       ?type_case_s_compute_narrow_string_length@?$output_processor@DV?$stream_output_adapter@D@__crt_stdio_output@@V?$standard_base@DV?$stream_output_adapter@D@__crt_stdio_output@@@2@@__crt_stdio_output@@ABEHHD@Z 10032455 f i libucrt:output.obj
 0001:00031470       ?type_case_s_compute_narrow_string_length@?$output_processor@DV?$string_output_adapter@D@__crt_stdio_output@@V?$format_validation_base@DV?$string_output_adapter@D@__crt_stdio_output@@@2@@__crt_stdio_output@@ABEHHD@Z 10032470 f i libucrt:output.obj
 0001:0003148b       ?type_case_s_compute_narrow_string_length@?$output_processor@DV?$string_output_adapter@D@__crt_stdio_output@@V?$positional_parameter_base@DV?$string_output_adapter@D@__crt_stdio_output@@@2@@__crt_stdio_output@@ABEHHD@Z 1003248b f i libucrt:output.obj
 0001:000314a6       ?type_case_s_compute_narrow_string_length@?$output_processor@DV?$string_output_adapter@D@__crt_stdio_output@@V?$standard_base@DV?$string_output_adapter@D@__crt_stdio_output@@@2@@__crt_stdio_output@@ABEHHD@Z 100324a6 f i libucrt:output.obj
 0001:000314c1       ?type_case_s_compute_narrow_string_length@?$output_processor@_WV?$stream_output_adapter@_W@__crt_stdio_output@@V?$format_validation_base@_WV?$stream_output_adapter@_W@__crt_stdio_output@@@2@@__crt_stdio_output@@ABEHH_W@Z 100324c1 f i libucrt:output.obj
 0001:00031511       ?type_case_s_compute_narrow_string_length@?$output_processor@_WV?$stream_output_adapter@_W@__crt_stdio_output@@V?$positional_parameter_base@_WV?$stream_output_adapter@_W@__crt_stdio_output@@@2@@__crt_stdio_output@@ABEHH_W@Z 10032511 f i libucrt:output.obj
 0001:00031561       ?type_case_s_compute_narrow_string_length@?$output_processor@_WV?$stream_output_adapter@_W@__crt_stdio_output@@V?$standard_base@_WV?$stream_output_adapter@_W@__crt_stdio_output@@@2@@__crt_stdio_output@@ABEHH_W@Z 10032561 f i libucrt:output.obj
 0001:000315b1       ?type_case_s_compute_narrow_string_length@?$output_processor@_WV?$string_output_adapter@_W@__crt_stdio_output@@V?$format_validation_base@_WV?$string_output_adapter@_W@__crt_stdio_output@@@2@@__crt_stdio_output@@ABEHH_W@Z 100325b1 f i libucrt:output.obj
 0001:00031601       ?type_case_s_compute_narrow_string_length@?$output_processor@_WV?$string_output_adapter@_W@__crt_stdio_output@@V?$positional_parameter_base@_WV?$string_output_adapter@_W@__crt_stdio_output@@@2@@__crt_stdio_output@@ABEHH_W@Z 10032601 f i libucrt:output.obj
 0001:00031651       ?type_case_s_compute_narrow_string_length@?$output_processor@_WV?$string_output_adapter@_W@__crt_stdio_output@@V?$standard_base@_WV?$string_output_adapter@_W@__crt_stdio_output@@@2@@__crt_stdio_output@@ABEHH_W@Z 10032651 f i libucrt:output.obj
 0001:000316a1       ?type_case_u@?$output_processor@DV?$stream_output_adapter@D@__crt_stdio_output@@V?$format_validation_base@DV?$stream_output_adapter@D@__crt_stdio_output@@@2@@__crt_stdio_output@@AAE_NXZ 100326a1 f i libucrt:output.obj
 0001:000316ad       ?type_case_u@?$output_processor@DV?$stream_output_adapter@D@__crt_stdio_output@@V?$positional_parameter_base@DV?$stream_output_adapter@D@__crt_stdio_output@@@2@@__crt_stdio_output@@AAE_NXZ 100326ad f i libucrt:output.obj
 0001:000316b9       ?type_case_u@?$output_processor@DV?$stream_output_adapter@D@__crt_stdio_output@@V?$standard_base@DV?$stream_output_adapter@D@__crt_stdio_output@@@2@@__crt_stdio_output@@AAE_NXZ 100326b9 f i libucrt:output.obj
 0001:000316c5       ?type_case_u@?$output_processor@DV?$string_output_adapter@D@__crt_stdio_output@@V?$format_validation_base@DV?$string_output_adapter@D@__crt_stdio_output@@@2@@__crt_stdio_output@@AAE_NXZ 100326c5 f i libucrt:output.obj
 0001:000316d1       ?type_case_u@?$output_processor@DV?$string_output_adapter@D@__crt_stdio_output@@V?$positional_parameter_base@DV?$string_output_adapter@D@__crt_stdio_output@@@2@@__crt_stdio_output@@AAE_NXZ 100326d1 f i libucrt:output.obj
 0001:000316dd       ?type_case_u@?$output_processor@DV?$string_output_adapter@D@__crt_stdio_output@@V?$standard_base@DV?$string_output_adapter@D@__crt_stdio_output@@@2@@__crt_stdio_output@@AAE_NXZ 100326dd f i libucrt:output.obj
 0001:000316e9       ?type_case_u@?$output_processor@_WV?$stream_output_adapter@_W@__crt_stdio_output@@V?$format_validation_base@_WV?$stream_output_adapter@_W@__crt_stdio_output@@@2@@__crt_stdio_output@@AAE_NXZ 100326e9 f i libucrt:output.obj
 0001:000316f5       ?type_case_u@?$output_processor@_WV?$stream_output_adapter@_W@__crt_stdio_output@@V?$positional_parameter_base@_WV?$stream_output_adapter@_W@__crt_stdio_output@@@2@@__crt_stdio_output@@AAE_NXZ 100326f5 f i libucrt:output.obj
 0001:00031701       ?type_case_u@?$output_processor@_WV?$stream_output_adapter@_W@__crt_stdio_output@@V?$standard_base@_WV?$stream_output_adapter@_W@__crt_stdio_output@@@2@@__crt_stdio_output@@AAE_NXZ 10032701 f i libucrt:output.obj
 0001:0003170d       ?type_case_u@?$output_processor@_WV?$string_output_adapter@_W@__crt_stdio_output@@V?$format_validation_base@_WV?$string_output_adapter@_W@__crt_stdio_output@@@2@@__crt_stdio_output@@AAE_NXZ 1003270d f i libucrt:output.obj
 0001:00031719       ?type_case_u@?$output_processor@_WV?$string_output_adapter@_W@__crt_stdio_output@@V?$positional_parameter_base@_WV?$string_output_adapter@_W@__crt_stdio_output@@@2@@__crt_stdio_output@@AAE_NXZ 10032719 f i libucrt:output.obj
 0001:00031725       ?type_case_u@?$output_processor@_WV?$string_output_adapter@_W@__crt_stdio_output@@V?$standard_base@_WV?$string_output_adapter@_W@__crt_stdio_output@@@2@@__crt_stdio_output@@AAE_NXZ 10032725 f i libucrt:output.obj
 0001:00031731       ?type_case_x@?$output_processor@DV?$stream_output_adapter@D@__crt_stdio_output@@V?$format_validation_base@DV?$stream_output_adapter@D@__crt_stdio_output@@@2@@__crt_stdio_output@@AAE_NXZ 10032731 f i libucrt:output.obj
 0001:0003173d       ?type_case_x@?$output_processor@DV?$stream_output_adapter@D@__crt_stdio_output@@V?$positional_parameter_base@DV?$stream_output_adapter@D@__crt_stdio_output@@@2@@__crt_stdio_output@@AAE_NXZ 1003273d f i libucrt:output.obj
 0001:00031749       ?type_case_x@?$output_processor@DV?$stream_output_adapter@D@__crt_stdio_output@@V?$standard_base@DV?$stream_output_adapter@D@__crt_stdio_output@@@2@@__crt_stdio_output@@AAE_NXZ 10032749 f i libucrt:output.obj
 0001:00031755       ?type_case_x@?$output_processor@DV?$string_output_adapter@D@__crt_stdio_output@@V?$format_validation_base@DV?$string_output_adapter@D@__crt_stdio_output@@@2@@__crt_stdio_output@@AAE_NXZ 10032755 f i libucrt:output.obj
 0001:00031761       ?type_case_x@?$output_processor@DV?$string_output_adapter@D@__crt_stdio_output@@V?$positional_parameter_base@DV?$string_output_adapter@D@__crt_stdio_output@@@2@@__crt_stdio_output@@AAE_NXZ 10032761 f i libucrt:output.obj
 0001:0003176d       ?type_case_x@?$output_processor@DV?$string_output_adapter@D@__crt_stdio_output@@V?$standard_base@DV?$string_output_adapter@D@__crt_stdio_output@@@2@@__crt_stdio_output@@AAE_NXZ 1003276d f i libucrt:output.obj
 0001:00031779       ?type_case_x@?$output_processor@_WV?$stream_output_adapter@_W@__crt_stdio_output@@V?$format_validation_base@_WV?$stream_output_adapter@_W@__crt_stdio_output@@@2@@__crt_stdio_output@@AAE_NXZ 10032779 f i libucrt:output.obj
 0001:00031785       ?type_case_x@?$output_processor@_WV?$stream_output_adapter@_W@__crt_stdio_output@@V?$positional_parameter_base@_WV?$stream_output_adapter@_W@__crt_stdio_output@@@2@@__crt_stdio_output@@AAE_NXZ 10032785 f i libucrt:output.obj
 0001:00031791       ?type_case_x@?$output_processor@_WV?$stream_output_adapter@_W@__crt_stdio_output@@V?$standard_base@_WV?$stream_output_adapter@_W@__crt_stdio_output@@@2@@__crt_stdio_output@@AAE_NXZ 10032791 f i libucrt:output.obj
 0001:0003179d       ?type_case_x@?$output_processor@_WV?$string_output_adapter@_W@__crt_stdio_output@@V?$format_validation_base@_WV?$string_output_adapter@_W@__crt_stdio_output@@@2@@__crt_stdio_output@@AAE_NXZ 1003279d f i libucrt:output.obj
 0001:000317a9       ?type_case_x@?$output_processor@_WV?$string_output_adapter@_W@__crt_stdio_output@@V?$positional_parameter_base@_WV?$string_output_adapter@_W@__crt_stdio_output@@@2@@__crt_stdio_output@@AAE_NXZ 100327a9 f i libucrt:output.obj
 0001:000317b5       ?type_case_x@?$output_processor@_WV?$string_output_adapter@_W@__crt_stdio_output@@V?$standard_base@_WV?$string_output_adapter@_W@__crt_stdio_output@@@2@@__crt_stdio_output@@AAE_NXZ 100327b5 f i libucrt:output.obj
 0001:000317c1       ?unset_flag@?$output_processor@DV?$stream_output_adapter@D@__crt_stdio_output@@V?$format_validation_base@DV?$stream_output_adapter@D@__crt_stdio_output@@@2@@__crt_stdio_output@@AAEXI@Z 100327c1 f i libucrt:output.obj
 0001:000317d6       ?unset_flag@?$output_processor@DV?$stream_output_adapter@D@__crt_stdio_output@@V?$positional_parameter_base@DV?$stream_output_adapter@D@__crt_stdio_output@@@2@@__crt_stdio_output@@AAEXI@Z 100327d6 f i libucrt:output.obj
 0001:000317eb       ?unset_flag@?$output_processor@DV?$stream_output_adapter@D@__crt_stdio_output@@V?$standard_base@DV?$stream_output_adapter@D@__crt_stdio_output@@@2@@__crt_stdio_output@@AAEXI@Z 100327eb f i libucrt:output.obj
 0001:00031800       ?unset_flag@?$output_processor@DV?$string_output_adapter@D@__crt_stdio_output@@V?$format_validation_base@DV?$string_output_adapter@D@__crt_stdio_output@@@2@@__crt_stdio_output@@AAEXI@Z 10032800 f i libucrt:output.obj
 0001:00031815       ?unset_flag@?$output_processor@DV?$string_output_adapter@D@__crt_stdio_output@@V?$positional_parameter_base@DV?$string_output_adapter@D@__crt_stdio_output@@@2@@__crt_stdio_output@@AAEXI@Z 10032815 f i libucrt:output.obj
 0001:0003182a       ?unset_flag@?$output_processor@DV?$string_output_adapter@D@__crt_stdio_output@@V?$standard_base@DV?$string_output_adapter@D@__crt_stdio_output@@@2@@__crt_stdio_output@@AAEXI@Z 1003282a f i libucrt:output.obj
 0001:0003183f       ?unset_flag@?$output_processor@_WV?$stream_output_adapter@_W@__crt_stdio_output@@V?$format_validation_base@_WV?$stream_output_adapter@_W@__crt_stdio_output@@@2@@__crt_stdio_output@@AAEXI@Z 1003283f f i libucrt:output.obj
 0001:00031854       ?unset_flag@?$output_processor@_WV?$stream_output_adapter@_W@__crt_stdio_output@@V?$positional_parameter_base@_WV?$stream_output_adapter@_W@__crt_stdio_output@@@2@@__crt_stdio_output@@AAEXI@Z 10032854 f i libucrt:output.obj
 0001:00031869       ?unset_flag@?$output_processor@_WV?$stream_output_adapter@_W@__crt_stdio_output@@V?$standard_base@_WV?$stream_output_adapter@_W@__crt_stdio_output@@@2@@__crt_stdio_output@@AAEXI@Z 10032869 f i libucrt:output.obj
 0001:0003187e       ?unset_flag@?$output_processor@_WV?$string_output_adapter@_W@__crt_stdio_output@@V?$format_validation_base@_WV?$string_output_adapter@_W@__crt_stdio_output@@@2@@__crt_stdio_output@@AAEXI@Z 1003287e f i libucrt:output.obj
 0001:00031893       ?unset_flag@?$output_processor@_WV?$string_output_adapter@_W@__crt_stdio_output@@V?$positional_parameter_base@_WV?$string_output_adapter@_W@__crt_stdio_output@@@2@@__crt_stdio_output@@AAEXI@Z 10032893 f i libucrt:output.obj
 0001:000318a8       ?unset_flag@?$output_processor@_WV?$string_output_adapter@_W@__crt_stdio_output@@V?$standard_base@_WV?$string_output_adapter@_W@__crt_stdio_output@@@2@@__crt_stdio_output@@AAEXI@Z 100328a8 f i libucrt:output.obj
 0001:000318bd       ?update_field_width@?$positional_parameter_base@DV?$stream_output_adapter@D@__crt_stdio_output@@@__crt_stdio_output@@IAE_NXZ 100328bd f i libucrt:output.obj
 0001:000319a0       ?update_field_width@?$positional_parameter_base@DV?$string_output_adapter@D@__crt_stdio_output@@@__crt_stdio_output@@IAE_NXZ 100329a0 f i libucrt:output.obj
 0001:00031a83       ?update_field_width@?$positional_parameter_base@_WV?$stream_output_adapter@_W@__crt_stdio_output@@@__crt_stdio_output@@IAE_NXZ 10032a83 f i libucrt:output.obj
 0001:00031b67       ?update_field_width@?$positional_parameter_base@_WV?$string_output_adapter@_W@__crt_stdio_output@@@__crt_stdio_output@@IAE_NXZ 10032b67 f i libucrt:output.obj
 0001:00031c4b       ?update_field_width@?$standard_base@DV?$stream_output_adapter@D@__crt_stdio_output@@@__crt_stdio_output@@IAE_NXZ 10032c4b f i libucrt:output.obj
 0001:00031c5f       ?update_field_width@?$standard_base@DV?$string_output_adapter@D@__crt_stdio_output@@@__crt_stdio_output@@IAE_NXZ 10032c5f f i libucrt:output.obj
 0001:00031c73       ?update_field_width@?$standard_base@_WV?$stream_output_adapter@_W@__crt_stdio_output@@@__crt_stdio_output@@IAE_NXZ 10032c73 f i libucrt:output.obj
 0001:00031c87       ?update_field_width@?$standard_base@_WV?$string_output_adapter@_W@__crt_stdio_output@@@__crt_stdio_output@@IAE_NXZ 10032c87 f i libucrt:output.obj
 0001:00031c9b       ?update_precision@?$positional_parameter_base@DV?$stream_output_adapter@D@__crt_stdio_output@@@__crt_stdio_output@@IAE_NXZ 10032c9b f i libucrt:output.obj
 0001:00031d7e       ?update_precision@?$positional_parameter_base@DV?$string_output_adapter@D@__crt_stdio_output@@@__crt_stdio_output@@IAE_NXZ 10032d7e f i libucrt:output.obj
 0001:00031e61       ?update_precision@?$positional_parameter_base@_WV?$stream_output_adapter@_W@__crt_stdio_output@@@__crt_stdio_output@@IAE_NXZ 10032e61 f i libucrt:output.obj
 0001:00031f45       ?update_precision@?$positional_parameter_base@_WV?$string_output_adapter@_W@__crt_stdio_output@@@__crt_stdio_output@@IAE_NXZ 10032f45 f i libucrt:output.obj
 0001:00032029       ?update_precision@?$standard_base@DV?$stream_output_adapter@D@__crt_stdio_output@@@__crt_stdio_output@@IAE_NXZ 10033029 f i libucrt:output.obj
 0001:0003203d       ?update_precision@?$standard_base@DV?$string_output_adapter@D@__crt_stdio_output@@@__crt_stdio_output@@IAE_NXZ 1003303d f i libucrt:output.obj
 0001:00032051       ?update_precision@?$standard_base@_WV?$stream_output_adapter@_W@__crt_stdio_output@@@__crt_stdio_output@@IAE_NXZ 10033051 f i libucrt:output.obj
 0001:00032065       ?update_precision@?$standard_base@_WV?$string_output_adapter@_W@__crt_stdio_output@@@__crt_stdio_output@@IAE_NXZ 10033065 f i libucrt:output.obj
 0001:00032079       ?validate@?$stream_output_adapter@D@__crt_stdio_output@@QBE_NXZ 10033079 f i libucrt:output.obj
 0001:000320a2       ?validate@?$stream_output_adapter@_W@__crt_stdio_output@@QBE_NXZ 100330a2 f i libucrt:output.obj
 0001:000320c3       ?validate@?$string_output_adapter@D@__crt_stdio_output@@QBE_NXZ 100330c3 f i libucrt:output.obj
 0001:000320e4       ?validate@?$string_output_adapter@_W@__crt_stdio_output@@QBE_NXZ 100330e4 f i libucrt:output.obj
 0001:00032105       ?validate_and_store_parameter_data@?$positional_parameter_base@DV?$stream_output_adapter@D@__crt_stdio_output@@@__crt_stdio_output@@AAE_NAAUparameter_data@12@W4parameter_type@12@DW4length_modifier@2@@Z 10033105 f i libucrt:output.obj
 0001:00032162       ?validate_and_store_parameter_data@?$positional_parameter_base@DV?$string_output_adapter@D@__crt_stdio_output@@@__crt_stdio_output@@AAE_NAAUparameter_data@12@W4parameter_type@12@DW4length_modifier@2@@Z 10033162 f i libucrt:output.obj
 0001:000321bf       ?validate_and_store_parameter_data@?$positional_parameter_base@_WV?$stream_output_adapter@_W@__crt_stdio_output@@@__crt_stdio_output@@AAE_NAAUparameter_data@12@W4parameter_type@12@_WW4length_modifier@2@@Z 100331bf f i libucrt:output.obj
 0001:0003221f       ?validate_and_store_parameter_data@?$positional_parameter_base@_WV?$string_output_adapter@_W@__crt_stdio_output@@@__crt_stdio_output@@AAE_NAAUparameter_data@12@W4parameter_type@12@_WW4length_modifier@2@@Z 1003321f f i libucrt:output.obj
 0001:0003227f       ?validate_and_update_state_at_beginning_of_format_character@?$positional_parameter_base@DV?$stream_output_adapter@D@__crt_stdio_output@@@__crt_stdio_output@@IAE_NXZ 1003327f f i libucrt:output.obj
 0001:000323b5       ?validate_and_update_state_at_beginning_of_format_character@?$positional_parameter_base@DV?$string_output_adapter@D@__crt_stdio_output@@@__crt_stdio_output@@IAE_NXZ 100333b5 f i libucrt:output.obj
 0001:000324eb       ?validate_and_update_state_at_beginning_of_format_character@?$positional_parameter_base@_WV?$stream_output_adapter@_W@__crt_stdio_output@@@__crt_stdio_output@@IAE_NXZ 100334eb f i libucrt:output.obj
 0001:0003262d       ?validate_and_update_state_at_beginning_of_format_character@?$positional_parameter_base@_WV?$string_output_adapter@_W@__crt_stdio_output@@@__crt_stdio_output@@IAE_NXZ 1003362d f i libucrt:output.obj
 0001:0003276f       ?validate_and_update_state_at_beginning_of_format_character@?$standard_base@DV?$stream_output_adapter@D@__crt_stdio_output@@@__crt_stdio_output@@IAE_NXZ 1003376f f i libucrt:output.obj
 0001:00032772       ?validate_and_update_state_at_beginning_of_format_character@?$standard_base@DV?$string_output_adapter@D@__crt_stdio_output@@@__crt_stdio_output@@IAE_NXZ 10033772 f i libucrt:output.obj
 0001:00032775       ?validate_and_update_state_at_beginning_of_format_character@?$standard_base@_WV?$stream_output_adapter@_W@__crt_stdio_output@@@__crt_stdio_output@@IAE_NXZ 10033775 f i libucrt:output.obj
 0001:00032778       ?validate_and_update_state_at_beginning_of_format_character@?$standard_base@_WV?$string_output_adapter@_W@__crt_stdio_output@@@__crt_stdio_output@@IAE_NXZ 10033778 f i libucrt:output.obj
 0001:0003277b       ?validate_and_update_state_at_end_of_format_string@?$format_validation_base@DV?$stream_output_adapter@D@__crt_stdio_output@@@__crt_stdio_output@@IBE_NXZ 1003377b f i libucrt:output.obj
 0001:000327a5       ?validate_and_update_state_at_end_of_format_string@?$format_validation_base@DV?$string_output_adapter@D@__crt_stdio_output@@@__crt_stdio_output@@IBE_NXZ 100337a5 f i libucrt:output.obj
 0001:000327cf       ?validate_and_update_state_at_end_of_format_string@?$format_validation_base@_WV?$stream_output_adapter@_W@__crt_stdio_output@@@__crt_stdio_output@@IBE_NXZ 100337cf f i libucrt:output.obj
 0001:000327f9       ?validate_and_update_state_at_end_of_format_string@?$format_validation_base@_WV?$string_output_adapter@_W@__crt_stdio_output@@@__crt_stdio_output@@IBE_NXZ 100337f9 f i libucrt:output.obj
 0001:00032823       ?validate_and_update_state_at_end_of_format_string@?$positional_parameter_base@DV?$stream_output_adapter@D@__crt_stdio_output@@@__crt_stdio_output@@IAE_NXZ 10033823 f i libucrt:output.obj
 0001:000328c3       ?validate_and_update_state_at_end_of_format_string@?$positional_parameter_base@DV?$string_output_adapter@D@__crt_stdio_output@@@__crt_stdio_output@@IAE_NXZ 100338c3 f i libucrt:output.obj
 0001:00032963       ?validate_and_update_state_at_end_of_format_string@?$positional_parameter_base@_WV?$stream_output_adapter@_W@__crt_stdio_output@@@__crt_stdio_output@@IAE_NXZ 10033963 f i libucrt:output.obj
 0001:00032a03       ?validate_and_update_state_at_end_of_format_string@?$positional_parameter_base@_WV?$string_output_adapter@_W@__crt_stdio_output@@@__crt_stdio_output@@IAE_NXZ 10033a03 f i libucrt:output.obj
 0001:00032aa3       ?validate_and_update_state_at_end_of_format_string@?$standard_base@DV?$stream_output_adapter@D@__crt_stdio_output@@@__crt_stdio_output@@IBE_NXZ 10033aa3 f i libucrt:output.obj
 0001:00032aa6       ?validate_and_update_state_at_end_of_format_string@?$standard_base@DV?$string_output_adapter@D@__crt_stdio_output@@@__crt_stdio_output@@IBE_NXZ 10033aa6 f i libucrt:output.obj
 0001:00032aa9       ?validate_and_update_state_at_end_of_format_string@?$standard_base@_WV?$stream_output_adapter@_W@__crt_stdio_output@@@__crt_stdio_output@@IBE_NXZ 10033aa9 f i libucrt:output.obj
 0001:00032aac       ?validate_and_update_state_at_end_of_format_string@?$standard_base@_WV?$string_output_adapter@_W@__crt_stdio_output@@@__crt_stdio_output@@IBE_NXZ 10033aac f i libucrt:output.obj
 0001:00032aaf       ?validate_state_for_type_case_a@?$positional_parameter_base@DV?$stream_output_adapter@D@__crt_stdio_output@@@__crt_stdio_output@@IAE_NXZ 10033aaf f i libucrt:output.obj
 0001:00032b16       ?validate_state_for_type_case_a@?$positional_parameter_base@DV?$string_output_adapter@D@__crt_stdio_output@@@__crt_stdio_output@@IAE_NXZ 10033b16 f i libucrt:output.obj
 0001:00032b7d       ?validate_state_for_type_case_a@?$positional_parameter_base@_WV?$stream_output_adapter@_W@__crt_stdio_output@@@__crt_stdio_output@@IAE_NXZ 10033b7d f i libucrt:output.obj
 0001:00032be4       ?validate_state_for_type_case_a@?$positional_parameter_base@_WV?$string_output_adapter@_W@__crt_stdio_output@@@__crt_stdio_output@@IAE_NXZ 10033be4 f i libucrt:output.obj
 0001:00032c4b       ?validate_state_for_type_case_a@?$standard_base@DV?$stream_output_adapter@D@__crt_stdio_output@@@__crt_stdio_output@@IBE_NXZ 10033c4b f i libucrt:output.obj
 0001:00032c4e       ?validate_state_for_type_case_a@?$standard_base@DV?$string_output_adapter@D@__crt_stdio_output@@@__crt_stdio_output@@IBE_NXZ 10033c4e f i libucrt:output.obj
 0001:00032c51       ?validate_state_for_type_case_a@?$standard_base@_WV?$stream_output_adapter@_W@__crt_stdio_output@@@__crt_stdio_output@@IBE_NXZ 10033c51 f i libucrt:output.obj
 0001:00032c54       ?validate_state_for_type_case_a@?$standard_base@_WV?$string_output_adapter@_W@__crt_stdio_output@@@__crt_stdio_output@@IBE_NXZ 10033c54 f i libucrt:output.obj
 0001:00032c57       ?validate_stream_is_ansi_if_required@?$__acrt_stdio_char_traits@D@@SA_NQAU_iobuf@@@Z 10033c57 f i libucrt:output.obj
 0001:00032cf9       ?validate_stream_is_ansi_if_required@?$__acrt_stdio_char_traits@_W@@SA_NQAU_iobuf@@@Z 10033cf9 f i libucrt:output.obj
 0001:00032cfc       ?wide_null_string@?$output_processor@DV?$stream_output_adapter@D@__crt_stdio_output@@V?$format_validation_base@DV?$stream_output_adapter@D@__crt_stdio_output@@@2@@__crt_stdio_output@@CAPA_WXZ 10033cfc f i libucrt:output.obj
 0001:00032d02       ?wide_null_string@?$output_processor@DV?$stream_output_adapter@D@__crt_stdio_output@@V?$positional_parameter_base@DV?$stream_output_adapter@D@__crt_stdio_output@@@2@@__crt_stdio_output@@CAPA_WXZ 10033d02 f i libucrt:output.obj
 0001:00032d08       ?wide_null_string@?$output_processor@DV?$stream_output_adapter@D@__crt_stdio_output@@V?$standard_base@DV?$stream_output_adapter@D@__crt_stdio_output@@@2@@__crt_stdio_output@@CAPA_WXZ 10033d08 f i libucrt:output.obj
 0001:00032d0e       ?wide_null_string@?$output_processor@DV?$string_output_adapter@D@__crt_stdio_output@@V?$format_validation_base@DV?$string_output_adapter@D@__crt_stdio_output@@@2@@__crt_stdio_output@@CAPA_WXZ 10033d0e f i libucrt:output.obj
 0001:00032d14       ?wide_null_string@?$output_processor@DV?$string_output_adapter@D@__crt_stdio_output@@V?$positional_parameter_base@DV?$string_output_adapter@D@__crt_stdio_output@@@2@@__crt_stdio_output@@CAPA_WXZ 10033d14 f i libucrt:output.obj
 0001:00032d1a       ?wide_null_string@?$output_processor@DV?$string_output_adapter@D@__crt_stdio_output@@V?$standard_base@DV?$string_output_adapter@D@__crt_stdio_output@@@2@@__crt_stdio_output@@CAPA_WXZ 10033d1a f i libucrt:output.obj
 0001:00032d20       ?wide_null_string@?$output_processor@_WV?$stream_output_adapter@_W@__crt_stdio_output@@V?$format_validation_base@_WV?$stream_output_adapter@_W@__crt_stdio_output@@@2@@__crt_stdio_output@@CAPA_WXZ 10033d20 f i libucrt:output.obj
 0001:00032d26       ?wide_null_string@?$output_processor@_WV?$stream_output_adapter@_W@__crt_stdio_output@@V?$positional_parameter_base@_WV?$stream_output_adapter@_W@__crt_stdio_output@@@2@@__crt_stdio_output@@CAPA_WXZ 10033d26 f i libucrt:output.obj
 0001:00032d2c       ?wide_null_string@?$output_processor@_WV?$stream_output_adapter@_W@__crt_stdio_output@@V?$standard_base@_WV?$stream_output_adapter@_W@__crt_stdio_output@@@2@@__crt_stdio_output@@CAPA_WXZ 10033d2c f i libucrt:output.obj
 0001:00032d32       ?wide_null_string@?$output_processor@_WV?$string_output_adapter@_W@__crt_stdio_output@@V?$format_validation_base@_WV?$string_output_adapter@_W@__crt_stdio_output@@@2@@__crt_stdio_output@@CAPA_WXZ 10033d32 f i libucrt:output.obj
 0001:00032d38       ?wide_null_string@?$output_processor@_WV?$string_output_adapter@_W@__crt_stdio_output@@V?$positional_parameter_base@_WV?$string_output_adapter@_W@__crt_stdio_output@@@2@@__crt_stdio_output@@CAPA_WXZ 10033d38 f i libucrt:output.obj
 0001:00032d3e       ?wide_null_string@?$output_processor@_WV?$string_output_adapter@_W@__crt_stdio_output@@V?$standard_base@_WV?$string_output_adapter@_W@__crt_stdio_output@@@2@@__crt_stdio_output@@CAPA_WXZ 10033d3e f i libucrt:output.obj
 0001:00032d44       ?write_character@?$stream_output_adapter@D@__crt_stdio_output@@QBEXDQAH@Z 10033d44 f i libucrt:output.obj
 0001:00032d90       ?write_character@?$stream_output_adapter@_W@__crt_stdio_output@@QBEX_WQAH@Z 10033d90 f i libucrt:output.obj
 0001:00032de0       ?write_character@?$string_output_adapter@D@__crt_stdio_output@@QBE_NDQAH@Z 10033de0 f i libucrt:output.obj
 0001:00032e32       ?write_character@?$string_output_adapter@_W@__crt_stdio_output@@QBE_N_WQAH@Z 10033e32 f i libucrt:output.obj
 0001:00032e88       ?write_stored_string_tchar@?$output_processor@DV?$stream_output_adapter@D@__crt_stdio_output@@V?$format_validation_base@DV?$stream_output_adapter@D@__crt_stdio_output@@@2@@__crt_stdio_output@@AAE_ND@Z 10033e88 f i libucrt:output.obj
 0001:00032f58       ?write_stored_string_tchar@?$output_processor@DV?$stream_output_adapter@D@__crt_stdio_output@@V?$positional_parameter_base@DV?$stream_output_adapter@D@__crt_stdio_output@@@2@@__crt_stdio_output@@AAE_ND@Z 10033f58 f i libucrt:output.obj
 0001:00033028       ?write_stored_string_tchar@?$output_processor@DV?$stream_output_adapter@D@__crt_stdio_output@@V?$standard_base@DV?$stream_output_adapter@D@__crt_stdio_output@@@2@@__crt_stdio_output@@AAE_ND@Z 10034028 f i libucrt:output.obj
 0001:000330f8       ?write_stored_string_tchar@?$output_processor@DV?$string_output_adapter@D@__crt_stdio_output@@V?$format_validation_base@DV?$string_output_adapter@D@__crt_stdio_output@@@2@@__crt_stdio_output@@AAE_ND@Z 100340f8 f i libucrt:output.obj
 0001:000331c8       ?write_stored_string_tchar@?$output_processor@DV?$string_output_adapter@D@__crt_stdio_output@@V?$positional_parameter_base@DV?$string_output_adapter@D@__crt_stdio_output@@@2@@__crt_stdio_output@@AAE_ND@Z 100341c8 f i libucrt:output.obj
 0001:00033298       ?write_stored_string_tchar@?$output_processor@DV?$string_output_adapter@D@__crt_stdio_output@@V?$standard_base@DV?$string_output_adapter@D@__crt_stdio_output@@@2@@__crt_stdio_output@@AAE_ND@Z 10034298 f i libucrt:output.obj
 0001:00033368       ?write_stored_string_tchar@?$output_processor@_WV?$stream_output_adapter@_W@__crt_stdio_output@@V?$format_validation_base@_WV?$stream_output_adapter@_W@__crt_stdio_output@@@2@@__crt_stdio_output@@AAE_N_W@Z 10034368 f i libucrt:output.obj
 0001:00033415       ?write_stored_string_tchar@?$output_processor@_WV?$stream_output_adapter@_W@__crt_stdio_output@@V?$positional_parameter_base@_WV?$stream_output_adapter@_W@__crt_stdio_output@@@2@@__crt_stdio_output@@AAE_N_W@Z 10034415 f i libucrt:output.obj
 0001:000334c2       ?write_stored_string_tchar@?$output_processor@_WV?$stream_output_adapter@_W@__crt_stdio_output@@V?$standard_base@_WV?$stream_output_adapter@_W@__crt_stdio_output@@@2@@__crt_stdio_output@@AAE_N_W@Z 100344c2 f i libucrt:output.obj
 0001:0003356f       ?write_stored_string_tchar@?$output_processor@_WV?$string_output_adapter@_W@__crt_stdio_output@@V?$format_validation_base@_WV?$string_output_adapter@_W@__crt_stdio_output@@@2@@__crt_stdio_output@@AAE_N_W@Z 1003456f f i libucrt:output.obj
 0001:0003361c       ?write_stored_string_tchar@?$output_processor@_WV?$string_output_adapter@_W@__crt_stdio_output@@V?$positional_parameter_base@_WV?$string_output_adapter@_W@__crt_stdio_output@@@2@@__crt_stdio_output@@AAE_N_W@Z 1003461c f i libucrt:output.obj
 0001:000336c9       ?write_stored_string_tchar@?$output_processor@_WV?$string_output_adapter@_W@__crt_stdio_output@@V?$standard_base@_WV?$string_output_adapter@_W@__crt_stdio_output@@@2@@__crt_stdio_output@@AAE_N_W@Z 100346c9 f i libucrt:output.obj
 0001:00033776       ?write_string@?$stream_output_adapter@D@__crt_stdio_output@@QBEXQBDHQAH1@Z 10034776 f i libucrt:output.obj
 0001:00033822       ?write_string@?$stream_output_adapter@_W@__crt_stdio_output@@QBEXQB_WHQAH1@Z 10034822 f i libucrt:output.obj
 0001:000338d2       ?write_string@?$string_output_adapter@D@__crt_stdio_output@@QBEXQBDHQAH1@Z 100348d2 f i libucrt:output.obj
 0001:00033989       ?write_string@?$string_output_adapter@_W@__crt_stdio_output@@QBEXQB_WHQAH1@Z 10034989 f i libucrt:output.obj
 0001:00033a49       ___acrt_isleadbyte_l_noupdate 10034a49 f i libucrt:output.obj
 0001:00033a6a       ___acrt_locale_changed     10034a6a f i libucrt:output.obj
 0001:00033a7b       ___stdio_common_vfprintf   10034a7b f   libucrt:output.obj
 0001:00033b0f       ___stdio_common_vfprintf_p 10034b0f f   libucrt:output.obj
 0001:00033ba3       ___stdio_common_vfprintf_s 10034ba3 f   libucrt:output.obj
 0001:00033c37       ___stdio_common_vfwprintf  10034c37 f   libucrt:output.obj
 0001:00033ccb       ___stdio_common_vfwprintf_p 10034ccb f   libucrt:output.obj
 0001:00033d5f       ___stdio_common_vfwprintf_s 10034d5f f   libucrt:output.obj
 0001:00033df3       ___stdio_common_vsnprintf_s 10034df3 f   libucrt:output.obj
 0001:00033e23       ___stdio_common_vsnwprintf_s 10034e23 f   libucrt:output.obj
 0001:00033e53       ___stdio_common_vsprintf   10034e53 f   libucrt:output.obj
 0001:00033e80       ___stdio_common_vsprintf_p 10034e80 f   libucrt:output.obj
 0001:00033ead       ___stdio_common_vsprintf_s 10034ead f   libucrt:output.obj
 0001:00033eda       ___stdio_common_vswprintf  10034eda f   libucrt:output.obj
 0001:00033f07       ___stdio_common_vswprintf_p 10034f07 f   libucrt:output.obj
 0001:00033f34       ___stdio_common_vswprintf_s 10034f34 f   libucrt:output.obj
 0001:00033f61       _ldexp                     10034f61 f   libucrt:ldexp.obj
 0001:000341c1       ??$__vcrt_va_start_verify_argument_type@QB_W@@YAXXZ 100351c1 f i libucrt:assert.obj
 0001:0003515e       ??$ftprintf@PAU_iobuf@@PBDABQBDABQBDABI@?$__crt_char_traits@D@@SAH$$QAPAU_iobuf@@$$QAPBDABQBD2ABI@Z 1003615e f i libucrt:assert.obj
 0001:00035190       ??$ftprintf@PAU_iobuf@@PB_WABQB_WABQB_WABI@?$__crt_char_traits@_W@@SAH$$QAPAU_iobuf@@$$QAPB_WABQB_W2ABI@Z 10036190 f i libucrt:assert.obj
 0001:000351c2       ??$get_module_file_name@AAPAUHINSTANCE__@@AAY0BAF@DK@?$__crt_char_traits@D@@SAKAAPAUHINSTANCE__@@AAY0BAF@D$$QAK@Z 100361c2 f i libucrt:assert.obj
 0001:000351e2       ??$get_module_file_name@AAPAUHINSTANCE__@@AAY0BAF@_WK@?$__crt_char_traits@_W@@SAKAAPAUHINSTANCE__@@AAY0BAF@_W$$QAK@Z 100361e2 f i libucrt:assert.obj
 0001:00035202       ??$itot_s@ABIQAD$$CBIH@?$__crt_char_traits@D@@SAHABI$$QBQAD$$QBI$$QAH@Z 10036202 f i libucrt:assert.obj
 0001:0003522d       ??$itot_s@ABIQA_W$$CBIH@?$__crt_char_traits@_W@@SAHABI$$QBQA_W$$QBI$$QAH@Z 1003622d f i libucrt:assert.obj
 0001:00035258       ??$show_message_box@AAY0CEA@DPBDJ@?$__crt_char_traits@D@@SAHAAY0CEA@D$$QAPBD$$QAJ@Z 10036258 f i libucrt:assert.obj
 0001:0003527b       ??$show_message_box@AAY0CEA@_WPB_WJ@?$__crt_char_traits@_W@@SAHAAY0CEA@_W$$QAPB_W$$QAJ@Z 1003627b f i libucrt:assert.obj
 0001:0003529e       ??$tcscat_s@ABQADABIAAPAD@?$__crt_char_traits@D@@SAHABQADABIAAPAD@Z 1003629e f i libucrt:assert.obj
 0001:000352c3       ??$tcscat_s@ABQADABIABQBD@?$__crt_char_traits@D@@SAHABQADABIABQBD@Z 100362c3 f i libucrt:assert.obj
 0001:000352e8       ??$tcscat_s@ABQADABIPBD@?$__crt_char_traits@D@@SAHABQADABI$$QAPBD@Z 100362e8 f i libucrt:assert.obj
 0001:0003530d       ??$tcscat_s@ABQA_WABIAAPA_W@?$__crt_char_traits@_W@@SAHABQA_WABIAAPA_W@Z 1003630d f i libucrt:assert.obj
 0001:00035332       ??$tcscat_s@ABQA_WABIABQB_W@?$__crt_char_traits@_W@@SAHABQA_WABIABQB_W@Z 10036332 f i libucrt:assert.obj
 0001:00035357       ??$tcscat_s@ABQA_WABIPB_W@?$__crt_char_traits@_W@@SAHABQA_WABI$$QAPB_W@Z 10036357 f i libucrt:assert.obj
 0001:0003537c       ??$tcscpy_s@AAY0BAF@DIPBD@?$__crt_char_traits@D@@SAHAAY0BAF@D$$QAI$$QAPBD@Z 1003637c f i libucrt:assert.obj
 0001:0003539f       ??$tcscpy_s@AAY0BAF@_WIPB_W@?$__crt_char_traits@_W@@SAHAAY0BAF@_W$$QAI$$QAPB_W@Z 1003639f f i libucrt:assert.obj
 0001:000353c2       ??$tcscpy_s@ABQADABIPBD@?$__crt_char_traits@D@@SAHABQADABI$$QAPBD@Z 100363c2 f i libucrt:assert.obj
 0001:000353e7       ??$tcscpy_s@ABQA_WABIPB_W@?$__crt_char_traits@_W@@SAHABQA_WABI$$QAPB_W@Z 100363e7 f i libucrt:assert.obj
 0001:0003540c       ??$tcslen@AAY0BAF@D@?$__crt_char_traits@D@@SAIAAY0BAF@D@Z 1003640c f i libucrt:assert.obj
 0001:00035427       ??$tcslen@AAY0BAF@_W@?$__crt_char_traits@_W@@SAIAAY0BAF@_W@Z 10036427 f i libucrt:assert.obj
 0001:0003544a       ??$tcslen@ABQAD@?$__crt_char_traits@D@@SAIABQAD@Z 1003644a f i libucrt:assert.obj
 0001:00035468       ??$tcslen@ABQA_W@?$__crt_char_traits@_W@@SAIABQA_W@Z 10036468 f i libucrt:assert.obj
 0001:0003548d       ??$tcslen@ABQBD@?$__crt_char_traits@D@@SAIABQBD@Z 1003648d f i libucrt:assert.obj
 0001:000354ab       ??$tcslen@ABQB_W@?$__crt_char_traits@_W@@SAIABQB_W@Z 100364ab f i libucrt:assert.obj
 0001:000354d0       ??$tcsncat_s@ABQADABIAAPBD$$CBI@?$__crt_char_traits@D@@SAHABQADABIAAPBD$$QBI@Z 100364d0 f i libucrt:assert.obj
 0001:000354fb       ??$tcsncat_s@ABQADABIABQBDABI@?$__crt_char_traits@D@@SAHABQADABIABQBD1@Z 100364fb f i libucrt:assert.obj
 0001:00035526       ??$tcsncat_s@ABQADABIPBD$$CBI@?$__crt_char_traits@D@@SAHABQADABI$$QAPBD$$QBI@Z 10036526 f i libucrt:assert.obj
 0001:00035551       ??$tcsncat_s@ABQA_WABIAAPB_W$$CBI@?$__crt_char_traits@_W@@SAHABQA_WABIAAPB_W$$QBI@Z 10036551 f i libucrt:assert.obj
 0001:0003557c       ??$tcsncat_s@ABQA_WABIABQB_WABI@?$__crt_char_traits@_W@@SAHABQA_WABIABQB_W1@Z 1003657c f i libucrt:assert.obj
 0001:000355a7       ??$tcsncat_s@ABQA_WABIPB_W$$CBI@?$__crt_char_traits@_W@@SAHABQA_WABI$$QAPB_W$$QBI@Z 100365a7 f i libucrt:assert.obj
 0001:0003574c       __assert                   1003674c f   libucrt:assert.obj
 0001:000357a6       __invoke_watson_if_error   100367a6 f i libucrt:assert.obj
 0001:000357d0       __vfwprintf_l              100367d0 f i libucrt:assert.obj
 0001:000357fe       __vswprintf_c_l            100367fe f i libucrt:assert.obj
 0001:00035838       __wassert                  10036838 f   libucrt:assert.obj
 0001:00035892       _fwprintf                  10036892 f i libucrt:assert.obj
 0001:00035954       _swprintf                  10036954 f i libucrt:assert.obj
 0001:00035979       __errcode                  10036979 f   libucrt:fpexcept.obj
 0001:000359ba       __except1                  100369ba f   libucrt:fpexcept.obj
 0001:00035abb       __except2                  10036abb f   libucrt:fpexcept.obj
 0001:00035c04       __handle_exc               10036c04 f   libucrt:fpexcept.obj
 0001:00035e5c       __handle_qnan2             10036e5c f   libucrt:fpexcept.obj
 0001:00035e6c       __raise_exc                10036e6c f   libucrt:fpexcept.obj
 0001:00035e97       __raise_exc_ex             10036e97 f   libucrt:fpexcept.obj
 0001:00036244       __raise_excf               10037244 f   libucrt:fpexcept.obj
 0001:0003626f       __set_errno_from_matherr   1003726f f   libucrt:fpexcept.obj
 0001:000362a9       __umatherr                 100372a9 f   libucrt:fpexcept.obj
 0001:00036373       __initterm                 10037373 f   libucrt:initterm.obj
 0001:000363e6       __initterm_e               100373e6 f   libucrt:initterm.obj
 0001:00036469       __seh_filter_dll           10037469 f   libucrt:exception_filter.obj
 0001:00036491       __seh_filter_exe           10037491 f   libucrt:exception_filter.obj
 0001:00036660       ??$?RE@__crt_internal_free_policy@@QBEXQBE@Z 10037660 f i libucrt:argv_parsing.obj
 0001:00036676       ??$?RPAD@__crt_internal_free_policy@@QBEXQBQAD@Z 10037676 f i libucrt:argv_parsing.obj
 0001:0003668c       ??$?RPA_W@__crt_internal_free_policy@@QBEXQBQA_W@Z 1003768c f i libucrt:argv_parsing.obj
 0001:00036975       ??$get_module_file_name@$$TAAY0BAF@DH@?$__crt_char_traits@D@@SAK$$QA$$TAAY0BAF@D$$QAH@Z 10037975 f i libucrt:argv_parsing.obj
 0001:00036995       ??$get_module_file_name@$$TAAY0BAF@_WH@?$__crt_char_traits@_W@@SAK$$QA$$TAAY0BAF@_W$$QAH@Z 10037995 f i libucrt:argv_parsing.obj
 0001:00036d6e       ??$set_program_name@PAD@?$__crt_char_traits@D@@SAX$$QAPAD@Z 10037d6e f i libucrt:argv_parsing.obj
 0001:00036d83       ??$set_program_name@PA_W@?$__crt_char_traits@_W@@SAX$$QAPA_W@Z 10037d83 f i libucrt:argv_parsing.obj
 0001:00036dc0       ??0?$__crt_unique_heap_ptr@EU__crt_internal_free_policy@@@@QAE@QAE@Z 10037dc0 f i libucrt:argv_parsing.obj
 0001:00036dd4       ??0?$__crt_unique_heap_ptr@PADU__crt_internal_free_policy@@@@QAE@QAPAD@Z 10037dd4 f i libucrt:argv_parsing.obj
 0001:00036de8       ??0?$__crt_unique_heap_ptr@PA_WU__crt_internal_free_policy@@@@QAE@QAPA_W@Z 10037de8 f i libucrt:argv_parsing.obj
 0001:00036dfc       ??1?$__crt_unique_heap_ptr@EU__crt_internal_free_policy@@@@QAE@XZ 10037dfc f i libucrt:argv_parsing.obj
 0001:00036e12       ??1?$__crt_unique_heap_ptr@PADU__crt_internal_free_policy@@@@QAE@XZ 10037e12 f i libucrt:argv_parsing.obj
 0001:00036e28       ??1?$__crt_unique_heap_ptr@PA_WU__crt_internal_free_policy@@@@QAE@XZ 10037e28 f i libucrt:argv_parsing.obj
 0001:00036e3e       ??B?$__crt_unique_heap_ptr@EU__crt_internal_free_policy@@@@QBE_NXZ 10037e3e f i libucrt:argv_parsing.obj
 0001:00036e7e       ?detach@?$__crt_unique_heap_ptr@EU__crt_internal_free_policy@@@@QAEPAEXZ 10037e7e f i libucrt:argv_parsing.obj
 0001:00036e84       ?detach@?$__crt_unique_heap_ptr@PADU__crt_internal_free_policy@@@@QAEPAPADXZ 10037e84 f i libucrt:argv_parsing.obj
 0001:00036e8a       ?detach@?$__crt_unique_heap_ptr@PA_WU__crt_internal_free_policy@@@@QAEPAPA_WXZ 10037e8a f i libucrt:argv_parsing.obj
 0001:00036eb0       ?get@?$__crt_unique_heap_ptr@EU__crt_internal_free_policy@@@@QBEPAEXZ 10037eb0 f i libucrt:argv_parsing.obj
 0001:00036eb3       ?get@?$__crt_unique_heap_ptr@PADU__crt_internal_free_policy@@@@QBEPAPADXZ 10037eb3 f i libucrt:argv_parsing.obj
 0001:00036eb6       ?get@?$__crt_unique_heap_ptr@PA_WU__crt_internal_free_policy@@@@QBEPAPA_WXZ 10037eb6 f i libucrt:argv_parsing.obj
 0001:00036eb9       ?get_address_of@?$__crt_unique_heap_ptr@PADU__crt_internal_free_policy@@@@QAEPAPAPADXZ 10037eb9 f i libucrt:argv_parsing.obj
 0001:00036ebc       ?get_address_of@?$__crt_unique_heap_ptr@PA_WU__crt_internal_free_policy@@@@QAEPAPAPA_WXZ 10037ebc f i libucrt:argv_parsing.obj
 0001:00036ed7       ?is_valid@?$__crt_unique_heap_ptr@EU__crt_internal_free_policy@@@@QBE_NXZ 10037ed7 f i libucrt:argv_parsing.obj
 0001:00036ee1       ?release@?$__crt_unique_heap_ptr@EU__crt_internal_free_policy@@@@QAEXXZ 10037ee1 f i libucrt:argv_parsing.obj
 0001:00036ef7       ?release@?$__crt_unique_heap_ptr@PADU__crt_internal_free_policy@@@@QAEXXZ 10037ef7 f i libucrt:argv_parsing.obj
 0001:00036f0d       ?release@?$__crt_unique_heap_ptr@PA_WU__crt_internal_free_policy@@@@QAEXXZ 10037f0d f i libucrt:argv_parsing.obj
 0001:00036f44       ___acrt_allocate_buffer_for_argv 10037f44 f   libucrt:argv_parsing.obj
 0001:00036fae       __configure_narrow_argv    10037fae f   libucrt:argv_parsing.obj
 0001:00036fbb       __configure_wide_argv      10037fbb f   libucrt:argv_parsing.obj
 0001:00036fc8       __set_pgmptr               10037fc8 f i libucrt:argv_parsing.obj
 0001:00036fda       __set_wpgmptr              10037fda f i libucrt:argv_parsing.obj
 0001:000374b4       ??$get_environment_from_os@$$$V@?$__crt_char_traits@D@@SAPADXZ 100384b4 f i libucrt:environment_initialization.obj
 0001:000374b9       ??$get_environment_from_os@$$$V@?$__crt_char_traits@_W@@SAPA_WXZ 100384b9 f i libucrt:environment_initialization.obj
 0001:000375f3       ??$set_variable_in_environment_nolock@PADH@?$__crt_char_traits@D@@SAH$$QAPAD$$QAH@Z 100385f3 f i libucrt:environment_initialization.obj
 0001:00037611       ??$set_variable_in_environment_nolock@PA_WH@?$__crt_char_traits@_W@@SAH$$QAPA_W$$QAH@Z 10038611 f i libucrt:environment_initialization.obj
 0001:0003762f       ??$tcscpy_s@PADABIAAPAD@?$__crt_char_traits@D@@SAH$$QAPADABIAAPAD@Z 1003862f f i libucrt:environment_initialization.obj
 0001:00037654       ??$tcscpy_s@PA_WABIAAPA_W@?$__crt_char_traits@_W@@SAH$$QAPA_WABIAAPA_W@Z 10038654 f i libucrt:environment_initialization.obj
 0001:00037679       ??$tcslen@AAPAD@?$__crt_char_traits@D@@SAIAAPAD@Z 10038679 f i libucrt:environment_initialization.obj
 0001:00037697       ??$tcslen@AAPA_W@?$__crt_char_traits@_W@@SAIAAPA_W@Z 10038697 f i libucrt:environment_initialization.obj
 0001:000376bc       ??$uninitialize@A6AXAAPAPAD@Z@?$dual_state_global@PAPAD@__crt_state_management@@QAEXA6AXAAPAPAD@Z@Z 100386bc f i libucrt:environment_initialization.obj
 0001:0003770c       ??$uninitialize@A6AXAAPAPA_W@Z@?$dual_state_global@PAPA_W@__crt_state_management@@QAEXA6AXAAPAPA_W@Z@Z 1003870c f i libucrt:environment_initialization.obj
 0001:0003779e       ??B?$__crt_unique_heap_ptr@PADU__crt_internal_free_policy@@@@QBE_NXZ 1003879e f i libucrt:environment_initialization.obj
 0001:000377a8       ??B?$__crt_unique_heap_ptr@PA_WU__crt_internal_free_policy@@@@QBE_NXZ 100387a8 f i libucrt:environment_initialization.obj
 0001:000377b2       ??B?$__crt_unique_heap_ptr@_WU__crt_internal_free_policy@@@@QBE_NXZ 100387b2 f i libucrt:environment_initialization.obj
 0001:000377bc       ?__crt_compute_required_transform_buffer_count@@YAIIQBD@Z 100387bc f i libucrt:environment_initialization.obj
 0001:000377dc       ?__crt_compute_required_transform_buffer_count@@YAIIQB_W@Z 100387dc f i libucrt:environment_initialization.obj
 0001:000377ff       ?__crt_transform_string@@YAIIQBDQA_WI@Z 100387ff f i libucrt:environment_initialization.obj
 0001:00037823       ?__crt_transform_string@@YAIIQB_WQADI@Z 10038823 f i libucrt:environment_initialization.obj
 0001:0003784b       ?detach@?$__crt_unique_heap_ptr@DU__crt_internal_free_policy@@@@QAEPADXZ 1003884b f i libucrt:environment_initialization.obj
 0001:00037851       ?detach@?$__crt_unique_heap_ptr@_WU__crt_internal_free_policy@@@@QAEPA_WXZ 10038851 f i libucrt:environment_initialization.obj
 0001:00037857       ?get_current_state_index@__crt_state_management@@YAIXZ 10038857 f i libucrt:environment_initialization.obj
 0001:0003787e       ?initialize@?$dual_state_global@PAPAD@__crt_state_management@@QAEXQAPAD@Z 1003887e f i libucrt:environment_initialization.obj
 0001:000378bb       ?initialize@?$dual_state_global@PAPA_W@__crt_state_management@@QAEXQAPA_W@Z 100388bb f i libucrt:environment_initialization.obj
 0001:000378f8       ?is_valid@?$__crt_unique_heap_ptr@PADU__crt_internal_free_policy@@@@QBE_NXZ 100388f8 f i libucrt:environment_initialization.obj
 0001:00037902       ?is_valid@?$__crt_unique_heap_ptr@PA_WU__crt_internal_free_policy@@@@QBE_NXZ 10038902 f i libucrt:environment_initialization.obj
 0001:0003790c       ?is_valid@?$__crt_unique_heap_ptr@_WU__crt_internal_free_policy@@@@QBE_NXZ 1003890c f i libucrt:environment_initialization.obj
 0001:0003791c       ?value@?$dual_state_global@PAPAD@__crt_state_management@@QAEAAPAPADXZ 1003891c f i libucrt:environment_initialization.obj
 0001:0003791f       ?value@?$dual_state_global@PAPA_W@__crt_state_management@@QAEAAPAPA_WXZ 1003891f f i libucrt:environment_initialization.obj
 0001:00037922       ___dcrt_get_or_create_narrow_environment_nolock 10038922 f   libucrt:environment_initialization.obj
 0001:00037927       ___dcrt_get_or_create_wide_environment_nolock 10038927 f   libucrt:environment_initialization.obj
 0001:0003792c       ___dcrt_uninitialize_environments_nolock 1003892c f   libucrt:environment_initialization.obj
 0001:00037970       ___p__environ              10038970 f   libucrt:environment_initialization.obj
 0001:00037976       ___p__wenviron             10038976 f   libucrt:environment_initialization.obj
 0001:0003797c       __get_initial_narrow_environment 1003897c f   libucrt:environment_initialization.obj
 0001:00037995       __get_initial_wide_environment 10038995 f   libucrt:environment_initialization.obj
 0001:000379ae       __initialize_narrow_environment 100389ae f   libucrt:environment_initialization.obj
 0001:000379b3       __initialize_wide_environment 100389b3 f   libucrt:environment_initialization.obj
 0001:000379b8       ??$?BP6AXXZ@__crt_fast_encoded_nullptr_t@@QBEPAP6AXXZXZ 100389b8 f i libucrt:onexit.obj
 0001:000379d6       ??$?RP6AXXZ@__crt_internal_free_policy@@QBEXQBQ6AXXZ@Z 100389d6 f i libucrt:onexit.obj
 0001:000379ec       ??$?RV<lambda_800076c951b434888f4765a74a194fcc>@@AAV<lambda_4e60a939b0d047cfe11ddc22648dfba9>@@V<lambda_6dbb1268764f43b569ce7b67e331d33a>@@@?$__crt_seh_guarded_call@H@@QAEH$$QAV<lambda_800076c951b434888f4765a74a194fcc>@@AAV<lambda_4e60a939b0d047cfe11ddc22648dfba9>@@$$QAV<lambda_6dbb1268764f43b569ce7b67e331d33a>@@@Z 100389ec f i libucrt:onexit.obj
 0001:00037a51       ??$?RV<lambda_995298e7d72eb4c2aab26c0585b3abe5>@@AAV<lambda_275893d493268fdec8709772e3fcec0e>@@V<lambda_293819299cbf9a7022e18b56a874bb5c>@@@?$__crt_seh_guarded_call@H@@QAEH$$QAV<lambda_995298e7d72eb4c2aab26c0585b3abe5>@@AAV<lambda_275893d493268fdec8709772e3fcec0e>@@$$QAV<lambda_293819299cbf9a7022e18b56a874bb5c>@@@Z 10038a51 f i libucrt:onexit.obj
 0001:00037ab6       ??$__acrt_lock_and_call@V<lambda_275893d493268fdec8709772e3fcec0e>@@@@YAHW4__acrt_lock_id@@$$QAV<lambda_275893d493268fdec8709772e3fcec0e>@@@Z 10038ab6 f i libucrt:onexit.obj
 0001:00037ae8       ??$__acrt_lock_and_call@V<lambda_4e60a939b0d047cfe11ddc22648dfba9>@@@@YAHW4__acrt_lock_id@@$$QAV<lambda_4e60a939b0d047cfe11ddc22648dfba9>@@@Z 10038ae8 f i libucrt:onexit.obj
 0001:00037b1a       ??$__crt_fast_encode_pointer@P6AHXZ@@YAP6AHXZQ6AHXZ@Z 10038b1a f i libucrt:onexit.obj
 0001:00037bc7       ??0?$__crt_unique_heap_ptr@P6AXXZU__crt_internal_free_policy@@@@QAE@QAP6AXXZ@Z 10038bc7 f i libucrt:onexit.obj
 0001:00037bdb       ??1?$__crt_unique_heap_ptr@P6AXXZU__crt_internal_free_policy@@@@QAE@XZ 10038bdb f i libucrt:onexit.obj
 0001:00037f16       ?detach@?$__crt_unique_heap_ptr@P6AXXZU__crt_internal_free_policy@@@@QAEPAP6AXXZXZ 10038f16 f i libucrt:onexit.obj
 0001:00037f1c       ?release@?$__crt_unique_heap_ptr@P6AXXZU__crt_internal_free_policy@@@@QAEXXZ 10038f1c f i libucrt:onexit.obj
 0001:00037f32       __crt_at_quick_exit        10038f32 f   libucrt:onexit.obj
 0001:00037f4d       __crt_atexit               10038f4d f   libucrt:onexit.obj
 0001:00037f68       __execute_onexit_table     10038f68 f   libucrt:onexit.obj
 0001:00037f8c       __initialize_onexit_table  10038f8c f   libucrt:onexit.obj
 0001:00037fd8       __register_onexit_function 10038fd8 f   libucrt:onexit.obj
 0001:0003813f       ?initialize@?$dual_state_global@PAU__crt_locale_data@@@__crt_state_management@@QAEXQAU__crt_locale_data@@@Z 1003913f f i libucrt:initialization.obj
 0001:0003817c       ___acrt_initialize         1003917c f   libucrt:initialization.obj
 0001:00038192       ___acrt_thread_attach      10039192 f   libucrt:initialization.obj
 0001:0003819f       ___acrt_thread_detach      1003919f f   libucrt:initialization.obj
 0001:000381a9       ___acrt_uninitialize       100391a9 f   libucrt:initialization.obj
 0001:000381bf       ___acrt_uninitialize_critical 100391bf f   libucrt:initialization.obj
 0001:000381f0       __get_terminate            100391f0 f   libucrt:terminate.obj
 0001:00038206       _set_terminate             10039206 f   libucrt:terminate.obj
 0001:0003822e       _terminate                 1003922e f   libucrt:terminate.obj
 0001:00038279       ??$__crt_interlocked_exchange_pointer@X$$T@@YAPAXPDSAX$$T@Z 10039279 f i libucrt:free_base.obj
 0001:00038291       ___acrt_get_msvcrt_heap_handle 10039291 f   libucrt:free_base.obj
 0001:00038322       __free_base                10039322 f   libucrt:free_base.obj
 0001:0003836a       __malloc_base              1003936a f   libucrt:malloc_base.obj
 0001:0003843b       _strcpy_s                  1003943b f   libucrt:strcpy_s.obj
 0001:000384ab       __set_abort_behavior       100394ab f   libucrt:abort.obj
 0001:000384d4       _abort                     100394d4 f   libucrt:abort.obj
 0001:00038527       __calloc_base              10039527 f   libucrt:calloc_base.obj
 0001:0003859b       ??$is_overflow_condition@K@__crt_strtox@@YA_NIK@Z 1003959b f i libucrt:atox.obj
 0001:000385da       ??$is_overflow_condition@_K@__crt_strtox@@YA_NI_K@Z 100395da f i libucrt:atox.obj
 0001:0003862d       ??$make_c_string_character_source@D$$T@__crt_strtox@@YA?AV?$c_string_character_source@D@0@QBD$$T@Z 1003962d f i libucrt:atox.obj
 0001:0003864e       ??$make_c_string_character_source@_W$$T@__crt_strtox@@YA?AV?$c_string_character_source@_W@0@QB_W$$T@Z 1003964e f i libucrt:atox.obj
 0001:0003866f       ??$parse_integer@KV?$c_string_character_source@D@__crt_strtox@@@__crt_strtox@@YAKQAU__crt_locale_pointers@@V?$c_string_character_source@D@0@H_N@Z 1003966f f i libucrt:atox.obj
 0001:00038921       ??$parse_integer@KV?$c_string_character_source@_W@__crt_strtox@@@__crt_strtox@@YAKQAU__crt_locale_pointers@@V?$c_string_character_source@_W@0@H_N@Z 10039921 f i libucrt:atox.obj
 0001:000391bf       ??$parse_integer@_KV?$c_string_character_source@D@__crt_strtox@@@__crt_strtox@@YA_KQAU__crt_locale_pointers@@V?$c_string_character_source@D@0@H_N@Z 1003a1bf f i libucrt:atox.obj
 0001:0003950e       ??$parse_integer@_KV?$c_string_character_source@_W@__crt_strtox@@@__crt_strtox@@YA_KQAU__crt_locale_pointers@@V?$c_string_character_source@_W@0@H_N@Z 1003a50e f i libucrt:atox.obj
 0001:00039c80       ??$parse_integer_from_string@JD$$T@__crt_strtox@@YAJQBD$$THQAU__crt_locale_pointers@@@Z 1003ac80 f i libucrt:atox.obj
 0001:00039cb8       ??$parse_integer_from_string@J_W$$T@__crt_strtox@@YAJQB_W$$THQAU__crt_locale_pointers@@@Z 1003acb8 f i libucrt:atox.obj
 0001:00039cf0       ??$parse_integer_from_string@_JD$$T@__crt_strtox@@YA_JQBD$$THQAU__crt_locale_pointers@@@Z 1003acf0 f i libucrt:atox.obj
 0001:00039d28       ??$parse_integer_from_string@_J_W$$T@__crt_strtox@@YA_JQB_W$$THQAU__crt_locale_pointers@@@Z 1003ad28 f i libucrt:atox.obj
 0001:00039d60       ??0?$c_string_character_source@D@__crt_strtox@@QAE@QBDQAPBD@Z 1003ad60 f i libucrt:atox.obj
 0001:00039d83       ??0?$c_string_character_source@_W@__crt_strtox@@QAE@QB_WQAPB_W@Z 1003ad83 f i libucrt:atox.obj
 0001:00039da6       ??1?$c_string_character_source@D@__crt_strtox@@QAE@XZ 1003ada6 f i libucrt:atox.obj
 0001:00039db5       ??1?$c_string_character_source@_W@__crt_strtox@@QAE@XZ 1003adb5 f i libucrt:atox.obj
 0001:00039dc4       ?get@?$c_string_character_source@D@__crt_strtox@@QAEDXZ 1003adc4 f i libucrt:atox.obj
 0001:00039dce       ?get@?$c_string_character_source@_W@__crt_strtox@@QAE_WXZ 1003adce f i libucrt:atox.obj
 0001:00039ddb       ?is_space@__crt_strtox@@YA_NDQAU__crt_locale_pointers@@@Z 1003addb f i libucrt:atox.obj
 0001:00039e01       ?is_space@__crt_strtox@@YA_N_WPAU__crt_locale_pointers@@@Z 1003ae01 f i libucrt:atox.obj
 0001:00039e20       ?maximum_signed_value@__crt_strtox@@YAJK@Z 1003ae20 f i libucrt:atox.obj
 0001:00039e26       ?maximum_signed_value@__crt_strtox@@YA_J_K@Z 1003ae26 f i libucrt:atox.obj
 0001:00039e31       ?minimum_signed_value@__crt_strtox@@YAJK@Z 1003ae31 f i libucrt:atox.obj
 0001:00039e37       ?minimum_signed_value@__crt_strtox@@YA_J_K@Z 1003ae37 f i libucrt:atox.obj
 0001:00039e41       ?parse_digit@__crt_strtox@@YAID@Z 1003ae41 f i libucrt:atox.obj
 0001:00039e89       ?parse_digit@__crt_strtox@@YAI_W@Z 1003ae89 f i libucrt:atox.obj
 0001:0003a0e6       ?restore_state@?$c_string_character_source@D@__crt_strtox@@QAE_NQBD@Z 1003b0e6 f i libucrt:atox.obj
 0001:0003a0fa       ?restore_state@?$c_string_character_source@_W@__crt_strtox@@QAE_NQB_W@Z 1003b0fa f i libucrt:atox.obj
 0001:0003a10e       ?save_state@?$c_string_character_source@D@__crt_strtox@@QBEPBDXZ 1003b10e f i libucrt:atox.obj
 0001:0003a111       ?save_state@?$c_string_character_source@_W@__crt_strtox@@QBEPB_WXZ 1003b111 f i libucrt:atox.obj
 0001:0003a114       ?unget@?$c_string_character_source@D@__crt_strtox@@QAEXD@Z 1003b114 f i libucrt:atox.obj
 0001:0003a146       ?unget@?$c_string_character_source@_W@__crt_strtox@@QAEX_W@Z 1003b146 f i libucrt:atox.obj
 0001:0003a17d       ?validate@?$c_string_character_source@D@__crt_strtox@@QBE_NXZ 1003b17d f i libucrt:atox.obj
 0001:0003a19e       ?validate@?$c_string_character_source@_W@__crt_strtox@@QBE_NXZ 1003b19e f i libucrt:atox.obj
 0001:0003a1bf       ?wide_character_to_digit@__crt_strtox@@YAH_W@Z 1003b1bf f i libucrt:atox.obj
 0001:0003a3c8       ___acrt_get_locale_data_prefix 1003b3c8 f i libucrt:atox.obj
 0001:0003a3d7       __atoi64                   1003b3d7 f   libucrt:atox.obj
 0001:0003a40b       __atoi64_l                 1003b40b f   libucrt:atox.obj
 0001:0003a440       __atoi_l                   1003b440 f   libucrt:atox.obj
 0001:0003a475       __atol_l                   1003b475 f   libucrt:atox.obj
 0001:0003a4aa       __atoll_l                  1003b4aa f   libucrt:atox.obj
 0001:0003a4df       __chvalidchk_l             1003b4df f i libucrt:atox.obj
 0001:0003a513       __ischartype_l             1003b513 f i libucrt:atox.obj
 0001:0003a552       __wtoi                     1003b552 f   libucrt:atox.obj
 0001:0003a586       __wtoi64                   1003b586 f   libucrt:atox.obj
 0001:0003a5ba       __wtoi64_l                 1003b5ba f   libucrt:atox.obj
 0001:0003a5ef       __wtoi_l                   1003b5ef f   libucrt:atox.obj
 0001:0003a624       __wtol                     1003b624 f   libucrt:atox.obj
 0001:0003a658       __wtol_l                   1003b658 f   libucrt:atox.obj
 0001:0003a68d       __wtoll                    1003b68d f   libucrt:atox.obj
 0001:0003a6c1       __wtoll_l                  1003b6c1 f   libucrt:atox.obj
 0001:0003a6f6       _atoi                      1003b6f6 f   libucrt:atox.obj
 0001:0003a72a       _atol                      1003b72a f   libucrt:atox.obj
 0001:0003a75e       _atoll                     1003b75e f   libucrt:atox.obj
 0001:0003a7a0       __cintrindisp2             1003b7a0 f   libucrt:87cdisp.obj
 0001:0003a7e4       __cintrindisp1             1003b7e4 f   libucrt:87cdisp.obj
 0001:0003a827       __ctrandisp2               1003b827 f   libucrt:87cdisp.obj
 0001:0003a9b6       __ctrandisp1               1003b9b6 f   libucrt:87cdisp.obj
 0001:0003a9e9       __fload                    1003b9e9 f   libucrt:87cdisp.obj
 0001:0003aad0       __trandisp1                1003bad0 f   libucrt:87disp.obj
 0001:0003ab37       __trandisp2                1003bb37 f   libucrt:87disp.obj
 0001:0003abc3       __rttospopde               1003bbc3     libucrt:87disp.obj
 0001:0003abc8       __rttospop                 1003bbc8     libucrt:87disp.obj
 0001:0003abca       __rtnospop                 1003bbca     libucrt:87disp.obj
 0001:0003abcc       __rttosnpop                1003bbcc     libucrt:87disp.obj
 0001:0003abcd       __rtnospopde               1003bbcd     libucrt:87disp.obj
 0001:0003abd4       __rtzeropop                1003bbd4     libucrt:87disp.obj
 0001:0003abd6       __rtzeronpop               1003bbd6     libucrt:87disp.obj
 0001:0003abdb       __rtzerospop               1003bbdb     libucrt:87disp.obj
 0001:0003abe8       __rtonepop                 1003bbe8     libucrt:87disp.obj
 0001:0003abea       __rtonenpop                1003bbea     libucrt:87disp.obj
 0001:0003abef       __tosnan1                  1003bbef     libucrt:87disp.obj
 0001:0003ac1a       __nosnan2                  1003bc1a     libucrt:87disp.obj
 0001:0003ac1c       __tosnan2                  1003bc1c     libucrt:87disp.obj
 0001:0003ac44       __nan2                     1003bc44     libucrt:87disp.obj
 0001:0003ac83       __rtindfpop                1003bc83     libucrt:87disp.obj
 0001:0003ac85       __rtindfnpop               1003bc85     libucrt:87disp.obj
 0001:0003ac96       __rttosnpopde              1003bc96     libucrt:87disp.obj
 0001:0003aca0       __rtatan2inf               1003bca0     libucrt:87disp.obj
 0001:0003acbd       __rtchsifneg               1003bcbd     libucrt:87disp.obj
 0001:0003ad41       __realloc_base             1003bd41 f   libucrt:realloc_base.obj
 0001:0003adc4       ___acrt_initialize_locks   1003bdc4 f   libucrt:locks.obj
 0001:0003ae15       ___acrt_lock               1003be15 f   libucrt:locks.obj
 0001:0003ae31       ___acrt_uninitialize_locks 1003be31 f   libucrt:locks.obj
 0001:0003ae6e       ___acrt_unlock             1003be6e f   libucrt:locks.obj
 0001:0003ae8a       __lock_locales             1003be8a f   libucrt:locks.obj
 0001:0003ae95       __unlock_locales           1003be95 f   libucrt:locks.obj
 0001:0003aef7       ??$?B$$A6GHPA_WKJ@Z@__crt_fast_encoded_nullptr_t@@QBEP6GHPA_WKJ@ZXZ 1003bef7 f i libucrt:winapi_thunks.obj
 0001:0003af15       ??$?RV<lambda_9227be29367c048ad7fd93a717dcb1a1>@@AAV<lambda_a463b7b0560cfcaf9b17f27c6ef46564>@@V<lambda_ccea11b5727ccf69be64f5f5d9a08d9f>@@@?$__crt_seh_guarded_call@H@@QAEH$$QAV<lambda_9227be29367c048ad7fd93a717dcb1a1>@@AAV<lambda_a463b7b0560cfcaf9b17f27c6ef46564>@@$$QAV<lambda_ccea11b5727ccf69be64f5f5d9a08d9f>@@@Z 1003bf15 f i libucrt:winapi_thunks.obj
 0001:0003afba       ??$__acrt_lock_and_call@V<lambda_a463b7b0560cfcaf9b17f27c6ef46564>@@@@YAHW4__acrt_lock_id@@$$QAV<lambda_a463b7b0560cfcaf9b17f27c6ef46564>@@@Z 1003bfba f i libucrt:winapi_thunks.obj
 0001:0003afec       ??$__crt_fast_decode_pointer@P6GHPA_WKJ@Z@@YAP6GHPA_WKJ@ZQ6GH0KJ@Z@Z 1003bfec f i libucrt:winapi_thunks.obj
 0001:0003b007       ??$__crt_fast_encode_pointer@P6GHPA_WKJ@Z@@YAP6GHPA_WKJ@ZQ6GH0KJ@Z@Z 1003c007 f i libucrt:winapi_thunks.obj
 0001:0003b734       ___acrt_AreFileApisANSI@0  1003c734 f   libucrt:winapi_thunks.obj
 0001:0003b795       ___acrt_CompareStringEx@36 1003c795 f   libucrt:winapi_thunks.obj
 0001:0003b826       ___acrt_EnumSystemLocalesEx@16 1003c826 f   libucrt:winapi_thunks.obj
 0001:0003b8ae       ___acrt_FlsAlloc@4         1003c8ae f   libucrt:winapi_thunks.obj
 0001:0003b919       ___acrt_FlsFree@4          1003c919 f   libucrt:winapi_thunks.obj
 0001:0003b984       ___acrt_FlsGetValue@4      1003c984 f   libucrt:winapi_thunks.obj
 0001:0003b9ef       ___acrt_FlsSetValue@8      1003c9ef f   libucrt:winapi_thunks.obj
 0001:0003ba5e       ___acrt_GetDateFormatEx@28 1003ca5e f   libucrt:winapi_thunks.obj
 0001:0003bb00       ___acrt_GetEnabledXStateFeatures@0 1003cb00 f   libucrt:winapi_thunks.obj
 0001:0003bb62       ___acrt_GetFileInformationByHandleEx@16 1003cb62 f   libucrt:winapi_thunks.obj
 0001:0003bbdd       ___acrt_GetLocaleInfoEx@16 1003cbdd f   libucrt:winapi_thunks.obj
 0001:0003bc61       ___acrt_GetSystemTimePreciseAsFileTime@4 1003cc61 f   libucrt:winapi_thunks.obj
 0001:0003bccc       ___acrt_GetTimeFormatEx@24 1003cccc f   libucrt:winapi_thunks.obj
 0001:0003bd58       ___acrt_GetUserDefaultLocaleName@8 1003cd58 f   libucrt:winapi_thunks.obj
 0001:0003bdd8       ___acrt_GetXStateFeaturesMask@8 1003cdd8 f   libucrt:winapi_thunks.obj
 0001:0003be44       ___acrt_InitializeCriticalSectionEx@12 1003ce44 f   libucrt:winapi_thunks.obj
 0001:0003bebe       ___acrt_IsValidLocaleName@4 1003cebe f   libucrt:winapi_thunks.obj
 0001:0003bf39       ___acrt_LCIDToLocaleName@16 1003cf39 f   libucrt:winapi_thunks.obj
 0001:0003bfbd       ___acrt_LCMapStringEx@36   1003cfbd f   libucrt:winapi_thunks.obj
 0001:0003c067       ___acrt_LocaleNameToLCID@8 1003d067 f   libucrt:winapi_thunks.obj
 0001:0003c0da       ___acrt_LocateXStateFeature@12 1003d0da f   libucrt:winapi_thunks.obj
 0001:0003c131       ___acrt_MessageBoxA@16     1003d131 f   libucrt:winapi_thunks.obj
 0001:0003c18c       ___acrt_MessageBoxW@16     1003d18c f   libucrt:winapi_thunks.obj
 0001:0003c1e7       ___acrt_RoInitialize@4     1003d1e7 f   libucrt:winapi_thunks.obj
 0001:0003c24d       ___acrt_RoUninitialize@0   1003d24d f   libucrt:winapi_thunks.obj
 0001:0003c2a8       ___acrt_RtlGenRandom@8     1003d2a8 f   libucrt:winapi_thunks.obj
 0001:0003c314       ___acrt_SetThreadStackGuarantee@4 1003d314 f   libucrt:winapi_thunks.obj
 0001:0003c37a       ___acrt_can_show_message_box 1003d37a f   libucrt:winapi_thunks.obj
 0001:0003c399       ___acrt_can_use_vista_locale_apis 1003d399 f   libucrt:winapi_thunks.obj
 0001:0003c3a8       ___acrt_can_use_xstate_apis 1003d3a8 f   libucrt:winapi_thunks.obj
 0001:0003c3b7       ___acrt_get_parent_window  1003d3b7 f   libucrt:winapi_thunks.obj
 0001:0003c455       ___acrt_initialize_winapi_thunks 1003d455 f   libucrt:winapi_thunks.obj
 0001:0003c484       ___acrt_is_interactive     1003d484 f   libucrt:winapi_thunks.obj
 0001:0003c553       ___acrt_is_packaged_app    1003d553 f   libucrt:winapi_thunks.obj
 0001:0003c5fb       ___acrt_uninitialize_winapi_thunks 1003d5fb f   libucrt:winapi_thunks.obj
 0001:0003c63e       ??$__crt_fast_decode_pointer@P6AXPB_W00II@Z@@YAP6AXPB_W00II@ZQ6AX000II@Z@Z 1003d63e f i libucrt:invalid_parameter.obj
 0001:0003c659       ??$__crt_fast_encode_pointer@P6AXPB_W00II@Z@@YAP6AXPB_W00II@ZQ6AX000II@Z@Z 1003d659 f i libucrt:invalid_parameter.obj
 0001:0003c67f       ?initialize@?$dual_state_global@P6AXPB_W00II@Z@__crt_state_management@@QAEXQ6AXPB_W00II@Z@Z 1003d67f f i libucrt:invalid_parameter.obj
 0001:0003c6bc       ?value@?$dual_state_global@P6AXPB_W00II@Z@__crt_state_management@@QAEAAP6AXPB_W00II@ZXZ 1003d6bc f i libucrt:invalid_parameter.obj
 0001:0003c6bf       ___acrt_call_reportfault   1003d6bf f   libucrt:invalid_parameter.obj
 0001:0003c848       ___acrt_initialize_invalid_parameter_handler 1003d848 f   libucrt:invalid_parameter.obj
 0001:0003c861       __get_invalid_parameter_handler 1003d861 f   libucrt:invalid_parameter.obj
 0001:0003c878       __get_thread_local_invalid_parameter_handler 1003d878 f   libucrt:invalid_parameter.obj
 0001:0003c88d       __invalid_parameter        1003d88d f   libucrt:invalid_parameter.obj
 0001:0003c926       __invalid_parameter_noinfo 1003d926 f   libucrt:invalid_parameter.obj
 0001:0003c93a       __invalid_parameter_noinfo_noreturn 1003d93a f   libucrt:invalid_parameter.obj
 0001:0003c95e       __invoke_watson            1003d95e f   libucrt:invalid_parameter.obj
 0001:0003c99d       __set_invalid_parameter_handler 1003d99d f   libucrt:invalid_parameter.obj
 0001:0003c9d9       __set_thread_local_invalid_parameter_handler 1003d9d9 f   libucrt:invalid_parameter.obj
 0001:0003c9fd       ___acrt_errno_from_os_error 1003d9fd f   libucrt:errno.obj
 0001:0003ca50       ___acrt_errno_map_os_error 1003da50 f   libucrt:errno.obj
 0001:0003ca7b       ___doserrno                1003da7b f   libucrt:errno.obj
 0001:0003ca92       __errno                    1003da92 f   libucrt:errno.obj
 0001:0003caa9       __get_doserrno             1003daa9 f   libucrt:errno.obj
 0001:0003cad7       __get_errno                1003dad7 f   libucrt:errno.obj
 0001:0003cb05       __set_doserrno             1003db05 f   libucrt:errno.obj
 0001:0003cb2e       __set_errno                1003db2e f   libucrt:errno.obj
 0001:0003cb57       ??0__crt_stdio_stream@@QAE@QAU__crt_stdio_stream_data@@@Z 1003db57 f i libucrt:closeall.obj
 0001:0003cb6b       __fcloseall                1003db6b f   libucrt:closeall.obj
 0001:0003cc33       ___acrt_stdio_flush_nolock 1003dc33 f   libucrt:fflush.obj
 0001:0003ccb2       __fflush_nolock            1003dcb2 f   libucrt:fflush.obj
 0001:0003cd0a       __flushall                 1003dd0a f   libucrt:fflush.obj
 0001:0003ce23       _fflush                    1003de23 f   libucrt:fflush.obj
 0001:0003ce92       ?has_crt_buffer@__crt_stdio_stream@@QBE_NXZ 1003de92 f i libucrt:_freebuf.obj
 0001:0003cea1       ___acrt_stdio_free_buffer_nolock 1003dea1 f   libucrt:_freebuf.obj
 0001:0003d0de       ___acrt_initialize_lowio   1003e0de f   libucrt:ioinit.obj
 0001:0003d149       ___acrt_uninitialize_lowio 1003e149 f   libucrt:ioinit.obj
 0001:0003d180       ??$?RV<lambda_123407a5e2ac06da108355a851863b7a>@@AAV<lambda_2fe9b910cf3cbf4a0ab98a02ba45b3ec>@@V<lambda_ae55bdf541ad94d75914d381c370e64d>@@@?$__crt_seh_guarded_call@H@@QAEH$$QAV<lambda_123407a5e2ac06da108355a851863b7a>@@AAV<lambda_2fe9b910cf3cbf4a0ab98a02ba45b3ec>@@$$QAV<lambda_ae55bdf541ad94d75914d381c370e64d>@@@Z 1003e180 f i libucrt:close.obj
 0001:0003d222       ??$__acrt_lowio_lock_fh_and_call@V<lambda_2fe9b910cf3cbf4a0ab98a02ba45b3ec>@@@@YAHH$$QAV<lambda_2fe9b910cf3cbf4a0ab98a02ba45b3ec>@@@Z 1003e222 f i libucrt:close.obj
 0001:0003d375       __close                    1003e375 f   libucrt:close.obj
 0001:0003d413       __close_nolock             1003e413 f   libucrt:close.obj
 0001:0003d4d6       ?lowio_handle@__crt_stdio_stream@@QBEHXZ 1003e4d6 f i libucrt:fileno.obj
 0001:0003d4dc       __fileno                   1003e4dc f   libucrt:fileno.obj
 0001:0003d50b       ??$?RU__crt_stdio_stream_data@@@__crt_internal_free_policy@@QBEXQBU__crt_stdio_stream_data@@@Z 1003e50b f i libucrt:stream.obj
 0001:0003d521       ??0?$__crt_unique_heap_ptr@U__crt_stdio_stream_data@@U__crt_internal_free_policy@@@@QAE@QAU__crt_stdio_stream_data@@@Z 1003e521 f i libucrt:stream.obj
 0001:0003d535       ??0__crt_stdio_stream@@QAE@XZ 1003e535 f i libucrt:stream.obj
 0001:0003d53b       ??1?$__crt_unique_heap_ptr@U__crt_stdio_stream_data@@U__crt_internal_free_policy@@@@QAE@XZ 1003e53b f i libucrt:stream.obj
 0001:0003d551       ?__acrt_stdio_allocate_stream@@YA?AV__crt_stdio_stream@@XZ 1003e551 f   libucrt:stream.obj
 0001:0003d5c7       ?__acrt_stdio_free_stream@@YAXV__crt_stdio_stream@@@Z 1003e5c7 f   libucrt:stream.obj
 0001:0003d610       ?deallocate@__crt_stdio_stream@@QAEXXZ 1003e610 f i libucrt:stream.obj
 0001:0003d61c       ?detach@?$__crt_unique_heap_ptr@U__crt_stdio_stream_data@@U__crt_internal_free_policy@@@@QAEPAU__crt_stdio_stream_data@@XZ 1003e61c f i libucrt:stream.obj
 0001:0003d715       ?lock@__crt_stdio_stream@@QBEXXZ 1003e715 f i libucrt:stream.obj
 0001:0003d720       ?release@?$__crt_unique_heap_ptr@U__crt_stdio_stream_data@@U__crt_internal_free_policy@@@@QAEXXZ 1003e720 f i libucrt:stream.obj
 0001:0003d736       ?try_allocate@__crt_stdio_stream@@QAE_NXZ 1003e736 f i libucrt:stream.obj
 0001:0003d75f       ??$__acrt_stdio_parse_mode@D@@YA?AU__acrt_stdio_stream_mode@@QBD@Z 1003e75f f i libucrt:openfile.obj
 0001:0003da1d       ??$__acrt_stdio_parse_mode@_W@@YA?AU__acrt_stdio_stream_mode@@QB_W@Z 1003ea1d f i libucrt:openfile.obj
 0001:0003de3e       ??$tcsncmp@AAPBDAAY02$$CBDI@?$__crt_char_traits@D@@SAHAAPBDAAY02$$CBD$$QAI@Z 1003ee3e f i libucrt:openfile.obj
 0001:0003de61       ??$tcsncmp@AAPB_WAAY02$$CB_WI@?$__crt_char_traits@_W@@SAHAAPB_WAAY02$$CB_W$$QAI@Z 1003ee61 f i libucrt:openfile.obj
 0001:0003de84       ??$tcsnicmp@AAPBDAAY04$$CBDI@?$__crt_char_traits@D@@SAHAAPBDAAY04$$CBD$$QAI@Z 1003ee84 f i libucrt:openfile.obj
 0001:0003dea7       ??$tcsnicmp@AAPBDAAY06$$CBDI@?$__crt_char_traits@D@@SAHAAPBDAAY06$$CBD$$QAI@Z 1003eea7 f i libucrt:openfile.obj
 0001:0003deca       ??$tcsnicmp@AAPBDAAY07$$CBDI@?$__crt_char_traits@D@@SAHAAPBDAAY07$$CBD$$QAI@Z 1003eeca f i libucrt:openfile.obj
 0001:0003deed       ??$tcsnicmp@AAPB_WAAY04$$CB_WI@?$__crt_char_traits@_W@@SAHAAPB_WAAY04$$CB_W$$QAI@Z 1003eeed f i libucrt:openfile.obj
 0001:0003df10       ??$tcsnicmp@AAPB_WAAY06$$CB_WI@?$__crt_char_traits@_W@@SAHAAPB_WAAY06$$CB_W$$QAI@Z 1003ef10 f i libucrt:openfile.obj
 0001:0003df33       ??$tcsnicmp@AAPB_WAAY07$$CB_WI@?$__crt_char_traits@_W@@SAHAAPB_WAAY07$$CB_W$$QAI@Z 1003ef33 f i libucrt:openfile.obj
 0001:0003df56       ??$tsopen_s@PAHABQBDABHABHH@?$__crt_char_traits@D@@SAH$$QAPAHABQBDABH2$$QAH@Z 1003ef56 f i libucrt:openfile.obj
 0001:0003df88       ??$tsopen_s@PAHABQB_WABHABHH@?$__crt_char_traits@_W@@SAH$$QAPAHABQB_WABH2$$QAH@Z 1003ef88 f i libucrt:openfile.obj
 0001:0003dfba       ?__acrt_stdio_parse_mode_D@@YA_NAAU__acrt_stdio_stream_mode@@@Z 1003efba f i libucrt:openfile.obj
 0001:0003dfdb       ?__acrt_stdio_parse_mode_N@@YA_NAAU__acrt_stdio_stream_mode@@@Z 1003efdb f i libucrt:openfile.obj
 0001:0003dff1       ?__acrt_stdio_parse_mode_R@@YA_NAAU__acrt_stdio_stream_mode@@AA_N@Z 1003eff1 f i libucrt:openfile.obj
 0001:0003e016       ?__acrt_stdio_parse_mode_S@@YA_NAAU__acrt_stdio_stream_mode@@AA_N@Z 1003f016 f i libucrt:openfile.obj
 0001:0003e03b       ?__acrt_stdio_parse_mode_T@@YA_NAAU__acrt_stdio_stream_mode@@@Z 1003f03b f i libucrt:openfile.obj
 0001:0003e061       ?__acrt_stdio_parse_mode_b@@YA_NAAU__acrt_stdio_stream_mode@@@Z 1003f061 f i libucrt:openfile.obj
 0001:0003e089       ?__acrt_stdio_parse_mode_c@@YA_NAAU__acrt_stdio_stream_mode@@AA_N@Z 1003f089 f i libucrt:openfile.obj
 0001:0003e0b3       ?__acrt_stdio_parse_mode_n@@YA_NAAU__acrt_stdio_stream_mode@@AA_N@Z 1003f0b3 f i libucrt:openfile.obj
 0001:0003e0dd       ?__acrt_stdio_parse_mode_plus@@YA_NAAU__acrt_stdio_stream_mode@@AA_N@Z 1003f0dd f i libucrt:openfile.obj
 0001:0003e11f       ?__acrt_stdio_parse_mode_t@@YA_NAAU__acrt_stdio_stream_mode@@@Z 1003f11f f i libucrt:openfile.obj
 0001:0003e147       __openfile                 1003f147 f   libucrt:openfile.obj
 0001:0003e154       __wopenfile                1003f154 f   libucrt:openfile.obj
 0001:0003e7f9       __read                     1003f7f9 f   libucrt:read.obj
 0001:0003e950       __read_nolock              1003f950 f   libucrt:read.obj
 0001:0003f2e8       ___acrt_stdio_refill_and_read_narrow_nolock 100402e8 f   libucrt:_filbuf.obj
 0001:0003f2f5       ___acrt_stdio_refill_and_read_wide_nolock 100402f5 f   libucrt:_filbuf.obj
 0001:0003fa54       __write                    10040a54 f   libucrt:write.obj
 0001:0003fb79       __write_nolock             10040b79 f   libucrt:write.obj
 0001:000402bf       ___acrt_stdio_flush_and_write_narrow_nolock 100412bf f   libucrt:_flsbuf.obj
 0001:000402cc       ___acrt_stdio_flush_and_write_wide_nolock 100412cc f   libucrt:_flsbuf.obj
 0001:000402d9       ?has_temporary_buffer@__crt_stdio_stream@@QBE_NXZ 100412d9 f i libucrt:_sftbuf.obj
 0001:000402e8       ___acrt_stdio_begin_temporary_buffering_nolock 100412e8 f   libucrt:_sftbuf.obj
 0001:000403ca       ___acrt_stdio_end_temporary_buffering_nolock 100413ca f   libucrt:_sftbuf.obj
 0001:00040411       ___acrt_copy_path_to_wide_string 10041411 f   libucrt:string_utilities.obj
 0001:00040509       ___acrt_copy_to_char       10041509 f   libucrt:string_utilities.obj
 0001:000405f4       __wremove                  100415f4 f   libucrt:wunlink.obj
 0001:00040626       __wunlink                  10041626 f   libucrt:wunlink.obj
 0001:00040a9a       __lseek                    10041a9a f   libucrt:lseek.obj
 0001:00040aa7       __lseek_nolock             10041aa7 f   libucrt:lseek.obj
 0001:00040ab4       __lseeki64                 10041ab4 f   libucrt:lseek.obj
 0001:00040ad5       __lseeki64_nolock          10041ad5 f   libucrt:lseek.obj
 0001:00040b11       ___isascii                 10041b11 f i libucrt:_ctype.obj
 0001:00040b27       ___iscsym                  10041b27 f i libucrt:_ctype.obj
 0001:00040b51       ___iscsymf                 10041b51 f i libucrt:_ctype.obj
 0001:00040b77       ___toascii                 10041b77 f i libucrt:_ctype.obj
 0001:00040b87       __isalnum_l                10041b87 f i libucrt:_ctype.obj
 0001:00040bd0       __isalpha_l                10041bd0 f i libucrt:_ctype.obj
 0001:00040c19       __isblank_l                10041c19 f i libucrt:_ctype.obj
 0001:00040c6c       __iscntrl_l                10041c6c f i libucrt:_ctype.obj
 0001:00040cb2       __iscsym_l                 10041cb2 f i libucrt:_ctype.obj
 0001:00040cdd       __iscsymf_l                10041cdd f i libucrt:_ctype.obj
 0001:00040d08       __isdigit_l                10041d08 f i libucrt:_ctype.obj
 0001:00040d4e       __isgraph_l                10041d4e f i libucrt:_ctype.obj
 0001:00040d97       __islower_l                10041d97 f i libucrt:_ctype.obj
 0001:00040ddd       __isprint_l                10041ddd f i libucrt:_ctype.obj
 0001:00040e26       __ispunct_l                10041e26 f i libucrt:_ctype.obj
 0001:00040e6c       __isspace_l                10041e6c f i libucrt:_ctype.obj
 0001:00040eb2       __isupper_l                10041eb2 f i libucrt:_ctype.obj
 0001:00040ef8       __isxdigit_l               10041ef8 f i libucrt:_ctype.obj
 0001:00040f41       _isalnum                   10041f41 f i libucrt:_ctype.obj
 0001:00040f7b       _isalpha                   10041f7b f i libucrt:_ctype.obj
 0001:00040fb5       _isblank                   10041fb5 f i libucrt:_ctype.obj
 0001:00040ff9       _iscntrl                   10041ff9 f i libucrt:_ctype.obj
 0001:00041031       _isdigit                   10042031 f i libucrt:_ctype.obj
 0001:00041069       _isgraph                   10042069 f i libucrt:_ctype.obj
 0001:000410a3       _islower                   100420a3 f i libucrt:_ctype.obj
 0001:000410db       _isprint                   100420db f i libucrt:_ctype.obj
 0001:00041115       _ispunct                   10042115 f i libucrt:_ctype.obj
 0001:0004114d       _isspace                   1004214d f i libucrt:_ctype.obj
 0001:00041185       _isupper                   10042185 f i libucrt:_ctype.obj
 0001:000411bd       _isxdigit                  100421bd f i libucrt:_ctype.obj
 0001:000415b5       __tolower                  100425b5 f   libucrt:tolower_toupper.obj
 0001:000415c5       __tolower_l                100425c5 f   libucrt:tolower_toupper.obj
 0001:000415e5       __toupper                  100425e5 f   libucrt:tolower_toupper.obj
 0001:000415f5       __toupper_l                100425f5 f   libucrt:tolower_toupper.obj
 0001:00041615       _tolower                   10042615 f   libucrt:tolower_toupper.obj
 0001:00041651       _toupper                   10042651 f   libucrt:tolower_toupper.obj
 0001:0004168d       ??$make_c_string_character_source@DPAPAD@__crt_strtox@@YA?AV?$c_string_character_source@D@0@QBDQAPAD@Z 1004268d f i libucrt:strtox.obj
 0001:000416ae       ??$make_c_string_character_source@_WPAPA_W@__crt_strtox@@YA?AV?$c_string_character_source@_W@0@QB_WQAPA_W@Z 100426ae f i libucrt:strtox.obj
 0001:000416cf       ??$parse_integer_from_string@JDPAPAD@__crt_strtox@@YAJQBDQAPADHQAU__crt_locale_pointers@@@Z 100426cf f i libucrt:strtox.obj
 0001:00041707       ??$parse_integer_from_string@J_WPAPA_W@__crt_strtox@@YAJQB_WQAPA_WHQAU__crt_locale_pointers@@@Z 10042707 f i libucrt:strtox.obj
 0001:0004173f       ??$parse_integer_from_string@KDPAPAD@__crt_strtox@@YAKQBDQAPADHQAU__crt_locale_pointers@@@Z 1004273f f i libucrt:strtox.obj
 0001:00041777       ??$parse_integer_from_string@K_WPAPA_W@__crt_strtox@@YAKQB_WQAPA_WHQAU__crt_locale_pointers@@@Z 10042777 f i libucrt:strtox.obj
 0001:000417af       ??$parse_integer_from_string@_JDPAPAD@__crt_strtox@@YA_JQBDQAPADHQAU__crt_locale_pointers@@@Z 100427af f i libucrt:strtox.obj
 0001:000417e7       ??$parse_integer_from_string@_J_WPAPA_W@__crt_strtox@@YA_JQB_WQAPA_WHQAU__crt_locale_pointers@@@Z 100427e7 f i libucrt:strtox.obj
 0001:0004181f       ??$parse_integer_from_string@_KDPAPAD@__crt_strtox@@YA_KQBDQAPADHQAU__crt_locale_pointers@@@Z 1004281f f i libucrt:strtox.obj
 0001:00041857       ??$parse_integer_from_string@_K_WPAPA_W@__crt_strtox@@YA_KQB_WQAPA_WHQAU__crt_locale_pointers@@@Z 10042857 f i libucrt:strtox.obj
 0001:0004188f       __strtoi64                 1004288f f   libucrt:strtox.obj
 0001:000418c6       __strtoi64_l               100428c6 f   libucrt:strtox.obj
 0001:000418fe       __strtoimax_l              100428fe f   libucrt:strtox.obj
 0001:00041936       __strtol_l                 10042936 f   libucrt:strtox.obj
 0001:0004196e       __strtoll_l                1004296e f   libucrt:strtox.obj
 0001:000419a6       __strtoui64                100429a6 f   libucrt:strtox.obj
 0001:000419dd       __strtoui64_l              100429dd f   libucrt:strtox.obj
 0001:00041a15       __strtoul_l                10042a15 f   libucrt:strtox.obj
 0001:00041a4d       __strtoull_l               10042a4d f   libucrt:strtox.obj
 0001:00041a85       __strtoumax_l              10042a85 f   libucrt:strtox.obj
 0001:00041abd       __wcstoi64                 10042abd f   libucrt:strtox.obj
 0001:00041af4       __wcstoi64_l               10042af4 f   libucrt:strtox.obj
 0001:00041b2c       __wcstoimax_l              10042b2c f   libucrt:strtox.obj
 0001:00041b64       __wcstol_l                 10042b64 f   libucrt:strtox.obj
 0001:00041b9c       __wcstoll_l                10042b9c f   libucrt:strtox.obj
 0001:00041bd4       __wcstoui64                10042bd4 f   libucrt:strtox.obj
 0001:00041c0b       __wcstoui64_l              10042c0b f   libucrt:strtox.obj
 0001:00041c43       __wcstoul_l                10042c43 f   libucrt:strtox.obj
 0001:00041c7b       __wcstoull_l               10042c7b f   libucrt:strtox.obj
 0001:00041cb3       __wcstoumax_l              10042cb3 f   libucrt:strtox.obj
 0001:00041ceb       _strtoimax                 10042ceb f   libucrt:strtox.obj
 0001:00041d22       _strtol                    10042d22 f   libucrt:strtox.obj
 0001:00041d59       _strtoll                   10042d59 f   libucrt:strtox.obj
 0001:00041d90       _strtoul                   10042d90 f   libucrt:strtox.obj
 0001:00041dc7       _strtoull                  10042dc7 f   libucrt:strtox.obj
 0001:00041dfe       _strtoumax                 10042dfe f   libucrt:strtox.obj
 0001:00041e35       _wcstoimax                 10042e35 f   libucrt:strtox.obj
 0001:00041e6c       _wcstol                    10042e6c f   libucrt:strtox.obj
 0001:00041ea3       _wcstoll                   10042ea3 f   libucrt:strtox.obj
 0001:00041eda       _wcstoul                   10042eda f   libucrt:strtox.obj
 0001:00041f11       _wcstoull                  10042f11 f   libucrt:strtox.obj
 0001:00041f48       _wcstoumax                 10042f48 f   libucrt:strtox.obj
 0001:00041f7f       __mbtowc_l                 10042f7f f   libucrt:mbtowc.obj
 0001:000420b7       _mbtowc                    100430b7 f   libucrt:mbtowc.obj
 0001:000420d7       __wctomb_l                 100430d7 f   libucrt:wctomb.obj
 0001:0004213e       __wctomb_s_l               1004313e f   libucrt:wctomb.obj
 0001:000422a7       _wctomb                    100432a7 f   libucrt:wctomb.obj
 0001:000422e8       _wctomb_s                  100432e8 f   libucrt:wctomb.obj
 0001:00042a00       ??1?$__crt_simd_cleanup_guard@$00@@QAE@XZ 10043a00 f i libucrt:strnlen.obj
 0001:00042a04       ??1?$__crt_simd_cleanup_guard@$0A@@@QAE@XZ 10043a04 f i libucrt:strnlen.obj
 0001:00042a05       ?compare_equals@?$__crt_simd_traits@$00E@@SA?AT__m256i@@T2@0@Z 10043a05 f i libucrt:strnlen.obj
 0001:00042a0a       ?compare_equals@?$__crt_simd_traits@$00G@@SA?AT__m256i@@T2@0@Z 10043a0a f i libucrt:strnlen.obj
 0001:00042a0f       ?compare_equals@?$__crt_simd_traits@$0A@E@@SA?AT__m128i@@T2@0@Z 10043a0f f i libucrt:strnlen.obj
 0001:00042a14       ?compare_equals@?$__crt_simd_traits@$0A@G@@SA?AT__m128i@@T2@0@Z 10043a14 f i libucrt:strnlen.obj
 0001:00042a19       ?compute_byte_mask@?$__crt_simd_pack_traits@$00@@SAHT__m256i@@@Z 10043a19 f i libucrt:strnlen.obj
 0001:00042a1e       ?compute_byte_mask@?$__crt_simd_pack_traits@$0A@@@SAHT__m128i@@@Z 10043a1e f i libucrt:strnlen.obj
 0001:00042a23       ?get_zero_pack@?$__crt_simd_pack_traits@$00@@SA?AT__m256i@@XZ 10043a23 f i libucrt:strnlen.obj
 0001:00042a28       ?get_zero_pack@?$__crt_simd_pack_traits@$0A@@@SA?AT__m128i@@XZ 10043a28 f i libucrt:strnlen.obj
 0001:00042a2d       _strnlen                   10043a2d f   libucrt:strnlen.obj
 0001:00042b9d       _wcsnlen                   10043b9d f   libucrt:strnlen.obj
 0001:00042dc1       ??$?RU__acrt_ptd@@@__crt_internal_free_policy@@QBEXQBU__acrt_ptd@@@Z 10043dc1 f i libucrt:per_thread_data.obj
 0001:00042dd7       ??$?RV<lambda_3518db117f0e7cdb002338c5d3c47b6c>@@AAV<lambda_b2ea41f6bbb362cd97d94c6828d90b61>@@V<lambda_abdedf541bb04549bc734292b4a045d4>@@@?$__crt_seh_guarded_call@X@@QAEX$$QAV<lambda_3518db117f0e7cdb002338c5d3c47b6c>@@AAV<lambda_b2ea41f6bbb362cd97d94c6828d90b61>@@$$QAV<lambda_abdedf541bb04549bc734292b4a045d4>@@@Z 10043dd7 f i libucrt:per_thread_data.obj
 0001:00042e3b       ??$?RV<lambda_51b6e8b1eb166f2a3faf91f424b38130>@@AAV<lambda_6250bd4b2a391816dd638c3bf72b0bcb>@@V<lambda_0b5a4a3e68152e1d9b943535f5f47bed>@@@?$__crt_seh_guarded_call@X@@QAEX$$QAV<lambda_51b6e8b1eb166f2a3faf91f424b38130>@@AAV<lambda_6250bd4b2a391816dd638c3bf72b0bcb>@@$$QAV<lambda_0b5a4a3e68152e1d9b943535f5f47bed>@@@Z 10043e3b f i libucrt:per_thread_data.obj
 0001:00042eb4       ??$?RV<lambda_5b71d36f03204c0beab531769a5b5694>@@AAV<lambda_be2b3da3f62db62e9dad5dc70221a656>@@V<lambda_8f9ce462984622f9bf76b59e2aaaf805>@@@?$__crt_seh_guarded_call@X@@QAEX$$QAV<lambda_5b71d36f03204c0beab531769a5b5694>@@AAV<lambda_be2b3da3f62db62e9dad5dc70221a656>@@$$QAV<lambda_8f9ce462984622f9bf76b59e2aaaf805>@@@Z 10043eb4 f i libucrt:per_thread_data.obj
 0001:00042f11       ??$?RV<lambda_9df27f884b057bc3edfc946cb5b7cf47>@@AAV<lambda_e69574bed617af4e071282c136b37893>@@V<lambda_cc0d902bcbbeb830f749456577db4721>@@@?$__crt_seh_guarded_call@X@@QAEX$$QAV<lambda_9df27f884b057bc3edfc946cb5b7cf47>@@AAV<lambda_e69574bed617af4e071282c136b37893>@@$$QAV<lambda_cc0d902bcbbeb830f749456577db4721>@@@Z 10043f11 f i libucrt:per_thread_data.obj
 0001:00042f6b       ??$__acrt_lock_and_call@V<lambda_6250bd4b2a391816dd638c3bf72b0bcb>@@@@YAXW4__acrt_lock_id@@$$QAV<lambda_6250bd4b2a391816dd638c3bf72b0bcb>@@@Z 10043f6b f i libucrt:per_thread_data.obj
 0001:00042f9d       ??$__acrt_lock_and_call@V<lambda_b2ea41f6bbb362cd97d94c6828d90b61>@@@@YAXW4__acrt_lock_id@@$$QAV<lambda_b2ea41f6bbb362cd97d94c6828d90b61>@@@Z 10043f9d f i libucrt:per_thread_data.obj
 0001:00042fcf       ??$__acrt_lock_and_call@V<lambda_be2b3da3f62db62e9dad5dc70221a656>@@@@YAXW4__acrt_lock_id@@$$QAV<lambda_be2b3da3f62db62e9dad5dc70221a656>@@@Z 10043fcf f i libucrt:per_thread_data.obj
 0001:00043001       ??$__acrt_lock_and_call@V<lambda_e69574bed617af4e071282c136b37893>@@@@YAXW4__acrt_lock_id@@$$QAV<lambda_e69574bed617af4e071282c136b37893>@@@Z 10044001 f i libucrt:per_thread_data.obj
 0001:0004313a       ??0?$__crt_unique_heap_ptr@U__acrt_ptd@@U__crt_internal_free_policy@@@@QAE@QAU__acrt_ptd@@@Z 1004413a f i libucrt:per_thread_data.obj
 0001:0004314e       ??0__crt_scoped_get_last_error_reset@@QAE@XZ 1004414e f i libucrt:per_thread_data.obj
 0001:00043163       ??1?$__crt_unique_heap_ptr@U__acrt_ptd@@U__crt_internal_free_policy@@@@QAE@XZ 10044163 f i libucrt:per_thread_data.obj
 0001:00043179       ??1__crt_scoped_get_last_error_reset@@QAE@XZ 10044179 f i libucrt:per_thread_data.obj
 0001:00043184       ??B?$__crt_unique_heap_ptr@U__acrt_ptd@@U__crt_internal_free_policy@@@@QBE_NXZ 10044184 f i libucrt:per_thread_data.obj
 0001:000432fa       ?dangerous_get_state_array@?$dual_state_global@PAU__crt_locale_data@@@__crt_state_management@@QAEPAPAU__crt_locale_data@@XZ 100442fa f i libucrt:per_thread_data.obj
 0001:000433fe       ?detach@?$__crt_unique_heap_ptr@U__acrt_ptd@@U__crt_internal_free_policy@@@@QAEPAU__acrt_ptd@@XZ 100443fe f i libucrt:per_thread_data.obj
 0001:00043404       ?get@?$__crt_unique_heap_ptr@U__acrt_ptd@@U__crt_internal_free_policy@@@@QBEPAU__acrt_ptd@@XZ 10044404 f i libucrt:per_thread_data.obj
 0001:00043513       ?is_valid@?$__crt_unique_heap_ptr@U__acrt_ptd@@U__crt_internal_free_policy@@@@QBE_NXZ 10044513 f i libucrt:per_thread_data.obj
 0001:0004351d       ?release@?$__crt_unique_heap_ptr@U__acrt_ptd@@U__crt_internal_free_policy@@@@QAEXXZ 1004451d f i libucrt:per_thread_data.obj
 0001:000435a9       ?value@?$dual_state_global@PAU__crt_locale_data@@@__crt_state_management@@QAEAAPAU__crt_locale_data@@XZ 100445a9 f i libucrt:per_thread_data.obj
 0001:000435ac       ___acrt_freeptd            100445ac f   libucrt:per_thread_data.obj
 0001:000435e3       ___acrt_getptd             100445e3 f   libucrt:per_thread_data.obj
 0001:00043688       ___acrt_getptd_noexit      10044688 f   libucrt:per_thread_data.obj
 0001:0004372e       ___acrt_initialize_ptd     1004472e f   libucrt:per_thread_data.obj
 0001:00043765       ___acrt_uninitialize_ptd   10044765 f   libucrt:per_thread_data.obj
 0001:00043785       ___threadhandle            10044785 f   libucrt:per_thread_data.obj
 0001:0004378b       ___threadid                1004478b f   libucrt:per_thread_data.obj
 0001:00043791       ___acrt_update_locale_info 10044791 f   libucrt:locale_update.obj
 0001:000437c9       ___acrt_update_multibyte_info 100447c9 f   libucrt:locale_update.obj
 0001:00043801       ?__acrt_fp_classify@@YA?AW4__acrt_fp_class@@ABN@Z 10044801 f i libucrt:cvt.obj
 0001:00043888       ?__acrt_fp_is_negative@@YA_NABN@Z 10044888 f i libucrt:cvt.obj
 0001:000442fb       ?strrchr@@YAPADQADH@Z      100452fb f i libucrt:cvt.obj
 0001:00044308       ___acrt_fp_format          10045308 f   libucrt:cvt.obj
 0001:000444e2       __fputwc_nolock            100454e2 f   libucrt:fputwc.obj
 0001:00044651       __fputwchar                10045651 f   libucrt:fputwc.obj
 0001:00044671       __putwc_nolock             10045671 f   libucrt:fputwc.obj
 0001:0004467e       _fputwc                    1004567e f   libucrt:fputwc.obj
 0001:00044717       _putwc                     10045717 f   libucrt:fputwc.obj
 0001:00044724       _putwchar                  10045724 f   libucrt:fputwc.obj
 0001:00044731       __fputc_nolock             10045731 f   libucrt:fputc.obj
 0001:00044764       __fputchar                 10045764 f   libucrt:fputc.obj
 0001:00044784       __putc_nolock              10045784 f   libucrt:fputc.obj
 0001:00044791       _fputc                     10045791 f   libucrt:fputc.obj
 0001:000448d6       _putc                      100458d6 f   libucrt:fputc.obj
 0001:000448e3       _putchar                   100458e3 f   libucrt:fputc.obj
 0001:000448f0       __get_printf_count_output  100458f0 f   libucrt:printf_count_output.obj
 0001:0004490a       __set_printf_count_output  1004590a f   libucrt:printf_count_output.obj
 0001:00044941       ??$?RU__crt_locale_data@@@__crt_internal_free_policy@@QBEXQBU__crt_locale_data@@@Z 10045941 f i libucrt:wsetlocale.obj
 0001:00044957       ??$?RU__crt_locale_pointers@@@__crt_internal_free_policy@@QBEXQBU__crt_locale_pointers@@@Z 10045957 f i libucrt:wsetlocale.obj
 0001:0004496d       ??$?RU__crt_multibyte_data@@@__crt_internal_free_policy@@QBEXQBU__crt_multibyte_data@@@Z 1004596d f i libucrt:wsetlocale.obj
 0001:00044983       ??$?RV<lambda_70818de7b02deff9841e8b0962a60ed9>@@AAV<lambda_2af78c5f5901b1372d98f9ab3177dfa6>@@AAV<lambda_f51fe5fd7c79a33db34fc9310f277369>@@@?$__crt_seh_guarded_call@X@@QAEX$$QAV<lambda_70818de7b02deff9841e8b0962a60ed9>@@AAV<lambda_2af78c5f5901b1372d98f9ab3177dfa6>@@AAV<lambda_f51fe5fd7c79a33db34fc9310f277369>@@@Z 10045983 f i libucrt:wsetlocale.obj
 0001:000449cc       ??$?RV<lambda_76aaead6e312921abc834cb00a638bdd>@@AAV<lambda_176e34f99554166dd2fac165c457248c>@@V<lambda_998ee1c9f4290b119b936bcd6215875a>@@@?$__crt_seh_guarded_call@X@@QAEX$$QAV<lambda_76aaead6e312921abc834cb00a638bdd>@@AAV<lambda_176e34f99554166dd2fac165c457248c>@@$$QAV<lambda_998ee1c9f4290b119b936bcd6215875a>@@@Z 100459cc f i libucrt:wsetlocale.obj
 0001:00044a28       ??$?RV<lambda_c76fdea48760d5f9368b465f31df4405>@@AAV<lambda_e378711a6f6581bf7f0efd7cdf97f5d9>@@V<lambda_e927a58b2a85c081d733e8c6192ae2d2>@@@?$__crt_seh_guarded_call@X@@QAEX$$QAV<lambda_c76fdea48760d5f9368b465f31df4405>@@AAV<lambda_e378711a6f6581bf7f0efd7cdf97f5d9>@@$$QAV<lambda_e927a58b2a85c081d733e8c6192ae2d2>@@@Z 10045a28 f i libucrt:wsetlocale.obj
 0001:00044a7b       ??$?RV<lambda_c9469061b39d205f0f236529d4a41659>@@AAV<lambda_b7fb1a997d3ebc0cc0186c5835178808>@@V<lambda_14b92c79d699846b5cc916cd4cf280e4>@@@?$__crt_seh_guarded_call@X@@QAEX$$QAV<lambda_c9469061b39d205f0f236529d4a41659>@@AAV<lambda_b7fb1a997d3ebc0cc0186c5835178808>@@$$QAV<lambda_14b92c79d699846b5cc916cd4cf280e4>@@@Z 10045a7b f i libucrt:wsetlocale.obj
 0001:00044ad5       ??$__acrt_lock_and_call@V<lambda_176e34f99554166dd2fac165c457248c>@@@@YAXW4__acrt_lock_id@@$$QAV<lambda_176e34f99554166dd2fac165c457248c>@@@Z 10045ad5 f i libucrt:wsetlocale.obj
 0001:00044b07       ??$__acrt_lock_and_call@V<lambda_b7fb1a997d3ebc0cc0186c5835178808>@@@@YAXW4__acrt_lock_id@@$$QAV<lambda_b7fb1a997d3ebc0cc0186c5835178808>@@@Z 10045b07 f i libucrt:wsetlocale.obj
 0001:00044b39       ??$__acrt_lock_and_call@V<lambda_e378711a6f6581bf7f0efd7cdf97f5d9>@@@@YAXW4__acrt_lock_id@@$$QAV<lambda_e378711a6f6581bf7f0efd7cdf97f5d9>@@@Z 10045b39 f i libucrt:wsetlocale.obj
 0001:00044b6b       ??$__crt_call_and_cleanup@V<lambda_2af78c5f5901b1372d98f9ab3177dfa6>@@V<lambda_f51fe5fd7c79a33db34fc9310f277369>@@@@YAX$$QAV<lambda_2af78c5f5901b1372d98f9ab3177dfa6>@@$$QAV<lambda_f51fe5fd7c79a33db34fc9310f277369>@@@Z 10045b6b f i libucrt:wsetlocale.obj
 0001:00044b8e       ??$__vcrt_va_start_verify_argument_type@H@@YAXXZ 10045b8e f i libucrt:wsetlocale.obj
 0001:00044cb3       ??0?$__crt_unique_heap_ptr@U__crt_locale_data@@U__crt_internal_free_policy@@@@QAE@QAU__crt_locale_data@@@Z 10045cb3 f i libucrt:wsetlocale.obj
 0001:00044cc7       ??0?$__crt_unique_heap_ptr@U__crt_locale_pointers@@U__crt_internal_free_policy@@@@QAE@QAU__crt_locale_pointers@@@Z 10045cc7 f i libucrt:wsetlocale.obj
 0001:00044cdb       ??0?$__crt_unique_heap_ptr@U__crt_multibyte_data@@U__crt_internal_free_policy@@@@QAE@QAU__crt_multibyte_data@@@Z 10045cdb f i libucrt:wsetlocale.obj
 0001:00044cef       ??1?$__crt_unique_heap_ptr@U__crt_locale_data@@U__crt_internal_free_policy@@@@QAE@XZ 10045cef f i libucrt:wsetlocale.obj
 0001:00044d05       ??1?$__crt_unique_heap_ptr@U__crt_locale_pointers@@U__crt_internal_free_policy@@@@QAE@XZ 10045d05 f i libucrt:wsetlocale.obj
 0001:00044d1b       ??1?$__crt_unique_heap_ptr@U__crt_multibyte_data@@U__crt_internal_free_policy@@@@QAE@XZ 10045d1b f i libucrt:wsetlocale.obj
 0001:00044d31       ??B?$__crt_unique_heap_ptr@U__crt_locale_data@@U__crt_internal_free_policy@@@@QBE_NXZ 10045d31 f i libucrt:wsetlocale.obj
 0001:00044d3b       ??B?$__crt_unique_heap_ptr@U__crt_locale_pointers@@U__crt_internal_free_policy@@@@QBE_NXZ 10045d3b f i libucrt:wsetlocale.obj
 0001:00044d45       ??B?$__crt_unique_heap_ptr@U__crt_multibyte_data@@U__crt_internal_free_policy@@@@QBE_NXZ 10045d45 f i libucrt:wsetlocale.obj
 0001:00044f6e       ?detach@?$__crt_unique_heap_ptr@U__crt_locale_data@@U__crt_internal_free_policy@@@@QAEPAU__crt_locale_data@@XZ 10045f6e f i libucrt:wsetlocale.obj
 0001:00044f74       ?detach@?$__crt_unique_heap_ptr@U__crt_locale_pointers@@U__crt_internal_free_policy@@@@QAEPAU__crt_locale_pointers@@XZ 10045f74 f i libucrt:wsetlocale.obj
 0001:00044f7a       ?detach@?$__crt_unique_heap_ptr@U__crt_multibyte_data@@U__crt_internal_free_policy@@@@QAEPAU__crt_multibyte_data@@XZ 10045f7a f i libucrt:wsetlocale.obj
 0001:00044f80       ?get@?$__crt_unique_heap_ptr@U__crt_locale_data@@U__crt_internal_free_policy@@@@QBEPAU__crt_locale_data@@XZ 10045f80 f i libucrt:wsetlocale.obj
 0001:00044f83       ?get@?$__crt_unique_heap_ptr@U__crt_locale_pointers@@U__crt_internal_free_policy@@@@QBEPAU__crt_locale_pointers@@XZ 10045f83 f i libucrt:wsetlocale.obj
 0001:00044f86       ?get@?$__crt_unique_heap_ptr@U__crt_multibyte_data@@U__crt_internal_free_policy@@@@QBEPAU__crt_multibyte_data@@XZ 10045f86 f i libucrt:wsetlocale.obj
 0001:00044f89       ?is_valid@?$__crt_unique_heap_ptr@U__crt_locale_data@@U__crt_internal_free_policy@@@@QBE_NXZ 10045f89 f i libucrt:wsetlocale.obj
 0001:00044f93       ?is_valid@?$__crt_unique_heap_ptr@U__crt_locale_pointers@@U__crt_internal_free_policy@@@@QBE_NXZ 10045f93 f i libucrt:wsetlocale.obj
 0001:00044f9d       ?is_valid@?$__crt_unique_heap_ptr@U__crt_multibyte_data@@U__crt_internal_free_policy@@@@QBE_NXZ 10045f9d f i libucrt:wsetlocale.obj
 0001:00044fa7       ?release@?$__crt_unique_heap_ptr@U__crt_locale_data@@U__crt_internal_free_policy@@@@QAEXXZ 10045fa7 f i libucrt:wsetlocale.obj
 0001:00044fbd       ?release@?$__crt_unique_heap_ptr@U__crt_locale_pointers@@U__crt_internal_free_policy@@@@QAEXXZ 10045fbd f i libucrt:wsetlocale.obj
 0001:00044fd3       ?release@?$__crt_unique_heap_ptr@U__crt_multibyte_data@@U__crt_internal_free_policy@@@@QAEXXZ 10045fd3 f i libucrt:wsetlocale.obj
 0001:00044fe9       ___acrt_copy_locale_name   10045fe9 f   libucrt:wsetlocale.obj
 0001:00045068       ___acrt_set_locale_changed 10046068 f   libucrt:wsetlocale.obj
 0001:00045075       ___acrt_uninitialize_locale 10046075 f   libucrt:wsetlocale.obj
 0001:000450db       ___lc_lctowcs              100460db f   libucrt:wsetlocale.obj
 0001:00045167       ___lc_wcstolc              10046167 f   libucrt:wsetlocale.obj
 0001:000452e1       __configthreadlocale       100462e1 f   libucrt:wsetlocale.obj
 0001:00045395       __create_locale            10046395 f   libucrt:wsetlocale.obj
 0001:00045412       __expandlocale             10046412 f   libucrt:wsetlocale.obj
 0001:00045866       __free_locale              10046866 f   libucrt:wsetlocale.obj
 0001:0004594c       __get_current_locale       1004694c f   libucrt:wsetlocale.obj
 0001:000459e5       __wcreate_locale           100469e5 f   libucrt:wsetlocale.obj
 0001:00045b30       __wcscats                  10046b30 f   libucrt:wsetlocale.obj
 0001:00045b81       __wsetlocale               10046b81 f   libucrt:wsetlocale.obj
 0001:000466a7       ___p___mb_cur_max          100476a7 f   libucrt:nlsdata.obj
 0001:000466d7       __chgsign                  100476d7 f   libucrt:ieeemisc.obj
 0001:00046711       __chgsignf                 10047711 f   libucrt:ieeemisc.obj
 0001:0004673c       __copysign                 1004773c f   libucrt:ieeemisc.obj
 0001:00046770       __copysignf                10047770 f   libucrt:ieeemisc.obj
 0001:00046795       __finite                   10047795 f   libucrt:ieeemisc.obj
 0001:000467b5       __fpclass                  100477b5 f   libucrt:ieeemisc.obj
 0001:00046882       __isnan                    10047882 f   libucrt:ieeemisc.obj
 0001:000468c5       __logb                     100478c5 f   libucrt:ieeemisc.obj
 0001:000469ca       __nextafter                100479ca f   libucrt:ieeemisc.obj
 0001:000469f0       __scalb                    100479f0 f   libucrt:ieeemisc.obj
 0001:00046a10       __add_exp                  10047a10 f   libucrt:util.obj
 0001:00046a4a       __decomp                   10047a4a f   libucrt:util.obj
 0001:00046b53       __get_exp                  10047b53 f   libucrt:util.obj
 0001:00046b72       __set_bexp                 10047b72 f   libucrt:util.obj
 0001:00046ba5       __set_exp                  10047ba5 f   libucrt:util.obj
 0001:00046bdf       __sptype                   10047bdf f   libucrt:util.obj
 0001:00046c54       ___clrfp_sse2              10047c54 f   libucrt:fpctrl.obj
 0001:00046c7d       ___ctrlfp_sse2             10047c7d f   libucrt:fpctrl.obj
 0001:00046cc6       ___fclrf_sse2              10047cc6 f   libucrt:fpctrl.obj
 0001:00046cec       ___get_fpsr_sse2           10047cec f   libucrt:fpctrl.obj
 0001:00046d11       ___set_fpsr_sse2           10047d11 f   libucrt:fpctrl.obj
 0001:00046da4       ___set_statfp_sse2         10047da4 f   libucrt:fpctrl.obj
 0001:00046dc5       ___statfp_sse2             10047dc5 f   libucrt:fpctrl.obj
 0001:00046ddf       __clrfp                    10047ddf f   libucrt:fpctrl.obj
 0001:00046df6       __ctrlfp                   10047df6 f   libucrt:fpctrl.obj
 0001:00046e2d       __set_statfp               10047e2d f   libucrt:fpctrl.obj
 0001:00046e9e       __statfp                   10047e9e f   libucrt:fpctrl.obj
 0001:00046f7b       ___acrt_report_runtime_error 10047f7b f   libucrt:report_runtime_error.obj
 0001:000470e1       __query_app_type           100480e1 f   libucrt:report_runtime_error.obj
 0001:000470e7       __set_app_type             100480e7 f   libucrt:report_runtime_error.obj
 0001:000475d3       __i64toa                   100485d3 f   libucrt:xtoa.obj
 0001:00047626       __i64toa_s                 10048626 f   libucrt:xtoa.obj
 0001:00047677       __i64tow                   10048677 f   libucrt:xtoa.obj
 0001:000476ca       __i64tow_s                 100486ca f   libucrt:xtoa.obj
 0001:0004771b       __itoa                     1004871b f   libucrt:xtoa.obj
 0001:0004775f       __itoa_s                   1004875f f   libucrt:xtoa.obj
 0001:000477a1       __itow                     100487a1 f   libucrt:xtoa.obj
 0001:000477e5       __itow_s                   100487e5 f   libucrt:xtoa.obj
 0001:00047827       __ltoa                     10048827 f   libucrt:xtoa.obj
 0001:0004786b       __ltoa_s                   1004886b f   libucrt:xtoa.obj
 0001:000478ad       __ltow                     100488ad f   libucrt:xtoa.obj
 0001:000478f1       __ltow_s                   100488f1 f   libucrt:xtoa.obj
 0001:00047933       __ui64toa                  10048933 f   libucrt:xtoa.obj
 0001:0004795d       __ui64toa_s                1004895d f   libucrt:xtoa.obj
 0001:00047985       __ui64tow                  10048985 f   libucrt:xtoa.obj
 0001:000479af       __ui64tow_s                100489af f   libucrt:xtoa.obj
 0001:000479d7       __ultoa                    100489d7 f   libucrt:xtoa.obj
 0001:000479fd       __ultoa_s                  100489fd f   libucrt:xtoa.obj
 0001:00047a21       __ultow                    10048a21 f   libucrt:xtoa.obj
 0001:00047a47       __ultow_s                  10048a47 f   libucrt:xtoa.obj
 0001:00047a6b       __set_error_mode           10048a6b f   libucrt:set_error_mode.obj
 0001:00047b47       _wcscat_s                  10048b47 f   libucrt:wcscat_s.obj
 0001:00047c51       _wcscpy_s                  10048c51 f   libucrt:wcscpy_s.obj
 0001:00047df1       _wcsncat_s                 10048df1 f   libucrt:wcsncat_s.obj
 0001:00047e81       _strcat_s                  10048e81 f   libucrt:strcat_s.obj
 0001:00048008       _strncat_s                 10049008 f   libucrt:strncat_s.obj
 0001:00048233       ??$message_box@$$TAAPBDAAPBDAAI@?$__crt_char_traits@D@@SAH$$QA$$TAAPBD1AAI@Z 10049233 f i libucrt:crtmbox.obj
 0001:0004825b       ??$message_box@$$TAAPB_WAAPB_WAAI@?$__crt_char_traits@_W@@SAH$$QA$$TAAPB_W1AAI@Z 1004925b f i libucrt:crtmbox.obj
 0001:00048283       ??$message_box@$$TABQBDABQBDK@?$__crt_char_traits@D@@SAH$$QA$$TABQBD1$$QAK@Z 10049283 f i libucrt:crtmbox.obj
 0001:000482ab       ??$message_box@$$TABQB_WABQB_WK@?$__crt_char_traits@_W@@SAH$$QA$$TABQB_W1$$QAK@Z 100492ab f i libucrt:crtmbox.obj
 0001:000482d3       ??$message_box@PAUHWND__@@ABQBDABQBDABI@?$__crt_char_traits@D@@SAH$$QAPAUHWND__@@ABQBD1ABI@Z 100492d3 f i libucrt:crtmbox.obj
 0001:000482fb       ??$message_box@PAUHWND__@@ABQB_WABQB_WABI@?$__crt_char_traits@_W@@SAH$$QAPAUHWND__@@ABQB_W1ABI@Z 100492fb f i libucrt:crtmbox.obj
 0001:00048377       ??$output_debug_string@ABQBD@?$__crt_char_traits@D@@SAXABQBD@Z 10049377 f i libucrt:crtmbox.obj
 0001:0004838d       ??$output_debug_string@ABQB_W@?$__crt_char_traits@_W@@SAXABQB_W@Z 1004938d f i libucrt:crtmbox.obj
 0001:000483a3       ??0?$__crt_unique_handle_t@U__crt_handle_traits@@@@QAE@QAX@Z 100493a3 f i libucrt:crtmbox.obj
 0001:000483b7       ??1?$__crt_unique_handle_t@U__crt_handle_traits@@@@QAE@XZ 100493b7 f i libucrt:crtmbox.obj
 0001:000483d3       ??B?$__crt_unique_handle_t@U__crt_handle_traits@@@@QBE_NXZ 100493d3 f i libucrt:crtmbox.obj
 0001:000483de       ?close@?$__crt_unique_handle_t@U__crt_handle_traits@@@@QAEXXZ 100493de f i libucrt:crtmbox.obj
 0001:000483fa       ?close@__crt_handle_traits@@SA_NPAX@Z 100493fa f i libucrt:crtmbox.obj
 0001:00048415       ?get@?$__crt_unique_handle_t@U__crt_handle_traits@@@@QBEPAXXZ 10049415 f i libucrt:crtmbox.obj
 0001:00048418       ?get_invalid_value@__crt_handle_traits@@SAPAXXZ 10049418 f i libucrt:crtmbox.obj
 0001:0004841c       ?is_valid@?$__crt_unique_handle_t@U__crt_handle_traits@@@@QBE_NXZ 1004941c f i libucrt:crtmbox.obj
 0001:00048427       ___acrt_show_narrow_message_box 10049427 f   libucrt:crtmbox.obj
 0001:00048434       ___acrt_show_wide_message_box 10049434 f   libucrt:crtmbox.obj
 0001:00048441       ??$?RV<lambda_d92cfe8357b99225085016881b624cb0>@@AAV<lambda_b721fa326cdb32351d23dfa67958c160>@@V<lambda_42d75b0848218ec137fa420c8ba9fdf9>@@@?$__crt_seh_guarded_call@H@@QAEH$$QAV<lambda_d92cfe8357b99225085016881b624cb0>@@AAV<lambda_b721fa326cdb32351d23dfa67958c160>@@$$QAV<lambda_42d75b0848218ec137fa420c8ba9fdf9>@@@Z 10049441 f i libucrt:setvbuf.obj
 0001:000484a6       ??$__acrt_lock_stream_and_call@V<lambda_b721fa326cdb32351d23dfa67958c160>@@@@YAHQAU_iobuf@@$$QAV<lambda_b721fa326cdb32351d23dfa67958c160>@@@Z 100494a6 f i libucrt:setvbuf.obj
 0001:00048643       _setvbuf                   10049643 f   libucrt:setvbuf.obj
 0001:000486d6       ??$?B$$A6AXH@Z@__crt_fast_encoded_nullptr_t@@QBEP6AXH@ZXZ 100496d6 f i libucrt:signal.obj
 0001:000486f4       ??$?RV<lambda_a048d3beccc847880fc8490e18b82769>@@AAV<lambda_ec61778202f4f5fc7e7711acc23c3bca>@@V<lambda_f7496a158712204296dd6628a163878e>@@@?$__crt_seh_guarded_call@P6AXH@Z@@QAEP6AXH@Z$$QAV<lambda_a048d3beccc847880fc8490e18b82769>@@AAV<lambda_ec61778202f4f5fc7e7711acc23c3bca>@@$$QAV<lambda_f7496a158712204296dd6628a163878e>@@@Z 100496f4 f i libucrt:signal.obj
 0001:00048764       ??$__acrt_lock_and_call@V<lambda_ec61778202f4f5fc7e7711acc23c3bca>@@@@YAP6AXH@ZW4__acrt_lock_id@@$$QAV<lambda_ec61778202f4f5fc7e7711acc23c3bca>@@@Z 10049764 f i libucrt:signal.obj
 0001:00048796       ??$__crt_fast_decode_pointer@P6AXH@Z@@YAP6AXH@ZQ6AXH@Z@Z 10049796 f i libucrt:signal.obj
 0001:000487b1       ??$__crt_fast_encode_pointer@P6AXH@Z@@YAP6AXH@ZQ6AXH@Z@Z 100497b1 f i libucrt:signal.obj
 0001:0004895b       ?initialize@?$dual_state_global@P6AXH@Z@__crt_state_management@@QAEXQ6AXH@Z@Z 1004995b f i libucrt:signal.obj
 0001:00048a07       ?value@?$dual_state_global@P6AXH@Z@__crt_state_management@@QAEAAP6AXH@ZXZ 10049a07 f i libucrt:signal.obj
 0001:00048a0a       ___acrt_get_sigabrt_handler 10049a0a f   libucrt:signal.obj
 0001:00048a26       ___acrt_initialize_signal_handlers 10049a26 f   libucrt:signal.obj
 0001:00048a6f       ___fpecode                 10049a6f f   libucrt:signal.obj
 0001:00048a7a       ___pxcptinfoptrs           10049a7a f   libucrt:signal.obj
 0001:00048a85       _raise                     10049a85 f   libucrt:signal.obj
 0001:00048d0f       _signal                    10049d0f f   libucrt:signal.obj
 0001:00048f2d       ??$__crt_fast_decode_pointer@P6AHPAU_exception@@@Z@@YAP6AHPAU_exception@@@ZQ6AH0@Z@Z 10049f2d f i libucrt:matherr.obj
 0001:00048f48       ??$__crt_fast_encode_pointer@P6AHPAU_exception@@@Z@@YAP6AHPAU_exception@@@ZQ6AH0@Z@Z 10049f48 f i libucrt:matherr.obj
 0001:00048f6e       ?initialize@?$dual_state_global@P6AHPAU_exception@@@Z@__crt_state_management@@QAEXQ6AHPAU_exception@@@Z@Z 10049f6e f i libucrt:matherr.obj
 0001:00048fab       ?value@?$dual_state_global@P6AHPAU_exception@@@Z@__crt_state_management@@QAEAAP6AHPAU_exception@@@ZXZ 10049fab f i libucrt:matherr.obj
 0001:00048fae       ___acrt_has_user_matherr   10049fae f   libucrt:matherr.obj
 0001:00048fcd       ___acrt_initialize_user_matherr 10049fcd f   libucrt:matherr.obj
 0001:00048fe6       ___acrt_invoke_user_matherr 10049fe6 f   libucrt:matherr.obj
 0001:00049041       ___setusermatherr          1004a041 f   libucrt:matherr.obj
 0001:00049a53       ??$find_first_file_ex@ABQADW4_FINDEX_INFO_LEVELS@@PAU_WIN32_FIND_DATAA@@W4_FINDEX_SEARCH_OPS@@$$TH@?$__crt_char_traits@D@@SAPAXABQAD$$QAW4_FINDEX_INFO_LEVELS@@$$QAPAU_WIN32_FIND_DATAA@@$$QAW4_FINDEX_SEARCH_OPS@@$$QA$$T$$QAH@Z 1004aa53 f i libucrt:argv_wildcards.obj
 0001:00049a88       ??$find_first_file_ex@ABQA_WW4_FINDEX_INFO_LEVELS@@PAU_WIN32_FIND_DATAW@@W4_FINDEX_SEARCH_OPS@@$$TH@?$__crt_char_traits@_W@@SAPAXABQA_W$$QAW4_FINDEX_INFO_LEVELS@@$$QAPAU_WIN32_FIND_DATAW@@$$QAW4_FINDEX_SEARCH_OPS@@$$QA$$T$$QAH@Z 1004aa88 f i libucrt:argv_wildcards.obj
 0001:00049abd       ??$find_next_file@PAXPAU_WIN32_FIND_DATAA@@@?$__crt_char_traits@D@@SAH$$QAPAX$$QAPAU_WIN32_FIND_DATAA@@@Z 1004aabd f i libucrt:argv_wildcards.obj
 0001:00049ad9       ??$find_next_file@PAXPAU_WIN32_FIND_DATAW@@@?$__crt_char_traits@_W@@SAH$$QAPAX$$QAPAU_WIN32_FIND_DATAW@@@Z 1004aad9 f i libucrt:argv_wildcards.obj
 0001:00049af5       ??$tcsncpy_s@AAPADIAAPADABI@?$__crt_char_traits@D@@SAHAAPAD$$QAI0ABI@Z 1004aaf5 f i libucrt:argv_wildcards.obj
 0001:00049b20       ??$tcsncpy_s@AAPA_WIAAPA_WABI@?$__crt_char_traits@_W@@SAHAAPA_W$$QAI0ABI@Z 1004ab20 f i libucrt:argv_wildcards.obj
 0001:00049b4b       ??$tcsncpy_s@PAD$$CBIABQBDABI@?$__crt_char_traits@D@@SAH$$QAPAD$$QBIABQBDABI@Z 1004ab4b f i libucrt:argv_wildcards.obj
 0001:00049b76       ??$tcsncpy_s@PADABIABQBDABI@?$__crt_char_traits@D@@SAH$$QAPADABIABQBD1@Z 1004ab76 f i libucrt:argv_wildcards.obj
 0001:00049ba1       ??$tcsncpy_s@PA_W$$CBIABQB_WABI@?$__crt_char_traits@_W@@SAH$$QAPA_W$$QBIABQB_WABI@Z 1004aba1 f i libucrt:argv_wildcards.obj
 0001:00049bcc       ??$tcsncpy_s@PA_WABIABQB_WABI@?$__crt_char_traits@_W@@SAH$$QAPA_WABIABQB_W1@Z 1004abcc f i libucrt:argv_wildcards.obj
 0001:00049bf7       ??$tcspbrk@AAPADAAY02$$CBD@?$__crt_char_traits@D@@SAPADAAPADAAY02$$CBD@Z 1004abf7 f i libucrt:argv_wildcards.obj
 0001:00049c12       ??$tcspbrk@AAPA_WAAY02$$CB_W@?$__crt_char_traits@_W@@SAPA_WAAPA_WAAY02$$CB_W@Z 1004ac12 f i libucrt:argv_wildcards.obj
 0001:00049c2d       ??0?$__crt_unique_handle_t@U__crt_findfile_traits@@@@QAE@QAX@Z 1004ac2d f i libucrt:argv_wildcards.obj
 0001:00049c41       ??0?$argument_list@D@?A0xb0e4b824@@QAE@XZ 1004ac41 f i libucrt:argv_wildcards.obj
 0001:00049c51       ??0?$argument_list@_W@?A0xb0e4b824@@QAE@XZ 1004ac51 f i libucrt:argv_wildcards.obj
 0001:00049c61       ??1?$__crt_unique_handle_t@U__crt_findfile_traits@@@@QAE@XZ 1004ac61 f i libucrt:argv_wildcards.obj
 0001:00049c7d       ??1?$argument_list@D@?A0xb0e4b824@@QAE@XZ 1004ac7d f i libucrt:argv_wildcards.obj
 0001:00049cab       ??1?$argument_list@_W@?A0xb0e4b824@@QAE@XZ 1004acab f i libucrt:argv_wildcards.obj
 0001:00049d39       ?append@?$argument_list@D@?A0xb0e4b824@@QAEHQAD@Z 1004ad39 f i libucrt:argv_wildcards.obj
 0001:00049d7b       ?append@?$argument_list@_W@?A0xb0e4b824@@QAEHQA_W@Z 1004ad7b f i libucrt:argv_wildcards.obj
 0001:00049dbd       ?begin@?$argument_list@D@?A0xb0e4b824@@QBEPAPADXZ 1004adbd f i libucrt:argv_wildcards.obj
 0001:00049dc0       ?begin@?$argument_list@_W@?A0xb0e4b824@@QBEPAPA_WXZ 1004adc0 f i libucrt:argv_wildcards.obj
 0001:00049dc3       ?close@?$__crt_unique_handle_t@U__crt_findfile_traits@@@@QAEXXZ 1004adc3 f i libucrt:argv_wildcards.obj
 0001:00049ddf       ?close@__crt_findfile_traits@@SA_NPAX@Z 1004addf f i libucrt:argv_wildcards.obj
 0001:00049dfa       ?end@?$argument_list@D@?A0xb0e4b824@@QBEPAPADXZ 1004adfa f i libucrt:argv_wildcards.obj
 0001:00049dfe       ?end@?$argument_list@_W@?A0xb0e4b824@@QBEPAPA_WXZ 1004adfe f i libucrt:argv_wildcards.obj
 0001:00049e02       ?expand_if_necessary@?$argument_list@D@?A0xb0e4b824@@AAEHXZ 1004ae02 f i libucrt:argv_wildcards.obj
 0001:00049eaa       ?expand_if_necessary@?$argument_list@_W@?A0xb0e4b824@@AAEHXZ 1004aeaa f i libucrt:argv_wildcards.obj
 0001:00049f52       ?get@?$__crt_unique_handle_t@U__crt_findfile_traits@@@@QBEPAXXZ 1004af52 f i libucrt:argv_wildcards.obj
 0001:00049f55       ?get_invalid_value@__crt_findfile_traits@@SAPAXXZ 1004af55 f i libucrt:argv_wildcards.obj
 0001:00049f76       ?size@?$argument_list@D@?A0xb0e4b824@@QBEIXZ 1004af76 f i libucrt:argv_wildcards.obj
 0001:00049f81       ?size@?$argument_list@_W@?A0xb0e4b824@@QBEIXZ 1004af81 f i libucrt:argv_wildcards.obj
 0001:00049f8c       ?strpbrk@@YAPADQADQBD@Z    1004af8c f i libucrt:argv_wildcards.obj
 0001:00049f99       ?wcspbrk@@YAPA_WPA_WPB_W@Z 1004af99 f i libucrt:argv_wildcards.obj
 0001:00049fa6       ___acrt_expand_narrow_argv_wildcards 1004afa6 f   libucrt:argv_wildcards.obj
 0001:00049fb3       ___acrt_expand_wide_argv_wildcards 1004afb3 f   libucrt:argv_wildcards.obj
 0001:00049fc0       ??$?RV<lambda_978dc153c237d78434369da87b74ff60>@@AAV<lambda_ad1ced32f4ac17aa236e5ef05d6b3b7c>@@V<lambda_4a8533e2866a575feecb8298ce776b0d>@@@?$__crt_seh_guarded_call@X@@QAEX$$QAV<lambda_978dc153c237d78434369da87b74ff60>@@AAV<lambda_ad1ced32f4ac17aa236e5ef05d6b3b7c>@@$$QAV<lambda_4a8533e2866a575feecb8298ce776b0d>@@@Z 1004afc0 f i libucrt:mbctype.obj
 0001:0004a013       ??$__acrt_lock_and_call@V<lambda_ad1ced32f4ac17aa236e5ef05d6b3b7c>@@@@YAXW4__acrt_lock_id@@$$QAV<lambda_ad1ced32f4ac17aa236e5ef05d6b3b7c>@@@Z 1004b013 f i libucrt:mbctype.obj
 0001:0004a624       ___acrt_initialize_multibyte 1004b624 f   libucrt:mbctype.obj
 0001:0004a649       ___acrt_update_thread_multibyte_data 1004b649 f   libucrt:mbctype.obj
 0001:0004a713       ___p__mbcasemap            1004b713 f   libucrt:mbctype.obj
 0001:0004a719       ___p__mbctype              1004b719 f   libucrt:mbctype.obj
 0001:0004a71f       __getmbcp                  1004b71f f   libucrt:mbctype.obj
 0001:0004a762       __setmbcp                  1004b762 f   libucrt:mbctype.obj
 0001:0004a779       __setmbcp_nolock           1004b779 f   libucrt:mbctype.obj
 0001:0004aaf6       __ismbbalnum               1004baf6 f   libucrt:ismbbyte.obj
 0001:0004ab17       __ismbbalnum_l             1004bb17 f   libucrt:ismbbyte.obj
 0001:0004ab3a       __ismbbalpha               1004bb3a f   libucrt:ismbbyte.obj
 0001:0004ab5b       __ismbbalpha_l             1004bb5b f   libucrt:ismbbyte.obj
 0001:0004ab7e       __ismbbblank               1004bb7e f   libucrt:ismbbyte.obj
 0001:0004aba9       __ismbbblank_l             1004bba9 f   libucrt:ismbbyte.obj
 0001:0004abd6       __ismbbgraph               1004bbd6 f   libucrt:ismbbyte.obj
 0001:0004abf7       __ismbbgraph_l             1004bbf7 f   libucrt:ismbbyte.obj
 0001:0004ac1a       __ismbbkalnum              1004bc1a f   libucrt:ismbbyte.obj
 0001:0004ac38       __ismbbkalnum_l            1004bc38 f   libucrt:ismbbyte.obj
 0001:0004ac57       __ismbbkana                1004bc57 f   libucrt:ismbbyte.obj
 0001:0004ac6e       __ismbbkana_l              1004bc6e f   libucrt:ismbbyte.obj
 0001:0004acd3       __ismbbkprint              1004bcd3 f   libucrt:ismbbyte.obj
 0001:0004acf1       __ismbbkprint_l            1004bcf1 f   libucrt:ismbbyte.obj
 0001:0004ad10       __ismbbkpunct              1004bd10 f   libucrt:ismbbyte.obj
 0001:0004ad2e       __ismbbkpunct_l            1004bd2e f   libucrt:ismbbyte.obj
 0001:0004ad4d       __ismbblead                1004bd4d f   libucrt:ismbbyte.obj
 0001:0004ad6b       __ismbblead_l              1004bd6b f   libucrt:ismbbyte.obj
 0001:0004ad8a       __ismbbprint               1004bd8a f   libucrt:ismbbyte.obj
 0001:0004adab       __ismbbprint_l             1004bdab f   libucrt:ismbbyte.obj
 0001:0004adce       __ismbbpunct               1004bdce f   libucrt:ismbbyte.obj
 0001:0004adec       __ismbbpunct_l             1004bdec f   libucrt:ismbbyte.obj
 0001:0004ae0b       __ismbbtrail               1004be0b f   libucrt:ismbbyte.obj
 0001:0004ae29       __ismbbtrail_l             1004be29 f   libucrt:ismbbyte.obj
 0001:0004ae48       ___acrt_initialize_command_line 1004be48 f   libucrt:argv_data.obj
 0001:0004ae67       ___acrt_uninitialize_command_line 1004be67 f   libucrt:argv_data.obj
 0001:0004ae6a       ___p___argc                1004be6a f   libucrt:argv_data.obj
 0001:0004ae70       ___p___argv                1004be70 f   libucrt:argv_data.obj
 0001:0004ae76       ___p___wargv               1004be76 f   libucrt:argv_data.obj
 0001:0004ae7c       ___p__acmdln               1004be7c f   libucrt:argv_data.obj
 0001:0004ae82       ___p__pgmptr               1004be82 f   libucrt:argv_data.obj
 0001:0004ae88       ___p__wcmdln               1004be88 f   libucrt:argv_data.obj
 0001:0004ae8e       ___p__wpgmptr              1004be8e f   libucrt:argv_data.obj
 0001:0004ae94       __get_pgmptr               1004be94 f   libucrt:argv_data.obj
 0001:0004aed1       __get_wpgmptr              1004bed1 f   libucrt:argv_data.obj
 0001:0004af0e       ??0?$__crt_unique_handle_t@Uenvironment_strings_traits@?A0x588e5281@@@@QAE@QA_W@Z 1004bf0e f i libucrt:get_environment_from_os.obj
 0001:0004af22       ??1?$__crt_unique_handle_t@Uenvironment_strings_traits@?A0x588e5281@@@@QAE@XZ 1004bf22 f i libucrt:get_environment_from_os.obj
 0001:0004af3e       ??B?$__crt_unique_handle_t@Uenvironment_strings_traits@?A0x588e5281@@@@QBE_NXZ 1004bf3e f i libucrt:get_environment_from_os.obj
 0001:0004af48       ?close@?$__crt_unique_handle_t@Uenvironment_strings_traits@?A0x588e5281@@@@QAEXXZ 1004bf48 f i libucrt:get_environment_from_os.obj
 0001:0004af64       ?close@environment_strings_traits@?A0x588e5281@@SA_NPA_W@Z 1004bf64 f i libucrt:get_environment_from_os.obj
 0001:0004afbe       ?get@?$__crt_unique_handle_t@Uenvironment_strings_traits@?A0x588e5281@@@@QBEPA_WXZ 1004bfbe f i libucrt:get_environment_from_os.obj
 0001:0004afc1       ?get_invalid_value@environment_strings_traits@?A0x588e5281@@SAPA_WXZ 1004bfc1 f i libucrt:get_environment_from_os.obj
 0001:0004afc4       ?is_valid@?$__crt_unique_handle_t@Uenvironment_strings_traits@?A0x588e5281@@@@QBE_NXZ 1004bfc4 f i libucrt:get_environment_from_os.obj
 0001:0004afce       ___dcrt_get_narrow_environment_from_os 1004bfce f   libucrt:get_environment_from_os.obj
 0001:0004b071       ___dcrt_get_wide_environment_from_os 1004c071 f   libucrt:get_environment_from_os.obj
 0001:0004b909       ??$get_or_create_environment_nolock@$$$V@?$__crt_char_traits@D@@SAPAPADXZ 1004c909 f i libucrt:setenv.obj
 0001:0004b90e       ??$get_or_create_environment_nolock@$$$V@?$__crt_char_traits@_W@@SAPAPA_WXZ 1004c90e f i libucrt:setenv.obj
 0001:0004b913       ??$set_environment_variable@ABQADQAD@?$__crt_char_traits@D@@SAHABQAD$$QBQAD@Z 1004c913 f i libucrt:setenv.obj
 0001:0004b92f       ??$set_environment_variable@ABQA_WQA_W@?$__crt_char_traits@_W@@SAHABQA_W$$QBQA_W@Z 1004c92f f i libucrt:setenv.obj
 0001:0004b94b       ??$tcschr@ABQADD@?$__crt_char_traits@D@@SAPADABQAD$$QAD@Z 1004c94b f i libucrt:setenv.obj
 0001:0004b96b       ??$tcschr@ABQA_WD@?$__crt_char_traits@_W@@SAPA_WABQA_W$$QAD@Z 1004c96b f i libucrt:setenv.obj
 0001:0004b990       ??$tcscpy_s@AAPADABIAAPAD@?$__crt_char_traits@D@@SAHAAPADABI0@Z 1004c990 f i libucrt:setenv.obj
 0001:0004b9b5       ??$tcscpy_s@AAPA_WABIAAPA_W@?$__crt_char_traits@_W@@SAHAAPA_WABI0@Z 1004c9b5 f i libucrt:setenv.obj
 0001:0004b9da       ??$tcscpy_s@ABQADABIABQAD@?$__crt_char_traits@D@@SAHABQADABI0@Z 1004c9da f i libucrt:setenv.obj
 0001:0004b9ff       ??$tcscpy_s@ABQA_WABIABQA_W@?$__crt_char_traits@_W@@SAHABQA_WABI0@Z 1004c9ff f i libucrt:setenv.obj
 0001:0004ba24       ??$tcsnicoll@ABQBDAAPADABI@?$__crt_char_traits@D@@SAHABQBDAAPADABI@Z 1004ca24 f i libucrt:setenv.obj
 0001:0004ba49       ??$tcsnicoll@ABQB_WAAPA_WABI@?$__crt_char_traits@_W@@SAHABQB_WAAPA_WABI@Z 1004ca49 f i libucrt:setenv.obj
 0001:0004ba92       ?strchr@@YAPADQADH@Z       1004ca92 f i libucrt:setenv.obj
 0001:0004ba9f       ?wcschr@@YAPA_WPA_W_W@Z    1004ca9f f i libucrt:setenv.obj
 0001:0004baac       ___dcrt_set_variable_in_narrow_environment_nolock 1004caac f   libucrt:setenv.obj
 0001:0004bab9       ___dcrt_set_variable_in_wide_environment_nolock 1004cab9 f   libucrt:setenv.obj
 0001:0004bac6       __recalloc                 1004cac6 f   libucrt:recalloc.obj
 0001:0004bad3       __recalloc_base            1004cad3 f   libucrt:recalloc.obj
 0001:0004bb5b       ___acrt_getheap            1004cb5b f   libucrt:heap_handle.obj
 0001:0004bb61       ___acrt_initialize_heap    1004cb61 f   libucrt:heap_handle.obj
 0001:0004bb76       ___acrt_uninitialize_heap  1004cb76 f   libucrt:heap_handle.obj
 0001:0004bb82       __get_heap_handle          1004cb82 f   libucrt:heap_handle.obj
 0001:0004bb88       ___acrt_execute_initializers 1004cb88 f   libucrt:shared_initialization.obj
 0001:0004bc2b       ___acrt_execute_uninitializers 1004cc2b f   libucrt:shared_initialization.obj
 0001:0004bc8b       ??$?B$$A6AHI@Z@__crt_fast_encoded_nullptr_t@@QBEP6AHI@ZXZ 1004cc8b f i libucrt:new_handler.obj
 0001:0004bca9       ??$__crt_fast_decode_pointer@P6AHI@Z@@YAP6AHI@ZQ6AHI@Z@Z 1004cca9 f i libucrt:new_handler.obj
 0001:0004bcc4       ??$__crt_fast_encode_pointer@P6AHI@Z@@YAP6AHI@ZQ6AHI@Z@Z 1004ccc4 f i libucrt:new_handler.obj
 0001:0004bcea       ?_set_new_handler@@YAP6AHI@ZH@Z 1004ccea f   libucrt:new_handler.obj
 0001:0004bd10       ?initialize@?$dual_state_global@P6AHI@Z@__crt_state_management@@QAEXQ6AHI@Z@Z 1004cd10 f i libucrt:new_handler.obj
 0001:0004bd4d       ?value@?$dual_state_global@P6AHI@Z@__crt_state_management@@QAEAAP6AHI@ZXZ 1004cd4d f i libucrt:new_handler.obj
 0001:0004bd50       ___acrt_initialize_new_handler 1004cd50 f   libucrt:new_handler.obj
 0001:0004bd69       __callnewh                 1004cd69 f   libucrt:new_handler.obj
 0001:0004bdbe       __query_new_handler        1004cdbe f   libucrt:new_handler.obj
 0001:0004be24       __set_new_handler          1004ce24 f   libucrt:new_handler.obj
 0001:0004be9c       ?value@?$dual_state_global@J@__crt_state_management@@QAEAAJXZ 1004ce9c f i libucrt:new_mode.obj
 0001:0004be9f       __query_new_mode           1004ce9f f   libucrt:new_mode.obj
 0001:0004bea5       __set_new_mode             1004cea5 f   libucrt:new_mode.obj
 0001:0004bedf       ___pctype_func             1004cedf f   libucrt:ctype.obj
 0001:0004bf0e       ___pwctype_func            1004cf0e f   libucrt:ctype.obj
 0001:0004bf14       __iswctype_l               1004cf14 f   libucrt:iswctype.obj
 0001:0004bf2d       _iswctype                  1004cf2d f   libucrt:iswctype.obj
 0001:0004bfa3       __isctype                  1004cfa3 f   libucrt:isctype.obj
 0001:0004bfe0       __isctype_l                1004cfe0 f   libucrt:isctype.obj
 0001:0004c0e6       ___setfflag                1004d0e6 f   libucrt:fp_flags.obj
 0001:0004c100       __87except                 1004d100 f   libucrt:87except.obj
 0001:0004c40e       ___acrt_DownlevelLCIDToLocaleName 1004d40e f   libucrt:lcidtoname_downlevel.obj
 0001:0004c4e2       ___acrt_DownlevelLocaleNameToLCID 1004d4e2 f   libucrt:lcidtoname_downlevel.obj
 0001:0004c519       ??$?RV<lambda_61cee617f5178ae960314fd4d05640a0>@@AAV<lambda_6978c1fb23f02e42e1d9e99668cc68aa>@@V<lambda_9cd88cf8ad10232537feb2133f08c833>@@@?$__crt_seh_guarded_call@H@@QAEH$$QAV<lambda_61cee617f5178ae960314fd4d05640a0>@@AAV<lambda_6978c1fb23f02e42e1d9e99668cc68aa>@@$$QAV<lambda_9cd88cf8ad10232537feb2133f08c833>@@@Z 1004d519 f i libucrt:commit.obj
 0001:0004c5d7       ??$__acrt_lowio_lock_fh_and_call@V<lambda_6978c1fb23f02e42e1d9e99668cc68aa>@@@@YAHH$$QAV<lambda_6978c1fb23f02e42e1d9e99668cc68aa>@@@Z 1004d5d7 f i libucrt:commit.obj
 0001:0004c6c9       __commit                   1004d6c9 f   libucrt:commit.obj
 0001:0004c753       ??$?RU__crt_lowio_handle_data@@@__crt_internal_free_policy@@QBEXQBU__crt_lowio_handle_data@@@Z 1004d753 f i libucrt:osfinfo.obj
 0001:0004c769       ??0?$__crt_unique_heap_ptr@U__crt_lowio_handle_data@@U__crt_internal_free_policy@@@@QAE@QAU__crt_lowio_handle_data@@@Z 1004d769 f i libucrt:osfinfo.obj
 0001:0004c77d       ??1?$__crt_unique_heap_ptr@U__crt_lowio_handle_data@@U__crt_internal_free_policy@@@@QAE@XZ 1004d77d f i libucrt:osfinfo.obj
 0001:0004c793       ??B?$__crt_unique_heap_ptr@U__crt_lowio_handle_data@@U__crt_internal_free_policy@@@@QBE_NXZ 1004d793 f i libucrt:osfinfo.obj
 0001:0004c79d       ?detach@?$__crt_unique_heap_ptr@U__crt_lowio_handle_data@@U__crt_internal_free_policy@@@@QAEPAU__crt_lowio_handle_data@@XZ 1004d79d f i libucrt:osfinfo.obj
 0001:0004c7a3       ?get@?$__crt_unique_heap_ptr@U__crt_lowio_handle_data@@U__crt_internal_free_policy@@@@QBEPAU__crt_lowio_handle_data@@XZ 1004d7a3 f i libucrt:osfinfo.obj
 0001:0004c7a6       ?is_valid@?$__crt_unique_heap_ptr@U__crt_lowio_handle_data@@U__crt_internal_free_policy@@@@QBE_NXZ 1004d7a6 f i libucrt:osfinfo.obj
 0001:0004c7b0       ?release@?$__crt_unique_heap_ptr@U__crt_lowio_handle_data@@U__crt_internal_free_policy@@@@QAEXXZ 1004d7b0 f i libucrt:osfinfo.obj
 0001:0004c7c6       ___acrt_lowio_create_handle_array 1004d7c6 f   libucrt:osfinfo.obj
 0001:0004c85e       ___acrt_lowio_destroy_handle_array 1004d85e f   libucrt:osfinfo.obj
 0001:0004c8a0       ___acrt_lowio_ensure_fh_exists 1004d8a0 f   libucrt:osfinfo.obj
 0001:0004c95e       ___acrt_lowio_lock_fh      1004d95e f   libucrt:osfinfo.obj
 0001:0004c989       ___acrt_lowio_set_os_handle 1004d989 f   libucrt:osfinfo.obj
 0001:0004ca42       ___acrt_lowio_unlock_fh    1004da42 f   libucrt:osfinfo.obj
 0001:0004ca6d       __alloc_osfhnd             1004da6d f   libucrt:osfinfo.obj
 0001:0004cbc3       __free_osfhnd              1004dbc3 f   libucrt:osfinfo.obj
 0001:0004cc78       __get_osfhandle            1004dc78 f   libucrt:osfinfo.obj
 0001:0004ccfc       __open_osfhandle           1004dcfc f   libucrt:osfinfo.obj
 0001:0004ce4d       _wcsncmp                   1004de4d f   libucrt:wcsncmp.obj
 0001:0004ce95       __wcsnicmp                 1004de95 f   libucrt:wcsnicmp.obj
 0001:0004cf7b       __wcsnicmp_l               1004df7b f   libucrt:wcsnicmp.obj
 0001:0004d0c0       _strncmp                   1004e0c0 f   libucrt:strncmp.obj
 0001:0004d156       __strnicmp                 1004e156 f   libucrt:strnicmp.obj
 0001:0004d1dd       __strnicmp_l               1004e1dd f   libucrt:strnicmp.obj
 0001:0004d2c1       ??$__vcrt_va_start_verify_argument_type@$$CBH@@YAXXZ 1004e2c1 f i libucrt:open.obj
 0001:0004d678       ??$tsopen_nolock@PAHABQAHABQBDABHABHABHABH@?$__crt_char_traits@D@@SAH$$QAPAHABQAHABQBDABH333@Z 1004e678 f i libucrt:open.obj
 0001:0004d6b6       ??$tsopen_nolock@PAHABQAHABQB_WABHABHABHABH@?$__crt_char_traits@_W@@SAH$$QAPAHABQAHABQB_WABH333@Z 1004e6b6 f i libucrt:open.obj
 0001:0004d6f4       ??$tsopen_nolock@PAHPAHABQBDABHHABHH@?$__crt_char_traits@D@@SAH$$QAPAH0ABQBDABH$$QAH23@Z 1004e6f4 f i libucrt:open.obj
 0001:0004d732       ??$tsopen_nolock@PAHPAHABQB_WABHHABHH@?$__crt_char_traits@_W@@SAH$$QAPAH0ABQB_WABH$$QAH23@Z 1004e732 f i libucrt:open.obj
 0001:0004df00       __open                     1004ef00 f   libucrt:open.obj
 0001:0004df1e       __sopen                    1004ef1e f   libucrt:open.obj
 0001:0004df60       __sopen_dispatch           1004ef60 f   libucrt:open.obj
 0001:0004df6d       __sopen_nolock             1004ef6d f   libucrt:open.obj
 0001:0004dfd2       __sopen_s                  1004efd2 f   libucrt:open.obj
 0001:0004dffa       __wopen                    1004effa f   libucrt:open.obj
 0001:0004e018       __wsopen                   1004f018 f   libucrt:open.obj
 0001:0004e05a       __wsopen_dispatch          1004f05a f   libucrt:open.obj
 0001:0004e067       __wsopen_nolock            1004f067 f   libucrt:open.obj
 0001:0004e45a       __wsopen_s                 1004f45a f   libucrt:open.obj
 0001:0004e482       ___p__commode              1004f482 f   libucrt:ncommode.obj
 0001:0004e488       __isatty                   1004f488 f   libucrt:isatty.obj
 0001:0004e4f3       ___acrt_stdio_allocate_buffer_nolock 1004f4f3 f   libucrt:_getbuf.obj
 0001:0004e567       ??$?RV<lambda_4980db0136e49a56f91ef52c46ca659a>@@AAV<lambda_6e3e78bb6855d1e4040e022c1b427e22>@@V<lambda_9c074eaf62197b4fd0274ed9e7824161>@@@?$__crt_seh_guarded_call@G@@QAEG$$QAV<lambda_4980db0136e49a56f91ef52c46ca659a>@@AAV<lambda_6e3e78bb6855d1e4040e022c1b427e22>@@$$QAV<lambda_9c074eaf62197b4fd0274ed9e7824161>@@@Z 1004f567 f i libucrt:putwch.obj
 0001:0004e5dc       ??$__acrt_lock_and_call@V<lambda_6e3e78bb6855d1e4040e022c1b427e22>@@@@YAGW4__acrt_lock_id@@$$QAV<lambda_6e3e78bb6855d1e4040e022c1b427e22>@@@Z 1004f5dc f i libucrt:putwch.obj
 0001:0004e674       __putwch                   1004f674 f   libucrt:putwch.obj
 0001:0004e698       __putwch_nolock            1004f698 f   libucrt:putwch.obj
 0001:0004e6ee       ___iswcsym                 1004f6ee f i libucrt:_wctype.obj
 0001:0004e71d       ___iswcsymf                1004f71d f i libucrt:_wctype.obj
 0001:0004e74c       __isleadbyte_l             1004f74c f i libucrt:_wctype.obj
 0001:0004e793       __iswalnum_l               1004f793 f i libucrt:_wctype.obj
 0001:0004e7ae       __iswalpha_l               1004f7ae f i libucrt:_wctype.obj
 0001:0004e7c9       __iswblank_l               1004f7c9 f i libucrt:_wctype.obj
 0001:0004e7ed       __iswcntrl_l               1004f7ed f i libucrt:_wctype.obj
 0001:0004e804       __iswcsym_l                1004f804 f i libucrt:_wctype.obj
 0001:0004e833       __iswcsymf_l               1004f833 f i libucrt:_wctype.obj
 0001:0004e862       __iswdigit_l               1004f862 f i libucrt:_wctype.obj
 0001:0004e879       __iswgraph_l               1004f879 f i libucrt:_wctype.obj
 0001:0004e894       __iswlower_l               1004f894 f i libucrt:_wctype.obj
 0001:0004e8ab       __iswprint_l               1004f8ab f i libucrt:_wctype.obj
 0001:0004e8c6       __iswpunct_l               1004f8c6 f i libucrt:_wctype.obj
 0001:0004e8dd       __iswspace_l               1004f8dd f i libucrt:_wctype.obj
 0001:0004e8f4       __iswupper_l               1004f8f4 f i libucrt:_wctype.obj
 0001:0004e90b       __iswxdigit_l              1004f90b f i libucrt:_wctype.obj
 0001:0004e926       _isleadbyte                1004f926 f i libucrt:_wctype.obj
 0001:0004e93d       _iswalnum                  1004f93d f i libucrt:_wctype.obj
 0001:0004e958       _iswalpha                  1004f958 f i libucrt:_wctype.obj
 0001:0004e973       _iswascii                  1004f973 f i libucrt:_wctype.obj
 0001:0004e98c       _iswblank                  1004f98c f i libucrt:_wctype.obj
 0001:0004e9b0       _iswcntrl                  1004f9b0 f i libucrt:_wctype.obj
 0001:0004e9c7       _iswdigit                  1004f9c7 f i libucrt:_wctype.obj
 0001:0004e9de       _iswgraph                  1004f9de f i libucrt:_wctype.obj
 0001:0004e9f9       _iswlower                  1004f9f9 f i libucrt:_wctype.obj
 0001:0004ea10       _iswprint                  1004fa10 f i libucrt:_wctype.obj
 0001:0004ea2b       _iswpunct                  1004fa2b f i libucrt:_wctype.obj
 0001:0004ea42       _iswspace                  1004fa42 f i libucrt:_wctype.obj
 0001:0004ea59       _iswupper                  1004fa59 f i libucrt:_wctype.obj
 0001:0004ea70       _iswxdigit                 1004fa70 f i libucrt:_wctype.obj
 0001:0004ea8b       ??0?$__crt_scoped_stack_ptr@_W@@QAE@U?$__crt_scoped_stack_ptr_tag@_W@@@Z 1004fa8b f i libucrt:lcmapstringa.obj
 0001:0004ea9f       ??0?$__crt_scoped_stack_ptr_tag@_W@@QAE@QA_W@Z 1004fa9f f i libucrt:lcmapstringa.obj
 0001:0004eab3       ??1?$__crt_scoped_stack_ptr@_W@@QAE@XZ 1004fab3 f i libucrt:lcmapstringa.obj
 0001:0004eabe       ??B?$__crt_scoped_stack_ptr@_W@@QBE_NXZ 1004fabe f i libucrt:lcmapstringa.obj
 0001:0004ed6c       ?get@?$__crt_scoped_stack_ptr@_W@@QBEPA_WXZ 1004fd6c f i libucrt:lcmapstringa.obj
 0001:0004ed6f       __MallocaComputeSize       1004fd6f f i libucrt:lcmapstringa.obj
 0001:0004ed86       __MarkAllocaS              1004fd86 f i libucrt:lcmapstringa.obj
 0001:0004eda1       ___acrt_LCMapStringA       1004fda1 f   libucrt:lcmapstringa.obj
 0001:0004edfe       __freea_crt                1004fdfe f i libucrt:lcmapstringa.obj
 0001:0004ee26       ??$?RG@__crt_internal_free_policy@@QBEXQBG@Z 1004fe26 f i libucrt:initctype.obj
 0001:0004ee3c       ??$?RJ@__crt_internal_free_policy@@QBEXQBJ@Z 1004fe3c f i libucrt:initctype.obj
 0001:0004ee52       ??0?$__crt_unique_heap_ptr@GU__crt_internal_free_policy@@@@QAE@QAG@Z 1004fe52 f i libucrt:initctype.obj
 0001:0004ee66       ??0?$__crt_unique_heap_ptr@JU__crt_internal_free_policy@@@@QAE@QAJ@Z 1004fe66 f i libucrt:initctype.obj
 0001:0004ee7a       ??1?$__crt_unique_heap_ptr@GU__crt_internal_free_policy@@@@QAE@XZ 1004fe7a f i libucrt:initctype.obj
 0001:0004ee90       ??1?$__crt_unique_heap_ptr@JU__crt_internal_free_policy@@@@QAE@XZ 1004fe90 f i libucrt:initctype.obj
 0001:0004eea6       ?detach@?$__crt_unique_heap_ptr@GU__crt_internal_free_policy@@@@QAEPAGXZ 1004fea6 f i libucrt:initctype.obj
 0001:0004eeac       ?detach@?$__crt_unique_heap_ptr@JU__crt_internal_free_policy@@@@QAEPAJXZ 1004feac f i libucrt:initctype.obj
 0001:0004eeb2       ?release@?$__crt_unique_heap_ptr@GU__crt_internal_free_policy@@@@QAEXXZ 1004feb2 f i libucrt:initctype.obj
 0001:0004eec8       ?release@?$__crt_unique_heap_ptr@JU__crt_internal_free_policy@@@@QAEXXZ 1004fec8 f i libucrt:initctype.obj
 0001:0004eede       ____lc_codepage_func       1004fede f   libucrt:initctype.obj
 0001:0004ef0e       ____lc_collate_cp_func     1004ff0e f   libucrt:initctype.obj
 0001:0004ef3e       ____lc_locale_name_func    1004ff3e f   libucrt:initctype.obj
 0001:0004ef71       ____mb_cur_max_func        1004ff71 f   libucrt:initctype.obj
 0001:0004efa1       ____mb_cur_max_l_func      1004ffa1 f   libucrt:initctype.obj
 0001:0004efc0       ___acrt_locale_initialize_ctype 1004ffc0 f   libucrt:initctype.obj
 0001:0004f445       ___acrt_add_locale_ref     10050445 f   libucrt:locale_refcounting.obj
 0001:0004f4e1       ___acrt_free_locale        100504e1 f   libucrt:locale_refcounting.obj
 0001:0004f67d       ___acrt_locale_add_lc_time_reference 1005067d f   libucrt:locale_refcounting.obj
 0001:0004f6b0       ___acrt_locale_free_lc_time_if_unreferenced 100506b0 f   libucrt:locale_refcounting.obj
 0001:0004f6ec       ___acrt_locale_release_lc_time_reference 100506ec f   libucrt:locale_refcounting.obj
 0001:0004f71f       ___acrt_release_locale_ref 1005071f f   libucrt:locale_refcounting.obj
 0001:0004f7c0       ___acrt_update_thread_locale_data 100507c0 f   libucrt:locale_refcounting.obj
 0001:0004f854       __updatetlocinfoEx_nolock  10050854 f   libucrt:locale_refcounting.obj
 0001:0004f8b8       ___acrt_fp_strflt_to_string 100508b8 f   libucrt:_fptostr.obj
 0001:000510f0       ??0big_integer@__crt_strtox@@QAE@ABU01@@Z 100520f0 f i libucrt:cfout.obj
 0001:00051130       ??0big_integer@__crt_strtox@@QAE@XZ 10052130 f i libucrt:cfout.obj
 0001:0005113b       ??0scoped_fp_state_reset@?A0x48fbfdd4@@QAE@XZ 1005213b f i libucrt:cfout.obj
 0001:0005116f       ??1scoped_fp_state_reset@?A0x48fbfdd4@@QAE@XZ 1005216f f i libucrt:cfout.obj
 0001:00051180       ??4big_integer@__crt_strtox@@QAEAAU01@ABU01@@Z 10052180 f i libucrt:cfout.obj
 0001:000511c0       ??8__crt_strtox@@YA_NABUbig_integer@0@0@Z 100521c0 f i libucrt:cfout.obj
 0001:00051210       ??9__crt_strtox@@YA_NABUbig_integer@0@0@Z 10052210 f i libucrt:cfout.obj
 0001:00051270       ?add_carry@__crt_strtox@@YAIAAIII@Z 10052270 f i libucrt:cfout.obj
 0001:000512a0       ?add_multiply_carry@__crt_strtox@@YAIAAIIII@Z 100522a0 f i libucrt:cfout.obj
 0001:000512d0       ?bit_scan_reverse@__crt_strtox@@YAII@Z 100522d0 f i libucrt:cfout.obj
 0001:00051300       ?count_sequential_high_zeroes@__crt_strtox@@YAII@Z 10052300 f i libucrt:cfout.obj
 0001:00051330       ?divide@__crt_strtox@@YA_KAAUbig_integer@1@ABU21@@Z 10052330 f i libucrt:cfout.obj
 0001:00051910       ?is_zero@__crt_strtox@@YA_NABUbig_integer@1@@Z 10052910 f i libucrt:cfout.obj
 0001:00051930       ?make_big_integer@__crt_strtox@@YA?AUbig_integer@1@_K@Z 10052930 f i libucrt:cfout.obj
 0001:00051960       ?make_big_integer_power_of_two@__crt_strtox@@YA?AUbig_integer@1@I@Z 10052960 f i libucrt:cfout.obj
 0001:000519c0       ?multiply@__crt_strtox@@YA_NAAUbig_integer@1@ABU21@@Z 100529c0 f i libucrt:cfout.obj
 0001:00051e70       ?multiply@__crt_strtox@@YA_NAAUbig_integer@1@I@Z 10052e70 f i libucrt:cfout.obj
 0001:00051f70       ?multiply_64_32@__crt_strtox@@YA_K_KI@Z 10052f70 f i libucrt:cfout.obj
 0001:00051f90       ?multiply_by_power_of_ten@__crt_strtox@@YA_NAAUbig_integer@1@I@Z 10052f90 f i libucrt:cfout.obj
 0001:00052690       ?multiply_core@__crt_strtox@@YAIQAIII@Z 10053690 f i libucrt:cfout.obj
 0001:000526e0       ?shift_left@__crt_strtox@@YA_NAAUbig_integer@1@I@Z 100536e0 f i libucrt:cfout.obj
 0001:00052882       ___acrt_fltout             10053882 f   libucrt:cfout.obj
 0001:000541a6       ??$?RUlconv@@@__crt_internal_free_policy@@QBEXQBUlconv@@@Z 100551a6 f i libucrt:initmon.obj
 0001:000541bc       ??0?$__crt_unique_heap_ptr@Ulconv@@U__crt_internal_free_policy@@@@QAE@QAUlconv@@@Z 100551bc f i libucrt:initmon.obj
 0001:000541d0       ??1?$__crt_unique_heap_ptr@Ulconv@@U__crt_internal_free_policy@@@@QAE@XZ 100551d0 f i libucrt:initmon.obj
 0001:000541e6       ?detach@?$__crt_unique_heap_ptr@Ulconv@@U__crt_internal_free_policy@@@@QAEPAUlconv@@XZ 100551e6 f i libucrt:initmon.obj
 0001:000541ec       ?release@?$__crt_unique_heap_ptr@Ulconv@@U__crt_internal_free_policy@@@@QAEXXZ 100551ec f i libucrt:initmon.obj
 0001:00054202       ___acrt_locale_free_monetary 10055202 f   libucrt:initmon.obj
 0001:0005433f       ___acrt_locale_initialize_monetary 1005533f f   libucrt:initmon.obj
 0001:00054832       ___acrt_locale_free_numeric 10055832 f   libucrt:initnum.obj
 0001:000548b5       ___acrt_locale_initialize_numeric 100558b5 f   libucrt:initnum.obj
 0001:00054ba0       ??$?RU__crt_lc_time_data@@@__crt_internal_free_policy@@QBEXQBU__crt_lc_time_data@@@Z 10055ba0 f i libucrt:inittime.obj
 0001:00054c40       ??0?$__crt_unique_heap_ptr@U__crt_lc_time_data@@U__crt_internal_free_policy@@@@QAE@QAU__crt_lc_time_data@@@Z 10055c40 f i libucrt:inittime.obj
 0001:00054c54       ??1?$__crt_unique_heap_ptr@U__crt_lc_time_data@@U__crt_internal_free_policy@@@@QAE@XZ 10055c54 f i libucrt:inittime.obj
 0001:00054c6a       ??B?$__crt_unique_heap_ptr@U__crt_lc_time_data@@U__crt_internal_free_policy@@@@QBE_NXZ 10055c6a f i libucrt:inittime.obj
 0001:00054c74       ?detach@?$__crt_unique_heap_ptr@U__crt_lc_time_data@@U__crt_internal_free_policy@@@@QAEPAU__crt_lc_time_data@@XZ 10055c74 f i libucrt:inittime.obj
 0001:00054cc5       ?get@?$__crt_unique_heap_ptr@U__crt_lc_time_data@@U__crt_internal_free_policy@@@@QBEPAU__crt_lc_time_data@@XZ 10055cc5 f i libucrt:inittime.obj
 0001:0005505d       ?is_valid@?$__crt_unique_heap_ptr@U__crt_lc_time_data@@U__crt_internal_free_policy@@@@QBE_NXZ 1005605d f i libucrt:inittime.obj
 0001:00055067       ?release@?$__crt_unique_heap_ptr@U__crt_lc_time_data@@U__crt_internal_free_policy@@@@QAEXXZ 10056067 f i libucrt:inittime.obj
 0001:0005507d       ___acrt_locale_free_time   1005607d f   libucrt:inittime.obj
 0001:0005519a       ___acrt_locale_initialize_time 1005619a f   libucrt:inittime.obj
 0001:00055338       _wcsncpy_s                 10056338 f   libucrt:wcsncpy_s.obj
 0001:00055345       _wcscspn                   10056345 f   libucrt:wcscspn.obj
 0001:000553a9       _wcspbrk                   100563a9 f   libucrt:wcspbrk.obj
 0001:000553ff       ___acrt_GetStringTypeA     100563ff f   libucrt:getstringtypea.obj
 0001:00055e73       ___acrt_get_qualified_locale 10056e73 f   libucrt:get_qualified_locale.obj
 0001:00056a1a       ___acrt_get_qualified_locale_downlevel 10057a1a f   libucrt:getqloc_downlevel.obj
 0001:00056ca2       _localeconv                10057ca2 f   libucrt:localeconv.obj
 0001:00056cd6       _nextafter                 10057cd6 f   libucrt:nextafter.obj
 0001:00056cfc       ??1scoped_global_state_reset@__crt_state_management@@QAE@XZ 10057cfc f i libucrt:qsort.obj
 0001:00056e10       _qsort                     10057e10 f   libucrt:qsort.obj
 0001:0005736d       _strncpy_s                 1005836d f   libucrt:strncpy_s.obj
 0001:00057380       _strpbrk                   10058380 f   libucrt:strpbrk.obj
 0001:000573d0       __mbsdec                   100583d0 f   libucrt:mbsdec.obj
 0001:000573ec       __mbsdec_l                 100583ec f   libucrt:mbsdec.obj
 0001:000574ae       __wcsnicoll                100584ae f   libucrt:wcsnicol.obj
 0001:000575b2       __wcsnicoll_l              100585b2 f   libucrt:wcsnicol.obj
 0001:0005772a       __strnicoll                1005872a f   libucrt:strnicol.obj
 0001:0005775d       __strnicoll_l              1005875d f   libucrt:strnicol.obj
 0001:00057898       __msize                    10058898 f   libucrt:msize.obj
 0001:000578d7       __towlower_l               100588d7 f   libucrt:towlower.obj
 0001:000579d2       _towlower                  100589d2 f   libucrt:towlower.obj
 0001:000579f0       ___ascii_strnicmp          100589f0 f   libucrt:_strnicm.obj
 0001:00057a69       ??$__crt_interlocked_read@H@@YAHPDH@Z 10058a69 f i libucrt:setmode.obj
 0001:00057a78       __get_fmode                10058a78 f   libucrt:setmode.obj
 0001:00057aaf       __set_fmode                10058aaf f   libucrt:setmode.obj
 0001:00057afb       __setmode                  10058afb f   libucrt:setmode.obj
 0001:00057c4c       __setmode_nolock           10058c4c f   libucrt:setmode.obj
 0001:00057d51       ??$?RV<lambda_4cfda81533ccf5a03113a1ca40a30445>@@AAV<lambda_1cffa78e445b1da5fba1a2e0e533226f>@@V<lambda_68c952aa1b860373b2109ef12d0bba9d>@@@?$__crt_seh_guarded_call@H@@QAEH$$QAV<lambda_4cfda81533ccf5a03113a1ca40a30445>@@AAV<lambda_1cffa78e445b1da5fba1a2e0e533226f>@@$$QAV<lambda_68c952aa1b860373b2109ef12d0bba9d>@@@Z 10058d51 f i libucrt:chsize.obj
 0001:00057dfb       ??$__acrt_lowio_lock_fh_and_call@V<lambda_1cffa78e445b1da5fba1a2e0e533226f>@@@@YAHH$$QAV<lambda_1cffa78e445b1da5fba1a2e0e533226f>@@@Z 10058dfb f i libucrt:chsize.obj
 0001:00057edd       __chsize                   10058edd f   libucrt:chsize.obj
 0001:00057f00       __chsize_nolock            10058f00 f   libucrt:chsize.obj
 0001:000580f5       __chsize_s                 100590f5 f   libucrt:chsize.obj
 0001:000581b6       __umask                    100591b6 f   libucrt:umask.obj
 0001:000581e4       __umask_s                  100591e4 f   libucrt:umask.obj
 0001:0005822d       ___dcrt_lowio_initialize_console_output 1005922d f   libucrt:initcon.obj
 0001:00058253       ___dcrt_terminate_console_output 10059253 f   libucrt:initcon.obj
 0001:0005826f       ___strncnt                 1005926f f   libucrt:strncnt.obj
 0001:000583cb       ___acrt_GetLocaleInfoA     100593cb f   libucrt:getlocaleinfoa.obj
 0001:000585e9       _fegetenv                  100595e9 f   libucrt:fegetenv.obj
 0001:0005860d       _fesetenv                  1005960d f   libucrt:fesetenv.obj
 0001:00058668       _feholdexcept              10059668 f   libucrt:feholdexcept.obj
 0001:000586d0       _log10                     100596d0 f   libucrt:log10.obj
 0001:00058710       __CIlog10                  10059710 f   libucrt:log10.obj
 0001:0005874b       __CIlog10_default          1005974b f   libucrt:log10.obj
 0001:0005875f       __log10_default            1005975f     libucrt:log10.obj
 0001:00058880       _ceil                      10059880 f   libucrt:ceil_pentium4.obj
 0001:000588c0       __ceil_pentium4            100598c0 f   libucrt:ceil_pentium4.obj
 0001:000589e4       __wcsicmp                  100599e4 f   libucrt:wcsicmp.obj
 0001:00058a9e       __wcsicmp_l                10059a9e f   libucrt:wcsicmp.obj
 0001:00058bb6       _nexttoward                10059bb6 f   libucrt:nexttoward.obj
 0001:00058d67       ___acrt_CompareStringW     10059d67 f   libucrt:comparestringw.obj
 0001:0005913b       ___acrt_CompareStringA     1005a13b f   libucrt:comparestringa.obj
 0001:00059195       ___acrt_LCMapStringW       1005a195 f   libucrt:lcmapstringw.obj
 0001:000591e2       ___p__fmode                1005a1e2 f   libucrt:txtmode.obj
 0001:000591e8       ___acrt_fenv_get_fp_status_word_from_exception_mask 1005a1e8 f   libucrt:_fenvutils.obj
 0001:0005962b       __getfpcontrolword         1005a62b f   libucrt:_fenvutils.obj
 0001:0005967e       __getfpstatusword          1005a67e f   libucrt:_fenvutils.obj
 0001:00059750       __setfpcontrolword         1005a750 f   libucrt:_fenvutils.obj
 0001:000597f0       __setfpstatusword          1005a7f0 f   libucrt:_fenvutils.obj
 0001:00059a26       ___control87_2             1005aa26 f   libucrt:ieee87.obj
 0001:00059ffa       ___fpreset_sse2            1005affa f   libucrt:ieee87.obj
 0001:0005a24d       __clearfp                  1005b24d f   libucrt:ieee87.obj
 0001:0005a362       __control87                1005b362 f   libucrt:ieee87.obj
 0001:0005a724       __controlfp                1005b724 f   libucrt:ieee87.obj
 0001:0005a744       __fpreset                  1005b744 f   libucrt:ieee87.obj
 0001:0005a841       __set_controlfp            1005b841 f   libucrt:ieee87.obj
 0001:0005a8d7       __statusfp                 1005b8d7 f   libucrt:ieee87.obj
 0001:0005a99a       __statusfp2                1005b99a f   libucrt:ieee87.obj
 0001:0005aa17       ___acrt_initialize_sse2    1005ba17 f   libucrt:mathfcns.obj
 0001:0005aa29       __set_SSE2_enable          1005ba29 f   libucrt:mathfcns.obj
 0001:0005aa60       __CIlog10_pentium4         1005ba60 f   libucrt:log10_pentium4.obj
 0001:0005aa78       __log10_pentium4           1005ba78     libucrt:log10_pentium4.obj
 0001:0005adb1       __fFEXP                    1005bdb1     libucrt:87tran.obj
 0001:0005ae08       __rtinfpopse               1005be08     libucrt:87tran.obj
 0001:0005ae0a       __rtinfnpopse              1005be0a     libucrt:87tran.obj
 0001:0005ae1a       __fFLN                     1005be1a     libucrt:87tran.obj
 0001:0005aecf       __rtinfpop                 1005becf     libucrt:87tran.obj
 0001:0005aed1       __rtinfnpop                1005bed1     libucrt:87tran.obj
 0001:0005aeee       __ffexpm1                  1005beee     libucrt:87tran.obj
 0001:0005b020       __twoToTOS                 1005c020 f   libucrt:common.obj
 0001:0005b035       __load_CW                  1005c035 f   libucrt:common.obj
 0001:0005b04c       __convertTOStoQNaN         1005c04c f   libucrt:common.obj
 0001:0005b065       __fload_withFB             1005c065 f   libucrt:common.obj
 0001:0005b0a8       __checkTOS_withFB          1005c0a8 f   libucrt:common.obj
 0001:0005b0be       __fast_exit                1005c0be f   libucrt:common.obj
 0001:0005b0cb       __math_exit                1005c0cb f   libucrt:common.obj
 0001:0005b0f5       __check_overflow_exit      1005c0f5 f   libucrt:common.obj
 0001:0005b109       __check_range_exit         1005c109 f   libucrt:common.obj
 0001:0005b210       __startTwoArgErrorHandling 1005c210 f   libucrt:genexcep.obj
 0001:0005b227       __startOneArgErrorHandling 1005c227 f   libucrt:genexcep.obj
 0001:0005b277       ___libm_error_support      1005c277 f   libucrt:libm_error.obj
 0001:0005b515       ___libm_setusermatherr     1005c515 f   libucrt:libm_error.obj
 0001:0005b54e       __ceil_default             1005c54e f   libucrt:ceil.obj
 0001:0005b635       __d_int                    1005c635 f   libucrt:_test.obj
 0001:0005b77d       __dtest                    1005c77d f   libucrt:_test.obj
 0001:0005b7fa       __fd_int                   1005c7fa f   libucrt:_test.obj
 0001:0005b8fc       __fdtest                   1005c8fc f   libucrt:_test.obj
 0001:0005b95d       __fperrraise               1005c95d f   libucrt:_test.obj
 0001:0005b988       __ld_int                   1005c988 f   libucrt:_test.obj
 0001:0005b995       __ldtest                   1005c995 f   libucrt:_test.obj
 0001:0005ba3a       __controlfp_s              1005ca3a f   libucrt:contrlfp.obj
 0001:0005bab0       __d_inttype                1005cab0 f   libucrt:powhlp.obj
 0001:0005bb34       __powhlp                   1005cb34 f   libucrt:powhlp.obj
 0001:0005bca9       __frnd                     1005cca9 f   libucrt:frnd.obj
 0001:0005bcc4       _fegetexceptflag           1005ccc4 f   libucrt:fegetexceptflag.obj
 0001:0005bd01       _fesetexceptflag           1005cd01 f   libucrt:fesetexceptflag.obj
 0001:0005bd62       _fetestexcept              1005cd62 f   libucrt:fetestexcept.obj
 0001:0005bd90       __FindPESection            1005cd90 f   LIBCMT:pesect.obj
 0001:0005bdf0       __IsNonwritableInCurrentImage 1005cdf0 f   LIBCMT:pesect.obj
 0001:0005bee0       __ValidateImageBase        1005cee0 f   LIBCMT:pesect.obj
 0001:0005bf20       __aulldvrm                 1005cf20 f   LIBCMT:ulldvrm.obj
 0001:0005bfda       ??1type_info@@UAE@XZ       1005cfda f   LIBCMT:std_type_info_static.obj
 0001:0005bfe1       ??_Etype_info@@UAEPAXI@Z   1005cfe1 f i LIBCMT:std_type_info_static.obj
 0001:0005bfe1       ??_Gtype_info@@UAEPAXI@Z   1005cfe1 f i LIBCMT:std_type_info_static.obj
 0001:0005c010       __SEH_prolog4_GS           1005d010 f   LIBCMT:_sehprolg4gs_.obj
 0001:0005c059       __SEH_epilog4_GS           1005d059 f   LIBCMT:_sehprolg4gs_.obj
 0001:0005c080       __allmul                   1005d080 f   LIBCMT:llmul.obj
 0001:0005c0d0       __chkstk                   1005d0d0 f   LIBCMT:chkstk.obj
 0001:0005c0d0       __alloca_probe             1005d0d0 f   LIBCMT:chkstk.obj
 0001:0005c110       __alldvrm                  1005d110 f   LIBCMT:lldvrm.obj
 0001:0005c230       __aullshr                  1005d230 f   LIBCMT:ullshr.obj
 0001:0005c260       __alloca_probe_16          1005d260 f   LIBCMT:alloca16.obj
 0001:0005c276       __alloca_probe_8           1005d276     LIBCMT:alloca16.obj
 0001:0005c2a0       __allshl                   1005d2a0 f   LIBCMT:llshl.obj
 0001:0005c2d0       __ftol2_sse                1005d2d0 f   LIBCMT:_ftol2_.obj
 0001:0005c2d9       __ftol2_pentium4           1005d2d9 f   LIBCMT:_ftol2_.obj
 0001:0005c2ec       __ftol2_sse_excpt          1005d2ec f   LIBCMT:_ftol2_.obj
 0001:0005c310       __ftol2                    1005d310 f   LIBCMT:_ftol2_.obj
 0001:0005c3b2       __initialize_default_precision 1005d3b2 f   LIBCMT:default_precision.obj
 0001:0005c3db       ??3@YAXPAXI@Z              1005d3db f   LIBCMT:delete_scalar_size.obj
 0001:0005c3ec       ??3@YAXPAX@Z               1005d3ec f   LIBCMT:delete_scalar.obj
 0001:0005c3f2       _InterlockedPushEntrySList@8 1005d3f2 f   kernel32:KERNEL32.dll
 0001:0005c3f8       _InterlockedFlushSList@4   1005d3f8 f   kernel32:KERNEL32.dll
 0001:0005c3fe       _RtlUnwind@16              1005d3fe f   kernel32:KERNEL32.dll
 0001:0005c404       _GetLastError@0            1005d404 f   kernel32:KERNEL32.dll
 0001:0005c40a       _SetLastError@4            1005d40a f   kernel32:KERNEL32.dll
 0001:0005c410       _EnterCriticalSection@4    1005d410 f   kernel32:KERNEL32.dll
 0001:0005c416       _LeaveCriticalSection@4    1005d416 f   kernel32:KERNEL32.dll
 0001:0005c41c       _DeleteCriticalSection@4   1005d41c f   kernel32:KERNEL32.dll
 0001:0005c422       _InitializeCriticalSectionAndSpinCount@8 1005d422 f   kernel32:KERNEL32.dll
 0001:0005c428       _TlsAlloc@0                1005d428 f   kernel32:KERNEL32.dll
 0001:0005c42e       _TlsGetValue@4             1005d42e f   kernel32:KERNEL32.dll
 0001:0005c434       _TlsSetValue@8             1005d434 f   kernel32:KERNEL32.dll
 0001:0005c43a       _TlsFree@4                 1005d43a f   kernel32:KERNEL32.dll
 0001:0005c440       _FreeLibrary@4             1005d440 f   kernel32:KERNEL32.dll
 0001:0005c446       _LoadLibraryExW@12         1005d446 f   kernel32:KERNEL32.dll
 0001:0005c44c       _ExitProcess@4             1005d44c f   kernel32:KERNEL32.dll
 0001:0005c452       _GetModuleHandleExW@12     1005d452 f   kernel32:KERNEL32.dll
 0001:0005c458       _GetStdHandle@4            1005d458 f   kernel32:KERNEL32.dll
 0001:0005c45e       _GetFileType@4             1005d45e f   kernel32:KERNEL32.dll
 0001:0005c464       _GetModuleFileNameA@12     1005d464 f   kernel32:KERNEL32.dll
 0001:0005c46a       _GetModuleFileNameW@12     1005d46a f   kernel32:KERNEL32.dll
 0001:0005c470       _WriteConsoleW@20          1005d470 f   kernel32:KERNEL32.dll
 0001:0005c476       _RaiseException@16         1005d476 f   kernel32:KERNEL32.dll
 0001:0005c47c       _MultiByteToWideChar@24    1005d47c f   kernel32:KERNEL32.dll
 0001:0005c482       _WideCharToMultiByte@32    1005d482 f   kernel32:KERNEL32.dll
 0001:0005c488       _HeapFree@12               1005d488 f   kernel32:KERNEL32.dll
 0001:0005c48e       _HeapAlloc@12              1005d48e f   kernel32:KERNEL32.dll
 0001:0005c494       _HeapReAlloc@16            1005d494 f   kernel32:KERNEL32.dll
 0001:0005c49a       _GetDateFormatW@24         1005d49a f   kernel32:KERNEL32.dll
 0001:0005c4a0       _GetTimeFormatW@24         1005d4a0 f   kernel32:KERNEL32.dll
 0001:0005c4a6       _CompareStringW@24         1005d4a6 f   kernel32:KERNEL32.dll
 0001:0005c4ac       _LCMapStringW@24           1005d4ac f   kernel32:KERNEL32.dll
 0001:0005c4b2       _GetLocaleInfoW@16         1005d4b2 f   kernel32:KERNEL32.dll
 0001:0005c4b8       _IsValidLocale@8           1005d4b8 f   kernel32:KERNEL32.dll
 0001:0005c4be       _GetUserDefaultLCID@0      1005d4be f   kernel32:KERNEL32.dll
 0001:0005c4c4       _EnumSystemLocalesW@8      1005d4c4 f   kernel32:KERNEL32.dll
 0001:0005c4ca       _CloseHandle@4             1005d4ca f   kernel32:KERNEL32.dll
 0001:0005c4d0       _ReadFile@20               1005d4d0 f   kernel32:KERNEL32.dll
 0001:0005c4d6       _GetConsoleMode@8          1005d4d6 f   kernel32:KERNEL32.dll
 0001:0005c4dc       _ReadConsoleW@20           1005d4dc f   kernel32:KERNEL32.dll
 0001:0005c4e2       _WriteFile@20              1005d4e2 f   kernel32:KERNEL32.dll
 0001:0005c4e8       _GetConsoleCP@0            1005d4e8 f   kernel32:KERNEL32.dll
 0001:0005c4ee       _DeleteFileW@4             1005d4ee f   kernel32:KERNEL32.dll
 0001:0005c4f4       _SetFilePointerEx@20       1005d4f4 f   kernel32:KERNEL32.dll
 0001:0005c4fa       _GetCurrentThread@0        1005d4fa f   kernel32:KERNEL32.dll
 0001:0005c500       _GetACP@0                  1005d500 f   kernel32:KERNEL32.dll
 0001:0005c506       _OutputDebugStringA@4      1005d506 f   kernel32:KERNEL32.dll
 0001:0005c50c       _OutputDebugStringW@4      1005d50c f   kernel32:KERNEL32.dll
 0001:0005c512       _WaitForSingleObjectEx@12  1005d512 f   kernel32:KERNEL32.dll
 0001:0005c518       _CreateThread@24           1005d518 f   kernel32:KERNEL32.dll
 0001:0005c51e       _SetConsoleCtrlHandler@8   1005d51e f   kernel32:KERNEL32.dll
 0001:0005c524       _FindClose@4               1005d524 f   kernel32:KERNEL32.dll
 0001:0005c52a       _FindFirstFileExA@24       1005d52a f   kernel32:KERNEL32.dll
 0001:0005c530       _FindFirstFileExW@24       1005d530 f   kernel32:KERNEL32.dll
 0001:0005c536       _FindNextFileA@8           1005d536 f   kernel32:KERNEL32.dll
 0001:0005c53c       _FindNextFileW@8           1005d53c f   kernel32:KERNEL32.dll
 0001:0005c542       _IsValidCodePage@4         1005d542 f   kernel32:KERNEL32.dll
 0001:0005c548       _GetOEMCP@0                1005d548 f   kernel32:KERNEL32.dll
 0001:0005c54e       _GetCPInfo@8               1005d54e f   kernel32:KERNEL32.dll
 0001:0005c554       _GetCommandLineA@0         1005d554 f   kernel32:KERNEL32.dll
 0001:0005c55a       _GetCommandLineW@0         1005d55a f   kernel32:KERNEL32.dll
 0001:0005c560       _GetEnvironmentStringsW@0  1005d560 f   kernel32:KERNEL32.dll
 0001:0005c566       _FreeEnvironmentStringsW@4 1005d566 f   kernel32:KERNEL32.dll
 0001:0005c56c       _SetEnvironmentVariableA@8 1005d56c f   kernel32:KERNEL32.dll
 0001:0005c572       _SetEnvironmentVariableW@8 1005d572 f   kernel32:KERNEL32.dll
 0001:0005c578       _GetProcessHeap@0          1005d578 f   kernel32:KERNEL32.dll
 0001:0005c57e       _GetStringTypeW@16         1005d57e f   kernel32:KERNEL32.dll
 0001:0005c584       _FlushFileBuffers@4        1005d584 f   kernel32:KERNEL32.dll
 0001:0005c58a       _SetStdHandle@8            1005d58a f   kernel32:KERNEL32.dll
 0001:0005c590       _CreateFileW@28            1005d590 f   kernel32:KERNEL32.dll
 0001:0005c596       _HeapSize@12               1005d596 f   kernel32:KERNEL32.dll
 0001:0005c59c       _SetEndOfFile@4            1005d59c f   kernel32:KERNEL32.dll
 0001:0005c5a2       _EncodePointer@4           1005d5a2 f   kernel32:KERNEL32.dll
 0001:0005c5a8       _DecodePointer@4           1005d5a8 f   kernel32:KERNEL32.dll
 0001:0005c5b0       _strrchr                   1005d5b0 f   libvcruntime:strrchr.obj
 0001:0005c897       _memcmp                    1005d897 f   libvcruntime:_memcmp_.obj
 0001:0006037f       _wcschr                    1006137f f   libvcruntime:wcschr.obj
 0002:00000000       ___xc_a                    10062000     LIBCMT:initializers.obj
 0002:00000104       ___xc_z                    10062104     LIBCMT:initializers.obj
 0002:00000208       ___xi_a                    10062208     LIBCMT:initializers.obj
 0002:0000030c       ___acrt_stdio_initializer  1006230c     libucrt:stdio_initializer.obj
 0002:00000310       ___acrt_multibyte_initializer 10062310     libucrt:multibyte_initializer.obj
 0002:00000314       ___acrt_tran_sse2_initializer 10062314     libucrt:sse2_initializer.obj
 0002:0000041c       ___xi_z                    1006241c     LIBCMT:initializers.obj
 0002:00000520       ___xp_a                    10062520     LIBCMT:initializers.obj
 0002:00000624       ___acrt_locale_terminator  10062624     libucrt:locale_initializer.obj
 0002:00000628       ___dcrt_console_output_terminator 10062628     libucrt:console_output_initializer.obj
 0002:00000730       ___acrt_stdio_terminator   10062730     libucrt:stdio_initializer.obj
 0002:00000834       ___xp_z                    10062834     LIBCMT:initializers.obj
 0002:00000938       ___xt_a                    10062938     LIBCMT:initializers.obj
 0002:00000a3c       ___xt_z                    10062a3c     LIBCMT:initializers.obj
 0002:00000b40       _a210514_M                 10062b40     a210514.obj
 0002:00000b6c       ??_C@_04EPKDLPPB@tout?$AA@ 10062b6c     a210514.obj
 0002:00000b72       ??_C@_00CNPNBAHC@?$AA@     10062b72     a210514.obj
 0002:00000b74       ??_C@_03HBFGMJOD@rt_?$AA@  10062b74     a210514.obj
 0002:00000b78       __real@3f50624dd2f1a9fc    10062b78     a210514.obj
 0002:00000b88       __real@3fe0000000000000    10062b88     a210514.obj
 0002:00000b98       __real@3ff0000000000000    10062b98     a210514.obj
 0002:00000ba8       __real@4000000000000000    10062ba8     a210514.obj
 0002:00000bb8       __real@4010000000000000    10062bb8     a210514.obj
 0002:00000bc8       __real@4020000000000000    10062bc8     a210514.obj
 0002:00000bd8       __real@4030000000000000    10062bd8     a210514.obj
 0002:00000be8       __real@4040000000000000    10062be8     a210514.obj
 0002:00000bf8       __real@4050000000000000    10062bf8     a210514.obj
 0002:00000c08       __real@4060000000000000    10062c08     a210514.obj
 0002:00000c18       __real@4070000000000000    10062c18     a210514.obj
 0002:00000c28       __real@41efffffffe00000    10062c28     a210514.obj
 0002:00000c38       __real@41f0000000000000    10062c38     a210514.obj
 0002:00000c48       __real@4330000000000000    10062c48     a210514.obj
 0002:00000c58       __real@8000000000000000    10062c58     a210514.obj
 0002:00000c68       __real@bff0000000000000    10062c68     a210514.obj
 0002:00000c80       __xmm@00000000000000003f50624dd2f1a9fc 10062c80     a210514.obj
 0002:00000ca0       __xmm@000000050000000b0000000e00000001 10062ca0     a210514.obj
 0002:00000cc0       __xmm@30303030303030303030303030303030 10062cc0     a210514.obj
 0002:00000ce0       __xmm@41f00000000000000000000000000000 10062ce0     a210514.obj
 0002:00000fc4       ??_C@_09GBHCELGK@anti_v?1p1?$AA@ 10062fc4     a210514_capi.obj
 0002:00000fd0       ??_C@_09EKFPBIKJ@anti_v?1p2?$AA@ 10062fd0     a210514_capi.obj
 0002:00000fdc       ??_C@_09FDEECJOI@anti_v?1p3?$AA@ 10062fdc     a210514_capi.obj
 0002:00000fe8       ??_C@_09BMAFLPCP@anti_v?1p4?$AA@ 10062fe8     a210514_capi.obj
 0002:00000ff4       ??_C@_0BH@DAOEBGPK@Data?5Type?5Conversion19?$AA@ 10062ff4     a210514_capi.obj
 0002:00001010       ??_C@_0BH@ODGABDOK@Data?5Type?5Conversion20?$AA@ 10063010     a210514_capi.obj
 0002:0000102c       ??_C@_0BH@PKHLCCKL@Data?5Type?5Conversion21?$AA@ 1006302c     a210514_capi.obj
 0002:00001048       ??_C@_0BH@NBFGHBGI@Data?5Type?5Conversion22?$AA@ 10063048     a210514_capi.obj
 0002:00001064       ??_C@_05DKAIGDGE@Gain1?$AA@ 10063064     a210514_capi.obj
 0002:0000106c       ??_C@_05FOGEKGGA@Gain5?$AA@ 1006306c     a210514_capi.obj
 0002:00001074       ??_C@_0L@EICILOBK@Saturation?$AA@ 10063074     a210514_capi.obj
 0002:00001084       ??_C@_08CHMPKCOC@Constant?$AA@ 10063084     a210514_capi.obj
 0002:00001090       ??_C@_05LPIJGKJ@Value?$AA@ 10063090     a210514_capi.obj
 0002:00001098       ??_C@_04OMOMKKFL@Gain?$AA@ 10063098     a210514_capi.obj
 0002:000010a0       ??_C@_0L@FBCGKKEN@UpperLimit?$AA@ 100630a0     a210514_capi.obj
 0002:000010b0       ??_C@_0L@DGFJOHKP@LowerLimit?$AA@ 100630b0     a210514_capi.obj
 0002:000010c0       ??_C@_06BNJCAIGJ@double?$AA@ 100630c0     a210514_capi.obj
 0002:000010c8       ??_C@_06CNMIJIPB@real_T?$AA@ 100630c8     a210514_capi.obj
 0002:000010d0       ??_C@_0O@PPAIJIHF@unsigned?5char?$AA@ 100630d0     a210514_capi.obj
 0002:000010e0       ??_C@_07NCEHLPOC@uint8_T?$AA@ 100630e0     a210514_capi.obj
 0002:000010ec       ??_C@_05KNFBNCOH@float?$AA@ 100630ec     a210514_capi.obj
 0002:00001958       ??_C@_0DJ@FHKINPLE@Unexpected?5itemKind?5?$DN?5DATA_ITEM?5@ 10063958     rt_logging.obj
 0002:0000199c       ??_C@_0DA@IEHFPFCJ@Unexpected?5itemKind?$DN?$CFd?5in?5rt_Pro@ 1006399c     rt_logging.obj
 0002:000019d8       ??_C@_0DA@IFLHJPBO@Unexpected?5itemKind?$DN?$CFd?5in?5rt_Pro@ 100639d8     rt_logging.obj
 0002:00001a14       ??_C@_0DA@IAPIIJJL@Unexpected?5itemKind?$DN?$CFd?5in?5rt_Pro@ 10063a14     rt_logging.obj
 0002:00001a50       ??_C@_0BE@LCIGPJIG@MATLAB?55?40?5MAT?9file?$AA@ 10063a50     rt_logging.obj
 0002:00001a68       ??_C@_0FB@PCJEAJIB@?$CK?$CK?$CK?5Log?5variable?5?$CFs?5has?5wrapped?5@ 10063a68     rt_logging.obj
 0002:00001ad0       ??_C@_0MG@NKMLMOGF@?$CK?$CK?$CK?5To?5avoid?5wrapping?0?5explicitl@ 10063ad0     rt_logging.obj
 0002:00001bc0       ??_C@_0N@IPAEOLLP@_rtw_tmw?4tmw?$AA@ 10063bc0     rt_logging.obj
 0002:00001bd0       ??_C@_04HDOCAJNK@?$CFs?$CFs?$AA@ 10063bd0     rt_logging.obj
 0002:00001bd8       ??_C@_03ELIABIOC@w?$CLb?$AA@ 10063bd8     rt_logging.obj
 0002:00001bdc       ??_C@_0BF@JPILDDFA@?$CK?$CK?$CK?5Error?5opening?5?$CFs?$AA@ 10063bdc     rt_logging.obj
 0002:00001bf8       ??_C@_0BK@EEMDELA@unable?5to?5open?5data?5file?6?$AA@ 10063bf8     rt_logging.obj
 0002:00001c18       ??_C@_04CGFJFPFD@none?$AA@ 10063c18     rt_logging.obj
 0002:00001c20       ??_C@_0EE@LCGFPNON@?$CK?$CK?$CK?5Error?5creating?5signals?5struc@ 10063c20     rt_logging.obj
 0002:00001c74       ??_C@_0CE@NHECEDMK@?$CK?$CK?$CK?5Error?5creating?5log?5variable?5@ 10063c74     rt_logging.obj
 0002:00001ca0       ??_C@_0DB@IOCGKAGH@?$CK?$CK?$CK?5Errors?5occurred?5when?5startin@ 10063ca0     rt_logging.obj
 0002:00001cdc       ??_C@_0BO@BBLOGEBK@?$CK?$CK?$CK?5Memory?5allocation?5error?4?6?$AA@ 10063cdc     rt_logging.obj
 0002:00001d00       ??_C@_0N@LGFBAGEL@?5?$CIreal?5part?$CJ?$AA@ 10063d00     rt_logging.obj
 0002:00001d10       ??_C@_0KH@CGNMHNFE@?5?5?5?5varName?5?5?5?5?5?5?5?5?5?5?$DN?5?$CFs?$CFs?6?5?5?5?5@ 10063d10     rt_logging.obj
 0002:00001dd8       ??_C@_0LE@OALKKEFM@?5?5?5?5varName?5?5?5?5?5?5?5?5?5?5?$DN?5?$CFs?5?$CIcompl@ 10063dd8     rt_logging.obj
 0002:00001eb0       ??_C@_0KF@JDDLEOKO@?5?5?5?5varName?5?5?5?5?5?5?5?5?5?5?$DN?5?$CFs?6?5?5?5?5nR@ 10063eb0     rt_logging.obj
 0002:00001f78       ??_C@_0DP@HPDMIOFM@?$CK?$CK?$CK?5Using?5a?5default?5buffer?5of?5si@ 10063f78     rt_logging.obj
 0002:00001fc8       ??_C@_0KE@JEFOLKNF@?6?$CK?$CK?$CK?5Memory?5required?5to?5log?5vari@ 10063fc8     rt_logging.obj
 0002:00002090       ??_C@_0JP@DKLMHCBI@?$CK?$CK?$CK?5Details?3?6?5?5?5?5?5?5?5varName?5?5?5?5?5@ 10064090     rt_logging.obj
 0002:00002150       ??_C@_0CM@CAMILBED@?$CK?$CK?$CK?5Error?5allocating?5memory?5for?5@ 10064150     rt_logging.obj
 0002:00002184       ??_C@_0DF@BBCNMOPM@?$CK?$CK?$CK?5Error?5allocating?5memory?5for?5@ 10064184     rt_logging.obj
 0002:000021c8       ??_C@_0JP@DBCLPCCI@?$CK?$CK?$CK?5Details?3?6?5?5?5?5?5?5?5varName?5?5?5?5?5@ 100641c8     rt_logging.obj
 0002:00002288       ??_C@_0FK@DPGAOBGA@?$CK?$CK?$CK?5Error?5allocating?5memory?5for?5@ 10064288     rt_logging.obj
 0002:000022f4       ??_C@_0BI@GGDNPHLJ@?$CK?$CK?$CK?5Error?5writing?5to?5?$CFs?$AA@ 100642f4     rt_logging.obj
 0002:00002310       ??_C@_0CB@IBGJGELG@?$CK?$CK?$CK?5Error?5writing?5?$CFs?5due?5to?3?5?$CFs?6@ 10064310     rt_logging.obj
 0002:00002338       ??_C@_0CN@FLMCHCPB@?$CK?$CK?$CK?5Error?5writing?5log?5variable?5?$CF@ 10064338     rt_logging.obj
 0002:00002370       ??_C@_0DH@GAJCNOJP@?$CK?$CK?$CK?5Error?5writing?5structure?5log?5@ 10064370     rt_logging.obj
 0002:000023b4       ??_C@_0BD@POEALECL@?$CK?$CK?5created?5?$CFs?5?$CK?$CK?6?6?$AA@ 100643b4     rt_logging.obj
 0002:000023d0       __real@0000000000000000    100643d0     rt_logging.obj
 0002:000023e0       __real@41dfffffffc00000    100643e0     rt_logging.obj
 0002:000023f0       __real@bfbf9add3afd2773    100643f0     rt_logging.obj
 0002:00002400       __real@c000000000000000    10064400     rt_logging.obj
 0002:00002410       __xmm@20202020202020202020202020202020 10064410     rt_logging.obj
 0002:00002440       ??_C@_0BI@INNPNFJN@Memory?5Allocation?5Error?$AA@ 10064440     rtw_modelmap_utils.obj
 0002:00002460       ??_C@_1GI@JMAMOIHM@?$AAD?$AA?3?$AA?2?$AAM?$AAA?$AAT?$AAL?$AAA?$AAB?$AA?$HO?$AA3?$AA?2?$AAM?$AAA?$AAT?$AAL?$AAA?$AAB?$AA?$HO?$AA2?$AA?2?$AAr?$AAt?$AAw?$AA?2?$AAc?$AA?2?$AAs?$AAr?$AAc?$AA?2?$AAr@ 10064460     rtw_modelmap_utils.obj
 0002:000024dc       ??_C@_1CI@OEAJCJND@?$AAj?$AA?5?$AA?$DN?$AA?$DN?$AA?5?$AAe?$AAn?$AAc?$AAo?$AAd?$AAe?$AAd?$AAP?$AAa?$AAt?$AAh?$AAL?$AAe?$AAn?$AA?$AA@ 100644dc     rtw_modelmap_utils.obj
 0002:0000250c       ??_C@_1DC@NFAOIFKB@?$AAe?$AAn?$AAc?$AAo?$AAd?$AAe?$AAd?$AAP?$AAa?$AAt?$AAh?$AA?$FL?$AAj?$AA?9?$AA1?$AA?$FN?$AA?5?$AA?$DN?$AA?$DN?$AA?5?$AA?8?$AA?2?$AA0?$AA?8?$AA?$AA@ 1006450c     rtw_modelmap_utils.obj
 0002:00002548       ??_C@_1DI@FLNJGPEE@?$AAs?$AAi?$AAg?$AAC?$AAo?$AAm?$AAp?$AAl?$AAe?$AAx?$AAi?$AAt?$AAy?$AA?$FL?$AA?$CK?$AAs?$AAi?$AAg?$AAI?$AAd?$AAx?$AA?$FN?$AA?5?$AA?$CB?$AA?$DN?$AA?5?$AA1?$AA?$AA@ 10064548     rtw_modelmap_utils.obj
 0002:00002590       ??_C@_1KI@OFELMGBG@?$AA?$CI?$AA?$CI?$AA?$CI?$AAd?$AAa?$AAt?$AAa?$AAT?$AAy?$AAp?$AAe?$AAM?$AAa?$AAp?$AA?$CJ?$AA?$FL?$AA?$CI?$AA?$CI?$AA?$CI?$AAs?$AAt?$AAa?$AAt?$AAe?$AAs?$AA?$CJ?$AA?$FL?$AA?$CI?$AAi?$AA?$CJ?$AA?$FN?$AA?4@ 10064590     rtw_modelmap_utils.obj
 0002:0000265c       ??_C@_1DA@ILCMPHNE@?$AAf?$AAu?$AAl?$AAl?$AAP?$AAa?$AAt?$AAh?$AA?5?$AA?$CB?$AA?$DN?$AA?5?$AA?$CI?$AA?$CI?$AAv?$AAo?$AAi?$AAd?$AA?5?$AA?$CK?$AA?$CJ?$AA0?$AA?$CJ?$AA?$AA@ 1006465c     rtw_modelmap_utils.obj
 0002:00002698       ??_C@_1CI@OEPPFCCA@?$AAp?$AAa?$AAt?$AAh?$AA?5?$AA?$CB?$AA?$DN?$AA?5?$AA?$CI?$AA?$CI?$AAv?$AAo?$AAi?$AAd?$AA?5?$AA?$CK?$AA?$CJ?$AA0?$AA?$CJ?$AA?$AA@ 10064698     rtw_modelmap_utils.obj
 0002:000026c8       ??_C@_1FK@GLJIMFHB@?$AA?$CI?$AA?$CI?$AAm?$AAm?$AAi?$AA?$CJ?$AA?9?$AA?$DO?$AAI?$AAn?$AAs?$AAt?$AAa?$AAn?$AAc?$AAe?$AAM?$AAa?$AAp?$AA?4?$AAf?$AAu?$AAl?$AAl?$AAP?$AAa?$AAt?$AAh?$AA?$CJ?$AA?5?$AA?$DN?$AA?$DN@ 100646c8     rtw_modelmap_utils.obj
 0002:00002734       ??_C@_1DG@HPCJGNCE@?$AAm?$AAm?$AAi?$AAP?$AAa?$AAt?$AAh?$AA?$FL?$AAp?$AAa?$AAt?$AAh?$AAL?$AAe?$AAn?$AA?9?$AA1?$AA?$FN?$AA?5?$AA?$DN?$AA?$DN?$AA?5?$AA?8?$AA?2?$AA0?$AA?8?$AA?$AA@ 10064734     rtw_modelmap_utils.obj
 0002:00002774       ??_C@_1DM@DBAOGGOO@?$AAm?$AAm?$AAi?$AAP?$AAa?$AAt?$AAh?$AA?$FL?$AAm?$AAm?$AAi?$AAP?$AAa?$AAt?$AAh?$AAL?$AAe?$AAn?$AA?9?$AA1?$AA?$FN?$AA?5?$AA?$DN?$AA?$DN?$AA?5?$AA?8?$AA?2?$AA0?$AA?8?$AA?$AA@ 10064774     rtw_modelmap_utils.obj
 0002:000027bc       ??_C@_1DC@LHIAKAFE@?$AAb?$AAl?$AAo?$AAc?$AAk?$AAP?$AAa?$AAt?$AAh?$AA?5?$AA?$CB?$AA?$DN?$AA?5?$AA?$CI?$AA?$CI?$AAv?$AAo?$AAi?$AAd?$AA?5?$AA?$CK?$AA?$CJ?$AA0?$AA?$CJ?$AA?$AA@ 100647bc     rtw_modelmap_utils.obj
 0002:000027f8       ??_C@_1GI@KIEJKPGC@?$AAf?$AAu?$AAl?$AAl?$AAS?$AAt?$AAa?$AAt?$AAe?$AAB?$AAl?$AAo?$AAc?$AAk?$AAP?$AAa?$AAt?$AAh?$AA?$FL?$AAf?$AAu?$AAl?$AAl?$AAS?$AAt?$AAa?$AAt?$AAe?$AAB?$AAl?$AAo?$AAc@ 100647f8     rtw_modelmap_utils.obj
 0002:00002878       ??_C@_1EE@DNPIBJHC@?$AA?$CI?$AA?$CI?$AAd?$AAi?$AAm?$AAM?$AAa?$AAp?$AA?$CJ?$AA?$FL?$AA?$CI?$AAm?$AAa?$AAp?$AAI?$AAd?$AAx?$AA?$CJ?$AA?$FN?$AA?4?$AAn?$AAu?$AAm?$AAD?$AAi?$AAm?$AAs?$AA?$CJ?$AA?5?$AA?$DN?$AA?$DN?$AA?5@ 10064878     rtw_modelmap_utils.obj
 0002:000028cc       ??_C@_06JFOKFOED@CSTATE?$AA@ 100648cc     rtw_modelmap_utils.obj
 0002:000028d4       ??_C@_06FAENGAMN@DSTATE?$AA@ 100648d4     rtw_modelmap_utils.obj
 0002:000028dc       ??_C@_1BI@LEBJNOGG@?$AAc?$AAs?$AAv?$AAI?$AAd?$AAx?$AA?5?$AA?$DO?$AA?$DN?$AA?5?$AA0?$AA?$AA@ 100648dc     rtw_modelmap_utils.obj
 0002:000028f8       ??_C@_1BA@KDMGHCHP@?$AAT?$AAI?$AAD?$AA?$DN?$AA?$DN?$AA?9?$AA1?$AA?$AA@ 100648f8     rtw_modelmap_utils.obj
 0002:0000290c       ??_C@_1DM@DHGKBPCE@?$AAs?$AAi?$AAg?$AAP?$AAa?$AAt?$AAh?$AA?$FL?$AAs?$AAi?$AAg?$AAP?$AAa?$AAt?$AAh?$AAL?$AAe?$AAn?$AA?9?$AA1?$AA?$FN?$AA?5?$AA?$DN?$AA?$DN?$AA?5?$AA?8?$AA?2?$AA0?$AA?8?$AA?$AA@ 1006490c     rtw_modelmap_utils.obj
 0002:00002954       _serialfifoground          10064954     xpc_datatype_ground.obj
 0002:00002960       _bcmsg1553ground           10064960     xpc_datatype_ground.obj
 0002:00002970       _bcstatground              10064970     xpc_datatype_ground.obj
 0002:00002988       _bmmsg1553ground           10064988     xpc_datatype_ground.obj
 0002:000029a8       ??_C@_07IOBBCMIF@a210514?$AA@ 100649a8     xpctarget.obj
 0002:000029b4       _ptsetfilename             100649b4     xpctarget.obj
 0002:000029b8       _xmlfile                   100649b8     xpctarget.obj
 0002:000029c0       ??_C@_0L@CHBJKKFC@xpceSetVar?$AA@ 100649c0     xpctarget.obj
 0002:000029d0       ??_C@_03JLBJCOMC@6?45?$AA@ 100649d0     xpctarget.obj
 0002:000029d8       __real@3fb999999999999a    100649d8     xpctarget.obj
 0002:000029e8       __real@408f400000000000    100649e8     xpctarget.obj
 0002:000029f8       _a210514_BIOMAP            100649f8     appmappingData.obj
 0002:00002a88       _a210514_LBLMAP            10064a88     appmappingData.obj
 0002:00002b18       _a210514_SIDMAP            10064b18     appmappingData.obj
 0002:00002ba8       _a210514_SBIO              10064ba8     appmappingData.obj
 0002:00002bd8       _a210514_SLBL              10064bd8     appmappingData.obj
 0002:00002c08       _a210514_PTIDSMAP          10064c08     appmappingData.obj
 0002:00002c38       _a210514_PTNAMESMAP        10064c38     appmappingData.obj
 0002:00002c68       _a210514_SPTMAP            10064c68     appmappingData.obj
 0002:00002c80       _a210514_dtmap             10064c80     appmappingData.obj
 0002:00002c98       _appInfo                   10064c98     appmappingData.obj
 0002:00002d7c       ??_C@_0CC@DMFKNLL@VendorId?5?$DN?50x?$CFx?0?5DeviceId?5?$DN?50x?$CFx@ 10064d7c     xpcruntime:xpcimports.obj
 0002:00002da4       ??_C@_0DH@OHCBLNMG@Subsystem?5Device?5ID?5?$DN?50x?$CFx?6Subsy@ 10064da4     xpcruntime:xpcimports.obj
 0002:00002de8       ??_C@_0BD@MMMMEFCM@Class?5Code?5?$DN?50x?$CFx?6?$AA@ 10064de8     xpcruntime:xpcimports.obj
 0002:00002e00       ??_C@_0BE@OLDDDNHM@InterruptLine?5?$DN?5?$CFd?6?$AA@ 10064e00     xpcruntime:xpcimports.obj
 0002:00002e18       ??_C@_0BF@OLKLEKBD@bus?5?$DN?5?$CFd?0?5slot?5?$DN?5?$CFd?6?$AA@ 10064e18     xpcruntime:xpcimports.obj
 0002:00002e34       ??_C@_0CE@DGLLGDFH@?5?5?5?5Phys?5?5?5Virtual?5?5?5Length?5IO?1M@ 10064e34     xpcruntime:xpcimports.obj
 0002:00002e60       ??_C@_0BI@FEOPLEMG@?$CF08x?5?$CF08x?5?$CF08x?5?5?5?5?5?5?$CFc?6?$AA@ 10064e60     xpcruntime:xpcimports.obj
 0002:00002e7c       ??_C@_0BB@BNNCEDPC@rl32eScopeExists?$AA@ 10064e7c     xpcruntime:xpcimports.obj
 0002:00002e90       ??_C@_0BM@FJBFEGFG@rl32eScopeExists?5not?5found?6?$AA@ 10064e90     xpcruntime:xpcimports.obj
 0002:00002eb4       ??_C@_0O@BNNGKJEA@rl32eDefScope?$AA@ 10064eb4     xpcruntime:xpcimports.obj
 0002:00002ec4       ??_C@_0BJ@CDNOENKA@rl32eDefScope?5not?5found?6?$AA@ 10064ec4     xpcruntime:xpcimports.obj
 0002:00002ee4       ??_C@_0P@CKNKILDP@rl32eAddSignal?$AA@ 10064ee4     xpcruntime:xpcimports.obj
 0002:00002ef8       ??_C@_0BK@GMJAJBAI@rl32eAddSignal?5not?5found?6?$AA@ 10064ef8     xpcruntime:xpcimports.obj
 0002:00002f18       ??_C@_0BB@LDMIHGCE@rl32eGetSignalNo?$AA@ 10064f18     xpcruntime:xpcimports.obj
 0002:00002f2c       ??_C@_0BM@LGAMBAID@rl32eGetSignalNo?5not?5found?6?$AA@ 10064f2c     xpcruntime:xpcimports.obj
 0002:00002f50       ??_C@_0O@CFDGALBP@rl32eSetScope?$AA@ 10064f50     xpcruntime:xpcimports.obj
 0002:00002f60       ??_C@_0BJ@JCLHHIN@rl32eSetScope?5not?5found?6?$AA@ 10064f60     xpcruntime:xpcimports.obj
 0002:00002f80       ??_C@_0P@IKMCBMHH@xpceFSScopeSet?$AA@ 10064f80     xpcruntime:xpcimports.obj
 0002:00002f94       ??_C@_0BK@JODJPNNH@xpceFSScopeSet?5not?5found?6?$AA@ 10064f94     xpcruntime:xpcimports.obj
 0002:00002fb4       ??_C@_0BE@DLACEEJM@rl32eSetTargetScope?$AA@ 10064fb4     xpcruntime:xpcimports.obj
 0002:00002fcc       ??_C@_0BP@JCHFMKPJ@rl32eSetTargetScope?5not?5found?6?$AA@ 10064fcc     xpcruntime:xpcimports.obj
 0002:00002ff4       ??_C@_0BJ@LIDLNDHC@rl32eSetTargetScopeSigFt?$AA@ 10064ff4     xpcruntime:xpcimports.obj
 0002:00003014       ??_C@_0CE@JLGHCFHI@rl32eSetTargetScopeSigFt?5not?5fou@ 10065014     xpcruntime:xpcimports.obj
 0002:00003040       ??_C@_0BI@JAPOIDNG@rl32eRestartAcquisition?$AA@ 10065040     xpcruntime:xpcimports.obj
 0002:0000305c       ??_C@_0CD@LLBEFFBO@rl32eRestartAcquisition?5not?5foun@ 1006505c     xpcruntime:xpcimports.obj
 0002:00003088       ??_C@_0P@IEIIADJB@xpceScopeAcqOK?$AA@ 10065088     xpcruntime:xpcimports.obj
 0002:0000309c       ??_C@_0BK@NJCKNFPN@xpceScopeAcqOK?5not?5found?6?$AA@ 1006509c     xpcruntime:xpcimports.obj
 0002:000030bc       ??_C@_0BA@IJINKAHF@xpceRegisterISR?$AA@ 100650bc     xpcruntime:xpcimports.obj
 0002:000030d0       ??_C@_0BL@NNDLOEJE@xpceRegisterISR?5not?5found?6?$AA@ 100650d0     xpcruntime:xpcimports.obj
 0002:000030f0       ??_C@_0BC@NLBADGKF@xpceDeRegisterISR?$AA@ 100650f0     xpcruntime:xpcimports.obj
 0002:00003108       ??_C@_0BN@DCAIKFFD@xpceDeRegisterISR?5not?5found?6?$AA@ 10065108     xpcruntime:xpcimports.obj
 0002:0000312c       ??_C@_07JPMEPILD@xpcInpB?$AA@ 1006512c     xpcruntime:xpcimports.obj
 0002:00003138       ??_C@_0BD@PGABEJOL@xpcInpB?5not?5found?6?$AA@ 10065138     xpcruntime:xpcimports.obj
 0002:00003150       ??_C@_07KIHBBOKH@xpcInpW?$AA@ 10065150     xpcruntime:xpcimports.obj
 0002:0000315c       ??_C@_0BD@FPCJFMCC@xpcInpW?5not?5found?6?$AA@ 1006515c     xpcruntime:xpcimports.obj
 0002:00003174       ??_C@_08KDIAJBOP@xpcInpDW?$AA@ 10065174     xpcruntime:xpcimports.obj
 0002:00003180       ??_C@_0BE@PIELDNIL@xpcInpDW?5not?5found?6?$AA@ 10065180     xpcruntime:xpcimports.obj
 0002:00003198       ??_C@_08PJFMOIGO@xpcOutpB?$AA@ 10065198     xpcruntime:xpcimports.obj
 0002:000031a4       ??_C@_0BE@HCKNCEKF@xpcOutpB?5not?5found?6?$AA@ 100651a4     xpcruntime:xpcimports.obj
 0002:000031bc       ??_C@_08MOOJAOHK@xpcOutpW?$AA@ 100651bc     xpcruntime:xpcimports.obj
 0002:000031c8       ??_C@_0BE@NLIFDBGM@xpcOutpW?5not?5found?6?$AA@ 100651c8     xpcruntime:xpcimports.obj
 0002:000031e0       ??_C@_09FLIEKHJG@xpcOutpDW?$AA@ 100651e0     xpcruntime:xpcimports.obj
 0002:000031ec       ??_C@_0BF@GJKLPNHB@xpcOutpDW?5not?5found?6?$AA@ 100651ec     xpcruntime:xpcimports.obj
 0002:00003208       ??_C@_0BH@EHOLELHH@xpcReserveMemoryRegion?$AA@ 10065208     xpcruntime:xpcimports.obj
 0002:00003224       ??_C@_0CC@KAAAGPI@xpcReserveMemoryRegion?5not?5found@ 10065224     xpcruntime:xpcimports.obj
 0002:0000324c       ??_C@_0BA@JGPMHGAF@rl32eShowPCIDev?$AA@ 1006524c     xpcruntime:xpcimports.obj
 0002:00003260       ??_C@_0BL@DDFFLNHI@rl32eShowPCIDev?5not?5found?6?$AA@ 10065260     xpcruntime:xpcimports.obj
 0002:00003280       ??_C@_0BB@KBCOJPFB@rl32eShowPCIInfo?$AA@ 10065280     xpcruntime:xpcimports.obj
 0002:00003294       ??_C@_0BM@IFDMAGLO@rl32eShowPCIInfo?5not?5found?6?$AA@ 10065294     xpcruntime:xpcimports.obj
 0002:000032b8       ??_C@_0BA@BGPAADB@rl32eGetPCIInfo?$AA@ 100652b8     xpcruntime:xpcimports.obj
 0002:000032cc       ??_C@_0BL@IGOMLDCK@rl32eGetPCIInfo?5not?5found?6?$AA@ 100652cc     xpcruntime:xpcimports.obj
 0002:000032ec       ??_C@_0BG@NJPFKFDP@rl32eGetPCIInfoAtSlot?$AA@ 100652ec     xpcruntime:xpcimports.obj
 0002:00003308       ??_C@_0CB@BBKIPMLA@rl32eGetPCIInfoAtSlot?5not?5found?6@ 10065308     xpcruntime:xpcimports.obj
 0002:00003330       ??_C@_0BH@OKBOPNFG@xpceAssignPCIInterrupt?$AA@ 10065330     xpcruntime:xpcimports.obj
 0002:0000334c       ??_C@_0CC@CDNDNJBJ@xpceAssignPCIInterrupt?5not?5found@ 1006534c     xpcruntime:xpcimports.obj
 0002:00003374       ??_C@_0BD@PCKOKHO@xpceGetSignalValue?$AA@ 10065374     xpcruntime:xpcimports.obj
 0002:0000338c       ??_C@_0BO@GCBDJHMB@xpceGetSignalValue?5not?5found?6?$AA@ 1006538c     xpcruntime:xpcimports.obj
 0002:000033b0       ??_C@_0BB@BJONJAGA@xpceSetParameter?$AA@ 100653b0     xpcruntime:xpcimports.obj
 0002:000033c4       ??_C@_0BM@BJIKDLHA@xpceSetParameter?5not?5found?6?$AA@ 100653c4     xpcruntime:xpcimports.obj
 0002:000033e8       ??_C@_0BB@GNFDFMCM@xpceGetParameter?$AA@ 100653e8     xpcruntime:xpcimports.obj
 0002:000033fc       ??_C@_0BM@POHNKBC@xpceGetParameter?5not?5found?6?$AA@ 100653fc     xpcruntime:xpcimports.obj
 0002:00003420       ??_C@_0BB@CEIJLFCD@xpceGetParamDims?$AA@ 10065420     xpcruntime:xpcimports.obj
 0002:00003434       ??_C@_0BM@OABDBKAO@xpceGetParamDims?5not?5found?6?$AA@ 10065434     xpcruntime:xpcimports.obj
 0002:00003458       ??_C@_0L@OCBLLHBM@xpceGetTET?$AA@ 10065458     xpcruntime:xpcimports.obj
 0002:00003468       ??_C@_0BG@HNOFBOB@xpceGetTET?5not?5found?6?$AA@ 10065468     xpcruntime:xpcimports.obj
 0002:00003484       ??_C@_0P@OKGNGAGH@xpcIsModelInit?$AA@ 10065484     xpcruntime:xpcimports.obj
 0002:00003498       ??_C@_0BK@DHEMLBIM@xpcIsModelInit?5not?5found?6?$AA@ 10065498     xpcruntime:xpcimports.obj
 0002:000034b8       ??_C@_0BH@KJJLCAOJ@xpcAllocPhysicalMemory?$AA@ 100654b8     xpcruntime:xpcimports.obj
 0002:000034d4       ??_C@_0CC@MOJPNHKL@xpcAllocPhysicalMemory?5not?5found@ 100654d4     xpcruntime:xpcimports.obj
 0002:000034fc       ??_C@_0BG@CBNPGAEL@xpcFreePhysicalMemory?$AA@ 100654fc     xpcruntime:xpcimports.obj
 0002:00003518       ??_C@_0CB@PKJEBPOG@xpcFreePhysicalMemory?5not?5found?6@ 10065518     xpcruntime:xpcimports.obj
 0002:00003540       ??_C@_0BC@JGKNLICL@xpcGetElapsedTime?$AA@ 10065540     xpcruntime:xpcimports.obj
 0002:00003558       ??_C@_0BN@OEOAHCIO@xpcGetElapsedTime?5not?5found?6?$AA@ 10065558     xpcruntime:xpcimports.obj
 0002:0000357c       ??_C@_0M@ICBLMODA@xpcBusyWait?$AA@ 1006557c     xpcruntime:xpcimports.obj
 0002:0000358c       ??_C@_0BH@FBOPECBI@xpcBusyWait?5not?5found?6?$AA@ 1006558c     xpcruntime:xpcimports.obj
 0002:000035a8       ??_C@_0N@LKKJEKKA@TBCreateSpin?$AA@ 100655a8     xpcruntime:xpcimports.obj
 0002:000035b8       ??_C@_0BI@FHKMLKOE@TBCreateSpin?5not?5found?6?$AA@ 100655b8     xpcruntime:xpcimports.obj
 0002:000035d4       ??_C@_0N@HOAJHNBD@TBDeleteSpin?$AA@ 100655d4     xpcruntime:xpcimports.obj
 0002:000035e4       ??_C@_0BI@BKCPAAG@TBDeleteSpin?5not?5found?6?$AA@ 100655e4     xpcruntime:xpcimports.obj
 0002:00003600       ??_C@_0P@DAHDDBJG@TBTakeSpinFast?$AA@ 10065600     xpcruntime:xpcimports.obj
 0002:00003614       ??_C@_0BK@NKAIBHGB@TBTakeSpinFast?5not?5found?6?$AA@ 10065614     xpcruntime:xpcimports.obj
 0002:00003634       ??_C@_0P@FKNAAELA@TBGiveSpinFast?$AA@ 10065634     xpcruntime:xpcimports.obj
 0002:00003648       ??_C@_0BK@KGPJBJND@TBGiveSpinFast?5not?5found?6?$AA@ 10065648     xpcruntime:xpcimports.obj
 0002:00003668       ??_C@_0BE@IIGBFDHK@xpceCreateSemaphore?$AA@ 10065668     xpcruntime:xpcimports.obj
 0002:00003680       ??_C@_0BP@KFBAFFKJ@xpceCreateSemaphore?5not?5found?6?$AA@ 10065680     xpcruntime:xpcimports.obj
 0002:000036a8       ??_C@_0BC@IFNIONKJ@xpceWaitSemaphore?$AA@ 100656a8     xpcruntime:xpcimports.obj
 0002:000036c0       ??_C@_0BN@NMFAADIO@xpceWaitSemaphore?5not?5found?6?$AA@ 100656c0     xpcruntime:xpcimports.obj
 0002:000036e4       ??_C@_0BE@NNDIOBKE@xpceSignalSemaphore?$AA@ 100656e4     xpcruntime:xpcimports.obj
 0002:000036fc       ??_C@_0BP@LBANMHJP@xpceSignalSemaphore?5not?5found?6?$AA@ 100656fc     xpcruntime:xpcimports.obj
 0002:00003724       ??_C@_0BE@MEBEKOIM@xpceDeleteSemaphore?$AA@ 10065724     xpcruntime:xpcimports.obj
 0002:0000373c       ??_C@_0BP@OFNCKOJH@xpceDeleteSemaphore?5not?5found?6?$AA@ 1006573c     xpcruntime:xpcimports.obj
 0002:00003764       ??_C@_0BD@MFNDMBOF@FindUsbVideoDevice?$AA@ 10065764     xpcruntime:xpcimports.obj
 0002:0000377c       ??_C@_0BO@POKLDHMI@FindUsbVideoDevice?5not?5found?6?$AA@ 1006577c     xpcruntime:xpcimports.obj
 0002:000037a0       ??_C@_0BA@PLPAPNAB@GetVideoConfigs?$AA@ 100657a0     xpcruntime:xpcimports.obj
 0002:000037b4       ??_C@_0BL@DALDHKHC@GetVideoConfigs?5not?5found?6?$AA@ 100657b4     xpcruntime:xpcimports.obj
 0002:000037d4       ??_C@_0L@GBAEMHMH@StartVideo?$AA@ 100657d4     xpcruntime:xpcimports.obj
 0002:000037e4       ??_C@_0BG@HDCELEBP@StartVideo?5not?5found?6?$AA@ 100657e4     xpcruntime:xpcimports.obj
 0002:00003800       ??_C@_0BA@FDNPOCLN@ReadFrameBuffer?$AA@ 10065800     xpcruntime:xpcimports.obj
 0002:00003814       ??_C@_0BL@JHGHPNBI@ReadFrameBuffer?5not?5found?6?$AA@ 10065814     xpcruntime:xpcimports.obj
 0002:00003834       ??_C@_09FAHCLKAG@StopVideo?$AA@ 10065834     xpcruntime:xpcimports.obj
 0002:00003840       ??_C@_0BF@NKGKKADL@StopVideo?5not?5found?6?$AA@ 10065840     xpcruntime:xpcimports.obj
 0002:0000385c       ??_C@_0O@MCPKDLLL@ConvertUImage?$AA@ 1006585c     xpcruntime:xpcimports.obj
 0002:0000386c       ??_C@_0BJ@PHJKOAFL@ConvertUImage?5not?5found?6?$AA@ 1006586c     xpcruntime:xpcimports.obj
 0002:0000388c       ??_C@_0BD@NKCBPBJJ@CreateVideoDisplay?$AA@ 1006588c     xpcruntime:xpcimports.obj
 0002:000038a4       ??_C@_0BO@HPPLLNFP@CreateVideoDisplay?5not?5found?6?$AA@ 100658a4     xpcruntime:xpcimports.obj
 0002:000038c8       ??_C@_0BE@KJCKGPHA@DestroyVideoDisplay?$AA@ 100658c8     xpcruntime:xpcimports.obj
 0002:000038e0       ??_C@_0BP@FMGLJAIJ@DestroyVideoDisplay?5not?5found?6?$AA@ 100658e0     xpcruntime:xpcimports.obj
 0002:00003908       ??_C@_0BC@HCMIMIDN@StartVideoDisplay?$AA@ 10065908     xpcruntime:xpcimports.obj
 0002:00003920       ??_C@_0BN@EFIEBGOO@StartVideoDisplay?5not?5found?6?$AA@ 10065920     xpcruntime:xpcimports.obj
 0002:00003944       ??_C@_0BB@JBBLMILG@StopVideoDisplay?$AA@ 10065944     xpcruntime:xpcimports.obj
 0002:00003958       ??_C@_0BM@DBJBPLEL@StopVideoDisplay?5not?5found?6?$AA@ 10065958     xpcruntime:xpcimports.obj
 0002:0000397c       ??_C@_0M@MFJEGMHC@StreamVideo?$AA@ 1006597c     xpcruntime:xpcimports.obj
 0002:0000398c       ??_C@_0BH@OINCDMLA@StreamVideo?5not?5found?6?$AA@ 1006598c     xpcruntime:xpcimports.obj
 0002:000039a8       ??_C@_0N@IGGLCIGE@xpceaddEvent?$AA@ 100659a8     xpcruntime:xpcimports.obj
 0002:000039b8       ??_C@_0BI@NHJNFMKH@xpceaddEvent?5not?5found?6?$AA@ 100659b8     xpcruntime:xpcimports.obj
 0002:000039d4       ??_C@_0BB@LCMHHHFN@getMemoryService?$AA@ 100659d4     xpcruntime:xpcimports.obj
 0002:000039e8       ??_C@_0BM@MPLCNIIE@getMemoryService?5not?5found?6?$AA@ 100659e8     xpcruntime:xpcimports.obj
 0002:00003a0c       ??_C@_0P@KIKONDKK@getCommService?$AA@ 10065a0c     xpcruntime:xpcimports.obj
 0002:00003a20       ??_C@_0BK@NCECBKNM@getCommService?5not?5found?6?$AA@ 10065a20     xpcruntime:xpcimports.obj
 0002:00003a40       ??_C@_0P@GDLHFECE@getStatusFlags?$AA@ 10065a40     xpcruntime:xpcimports.obj
 0002:00003a54       ??_C@_0BK@NEKDLJHG@getStatusFlags?5not?5found?6?$AA@ 10065a54     xpcruntime:xpcimports.obj
 0002:00003a74       ??_C@_0BL@CDFCLKOL@startToAsyncQueueTgtAppSvc?$AA@ 10065a74     xpcruntime:xpcimports.obj
 0002:00003a94       ??_C@_0CG@JGOFFKEL@startToAsyncQueueTgtAppSvc?5not?5f@ 10065a94     xpcruntime:xpcimports.obj
 0002:00003ac4       ??_C@_0BP@IJNGPPPE@terminateToAsyncQueueTgtAppSvc?$AA@ 10065ac4     xpcruntime:xpcimports.obj
 0002:00003aec       ??_C@_0CK@NDEMAMKF@terminateToAsyncQueueTgtAppSvc?5n@ 10065aec     xpcruntime:xpcimports.obj
 0002:00003b20       ??_C@_0BK@IDACEHAO@sendToAsyncQueueTgtAppSvc?$AA@ 10065b20     xpcruntime:xpcimports.obj
 0002:00003b40       ??_C@_0CF@PNCKPEHN@sendToAsyncQueueTgtAppSvc?5not?5fo@ 10065b40     xpcruntime:xpcimports.obj
 0002:00003b6c       ??_C@_0BN@HJOHIFOM@xpceGetIntTimerGranularityNS?$AA@ 10065b6c     xpcruntime:xpcimports.obj
 0002:00003b90       ??_C@_0CI@OADDPMKB@xpceGetIntTimerGranularityNS?5not@ 10065b90     xpcruntime:xpcimports.obj
 0002:00003bc0       ??_C@_0BG@CCHICKPN@slrteSetStepSizeDelta?$AA@ 10065bc0     xpcruntime:xpcimports.obj
 0002:00003bdc       ??_C@_0CB@MKHINEIJ@slrteSetStepSizeDelta?5not?5found?6@ 10065bdc     xpcruntime:xpcimports.obj
 0002:00003c04       ??_C@_0BI@CLNBLDKJ@slrteGetCurrentStepSize?$AA@ 10065c04     xpcruntime:xpcimports.obj
 0002:00003c20       ??_C@_0CD@GIOJPGJA@slrteGetCurrentStepSize?5not?5foun@ 10065c20     xpcruntime:xpcimports.obj
 0002:00003c4c       ??_C@_0BE@FCLCBOC@registerPTPTimeRead?$AA@ 10065c4c     xpcruntime:xpcimports.obj
 0002:00003c64       ??_C@_0BP@LHPKAJIP@registerPTPTimeRead?5not?5found?6?$AA@ 10065c64     xpcruntime:xpcimports.obj
 0002:00003c8c       ??_C@_0BG@KIGCDDJI@unRegisterPTPTimeRead?$AA@ 10065c8c     xpcruntime:xpcimports.obj
 0002:00003ca8       ??_C@_0CB@MLFFBFCM@unRegisterPTPTimeRead?5not?5found?6@ 10065ca8     xpcruntime:xpcimports.obj
 0002:00003cd0       ??_C@_0BB@IPMDDBHK@slTestInitialize?$AA@ 10065cd0     xpcruntime:xpcimports.obj
 0002:00003ce4       ??_C@_0BM@LAJFCCJH@slTestInitialize?5not?5found?6?$AA@ 10065ce4     xpcruntime:xpcimports.obj
 0002:00003d08       ??_C@_0BF@OOMPMEBC@slTestLogAssessments?$AA@ 10065d08     xpcruntime:xpcimports.obj
 0002:00003d24       ??_C@_0CA@FGJCEBAG@slTestLogAssessments?5not?5found?6?$AA@ 10065d24     xpcruntime:xpcimports.obj
 0002:00003d4c       ??_C@_0BB@HJHKONHO@slTestEvalOnFail?$AA@ 10065d4c     xpcruntime:xpcimports.obj
 0002:00003d60       ??_C@_0BM@JIKCFFNJ@slTestEvalOnFail?5not?5found?6?$AA@ 10065d60     xpcruntime:xpcimports.obj
 0002:00003d84       ??_C@_0BA@LBHLABFP@slTestTerminate?$AA@ 10065d84     xpcruntime:xpcimports.obj
 0002:00003d98       ??_C@_0BL@EMFGKAPA@slTestTerminate?5not?5found?6?$AA@ 10065d98     xpcruntime:xpcimports.obj
 0002:00003db8       ??_C@_0BE@JPNPBBEO@slTestRegAssessment?$AA@ 10065db8     xpcruntime:xpcimports.obj
 0002:00003dd0       ??_C@_0BP@FBDEJJJH@slTestRegAssessment?5not?5found?6?$AA@ 10065dd0     xpcruntime:xpcimports.obj
 0002:00003df8       ??_C@_0O@NCLGDNIB@slrteSetupMSI?$AA@ 10065df8     xpcruntime:xpcimports.obj
 0002:00003e08       ??_C@_0BJ@HEFMECLM@slrteSetupMSI?5not?5found?6?$AA@ 10065e08     xpcruntime:xpcimports.obj
 0002:00003e28       ??_C@_0BH@BPOLALHD@slrtGetCRBScratchSpace?$AA@ 10065e28     xpcruntime:xpcimports.obj
 0002:00003e44       ??_C@_0CC@KCKAJKKJ@slrtGetCRBScratchSpace?5not?5found@ 10065e44     xpcruntime:xpcimports.obj
 0002:00003e6c       ??_C@_0BC@MKFDAKOL@slrtGetSgCRBSpace?$AA@ 10065e6c     xpcruntime:xpcimports.obj
 0002:00003e84       ??_C@_0BN@JDPHPLHL@slrtGetSgCRBSpace?5not?5found?6?$AA@ 10065e84     xpcruntime:xpcimports.obj
 0002:00003ea8       ??_C@_0P@EPAPKLIF@slrtfsOpenFile?$AA@ 10065ea8     xpcruntime:xpcimports.obj
 0002:00003ebc       ??_C@_0BK@FIHCBOHG@slrtfsOpenFile?5not?5found?6?$AA@ 10065ebc     xpcruntime:xpcimports.obj
 0002:00003edc       ??_C@_0BA@LILAFDDL@slrtfsCloseFile?$AA@ 10065edc     xpcruntime:xpcimports.obj
 0002:00003ef0       ??_C@_0BL@DEGHJFIB@slrtfsCloseFile?5not?5found?6?$AA@ 10065ef0     xpcruntime:xpcimports.obj
 0002:00003f10       ??_C@_0BC@OKMJDIEH@slrtfsWriteToFile?$AA@ 10065f10     xpcruntime:xpcimports.obj
 0002:00003f28       ??_C@_0BN@KCFLCLAH@slrtfsWriteToFile?5not?5found?6?$AA@ 10065f28     xpcruntime:xpcimports.obj
 0002:00003f4c       ??_C@_0BK@GIPNFFFF@slrtfsGetFileErrorMessage?$AA@ 10065f4c     xpcruntime:xpcimports.obj
 0002:00003f6c       ??_C@_0CF@BCBLMKLE@slrtfsGetFileErrorMessage?5not?5fo@ 10065f6c     xpcruntime:xpcimports.obj
 0002:00003f98       ??_C@_0BD@ICBOKMK@slrtfsGetFileError?$AA@ 10065f98     xpcruntime:xpcimports.obj
 0002:00003fb0       ??_C@_0BO@FNBANAE@slrtfsGetFileError?5not?5found?6?$AA@ 10065fb0     xpcruntime:xpcimports.obj
 0002:00003fd4       ??_C@_0BE@PPAJMHJP@slrtfsOpenFileAsync?$AA@ 10065fd4     xpcruntime:xpcimports.obj
 0002:00003fec       ??_C@_0BP@HKBMMJOK@slrtfsOpenFileAsync?5not?5found?6?$AA@ 10065fec     xpcruntime:xpcimports.obj
 0002:00004014       ??_C@_0BF@IGNDIBPF@slrtfsCloseFileAsync?$AA@ 10066014     xpcruntime:xpcimports.obj
 0002:00004030       ??_C@_0CA@GJPFDBKN@slrtfsCloseFileAsync?5not?5found?6?$AA@ 10066030     xpcruntime:xpcimports.obj
 0002:00004058       ??_C@_0BE@IOLEBNB@slrtfsGetFileStatus?$AA@ 10066058     xpcruntime:xpcimports.obj
 0002:00004070       ??_C@_0BP@PEFHDGHL@slrtfsGetFileStatus?5not?5found?6?$AA@ 10066070     xpcruntime:xpcimports.obj
 0002:00004098       ??_C@_0N@IDKFJOHI@getlasterror?$AA@ 10066098     xpcruntime:xpcimports.obj
 0002:000040a8       ??_C@_0BI@MIHMCHGL@getlasterror?5not?5found?6?$AA@ 100660a8     xpcruntime:xpcimports.obj
 0002:000040c4       ??_C@_0N@EAAOMIIE@isUsedByRTIP?$AA@ 100660c4     xpcruntime:xpcimports.obj
 0002:000040d4       ??_C@_0BI@GNHHHICK@isUsedByRTIP?5not?5found?6?$AA@ 100660d4     xpcruntime:xpcimports.obj
 0002:000040f0       ??_C@_0BC@HLDKJAG@SetIPTASKPriority?$AA@ 100660f0     xpcruntime:xpcimports.obj
 0002:00004108       ??_C@_0BN@OGKMHHAE@SetIPTASKPriority?5not?5found?6?$AA@ 10066108     xpcruntime:xpcimports.obj
 0002:0000412c       ??_C@_0O@LHENMBDD@OpenInterface?$AA@ 1006612c     xpcruntime:xpcimports.obj
 0002:0000413c       ??_C@_0BJ@PFGDBKHB@OpenInterface?5not?5found?6?$AA@ 1006613c     xpcruntime:xpcimports.obj
 0002:0000415c       ??_C@_0P@IINFELKD@CloseInterface?$AA@ 1006615c     xpcruntime:xpcimports.obj
 0002:00004170       ??_C@_0BK@PAPDNDBK@CloseInterface?5not?5found?6?$AA@ 10066170     xpcruntime:xpcimports.obj
 0002:00004190       ??_C@_05LEFIAAOI@SetIP?$AA@ 10066190     xpcruntime:xpcimports.obj
 0002:00004198       ??_C@_0BB@CGLIBAMM@SetIP?5not?5found?6?$AA@ 10066198     xpcruntime:xpcimports.obj
 0002:000041ac       ??_C@_0BA@HIJJHHMD@AddGatewayRoute?$AA@ 100661ac     xpcruntime:xpcimports.obj
 0002:000041c0       ??_C@_0BL@BFCFMDMN@AddGatewayRoute?5not?5found?6?$AA@ 100661c0     xpcruntime:xpcimports.obj
 0002:000041e0       ??_C@_0M@PHMABFPI@DeleteRoute?$AA@ 100661e0     xpcruntime:xpcimports.obj
 0002:000041f0       ??_C@_0BH@JPJGLLID@DeleteRoute?5not?5found?6?$AA@ 100661f0     xpcruntime:xpcimports.obj
 0002:0000420c       ??_C@_0BA@FCDIMKIJ@GetHostTarIPAdd?$AA@ 1006620c     xpcruntime:xpcimports.obj
 0002:00004220       ??_C@_0BL@MBKDGKBO@GetHostTarIPAdd?5not?5found?6?$AA@ 10066220     xpcruntime:xpcimports.obj
 0002:00004240       ??_C@_0M@HPMIPIBI@GetDCUUsage?$AA@ 10066240     xpcruntime:xpcimports.obj
 0002:00004250       ??_C@_0BH@EBLJKCJC@GetDCUUsage?5not?5found?6?$AA@ 10066250     xpcruntime:xpcimports.obj
 0002:0000426c       ??_C@_06MPKMECK@accept?$AA@ 1006626c     xpcruntime:xpcimports.obj
 0002:00004274       ??_C@_0BC@GBGIEMNO@accept?5not?5found?6?$AA@ 10066274     xpcruntime:xpcimports.obj
 0002:0000428c       ??_C@_04NPNJNMMP@bind?$AA@ 1006628c     xpcruntime:xpcimports.obj
 0002:00004294       ??_C@_0BA@DAJNENLO@bind?5not?5found?6?$AA@ 10066294     xpcruntime:xpcimports.obj
 0002:000042a8       ??_C@_0L@CKHNIFCM@setsockopt?$AA@ 100662a8     xpcruntime:xpcimports.obj
 0002:000042b8       ??_C@_0BG@MFIIOMFE@setsockopt?5not?5found?6?$AA@ 100662b8     xpcruntime:xpcimports.obj
 0002:000042d4       ??_C@_0M@ODDJDCDK@closesocket?$AA@ 100662d4     xpcruntime:xpcimports.obj
 0002:000042e4       ??_C@_0BH@JHGHMIL@closesocket?5not?5found?6?$AA@ 100662e4     xpcruntime:xpcimports.obj
 0002:00004300       ??_C@_07KAIBNCHO@connect?$AA@ 10066300     xpcruntime:xpcimports.obj
 0002:0000430c       ??_C@_0BD@MKLLMBM@connect?5not?5found?6?$AA@ 1006630c     xpcruntime:xpcimports.obj
 0002:00004324       ??_C@_0M@PBPOCKDG@ioctlsocket?$AA@ 10066324     xpcruntime:xpcimports.obj
 0002:00004334       ??_C@_0BH@NFCNHHIH@ioctlsocket?5not?5found?6?$AA@ 10066334     xpcruntime:xpcimports.obj
 0002:00004350       ??_C@_06OODDLKLE@listen?$AA@ 10066350     xpcruntime:xpcimports.obj
 0002:00004358       ??_C@_0BC@NHBILEKI@listen?5not?5found?6?$AA@ 10066358     xpcruntime:xpcimports.obj
 0002:00004370       ??_C@_08HMBBGFHE@recvfrom?$AA@ 10066370     xpcruntime:xpcimports.obj
 0002:0000437c       ??_C@_0BE@BJAJFFLF@recvfrom?5not?5found?6?$AA@ 1006637c     xpcruntime:xpcimports.obj
 0002:00004394       ??_C@_06MEPBGKEC@sendto?$AA@ 10066394     xpcruntime:xpcimports.obj
 0002:0000439c       ??_C@_0BC@BHPIMDJO@sendto?5not?5found?6?$AA@ 1006639c     xpcruntime:xpcimports.obj
 0002:000043b4       ??_C@_09JKBDEEOB@inet_addr?$AA@ 100663b4     xpcruntime:xpcimports.obj
 0002:000043c0       ??_C@_0BF@HKJPGECN@inet_addr?5not?5found?6?$AA@ 100663c0     xpcruntime:xpcimports.obj
 0002:000043dc       ??_C@_06HBELJPBO@socket?$AA@ 100663dc     xpcruntime:xpcimports.obj
 0002:000043e4       ??_C@_0BC@NAGFFJGA@socket?5not?5found?6?$AA@ 100663e4     xpcruntime:xpcimports.obj
 0002:000044ac       __pDefaultRawDllMain       100664ac     LIBCMT:dll_dllmain.obj
 0002:000044ac       __pRawDllMain              100664ac     LIBCMT:dll_dllmain.obj
 0002:000044c4       ??_C@_1BC@DNHGCMLG@?$AAa?$AAd?$AAv?$AAa?$AAp?$AAi?$AA3?$AA2?$AA?$AA@ 100664c4     libvcruntime:winapi_downlevel.obj
 0002:000044dc       ??_C@_1DM@KHCHBNEB@?$AAa?$AAp?$AAi?$AA?9?$AAm?$AAs?$AA?9?$AAw?$AAi?$AAn?$AA?9?$AAc?$AAo?$AAr?$AAe?$AA?9?$AAf?$AAi?$AAb?$AAe?$AAr?$AAs?$AA?9?$AAl?$AA1?$AA?9?$AA1?$AA?9?$AA1?$AA?$AA@ 100664dc     libvcruntime:winapi_downlevel.obj
 0002:00004524       ??_C@_1DK@LPPGFMPP@?$AAa?$AAp?$AAi?$AA?9?$AAm?$AAs?$AA?9?$AAw?$AAi?$AAn?$AA?9?$AAc?$AAo?$AAr?$AAe?$AA?9?$AAs?$AAy?$AAn?$AAc?$AAh?$AA?9?$AAl?$AA1?$AA?9?$AA2?$AA?9?$AA0?$AA?$AA@ 10066524     libvcruntime:winapi_downlevel.obj
 0002:0000456c       ??_C@_1BC@GDMECMAK@?$AAk?$AAe?$AAr?$AAn?$AAe?$AAl?$AA3?$AA2?$AA?$AA@ 1006656c     libvcruntime:winapi_downlevel.obj
 0002:00004588       ??_C@_0O@BAMBGLIE@EventRegister?$AA@ 10066588     libvcruntime:winapi_downlevel.obj
 0002:0000459c       ??_C@_0BE@BJEEGHGK@EventSetInformation?$AA@ 1006659c     libvcruntime:winapi_downlevel.obj
 0002:000045b8       ??_C@_0BA@FAKLIPIC@EventUnregister?$AA@ 100665b8     libvcruntime:winapi_downlevel.obj
 0002:000045d0       ??_C@_0BD@PKLHJPHD@EventWriteTransfer?$AA@ 100665d0     libvcruntime:winapi_downlevel.obj
 0002:000045f4       ??_C@_08KNHFBNJ@FlsAlloc?$AA@ 100665f4     libvcruntime:winapi_downlevel.obj
 0002:0000460c       ??_C@_07PEJMOBNF@FlsFree?$AA@ 1006660c     libvcruntime:winapi_downlevel.obj
 0002:00004624       ??_C@_0M@GDNOONDI@FlsGetValue?$AA@ 10066624     libvcruntime:winapi_downlevel.obj
 0002:00004640       ??_C@_0M@JCPCPOEF@FlsSetValue?$AA@ 10066640     libvcruntime:winapi_downlevel.obj
 0002:0000465c       ??_C@_0BM@HCFOFFN@InitializeCriticalSectionEx?$AA@ 1006665c     libvcruntime:winapi_downlevel.obj
 0002:00004860       ??_C@_08EHJDFFNH@__based?$CI?$AA@ 10066860     libvcruntime:undname.obj
 0002:0000486c       ??_C@_07KOLFKCDI@__cdecl?$AA@ 1006686c     libvcruntime:undname.obj
 0002:00004878       ??_C@_08GHMPAG@__pascal?$AA@ 10066878     libvcruntime:undname.obj
 0002:00004884       ??_C@_09IFJBGAPI@__stdcall?$AA@ 10066884     libvcruntime:undname.obj
 0002:00004890       ??_C@_0L@NPHFGOKO@__thiscall?$AA@ 10066890     libvcruntime:undname.obj
 0002:000048a0       ??_C@_0L@JMKHOMEK@__fastcall?$AA@ 100668a0     libvcruntime:undname.obj
 0002:000048b0       ??_C@_0N@BCKKPABJ@__vectorcall?$AA@ 100668b0     libvcruntime:undname.obj
 0002:000048c0       ??_C@_09HIJEGCPM@__clrcall?$AA@ 100668c0     libvcruntime:undname.obj
 0002:000048cc       ??_C@_06GHPCKEAG@__eabi?$AA@ 100668cc     libvcruntime:undname.obj
 0002:000048d4       ??_C@_07JOMMBBKO@__ptr64?$AA@ 100668d4     libvcruntime:undname.obj
 0002:000048e0       ??_C@_0L@PILCLIHE@__restrict?$AA@ 100668e0     libvcruntime:undname.obj
 0002:000048f0       ??_C@_0M@GFIIJFMG@__unaligned?$AA@ 100668f0     libvcruntime:undname.obj
 0002:00004900       ??_C@_09DHDLOLLB@restrict?$CI?$AA@ 10066900     libvcruntime:undname.obj
 0002:0000490c       ??_C@_04NIHEBCM@?5new?$AA@ 1006690c     libvcruntime:undname.obj
 0002:00004914       ??_C@_07FPCDHGMM@?5delete?$AA@ 10066914     libvcruntime:undname.obj
 0002:00004920       ??_C@_01NEMOKFLO@?$DN?$AA@ 10066920     libvcruntime:undname.obj
 0002:00004924       ??_C@_02GPIOPFAK@?$DO?$DO?$AA@ 10066924     libvcruntime:undname.obj
 0002:00004928       ??_C@_02FODMEDOG@?$DM?$DM?$AA@ 10066928     libvcruntime:undname.obj
 0002:0000492c       ??_C@_01DCLJPIOD@?$CB?$AA@ 1006692c     libvcruntime:undname.obj
 0002:00004930       ??_C@_02EGOFBIJA@?$DN?$DN?$AA@ 10066930     libvcruntime:undname.obj
 0002:00004934       ??_C@_02FDNJECIE@?$CB?$DN?$AA@ 10066934     libvcruntime:undname.obj
 0002:00004938       ??_C@_02GPECMEKF@?$FL?$FN?$AA@ 10066938     libvcruntime:undname.obj
 0002:0000493c       ??_C@_08LHJFAFGD@operator?$AA@ 1006693c     libvcruntime:undname.obj
 0002:00004948       ??_C@_02HBOOOICD@?9?$DO?$AA@ 10066948     libvcruntime:undname.obj
 0002:0000494c       ??_C@_01NBENCBCI@?$CK?$AA@ 1006694c     libvcruntime:undname.obj
 0002:00004950       ??_C@_02ECNGHCIF@?$CL?$CL?$AA@ 10066950     libvcruntime:undname.obj
 0002:00004954       ??_C@_02BAABKJLB@?9?9?$AA@ 10066954     libvcruntime:undname.obj
 0002:00004958       ??_C@_01JOAMLHOP@?9?$AA@   10066958     libvcruntime:undname.obj
 0002:0000495c       ??_C@_01MIFGBAGJ@?$CL?$AA@ 1006695c     libvcruntime:undname.obj
 0002:00004960       ??_C@_01HNPIGOCE@?$CG?$AA@ 10066960     libvcruntime:undname.obj
 0002:00004964       ??_C@_03MNHNFDLC@?9?$DO?$CK?$AA@ 10066964     libvcruntime:undname.obj
 0002:00004968       ??_C@_01KMDKNFGN@?1?$AA@   10066968     libvcruntime:undname.obj
 0002:0000496c       ??_C@_01FGNFDNOH@?$CF?$AA@ 1006696c     libvcruntime:undname.obj
 0002:00004970       ??_C@_01MNNFJEPP@?$DM?$AA@ 10066970     libvcruntime:undname.obj
 0002:00004974       ??_C@_02EHCHHCKH@?$DM?$DN?$AA@ 10066974     libvcruntime:undname.obj
 0002:00004978       ??_C@_01PPODPGHN@?$DO?$AA@ 10066978     libvcruntime:undname.obj
 0002:0000497c       ??_C@_02EEKDKGMJ@?$DO?$DN?$AA@ 1006697c     libvcruntime:undname.obj
 0002:00004980       ??_C@_01IHBHIGKO@?0?$AA@   10066980     libvcruntime:undname.obj
 0002:00004984       ??_C@_02HCKGKOFO@?$CI?$CJ?$AA@ 10066984     libvcruntime:undname.obj
 0002:00004988       ??_C@_01PJKLJHI@?$HO?$AA@  10066988     libvcruntime:undname.obj
 0002:0000498c       ??_C@_01JKBOJNNK@?$FO?$AA@ 1006698c     libvcruntime:undname.obj
 0002:00004990       ??_C@_01DNKMNLPK@?$HM?$AA@ 10066990     libvcruntime:undname.obj
 0002:00004994       ??_C@_02PPKAJPJL@?$CG?$CG?$AA@ 10066994     libvcruntime:undname.obj
 0002:00004998       ??_C@_02NONPIBCD@?$HM?$HM?$AA@ 10066998     libvcruntime:undname.obj
 0002:0000499c       ??_C@_02FPIMKNGF@?$CK?$DN?$AA@ 1006699c     libvcruntime:undname.obj
 0002:000049a0       ??_C@_02FOEOMHFC@?$CL?$DN?$AA@ 100669a0     libvcruntime:undname.obj
 0002:000049a4       ??_C@_02FKMDLLOA@?9?$DN?$AA@ 100669a4     libvcruntime:undname.obj
 0002:000049a8       ??_C@_02FJEHGPIO@?1?$DN?$AA@ 100669a8     libvcruntime:undname.obj
 0002:000049ac       ??_C@_02FENAOKFI@?$CF?$DN?$AA@ 100669ac     libvcruntime:undname.obj
 0002:000049b0       ??_C@_03IKFCCPFF@?$DO?$DO?$DN?$AA@ 100669b0     libvcruntime:undname.obj
 0002:000049b4       ??_C@_03CDNPDDLA@?$DM?$DM?$DN?$AA@ 100669b4     libvcruntime:undname.obj
 0002:000049b8       ??_C@_02FGJGFEAB@?$CG?$DN?$AA@ 100669b8     libvcruntime:undname.obj
 0002:000049bc       ??_C@_02DHLNPPGH@?$HM?$DN?$AA@ 100669bc     libvcruntime:undname.obj
 0002:000049c0       ??_C@_02MHEGNOJ@?$FO?$DN?$AA@ 100669c0     libvcruntime:undname.obj
 0002:000049c4       ??_C@_09IFPLHPGF@?$GAvftable?8?$AA@ 100669c4     libvcruntime:undname.obj
 0002:000049d0       ??_C@_09BLBHBJP@?$GAvbtable?8?$AA@ 100669d0     libvcruntime:undname.obj
 0002:000049dc       ??_C@_07FEEIOKP@?$GAvcall?8?$AA@ 100669dc     libvcruntime:undname.obj
 0002:000049e8       ??_C@_08LLFFHHDJ@?$GAtypeof?8?$AA@ 100669e8     libvcruntime:undname.obj
 0002:000049f4       ??_C@_0BF@KDPPACIK@?$GAlocal?5static?5guard?8?$AA@ 100669f4     libvcruntime:undname.obj
 0002:00004a10       ??_C@_08OBABFOLI@?$GAstring?8?$AA@ 10066a10     libvcruntime:undname.obj
 0002:00004a1c       ??_C@_0BD@JDLKDPAB@?$GAvbase?5destructor?8?$AA@ 10066a1c     libvcruntime:undname.obj
 0002:00004a34       ??_C@_0BN@DEGPLNFK@?$GAvector?5deleting?5destructor?8?$AA@ 10066a34     libvcruntime:undname.obj
 0002:00004a58       ??_C@_0BO@OBMKPJIG@?$GAdefault?5constructor?5closure?8?$AA@ 10066a58     libvcruntime:undname.obj
 0002:00004a7c       ??_C@_0BN@IMDCHIKM@?$GAscalar?5deleting?5destructor?8?$AA@ 10066a7c     libvcruntime:undname.obj
 0002:00004aa0       ??_C@_0BO@PFGOCPJJ@?$GAvector?5constructor?5iterator?8?$AA@ 10066aa0     libvcruntime:undname.obj
 0002:00004ac4       ??_C@_0BN@LFPFMEDL@?$GAvector?5destructor?5iterator?8?$AA@ 10066ac4     libvcruntime:undname.obj
 0002:00004ae8       ??_C@_0CE@IKBNEHA@?$GAvector?5vbase?5constructor?5iterat@ 10066ae8     libvcruntime:undname.obj
 0002:00004b14       ??_C@_0BL@NILFHHPC@?$GAvirtual?5displacement?5map?8?$AA@ 10066b14     libvcruntime:undname.obj
 0002:00004b34       ??_C@_0CB@JONCMFFK@?$GAeh?5vector?5constructor?5iterator?8@ 10066b34     libvcruntime:undname.obj
 0002:00004b5c       ??_C@_0CA@GCEOPDGL@?$GAeh?5vector?5destructor?5iterator?8?$AA@ 10066b5c     libvcruntime:undname.obj
 0002:00004b84       ??_C@_0CH@OOJPLCPH@?$GAeh?5vector?5vbase?5constructor?5ite@ 10066b84     libvcruntime:undname.obj
 0002:00004bb4       ??_C@_0BL@LLKPOHJI@?$GAcopy?5constructor?5closure?8?$AA@ 10066bb4     libvcruntime:undname.obj
 0002:00004bd4       ??_C@_0BA@KBCDOMBN@?$GAudt?5returning?8?$AA@ 10066bd4     libvcruntime:undname.obj
 0002:00004be8       ??_C@_03KLGMFNMG@?$GAEH?$AA@ 10066be8     libvcruntime:undname.obj
 0002:00004bec       ??_C@_05KHLCHHI@?$GARTTI?$AA@ 10066bec     libvcruntime:undname.obj
 0002:00004bf4       ??_C@_0BA@KKLDJDLB@?$GAlocal?5vftable?8?$AA@ 10066bf4     libvcruntime:undname.obj
 0002:00004c08       ??_C@_0CE@IIHCMGGL@?$GAlocal?5vftable?5constructor?5closu@ 10066c08     libvcruntime:undname.obj
 0002:00004c34       ??_C@_06FHBGPFGH@?5new?$FL?$FN?$AA@ 10066c34     libvcruntime:undname.obj
 0002:00004c3c       ??_C@_09LBNFPBCA@?5delete?$FL?$FN?$AA@ 10066c3c     libvcruntime:undname.obj
 0002:00004c48       ??_C@_0P@HJKNJFNN@?$GAomni?5callsig?8?$AA@ 10066c48     libvcruntime:undname.obj
 0002:00004c5c       ??_C@_0BL@CNOONJFP@?$GAplacement?5delete?5closure?8?$AA@ 10066c5c     libvcruntime:undname.obj
 0002:00004c7c       ??_C@_0BN@CKNJLHMB@?$GAplacement?5delete?$FL?$FN?5closure?8?$AA@ 10066c7c     libvcruntime:undname.obj
 0002:00004ca0       ??_C@_0CG@CFDHKGGD@?$GAmanaged?5vector?5constructor?5iter@ 10066ca0     libvcruntime:undname.obj
 0002:00004cd0       ??_C@_0CF@IMGKMJNO@?$GAmanaged?5vector?5destructor?5itera@ 10066cd0     libvcruntime:undname.obj
 0002:00004cfc       ??_C@_0CG@HLDDJMAG@?$GAeh?5vector?5copy?5constructor?5iter@ 10066cfc     libvcruntime:undname.obj
 0002:00004d2c       ??_C@_0CM@FCBBDIGB@?$GAeh?5vector?5vbase?5copy?5constructo@ 10066d2c     libvcruntime:undname.obj
 0002:00004d60       ??_C@_0BL@CLIPGLGB@?$GAdynamic?5initializer?5for?5?8?$AA@ 10066d60     libvcruntime:undname.obj
 0002:00004d80       ??_C@_0CB@PDBIFEP@?$GAdynamic?5atexit?5destructor?5for?5?8@ 10066d80     libvcruntime:undname.obj
 0002:00004da8       ??_C@_0CD@CGAJBKEJ@?$GAvector?5copy?5constructor?5iterato@ 10066da8     libvcruntime:undname.obj
 0002:00004dd4       ??_C@_0CJ@GJELGAMM@?$GAvector?5vbase?5copy?5constructor?5i@ 10066dd4     libvcruntime:undname.obj
 0002:00004e08       ??_C@_0CL@FGIJHLCE@?$GAmanaged?5vector?5copy?5constructor@ 10066e08     libvcruntime:undname.obj
 0002:00004e3c       ??_C@_0BM@PMGGMLDN@?$GAlocal?5static?5thread?5guard?8?$AA@ 10066e3c     libvcruntime:undname.obj
 0002:00004e60       ??_C@_0N@BDNMDMOL@operator?5?$CC?$CC?5?$AA@ 10066e60     libvcruntime:undname.obj
 0002:00004e70       ??_C@_0BC@DAFEJGAK@?5Type?5Descriptor?8?$AA@ 10066e70     libvcruntime:undname.obj
 0002:00004e88       ??_C@_0BM@LDKODKLH@?5Base?5Class?5Descriptor?5at?5?$CI?$AA@ 10066e88     libvcruntime:undname.obj
 0002:00004eac       ??_C@_0BD@LGICGFMM@?5Base?5Class?5Array?8?$AA@ 10066eac     libvcruntime:undname.obj
 0002:00004ec4       ??_C@_0BN@MECKDCOJ@?5Class?5Hierarchy?5Descriptor?8?$AA@ 10066ec4     libvcruntime:undname.obj
 0002:00004ee8       ??_C@_0BK@CFCOFLF@?5Complete?5Object?5Locator?8?$AA@ 10066ee8     libvcruntime:undname.obj
 0002:00004f08       ??_C@_04HEJADOOB@CV?3?5?$AA@ 10066f08     libvcruntime:undname.obj
 0002:00004f10       ??_C@_02MOLJINC@?3?3?$AA@  10066f10     libvcruntime:undname.obj
 0002:00004f14       ??_C@_0BE@JAEOCHPE@template?9parameter?9?$AA@ 10066f14     libvcruntime:undname.obj
 0002:00004f2c       ??_C@_0O@KHGCOMHP@generic?9type?9?$AA@ 10066f2c     libvcruntime:undname.obj
 0002:00004f3c       ??_C@_01NLNLIGKH@?$GA?$AA@ 10066f3c     libvcruntime:undname.obj
 0002:00004f40       ??_C@_01GEODFPGF@?8?$AA@   10066f40     libvcruntime:undname.obj
 0002:00004f44       ??_C@_0BG@JNJLAMPM@?$GAanonymous?5namespace?8?$AA@ 10066f44     libvcruntime:undname.obj
 0002:00004f60       ??_C@_02OHHJMEON@?8?8?$AA@ 10066f60     libvcruntime:undname.obj
 0002:00004f64       ??_C@_0BN@IBLMMFAP@?$GAnon?9type?9template?9parameter?$AA@ 10066f64     libvcruntime:undname.obj
 0002:00004f88       ??_C@_04GKJNKENE@void?$AA@ 10066f88     libvcruntime:undname.obj
 0002:00004f90       ??_C@_0BE@EODMJLIF@?$GAtemplate?9parameter?$AA@ 10066f90     libvcruntime:undname.obj
 0002:00004fa8       ??_C@_03KHICJKCI@?4?4?4?$AA@ 10066fa8     libvcruntime:undname.obj
 0002:00004fac       ??_C@_04HIBGFPH@NULL?$AA@  10066fac     libvcruntime:undname.obj
 0002:00004fb4       ??_C@_02DPKJAMEF@?$CFd?$AA@ 10066fb4     libvcruntime:undname.obj
 0002:00004fb8       ??_C@_0BK@IHCCFNEL@?$GAtemplate?9type?9parameter?9?$AA@ 10066fb8     libvcruntime:undname.obj
 0002:00004fd8       ??_C@_0BK@OFCNNNKO@?$GAgeneric?9class?9parameter?9?$AA@ 10066fd8     libvcruntime:undname.obj
 0002:00004ff8       ??_C@_0BL@NGJBLFIL@?$GAgeneric?9method?9parameter?9?$AA@ 10066ff8     libvcruntime:undname.obj
 0002:00005018       ??_C@_03OPGICMGF@?$HN?8?5?$AA@ 10067018     libvcruntime:undname.obj
 0002:0000501c       ??_C@_02IGFCGPIL@?$HN?8?$AA@ 1006701c     libvcruntime:undname.obj
 0002:00005020       ??_C@_01CLKCMJKC@?5?$AA@   10067020     libvcruntime:undname.obj
 0002:00005024       ??_C@_0N@CBHHHENL@?$GAvtordispex?$HL?$AA@ 10067024     libvcruntime:undname.obj
 0002:00005034       ??_C@_0L@GHPFDFH@?$GAvtordisp?$HL?$AA@ 10067034     libvcruntime:undname.obj
 0002:00005044       ??_C@_0L@HNGCOGAE@?$GAadjustor?$HL?$AA@ 10067044     libvcruntime:undname.obj
 0002:00005054       ??_C@_0CB@KJDOOODE@?$GAlocal?5static?5destructor?5helper?8@ 10067054     libvcruntime:undname.obj
 0002:0000507c       ??_C@_0DB@ILEFOCIJ@?$GAtemplate?5static?5data?5member?5con@ 1006707c     libvcruntime:undname.obj
 0002:000050b8       ??_C@_0DA@HGFJFBBE@?$GAtemplate?5static?5data?5member?5des@ 100670b8     libvcruntime:undname.obj
 0002:000050f4       ??_C@_07PGOEDBHP@static?5?$AA@ 100670f4     libvcruntime:undname.obj
 0002:00005100       ??_C@_08NIEOINHE@virtual?5?$AA@ 10067100     libvcruntime:undname.obj
 0002:0000510c       ??_C@_09LAPHOOG@private?3?5?$AA@ 1006710c     libvcruntime:undname.obj
 0002:00005118       ??_C@_0M@GAIFPFIP@protected?3?5?$AA@ 10067118     libvcruntime:undname.obj
 0002:00005128       ??_C@_08GPDDCMKI@public?3?5?$AA@ 10067128     libvcruntime:undname.obj
 0002:00005134       ??_C@_08KJLFOPNE@?$FLthunk?$FN?3?$AA@ 10067134     libvcruntime:undname.obj
 0002:00005140       ??_C@_0M@DHNBOJMP@extern?5?$CCC?$CC?5?$AA@ 10067140     libvcruntime:undname.obj
 0002:00005150       ??_C@_02KCKGHPCA@?$CJ?5?$AA@ 10067150     libvcruntime:undname.obj
 0002:00005154       ??_C@_05CIHEBHNO@char?5?$AA@ 10067154     libvcruntime:undname.obj
 0002:0000515c       ??_C@_06EHJMALKF@short?5?$AA@ 1006715c     libvcruntime:undname.obj
 0002:00005164       ??_C@_04LAHKHJMA@int?5?$AA@ 10067164     libvcruntime:undname.obj
 0002:0000516c       ??_C@_05CJIMAING@long?5?$AA@ 1006716c     libvcruntime:undname.obj
 0002:00005174       ??_C@_09EBBEKKIH@unsigned?5?$AA@ 10067174     libvcruntime:undname.obj
 0002:00005180       ??_C@_05BEFAKPML@void?5?$AA@ 10067180     libvcruntime:undname.obj
 0002:00005188       ??_C@_08PABEKFH@volatile?$AA@ 10067188     libvcruntime:undname.obj
 0002:00005194       ??_C@_0BA@LKIJLKPP@std?3?3nullptr_t?5?$AA@ 10067194     libvcruntime:undname.obj
 0002:000051a8       ??_C@_0P@GCOCNKDM@std?3?3nullptr_t?$AA@ 100671a8     libvcruntime:undname.obj
 0002:000051bc       ??_C@_0L@EGPHHEKN@?$DMellipsis?$DO?$AA@ 100671bc     libvcruntime:undname.obj
 0002:000051cc       ??_C@_04EENFHACM@?0?4?4?4?$AA@ 100671cc     libvcruntime:undname.obj
 0002:000051d4       ??_C@_0M@ELJOJFFH@?0?$DMellipsis?$DO?$AA@ 100671d4     libvcruntime:undname.obj
 0002:000051e4       ??_C@_07HDJPLPEK@?5throw?$CI?$AA@ 100671e4     libvcruntime:undname.obj
 0002:000051f0       ??_C@_03PBJBJNON@cpu?$AA@  100671f0     libvcruntime:undname.obj
 0002:000051f4       ??_C@_03DCBBJBAA@amp?$AA@  100671f4     libvcruntime:undname.obj
 0002:000051f8       ??_C@_02KEGNLNML@?0?5?$AA@ 100671f8     libvcruntime:undname.obj
 0002:000051fc       ??_C@_04ENMBGAPA@char?$AA@ 100671fc     libvcruntime:undname.obj
 0002:00005204       ??_C@_05BFKKPKCG@short?$AA@ 10067204     libvcruntime:undname.obj
 0002:0000520c       ??_C@_03JBIPMCLC@int?$AA@  1006720c     libvcruntime:undname.obj
 0002:00005210       ??_C@_04GOKPGOLB@long?$AA@ 10067210     libvcruntime:undname.obj
 0002:00005218       ??_C@_04DDKJGDCM@bool?$AA@ 10067218     libvcruntime:undname.obj
 0002:00005220       ??_C@_06EBGKOKIG@__int8?$AA@ 10067220     libvcruntime:undname.obj
 0002:00005228       ??_C@_07ICFHOGAF@__int16?$AA@ 10067228     libvcruntime:undname.obj
 0002:00005234       ??_C@_07OFLPPHGP@__int32?$AA@ 10067234     libvcruntime:undname.obj
 0002:00005240       ??_C@_07LFCOJCAC@__int64?$AA@ 10067240     libvcruntime:undname.obj
 0002:0000524c       ??_C@_08GAHOLHEO@__int128?$AA@ 1006724c     libvcruntime:undname.obj
 0002:00005258       ??_C@_09EEKGDCPH@?$DMunknown?$DO?$AA@ 10067258     libvcruntime:undname.obj
 0002:00005264       ??_C@_08HBIPOFJB@char16_t?$AA@ 10067264     libvcruntime:undname.obj
 0002:00005270       ??_C@_08IECNCBKG@char32_t?$AA@ 10067270     libvcruntime:undname.obj
 0002:0000527c       ??_C@_07CLGGIAMF@wchar_t?$AA@ 1006727c     libvcruntime:undname.obj
 0002:00005288       ??_C@_06GCICPBLB@__w64?5?$AA@ 10067288     libvcruntime:undname.obj
 0002:00005290       ??_C@_07NFANNNEC@UNKNOWN?$AA@ 10067290     libvcruntime:undname.obj
 0002:0000529c       ??_C@_07EDHNAJHC@signed?5?$AA@ 1006729c     libvcruntime:undname.obj
 0002:000052a8       ??_C@_05BNCCCJPP@const?$AA@ 100672a8     libvcruntime:undname.obj
 0002:000052b0       ??_C@_09EFNPDFFP@?5volatile?$AA@ 100672b0     libvcruntime:undname.obj
 0002:000052bc       ??_C@_0P@GCIFDJCJ@?$GAunknown?5ecsu?8?$AA@ 100672bc     libvcruntime:undname.obj
 0002:000052d0       ??_C@_06MOJHIBMG@union?5?$AA@ 100672d0     libvcruntime:undname.obj
 0002:000052d8       ??_C@_07DIBCDNGL@struct?5?$AA@ 100672d8     libvcruntime:undname.obj
 0002:000052e4       ??_C@_06LJBABKPM@class?5?$AA@ 100672e4     libvcruntime:undname.obj
 0002:000052ec       ??_C@_08KOFANOFK@coclass?5?$AA@ 100672ec     libvcruntime:undname.obj
 0002:000052f8       ??_C@_0N@DLIEFKNA@cointerface?5?$AA@ 100672f8     libvcruntime:undname.obj
 0002:00005308       ??_C@_05LJGMCFOG@enum?5?$AA@ 10067308     libvcruntime:undname.obj
 0002:00005310       ??_C@_09GAIEOBLP@volatile?5?$AA@ 10067310     libvcruntime:undname.obj
 0002:0000531c       ??_C@_06LIJLOJAG@const?5?$AA@ 1006731c     libvcruntime:undname.obj
 0002:00005324       ??_C@_02KJPKDIBN@?$CG?5?$AA@ 10067324     libvcruntime:undname.obj
 0002:00005328       ??_C@_03PCKGMOPB@?$CG?$CG?5?$AA@ 10067328     libvcruntime:undname.obj
 0002:0000532c       ??_C@_0M@EALIELKG@cli?3?3array?$DM?$AA@ 1006732c     libvcruntime:undname.obj
 0002:0000533c       ??_C@_0O@GKABPPIF@cli?3?3pin_ptr?$DM?$AA@ 1006733c     libvcruntime:undname.obj
 0002:0000534c       ??_C@_02GOGNNPBN@?$CJ?$FL?$AA@ 1006734c     libvcruntime:undname.obj
 0002:00005350       ??_C@_06EEGAIFAK@?$HLflat?$HN?$AA@ 10067350     libvcruntime:undname.obj
 0002:00005358       ??_C@_05JIBOFOHK@?$HLfor?5?$AA@ 10067358     libvcruntime:undname.obj
 0002:00005360       ??_C@_02MDINNEEG@s?5?$AA@  10067360     libvcruntime:undname.obj
 0002:00005368       ??_7DNameNode@@6B@         10067368     libvcruntime:undname.obj
 0002:0000537c       ??_7charNode@@6B@          1006737c     libvcruntime:undname.obj
 0002:00005390       ??_7pcharNode@@6B@         10067390     libvcruntime:undname.obj
 0002:000053a4       ??_7pDNameNode@@6B@        100673a4     libvcruntime:undname.obj
 0002:000053b8       ??_7DNameStatusNode@@6B@   100673b8     libvcruntime:undname.obj
 0002:000053cc       ??_7pairNode@@6B@          100673cc     libvcruntime:undname.obj
 0002:000053dc       ??_C@_04OKOHEJBO@?5?$DP?$DP?5?$AA@ 100673dc     libvcruntime:undname.obj
 0002:000053f0       __OP_FMODjmptab            100673f0     libucrt:87fmod.obj
 0002:00005450       _RtlNtPathSeperatorString  10067450     libucrt:exit.obj
 0002:0000545c       ??_C@_13FPGAJAPJ@?$AA?2?$AA?$AA@ 1006745c     libucrt:exit.obj
 0002:00005460       _RtlDosPathSeperatorsString 10067460     libucrt:exit.obj
 0002:0000546c       ??_C@_15MNCACJLI@?$AA?2?$AA?1?$AA?$AA@ 1006746c     libucrt:exit.obj
 0002:00005474       _RtlAlternateDosPathSeperatorString 10067474     libucrt:exit.obj
 0002:00005480       ??_C@_13CGOKJPIL@?$AA?1?$AA?$AA@ 10067480     libucrt:exit.obj
 0002:00005484       ??_C@_1BI@BGOHAHKC@?$AAm?$AAs?$AAc?$AAo?$AAr?$AAe?$AAe?$AA?4?$AAd?$AAl?$AAl?$AA?$AA@ 10067484     libucrt:exit.obj
 0002:000054a0       ??_C@_0P@MIGLKIOC@CorExitProcess?$AA@ 100674a0     libucrt:exit.obj
 0002:000054b8       _standard_lookup_table     100674b8     libucrt:output.obj
 0002:00005528       _format_validation_lookup_table 10067528     libucrt:output.obj
 0002:00005598       ??_C@_06OJHGLDPL@?$CInull?$CJ?$AA@ 10067598     libucrt:output.obj
 0002:000055a0       ??_C@_1O@CEDCILHN@?$AA?$CI?$AAn?$AAu?$AAl?$AAl?$AA?$CJ?$AA?$AA@ 100675a0     libucrt:output.obj
 0002:000055b0       ??_C@_0CF@GOGNBNAK@Microsoft?5Visual?5C?$CL?$CL?5Runtime?5Lib@ 100675b0     libucrt:assert.obj
 0002:000055e0       ??_C@_1EK@MBDPDCGA@?$AAM?$AAi?$AAc?$AAr?$AAo?$AAs?$AAo?$AAf?$AAt?$AA?5?$AAV?$AAi?$AAs?$AAu?$AAa?$AAl?$AA?5?$AAC?$AA?$CL?$AA?$CL?$AA?5?$AAR?$AAu?$AAn?$AAt?$AAi?$AAm?$AAe?$AA?5?$AAL?$AAi?$AAb@ 100675e0     libucrt:assert.obj
 0002:00005638       ??_C@_0CK@CFPGFGGO@Assertion?5failed?3?5?$CFTs?0?5file?5?$CFTs?0@ 10067638     libucrt:assert.obj
 0002:00005670       ??_C@_1FE@LHBLIKM@?$AAA?$AAs?$AAs?$AAe?$AAr?$AAt?$AAi?$AAo?$AAn?$AA?5?$AAf?$AAa?$AAi?$AAl?$AAe?$AAd?$AA?3?$AA?5?$AA?$CF?$AAT?$AAs?$AA?0?$AA?5?$AAf?$AAi?$AAl?$AAe?$AA?5?$AA?$CF?$AAT?$AAs?$AA?0@ 10067670     libucrt:assert.obj
 0002:000056d4       ??_C@_0BC@LAIDCHCH@Assertion?5failed?$CB?$AA@ 100676d4     libucrt:assert.obj
 0002:000056ec       ??_C@_1CE@OJBNHDMO@?$AAA?$AAs?$AAs?$AAe?$AAr?$AAt?$AAi?$AAo?$AAn?$AA?5?$AAf?$AAa?$AAi?$AAl?$AAe?$AAd?$AA?$CB?$AA?$AA@ 100676ec     libucrt:assert.obj
 0002:00005718       ??_C@_09KLGCKDOD@Program?3?5?$AA@ 10067718     libucrt:assert.obj
 0002:00005724       ??_C@_1BE@PHKBBGE@?$AAP?$AAr?$AAo?$AAg?$AAr?$AAa?$AAm?$AA?3?$AA?5?$AA?$AA@ 10067724     libucrt:assert.obj
 0002:0000573c       ??_C@_06IGPBOHMJ@File?3?5?$AA@ 1006773c     libucrt:assert.obj
 0002:00005744       ??_C@_1O@HEMHKNDC@?$AAF?$AAi?$AAl?$AAe?$AA?3?$AA?5?$AA?$AA@ 10067744     libucrt:assert.obj
 0002:00005754       ??_C@_06FIEBOLOH@Line?3?5?$AA@ 10067754     libucrt:assert.obj
 0002:0000575c       ??_C@_1O@KCAFKHJE@?$AAL?$AAi?$AAn?$AAe?$AA?3?$AA?5?$AA?$AA@ 1006775c     libucrt:assert.obj
 0002:0000576c       ??_C@_0N@MEECIJGN@Expression?3?5?$AA@ 1006776c     libucrt:assert.obj
 0002:0000577c       ??_C@_1BK@PEDCIPMA@?$AAE?$AAx?$AAp?$AAr?$AAe?$AAs?$AAs?$AAi?$AAo?$AAn?$AA?3?$AA?5?$AA?$AA@ 1006777c     libucrt:assert.obj
 0002:000057a0       ??_C@_0HA@OJHAGA@For?5information?5on?5how?5your?5prog@ 100677a0     libucrt:assert.obj
 0002:00005828       ??_C@_1OA@EGMLFBHJ@?$AAF?$AAo?$AAr?$AA?5?$AAi?$AAn?$AAf?$AAo?$AAr?$AAm?$AAa?$AAt?$AAi?$AAo?$AAn?$AA?5?$AAo?$AAn?$AA?5?$AAh?$AAo?$AAw?$AA?5?$AAy?$AAo?$AAu?$AAr?$AA?5?$AAp?$AAr?$AAo?$AAg@ 10067828     libucrt:assert.obj
 0002:00005934       ??_C@_0DN@EBBNMLME@?$CIPress?5Retry?5to?5debug?5the?5applic@ 10067934     libucrt:assert.obj
 0002:00005980       ??_C@_1HK@POCJMFGK@?$AA?$CI?$AAP?$AAr?$AAe?$AAs?$AAs?$AA?5?$AAR?$AAe?$AAt?$AAr?$AAy?$AA?5?$AAt?$AAo?$AA?5?$AAd?$AAe?$AAb?$AAu?$AAg?$AA?5?$AAt?$AAh?$AAe?$AA?5?$AAa?$AAp?$AAp?$AAl?$AAi?$AAc@ 10067980     libucrt:assert.obj
 0002:00005a14       ??_C@_17LGKOMLJ@?$AA?4?$AA?4?$AA?4?$AA?$AA@ 10067a14     libucrt:assert.obj
 0002:00005a20       ??_C@_01EEMJAFIK@?6?$AA@   10067a20     libucrt:assert.obj
 0002:00005a24       ??_C@_13LBAGMAIH@?$AA?6?$AA?$AA@ 10067a24     libucrt:assert.obj
 0002:00005a28       ??_C@_02PHMGELLB@?6?6?$AA@ 10067a28     libucrt:assert.obj
 0002:00005a2c       ??_C@_15IABLJNFO@?$AA?6?$AA?6?$AA?$AA@ 10067a2c     libucrt:assert.obj
 0002:00005a34       ??_C@_0BH@DNAGHKFM@?$DMprogram?5name?5unknown?$DO?$AA@ 10067a34     libucrt:assert.obj
 0002:00005a50       ??_C@_1CO@EAEJAADC@?$AA?$DM?$AAp?$AAr?$AAo?$AAg?$AAr?$AAa?$AAm?$AA?5?$AAn?$AAa?$AAm?$AAe?$AA?5?$AAu?$AAn?$AAk?$AAn?$AAo?$AAw?$AAn?$AA?$DO?$AA?$AA@ 10067a50     libucrt:assert.obj
 0002:00005a88       ??_C@_04FJHINJAO@tanh?$AA@ 10067a88     libucrt:fpexcept.obj
 0002:00005a90       ??_C@_04FIHNOPOL@asin?$AA@ 10067a90     libucrt:fpexcept.obj
 0002:00005a98       ??_C@_04PDIFKINK@acos?$AA@ 10067a98     libucrt:fpexcept.obj
 0002:00005aa0       ??_C@_04MLLJIGOK@atan?$AA@ 10067aa0     libucrt:fpexcept.obj
 0002:00005aa8       ??_C@_05KNGEOGJB@atan2?$AA@ 10067aa8     libucrt:fpexcept.obj
 0002:00005ab0       ??_C@_04EIAKFFMI@sqrt?$AA@ 10067ab0     libucrt:fpexcept.obj
 0002:00005ab8       ??_C@_03BLEJJJBH@sin?$AA@  10067ab8     libucrt:fpexcept.obj
 0002:00005abc       ??_C@_03LALBNOCG@cos?$AA@  10067abc     libucrt:fpexcept.obj
 0002:00005ac0       ??_C@_03IIINPABG@tan?$AA@  10067ac0     libucrt:fpexcept.obj
 0002:00005ac4       ??_C@_04GFPJNGEK@ceil?$AA@ 10067ac4     libucrt:fpexcept.obj
 0002:00005acc       ??_C@_05PBJFFIGL@floor?$AA@ 10067acc     libucrt:fpexcept.obj
 0002:00005ad4       ??_C@_04ODHECPBC@fabs?$AA@ 10067ad4     libucrt:fpexcept.obj
 0002:00005adc       ??_C@_04EHEDPDJG@modf?$AA@ 10067adc     libucrt:fpexcept.obj
 0002:00005ae4       ??_C@_05CEJMAHNP@ldexp?$AA@ 10067ae4     libucrt:fpexcept.obj
 0002:00005aec       ??_C@_05KBKMEMPO@_cabs?$AA@ 10067aec     libucrt:fpexcept.obj
 0002:00005af4       ??_C@_06MEIMCGCF@_hypot?$AA@ 10067af4     libucrt:fpexcept.obj
 0002:00005afc       ??_C@_04KEPJIHGP@fmod?$AA@ 10067afc     libucrt:fpexcept.obj
 0002:00005b04       ??_C@_05GKKHEGJL@frexp?$AA@ 10067b04     libucrt:fpexcept.obj
 0002:00005b0c       ??_C@_03MJLDFKDL@_y0?$AA@  10067b0c     libucrt:fpexcept.obj
 0002:00005b10       ??_C@_03NAKIGLHK@_y1?$AA@  10067b10     libucrt:fpexcept.obj
 0002:00005b14       ??_C@_03ONILCKOB@_yn?$AA@  10067b14     libucrt:fpexcept.obj
 0002:00005b18       ??_C@_05JGDBENOH@_logb?$AA@ 10067b18     libucrt:fpexcept.obj
 0002:00005b20       ??_C@_0L@KDOEJCKC@_nextafter?$AA@ 10067b20     libucrt:fpexcept.obj
 0002:00005c48       ??_C@_03KHJOGHMM@exp?$AA@  10067c48     libucrt:fpexcept.obj
 0002:00005c4c       ??_C@_03JGHBODFD@pow?$AA@  10067c4c     libucrt:fpexcept.obj
 0002:00005c50       ??_C@_03MGHMBJCF@log?$AA@  10067c50     libucrt:fpexcept.obj
 0002:00005c54       ??_C@_05HGHHAHAP@log10?$AA@ 10067c54     libucrt:fpexcept.obj
 0002:00005c5c       ??_C@_04COOMCNPB@sinh?$AA@ 10067c5c     libucrt:fpexcept.obj
 0002:00005c64       ??_C@_04HPJJNFIM@cosh?$AA@ 10067c64     libucrt:fpexcept.obj
 0002:00005c70       ___acrt_exception_action_table 10067c70     libucrt:exception_filter.obj
 0002:00005d1c       ___acrt_signal_action_table_count 10067d1c     libucrt:exception_filter.obj
 0002:00005d20       ___acrt_signal_action_table_size 10067d20     libucrt:exception_filter.obj
 0002:00005d24       ___acrt_signal_action_first_fpe_index 10067d24     libucrt:exception_filter.obj
 0002:00005d28       ___acrt_signal_action_fpe_count 10067d28     libucrt:exception_filter.obj
 0002:00005dc0       ??_C@_1BG@HHIFPOEK@?$AAm?$AAs?$AAv?$AAc?$AAr?$AAt?$AA?4?$AAd?$AAl?$AAl?$AA?$AA@ 10067dc0     libucrt:free_base.obj
 0002:00005ddc       __Fenv0                    10067ddc     libucrt:atox.obj
 0002:00005e30       __indefinite               10067e30     libucrt:87disp.obj
 0002:00005e3a       __piby2                    10067e3a     libucrt:87disp.obj
 0002:00005e44       __piby4                    10067e44     libucrt:87disp.obj
 0002:00005ee0       ??_C@_1EG@CNNIPFIM@?$AAa?$AAp?$AAi?$AA?9?$AAm?$AAs?$AA?9?$AAw?$AAi?$AAn?$AA?9?$AAa?$AAp?$AAp?$AAm?$AAo?$AAd?$AAe?$AAl?$AA?9?$AAr?$AAu?$AAn?$AAt?$AAi?$AAm?$AAe?$AA?9?$AAl?$AA1?$AA?9?$AA1@ 10067ee0     libucrt:winapi_thunks.obj
 0002:00005f38       ??_C@_1EA@JGEFHKEI@?$AAa?$AAp?$AAi?$AA?9?$AAm?$AAs?$AA?9?$AAw?$AAi?$AAn?$AA?9?$AAc?$AAo?$AAr?$AAe?$AA?9?$AAd?$AAa?$AAt?$AAe?$AAt?$AAi?$AAm?$AAe?$AA?9?$AAl?$AA1?$AA?9?$AA1?$AA?9?$AA1?$AA?$AA@ 10067f38     libucrt:winapi_thunks.obj
 0002:00005f84       ??_C@_1DI@GCIAAENM@?$AAa?$AAp?$AAi?$AA?9?$AAm?$AAs?$AA?9?$AAw?$AAi?$AAn?$AA?9?$AAc?$AAo?$AAr?$AAe?$AA?9?$AAf?$AAi?$AAl?$AAe?$AA?9?$AAl?$AA2?$AA?9?$AA1?$AA?9?$AA1?$AA?$AA@ 10067f84     libucrt:winapi_thunks.obj
 0002:00005fc8       ??_C@_1EI@MPIAOHOC@?$AAa?$AAp?$AAi?$AA?9?$AAm?$AAs?$AA?9?$AAw?$AAi?$AAn?$AA?9?$AAc?$AAo?$AAr?$AAe?$AA?9?$AAl?$AAo?$AAc?$AAa?$AAl?$AAi?$AAz?$AAa?$AAt?$AAi?$AAo?$AAn?$AA?9?$AAl?$AA1?$AA?9@ 10067fc8     libucrt:winapi_thunks.obj
 0002:00006020       ??_C@_1FK@FPHCKFIE@?$AAa?$AAp?$AAi?$AA?9?$AAm?$AAs?$AA?9?$AAw?$AAi?$AAn?$AA?9?$AAc?$AAo?$AAr?$AAe?$AA?9?$AAl?$AAo?$AAc?$AAa?$AAl?$AAi?$AAz?$AAa?$AAt?$AAi?$AAo?$AAn?$AA?9?$AAo?$AAb?$AAs@ 10068020     libucrt:winapi_thunks.obj
 0002:00006090       ??_C@_1EM@DILCGIIO@?$AAa?$AAp?$AAi?$AA?9?$AAm?$AAs?$AA?9?$AAw?$AAi?$AAn?$AA?9?$AAc?$AAo?$AAr?$AAe?$AA?9?$AAp?$AAr?$AAo?$AAc?$AAe?$AAs?$AAs?$AAt?$AAh?$AAr?$AAe?$AAa?$AAd?$AAs?$AA?9?$AAl@ 10068090     libucrt:winapi_thunks.obj
 0002:000060ec       ??_C@_1DM@LNCGDDPN@?$AAa?$AAp?$AAi?$AA?9?$AAm?$AAs?$AA?9?$AAw?$AAi?$AAn?$AA?9?$AAc?$AAo?$AAr?$AAe?$AA?9?$AAs?$AAt?$AAr?$AAi?$AAn?$AAg?$AA?9?$AAl?$AA1?$AA?9?$AA1?$AA?9?$AA0?$AA?$AA@ 100680ec     libucrt:winapi_thunks.obj
 0002:00006134       ??_C@_1DO@FPAPJEMD@?$AAa?$AAp?$AAi?$AA?9?$AAm?$AAs?$AA?9?$AAw?$AAi?$AAn?$AA?9?$AAc?$AAo?$AAr?$AAe?$AA?9?$AAs?$AAy?$AAs?$AAi?$AAn?$AAf?$AAo?$AA?9?$AAl?$AA1?$AA?9?$AA2?$AA?9?$AA1?$AA?$AA@ 10068134     libucrt:winapi_thunks.obj
 0002:00006180       ??_C@_1DK@NDHNAHIO@?$AAa?$AAp?$AAi?$AA?9?$AAm?$AAs?$AA?9?$AAw?$AAi?$AAn?$AA?9?$AAc?$AAo?$AAr?$AAe?$AA?9?$AAw?$AAi?$AAn?$AAr?$AAt?$AA?9?$AAl?$AA1?$AA?9?$AA1?$AA?9?$AA0?$AA?$AA@ 10068180     libucrt:winapi_thunks.obj
 0002:000061c8       ??_C@_1DM@KGHDGBCM@?$AAa?$AAp?$AAi?$AA?9?$AAm?$AAs?$AA?9?$AAw?$AAi?$AAn?$AA?9?$AAc?$AAo?$AAr?$AAe?$AA?9?$AAx?$AAs?$AAt?$AAa?$AAt?$AAe?$AA?9?$AAl?$AA2?$AA?9?$AA1?$AA?9?$AA0?$AA?$AA@ 100681c8     libucrt:winapi_thunks.obj
 0002:00006210       ??_C@_1EO@IJIOEFOH@?$AAa?$AAp?$AAi?$AA?9?$AAm?$AAs?$AA?9?$AAw?$AAi?$AAn?$AA?9?$AAr?$AAt?$AAc?$AAo?$AAr?$AAe?$AA?9?$AAn?$AAt?$AAu?$AAs?$AAe?$AAr?$AA?9?$AAw?$AAi?$AAn?$AAd?$AAo?$AAw?$AA?9@ 10068210     libucrt:winapi_thunks.obj
 0002:00006270       ??_C@_1FG@HHGEKANL@?$AAa?$AAp?$AAi?$AA?9?$AAm?$AAs?$AA?9?$AAw?$AAi?$AAn?$AA?9?$AAs?$AAe?$AAc?$AAu?$AAr?$AAi?$AAt?$AAy?$AA?9?$AAs?$AAy?$AAs?$AAt?$AAe?$AAm?$AAf?$AAu?$AAn?$AAc?$AAt?$AAi@ 10068270     libucrt:winapi_thunks.obj
 0002:000062d8       ??_C@_1FG@NCKKOLKO@?$AAe?$AAx?$AAt?$AA?9?$AAm?$AAs?$AA?9?$AAw?$AAi?$AAn?$AA?9?$AAk?$AAe?$AAr?$AAn?$AAe?$AAl?$AA3?$AA2?$AA?9?$AAp?$AAa?$AAc?$AAk?$AAa?$AAg?$AAe?$AA?9?$AAc?$AAu?$AAr?$AAr@ 100682d8     libucrt:winapi_thunks.obj
 0002:00006340       ??_C@_1EG@DBIOJECG@?$AAe?$AAx?$AAt?$AA?9?$AAm?$AAs?$AA?9?$AAw?$AAi?$AAn?$AA?9?$AAn?$AAt?$AAu?$AAs?$AAe?$AAr?$AA?9?$AAd?$AAi?$AAa?$AAl?$AAo?$AAg?$AAb?$AAo?$AAx?$AA?9?$AAl?$AA1?$AA?9?$AA1@ 10068340     libucrt:winapi_thunks.obj
 0002:00006398       ??_C@_1EO@FIHMJCLF@?$AAe?$AAx?$AAt?$AA?9?$AAm?$AAs?$AA?9?$AAw?$AAi?$AAn?$AA?9?$AAn?$AAt?$AAu?$AAs?$AAe?$AAr?$AA?9?$AAw?$AAi?$AAn?$AAd?$AAo?$AAw?$AAs?$AAt?$AAa?$AAt?$AAi?$AAo?$AAn?$AA?9@ 10068398     libucrt:winapi_thunks.obj
 0002:000063f8       ??_C@_1O@BCCLBEOE@?$AAu?$AAs?$AAe?$AAr?$AA3?$AA2?$AA?$AA@ 100683f8     libucrt:winapi_thunks.obj
 0002:0000640c       ??_C@_0BA@FHFNEAED@AreFileApisANSI?$AA@ 1006840c     libucrt:winapi_thunks.obj
 0002:0000642c       ??_C@_0BA@IHGNDAEB@CompareStringEx?$AA@ 1006842c     libucrt:winapi_thunks.obj
 0002:0000644c       ??_C@_0BE@LJANKFHF@EnumSystemLocalesEx?$AA@ 1006844c     libucrt:winapi_thunks.obj
 0002:000064a0       ??_C@_0BA@HNOPNCHB@GetActiveWindow?$AA@ 100684a0     libucrt:winapi_thunks.obj
 0002:000064c0       ??_C@_0BE@JOGNEJCI@GetCurrentPackageId?$AA@ 100684c0     libucrt:winapi_thunks.obj
 0002:000064e4       ??_C@_0BA@EPCJIIPD@GetDateFormatEx?$AA@ 100684e4     libucrt:winapi_thunks.obj
 0002:00006504       ??_C@_0BJ@DIBIJBHA@GetEnabledXStateFeatures?$AA@ 10068504     libucrt:winapi_thunks.obj
 0002:00006530       ??_C@_0BN@NEEHBBPO@GetFileInformationByHandleEx?$AA@ 10068530     libucrt:winapi_thunks.obj
 0002:00006560       ??_C@_0BD@HHGDFDBJ@GetLastActivePopup?$AA@ 10068560     libucrt:winapi_thunks.obj
 0002:00006584       ??_C@_0BA@ONOKGCMP@GetLocaleInfoEx?$AA@ 10068584     libucrt:winapi_thunks.obj
 0002:000065a4       ??_C@_0BI@DFKBFLJE@GetProcessWindowStation?$AA@ 100685a4     libucrt:winapi_thunks.obj
 0002:000065c4       ??_C@_0BP@FPNJPEJC@GetSystemTimePreciseAsFileTime?$AA@ 100685c4     libucrt:winapi_thunks.obj
 0002:000065f8       ??_C@_0BA@CIJJKCJJ@GetTimeFormatEx?$AA@ 100685f8     libucrt:winapi_thunks.obj
 0002:00006618       ??_C@_0BJ@PBCCBIPI@GetUserDefaultLocaleName?$AA@ 10068618     libucrt:winapi_thunks.obj
 0002:00006644       ??_C@_0BK@DEKFELLI@GetUserObjectInformationW?$AA@ 10068644     libucrt:winapi_thunks.obj
 0002:00006670       ??_C@_0BG@IKLDMBLM@GetXStateFeaturesMask?$AA@ 10068670     libucrt:winapi_thunks.obj
 0002:000066a4       ??_C@_0BC@CELBKLLA@IsValidLocaleName?$AA@ 100686a4     libucrt:winapi_thunks.obj
 0002:000066c8       ??_C@_0O@KKBNKAPF@LCMapStringEx?$AA@ 100686c8     libucrt:winapi_thunks.obj
 0002:000066e4       ??_C@_0BB@CDHDDLLP@LCIDToLocaleName?$AA@ 100686e4     libucrt:winapi_thunks.obj
 0002:00006704       ??_C@_0BB@HBDEELFH@LocaleNameToLCID?$AA@ 10068704     libucrt:winapi_thunks.obj
 0002:00006724       ??_C@_0BE@KINNKFDA@LocateXStateFeature?$AA@ 10068724     libucrt:winapi_thunks.obj
 0002:00006748       ??_C@_0M@CHKKJDAI@MessageBoxA?$AA@ 10068748     libucrt:winapi_thunks.obj
 0002:00006764       ??_C@_0M@DLDCCGNP@MessageBoxW?$AA@ 10068764     libucrt:winapi_thunks.obj
 0002:00006778       ??_C@_0N@PPOMPGGK@RoInitialize?$AA@ 10068778     libucrt:winapi_thunks.obj
 0002:0000678c       ??_C@_0P@LLFHBIJD@RoUninitialize?$AA@ 1006878c     libucrt:winapi_thunks.obj
 0002:000067ac       ??_C@_0BI@BKLFFAPO@SetThreadStackGuarantee?$AA@ 100687ac     libucrt:winapi_thunks.obj
 0002:000067d4       ??_C@_0BC@JEAENNKH@SystemFunction036?$AA@ 100687d4     libucrt:winapi_thunks.obj
 0002:000069a0       ?ccs@?BL@???$__acrt_stdio_parse_mode@D@@YA?AU__acrt_stdio_stream_mode@@QBD@Z@4QBDB 100689a0     libucrt:openfile.obj
 0002:000069a4       ?utf8_encoding@?BL@???$__acrt_stdio_parse_mode@D@@YA?AU__acrt_stdio_stream_mode@@QBD@Z@4QBDB 100689a4     libucrt:openfile.obj
 0002:000069ac       ?utf16_encoding@?BL@???$__acrt_stdio_parse_mode@D@@YA?AU__acrt_stdio_stream_mode@@QBD@Z@4QBDB 100689ac     libucrt:openfile.obj
 0002:000069b8       ?unicode_encoding@?BL@???$__acrt_stdio_parse_mode@D@@YA?AU__acrt_stdio_stream_mode@@QBD@Z@4QBDB 100689b8     libucrt:openfile.obj
 0002:000069c0       ?ccs@?BL@???$__acrt_stdio_parse_mode@_W@@YA?AU__acrt_stdio_stream_mode@@QB_W@Z@4QB_WB 100689c0     libucrt:openfile.obj
 0002:000069c8       ?utf8_encoding@?BL@???$__acrt_stdio_parse_mode@_W@@YA?AU__acrt_stdio_stream_mode@@QB_W@Z@4QB_WB 100689c8     libucrt:openfile.obj
 0002:000069d4       ?utf16_encoding@?BL@???$__acrt_stdio_parse_mode@_W@@YA?AU__acrt_stdio_stream_mode@@QB_W@Z@4QB_WB 100689d4     libucrt:openfile.obj
 0002:000069e8       ?unicode_encoding@?BL@???$__acrt_stdio_parse_mode@_W@@YA?AU__acrt_stdio_stream_mode@@QB_W@Z@4QB_WB 100689e8     libucrt:openfile.obj
 0002:000069f8       ??_C@_03OEIAHPBN@INF?$AA@  100689f8     libucrt:cvt.obj
 0002:000069fc       ??_C@_03OJHLLCGB@inf?$AA@  100689fc     libucrt:cvt.obj
 0002:00006a00       ??_C@_03LKNCIKJB@NAN?$AA@  10068a00     libucrt:cvt.obj
 0002:00006a04       ??_C@_03LHCJEHON@nan?$AA@  10068a04     libucrt:cvt.obj
 0002:00006a08       ??_C@_09OFJJIMPC@NAN?$CISNAN?$CJ?$AA@ 10068a08     libucrt:cvt.obj
 0002:00006a14       ??_C@_09IPFBKMDL@nan?$CIsnan?$CJ?$AA@ 10068a14     libucrt:cvt.obj
 0002:00006a20       ??_C@_08IKHNHAJ@NAN?$CIIND?$CJ?$AA@ 10068a20     libucrt:cvt.obj
 0002:00006a2c       ??_C@_08OFCDMILK@nan?$CIind?$CJ?$AA@ 10068a2c     libucrt:cvt.obj
 0002:00006a38       ??_C@_05KLBDPFGC@e?$CL000?$AA@ 10068a38     libucrt:cvt.obj
 0002:00006a40       ___lc_category             10068a40     libucrt:wsetlocale.obj
 0002:00006a98       ??_C@_1O@GIFLHMA@?$AAL?$AAC?$AA_?$AAA?$AAL?$AAL?$AA?$AA@ 10068a98     libucrt:wsetlocale.obj
 0002:00006aa8       ??_C@_1BG@PPOMIBNJ@?$AAL?$AAC?$AA_?$AAC?$AAO?$AAL?$AAL?$AAA?$AAT?$AAE?$AA?$AA@ 10068aa8     libucrt:wsetlocale.obj
 0002:00006ac4       ??_C@_1BC@FFJGAPJM@?$AAL?$AAC?$AA_?$AAC?$AAT?$AAY?$AAP?$AAE?$AA?$AA@ 10068ac4     libucrt:wsetlocale.obj
 0002:00006adc       ??_C@_1BI@PCKFNJFB@?$AAL?$AAC?$AA_?$AAM?$AAO?$AAN?$AAE?$AAT?$AAA?$AAR?$AAY?$AA?$AA@ 10068adc     libucrt:wsetlocale.obj
 0002:00006af8       ??_C@_1BG@ENIEDKID@?$AAL?$AAC?$AA_?$AAN?$AAU?$AAM?$AAE?$AAR?$AAI?$AAC?$AA?$AA@ 10068af8     libucrt:wsetlocale.obj
 0002:00006b14       ??_C@_1BA@HAAOMIIG@?$AAL?$AAC?$AA_?$AAT?$AAI?$AAM?$AAE?$AA?$AA@ 10068b14     libucrt:wsetlocale.obj
 0002:00006bc0       ??_C@_15NBPDDFIP@?$AA?$DN?$AA?$DL?$AA?$AA@ 10068bc0     libucrt:wsetlocale.obj
 0002:00006bc8       ??_C@_13PJJBFPED@?$AA?$DL?$AA?$AA@ 10068bc8     libucrt:wsetlocale.obj
 0002:00006bcc       ??_C@_13NMPKAAJP@?$AA?$DN?$AA?$AA@ 10068bcc     libucrt:wsetlocale.obj
 0002:00006bd0       ??_C@_13FHBKNHDA@?$AAC?$AA?$AA@ 10068bd0     libucrt:wsetlocale.obj
 0002:00006bd4       ??_C@_17MBJJLFDM@?$AA_?$AA?4?$AA?0?$AA?$AA@ 10068bd4     libucrt:wsetlocale.obj
 0002:00006be0       ??_C@_13ENNFDPBH@?$AA_?$AA?$AA@ 10068be0     libucrt:wsetlocale.obj
 0002:00006be4       ??_C@_13JOFGPIOO@?$AA?4?$AA?$AA@ 10068be4     libucrt:wsetlocale.obj
 0002:00006be8       ??_C@_03KOEHGMDN@Sun?$AA@  10068be8     libucrt:nlsdata.obj
 0002:00006bec       ??_C@_03PDAGKDH@Mon?$AA@   10068bec     libucrt:nlsdata.obj
 0002:00006bf0       ??_C@_03NAGEINEP@Tue?$AA@  10068bf0     libucrt:nlsdata.obj
 0002:00006bf4       ??_C@_03MHOMLAJA@Wed?$AA@  10068bf4     libucrt:nlsdata.obj
 0002:00006bf8       ??_C@_03IOFIKPDN@Thu?$AA@  10068bf8     libucrt:nlsdata.obj
 0002:00006bfc       ??_C@_03IDIOELNC@Fri?$AA@  10068bfc     libucrt:nlsdata.obj
 0002:00006c00       ??_C@_03FEFJNEK@Sat?$AA@   10068c00     libucrt:nlsdata.obj
 0002:00006c04       ??_C@_06OOPIFAJ@Sunday?$AA@ 10068c04     libucrt:nlsdata.obj
 0002:00006c0c       ??_C@_06JLEDEDGH@Monday?$AA@ 10068c0c     libucrt:nlsdata.obj
 0002:00006c14       ??_C@_07BAAGCFCM@Tuesday?$AA@ 10068c14     libucrt:nlsdata.obj
 0002:00006c20       ??_C@_09DLIGFAKA@Wednesday?$AA@ 10068c20     libucrt:nlsdata.obj
 0002:00006c2c       ??_C@_08HACCIKIA@Thursday?$AA@ 10068c2c     libucrt:nlsdata.obj
 0002:00006c38       ??_C@_06JECMNKMI@Friday?$AA@ 10068c38     libucrt:nlsdata.obj
 0002:00006c40       ??_C@_08INBOOONO@Saturday?$AA@ 10068c40     libucrt:nlsdata.obj
 0002:00006c4c       ??_C@_03JIHJHPIE@Jan?$AA@  10068c4c     libucrt:nlsdata.obj
 0002:00006c50       ??_C@_03HJBDCHOM@Feb?$AA@  10068c50     libucrt:nlsdata.obj
 0002:00006c54       ??_C@_03ODNJBKGA@Mar?$AA@  10068c54     libucrt:nlsdata.obj
 0002:00006c58       ??_C@_03LEOLGMJP@Apr?$AA@  10068c58     libucrt:nlsdata.obj
 0002:00006c5c       ??_C@_03CNMDKL@May?$AA@    10068c5c     libucrt:nlsdata.obj
 0002:00006c60       ??_C@_03IDFGHECI@Jun?$AA@  10068c60     libucrt:nlsdata.obj
 0002:00006c64       ??_C@_03LBGABGKK@Jul?$AA@  10068c64     libucrt:nlsdata.obj
 0002:00006c68       ??_C@_03IFJFEIGA@Aug?$AA@  10068c68     libucrt:nlsdata.obj
 0002:00006c6c       ??_C@_03GGCAPAJC@Sep?$AA@  10068c6c     libucrt:nlsdata.obj
 0002:00006c70       ??_C@_03BMAOKBAD@Oct?$AA@  10068c70     libucrt:nlsdata.obj
 0002:00006c74       ??_C@_03JPJOFNIA@Nov?$AA@  10068c74     libucrt:nlsdata.obj
 0002:00006c78       ??_C@_03MKABNOCG@Dec?$AA@  10068c78     libucrt:nlsdata.obj
 0002:00006c7c       ??_C@_07CGJPFGJA@January?$AA@ 10068c7c     libucrt:nlsdata.obj
 0002:00006c88       ??_C@_08GNJGEPFN@February?$AA@ 10068c88     libucrt:nlsdata.obj
 0002:00006c94       ??_C@_05HPCKOFNC@March?$AA@ 10068c94     libucrt:nlsdata.obj
 0002:00006c9c       ??_C@_05DMJDNLEJ@April?$AA@ 10068c9c     libucrt:nlsdata.obj
 0002:00006ca4       ??_C@_04CNLMGBGM@June?$AA@ 10068ca4     libucrt:nlsdata.obj
 0002:00006cac       ??_C@_04MIEPOIFP@July?$AA@ 10068cac     libucrt:nlsdata.obj
 0002:00006cb4       ??_C@_06LBBHFDDG@August?$AA@ 10068cb4     libucrt:nlsdata.obj
 0002:00006cbc       ??_C@_09BHHEALKD@September?$AA@ 10068cbc     libucrt:nlsdata.obj
 0002:00006cc8       ??_C@_07JJNFCEND@October?$AA@ 10068cc8     libucrt:nlsdata.obj
 0002:00006cd4       ??_C@_08HCHEGEOA@November?$AA@ 10068cd4     libucrt:nlsdata.obj
 0002:00006ce0       ??_C@_08EDHMEBNP@December?$AA@ 10068ce0     libucrt:nlsdata.obj
 0002:00006cec       ??_C@_02DEDBPAFC@AM?$AA@   10068cec     libucrt:nlsdata.obj
 0002:00006cf0       ??_C@_02CJNFDJBF@PM?$AA@   10068cf0     libucrt:nlsdata.obj
 0002:00006cf4       ??_C@_08BPBNCDIB@MM?1dd?1yy?$AA@ 10068cf4     libucrt:nlsdata.obj
 0002:00006d00       ??_C@_0BE@CKGJFCPC@dddd?0?5MMMM?5dd?0?5yyyy?$AA@ 10068d00     libucrt:nlsdata.obj
 0002:00006d18       ??_C@_08JCCMCCIL@HH?3mm?3ss?$AA@ 10068d18     libucrt:nlsdata.obj
 0002:00006d24       ??_C@_17MBGCMIPB@?$AAS?$AAu?$AAn?$AA?$AA@ 10068d24     libucrt:nlsdata.obj
 0002:00006d30       ??_C@_17KBOMKBF@?$AAM?$AAo?$AAn?$AA?$AA@ 10068d30     libucrt:nlsdata.obj
 0002:00006d3c       ??_C@_17BMKGEGOJ@?$AAT?$AAu?$AAe?$AA?$AA@ 10068d3c     libucrt:nlsdata.obj
 0002:00006d48       ??_C@_17CJEDCEPE@?$AAW?$AAe?$AAd?$AA?$AA@ 10068d48     libucrt:nlsdata.obj
 0002:00006d54       ??_C@_17PDPHAADD@?$AAT?$AAh?$AAu?$AA?$AA@ 10068d54     libucrt:nlsdata.obj
 0002:00006d60       ??_C@_17HFOLPPLP@?$AAF?$AAr?$AAi?$AA?$AA@ 10068d60     libucrt:nlsdata.obj
 0002:00006d6c       ??_C@_17GGIBDPIH@?$AAS?$AAa?$AAt?$AA?$AA@ 10068d6c     libucrt:nlsdata.obj
 0002:00006d78       ??_C@_1O@IHNHDHPB@?$AAS?$AAu?$AAn?$AAd?$AAa?$AAy?$AA?$AA@ 10068d78     libucrt:nlsdata.obj
 0002:00006d88       ??_C@_1O@MMNBFLIA@?$AAM?$AAo?$AAn?$AAd?$AAa?$AAy?$AA?$AA@ 10068d88     libucrt:nlsdata.obj
 0002:00006d98       ??_C@_1BA@ENFBFFEK@?$AAT?$AAu?$AAe?$AAs?$AAd?$AAa?$AAy?$AA?$AA@ 10068d98     libucrt:nlsdata.obj
 0002:00006dac       ??_C@_1BE@EBOGMDOH@?$AAW?$AAe?$AAd?$AAn?$AAe?$AAs?$AAd?$AAa?$AAy?$AA?$AA@ 10068dac     libucrt:nlsdata.obj
 0002:00006dc4       ??_C@_1BC@HHMNLIHE@?$AAT?$AAh?$AAu?$AAr?$AAs?$AAd?$AAa?$AAy?$AA?$AA@ 10068dc4     libucrt:nlsdata.obj
 0002:00006ddc       ??_C@_1O@PDICJHAG@?$AAF?$AAr?$AAi?$AAd?$AAa?$AAy?$AA?$AA@ 10068ddc     libucrt:nlsdata.obj
 0002:00006dec       ??_C@_1BC@ENMNNPAJ@?$AAS?$AAa?$AAt?$AAu?$AAr?$AAd?$AAa?$AAy?$AA?$AA@ 10068dec     libucrt:nlsdata.obj
 0002:00006e04       ??_C@_17DKNBKCHM@?$AAJ?$AAa?$AAn?$AA?$AA@ 10068e04     libucrt:nlsdata.obj
 0002:00006e10       ??_C@_17LMDJEKJN@?$AAF?$AAe?$AAb?$AA?$AA@ 10068e10     libucrt:nlsdata.obj
 0002:00006e1c       ??_C@_17CKNLEDEC@?$AAM?$AAa?$AAr?$AA?$AA@ 10068e1c     libucrt:nlsdata.obj
 0002:00006e28       ??_C@_17LFPOIHDD@?$AAA?$AAp?$AAr?$AA?$AA@ 10068e28     libucrt:nlsdata.obj
 0002:00006e34       ??_C@_17PNNKMEED@?$AAM?$AAa?$AAy?$AA?$AA@ 10068e34     libucrt:nlsdata.obj
 0002:00006e40       ??_C@_17KCJGOCPB@?$AAJ?$AAu?$AAn?$AA?$AA@ 10068e40     libucrt:nlsdata.obj
 0002:00006e4c       ??_C@_17IJPCKHK@?$AAJ?$AAu?$AAl?$AA?$AA@ 10068e4c     libucrt:nlsdata.obj
 0002:00006e58       ??_C@_17ICPELBCN@?$AAA?$AAu?$AAg?$AA?$AA@ 10068e58     libucrt:nlsdata.obj
 0002:00006e64       ??_C@_17HCHCOKMG@?$AAS?$AAe?$AAp?$AA?$AA@ 10068e64     libucrt:nlsdata.obj
 0002:00006e70       ??_C@_17FNLKOI@?$AAO?$AAc?$AAt?$AA?$AA@ 10068e70     libucrt:nlsdata.obj
 0002:00006e7c       ??_C@_17BBDMLCIG@?$AAN?$AAo?$AAv?$AA?$AA@ 10068e7c     libucrt:nlsdata.obj
 0002:00006e88       ??_C@_17EGKACKIF@?$AAD?$AAe?$AAc?$AA?$AA@ 10068e88     libucrt:nlsdata.obj
 0002:00006e94       ??_C@_1BA@EFMEIEBA@?$AAJ?$AAa?$AAn?$AAu?$AAa?$AAr?$AAy?$AA?$AA@ 10068e94     libucrt:nlsdata.obj
 0002:00006ea8       ??_C@_1BC@JGDDFFAM@?$AAF?$AAe?$AAb?$AAr?$AAu?$AAa?$AAr?$AAy?$AA?$AA@ 10068ea8     libucrt:nlsdata.obj
 0002:00006ec0       ??_C@_1M@IKEENEDF@?$AAM?$AAa?$AAr?$AAc?$AAh?$AA?$AA@ 10068ec0     libucrt:nlsdata.obj
 0002:00006ed0       ??_C@_1M@GJNLMHFD@?$AAA?$AAp?$AAr?$AAi?$AAl?$AA?$AA@ 10068ed0     libucrt:nlsdata.obj
 0002:00006ee0       ??_C@_19EPFLPGAP@?$AAJ?$AAu?$AAn?$AAe?$AA?$AA@ 10068ee0     libucrt:nlsdata.obj
 0002:00006eec       ??_C@_19BIFMLPCD@?$AAJ?$AAu?$AAl?$AAy?$AA?$AA@ 10068eec     libucrt:nlsdata.obj
 0002:00006ef8       ??_C@_1O@PAHLKOAC@?$AAA?$AAu?$AAg?$AAu?$AAs?$AAt?$AA?$AA@ 10068ef8     libucrt:nlsdata.obj
 0002:00006f08       ??_C@_1BE@DKAAMBJL@?$AAS?$AAe?$AAp?$AAt?$AAe?$AAm?$AAb?$AAe?$AAr?$AA?$AA@ 10068f08     libucrt:nlsdata.obj
 0002:00006f20       ??_C@_1BA@EPANDLNG@?$AAO?$AAc?$AAt?$AAo?$AAb?$AAe?$AAr?$AA?$AA@ 10068f20     libucrt:nlsdata.obj
 0002:00006f34       ??_C@_1BC@BGLIFPF@?$AAN?$AAo?$AAv?$AAe?$AAm?$AAb?$AAe?$AAr?$AA?$AA@ 10068f34     libucrt:nlsdata.obj
 0002:00006f4c       ??_C@_1BC@FEMKIFH@?$AAD?$AAe?$AAc?$AAe?$AAm?$AAb?$AAe?$AAr?$AA?$AA@ 10068f4c     libucrt:nlsdata.obj
 0002:00006f64       ??_C@_15ODEHAHHF@?$AAA?$AAM?$AA?$AA@ 10068f64     libucrt:nlsdata.obj
 0002:00006f6c       ??_C@_15CLMNNGEL@?$AAP?$AAM?$AA?$AA@ 10068f6c     libucrt:nlsdata.obj
 0002:00006f74       ??_C@_1BC@IEBCMHCM@?$AAM?$AAM?$AA?1?$AAd?$AAd?$AA?1?$AAy?$AAy?$AA?$AA@ 10068f74     libucrt:nlsdata.obj
 0002:00006f8c       ??_C@_1CI@KNAKOEBC@?$AAd?$AAd?$AAd?$AAd?$AA?0?$AA?5?$AAM?$AAM?$AAM?$AAM?$AA?5?$AAd?$AAd?$AA?0?$AA?5?$AAy?$AAy?$AAy?$AAy?$AA?$AA@ 10068f8c     libucrt:nlsdata.obj
 0002:00006fbc       ??_C@_1BC@GDGBMEMK@?$AAH?$AAH?$AA?3?$AAm?$AAm?$AA?3?$AAs?$AAs?$AA?$AA@ 10068fbc     libucrt:nlsdata.obj
 0002:00006fd4       ??_C@_1M@BMHNFIME@?$AAe?$AAn?$AA?9?$AAU?$AAS?$AA?$AA@ 10068fd4     libucrt:nlsdata.obj
 0002:00006fe8       ___lc_time_c               10068fe8     libucrt:nlsdata.obj
 0002:00007198       __d_inf                    10069198     libucrt:util.obj
 0002:000071a8       __d_ind                    100691a8     libucrt:util.obj
 0002:000071b8       __d_max                    100691b8     libucrt:util.obj
 0002:000071c8       __d_min                    100691c8     libucrt:util.obj
 0002:000071d8       __d_mzero                  100691d8     libucrt:util.obj
 0002:00007204       ??_C@_1DE@JNGNBFGO@?$AAR?$AAu?$AAn?$AAt?$AAi?$AAm?$AAe?$AA?5?$AAE?$AAr?$AAr?$AAo?$AAr?$AA?$CB?$AA?6?$AA?6?$AAP?$AAr?$AAo?$AAg?$AAr?$AAa?$AAm?$AA?3?$AA?5?$AA?$AA@ 10069204     libucrt:report_runtime_error.obj
 0002:00007258       ??_C@_1M@HPNHIDJI@?$AAj?$AAa?$AA?9?$AAJ?$AAP?$AA?$AA@ 10069258     libucrt:mbctype.obj
 0002:00007268       ??_C@_1M@BIBDDEMK@?$AAz?$AAh?$AA?9?$AAC?$AAN?$AA?$AA@ 10069268     libucrt:mbctype.obj
 0002:00007278       ??_C@_1M@JLOOOEGK@?$AAk?$AAo?$AA?9?$AAK?$AAR?$AA?$AA@ 10069278     libucrt:mbctype.obj
 0002:00007288       ??_C@_1M@CLNBBOPM@?$AAz?$AAh?$AA?9?$AAT?$AAW?$AA?$AA@ 10069288     libucrt:mbctype.obj
 0002:00007298       __wctype                   10069298     libucrt:ctype.obj
 0002:00007508       ___newctype                10069508     libucrt:ctype.obj
 0002:000078a8       ___newclmap                100698a8     libucrt:ctype.obj
 0002:00007a78       ___newcumap                10069a78     libucrt:ctype.obj
 0002:000084d4       ??_C@_15EMKDOKLE@?$AAa?$AAr?$AA?$AA@ 1006a4d4     libucrt:lcidtoname_downlevel.obj
 0002:000084dc       ??_C@_15KNPADPLH@?$AAb?$AAg?$AA?$AA@ 1006a4dc     libucrt:lcidtoname_downlevel.obj
 0002:000084e4       ??_C@_15EDMHLDMO@?$AAc?$AAa?$AA?$AA@ 1006a4e4     libucrt:lcidtoname_downlevel.obj
 0002:000084ec       ??_C@_1O@BPEAJADD@?$AAz?$AAh?$AA?9?$AAC?$AAH?$AAS?$AA?$AA@ 1006a4ec     libucrt:lcidtoname_downlevel.obj
 0002:000084fc       ??_C@_15LJNHCMNK@?$AAc?$AAs?$AA?$AA@ 1006a4fc     libucrt:lcidtoname_downlevel.obj
 0002:00008504       ??_C@_15FOMCIDHG@?$AAd?$AAa?$AA?$AA@ 1006a504     libucrt:lcidtoname_downlevel.obj
 0002:0000850c       ??_C@_15NBKABECB@?$AAd?$AAe?$AA?$AA@ 1006a50c     libucrt:lcidtoname_downlevel.obj
 0002:00008514       ??_C@_15GHPEIIAO@?$AAe?$AAl?$AA?$AA@ 1006a514     libucrt:lcidtoname_downlevel.obj
 0002:0000851c       ??_C@_15MNPNEAIF@?$AAe?$AAn?$AA?$AA@ 1006a51c     libucrt:lcidtoname_downlevel.obj
 0002:00008524       ??_C@_15GPIOMPMH@?$AAe?$AAs?$AA?$AA@ 1006a524     libucrt:lcidtoname_downlevel.obj
 0002:0000852c       ??_C@_15NGLOAKJC@?$AAf?$AAi?$AA?$AA@ 1006a52c     libucrt:lcidtoname_downlevel.obj
 0002:00008534       ??_C@_15FBKGNKAM@?$AAf?$AAr?$AA?$AA@ 1006a534     libucrt:lcidtoname_downlevel.obj
 0002:0000853c       ??_C@_15KGGCNEFK@?$AAh?$AAe?$AA?$AA@ 1006a53c     libucrt:lcidtoname_downlevel.obj
 0002:00008544       ??_C@_15PGHLIDMF@?$AAh?$AAu?$AA?$AA@ 1006a544     libucrt:lcidtoname_downlevel.obj
 0002:0000854c       ??_C@_15BIEMAPLM@?$AAi?$AAs?$AA?$AA@ 1006a54c     libucrt:lcidtoname_downlevel.obj
 0002:00008554       ??_C@_15IFJLDHAF@?$AAi?$AAt?$AA?$AA@ 1006a554     libucrt:lcidtoname_downlevel.obj
 0002:0000855c       ??_C@_15GEMIOCAG@?$AAj?$AAa?$AA?$AA@ 1006a55c     libucrt:lcidtoname_downlevel.obj
 0002:00008564       ??_C@_15EPELEGJA@?$AAk?$AAo?$AA?$AA@ 1006a564     libucrt:lcidtoname_downlevel.obj
 0002:0000856c       ??_C@_15NDDHIMN@?$AAn?$AAl?$AA?$AA@ 1006a56c     libucrt:lcidtoname_downlevel.obj
 0002:00008574       ??_C@_15BPIGNHCD@?$AAn?$AAo?$AA?$AA@ 1006a574     libucrt:lcidtoname_downlevel.obj
 0002:0000857c       ??_C@_15DEOPBLCG@?$AAp?$AAl?$AA?$AA@ 1006a57c     libucrt:lcidtoname_downlevel.obj
 0002:00008584       ??_C@_15KBECGEFG@?$AAp?$AAt?$AA?$AA@ 1006a584     libucrt:lcidtoname_downlevel.obj
 0002:0000858c       ??_C@_15GLJCBFMD@?$AAr?$AAo?$AA?$AA@ 1006a58c     libucrt:lcidtoname_downlevel.obj
 0002:00008594       ??_C@_15FEDGKCDI@?$AAr?$AAu?$AA?$AA@ 1006a594     libucrt:lcidtoname_downlevel.obj
 0002:0000859c       ??_C@_15GLKMLLHM@?$AAh?$AAr?$AA?$AA@ 1006a59c     libucrt:lcidtoname_downlevel.obj
 0002:000085a4       ??_C@_15CPKMFBDB@?$AAs?$AAk?$AA?$AA@ 1006a5a4     libucrt:lcidtoname_downlevel.obj
 0002:000085ac       ??_C@_15BAAIOGMK@?$AAs?$AAq?$AA?$AA@ 1006a5ac     libucrt:lcidtoname_downlevel.obj
 0002:000085b4       ??_C@_15INNPNOHD@?$AAs?$AAv?$AA?$AA@ 1006a5b4     libucrt:lcidtoname_downlevel.obj
 0002:000085bc       ??_C@_15CABMMOGH@?$AAt?$AAh?$AA?$AA@ 1006a5bc     libucrt:lcidtoname_downlevel.obj
 0002:000085c4       ??_C@_15BPLIHJJM@?$AAt?$AAr?$AA?$AA@ 1006a5c4     libucrt:lcidtoname_downlevel.obj
 0002:000085cc       ??_C@_15NEOEKKDJ@?$AAu?$AAr?$AA?$AA@ 1006a5cc     libucrt:lcidtoname_downlevel.obj
 0002:000085d4       ??_C@_15NFICGAJK@?$AAi?$AAd?$AA?$AA@ 1006a5d4     libucrt:lcidtoname_downlevel.obj
 0002:000085dc       ??_C@_15PJPFLCCM@?$AAu?$AAk?$AA?$AA@ 1006a5dc     libucrt:lcidtoname_downlevel.obj
 0002:000085e4       ??_C@_15HPJPHDM@?$AAb?$AAe?$AA?$AA@ 1006a5e4     libucrt:lcidtoname_downlevel.obj
 0002:000085ec       ??_C@_15LCHLGJII@?$AAs?$AAl?$AA?$AA@ 1006a5ec     libucrt:lcidtoname_downlevel.obj
 0002:000085f4       ??_C@_15PCFJPHHO@?$AAe?$AAt?$AA?$AA@ 1006a5f4     libucrt:lcidtoname_downlevel.obj
 0002:000085fc       ??_C@_15HPFPGODN@?$AAl?$AAv?$AA?$AA@ 1006a5fc     libucrt:lcidtoname_downlevel.obj
 0002:00008604       ??_C@_15NFFGKGLG@?$AAl?$AAt?$AA?$AA@ 1006a604     libucrt:lcidtoname_downlevel.obj
 0002:0000860c       ??_C@_15BDAKCCHN@?$AAf?$AAa?$AA?$AA@ 1006a60c     libucrt:lcidtoname_downlevel.obj
 0002:00008614       ??_C@_15NFGIAIAJ@?$AAv?$AAi?$AA?$AA@ 1006a614     libucrt:lcidtoname_downlevel.obj
 0002:0000861c       ??_C@_15LMKNDMHN@?$AAh?$AAy?$AA?$AA@ 1006a61c     libucrt:lcidtoname_downlevel.obj
 0002:00008624       ??_C@_15IJBHMCFL@?$AAa?$AAz?$AA?$AA@ 1006a624     libucrt:lcidtoname_downlevel.obj
 0002:0000862c       ??_C@_15EKOFJABL@?$AAe?$AAu?$AA?$AA@ 1006a62c     libucrt:lcidtoname_downlevel.obj
 0002:00008634       ??_C@_15BGHADCNK@?$AAm?$AAk?$AA?$AA@ 1006a634     libucrt:lcidtoname_downlevel.obj
 0002:0000863c       ??_C@_15JDNICKHM@?$AAa?$AAf?$AA?$AA@ 1006a63c     libucrt:lcidtoname_downlevel.obj
 0002:00008644       ??_C@_15KPJEDBKD@?$AAk?$AAa?$AA?$AA@ 1006a644     libucrt:lcidtoname_downlevel.obj
 0002:0000864c       ??_C@_15PDNFFFEO@?$AAf?$AAo?$AA?$AA@ 1006a64c     libucrt:lcidtoname_downlevel.obj
 0002:00008654       ??_C@_15OMLEGLOC@?$AAh?$AAi?$AA?$AA@ 1006a654     libucrt:lcidtoname_downlevel.obj
 0002:0000865c       ??_C@_15IDNNENKK@?$AAm?$AAs?$AA?$AA@ 1006a65c     libucrt:lcidtoname_downlevel.obj
 0002:00008664       ??_C@_15MACJNBMH@?$AAk?$AAk?$AA?$AA@ 1006a664     libucrt:lcidtoname_downlevel.obj
 0002:0000866c       ??_C@_15DKDJEOND@?$AAk?$AAy?$AA?$AA@ 1006a66c     libucrt:lcidtoname_downlevel.obj
 0002:00008674       ??_C@_15DFGDLJBG@?$AAs?$AAw?$AA?$AA@ 1006a674     libucrt:lcidtoname_downlevel.obj
 0002:0000867c       ??_C@_15BBFAICNG@?$AAu?$AAz?$AA?$AA@ 1006a67c     libucrt:lcidtoname_downlevel.obj
 0002:00008684       ??_C@_15DKNDCGEA@?$AAt?$AAt?$AA?$AA@ 1006a684     libucrt:lcidtoname_downlevel.obj
 0002:0000868c       ??_C@_15MGIFMDPL@?$AAp?$AAa?$AA?$AA@ 1006a68c     libucrt:lcidtoname_downlevel.obj
 0002:00008694       ??_C@_15HCNDBBA@?$AAg?$AAu?$AA?$AA@ 1006a694     libucrt:lcidtoname_downlevel.obj
 0002:0000869c       ??_C@_15FNBEIBON@?$AAt?$AAa?$AA?$AA@ 1006a69c     libucrt:lcidtoname_downlevel.obj
 0002:000086a4       ??_C@_15NCHGBGLK@?$AAt?$AAe?$AA?$AA@ 1006a6a4     libucrt:lcidtoname_downlevel.obj
 0002:000086ac       ??_C@_15PHPHCBPF@?$AAk?$AAn?$AA?$AA@ 1006a6ac     libucrt:lcidtoname_downlevel.obj
 0002:000086b4       ??_C@_15DLGBCKMP@?$AAm?$AAr?$AA?$AA@ 1006a6b4     libucrt:lcidtoname_downlevel.obj
 0002:000086bc       ??_C@_15EABBLBFF@?$AAs?$AAa?$AA?$AA@ 1006a6bc     libucrt:lcidtoname_downlevel.obj
 0002:000086c4       ??_C@_15CBKOMCOI@?$AAm?$AAn?$AA?$AA@ 1006a6c4     libucrt:lcidtoname_downlevel.obj
 0002:000086cc       ??_C@_15CKDMCJAF@?$AAg?$AAl?$AA?$AA@ 1006a6cc     libucrt:lcidtoname_downlevel.obj
 0002:000086d4       ??_C@_17CNJFBPG@?$AAk?$AAo?$AAk?$AA?$AA@ 1006a6d4     libucrt:lcidtoname_downlevel.obj
 0002:000086e0       ??_C@_17FFBJICPL@?$AAs?$AAy?$AAr?$AA?$AA@ 1006a6e0     libucrt:lcidtoname_downlevel.obj
 0002:000086ec       ??_C@_17KPNDCPAF@?$AAd?$AAi?$AAv?$AA?$AA@ 1006a6ec     libucrt:lcidtoname_downlevel.obj
 0002:000086f8       ??_C@_11LOCGONAA@?$AA?$AA@ 1006a6f8     libucrt:lcidtoname_downlevel.obj
 0002:000086fc       ??_C@_1M@OKAHONE@?$AAa?$AAr?$AA?9?$AAS?$AAA?$AA?$AA@ 1006a6fc     libucrt:lcidtoname_downlevel.obj
 0002:0000870c       ??_C@_1M@FFFIGIGK@?$AAb?$AAg?$AA?9?$AAB?$AAG?$AA?$AA@ 1006a70c     libucrt:lcidtoname_downlevel.obj
 0002:0000871c       ??_C@_1M@BJNKEDC@?$AAc?$AAa?$AA?9?$AAE?$AAS?$AA?$AA@ 1006a71c     libucrt:lcidtoname_downlevel.obj
 0002:0000872c       ??_C@_1M@IJJHFJHA@?$AAc?$AAs?$AA?9?$AAC?$AAZ?$AA?$AA@ 1006a72c     libucrt:lcidtoname_downlevel.obj
 0002:0000873c       ??_C@_1M@CLPEOBGI@?$AAd?$AAa?$AA?9?$AAD?$AAK?$AA?$AA@ 1006a73c     libucrt:lcidtoname_downlevel.obj
 0002:0000874c       ??_C@_1M@MCMADGCB@?$AAd?$AAe?$AA?9?$AAD?$AAE?$AA?$AA@ 1006a74c     libucrt:lcidtoname_downlevel.obj
 0002:0000875c       ??_C@_1M@OOCKEMAM@?$AAe?$AAl?$AA?9?$AAG?$AAR?$AA?$AA@ 1006a75c     libucrt:lcidtoname_downlevel.obj
 0002:0000876c       ??_C@_1M@DDNJFGID@?$AAf?$AAi?$AA?9?$AAF?$AAI?$AA?$AA@ 1006a76c     libucrt:lcidtoname_downlevel.obj
 0002:0000877c       ??_C@_1M@GLIPPMAC@?$AAf?$AAr?$AA?9?$AAF?$AAR?$AA?$AA@ 1006a77c     libucrt:lcidtoname_downlevel.obj
 0002:0000878c       ??_C@_1M@GFMCHPE@?$AAh?$AAe?$AA?9?$AAI?$AAL?$AA?$AA@ 1006a78c     libucrt:lcidtoname_downlevel.obj
 0002:0000879c       ??_C@_1M@MHLPGNKM@?$AAh?$AAu?$AA?9?$AAH?$AAU?$AA?$AA@ 1006a79c     libucrt:lcidtoname_downlevel.obj
 0002:000087ac       ??_C@_1M@LPDDNNPN@?$AAi?$AAs?$AA?9?$AAI?$AAS?$AA?$AA@ 1006a7ac     libucrt:lcidtoname_downlevel.obj
 0002:000087bc       ??_C@_1M@MADIPODN@?$AAi?$AAt?$AA?9?$AAI?$AAT?$AA?$AA@ 1006a7bc     libucrt:lcidtoname_downlevel.obj
 0002:000087cc       ??_C@_1M@IHBJJGG@?$AAn?$AAl?$AA?9?$AAN?$AAL?$AA?$AA@ 1006a7cc     libucrt:lcidtoname_downlevel.obj
 0002:000087dc       ??_C@_1M@EANAGDL@?$AAn?$AAb?$AA?9?$AAN?$AAO?$AA?$AA@ 1006a7dc     libucrt:lcidtoname_downlevel.obj
 0002:000087ec       ??_C@_1M@NEIEMEGP@?$AAp?$AAl?$AA?9?$AAP?$AAL?$AA?$AA@ 1006a7ec     libucrt:lcidtoname_downlevel.obj
 0002:000087fc       ??_C@_1M@BOCFIGEP@?$AAp?$AAt?$AA?9?$AAB?$AAR?$AA?$AA@ 1006a7fc     libucrt:lcidtoname_downlevel.obj
 0002:0000880c       ??_C@_1M@IMPFOPBG@?$AAr?$AAo?$AA?9?$AAR?$AAO?$AA?$AA@ 1006a80c     libucrt:lcidtoname_downlevel.obj
 0002:0000881c       ??_C@_1M@IDNNEJMM@?$AAr?$AAu?$AA?9?$AAR?$AAU?$AA?$AA@ 1006a81c     libucrt:lcidtoname_downlevel.obj
 0002:0000882c       ??_C@_1M@LILEEOGM@?$AAh?$AAr?$AA?9?$AAH?$AAR?$AA?$AA@ 1006a82c     libucrt:lcidtoname_downlevel.obj
 0002:0000883c       ??_C@_1M@FKIFEHPB@?$AAs?$AAk?$AA?9?$AAS?$AAK?$AA?$AA@ 1006a83c     libucrt:lcidtoname_downlevel.obj
 0002:0000884c       ??_C@_1M@LJMAMNPJ@?$AAs?$AAq?$AA?9?$AAA?$AAL?$AA?$AA@ 1006a84c     libucrt:lcidtoname_downlevel.obj
 0002:0000885c       ??_C@_1M@GIAKDKJK@?$AAs?$AAv?$AA?9?$AAS?$AAE?$AA?$AA@ 1006a85c     libucrt:lcidtoname_downlevel.obj
 0002:0000886c       ??_C@_1M@MKJKIKCL@?$AAt?$AAh?$AA?9?$AAT?$AAH?$AA?$AA@ 1006a86c     libucrt:lcidtoname_downlevel.obj
 0002:0000887c       ??_C@_1M@MFLCCMPB@?$AAt?$AAr?$AA?9?$AAT?$AAR?$AA?$AA@ 1006a87c     libucrt:lcidtoname_downlevel.obj
 0002:0000888c       ??_C@_1M@OIJHDKJN@?$AAu?$AAr?$AA?9?$AAP?$AAK?$AA?$AA@ 1006a88c     libucrt:lcidtoname_downlevel.obj
 0002:0000889c       ??_C@_1M@LHIPCIEK@?$AAi?$AAd?$AA?9?$AAI?$AAD?$AA?$AA@ 1006a89c     libucrt:lcidtoname_downlevel.obj
 0002:000088ac       ??_C@_1M@MFMOBGI@?$AAu?$AAk?$AA?9?$AAU?$AAA?$AA?$AA@ 1006a8ac     libucrt:lcidtoname_downlevel.obj
 0002:000088bc       ??_C@_1M@OBGLJIPL@?$AAb?$AAe?$AA?9?$AAB?$AAY?$AA?$AA@ 1006a8bc     libucrt:lcidtoname_downlevel.obj
 0002:000088cc       ??_C@_1M@BCFAJEAD@?$AAs?$AAl?$AA?9?$AAS?$AAI?$AA?$AA@ 1006a8cc     libucrt:lcidtoname_downlevel.obj
 0002:000088dc       ??_C@_1M@FKFFEDDN@?$AAe?$AAt?$AA?9?$AAE?$AAE?$AA?$AA@ 1006a8dc     libucrt:lcidtoname_downlevel.obj
 0002:000088ec       ??_C@_1M@KGKKAACI@?$AAl?$AAv?$AA?9?$AAL?$AAV?$AA?$AA@ 1006a8ec     libucrt:lcidtoname_downlevel.obj
 0002:000088fc       ??_C@_1M@IFGBIJO@?$AAl?$AAt?$AA?9?$AAL?$AAT?$AA?$AA@ 1006a8fc     libucrt:lcidtoname_downlevel.obj
 0002:0000890c       ??_C@_1M@FGEAHEDM@?$AAf?$AAa?$AA?9?$AAI?$AAR?$AA?$AA@ 1006a90c     libucrt:lcidtoname_downlevel.obj
 0002:0000891c       ??_C@_1M@KBMAIBFN@?$AAv?$AAi?$AA?9?$AAV?$AAN?$AA?$AA@ 1006a91c     libucrt:lcidtoname_downlevel.obj
 0002:0000892c       ??_C@_1M@GPCBKDJK@?$AAh?$AAy?$AA?9?$AAA?$AAM?$AA?$AA@ 1006a92c     libucrt:lcidtoname_downlevel.obj
 0002:0000893c       ??_C@_1BG@BECMDDJB@?$AAa?$AAz?$AA?9?$AAA?$AAZ?$AA?9?$AAL?$AAa?$AAt?$AAn?$AA?$AA@ 1006a93c     libucrt:lcidtoname_downlevel.obj
 0002:00008958       ??_C@_1M@MAOFCAEA@?$AAe?$AAu?$AA?9?$AAE?$AAS?$AA?$AA@ 1006a958     libucrt:lcidtoname_downlevel.obj
 0002:00008968       ??_C@_1M@IGHABKPI@?$AAm?$AAk?$AA?9?$AAM?$AAK?$AA?$AA@ 1006a968     libucrt:lcidtoname_downlevel.obj
 0002:00008978       ??_C@_1M@IAIGNEJG@?$AAt?$AAn?$AA?9?$AAZ?$AAA?$AA?$AA@ 1006a978     libucrt:lcidtoname_downlevel.obj
 0002:00008988       ??_C@_1M@IIJCOJFA@?$AAx?$AAh?$AA?9?$AAZ?$AAA?$AA?$AA@ 1006a988     libucrt:lcidtoname_downlevel.obj
 0002:00008998       ??_C@_1M@LGPJHNJH@?$AAz?$AAu?$AA?9?$AAZ?$AAA?$AA?$AA@ 1006a998     libucrt:lcidtoname_downlevel.obj
 0002:000089a8       ??_C@_1M@HOKAOIO@?$AAa?$AAf?$AA?9?$AAZ?$AAA?$AA?$AA@ 1006a9a8     libucrt:lcidtoname_downlevel.obj
 0002:000089b8       ??_C@_1M@DPCLHLIE@?$AAk?$AAa?$AA?9?$AAG?$AAE?$AA?$AA@ 1006a9b8     libucrt:lcidtoname_downlevel.obj
 0002:000089c8       ??_C@_1M@BLKMHJBI@?$AAf?$AAo?$AA?9?$AAF?$AAO?$AA?$AA@ 1006a9c8     libucrt:lcidtoname_downlevel.obj
 0002:000089d8       ??_C@_1M@LGGJAPPB@?$AAh?$AAi?$AA?9?$AAI?$AAN?$AA?$AA@ 1006a9d8     libucrt:lcidtoname_downlevel.obj
 0002:000089e8       ??_C@_1M@FIKPIHFE@?$AAm?$AAt?$AA?9?$AAM?$AAT?$AA?$AA@ 1006a9e8     libucrt:lcidtoname_downlevel.obj
 0002:000089f8       ??_C@_1M@HEGGPBFA@?$AAs?$AAe?$AA?9?$AAN?$AAO?$AA?$AA@ 1006a9f8     libucrt:lcidtoname_downlevel.obj
 0002:00008a08       ??_C@_1M@EIBJEEPA@?$AAm?$AAs?$AA?9?$AAM?$AAY?$AA?$AA@ 1006aa08     libucrt:lcidtoname_downlevel.obj
 0002:00008a18       ??_C@_1M@FHLBGMPP@?$AAk?$AAk?$AA?9?$AAK?$AAZ?$AA?$AA@ 1006aa18     libucrt:lcidtoname_downlevel.obj
 0002:00008a28       ??_C@_1M@NGJJLCGI@?$AAk?$AAy?$AA?9?$AAK?$AAG?$AA?$AA@ 1006aa28     libucrt:lcidtoname_downlevel.obj
 0002:00008a38       ??_C@_1M@GIENNBFC@?$AAs?$AAw?$AA?9?$AAK?$AAE?$AA?$AA@ 1006aa38     libucrt:lcidtoname_downlevel.obj
 0002:00008a48       ??_C@_1BG@NDGMJIMJ@?$AAu?$AAz?$AA?9?$AAU?$AAZ?$AA?9?$AAL?$AAa?$AAt?$AAn?$AA?$AA@ 1006aa48     libucrt:lcidtoname_downlevel.obj
 0002:00008a64       ??_C@_1M@IDCCIHBC@?$AAt?$AAt?$AA?9?$AAR?$AAU?$AA?$AA@ 1006aa64     libucrt:lcidtoname_downlevel.obj
 0002:00008a74       ??_C@_1M@LOICPMOJ@?$AAb?$AAn?$AA?9?$AAI?$AAN?$AA?$AA@ 1006aa74     libucrt:lcidtoname_downlevel.obj
 0002:00008a84       ??_C@_1M@KPKKNEAH@?$AAp?$AAa?$AA?9?$AAI?$AAN?$AA?$AA@ 1006aa84     libucrt:lcidtoname_downlevel.obj
 0002:00008a94       ??_C@_1M@PJGPPBOG@?$AAg?$AAu?$AA?9?$AAI?$AAN?$AA?$AA@ 1006aa94     libucrt:lcidtoname_downlevel.obj
 0002:00008aa4       ??_C@_1M@KMKMOPHI@?$AAt?$AAa?$AA?9?$AAI?$AAN?$AA?$AA@ 1006aaa4     libucrt:lcidtoname_downlevel.obj
 0002:00008ab4       ??_C@_1M@KFEHEPAC@?$AAt?$AAe?$AA?9?$AAI?$AAN?$AA?$AA@ 1006aab4     libucrt:lcidtoname_downlevel.obj
 0002:00008ac4       ??_C@_1M@CDCLMGHI@?$AAk?$AAn?$AA?9?$AAI?$AAN?$AA?$AA@ 1006aac4     libucrt:lcidtoname_downlevel.obj
 0002:00008ad4       ??_C@_1M@MIODLDKF@?$AAm?$AAl?$AA?9?$AAI?$AAN?$AA?$AA@ 1006aad4     libucrt:lcidtoname_downlevel.obj
 0002:00008ae4       ??_C@_1M@PBIEACPO@?$AAm?$AAr?$AA?9?$AAI?$AAN?$AA?$AA@ 1006aae4     libucrt:lcidtoname_downlevel.obj
 0002:00008af4       ??_C@_1M@NIDEAGPH@?$AAs?$AAa?$AA?9?$AAI?$AAN?$AA?$AA@ 1006aaf4     libucrt:lcidtoname_downlevel.obj
 0002:00008b04       ??_C@_1M@FHIHCBIO@?$AAm?$AAn?$AA?9?$AAM?$AAN?$AA?$AA@ 1006ab04     libucrt:lcidtoname_downlevel.obj
 0002:00008b14       ??_C@_1M@JAIJPENP@?$AAc?$AAy?$AA?9?$AAG?$AAB?$AA?$AA@ 1006ab14     libucrt:lcidtoname_downlevel.obj
 0002:00008b24       ??_C@_1M@PHGFBEPN@?$AAg?$AAl?$AA?9?$AAE?$AAS?$AA?$AA@ 1006ab24     libucrt:lcidtoname_downlevel.obj
 0002:00008b34       ??_C@_1O@KPIPDNCP@?$AAk?$AAo?$AAk?$AA?9?$AAI?$AAN?$AA?$AA@ 1006ab34     libucrt:lcidtoname_downlevel.obj
 0002:00008b44       ??_C@_1O@KNHJLDJA@?$AAs?$AAy?$AAr?$AA?9?$AAS?$AAY?$AA?$AA@ 1006ab44     libucrt:lcidtoname_downlevel.obj
 0002:00008b54       ??_C@_1O@MKEKBLAH@?$AAd?$AAi?$AAv?$AA?9?$AAM?$AAV?$AA?$AA@ 1006ab54     libucrt:lcidtoname_downlevel.obj
 0002:00008b64       ??_C@_1O@OHDCKDDF@?$AAq?$AAu?$AAz?$AA?9?$AAB?$AAO?$AA?$AA@ 1006ab64     libucrt:lcidtoname_downlevel.obj
 0002:00008b74       ??_C@_1M@LEPJNLFD@?$AAn?$AAs?$AA?9?$AAZ?$AAA?$AA?$AA@ 1006ab74     libucrt:lcidtoname_downlevel.obj
 0002:00008b84       ??_C@_1M@OMLEIIJB@?$AAm?$AAi?$AA?9?$AAN?$AAZ?$AA?$AA@ 1006ab84     libucrt:lcidtoname_downlevel.obj
 0002:00008b94       ??_C@_1M@PMPEAILG@?$AAa?$AAr?$AA?9?$AAI?$AAQ?$AA?$AA@ 1006ab94     libucrt:lcidtoname_downlevel.obj
 0002:00008ba4       ??_C@_1M@CNKPNOEE@?$AAd?$AAe?$AA?9?$AAC?$AAH?$AA?$AA@ 1006aba4     libucrt:lcidtoname_downlevel.obj
 0002:00008bb4       ??_C@_1M@LKMGMLKO@?$AAe?$AAn?$AA?9?$AAG?$AAB?$AA?$AA@ 1006abb4     libucrt:lcidtoname_downlevel.obj
 0002:00008bc4       ??_C@_1M@PGKJFFGL@?$AAe?$AAs?$AA?9?$AAM?$AAX?$AA?$AA@ 1006abc4     libucrt:lcidtoname_downlevel.obj
 0002:00008bd4       ??_C@_1M@DNNANBDC@?$AAf?$AAr?$AA?9?$AAB?$AAE?$AA?$AA@ 1006abd4     libucrt:lcidtoname_downlevel.obj
 0002:00008be4       ??_C@_1M@HLGMDFHM@?$AAi?$AAt?$AA?9?$AAC?$AAH?$AA?$AA@ 1006abe4     libucrt:lcidtoname_downlevel.obj
 0002:00008bf4       ??_C@_1M@CLLBGJH@?$AAn?$AAl?$AA?9?$AAB?$AAE?$AA?$AA@ 1006abf4     libucrt:lcidtoname_downlevel.obj
 0002:00008c04       ??_C@_1M@BODBOGLF@?$AAn?$AAn?$AA?9?$AAN?$AAO?$AA?$AA@ 1006ac04     libucrt:lcidtoname_downlevel.obj
 0002:00008c14       ??_C@_1M@HFFAHKAD@?$AAp?$AAt?$AA?9?$AAP?$AAT?$AA?$AA@ 1006ac14     libucrt:lcidtoname_downlevel.obj
 0002:00008c24       ??_C@_1BG@LNOAKHIE@?$AAs?$AAr?$AA?9?$AAS?$AAP?$AA?9?$AAL?$AAa?$AAt?$AAn?$AA?$AA@ 1006ac24     libucrt:lcidtoname_downlevel.obj
 0002:00008c40       ??_C@_1M@HBMHBGAK@?$AAs?$AAv?$AA?9?$AAF?$AAI?$AA?$AA@ 1006ac40     libucrt:lcidtoname_downlevel.obj
 0002:00008c50       ??_C@_1BG@DGCJGJBE@?$AAa?$AAz?$AA?9?$AAA?$AAZ?$AA?9?$AAC?$AAy?$AAr?$AAl?$AA?$AA@ 1006ac50     libucrt:lcidtoname_downlevel.obj
 0002:00008c6c       ??_C@_1M@KEJDAAHB@?$AAs?$AAe?$AA?9?$AAS?$AAE?$AA?$AA@ 1006ac6c     libucrt:lcidtoname_downlevel.obj
 0002:00008c7c       ??_C@_1M@HEIBJJAD@?$AAm?$AAs?$AA?9?$AAB?$AAN?$AA?$AA@ 1006ac7c     libucrt:lcidtoname_downlevel.obj
 0002:00008c8c       ??_C@_1BG@PBGJMCEM@?$AAu?$AAz?$AA?9?$AAU?$AAZ?$AA?9?$AAC?$AAy?$AAr?$AAl?$AA?$AA@ 1006ac8c     libucrt:lcidtoname_downlevel.obj
 0002:00008ca8       ??_C@_1O@LAOBCMDF@?$AAq?$AAu?$AAz?$AA?9?$AAE?$AAC?$AA?$AA@ 1006aca8     libucrt:lcidtoname_downlevel.obj
 0002:00008cb8       ??_C@_1M@POEEMAIO@?$AAa?$AAr?$AA?9?$AAE?$AAG?$AA?$AA@ 1006acb8     libucrt:lcidtoname_downlevel.obj
 0002:00008cc8       ??_C@_1M@EFAKDEDL@?$AAz?$AAh?$AA?9?$AAH?$AAK?$AA?$AA@ 1006acc8     libucrt:lcidtoname_downlevel.obj
 0002:00008cd8       ??_C@_1M@HKKIJHGI@?$AAd?$AAe?$AA?9?$AAA?$AAT?$AA?$AA@ 1006acd8     libucrt:lcidtoname_downlevel.obj
 0002:00008ce8       ??_C@_1M@KBFBEHJF@?$AAe?$AAn?$AA?9?$AAA?$AAU?$AA?$AA@ 1006ace8     libucrt:lcidtoname_downlevel.obj
 0002:00008cf8       ??_C@_1M@MNPLFAAH@?$AAe?$AAs?$AA?9?$AAE?$AAS?$AA?$AA@ 1006acf8     libucrt:lcidtoname_downlevel.obj
 0002:00008d08       ??_C@_1M@HJOOJFMA@?$AAf?$AAr?$AA?9?$AAC?$AAA?$AA?$AA@ 1006ad08     libucrt:lcidtoname_downlevel.obj
 0002:00008d18       ??_C@_1BG@JPOFPNAB@?$AAs?$AAr?$AA?9?$AAS?$AAP?$AA?9?$AAC?$AAy?$AAr?$AAl?$AA?$AA@ 1006ad18     libucrt:lcidtoname_downlevel.obj
 0002:00008d34       ??_C@_1M@LNFOCMOB@?$AAs?$AAe?$AA?9?$AAF?$AAI?$AA?$AA@ 1006ad34     libucrt:lcidtoname_downlevel.obj
 0002:00008d44       ??_C@_1O@MGJBOAMB@?$AAq?$AAu?$AAz?$AA?9?$AAP?$AAE?$AA?$AA@ 1006ad44     libucrt:lcidtoname_downlevel.obj
 0002:00008d54       ??_C@_1M@GJINLBOK@?$AAa?$AAr?$AA?9?$AAL?$AAY?$AA?$AA@ 1006ad54     libucrt:lcidtoname_downlevel.obj
 0002:00008d64       ??_C@_1M@GGMNHJNL@?$AAz?$AAh?$AA?9?$AAS?$AAG?$AA?$AA@ 1006ad64     libucrt:lcidtoname_downlevel.obj
 0002:00008d74       ??_C@_1M@HOIKODND@?$AAd?$AAe?$AA?9?$AAL?$AAU?$AA?$AA@ 1006ad74     libucrt:lcidtoname_downlevel.obj
 0002:00008d84       ??_C@_1M@DDOCCGFG@?$AAe?$AAn?$AA?9?$AAC?$AAA?$AA?$AA@ 1006ad84     libucrt:lcidtoname_downlevel.obj
 0002:00008d94       ??_C@_1M@BNOEMJLF@?$AAe?$AAs?$AA?9?$AAG?$AAT?$AA?$AA@ 1006ad94     libucrt:lcidtoname_downlevel.obj
 0002:00008da4       ??_C@_1M@EOGNKEK@?$AAf?$AAr?$AA?9?$AAC?$AAH?$AA?$AA@ 1006ada4     libucrt:lcidtoname_downlevel.obj
 0002:00008db4       ??_C@_1M@FLIDJFHL@?$AAh?$AAr?$AA?9?$AAB?$AAA?$AA?$AA@ 1006adb4     libucrt:lcidtoname_downlevel.obj
 0002:00008dc4       ??_C@_1O@FMCELNAJ@?$AAs?$AAm?$AAj?$AA?9?$AAN?$AAO?$AA?$AA@ 1006adc4     libucrt:lcidtoname_downlevel.obj
 0002:00008dd4       ??_C@_1M@JHGLJMGJ@?$AAa?$AAr?$AA?9?$AAD?$AAZ?$AA?$AA@ 1006add4     libucrt:lcidtoname_downlevel.obj
 0002:00008de4       ??_C@_1M@JKKFDCNP@?$AAz?$AAh?$AA?9?$AAM?$AAO?$AA?$AA@ 1006ade4     libucrt:lcidtoname_downlevel.obj
 0002:00008df4       ??_C@_1M@GEEFALPE@?$AAd?$AAe?$AA?9?$AAL?$AAI?$AA?$AA@ 1006adf4     libucrt:lcidtoname_downlevel.obj
 0002:00008e04       ??_C@_1M@IGEOFBG@?$AAe?$AAn?$AA?9?$AAN?$AAZ?$AA?$AA@ 1006ae04     libucrt:lcidtoname_downlevel.obj
 0002:00008e14       ??_C@_1M@KDBONEHP@?$AAe?$AAs?$AA?9?$AAC?$AAR?$AA?$AA@ 1006ae14     libucrt:lcidtoname_downlevel.obj
 0002:00008e24       ??_C@_1M@FHMDOHNN@?$AAf?$AAr?$AA?9?$AAL?$AAU?$AA?$AA@ 1006ae24     libucrt:lcidtoname_downlevel.obj
 0002:00008e34       ??_C@_1BG@NFKKMAFG@?$AAb?$AAs?$AA?9?$AAB?$AAA?$AA?9?$AAL?$AAa?$AAt?$AAn?$AA?$AA@ 1006ae34     libucrt:lcidtoname_downlevel.obj
 0002:00008e50       ??_C@_1O@IMNBEMCI@?$AAs?$AAm?$AAj?$AA?9?$AAS?$AAE?$AA?$AA@ 1006ae50     libucrt:lcidtoname_downlevel.obj
 0002:00008e60       ??_C@_1M@DHHMBNDP@?$AAa?$AAr?$AA?9?$AAM?$AAA?$AA?$AA@ 1006ae60     libucrt:lcidtoname_downlevel.obj
 0002:00008e70       ??_C@_1M@BNBLJCGH@?$AAe?$AAn?$AA?9?$AAI?$AAE?$AA?$AA@ 1006ae70     libucrt:lcidtoname_downlevel.obj
 0002:00008e80       ??_C@_1M@GEPAFMDL@?$AAe?$AAs?$AA?9?$AAP?$AAA?$AA?$AA@ 1006ae80     libucrt:lcidtoname_downlevel.obj
 0002:00008e90       ??_C@_1M@OJONDMDL@?$AAf?$AAr?$AA?9?$AAM?$AAC?$AA?$AA@ 1006ae90     libucrt:lcidtoname_downlevel.obj
 0002:00008ea0       ??_C@_1BG@OBCNFJB@?$AAs?$AAr?$AA?9?$AAB?$AAA?$AA?9?$AAL?$AAa?$AAt?$AAn?$AA?$AA@ 1006aea0     libucrt:lcidtoname_downlevel.obj
 0002:00008ebc       ??_C@_1O@KEMEEGPO@?$AAs?$AAm?$AAa?$AA?9?$AAN?$AAO?$AA?$AA@ 1006aebc     libucrt:lcidtoname_downlevel.obj
 0002:00008ecc       ??_C@_1M@ELMGFODK@?$AAa?$AAr?$AA?9?$AAT?$AAN?$AA?$AA@ 1006aecc     libucrt:lcidtoname_downlevel.obj
 0002:00008edc       ??_C@_1M@BHDLHFAF@?$AAe?$AAn?$AA?9?$AAZ?$AAA?$AA?$AA@ 1006aedc     libucrt:lcidtoname_downlevel.obj
 0002:00008eec       ??_C@_1M@BMGIGLIF@?$AAe?$AAs?$AA?9?$AAD?$AAO?$AA?$AA@ 1006aeec     libucrt:lcidtoname_downlevel.obj
 0002:00008efc       ??_C@_1BG@CMBHIPBE@?$AAs?$AAr?$AA?9?$AAB?$AAA?$AA?9?$AAC?$AAy?$AAr?$AAl?$AA?$AA@ 1006aefc     libucrt:lcidtoname_downlevel.obj
 0002:00008f18       ??_C@_1O@HEDBLHNP@?$AAs?$AAm?$AAa?$AA?9?$AAS?$AAE?$AA?$AA@ 1006af18     libucrt:lcidtoname_downlevel.obj
 0002:00008f28       ??_C@_1M@DAGCADIM@?$AAa?$AAr?$AA?9?$AAO?$AAM?$AA?$AA@ 1006af28     libucrt:lcidtoname_downlevel.obj
 0002:00008f38       ??_C@_1M@FODLMICG@?$AAe?$AAn?$AA?9?$AAJ?$AAM?$AA?$AA@ 1006af38     libucrt:lcidtoname_downlevel.obj
 0002:00008f48       ??_C@_1M@DNMLCIHB@?$AAe?$AAs?$AA?9?$AAV?$AAE?$AA?$AA@ 1006af48     libucrt:lcidtoname_downlevel.obj
 0002:00008f58       ??_C@_1O@EOKHMKJK@?$AAs?$AAm?$AAs?$AA?9?$AAF?$AAI?$AA?$AA@ 1006af58     libucrt:lcidtoname_downlevel.obj
 0002:00008f68       ??_C@_1M@CAFJMKOF@?$AAa?$AAr?$AA?9?$AAY?$AAE?$AA?$AA@ 1006af68     libucrt:lcidtoname_downlevel.obj
 0002:00008f78       ??_C@_1M@CBFHIJLI@?$AAe?$AAn?$AA?9?$AAC?$AAB?$AA?$AA@ 1006af78     libucrt:lcidtoname_downlevel.obj
 0002:00008f88       ??_C@_1M@BGNFLDN@?$AAe?$AAs?$AA?9?$AAC?$AAO?$AA?$AA@ 1006af88     libucrt:lcidtoname_downlevel.obj
 0002:00008f98       ??_C@_1O@JMPHMAMC@?$AAs?$AAm?$AAn?$AA?9?$AAF?$AAI?$AA?$AA@ 1006af98     libucrt:lcidtoname_downlevel.obj
 0002:00008fa8       ??_C@_1M@JLANABKE@?$AAa?$AAr?$AA?9?$AAS?$AAY?$AA?$AA@ 1006afa8     libucrt:lcidtoname_downlevel.obj
 0002:00008fb8       ??_C@_1M@HPKGCFGN@?$AAe?$AAn?$AA?9?$AAB?$AAZ?$AA?$AA@ 1006afb8     libucrt:lcidtoname_downlevel.obj
 0002:00008fc8       ??_C@_1M@OLJCMLGM@?$AAe?$AAs?$AA?9?$AAP?$AAE?$AA?$AA@ 1006afc8     libucrt:lcidtoname_downlevel.obj
 0002:00008fd8       ??_C@_1M@MKKGFKLE@?$AAa?$AAr?$AA?9?$AAJ?$AAO?$AA?$AA@ 1006afd8     libucrt:lcidtoname_downlevel.obj
 0002:00008fe8       ??_C@_1M@EKPGLDNI@?$AAe?$AAn?$AA?9?$AAT?$AAT?$AA?$AA@ 1006afe8     libucrt:lcidtoname_downlevel.obj
 0002:00008ff8       ??_C@_1M@OONGHFHE@?$AAe?$AAs?$AA?9?$AAA?$AAR?$AA?$AA@ 1006aff8     libucrt:lcidtoname_downlevel.obj
 0002:00009008       ??_C@_1M@OOJFGBHE@?$AAa?$AAr?$AA?9?$AAL?$AAB?$AA?$AA@ 1006b008     libucrt:lcidtoname_downlevel.obj
 0002:00009018       ??_C@_1M@GCEJHNEG@?$AAe?$AAn?$AA?9?$AAZ?$AAW?$AA?$AA@ 1006b018     libucrt:lcidtoname_downlevel.obj
 0002:00009028       ??_C@_1M@JNOCAHJI@?$AAe?$AAs?$AA?9?$AAE?$AAC?$AA?$AA@ 1006b028     libucrt:lcidtoname_downlevel.obj
 0002:00009038       ??_C@_1M@JEFHPGGB@?$AAa?$AAr?$AA?9?$AAK?$AAW?$AA?$AA@ 1006b038     libucrt:lcidtoname_downlevel.obj
 0002:00009048       ??_C@_1M@MLKIBJOJ@?$AAe?$AAn?$AA?9?$AAP?$AAH?$AA?$AA@ 1006b048     libucrt:lcidtoname_downlevel.obj
 0002:00009058       ??_C@_1M@BDNIPEND@?$AAe?$AAs?$AA?9?$AAC?$AAL?$AA?$AA@ 1006b058     libucrt:lcidtoname_downlevel.obj
 0002:00009068       ??_C@_1M@MPNMEKBD@?$AAa?$AAr?$AA?9?$AAA?$AAE?$AA?$AA@ 1006b068     libucrt:lcidtoname_downlevel.obj
 0002:00009078       ??_C@_1M@KBJALCPI@?$AAe?$AAs?$AA?9?$AAU?$AAY?$AA?$AA@ 1006b078     libucrt:lcidtoname_downlevel.obj
 0002:00009088       ??_C@_1M@LLCCOAGA@?$AAa?$AAr?$AA?9?$AAB?$AAH?$AA?$AA@ 1006b088     libucrt:lcidtoname_downlevel.obj
 0002:00009098       ??_C@_1M@PBFNCDEL@?$AAe?$AAs?$AA?9?$AAP?$AAY?$AA?$AA@ 1006b098     libucrt:lcidtoname_downlevel.obj
 0002:000090a8       ??_C@_1M@EDGINPNP@?$AAa?$AAr?$AA?9?$AAQ?$AAA?$AA?$AA@ 1006b0a8     libucrt:lcidtoname_downlevel.obj
 0002:000090b8       ??_C@_1M@MKDBIIJI@?$AAe?$AAs?$AA?9?$AAB?$AAO?$AA?$AA@ 1006b0b8     libucrt:lcidtoname_downlevel.obj
 0002:000090c8       ??_C@_1M@CPKKEBLD@?$AAe?$AAs?$AA?9?$AAS?$AAV?$AA?$AA@ 1006b0c8     libucrt:lcidtoname_downlevel.obj
 0002:000090d8       ??_C@_1M@NDBGMMJL@?$AAe?$AAs?$AA?9?$AAH?$AAN?$AA?$AA@ 1006b0d8     libucrt:lcidtoname_downlevel.obj
 0002:000090e8       ??_C@_1M@JIJIBHDP@?$AAe?$AAs?$AA?9?$AAN?$AAI?$AA?$AA@ 1006b0e8     libucrt:lcidtoname_downlevel.obj
 0002:000090f8       ??_C@_1M@CGFMKEEK@?$AAe?$AAs?$AA?9?$AAP?$AAR?$AA?$AA@ 1006b0f8     libucrt:lcidtoname_downlevel.obj
 0002:00009108       ??_C@_1O@ICJHKIIK@?$AAz?$AAh?$AA?9?$AAC?$AAH?$AAT?$AA?$AA@ 1006b108     libucrt:lcidtoname_downlevel.obj
 0002:00009118       ??_C@_15CLNEJCE@?$AAs?$AAr?$AA?$AA@ 1006b118     libucrt:lcidtoname_downlevel.obj
 0002:000099ac       ??_C@_1M@KAHEKEIG@?$AAa?$AAf?$AA?9?$AAz?$AAa?$AA?$AA@ 1006b9ac     libucrt:lcidtoname_downlevel.obj
 0002:000099bc       ??_C@_1M@GIECOABL@?$AAa?$AAr?$AA?9?$AAa?$AAe?$AA?$AA@ 1006b9bc     libucrt:lcidtoname_downlevel.obj
 0002:000099cc       ??_C@_1M@BMLMEKGI@?$AAa?$AAr?$AA?9?$AAb?$AAh?$AA?$AA@ 1006b9cc     libucrt:lcidtoname_downlevel.obj
 0002:000099dc       ??_C@_1M@DAPFDGGB@?$AAa?$AAr?$AA?9?$AAd?$AAz?$AA?$AA@ 1006b9dc     libucrt:lcidtoname_downlevel.obj
 0002:000099ec       ??_C@_1M@FJNKGKIG@?$AAa?$AAr?$AA?9?$AAe?$AAg?$AA?$AA@ 1006b9ec     libucrt:lcidtoname_downlevel.obj
 0002:000099fc       ??_C@_1M@FLGKKCLO@?$AAa?$AAr?$AA?9?$AAi?$AAq?$AA?$AA@ 1006b9fc     libucrt:lcidtoname_downlevel.obj
 0002:00009a0c       ??_C@_1M@GNDIPALM@?$AAa?$AAr?$AA?9?$AAj?$AAo?$AA?$AA@ 1006ba0c     libucrt:lcidtoname_downlevel.obj
 0002:00009a1c       ??_C@_1M@DDMJFMGJ@?$AAa?$AAr?$AA?9?$AAk?$AAw?$AA?$AA@ 1006ba1c     libucrt:lcidtoname_downlevel.obj
 0002:00009a2c       ??_C@_1M@EJALMLHM@?$AAa?$AAr?$AA?9?$AAl?$AAb?$AA?$AA@ 1006ba2c     libucrt:lcidtoname_downlevel.obj
 0002:00009a3c       ??_C@_1M@MOBDBLOC@?$AAa?$AAr?$AA?9?$AAl?$AAy?$AA?$AA@ 1006ba3c     libucrt:lcidtoname_downlevel.obj
 0002:00009a4c       ??_C@_1M@JAOCLHDH@?$AAa?$AAr?$AA?9?$AAm?$AAa?$AA?$AA@ 1006ba4c     libucrt:lcidtoname_downlevel.obj
 0002:00009a5c       ??_C@_1M@JHPMKJIE@?$AAa?$AAr?$AA?9?$AAo?$AAm?$AA?$AA@ 1006ba5c     libucrt:lcidtoname_downlevel.obj
 0002:00009a6c       ??_C@_1M@OEPGHFNH@?$AAa?$AAr?$AA?9?$AAq?$AAa?$AA?$AA@ 1006ba6c     libucrt:lcidtoname_downlevel.obj
 0002:00009a7c       ??_C@_1M@KJDONENM@?$AAa?$AAr?$AA?9?$AAs?$AAa?$AA?$AA@ 1006ba7c     libucrt:lcidtoname_downlevel.obj
 0002:00009a8c       ??_C@_1M@DMJDKLKM@?$AAa?$AAr?$AA?9?$AAs?$AAy?$AA?$AA@ 1006ba8c     libucrt:lcidtoname_downlevel.obj
 0002:00009a9c       ??_C@_1M@OMFIPEDC@?$AAa?$AAr?$AA?9?$AAt?$AAn?$AA?$AA@ 1006ba9c     libucrt:lcidtoname_downlevel.obj
 0002:00009aac       ??_C@_1M@IHMHGAON@?$AAa?$AAr?$AA?9?$AAy?$AAe?$AA?$AA@ 1006baac     libucrt:lcidtoname_downlevel.obj
 0002:00009abc       ??_C@_1BG@KDCPGJGB@?$AAa?$AAz?$AA?9?$AAa?$AAz?$AA?9?$AAc?$AAy?$AAr?$AAl?$AA?$AA@ 1006babc     libucrt:lcidtoname_downlevel.obj
 0002:00009ad8       ??_C@_1BG@IBCKDDOE@?$AAa?$AAz?$AA?9?$AAa?$AAz?$AA?9?$AAl?$AAa?$AAt?$AAn?$AA?$AA@ 1006bad8     libucrt:lcidtoname_downlevel.obj
 0002:00009af4       ??_C@_1M@EGPFDCPD@?$AAb?$AAe?$AA?9?$AAb?$AAy?$AA?$AA@ 1006baf4     libucrt:lcidtoname_downlevel.obj
 0002:00009b04       ??_C@_1M@PCMGMCGC@?$AAb?$AAg?$AA?9?$AAb?$AAg?$AA?$AA@ 1006bb04     libucrt:lcidtoname_downlevel.obj
 0002:00009b14       ??_C@_1M@BJBMFGOB@?$AAb?$AAn?$AA?9?$AAi?$AAn?$AA?$AA@ 1006bb14     libucrt:lcidtoname_downlevel.obj
 0002:00009b24       ??_C@_1BG@EAKMMACD@?$AAb?$AAs?$AA?9?$AAb?$AAa?$AA?9?$AAl?$AAa?$AAt?$AAn?$AA?$AA@ 1006bb24     libucrt:lcidtoname_downlevel.obj
 0002:00009b40       ??_C@_1M@KGADAODK@?$AAc?$AAa?$AA?9?$AAe?$AAs?$AA?$AA@ 1006bb40     libucrt:lcidtoname_downlevel.obj
 0002:00009b50       ??_C@_1M@COAJPDHI@?$AAc?$AAs?$AA?9?$AAc?$AAz?$AA?$AA@ 1006bb50     libucrt:lcidtoname_downlevel.obj
 0002:00009b60       ??_C@_1M@DHBHFONH@?$AAc?$AAy?$AA?9?$AAg?$AAb?$AA?$AA@ 1006bb60     libucrt:lcidtoname_downlevel.obj
 0002:00009b70       ??_C@_1M@IMGKELGA@?$AAd?$AAa?$AA?9?$AAd?$AAk?$AA?$AA@ 1006bb70     libucrt:lcidtoname_downlevel.obj
 0002:00009b80       ??_C@_1M@NNDGDNGA@?$AAd?$AAe?$AA?9?$AAa?$AAt?$AA?$AA@ 1006bb80     libucrt:lcidtoname_downlevel.obj
 0002:00009b90       ??_C@_1M@IKDBHEEM@?$AAd?$AAe?$AA?9?$AAc?$AAh?$AA?$AA@ 1006bb90     libucrt:lcidtoname_downlevel.obj
 0002:00009ba0       ??_C@_1M@GFFOJMCJ@?$AAd?$AAe?$AA?9?$AAd?$AAe?$AA?$AA@ 1006bba0     libucrt:lcidtoname_downlevel.obj
 0002:00009bb0       ??_C@_1M@MDNLKBPM@?$AAd?$AAe?$AA?9?$AAl?$AAi?$AA?$AA@ 1006bbb0     libucrt:lcidtoname_downlevel.obj
 0002:00009bc0       ??_C@_1M@NJBEEJNL@?$AAd?$AAe?$AA?9?$AAl?$AAu?$AA?$AA@ 1006bbc0     libucrt:lcidtoname_downlevel.obj
 0002:00009bd0       ??_C@_1O@GNNELBAP@?$AAd?$AAi?$AAv?$AA?9?$AAm?$AAv?$AA?$AA@ 1006bbd0     libucrt:lcidtoname_downlevel.obj
 0002:00009be0       ??_C@_1M@EJLEOGAE@?$AAe?$AAl?$AA?9?$AAg?$AAr?$AA?$AA@ 1006bbe0     libucrt:lcidtoname_downlevel.obj
 0002:00009bf0       ??_C@_1M@GMPONJN@?$AAe?$AAn?$AA?9?$AAa?$AAu?$AA?$AA@ 1006bbf0     libucrt:lcidtoname_downlevel.obj
 0002:00009c00       ??_C@_1M@NIDIIPGF@?$AAe?$AAn?$AA?9?$AAb?$AAz?$AA?$AA@ 1006bc00     libucrt:lcidtoname_downlevel.obj
 0002:00009c10       ??_C@_1M@JEHMIMFO@?$AAe?$AAn?$AA?9?$AAc?$AAa?$AA?$AA@ 1006bc10     libucrt:lcidtoname_downlevel.obj
 0002:00009c20       ??_C@_1M@IGMJCDLA@?$AAe?$AAn?$AA?9?$AAc?$AAb?$AA?$AA@ 1006bc20     libucrt:lcidtoname_downlevel.obj
 0002:00009c30       ??_C@_1M@BNFIGBKG@?$AAe?$AAn?$AA?9?$AAg?$AAb?$AA?$AA@ 1006bc30     libucrt:lcidtoname_downlevel.obj
 0002:00009c40       ??_C@_1M@LKIFDIGP@?$AAe?$AAn?$AA?9?$AAi?$AAe?$AA?$AA@ 1006bc40     libucrt:lcidtoname_downlevel.obj
 0002:00009c50       ??_C@_1M@PJKFGCCO@?$AAe?$AAn?$AA?9?$AAj?$AAm?$AA?$AA@ 1006bc50     libucrt:lcidtoname_downlevel.obj
 0002:00009c60       ??_C@_1M@KPPKEPBO@?$AAe?$AAn?$AA?9?$AAn?$AAz?$AA?$AA@ 1006bc60     libucrt:lcidtoname_downlevel.obj
 0002:00009c70       ??_C@_1M@GMDGLDOB@?$AAe?$AAn?$AA?9?$AAp?$AAh?$AA?$AA@ 1006bc70     libucrt:lcidtoname_downlevel.obj
 0002:00009c80       ??_C@_1M@ONGIBJNA@?$AAe?$AAn?$AA?9?$AAt?$AAt?$AA?$AA@ 1006bc80     libucrt:lcidtoname_downlevel.obj
 0002:00009c90       ??_C@_1M@LLODPCMM@?$AAe?$AAn?$AA?9?$AAu?$AAs?$AA?$AA@ 1006bc90     libucrt:lcidtoname_downlevel.obj
 0002:00009ca0       ??_C@_1M@LAKFNPAN@?$AAe?$AAn?$AA?9?$AAz?$AAa?$AA?$AA@ 1006bca0     libucrt:lcidtoname_downlevel.obj
 0002:00009cb0       ??_C@_1M@MFNHNHEO@?$AAe?$AAn?$AA?9?$AAz?$AAw?$AA?$AA@ 1006bcb0     libucrt:lcidtoname_downlevel.obj
 0002:00009cc0       ??_C@_1M@EJEINPHM@?$AAe?$AAs?$AA?9?$AAa?$AAr?$AA?$AA@ 1006bcc0     libucrt:lcidtoname_downlevel.obj
 0002:00009cd0       ??_C@_1M@GNKPCCJA@?$AAe?$AAs?$AA?9?$AAb?$AAo?$AA?$AA@ 1006bcd0     libucrt:lcidtoname_downlevel.obj
 0002:00009ce0       ??_C@_1M@LEEGFONL@?$AAe?$AAs?$AA?9?$AAc?$AAl?$AA?$AA@ 1006bce0     libucrt:lcidtoname_downlevel.obj
 0002:00009cf0       ??_C@_1M@KGPDPBDF@?$AAe?$AAs?$AA?9?$AAc?$AAo?$AA?$AA@ 1006bcf0     libucrt:lcidtoname_downlevel.obj
 0002:00009d00       ??_C@_1M@EIAHOHH@?$AAe?$AAs?$AA?9?$AAc?$AAr?$AA?$AA@ 1006bd00     libucrt:lcidtoname_downlevel.obj
 0002:00009d10       ??_C@_1M@LLPGMBIN@?$AAe?$AAs?$AA?9?$AAd?$AAo?$AA?$AA@ 1006bd10     libucrt:lcidtoname_downlevel.obj
 0002:00009d20       ??_C@_1M@DKHMKNJA@?$AAe?$AAs?$AA?9?$AAe?$AAc?$AA?$AA@ 1006bd20     libucrt:lcidtoname_downlevel.obj
 0002:00009d30       ??_C@_1M@GKGFPKAP@?$AAe?$AAs?$AA?9?$AAe?$AAs?$AA?$AA@ 1006bd30     libucrt:lcidtoname_downlevel.obj
 0002:00009d40       ??_C@_1M@LKHKGDLN@?$AAe?$AAs?$AA?9?$AAg?$AAt?$AA?$AA@ 1006bd40     libucrt:lcidtoname_downlevel.obj
 0002:00009d50       ??_C@_1M@HEIIGGJD@?$AAe?$AAs?$AA?9?$AAh?$AAn?$AA?$AA@ 1006bd50     libucrt:lcidtoname_downlevel.obj
 0002:00009d60       ??_C@_1M@FBDHPPGD@?$AAe?$AAs?$AA?9?$AAm?$AAx?$AA?$AA@ 1006bd60     libucrt:lcidtoname_downlevel.obj
 0002:00009d70       ??_C@_1M@DPAGLNDH@?$AAe?$AAs?$AA?9?$AAn?$AAi?$AA?$AA@ 1006bd70     libucrt:lcidtoname_downlevel.obj
 0002:00009d80       ??_C@_1M@MDGOPGDD@?$AAe?$AAs?$AA?9?$AAp?$AAa?$AA?$AA@ 1006bd80     libucrt:lcidtoname_downlevel.obj
 0002:00009d90       ??_C@_1M@EMAMGBGE@?$AAe?$AAs?$AA?9?$AAp?$AAe?$AA?$AA@ 1006bd90     libucrt:lcidtoname_downlevel.obj
 0002:00009da0       ??_C@_1M@IBMCAOEC@?$AAe?$AAs?$AA?9?$AAp?$AAr?$AA?$AA@ 1006bda0     libucrt:lcidtoname_downlevel.obj
 0002:00009db0       ??_C@_1M@FGMDIJED@?$AAe?$AAs?$AA?9?$AAp?$AAy?$AA?$AA@ 1006bdb0     libucrt:lcidtoname_downlevel.obj
 0002:00009dc0       ??_C@_1M@IIDEOLLL@?$AAe?$AAs?$AA?9?$AAs?$AAv?$AA?$AA@ 1006bdc0     libucrt:lcidtoname_downlevel.obj
 0002:00009dd0       ??_C@_1M@GAOBIPA@?$AAe?$AAs?$AA?9?$AAu?$AAy?$AA?$AA@ 1006bdd0     libucrt:lcidtoname_downlevel.obj
 0002:00009de0       ??_C@_1M@JKFFICHJ@?$AAe?$AAs?$AA?9?$AAv?$AAe?$AA?$AA@ 1006bde0     libucrt:lcidtoname_downlevel.obj
 0002:00009df0       ??_C@_1M@PNMLOJDF@?$AAe?$AAt?$AA?9?$AAe?$AAe?$AA?$AA@ 1006bdf0     libucrt:lcidtoname_downlevel.obj
 0002:00009e00       ??_C@_1M@GHHLIKEI@?$AAe?$AAu?$AA?9?$AAe?$AAs?$AA?$AA@ 1006be00     libucrt:lcidtoname_downlevel.obj
 0002:00009e10       ??_C@_1M@PBNONODE@?$AAf?$AAa?$AA?9?$AAi?$AAr?$AA?$AA@ 1006be10     libucrt:lcidtoname_downlevel.obj
 0002:00009e20       ??_C@_1M@JEEHPMIL@?$AAf?$AAi?$AA?9?$AAf?$AAi?$AA?$AA@ 1006be20     libucrt:lcidtoname_downlevel.obj
 0002:00009e30       ??_C@_1M@LMDCNDBA@?$AAf?$AAo?$AA?9?$AAf?$AAo?$AA?$AA@ 1006be30     libucrt:lcidtoname_downlevel.obj
 0002:00009e40       ??_C@_1M@JKEOHLDK@?$AAf?$AAr?$AA?9?$AAb?$AAe?$AA?$AA@ 1006be40     libucrt:lcidtoname_downlevel.obj
 0002:00009e50       ??_C@_1M@NOHADPMI@?$AAf?$AAr?$AA?9?$AAc?$AAa?$AA?$AA@ 1006be50     libucrt:lcidtoname_downlevel.obj
 0002:00009e60       ??_C@_1M@KDHIHAEC@?$AAf?$AAr?$AA?9?$AAc?$AAh?$AA?$AA@ 1006be60     libucrt:lcidtoname_downlevel.obj
 0002:00009e70       ??_C@_1M@MMBBFGAK@?$AAf?$AAr?$AA?9?$AAf?$AAr?$AA?$AA@ 1006be70     libucrt:lcidtoname_downlevel.obj
 0002:00009e80       ??_C@_1M@PAFNENNF@?$AAf?$AAr?$AA?9?$AAl?$AAu?$AA?$AA@ 1006be80     libucrt:lcidtoname_downlevel.obj
 0002:00009e90       ??_C@_1M@EOHDJGDD@?$AAf?$AAr?$AA?9?$AAm?$AAc?$AA?$AA@ 1006be90     libucrt:lcidtoname_downlevel.obj
 0002:00009ea0       ??_C@_1M@FAPLLOPF@?$AAg?$AAl?$AA?9?$AAe?$AAs?$AA?$AA@ 1006bea0     libucrt:lcidtoname_downlevel.obj
 0002:00009eb0       ??_C@_1M@FOPBFLOO@?$AAg?$AAu?$AA?9?$AAi?$AAn?$AA?$AA@ 1006beb0     libucrt:lcidtoname_downlevel.obj
 0002:00009ec0       ??_C@_1M@KBMCINPM@?$AAh?$AAe?$AA?9?$AAi?$AAl?$AA?$AA@ 1006bec0     libucrt:lcidtoname_downlevel.obj
 0002:00009ed0       ??_C@_1M@BBPHKFPJ@?$AAh?$AAi?$AA?9?$AAi?$AAn?$AA?$AA@ 1006bed0     libucrt:lcidtoname_downlevel.obj
 0002:00009ee0       ??_C@_1M@PMBNDPHD@?$AAh?$AAr?$AA?9?$AAb?$AAa?$AA?$AA@ 1006bee0     libucrt:lcidtoname_downlevel.obj
 0002:00009ef0       ??_C@_1M@BPCKOEGE@?$AAh?$AAr?$AA?9?$AAh?$AAr?$AA?$AA@ 1006bef0     libucrt:lcidtoname_downlevel.obj
 0002:00009f00       ??_C@_1M@GACBMHKE@?$AAh?$AAu?$AA?9?$AAh?$AAu?$AA?$AA@ 1006bf00     libucrt:lcidtoname_downlevel.obj
 0002:00009f10       ??_C@_1M@MILPAJJC@?$AAh?$AAy?$AA?9?$AAa?$AAm?$AA?$AA@ 1006bf10     libucrt:lcidtoname_downlevel.obj
 0002:00009f20       ??_C@_1M@BABBICEC@?$AAi?$AAd?$AA?9?$AAi?$AAd?$AA?$AA@ 1006bf20     libucrt:lcidtoname_downlevel.obj
 0002:00009f30       ??_C@_1M@BIKNHHPF@?$AAi?$AAs?$AA?9?$AAi?$AAs?$AA?$AA@ 1006bf30     libucrt:lcidtoname_downlevel.obj
 0002:00009f40       ??_C@_1M@NMPCJPHE@?$AAi?$AAt?$AA?9?$AAc?$AAh?$AA?$AA@ 1006bf40     libucrt:lcidtoname_downlevel.obj
 0002:00009f50       ??_C@_1M@GHKGFEDF@?$AAi?$AAt?$AA?9?$AAi?$AAt?$AA?$AA@ 1006bf50     libucrt:lcidtoname_downlevel.obj
 0002:00009f60       ??_C@_1M@NIEJCJJA@?$AAj?$AAa?$AA?9?$AAj?$AAp?$AA?$AA@ 1006bf60     libucrt:lcidtoname_downlevel.obj
 0002:00009f70       ??_C@_1M@JILFNBIM@?$AAk?$AAa?$AA?9?$AAg?$AAe?$AA?$AA@ 1006bf70     libucrt:lcidtoname_downlevel.obj
 0002:00009f80       ??_C@_1M@PACPMGPH@?$AAk?$AAk?$AA?9?$AAk?$AAz?$AA?$AA@ 1006bf80     libucrt:lcidtoname_downlevel.obj
 0002:00009f90       ??_C@_1M@IELFGMHA@?$AAk?$AAn?$AA?9?$AAi?$AAn?$AA?$AA@ 1006bf90     libucrt:lcidtoname_downlevel.obj
 0002:00009fa0       ??_C@_1O@IBBJHCH@?$AAk?$AAo?$AAk?$AA?9?$AAi?$AAn?$AA?$AA@ 1006bfa0     libucrt:lcidtoname_downlevel.obj
 0002:00009fb0       ??_C@_1M@DMHAEOGC@?$AAk?$AAo?$AA?9?$AAk?$AAr?$AA?$AA@ 1006bfb0     libucrt:lcidtoname_downlevel.obj
 0002:00009fc0       ??_C@_1M@HBAHBIGA@?$AAk?$AAy?$AA?9?$AAk?$AAg?$AA?$AA@ 1006bfc0     libucrt:lcidtoname_downlevel.obj
 0002:00009fd0       ??_C@_1M@KPMILCJG@?$AAl?$AAt?$AA?9?$AAl?$AAt?$AA?$AA@ 1006bfd0     libucrt:lcidtoname_downlevel.obj
 0002:00009fe0       ??_C@_1M@BDEKKCA@?$AAl?$AAv?$AA?9?$AAl?$AAv?$AA?$AA@ 1006bfe0     libucrt:lcidtoname_downlevel.obj
 0002:00009ff0       ??_C@_1M@ELCKCCJJ@?$AAm?$AAi?$AA?9?$AAn?$AAz?$AA?$AA@ 1006bff0     libucrt:lcidtoname_downlevel.obj
 0002:0000a000       ??_C@_1M@CBOOLAPA@?$AAm?$AAk?$AA?9?$AAm?$AAk?$AA?$AA@ 1006c000     libucrt:lcidtoname_downlevel.obj
 0002:0000a010       ??_C@_1M@GPHNBJKN@?$AAm?$AAl?$AA?9?$AAi?$AAn?$AA?$AA@ 1006c010     libucrt:lcidtoname_downlevel.obj
 0002:0000a020       ??_C@_1M@PABJILIG@?$AAm?$AAn?$AA?9?$AAm?$AAn?$AA?$AA@ 1006c020     libucrt:lcidtoname_downlevel.obj
 0002:0000a030       ??_C@_1M@FGBKKIPG@?$AAm?$AAr?$AA?9?$AAi?$AAn?$AA?$AA@ 1006c030     libucrt:lcidtoname_downlevel.obj
 0002:0000a040       ??_C@_1M@NDBPDDAL@?$AAm?$AAs?$AA?9?$AAb?$AAn?$AA?$AA@ 1006c040     libucrt:lcidtoname_downlevel.obj
 0002:0000a050       ??_C@_1M@OPIHOOPI@?$AAm?$AAs?$AA?9?$AAm?$AAy?$AA?$AA@ 1006c050     libucrt:lcidtoname_downlevel.obj
 0002:0000a060       ??_C@_1M@PPDBCNFM@?$AAm?$AAt?$AA?9?$AAm?$AAt?$AA?$AA@ 1006c060     libucrt:lcidtoname_downlevel.obj
 0002:0000a070       ??_C@_1M@KDJDKMDD@?$AAn?$AAb?$AA?9?$AAn?$AAo?$AA?$AA@ 1006c070     libucrt:lcidtoname_downlevel.obj
 0002:0000a080       ??_C@_1M@KFCFLMJP@?$AAn?$AAl?$AA?9?$AAb?$AAe?$AA?$AA@ 1006c080     libucrt:lcidtoname_downlevel.obj
 0002:0000a090       ??_C@_1M@KPOPDDGO@?$AAn?$AAl?$AA?9?$AAn?$AAl?$AA?$AA@ 1006c090     libucrt:lcidtoname_downlevel.obj
 0002:0000a0a0       ??_C@_1M@LJKPEMLN@?$AAn?$AAn?$AA?9?$AAn?$AAo?$AA?$AA@ 1006c0a0     libucrt:lcidtoname_downlevel.obj
 0002:0000a0b0       ??_C@_1M@BDGHHBFL@?$AAn?$AAs?$AA?9?$AAz?$AAa?$AA?$AA@ 1006c0b0     libucrt:lcidtoname_downlevel.obj
 0002:0000a0c0       ??_C@_1M@IDEHOAP@?$AAp?$AAa?$AA?9?$AAi?$AAn?$AA?$AA@ 1006c0c0     libucrt:lcidtoname_downlevel.obj
 0002:0000a0d0       ??_C@_1M@HDBKGOGH@?$AAp?$AAl?$AA?9?$AAp?$AAl?$AA?$AA@ 1006c0d0     libucrt:lcidtoname_downlevel.obj
 0002:0000a0e0       ??_C@_1M@LJLLCMEH@?$AAp?$AAt?$AA?9?$AAb?$AAr?$AA?$AA@ 1006c0e0     libucrt:lcidtoname_downlevel.obj
