 aa_xpc

 Timestamp is 5f5ed317 (Mon Sep 14 10:19:03 2020)

 Preferred load address is 10000000

 Start         Length     Name                   Class
 0001:00000000 000385a0H .text$mn                CODE
 0002:00000000 00000104H .CRT$XCA                DATA
 0002:00000104 00000104H .CRT$XCZ                DATA
 0002:00000208 00000104H .CRT$XIA                DATA
 0002:0000030c 00000113H .CRT$XIC                DATA
 0002:00000420 00000104H .CRT$XIZ                DATA
 0002:00000524 00000104H .CRT$XPA                DATA
 0002:00000628 00000109H .CRT$XPX                DATA
 0002:00000734 00000104H .CRT$XPXA               DATA
 0002:00000838 00000104H .CRT$XPZ                DATA
 0002:0000093c 00000104H .CRT$XTA                DATA
 0002:00000a40 00000104H .CRT$XTZ                DATA
 0002:00000b50 00009391H .rdata                  DATA
 0002:00009ee4 0000017cH .rdata$debug            DATA
 0002:0000a060 0000010eH .rdata$sxdata           DATA
 0002:0000a170 00000104H .rtc$IAA                DATA
 0002:0000a274 00000104H .rtc$IZZ                DATA
 0002:0000a378 00000104H .rtc$TAA                DATA
 0002:0000a47c 00000104H .rtc$TZZ                DATA
 0002:0000a580 00000991H .xdata$x                DATA
 0002:0000af20 000001d9H .edata                  DATA
 0003:00000000 00001a0cH .data                   DATA
 0003:00001a20 00013bc4H .bss                    DATA
 0004:00000000 000001b0H .idata$5                DATA
 0004:000001b0 00000014H .idata$2                DATA
 0004:000001c4 00000014H .idata$3                DATA
 0004:000001d8 000001b0H .idata$4                DATA
 0004:00000388 0000076bH .idata$6                DATA

  Address         Publics by Value              Rva+Base       Lib:Object

 0000:00000000       ___guard_flags             00000000     <absolute>
 0000:00000000       __except_list              00000000     <absolute>
 0000:00000000       ___guard_fids_count        00000000     <absolute>
 0000:00000000       ___guard_fids_table        00000000     <absolute>
 0000:00000003       ___safe_se_handler_count   00000003     <absolute>
 0000:00000000       ___ImageBase               10000000     <linker-defined>
 0001:00000280       _MdlInitialize             10001280 f   aa.obj
 0001:00000290       _MdlInitializeSampleTimes  10001290 f   aa.obj
 0001:000002a0       _MdlInitializeSizes        100012a0 f   aa.obj
 0001:000002b0       _MdlOutputs                100012b0 f   aa.obj
 0001:000002e0       _MdlStart                  100012e0 f   aa.obj
 0001:000002f0       _MdlTerminate              100012f0 f   aa.obj
 0001:00000300       _MdlUpdate                 10001300 f   aa.obj
 0001:00000390       _aa                        10001390 f   aa.obj
 0001:00000830       _aa_GetCAPIStaticMap       10001830 f   aa_capi.obj
 0001:00000840       _aa_InitializeDataMapInfo  10001840 f   aa_capi.obj
 0001:000008d0       _rtGetInf                  100018d0 f   rtGetInf.obj
 0001:00000900       _rtGetInfF                 10001900 f   rtGetInf.obj
 0001:00000920       _rtGetMinusInf             10001920 f   rtGetInf.obj
 0001:00000950       _rtGetMinusInfF            10001950 f   rtGetInf.obj
 0001:00000970       _rtGetNaN                  10001970 f   rtGetNaN.obj
 0001:000009a0       _rtGetNaNF                 100019a0 f   rtGetNaN.obj
 0001:000012d0       _rt_CreateLogVar           100022d0 f   rt_logging.obj
 0001:00001360       _rt_CreateLogVarWithConvert 10002360 f   rt_logging.obj
 0001:00001ce0       _rt_CreateStructLogVar     10002ce0 f   rt_logging.obj
 0001:00002a50       _rt_GetMxIdFromDTypeId     10003a50 f   rt_logging.obj
 0001:00002a80       _rt_GetMxIdFromDTypeIdForRSim 10003a80 f   rt_logging.obj
 0001:00005390       _rt_StartDataLogging       10006390 f   rt_logging.obj
 0001:00005850       _rt_StartDataLoggingWithStartTime 10006850 f   rt_logging.obj
 0001:000061b0       _rt_StopDataLogging        100071b0 f   rt_logging.obj
 0001:000061d0       _rt_StopDataLoggingImpl    100071d0 f   rt_logging.obj
 0001:000064f0       _rt_UpdateLogVar           100074f0 f   rt_logging.obj
 0001:000078e0       _rt_UpdateStructLogVar     100088e0 f   rt_logging.obj
 0001:00007970       _rt_UpdateTXXFYLogVars     10008970 f   rt_logging.obj
 0001:00007cb0       _rt_UpdateTXYLogVars       10008cb0 f   rt_logging.obj
 0001:00007f00       _rt_CleanUpForStateLogWithMMI 10008f00 f   rt_logging_mmi.obj
 0001:00008010       _rt_FillStateSigInfoFromMMI 10009010 f   rt_logging_mmi.obj
 0001:000083c0       _rtIsInf                   100093c0 f   rt_nonfinite.obj
 0001:00008400       _rtIsInfF                  10009400 f   rt_nonfinite.obj
 0001:00008440       _rtIsNaN                   10009440 f   rt_nonfinite.obj
 0001:00008460       _rtIsNaNF                  10009460 f   rt_nonfinite.obj
 0001:00008480       _rt_InitInfAndNaN          10009480 f   rt_nonfinite.obj
 0001:000084e0       _rtwCAPI_CountSysRan       100094e0 f   rtw_modelmap_utils.obj
 0001:00008580       _rtwCAPI_EncodePath        10009580 f   rtw_modelmap_utils.obj
 0001:00008680       _rtwCAPI_FillSysRan        10009680 f   rtw_modelmap_utils.obj
 0001:00008770       _rtwCAPI_FreeFullPaths     10009770 f   rtw_modelmap_utils.obj
 0001:00008800       _rtwCAPI_GetFullStateBlockPath 10009800 f   rtw_modelmap_utils.obj
 0001:000089b0       _rtwCAPI_GetNumContStateRecords 100099b0 f   rtw_modelmap_utils.obj
 0001:00008a70       _rtwCAPI_GetNumSigLogRecords 10009a70 f   rtw_modelmap_utils.obj
 0001:00008ac0       _rtwCAPI_GetNumSigLogRecordsForRTWLogging 10009ac0 f   rtw_modelmap_utils.obj
 0001:00008b50       _rtwCAPI_GetNumStateRecords 10009b50 f   rtw_modelmap_utils.obj
 0001:00008ba0       _rtwCAPI_GetNumStateRecordsForRTWLogging 10009ba0 f   rtw_modelmap_utils.obj
 0001:00008c30       _rtwCAPI_GetSigAddrFromMap 10009c30 f   rtw_modelmap_utils.obj
 0001:00008cf0       _rtwCAPI_GetSigLogRecordInfo 10009cf0 f   rtw_modelmap_utils.obj
 0001:00009120       _rtwCAPI_GetStateRecordInfo 1000a120 f   rtw_modelmap_utils.obj
 0001:000095d0       _rtwCAPI_GetStateWidth     1000a5d0 f   rtw_modelmap_utils.obj
 0001:00009630       _rtwCAPI_HasStates         1000a630 f   rtw_modelmap_utils.obj
 0001:000096a0       _rtwCAPI_UpdateFullPaths   1000a6a0 f   rtw_modelmap_utils.obj
 0001:00009880       _DllMain@12                1000a880 f   xpctarget.obj
 0001:00009890       _SLRTSetErrorStatus        1000a890 f   xpctarget.obj
 0001:000098b0       _aa_ChangeStepSize         1000a8b0 f   xpctarget.obj
 0001:00009900       _changeStepSize            1000a900 f   xpctarget.obj
 0001:00009950       _getDLMVersion             1000a950 f   xpctarget.obj
 0001:00009960       _getRefMdlPath             1000a960 f   xpctarget.obj
 0001:000099e0       _getRefMdlSignalNumber     1000a9e0 f   xpctarget.obj
 0001:00009a90       _getrlmdlinfo              1000aa90 f   xpctarget.obj
 0001:00009c70       _updateDiscreteEvents      1000ac70 f   xpctarget.obj
 0001:00009c80       _getNumRef                 1000ac80 f   appmappingData.obj
 0001:00009c90       _GetPCIDeviceFull          1000ac90 f   xpcruntime:xpcimports.obj
 0001:00009cc0       _ShowPCIDevice             1000acc0 f   xpcruntime:xpcimports.obj
 0001:0000a330       _xpcGetPciConfigAtSlot     1000b330 f   xpcruntime:xpcimports.obj
 0001:0000a5b0       _xpcInitProcs              1000b5b0 f   xpcruntime:xpcimports.obj
 0001:0000b350       _xpceuploadevent           1000c350 f   xpcruntime:xpcimports.obj
 0001:0000b351       __heap_alloc               1000c351 f i LIBCMT:malloc.obj
 0001:0000b38e       _malloc                    1000c38e f   LIBCMT:malloc.obj
 0001:0000b420       __get_printf_count_output  1000c420 f   LIBCMT:printf.obj
 0001:0000b435       __printf_l                 1000c435 f   LIBCMT:printf.obj
 0001:0000b44c       __printf_p                 1000c44c f   LIBCMT:printf.obj
 0001:0000b462       __printf_p_l               1000c462 f   LIBCMT:printf.obj
 0001:0000b479       __printf_s_l               1000c479 f   LIBCMT:printf.obj
 0001:0000b490       __set_printf_count_output  1000c490 f   LIBCMT:printf.obj
 0001:0000b4b8       _printf                    1000c4b8 f   LIBCMT:printf.obj
 0001:0000b567       _printf_s                  1000c567 f   LIBCMT:printf.obj
 0001:0000b580       _memset                    1000c580 f   LIBCMT:memset.obj
 0001:0000b610       __fpmath                   1000c610 f   LIBCMT:fpinit.obj
 0001:0000b627       ___setfflag                1000c627 f   LIBCMT:fpinit.obj
 0001:0000b63a       __cfltcvt_init             1000c63a f   LIBCMT:fpinit.obj
 0001:0000b69a       ___raise_securityfailure   1000c69a f   LIBCMT:gs_report.obj
 0001:0000b6d7       ___report_gsfailure        1000c6d7 f   LIBCMT:gs_report.obj
 0001:0000b7d2       ___report_rangecheckfailure 1000c7d2 f   LIBCMT:gs_report.obj
 0001:0000b7de       ___report_securityfailure  1000c7de f   LIBCMT:gs_report.obj
 0001:0000b8ae       ___report_securityfailureEx 1000c8ae f   LIBCMT:gs_report.obj
 0001:0000b9c4       ___copy_path_to_wide_string 1000c9c4 f   LIBCMT:crt0dat.obj
 0001:0000ba76       ___copy_to_char            1000ca76 f   LIBCMT:crt0dat.obj
 0001:0000bb2b       ___crtCorExitProcess       1000cb2b f   LIBCMT:crt0dat.obj
 0001:0000bb5f       ___crtExitProcess          1000cb5f f   LIBCMT:crt0dat.obj
 0001:0000bb75       ___freeCrtMemory           1000cb75 f   LIBCMT:crt0dat.obj
 0001:0000bc82       __amsg_exit                1000cc82 f   LIBCMT:crt0dat.obj
 0001:0000bc9e       __c_exit                   1000cc9e f   LIBCMT:crt0dat.obj
 0001:0000bcad       __cexit                    1000ccad f   LIBCMT:crt0dat.obj
 0001:0000bcbc       __cinit                    1000ccbc f   LIBCMT:crt0dat.obj
 0001:0000bd40       __exit                     1000cd40 f   LIBCMT:crt0dat.obj
 0001:0000bd54       __exit_app                 1000cd54 f   LIBCMT:crt0dat.obj
 0001:0000bd62       __get_pgmptr               1000cd62 f   LIBCMT:crt0dat.obj
 0001:0000bd91       __get_wpgmptr              1000cd91 f   LIBCMT:crt0dat.obj
 0001:0000bdc0       __init_pointers            1000cdc0 f   LIBCMT:crt0dat.obj
 0001:0000be2e       __initterm_e               1000ce2e f   LIBCMT:crt0dat.obj
 0001:0000be50       __lockexit                 1000ce50 f   LIBCMT:crt0dat.obj
 0001:0000be59       __unlockexit               1000ce59 f   LIBCMT:crt0dat.obj
 0001:0000bf91       _exit                      1000cf91 f   LIBCMT:crt0dat.obj
 0001:0000bfa5       _calloc                    1000cfa5 f   LIBCMT:calloc.obj
 0001:0000bfe5       _free                      1000cfe5 f   LIBCMT:free.obj
 0001:0000c01d       _realloc                   1000d01d f   LIBCMT:realloc.obj
 0001:0000c0d0       _memmove                   1000d0d0 f   LIBCMT:memmove.obj
 0001:0000c720       _strchr                    1000d720 f   LIBCMT:strchr.obj
 0001:0000c78e       ___from_strstr_to_strchr   1000d78e     LIBCMT:strchr.obj
 0001:0000c850       _strncat                   1000d850 f   LIBCMT:strncat.obj
 0001:0000c990       _strncpy                   1000d990 f   LIBCMT:strncpy.obj
 0001:0000cab4       ___initstdio               1000dab4 f   LIBCMT:_file.obj
 0001:0000cb27       ___endstdio                1000db27 f   LIBCMT:_file.obj
 0001:0000cb4e       ___iob_func                1000db4e f   LIBCMT:_file.obj
 0001:0000cb54       __lock_file                1000db54 f   LIBCMT:_file.obj
 0001:0000cb93       __lock_file2               1000db93 f   LIBCMT:_file.obj
 0001:0000cbc3       __unlock_file              1000dbc3 f   LIBCMT:_file.obj
 0001:0000cbfd       __unlock_file2             1000dbfd f   LIBCMT:_file.obj
 0001:0000cc2a       __fclose_nolock            1000dc2a f   LIBCMT:fclose.obj
 0001:0000cc96       _fclose                    1000dc96 f   LIBCMT:fclose.obj
 0001:0000cd0d       __fsopen                   1000dd0d f   LIBCMT:fopen.obj
 0001:0000cdd1       _fopen                     1000ddd1 f   LIBCMT:fopen.obj
 0001:0000cde6       _fopen_s                   1000dde6 f   LIBCMT:fopen.obj
 0001:0000ce2b       __fprintf_l                1000de2b f   LIBCMT:fprintf.obj
 0001:0000ce45       __fprintf_p                1000de45 f   LIBCMT:fprintf.obj
 0001:0000ce5e       __fprintf_p_l              1000de5e f   LIBCMT:fprintf.obj
 0001:0000ce78       __fprintf_s_l              1000de78 f   LIBCMT:fprintf.obj
 0001:0000ce92       _fprintf                   1000de92 f   LIBCMT:fprintf.obj
 0001:0000cfa4       _fprintf_s                 1000dfa4 f   LIBCMT:fprintf.obj
 0001:0000cfbd       __fread_nolock             1000dfbd f   LIBCMT:fread.obj
 0001:0000cfd8       __fread_nolock_s           1000dfd8 f   LIBCMT:fread.obj
 0001:0000d19d       _fread                     1000e19d f   LIBCMT:fread.obj
 0001:0000d1b8       _fread_s                   1000e1b8 f   LIBCMT:fread.obj
 0001:0000d249       __fwrite_nolock            1000e249 f   LIBCMT:fwrite.obj
 0001:0000d3a2       _fwrite                    1000e3a2 f   LIBCMT:fwrite.obj
 0001:0000d424       __unlink                   1000e424 f   LIBCMT:unlink.obj
 0001:0000d42d       _remove                    1000e42d f   LIBCMT:unlink.obj
 0001:0000d46f       _rewind                    1000e46f f   LIBCMT:rewind.obj
 0001:0000d52e       __scprintf                 1000e52e f   LIBCMT:sprintf.obj
 0001:0000d541       __scprintf_l               1000e541 f   LIBCMT:sprintf.obj
 0001:0000d558       __scprintf_p               1000e558 f   LIBCMT:sprintf.obj
 0001:0000d56b       __scprintf_p_l             1000e56b f   LIBCMT:sprintf.obj
 0001:0000d582       __snprintf_s               1000e582 f   LIBCMT:sprintf.obj
 0001:0000d5a1       __snprintf_s_l             1000e5a1 f   LIBCMT:sprintf.obj
 0001:0000d5c1       __sprintf_l                1000e5c1 f   LIBCMT:sprintf.obj
 0001:0000d5db       __sprintf_p                1000e5db f   LIBCMT:sprintf.obj
 0001:0000d5f7       __sprintf_p_l              1000e5f7 f   LIBCMT:sprintf.obj
 0001:0000d614       __sprintf_s_l              1000e614 f   LIBCMT:sprintf.obj
 0001:0000d631       _sprintf                   1000e631 f   LIBCMT:sprintf.obj
 0001:0000d6b5       _sprintf_s                 1000e6b5 f   LIBCMT:sprintf.obj
 0001:0000d6d1       _ldexp                     1000e6d1 f   LIBCMT:ldexp.obj
 0001:0000d8bd       @__security_check_cookie@4 1000e8bd f   LIBCMT:secchk.obj
 0001:0000d8d0       __ftoui3                   1000e8d0 f   LIBCMT:ftol3.obj
 0001:0000d8df       __ftoul3                   1000e8df f   LIBCMT:ftol3.obj
 0001:0000d8ee       __ftol3                    1000e8ee f   LIBCMT:ftol3.obj
 0001:0000d8fb       __ftol3_NaN                1000e8fb f   LIBCMT:ftol3.obj
 0001:0000d913       __ftol3_work               1000e913 f   LIBCMT:ftol3.obj
 0001:0000d999       __ftol3_common             1000e999 f   LIBCMT:ftol3.obj
 0001:0000da5b       __ftol3_arg_error          1000ea5b f   LIBCMT:ftol3.obj
 0001:0000da6d       __ftol3_except             1000ea6d f   LIBCMT:ftol3.obj
 0001:0000dab1       __dtoui3                   1000eab1 f   LIBCMT:ftol3.obj
 0001:0000dac0       __dtoul3                   1000eac0 f   LIBCMT:ftol3.obj
 0001:0000dacf       __dtol3                    1000eacf f   LIBCMT:ftol3.obj
 0001:0000dadc       __dtol3_NaN                1000eadc f   LIBCMT:ftol3.obj
 0001:0000daf9       __dtol3_work               1000eaf9 f   LIBCMT:ftol3.obj
 0001:0000dbde       __ultod3                   1000ebde f   LIBCMT:ftol3.obj
 0001:0000dc6f       __ltod3                    1000ec6f f   LIBCMT:ftol3.obj
 0001:0000dca0       _memcpy                    1000eca0 f   LIBCMT:memcpy.obj
 0001:0000e2e4       ___isa_available_init      1000f2e4 f   LIBCMT:cpu_disp.obj
 0001:0000e45d       __invoke_watson_if_error   1000f45d f i LIBCMT:wassert.obj
 0001:0000e47d       __wassert                  1000f47d f   LIBCMT:wassert.obj
 0001:0000eb21       __CRT_INIT@12              1000fb21 f   LIBCMT:dllcrt0.obj
 0001:0000ec93       __DllMainCRTStartup@12     1000fc93 f   LIBCMT:dllcrt0.obj
 0001:0000edc4       ___DllXcptFilter           1000fdc4 f   LIBCMT:dllcrt0.obj
 0001:0000ede9       ?_query_new_handler@@YAP6AHI@ZXZ 1000fde9 f   LIBCMT:handler.obj
 0001:0000edf6       ?_set_new_handler@@YAP6AHI@ZH@Z 1000fdf6 f   LIBCMT:handler.obj
 0001:0000edff       ?_set_new_handler@@YAP6AHI@ZP6AHI@Z@Z 1000fdff f   LIBCMT:handler.obj
 0001:0000ee34       __callnewh                 1000fe34 f   LIBCMT:handler.obj
 0001:0000ee5a       __initp_heap_handler       1000fe5a f   LIBCMT:handler.obj
 0001:0000ee67       __FF_MSGBANNER             1000fe67 f   LIBCMT:crt0msg.obj
 0001:0000eea0       __GET_RTERRMSG             1000fea0 f   LIBCMT:crt0msg.obj
 0001:0000eec4       __NMSG_WRITE               1000fec4 f   LIBCMT:crt0msg.obj
 0001:0000f081       ___doserrno                10010081 f   LIBCMT:dosmap.obj
 0001:0000f094       __dosmaperr                10010094 f   LIBCMT:dosmap.obj
 0001:0000f0b5       __errno                    100100b5 f   LIBCMT:dosmap.obj
 0001:0000f0c8       __get_doserrno             100100c8 f   LIBCMT:dosmap.obj
 0001:0000f0eb       __get_errno                100100eb f   LIBCMT:dosmap.obj
 0001:0000f10e       __get_errno_from_oserr     1001010e f   LIBCMT:dosmap.obj
 0001:0000f14f       __set_doserrno             1001014f f   LIBCMT:dosmap.obj
 0001:0000f16e       __set_errno                1001016e f   LIBCMT:dosmap.obj
 0001:0000f18d       __get_heap_handle          1001018d f   LIBCMT:heapinit.obj
 0001:0000f193       __heap_init                10010193 f   LIBCMT:heapinit.obj
 0001:0000f1a8       __heap_term                100101a8 f   LIBCMT:heapinit.obj
 0001:0000f1b0       ?_invalid_parameter@@YAXPBG00II@Z 100101b0 f   LIBCMT:invarg.obj
 0001:0000f1b5       ?_invoke_watson@@YAXPBG00II@Z 100101b5 f   LIBCMT:invarg.obj
 0001:0000f1cd       __call_reportfault         100101cd f   LIBCMT:invarg.obj
 0001:0000f2f2       __get_invalid_parameter_handler 100102f2 f   LIBCMT:invarg.obj
 0001:0000f2ff       __initp_misc_invarg        100102ff f   LIBCMT:invarg.obj
 0001:0000f30c       __invalid_parameter        1001030c f   LIBCMT:invarg.obj
 0001:0000f337       __invalid_parameter_noinfo 10010337 f   LIBCMT:invarg.obj
 0001:0000f347       __invalid_parameter_noinfo_noreturn 10010347 f   LIBCMT:invarg.obj
 0001:0000f362       __invoke_watson            10010362 f   LIBCMT:invarg.obj
 0001:0000f38d       __set_invalid_parameter_handler 1001038d f   LIBCMT:invarg.obj
 0001:0000f3b2       __vprintf_l                100103b2 f   LIBCMT:vprintf.obj
 0001:0000f3cd       __vprintf_p                100103cd f   LIBCMT:vprintf.obj
 0001:0000f3e7       __vprintf_p_l              100103e7 f   LIBCMT:vprintf.obj
 0001:0000f402       __vprintf_s_l              10010402 f   LIBCMT:vprintf.obj
 0001:0000f41d       _vprintf                   1001041d f   LIBCMT:vprintf.obj
 0001:0000f437       _vprintf_helper            10010437 f   LIBCMT:vprintf.obj
 0001:0000f4c4       _vprintf_s                 100104c4 f   LIBCMT:vprintf.obj
 0001:0000f4de       __ftbuf                    100104de f   LIBCMT:_sftbuf.obj
 0001:0000f50f       __stbuf                    1001050f f   LIBCMT:_sftbuf.obj
 0001:0000f5b5       ??0_LocaleUpdate@@QAE@PAUlocaleinfo_struct@@@Z 100105b5 f i LIBCMT:output.obj
 0001:0000f63d       ??1_LocaleUpdate@@QAE@XZ   1001063d f i LIBCMT:output.obj
 0001:0000f64b       ?GetLocaleT@_LocaleUpdate@@QAEPAUlocaleinfo_struct@@XZ 1001064b f i LIBCMT:output.obj
 0001:0000f64e       __output_l                 1001064e f   LIBCMT:output.obj
 0001:000101ce       _get_int64_arg             100111ce f i LIBCMT:output.obj
 0001:000101e1       _get_int_arg               100111e1 f i LIBCMT:output.obj
 0001:000101f1       _get_short_arg             100111f1 f i LIBCMT:output.obj
 0001:000102f0       __SEH_prolog4              100112f0 f   LIBCMT:sehprolg4.obj
 0001:00010335       __SEH_epilog4              10011335 f   LIBCMT:sehprolg4.obj
 0001:00010390       __except_handler4          10011390 f   LIBCMT:chandler4.obj
 0001:00010524       __VEC_memset               10011524 f   LIBCMT:p4_memset.obj
 0001:000105ec       ?strrchr@@YAPADPADH@Z      100115ec f i LIBCMT:cvt.obj
 0001:000105f5       __cfltcvt                  100115f5 f   LIBCMT:cvt.obj
 0001:00010616       __cfltcvt_l                10011616 f   LIBCMT:cvt.obj
 0001:0001069c       __cftoa                    1001169c f   LIBCMT:cvt.obj
 0001:000106ba       __cftoa_l                  100116ba f   LIBCMT:cvt.obj
 0001:00010a16       __cftoe                    10011a16 f   LIBCMT:cvt.obj
 0001:00010b85       __cftoe_l                  10011b85 f   LIBCMT:cvt.obj
 0001:00010c53       __cftof                    10011c53 f   LIBCMT:cvt.obj
 0001:00010d5a       __cftof_l                  10011d5a f   LIBCMT:cvt.obj
 0001:00010e1b       __cftog                    10011e1b f   LIBCMT:cvt.obj
 0001:00010e39       __cftog_l                  10011e39 f   LIBCMT:cvt.obj
 0001:00010f38       __cropzeros                10011f38 f   LIBCMT:cvt.obj
 0001:00010f49       __cropzeros_l              10011f49 f   LIBCMT:cvt.obj
 0001:00010fc9       __fassign                  10011fc9 f   LIBCMT:cvt.obj
 0001:00010fe1       __fassign_l                10011fe1 f   LIBCMT:cvt.obj
 0001:00011023       __forcdecpt                10012023 f   LIBCMT:cvt.obj
 0001:00011034       __forcdecpt_l              10012034 f   LIBCMT:cvt.obj
 0001:000110a8       __positive                 100120a8 f   LIBCMT:cvt.obj
 0001:000110ea       __setdefaultprecision      100120ea f   LIBCMT:fp8.obj
 0001:00011111       __initp_misc_cfltcvt_tab   10012111 f   LIBCMT:cmiscdat.obj
 0001:00011130       __crt_debugger_hook        10012130 f   LIBCMT:dbghook.obj
 0001:00011165       ___crtCloseThreadpoolTimer 10012165 f   LIBCMT:winapisupp.obj
 0001:0001117c       ___crtCloseThreadpoolWait  1001217c f   LIBCMT:winapisupp.obj
 0001:00011193       ___crtCreateEventExW       10012193 f   LIBCMT:winapisupp.obj
 0001:000111ce       ___crtCreateSemaphoreExW   100121ce f   LIBCMT:winapisupp.obj
 0001:00011208       ___crtCreateSymbolicLinkW  10012208 f   LIBCMT:winapisupp.obj
 0001:00011231       ___crtCreateThreadpoolTimer 10012231 f   LIBCMT:winapisupp.obj
 0001:00011252       ___crtCreateThreadpoolWait 10012252 f   LIBCMT:winapisupp.obj
 0001:00011273       ___crtFlsAlloc             10012273 f   LIBCMT:winapisupp.obj
 0001:00011291       ___crtFlsFree              10012291 f   LIBCMT:winapisupp.obj
 0001:000112b0       ___crtFlsGetValue          100122b0 f   LIBCMT:winapisupp.obj
 0001:000112cf       ___crtFlsSetValue          100122cf f   LIBCMT:winapisupp.obj
 0001:000112f1       ___crtFlushProcessWriteBuffers 100122f1 f   LIBCMT:winapisupp.obj
 0001:00011301       ___crtFreeLibraryWhenCallbackReturns 10012301 f   LIBCMT:winapisupp.obj
 0001:0001131b       ___crtGetCurrentProcessorNumber 1001231b f   LIBCMT:winapisupp.obj
 0001:0001132d       ___crtGetFileInformationByHandleEx 1001232d f   LIBCMT:winapisupp.obj
 0001:00011359       ___crtGetLogicalProcessorInformation 10012359 f   LIBCMT:winapisupp.obj
 0001:0001137f       ___crtGetShowWindowMode    1001237f f   LIBCMT:winapisupp.obj
 0001:000113a2       ___crtGetTickCount64       100123a2 f   LIBCMT:winapisupp.obj
 0001:000113ba       ___crtInitializeCriticalSectionEx 100123ba f   LIBCMT:winapisupp.obj
 0001:000113e8       ___crtIsPackagedApp        100123e8 f   LIBCMT:winapisupp.obj
 0001:00011428       ___crtLoadWinApiPointers   10012428 f   LIBCMT:winapisupp.obj
 0001:000116b3       ___crtSetFileInformationByHandle 100126b3 f   LIBCMT:winapisupp.obj
 0001:000116df       ___crtSetThreadStackGuarantee 100126df f   LIBCMT:winapisupp.obj
 0001:000116fa       ___crtSetThreadpoolTimer   100126fa f   LIBCMT:winapisupp.obj
 0001:0001171a       ___crtSetThreadpoolWait    1001271a f   LIBCMT:winapisupp.obj
 0001:00011737       ___crtSetUnhandledExceptionFilter 10012737 f   LIBCMT:winapisupp.obj
 0001:00011745       ___crtSleep                10012745 f   LIBCMT:winapisupp.obj
 0001:00011753       ___crtTerminateProcess     10012753 f   LIBCMT:winapisupp.obj
 0001:00011768       ___crtUnhandledException   10012768 f   LIBCMT:winapisupp.obj
 0001:0001177e       ___crtWaitForThreadpoolTimerCallbacks 1001277e f   LIBCMT:winapisupp.obj
 0001:00011798       __RTC_Initialize           10012798 f   LIBCMT:initsect.obj
 0001:000117b8       __RTC_Terminate            100127b8 f   LIBCMT:initsect.obj
 0001:000117d8       __lock                     100127d8 f   LIBCMT:mlock.obj
 0001:0001180c       __lockerr_exit             1001280c f   LIBCMT:mlock.obj
 0001:0001182c       __mtdeletelocks            1001282c f   LIBCMT:mlock.obj
 0001:00011880       __mtinitlocknum            10012880 f   LIBCMT:mlock.obj
 0001:00011929       __mtinitlocks              10012929 f   LIBCMT:mlock.obj
 0001:00011962       __unlock                   10012962 f   LIBCMT:mlock.obj
 0001:00011980       __FindPESection            10012980 f   LIBCMT:pesect.obj
 0001:000119d0       __IsNonwritableInCurrentImage 100129d0 f   LIBCMT:pesect.obj
 0001:00011a90       __ValidateImageBase        10012a90 f   LIBCMT:pesect.obj
 0001:00011ac1       ___onexitinit              10012ac1 f   LIBCMT:onexit.obj
 0001:00011af0       __onexit                   10012af0 f   LIBCMT:onexit.obj
 0001:00011bec       _atexit                    10012bec f   LIBCMT:onexit.obj
 0001:00011c01       __calloc_crt               10012c01 f   LIBCMT:crtheap.obj
 0001:00011c49       __malloc_crt               10012c49 f   LIBCMT:crtheap.obj
 0001:00011c90       __realloc_crt              10012c90 f   LIBCMT:crtheap.obj
 0001:00011cda       __recalloc_crt             10012cda f   LIBCMT:crtheap.obj
 0001:00011d28       __set_malloc_crt_max_wait  10012d28 f   LIBCMT:crtheap.obj
 0001:00011d3b       _wait_a_bit                10012d3b f i LIBCMT:crtheap.obj
 0001:00011d5f       ?_inconsistency@@YAXXZ     10012d5f f   LIBCMT:hooks.obj
 0001:00011d97       ?terminate@@YAXXZ          10012d97 f   LIBCMT:hooks.obj
 0001:00011dcb       ?unexpected@@YAXXZ         10012dcb f   LIBCMT:hooks.obj
 0001:00011dde       __initp_eh_hooks           10012dde f   LIBCMT:hooks.obj
 0001:00011def       ___getlocaleinfo           10012def f   LIBCMT:inithelp.obj
 0001:00011fc8       __initp_misc_purevirt      10012fc8 f   LIBCMT:inithelp.obj
 0001:00011fd5       ___fpecode                 10012fd5 f   LIBCMT:winsig.obj
 0001:00011fde       ___get_sigabrt             10012fde f   LIBCMT:winsig.obj
 0001:00011feb       ___pxcptinfoptrs           10012feb f   LIBCMT:winsig.obj
 0001:00011ff4       __initp_misc_winsig        10012ff4 f   LIBCMT:winsig.obj
 0001:000120b5       _raise                     100130b5 f   LIBCMT:winsig.obj
 0001:000122aa       _signal                    100132aa f   LIBCMT:winsig.obj
 0001:00012501       __initp_misc_rand_s        10013501 f   LIBCMT:rand_s.obj
 0001:0001250e       _rand_s                    1001350e f   LIBCMT:rand_s.obj
 0001:00012614       ___initmbctable            10013614 f   LIBCMT:mbctype.obj
 0001:000128cb       ___updatetmbcinfo          100138cb f   LIBCMT:mbctype.obj
 0001:00012971       __getmbcp                  10013971 f   LIBCMT:mbctype.obj
 0001:000129a2       __setmbcp                  100139a2 f   LIBCMT:mbctype.obj
 0001:00012b4a       __setmbcp_nolock           10013b4a f   LIBCMT:mbctype.obj
 0001:00012d35       __calloc_impl              10013d35 f   LIBCMT:calloc_impl.obj
 0001:00012daf       __fcloseall                10013daf f   LIBCMT:closeall.obj
 0001:00012e4c       __fflush_nolock            10013e4c f   LIBCMT:fflush.obj
 0001:00012e92       __flush                    10013e92 f   LIBCMT:fflush.obj
 0001:00012ef6       __flushall                 10013ef6 f   LIBCMT:fflush.obj
 0001:00012eff       _fflush                    10013eff f   LIBCMT:fflush.obj
 0001:0001303c       __fileno                   1001403c f   LIBCMT:fileno.obj
 0001:00013060       __close                    10014060 f   LIBCMT:close.obj
 0001:0001313b       __close_nolock             1001413b f   LIBCMT:close.obj
 0001:000131d5       __freebuf                  100141d5 f   LIBCMT:_freebuf.obj
 0001:00013205       __getstream                10014205 f   LIBCMT:stream.obj
 0001:00013324       __openfile                 10014324 f   LIBCMT:_open.obj
 0001:000135a0       __local_unwind4            100145a0 f   LIBCMT:exsup4.obj
 0001:00013676       __seh_longjmp_unwind4@4    10014676 f   LIBCMT:exsup4.obj
 0001:00013692       @_EH4_CallFilterFunc@8     10014692 f   LIBCMT:exsup4.obj
 0001:000136a9       @_EH4_TransferToHandler@8  100146a9 f   LIBCMT:exsup4.obj
 0001:000136c2       @_EH4_GlobalUnwind2@8      100146c2 f   LIBCMT:exsup4.obj
 0001:000136db       @_EH4_LocalUnwind@16       100146db f   LIBCMT:exsup4.obj
 0001:000136f2       __vfprintf_l               100146f2 f   LIBCMT:vfprintf.obj
 0001:00013710       __vfprintf_p               10014710 f   LIBCMT:vfprintf.obj
 0001:0001372d       __vfprintf_p_l             1001472d f   LIBCMT:vfprintf.obj
 0001:0001374b       __vfprintf_s_l             1001474b f   LIBCMT:vfprintf.obj
 0001:00013769       _vfprintf                  10014769 f   LIBCMT:vfprintf.obj
 0001:00013786       _vfprintf_helper           10014786 f   LIBCMT:vfprintf.obj
 0001:00013897       _vfprintf_s                10014897 f   LIBCMT:vfprintf.obj
 0001:000138b4       __ioinit                   100148b4 f   LIBCMT:ioinit.obj
 0001:00013b68       __ioterm                   10014b68 f   LIBCMT:ioinit.obj
 0001:00013bba       __filbuf                   10014bba f   LIBCMT:_filbuf.obj
 0001:00013cdb       _memcpy_s                  10014cdb f   LIBCMT:memcpy_s.obj
 0001:00013d5a       __read                     10014d5a f   LIBCMT:read.obj
 0001:00013e6e       __read_nolock              10014e6e f   LIBCMT:read.obj
 0001:000145ff       __flsbuf                   100155ff f   LIBCMT:_flsbuf.obj
 0001:0001474e       __write                    1001574e f   LIBCMT:write.obj
 0001:0001483d       __write_nolock             1001583d f   LIBCMT:write.obj
 0001:000150a2       __wremove                  100160a2 f   LIBCMT:wunlink.obj
 0001:000150d0       __wunlink                  100160d0 f   LIBCMT:wunlink.obj
 0001:000150d9       __lseek                    100160d9 f   LIBCMT:lseek.obj
 0001:000151c8       __lseek_nolock             100161c8 f   LIBCMT:lseek.obj
 0001:0001526f       __vscprintf                1001626f f   LIBCMT:vsprintf.obj
 0001:00015289       __vscprintf_helper         10016289 f   LIBCMT:vsprintf.obj
 0001:000152e5       __vscprintf_l              100162e5 f   LIBCMT:vsprintf.obj
 0001:00015300       __vscprintf_p              10016300 f   LIBCMT:vsprintf.obj
 0001:0001531a       __vscprintf_p_l            1001631a f   LIBCMT:vsprintf.obj
 0001:00015335       __vsprintf_l               10016335 f   LIBCMT:vsprintf.obj
 0001:000153b9       _vsprintf                  100163b9 f   LIBCMT:vsprintf.obj
 0001:000153d1       __vsnprintf_c              100163d1 f   LIBCMT:vsnprnc.obj
 0001:000153f8       __vsnprintf_c_l            100163f8 f   LIBCMT:vsnprnc.obj
 0001:00015420       __vsnprintf_helper         10016420 f   LIBCMT:vsnprnc.obj
 0001:000154ea       __vsnprintf_s              100164ea f   LIBCMT:vsnprnc.obj
 0001:00015508       __vsnprintf_s_l            10016508 f   LIBCMT:vsnprnc.obj
 0001:00015608       __vsprintf_p               10016608 f   LIBCMT:vsnprnc.obj
 0001:0001562f       __vsprintf_p_l             1001662f f   LIBCMT:vsnprnc.obj
 0001:00015657       __vsprintf_s_l             10016657 f   LIBCMT:vsnprnc.obj
 0001:000156cc       _vsprintf_s                100166cc f   LIBCMT:vsnprnc.obj
 0001:000156e7       __chgsign                  100166e7 f   LIBCMT:ieeemisc.obj
 0001:00015714       __chgsignf                 10016714 f   LIBCMT:ieeemisc.obj
 0001:00015735       __copysign                 10016735 f   LIBCMT:ieeemisc.obj
 0001:0001575d       __copysignf                1001675d f   LIBCMT:ieeemisc.obj
 0001:00015779       __finite                   10016779 f   LIBCMT:ieeemisc.obj
 0001:00015791       __fpclass                  10016791 f   LIBCMT:ieeemisc.obj
 0001:0001582d       __isnan                    1001682d f   LIBCMT:ieeemisc.obj
 0001:00015860       __logb                     10016860 f   LIBCMT:ieeemisc.obj
 0001:00015941       __nextafter                10016941 f   LIBCMT:ieeemisc.obj
 0001:00015be1       __scalb                    10016be1 f   LIBCMT:ieeemisc.obj
 0001:00015bf9       __add_exp                  10016bf9 f   LIBCMT:util.obj
 0001:00015c28       __decomp                   10016c28 f   LIBCMT:util.obj
 0001:00015cfa       __get_exp                  10016cfa f   LIBCMT:util.obj
 0001:00015d13       __set_bexp                 10016d13 f   LIBCMT:util.obj
 0001:00015d3c       __set_exp                  10016d3c f   LIBCMT:util.obj
 0001:00015d6b       __sptype                   10016d6b f   LIBCMT:util.obj
 0001:00015dc6       __errcode                  10016dc6 f   LIBCMT:fpexcept.obj
 0001:00015df8       __except1                  10016df8 f   LIBCMT:fpexcept.obj
 0001:00015ec0       __except2                  10016ec0 f   LIBCMT:fpexcept.obj
 0001:00015fc0       __handle_exc               10016fc0 f   LIBCMT:fpexcept.obj
 0001:0001619e       __handle_qnan1             1001719e f   LIBCMT:fpexcept.obj
 0001:000161ee       __handle_qnan2             100171ee f   LIBCMT:fpexcept.obj
 0001:0001624e       __raise_exc                1001724e f   LIBCMT:fpexcept.obj
 0001:0001626f       __raise_exc_ex             1001726f f   LIBCMT:fpexcept.obj
 0001:00016554       __raise_excf               10017554 f   LIBCMT:fpexcept.obj
 0001:00016575       __set_errno_from_matherr   10017575 f   LIBCMT:fpexcept.obj
 0001:000165a2       __umatherr                 100175a2 f   LIBCMT:fpexcept.obj
 0001:00016642       ___clrfp_sse2              10017642 f   LIBCMT:fpctrl.obj
 0001:00016663       ___ctrlfp_sse2             10017663 f   LIBCMT:fpctrl.obj
 0001:0001669c       ___fclrf_sse2              1001769c f   LIBCMT:fpctrl.obj
 0001:000166b9       ___get_fpsr_sse2           100176b9 f   LIBCMT:fpctrl.obj
 0001:000166d5       ___set_fpsr_sse2           100176d5 f   LIBCMT:fpctrl.obj
 0001:0001674b       ___set_statfp_sse2         1001774b f   LIBCMT:fpctrl.obj
 0001:00016764       ___statfp_sse2             10017764 f   LIBCMT:fpctrl.obj
 0001:00016779       __clrfp                    10017779 f   LIBCMT:fpctrl.obj
 0001:0001678a       __ctrlfp                   1001778a f   LIBCMT:fpctrl.obj
 0001:000167b5       __set_statfp               100177b5 f   LIBCMT:fpctrl.obj
 0001:0001680d       __statfp                   1001780d f   LIBCMT:fpctrl.obj
 0001:0001681d       _wcscat_s                  1001781d f   LIBCMT:wcscat_s.obj
 0001:00016889       _wcscpy_s                  10017889 f   LIBCMT:wcscpy_s.obj
 0001:000168e5       _wcslen                    100178e5 f   LIBCMT:wcslen.obj
 0001:000168fe       _wcsncat_s                 100178fe f   LIBCMT:wcsncat_s.obj
 0001:000169cc       __set_abort_behavior       100179cc f   LIBCMT:abort.obj
 0001:000169eb       _abort                     100179eb f   LIBCMT:abort.obj
 0001:00016a2e       ___set_app_type            10017a2e f   LIBCMT:errmode.obj
 0001:00016a3b       __set_error_mode           10017a3b f   LIBCMT:errmode.obj
 0001:00016b97       __i64tow_s                 10017b97 f   LIBCMT:xtows.obj
 0001:00016bc8       __itow_s                   10017bc8 f   LIBCMT:xtows.obj
 0001:00016bf1       __ltow_s                   10017bf1 f   LIBCMT:xtows.obj
 0001:00016c1b       __ui64tow_s                10017c1b f   LIBCMT:xtows.obj
 0001:00016c36       __ultow_s                  10017c36 f   LIBCMT:xtows.obj
 0001:00016d41       _setvbuf                   10017d41 f   LIBCMT:setvbuf.obj
 0001:00016e47       __fwprintf_l               10017e47 f   LIBCMT:fwprintf.obj
 0001:00016e61       __fwprintf_p               10017e61 f   LIBCMT:fwprintf.obj
 0001:00016e7a       __fwprintf_p_l             10017e7a f   LIBCMT:fwprintf.obj
 0001:00016e94       __fwprintf_s_l             10017e94 f   LIBCMT:fwprintf.obj
 0001:00016eae       _fwprintf                  10017eae f   LIBCMT:fwprintf.obj
 0001:00016f42       _fwprintf_s                10017f42 f   LIBCMT:fwprintf.obj
 0001:00016f5b       __vsnwprintf_s             10017f5b f   LIBCMT:vswprnc.obj
 0001:00016f79       __vsnwprintf_s_l           10017f79 f   LIBCMT:vswprnc.obj
 0001:0001707d       __vswprintf_c              1001807d f   LIBCMT:vswprnc.obj
 0001:000170a4       __vswprintf_c_l            100180a4 f   LIBCMT:vswprnc.obj
 0001:000170cc       __vswprintf_helper         100180cc f   LIBCMT:vswprnc.obj
 0001:000171c7       __vswprintf_p              100181c7 f   LIBCMT:vswprnc.obj
 0001:000171ee       __vswprintf_p_l            100181ee f   LIBCMT:vswprnc.obj
 0001:00017216       __vswprintf_s_l            10018216 f   LIBCMT:vswprnc.obj
 0001:0001728d       _vswprintf_s               1001828d f   LIBCMT:vswprnc.obj
 0001:000172a8       ___crtMessageBoxW          100182a8 f   LIBCMT:crtmboxw.obj
 0001:0001748e       ___crtMessageBoxWaitThreadW@4 1001848e f   LIBCMT:crtmboxw.obj
 0001:000174ac       __XcptFilter               100184ac f   LIBCMT:winxfltr.obj
 0001:00017607       ___CppXcptFilter           10018607 f   LIBCMT:winxfltr.obj
 0001:00017659       ___get_flsindex            10018659 f   LIBCMT:tidtable.obj
 0001:0001765f       ___threadhandle            1001865f f   LIBCMT:tidtable.obj
 0001:00017665       ___threadid                10018665 f   LIBCMT:tidtable.obj
 0001:0001766b       __freefls@4                1001866b f   LIBCMT:tidtable.obj
 0001:000177a0       __freeptd                  100187a0 f   LIBCMT:tidtable.obj
 0001:000177d6       __getptd                   100187d6 f   LIBCMT:tidtable.obj
 0001:000177ee       __getptd_noexit            100187ee f   LIBCMT:tidtable.obj
 0001:0001785d       __initptd                  1001885d f   LIBCMT:tidtable.obj
 0001:00017910       __mtinit                   10018910 f   LIBCMT:tidtable.obj
 0001:00017986       __mtterm                   10018986 f   LIBCMT:tidtable.obj
 0001:000179a3       __set_pgmptr               100189a3 f i LIBCMT:stdargv.obj
 0001:000179b0       __setargv                  100189b0 f   LIBCMT:stdargv.obj
 0001:00017bdf       __setenvp                  10018bdf f   LIBCMT:stdenvp.obj
 0001:00017cc0       ___security_init_cookie    10018cc0 f   LIBCMT:gs_support.obj
 0001:00017d5c       ___crtGetEnvironmentStringsA 10018d5c f   LIBCMT:a_env.obj
 0001:00017df0       _strlen                    10018df0 f   LIBCMT:strlen.obj
 0001:00017e7b       _wcsncpy_s                 10018e7b f   LIBCMT:wcsncpy_s.obj
 0001:00017f39       __output_s_l               10018f39 f   LIBCMT:outputs.obj
 0001:00018bc1       __output_p_l               10019bc1 f   LIBCMT:outputp.obj
 0001:00019ef9       __validate_param_reuseA    1001aef9 f   LIBCMT:outputp.obj
 0001:0001a02f       _get_crtdouble_arg         1001b02f f i LIBCMT:outputp.obj
 0001:0001a12e       __isatty                   1001b12e f   LIBCMT:isatty.obj
 0001:0001a182       ___addlocaleref            1001b182 f   LIBCMT:localref.obj
 0001:0001a217       ___freetlocinfo            1001b217 f   LIBCMT:localref.obj
 0001:0001a371       ___removelocaleref         1001b371 f   LIBCMT:localref.obj
 0001:0001a411       ___updatetlocinfo          1001b411 f   LIBCMT:localref.obj
 0001:0001a491       __updatetlocinfoEx_nolock  1001b491 f   LIBCMT:localref.obj
 0001:0001a4dc       ___iswcsym                 1001b4dc f i LIBCMT:_wctype.obj
 0001:0001a500       ___iswcsymf                1001b500 f i LIBCMT:_wctype.obj
 0001:0001a524       __isleadbyte_l             1001b524 f i LIBCMT:_wctype.obj
 0001:0001a55e       __iswalnum_l               1001b55e f i LIBCMT:_wctype.obj
 0001:0001a572       __iswalpha_l               1001b572 f i LIBCMT:_wctype.obj
 0001:0001a586       __iswblank_l               1001b586 f i LIBCMT:_wctype.obj
 0001:0001a5a1       __iswcntrl_l               1001b5a1 f i LIBCMT:_wctype.obj
 0001:0001a5b2       __iswcsym_l                1001b5b2 f i LIBCMT:_wctype.obj
 0001:0001a5d6       __iswcsymf_l               1001b5d6 f i LIBCMT:_wctype.obj
 0001:0001a5fa       __iswdigit_l               1001b5fa f i LIBCMT:_wctype.obj
 0001:0001a60b       __iswgraph_l               1001b60b f i LIBCMT:_wctype.obj
 0001:0001a61f       __iswlower_l               1001b61f f i LIBCMT:_wctype.obj
 0001:0001a630       __iswprint_l               1001b630 f i LIBCMT:_wctype.obj
 0001:0001a644       __iswpunct_l               1001b644 f i LIBCMT:_wctype.obj
 0001:0001a655       __iswspace_l               1001b655 f i LIBCMT:_wctype.obj
 0001:0001a666       __iswupper_l               1001b666 f i LIBCMT:_wctype.obj
 0001:0001a677       __iswxdigit_l              1001b677 f i LIBCMT:_wctype.obj
 0001:0001a68b       _isleadbyte                1001b68b f i LIBCMT:_wctype.obj
 0001:0001a69c       _iswalnum                  1001b69c f i LIBCMT:_wctype.obj
 0001:0001a6b0       _iswalpha                  1001b6b0 f i LIBCMT:_wctype.obj
 0001:0001a6c4       _iswascii                  1001b6c4 f i LIBCMT:_wctype.obj
 0001:0001a6d6       _iswblank                  1001b6d6 f i LIBCMT:_wctype.obj
 0001:0001a6f1       _iswcntrl                  1001b6f1 f i LIBCMT:_wctype.obj
 0001:0001a702       _iswdigit                  1001b702 f i LIBCMT:_wctype.obj
 0001:0001a713       _iswgraph                  1001b713 f i LIBCMT:_wctype.obj
 0001:0001a727       _iswlower                  1001b727 f i LIBCMT:_wctype.obj
 0001:0001a738       _iswprint                  1001b738 f i LIBCMT:_wctype.obj
 0001:0001a74c       _iswpunct                  1001b74c f i LIBCMT:_wctype.obj
 0001:0001a75d       _iswspace                  1001b75d f i LIBCMT:_wctype.obj
 0001:0001a76e       _iswupper                  1001b76e f i LIBCMT:_wctype.obj
 0001:0001a77f       _iswxdigit                 1001b77f f i LIBCMT:_wctype.obj
 0001:0001a793       __wctomb_l                 1001b793 f   LIBCMT:wctomb.obj
 0001:0001a7e2       __wctomb_s_l               1001b7e2 f   LIBCMT:wctomb.obj
 0001:0001a906       _wctomb                    1001b906 f   LIBCMT:wctomb.obj
 0001:0001a939       _wctomb_s                  1001b939 f   LIBCMT:wctomb.obj
 0001:0001a960       __aulldvrm                 1001b960 f   LIBCMT:ulldvrm.obj
 0001:0001a9f5       ___isascii                 1001b9f5 f i LIBCMT:_ctype.obj
 0001:0001aa05       ___iscsym                  1001ba05 f i LIBCMT:_ctype.obj
 0001:0001aa25       ___iscsymf                 1001ba25 f i LIBCMT:_ctype.obj
 0001:0001aa42       ___toascii                 1001ba42 f i LIBCMT:_ctype.obj
 0001:0001aa4d       __isalnum_l                1001ba4d f i LIBCMT:_ctype.obj
 0001:0001aaa5       __isalpha_l                1001baa5 f i LIBCMT:_ctype.obj
 0001:0001aafd       __isblank_l                1001bafd f i LIBCMT:_ctype.obj
 0001:0001ab57       __iscntrl_l                1001bb57 f i LIBCMT:_ctype.obj
 0001:0001aba9       __iscsym_l                 1001bba9 f i LIBCMT:_ctype.obj
 0001:0001abca       __iscsymf_l                1001bbca f i LIBCMT:_ctype.obj
 0001:0001abeb       __isdigit_l                1001bbeb f i LIBCMT:_ctype.obj
 0001:0001ac3d       __isgraph_l                1001bc3d f i LIBCMT:_ctype.obj
 0001:0001ac95       __islower_l                1001bc95 f i LIBCMT:_ctype.obj
 0001:0001ace7       __isprint_l                1001bce7 f i LIBCMT:_ctype.obj
 0001:0001ad3f       __ispunct_l                1001bd3f f i LIBCMT:_ctype.obj
 0001:0001ad91       __isspace_l                1001bd91 f i LIBCMT:_ctype.obj
 0001:0001ade3       __isupper_l                1001bde3 f i LIBCMT:_ctype.obj
 0001:0001ae35       __isxdigit_l               1001be35 f i LIBCMT:_ctype.obj
 0001:0001ae8d       _isalnum                   1001be8d f i LIBCMT:_ctype.obj
 0001:0001aeba       _isalpha                   1001beba f i LIBCMT:_ctype.obj
 0001:0001aee7       _isblank                   1001bee7 f i LIBCMT:_ctype.obj
 0001:0001af1c       _iscntrl                   1001bf1c f i LIBCMT:_ctype.obj
 0001:0001af47       _isdigit                   1001bf47 f i LIBCMT:_ctype.obj
 0001:0001af72       _isgraph                   1001bf72 f i LIBCMT:_ctype.obj
 0001:0001af9f       _islower                   1001bf9f f i LIBCMT:_ctype.obj
 0001:0001afca       _isprint                   1001bfca f i LIBCMT:_ctype.obj
 0001:0001aff7       _ispunct                   1001bff7 f i LIBCMT:_ctype.obj
 0001:0001b022       _isspace                   1001c022 f i LIBCMT:_ctype.obj
 0001:0001b04d       _isupper                   1001c04d f i LIBCMT:_ctype.obj
 0001:0001b078       _isxdigit                  1001c078 f i LIBCMT:_ctype.obj
 0001:0001b0a5       __tolower                  1001c0a5 f   LIBCMT:tolower.obj
 0001:0001b0b0       __tolower_l                1001c0b0 f   LIBCMT:tolower.obj
 0001:0001b1f3       _tolower                   1001c1f3 f   LIBCMT:tolower.obj
 0001:0001b21f       _strcpy_s                  1001c21f f   LIBCMT:strcpy_s.obj
 0001:0001b280       _strrchr                   1001c280 f   LIBCMT:strrchr.obj
 0001:0001b3b7       __fptostr                  1001c3b7 f   LIBCMT:_fptostr.obj
 0001:0001b467       ___crt_atoflt_l            1001c467 f   LIBCMT:atodbl.obj
 0001:0001b50b       __atodbl                   1001c50b f   LIBCMT:atodbl.obj
 0001:0001b520       __atodbl_l                 1001c520 f   LIBCMT:atodbl.obj
 0001:0001b5ae       __atoflt                   1001c5ae f   LIBCMT:atodbl.obj
 0001:0001b5c3       __atoflt_l                 1001c5c3 f   LIBCMT:atodbl.obj
 0001:0001b5db       __atoldbl                  1001c5db f   LIBCMT:atodbl.obj
 0001:0001b5f0       __atoldbl_l                1001c5f0 f   LIBCMT:atodbl.obj
 0001:0001b67f       ___dtold                   1001c67f f   LIBCMT:cfout.obj
 0001:0001b747       __fltout2                  1001c747 f   LIBCMT:cfout.obj
 0001:0001b7e0       __alldvrm                  1001c7e0 f   LIBCMT:lldvrm.obj
 0001:0001b8c0       __aullshr                  1001c8c0 f   LIBCMT:ullshr.obj
 0001:0001b8df       __get_output_format        1001c8df f   LIBCMT:outputformat.obj
 0001:0001b8e5       __set_output_format        1001c8e5 f   LIBCMT:outputformat.obj
 0001:0001b917       __controlfp_s              1001c917 f   LIBCMT:contrlfp.obj
 0001:0001b974       __fptrap                   1001c974 f   LIBCMT:crt0fp.obj
 0001:0001b97d       __msize                    1001c97d f   LIBCMT:msize.obj
 0001:0001b9ae       __recalloc                 1001c9ae f   LIBCMT:recalloc.obj
 0001:0001ba17       _strncpy_s                 1001ca17 f   LIBCMT:strncpy_s.obj
 0001:0001bb9f       __MallocaIsSizeInRange     1001cb9f f i LIBCMT:a_loc.obj
 0001:0001bbb0       __MarkAllocaS              1001cbb0 f i LIBCMT:a_loc.obj
 0001:0001bbc4       ___crtGetLocaleInfoA       1001cbc4 f   LIBCMT:a_loc.obj
 0001:0001bbfe       __freea                    1001cbfe f i LIBCMT:a_loc.obj
 0001:0001bc1c       _GetTableIndexFromLcid     1001cc1c f   LIBCMT:winapinls.obj
 0001:0001bc51       _GetTableIndexFromLocaleName 1001cc51 f   LIBCMT:winapinls.obj
 0001:0001bc9f       ___crtCompareStringEx      1001cc9f f   LIBCMT:winapinls.obj
 0001:0001bceb       ___crtDownlevelLCIDToLocaleName 1001cceb f   LIBCMT:winapinls.obj
 0001:0001bd67       ___crtDownlevelLocaleNameToLCID 1001cd67 f   LIBCMT:winapinls.obj
 0001:0001bda5       ___crtEnumSystemLocalesEx  1001cda5 f   LIBCMT:winapinls.obj
 0001:0001bde2       ___crtGetDateFormatEx      1001cde2 f   LIBCMT:winapinls.obj
 0001:0001be2b       ___crtGetLocaleInfoEx      1001ce2b f   LIBCMT:winapinls.obj
 0001:0001be5a       ___crtGetTimeFormatEx      1001ce5a f   LIBCMT:winapinls.obj
 0001:0001be8f       ___crtGetUserDefaultLocaleName 1001ce8f f   LIBCMT:winapinls.obj
 0001:0001beba       ___crtIsValidLocaleName    1001ceba f   LIBCMT:winapinls.obj
 0001:0001bee5       ___crtLCMapStringEx        1001cee5 f   LIBCMT:winapinls.obj
 0001:0001bf31       ___wcsnicmp_ascii          1001cf31 f   LIBCMT:winapinls.obj
 0001:0001c1c3       ___crtLCMapStringA         1001d1c3 f   LIBCMT:a_map.obj
 0001:0001c301       ___crtGetStringTypeA       1001d301 f   LIBCMT:a_str.obj
 0001:0001c341       __commit                   1001d341 f   LIBCMT:commit.obj
 0001:0001c42a       ___lock_fhandle            1001d42a f   LIBCMT:osfinfo.obj
 0001:0001c4b8       __alloc_osfhnd             1001d4b8 f   LIBCMT:osfinfo.obj
 0001:0001c661       __free_osfhnd              1001d661 f   LIBCMT:osfinfo.obj
 0001:0001c6e7       __get_osfhandle            1001d6e7 f   LIBCMT:osfinfo.obj
 0001:0001c74e       __open_osfhandle           1001d74e f   LIBCMT:osfinfo.obj
 0001:0001c864       __set_osfhnd               1001d864 f   LIBCMT:osfinfo.obj
 0001:0001c8e6       __unlock_fhandle           1001d8e6 f   LIBCMT:osfinfo.obj
 0001:0001c90c       __open                     1001d90c f   LIBCMT:open.obj
 0001:0001c9bc       __sopen                    1001d9bc f   LIBCMT:open.obj
 0001:0001c9ef       __sopen_helper             1001d9ef f   LIBCMT:open.obj
 0001:0001cab8       __sopen_nolock             1001dab8 f   LIBCMT:open.obj
 0001:0001cb06       __sopen_s                  1001db06 f   LIBCMT:open.obj
 0001:0001cb24       __mbsnbcmp                 1001db24 f   LIBCMT:mbsnbcmp.obj
 0001:0001cb3c       __mbsnbcmp_l               1001db3c f   LIBCMT:mbsnbcmp.obj
 0001:0001cc53       __mbsnbicmp                1001dc53 f   LIBCMT:mbsnbicm.obj
 0001:0001cc6b       __mbsnbicmp_l              1001dc6b f   LIBCMT:mbsnbicm.obj
 0001:0001ce30       __global_unwind2           1001de30 f   LIBCMT:exsup.obj
 0001:0001ce95       __local_unwind2            1001de95 f   LIBCMT:exsup.obj
 0001:0001cf19       __abnormal_termination     1001df19 f   LIBCMT:exsup.obj
 0001:0001cf3c       __NLG_Notify1              1001df3c f   LIBCMT:exsup.obj
 0001:0001cf45       __NLG_Notify               1001df45 f   LIBCMT:exsup.obj
 0001:0001cf5c       __NLG_Dispatch2            1001df5c     LIBCMT:exsup.obj
 0001:0001cf5c       __NLG_Dispatch             1001df5c     LIBCMT:exsup.obj
 0001:0001cf64       __NLG_Call                 1001df64 f   LIBCMT:exsup.obj
 0001:0001cf66       __NLG_Return2              1001df66     LIBCMT:exsup.obj
 0001:0001cf67       __getbuf                   1001df67 f   LIBCMT:_getbuf.obj
 0001:0001cfad       __lseeki64                 1001dfad f   LIBCMT:lseeki64.obj
 0001:0001d0a9       __lseeki64_nolock          1001e0a9 f   LIBCMT:lseeki64.obj
 0001:0001d11c       __mbtowc_l                 1001e11c f   LIBCMT:mbtowc.obj
 0001:0001d211       _mbtowc                    1001e211 f   LIBCMT:mbtowc.obj
 0001:0001d229       __putwch                   1001e229 f   LIBCMT:putwch.obj
 0001:0001d275       __putwch_nolock            1001e275 f   LIBCMT:putwch.obj
 0001:0001d2c0       __alloca_probe             1001e2c0 f   LIBCMT:chkstk.obj
 0001:0001d2c0       __chkstk                   1001e2c0 f   LIBCMT:chkstk.obj
 0001:0001d2eb       __matherr                  1001e2eb f   LIBCMT:matherr.obj
 0001:0001d2ee       __vfwprintf_l              1001e2ee f   LIBCMT:vfwprint.obj
 0001:0001d30c       __vfwprintf_p              1001e30c f   LIBCMT:vfwprint.obj
 0001:0001d329       __vfwprintf_p_l            1001e329 f   LIBCMT:vfwprint.obj
 0001:0001d347       __vfwprintf_s_l            1001e347 f   LIBCMT:vfwprint.obj
 0001:0001d365       _vfwprintf                 1001e365 f   LIBCMT:vfwprint.obj
 0001:0001d382       _vfwprintf_helper          1001e382 f   LIBCMT:vfwprint.obj
 0001:0001d415       _vfwprintf_s               1001e415 f   LIBCMT:vfwprint.obj
 0001:0001d432       __woutput_l                1001e432 f   LIBCMT:woutput.obj
 0001:0001e111       __woutput_s_l              1001f111 f   LIBCMT:woutputs.obj
 0001:0001ee28       __validate_param_reuseW    1001fe28 f   LIBCMT:woutputp.obj
 0001:0001efa0       __woutput_p_l              1001ffa0 f   LIBCMT:woutputp.obj
 0001:000203c9       __ismbbalnum               100213c9 f   LIBCMT:ismbbyte.obj
 0001:000203e2       __ismbbalnum_l             100213e2 f   LIBCMT:ismbbyte.obj
 0001:000203fc       __ismbbalpha               100213fc f   LIBCMT:ismbbyte.obj
 0001:00020415       __ismbbalpha_l             10021415 f   LIBCMT:ismbbyte.obj
 0001:0002042f       __ismbbblank               1002142f f   LIBCMT:ismbbyte.obj
 0001:00020450       __ismbbblank_l             10021450 f   LIBCMT:ismbbyte.obj
 0001:00020472       __ismbbgraph               10021472 f   LIBCMT:ismbbyte.obj
 0001:0002048b       __ismbbgraph_l             1002148b f   LIBCMT:ismbbyte.obj
 0001:000204a5       __ismbbkalnum              100214a5 f   LIBCMT:ismbbyte.obj
 0001:000204bb       __ismbbkalnum_l            100214bb f   LIBCMT:ismbbyte.obj
 0001:000204d2       __ismbbkana                100214d2 f   LIBCMT:ismbbyte.obj
 0001:000204e3       __ismbbkana_l              100214e3 f   LIBCMT:ismbbyte.obj
 0001:0002052f       __ismbbkprint              1002152f f   LIBCMT:ismbbyte.obj
 0001:00020545       __ismbbkprint_l            10021545 f   LIBCMT:ismbbyte.obj
 0001:0002055c       __ismbbkpunct              1002155c f   LIBCMT:ismbbyte.obj
 0001:00020572       __ismbbkpunct_l            10021572 f   LIBCMT:ismbbyte.obj
 0001:00020589       __ismbblead                10021589 f   LIBCMT:ismbbyte.obj
 0001:0002059f       __ismbblead_l              1002159f f   LIBCMT:ismbbyte.obj
 0001:000205b6       __ismbbprint               100215b6 f   LIBCMT:ismbbyte.obj
 0001:000205cf       __ismbbprint_l             100215cf f   LIBCMT:ismbbyte.obj
 0001:000205e9       __ismbbpunct               100215e9 f   LIBCMT:ismbbyte.obj
 0001:000205ff       __ismbbpunct_l             100215ff f   LIBCMT:ismbbyte.obj
 0001:00020616       __ismbbtrail               10021616 f   LIBCMT:ismbbyte.obj
 0001:0002062c       __ismbbtrail_l             1002162c f   LIBCMT:ismbbyte.obj
 0001:00020869       __strtol_l                 10021869 f   LIBCMT:strtol.obj
 0001:00020884       __strtoul_l                10021884 f   LIBCMT:strtol.obj
 0001:0002089f       _strtol                    1002189f f   LIBCMT:strtol.obj
 0001:000208c9       _strtoul                   100218c9 f   LIBCMT:strtol.obj
 0001:000208f3       ___free_lconv_mon          100218f3 f   LIBCMT:initmon.obj
 0001:000209ef       ___init_monetary           100219ef f   LIBCMT:initmon.obj
 0001:00020dc8       ___free_lconv_num          10021dc8 f   LIBCMT:initnum.obj
 0001:00020e2f       ___init_numeric            10021e2f f   LIBCMT:initnum.obj
 0001:0002106d       ___free_lc_time            1002206d f   LIBCMT:inittime.obj
 0001:000213ed       ___init_time               100223ed f   LIBCMT:inittime.obj
 0001:00021c5c       _localeconv                10022c5c f   LIBCMT:lconv.obj
 0001:00021c82       __iswctype_l               10022c82 f   LIBCMT:iswctype.obj
 0001:00021c94       _is_wctype                 10022c94 f   LIBCMT:iswctype.obj
 0001:00021c9d       _iswctype                  10022c9d f   LIBCMT:iswctype.obj
 0001:00021cf3       ____lc_codepage_func       10022cf3 f   LIBCMT:initctyp.obj
 0001:00021d19       ____lc_collate_cp_func     10022d19 f   LIBCMT:initctyp.obj
 0001:00021d3f       ____lc_locale_name_func    10022d3f f   LIBCMT:initctyp.obj
 0001:00021d67       ____mb_cur_max_func        10022d67 f   LIBCMT:initctyp.obj
 0001:00021d8d       ____mb_cur_max_l_func      10022d8d f   LIBCMT:initctyp.obj
 0001:00021da4       ___init_ctype              10022da4 f   LIBCMT:initctyp.obj
 0001:0002213c       ___pctype_func             1002313c f   LIBCMT:ctype.obj
 0001:00022165       ___pwctype_func            10023165 f   LIBCMT:ctype.obj
 0001:0002216b       __isctype                  1002316b f   LIBCMT:isctype.obj
 0001:0002219a       __isctype_l                1002319a f   LIBCMT:isctype.obj
 0001:0002224b       ___init_dummy              1002324b f   LIBCMT:wsetloca.obj
 0001:0002224e       __locterm                  1002324e f   LIBCMT:wsetloca.obj
 0001:000222a0       ____setlc_active_func      100232a0 f   LIBCMT:wsetloca.obj
 0001:000222a6       ____unguarded_readlc_active_add_func 100232a6 f   LIBCMT:wsetloca.obj
 0001:000222ac       ___copy_locale_name        100232ac f   LIBCMT:wsetloca.obj
 0001:00022310       ___create_locale           10023310 f   LIBCMT:wsetloca.obj
 0001:00022319       ___free_locale             10023319 f   LIBCMT:wsetloca.obj
 0001:0002231e       ___get_current_locale      1002331e f   LIBCMT:wsetloca.obj
 0001:00022323       ___lc_lctowcs              10023323 f   LIBCMT:wsetloca.obj
 0001:00022391       ___lc_wcstolc              10023391 f   LIBCMT:wsetloca.obj
 0001:000224bd       __configthreadlocale       100234bd f   LIBCMT:wsetloca.obj
 0001:00022543       __create_locale            10023543 f   LIBCMT:wsetloca.obj
 0001:000225a5       __expandlocale             100235a5 f   LIBCMT:wsetloca.obj
 0001:0002289c       __free_locale              1002389c f   LIBCMT:wsetloca.obj
 0001:00022953       __get_current_locale       10023953 f   LIBCMT:wsetloca.obj
 0001:00022a02       __wcreate_locale           10023a02 f   LIBCMT:wsetloca.obj
 0001:00022ad9       __wcscats                  10023ad9 f   LIBCMT:wsetloca.obj
 0001:00022b18       __wsetlocale               10023b18 f   LIBCMT:wsetloca.obj
 0001:0002345a       __CopyMan                  1002445a f i LIBCMT:intrncvt.obj
 0001:00023477       __FillZeroMan              10024477 f i LIBCMT:intrncvt.obj
 0001:00023486       __IncMan                   10024486 f i LIBCMT:intrncvt.obj
 0001:000234e8       __IsZeroMan                100244e8 f i LIBCMT:intrncvt.obj
 0001:00023505       __RoundMan                 10024505 f i LIBCMT:intrncvt.obj
 0001:00023606       __ShrMan                   10024606 f i LIBCMT:intrncvt.obj
 0001:00023694       __ZeroTail                 10024694 f i LIBCMT:intrncvt.obj
 0001:000236dc       ___addl                    100246dc f i LIBCMT:intrncvt.obj
 0001:00023700       __ld12cvt                  10024700 f i LIBCMT:intrncvt.obj
 0001:00023c6b       __ld12tod                  10024c6b f   LIBCMT:intrncvt.obj
 0001:000241dd       __ld12tof                  100251dd f   LIBCMT:intrncvt.obj
 0001:0002474f       __ld12told                 1002574f f   LIBCMT:intrncvt.obj
 0001:0002481e       ___STRINGTOLD_L            1002581e f   LIBCMT:strgtold.obj
 0001:00024879       ___ld12mul                 10025879 f i LIBCMT:strgtold.obj
 0001:00024b45       ___multtenpow12            10025b45 f i LIBCMT:strgtold.obj
 0001:00024e98       ___shl_12                  10025e98 f i LIBCMT:strgtold.obj
 0001:00024ec9       ___shr_12                  10025ec9 f i LIBCMT:strgtold.obj
 0001:00024ef9       ___strgtold12_l            10025ef9 f   LIBCMT:strgtold.obj
 0001:000256a1       _$I10_OUTPUT               100266a1 f   LIBCMT:x10fout.obj
 0001:00026075       ___add_12                  10027075 f i LIBCMT:x10fout.obj
 0001:00026221       ___control87_2             10027221 f   LIBCMT:ieee87.obj
 0001:00026895       __clearfp                  10027895 f   LIBCMT:ieee87.obj
 0001:00026975       __control87                10027975 f i LIBCMT:ieee87.obj
 0001:00026c77       __controlfp                10027c77 f   LIBCMT:ieee87.obj
 0001:00026f82       __fpreset                  10027f82 f   LIBCMT:ieee87.obj
 0001:0002704f       __set_controlfp            1002804f f   LIBCMT:ieee87.obj
 0001:000270c2       __statusfp                 100280c2 f   LIBCMT:ieee87.obj
 0001:0002715c       __statusfp2                1002815c f   LIBCMT:ieee87.obj
 0001:000271c0       __alloca_probe_16          100281c0 f   LIBCMT:alloca16.obj
 0001:000271d6       __alloca_probe_8           100281d6     LIBCMT:alloca16.obj
 0001:000271ec       _wcsnlen                   100281ec f   LIBCMT:wcslen_s.obj
 0001:00027293       __wopen                    10028293 f   LIBCMT:wopen.obj
 0001:00027343       __wsopen                   10028343 f   LIBCMT:wopen.obj
 0001:00027376       __wsopen_helper            10028376 f   LIBCMT:wopen.obj
 0001:0002743f       __wsopen_nolock            1002843f f   LIBCMT:wopen.obj
 0001:00027b92       __wsopen_s                 10028b92 f   LIBCMT:wopen.obj
 0001:00027bb0       _strncmp                   10028bb0 f   LIBCMT:strncmp.obj
 0001:00027c28       __strnicmp                 10028c28 f   LIBCMT:strnicmp.obj
 0001:00027c93       __strnicmp_l               10028c93 f   LIBCMT:strnicmp.obj
 0001:00027d44       ___termconout              10028d44 f   LIBCMT:initcon.obj
 0001:00027d5b       ___initconout              10028d5b f   LIBCMT:initcon.obj
 0001:00027d7a       __fputwc_nolock            10028d7a f   LIBCMT:fputwc.obj
 0001:00027f00       _fputwc                    10028f00 f   LIBCMT:fputwc.obj
 0001:00027f77       _putwc                     10028f77 f   LIBCMT:fputwc.obj
 0001:00028161       __wcstol_l                 10029161 f   LIBCMT:wcstol.obj
 0001:00028179       __wcstoul_l                10029179 f   LIBCMT:wcstol.obj
 0001:00028191       _wcstol                    10029191 f   LIBCMT:wcstol.obj
 0001:000281a9       _wcstoul                   100291a9 f   LIBCMT:wcstol.obj
 0001:000281c1       ___init_collate            100291c1 f   LIBCMT:initcoll.obj
 0001:000282e1       _memcmp                    100292e1 f   LIBCMT:memcmp.obj
 0001:0002b1f5       _wcscmp                    1002c1f5 f   LIBCMT:wcscmp.obj
 0001:0002b233       _wcscspn                   1002c233 f   LIBCMT:wcscspn.obj
 0001:0002b27e       _wcsncmp                   1002c27e f   LIBCMT:wcsncmp.obj
 0001:0002b2b4       _wcspbrk                   1002c2b4 f   LIBCMT:wcspbrk.obj
 0001:0002b8b8       ___get_qualified_locale    1002c8b8 f   LIBCMT:getqloc.obj
 0001:0002c128       ___get_qualified_locale_downlevel 1002d128 f   LIBCMT:getqloc_downlevel.obj
 0001:0002c344       ___mtold12                 1002d344 f   LIBCMT:mantold.obj
 0001:0002c524       __chsize                   1002d524 f   LIBCMT:chsize.obj
 0001:0002c53e       __chsize_nolock            1002d53e f   LIBCMT:chsize.obj
 0001:0002c6f4       __chsize_s                 1002d6f4 f   LIBCMT:chsize.obj
 0001:0002c7e2       __get_fmode                1002d7e2 f   LIBCMT:setmode.obj
 0001:0002c80c       __set_fmode                1002d80c f   LIBCMT:setmode.obj
 0001:0002c847       __setmode                  1002d847 f   LIBCMT:setmode.obj
 0001:0002c94c       __setmode_nolock           1002d94c f   LIBCMT:setmode.obj
 0001:0002ca20       ___ascii_strnicmp          1002da20 f   LIBCMT:_strnicm.obj
 0001:0002ca81       __flswbuf                  1002da81 f   LIBCMT:_flswbuf.obj
 0001:0002cbe3       __wchartodigit             1002dbe3 f   LIBCMT:wchtodig.obj
 0001:0002cd82       __wtoi                     1002dd82 f   LIBCMT:wtox.obj
 0001:0002cd8b       __wtoi64                   1002dd8b f   LIBCMT:wtox.obj
 0001:0002cd9f       __wtoi64_l                 1002dd9f f   LIBCMT:wtox.obj
 0001:0002cdb6       __wtoi_l                   1002ddb6 f   LIBCMT:wtox.obj
 0001:0002cdbf       __wtol                     1002ddbf f   LIBCMT:wtox.obj
 0001:0002cdd3       __wtol_l                   1002ddd3 f   LIBCMT:wtox.obj
 0001:0002cdea       __wtoll                    1002ddea f   LIBCMT:wtox.obj
 0001:0002cdfe       __wtoll_l                  1002ddfe f   LIBCMT:wtox.obj
 0001:0002ce15       _wcschr                    1002de15 f   LIBCMT:wcschr.obj
 0001:0002cec3       __wcsicmp                  1002dec3 f   LIBCMT:wcsicmp.obj
 0001:0002cf56       __wcsicmp_l                1002df56 f   LIBCMT:wcsicmp.obj
 0001:0002d031       __wcsnicmp                 1002e031 f   LIBCMT:wcsnicmp.obj
 0001:0002d0e7       __wcsnicmp_l               1002e0e7 f   LIBCMT:wcsnicmp.obj
 0001:0002d4b0       __wcstof_l                 1002e4b0 f   LIBCMT:wcstoq.obj
 0001:0002d563       __wcstoi64                 1002e563 f   LIBCMT:wcstoq.obj
 0001:0002d58d       __wcstoi64_l               1002e58d f   LIBCMT:wcstoq.obj
 0001:0002d5a8       __wcstoimax_l              1002e5a8 f   LIBCMT:wcstoq.obj
 0001:0002d5b1       __wcstold_l                1002e5b1 f   LIBCMT:wcstoq.obj
 0001:0002d5ba       __wcstoll_l                1002e5ba f   LIBCMT:wcstoq.obj
 0001:0002d5c3       __wcstoui64                1002e5c3 f   LIBCMT:wcstoq.obj
 0001:0002d5ed       __wcstoui64_l              1002e5ed f   LIBCMT:wcstoq.obj
 0001:0002d608       __wcstoull_l               1002e608 f   LIBCMT:wcstoq.obj
 0001:0002d611       __wcstoumax_l              1002e611 f   LIBCMT:wcstoq.obj
 0001:0002d61a       _wcstof                    1002e61a f   LIBCMT:wcstoq.obj
 0001:0002d62f       _wcstoimax                 1002e62f f   LIBCMT:wcstoq.obj
 0001:0002d638       _wcstold                   1002e638 f   LIBCMT:wcstoq.obj
 0001:0002d641       _wcstoll                   1002e641 f   LIBCMT:wcstoq.obj
 0001:0002d64a       _wcstoull                  1002e64a f   LIBCMT:wcstoq.obj
 0001:0002d653       _wcstoumax                 1002e653 f   LIBCMT:wcstoq.obj
 0001:0002d65c       __towlower_l               1002e65c f   LIBCMT:towlower.obj
 0001:0002d70d       _towlower                  1002e70d f   LIBCMT:towlower.obj
 0001:0002d71e       __wcstod_l                 1002e71e f   LIBCMT:wcstod.obj
 0001:0002d819       _wcstod                    1002e819 f   LIBCMT:wcstod.obj
 0001:0002d830       __allmul                   1002e830 f   LIBCMT:llmul.obj
 0001:0002d864       ___crtLCMapStringW         1002e864 f   LIBCMT:w_map.obj
 0001:0002d893       __wfltin2                  1002e893 f   LIBCMT:wcfin.obj
 0001:0002d940       ___WSTRINGTOLD_L           1002e940 f   LIBCMT:wstrgtold.obj
 0001:0002d99b       ___wstrgtold12_l           1002e99b f   LIBCMT:wstrgtold.obj
 0001:0002e1ec       _GetModuleHandleA@4        1002f1ec f   kernel32:KERNEL32.dll
 0001:0002e1f2       _GetProcAddress@8          1002f1f2 f   kernel32:KERNEL32.dll
 0001:0002e1f8       _HeapAlloc@12              1002f1f8 f   kernel32:KERNEL32.dll
 0001:0002e1fe       _IsDebuggerPresent@0       1002f1fe f   kernel32:KERNEL32.dll
 0001:0002e204       _IsProcessorFeaturePresent@4 1002f204 f   kernel32:KERNEL32.dll
 0001:0002e20a       _EncodePointer@4           1002f20a f   kernel32:KERNEL32.dll
 0001:0002e210       _DecodePointer@4           1002f210 f   kernel32:KERNEL32.dll
 0001:0002e216       _GetLastError@0            1002f216 f   kernel32:KERNEL32.dll
 0001:0002e21c       _ExitProcess@4             1002f21c f   kernel32:KERNEL32.dll
 0001:0002e222       _GetModuleHandleExW@12     1002f222 f   kernel32:KERNEL32.dll
 0001:0002e228       _AreFileApisANSI@0         1002f228 f   kernel32:KERNEL32.dll
 0001:0002e22e       _MultiByteToWideChar@24    1002f22e f   kernel32:KERNEL32.dll
 0001:0002e234       _WideCharToMultiByte@32    1002f234 f   kernel32:KERNEL32.dll
 0001:0002e23a       _HeapFree@12               1002f23a f   kernel32:KERNEL32.dll
 0001:0002e240       _HeapReAlloc@16            1002f240 f   kernel32:KERNEL32.dll
 0001:0002e246       _EnterCriticalSection@4    1002f246 f   kernel32:KERNEL32.dll
 0001:0002e24c       _LeaveCriticalSection@4    1002f24c f   kernel32:KERNEL32.dll
 0001:0002e252       _GetStdHandle@4            1002f252 f   kernel32:KERNEL32.dll
 0001:0002e258       _GetFileType@4             1002f258 f   kernel32:KERNEL32.dll
 0001:0002e25e       _GetModuleFileNameW@12     1002f25e f   kernel32:KERNEL32.dll
 0001:0002e264       _WriteConsoleW@20          1002f264 f   kernel32:KERNEL32.dll
 0001:0002e26a       _GetCommandLineA@0         1002f26a f   kernel32:KERNEL32.dll
 0001:0002e270       _GetCurrentThreadId@0      1002f270 f   kernel32:KERNEL32.dll
 0001:0002e276       _WriteFile@20              1002f276 f   kernel32:KERNEL32.dll
 0001:0002e27c       _GetProcessHeap@0          1002f27c f   kernel32:KERNEL32.dll
 0001:0002e282       _UnhandledExceptionFilter@4 1002f282 f   kernel32:KERNEL32.dll
 0001:0002e288       _SetUnhandledExceptionFilter@4 1002f288 f   kernel32:KERNEL32.dll
 0001:0002e28e       _SetLastError@4            1002f28e f   kernel32:KERNEL32.dll
 0001:0002e294       _InitializeCriticalSectionAndSpinCount@8 1002f294 f   kernel32:KERNEL32.dll
 0001:0002e29a       _CreateEventW@16           1002f29a f   kernel32:KERNEL32.dll
 0001:0002e2a0       _Sleep@4                   1002f2a0 f   kernel32:KERNEL32.dll
 0001:0002e2a6       _GetCurrentProcess@0       1002f2a6 f   kernel32:KERNEL32.dll
 0001:0002e2ac       _TerminateProcess@8        1002f2ac f   kernel32:KERNEL32.dll
 0001:0002e2b2       _TlsAlloc@0                1002f2b2 f   kernel32:KERNEL32.dll
 0001:0002e2b8       _TlsGetValue@4             1002f2b8 f   kernel32:KERNEL32.dll
 0001:0002e2be       _TlsSetValue@8             1002f2be f   kernel32:KERNEL32.dll
 0001:0002e2c4       _TlsFree@4                 1002f2c4 f   kernel32:KERNEL32.dll
 0001:0002e2ca       _GetStartupInfoW@4         1002f2ca f   kernel32:KERNEL32.dll
 0001:0002e2d0       _GetTickCount@0            1002f2d0 f   kernel32:KERNEL32.dll
 0001:0002e2d6       _GetModuleHandleW@4        1002f2d6 f   kernel32:KERNEL32.dll
 0001:0002e2dc       _CreateSemaphoreW@16       1002f2dc f   kernel32:KERNEL32.dll
 0001:0002e2e2       _DeleteCriticalSection@4   1002f2e2 f   kernel32:KERNEL32.dll
 0001:0002e2e8       _FatalAppExitA@8           1002f2e8 f   kernel32:KERNEL32.dll
 0001:0002e2ee       _SetConsoleCtrlHandler@8   1002f2ee f   kernel32:KERNEL32.dll
 0001:0002e2f4       _FreeLibrary@4             1002f2f4 f   kernel32:KERNEL32.dll
 0001:0002e2fa       _LoadLibraryExW@12         1002f2fa f   kernel32:KERNEL32.dll
 0001:0002e300       _IsValidCodePage@4         1002f300 f   kernel32:KERNEL32.dll
 0001:0002e306       _GetACP@0                  1002f306 f   kernel32:KERNEL32.dll
 0001:0002e30c       _GetOEMCP@0                1002f30c f   kernel32:KERNEL32.dll
 0001:0002e312       _GetCPInfo@8               1002f312 f   kernel32:KERNEL32.dll
 0001:0002e318       _CloseHandle@4             1002f318 f   kernel32:KERNEL32.dll
 0001:0002e31e       _RtlUnwind@16              1002f31e f   kernel32:KERNEL32.dll
 0001:0002e324       _ReadFile@20               1002f324 f   kernel32:KERNEL32.dll
 0001:0002e32a       _GetConsoleMode@8          1002f32a f   kernel32:KERNEL32.dll
 0001:0002e330       _ReadConsoleW@20           1002f330 f   kernel32:KERNEL32.dll
 0001:0002e336       _GetConsoleCP@0            1002f336 f   kernel32:KERNEL32.dll
 0001:0002e33c       _DeleteFileW@4             1002f33c f   kernel32:KERNEL32.dll
 0001:0002e342       _SetFilePointerEx@20       1002f342 f   kernel32:KERNEL32.dll
 0001:0002e348       _RaiseException@16         1002f348 f   kernel32:KERNEL32.dll
 0001:0002e34e       _OutputDebugStringW@4      1002f34e f   kernel32:KERNEL32.dll
 0001:0002e354       _GetCurrentThread@0        1002f354 f   kernel32:KERNEL32.dll
 0001:0002e35a       _GetModuleFileNameA@12     1002f35a f   kernel32:KERNEL32.dll
 0001:0002e360       _QueryPerformanceCounter@4 1002f360 f   kernel32:KERNEL32.dll
 0001:0002e366       _GetCurrentProcessId@0     1002f366 f   kernel32:KERNEL32.dll
 0001:0002e36c       _GetSystemTimeAsFileTime@4 1002f36c f   kernel32:KERNEL32.dll
 0001:0002e372       _GetEnvironmentStringsW@0  1002f372 f   kernel32:KERNEL32.dll
 0001:0002e378       _FreeEnvironmentStringsW@4 1002f378 f   kernel32:KERNEL32.dll
 0001:0002e37e       _HeapSize@12               1002f37e f   kernel32:KERNEL32.dll
 0001:0002e384       _GetDateFormatW@24         1002f384 f   kernel32:KERNEL32.dll
 0001:0002e38a       _GetTimeFormatW@24         1002f38a f   kernel32:KERNEL32.dll
 0001:0002e390       _CompareStringW@24         1002f390 f   kernel32:KERNEL32.dll
 0001:0002e396       _LCMapStringW@24           1002f396 f   kernel32:KERNEL32.dll
 0001:0002e39c       _GetLocaleInfoW@16         1002f39c f   kernel32:KERNEL32.dll
 0001:0002e3a2       _IsValidLocale@8           1002f3a2 f   kernel32:KERNEL32.dll
 0001:0002e3a8       _GetUserDefaultLCID@0      1002f3a8 f   kernel32:KERNEL32.dll
 0001:0002e3ae       _EnumSystemLocalesW@8      1002f3ae f   kernel32:KERNEL32.dll
 0001:0002e3b4       _GetStringTypeW@16         1002f3b4 f   kernel32:KERNEL32.dll
 0001:0002e3ba       _FlushFileBuffers@4        1002f3ba f   kernel32:KERNEL32.dll
 0001:0002e3c0       _SetStdHandle@8            1002f3c0 f   kernel32:KERNEL32.dll
 0001:0002e3c6       _CreateFileW@28            1002f3c6 f   kernel32:KERNEL32.dll
 0001:0002e3cc       _SetEndOfFile@4            1002f3cc f   kernel32:KERNEL32.dll
 0002:00000000       ___xc_a                    1003a000     LIBCMT:crt0init.obj
 0002:00000104       ___xc_z                    1003a104     LIBCMT:crt0init.obj
 0002:00000208       ___xi_a                    1003a208     LIBCMT:crt0init.obj
 0002:00000420       ___xi_z                    1003a420     LIBCMT:crt0init.obj
 0002:00000524       ___xp_a                    1003a524     LIBCMT:crt0init.obj
 0002:00000838       ___xp_z                    1003a838     LIBCMT:crt0init.obj
 0002:0000093c       ___xt_a                    1003a93c     LIBCMT:crt0init.obj
 0002:00000a40       ___xt_z                    1003aa40     LIBCMT:crt0init.obj
 0002:00000b88       _aa_M                      1003ab88     aa.obj
 0002:00000b8c       ??_C@_0BI@PHJEPFFP@Error?5creating?5scope?51?6?$AA@ 1003ab8c     aa.obj
 0002:00000ba8       ??_C@_0BF@GGMNNFDC@Data?5Type?5Conversion?$AA@ 1003aba8     aa.obj
 0002:00000bc4       ??_C@_04EPKDLPPB@tout?$AA@ 1003abc4     aa.obj
 0002:00000bca       ??_C@_00CNPNBAHC@?$AA@     1003abca     aa.obj
 0002:00000bcc       ??_C@_03HBFGMJOD@rt_?$AA@  1003abcc     aa.obj
 0002:00000bd0       __real@3fc999999999999a    1003abd0     aa.obj
 0002:00000be0       __real@3ff0000000000000    1003abe0     aa.obj
 0002:00000bf0       __real@406f400000000000    1003abf0     aa.obj
 0002:00000c00       __real@41f0000000000000    1003ac00     aa.obj
 0002:00000c10       __real@bff0000000000000    1003ac10     aa.obj
 0002:00000c20       __xmm@00000000000000003fc999999999999a 1003ac20     aa.obj
 0002:00000c40       __xmm@00000001000000010000000300000001 1003ac40     aa.obj
 0002:00000c60       __xmm@41f00000000000000000000000000000 1003ac60     aa.obj
 0002:00000d7c       ??_C@_08CHMPKCOC@Constant?$AA@ 1003ad7c     aa_capi.obj
 0002:00000d88       ??_C@_05LPIJGKJ@Value?$AA@ 1003ad88     aa_capi.obj
 0002:00000d90       ??_C@_06BNJCAIGJ@double?$AA@ 1003ad90     aa_capi.obj
 0002:00000d98       ??_C@_06CNMIJIPB@real_T?$AA@ 1003ad98     aa_capi.obj
 0002:00000da0       ??_C@_05KNFBNCOH@float?$AA@ 1003ada0     aa_capi.obj
 0002:00001608       ??_C@_0DJ@FHKINPLE@Unexpected?5itemKind?5?$DN?5DATA_ITEM?5@ 1003b608     rt_logging.obj
 0002:0000164c       ??_C@_0DA@IEHFPFCJ@Unexpected?5itemKind?$DN?$CFd?5in?5rt_Pro@ 1003b64c     rt_logging.obj
 0002:00001688       ??_C@_0DA@IFLHJPBO@Unexpected?5itemKind?$DN?$CFd?5in?5rt_Pro@ 1003b688     rt_logging.obj
 0002:000016c4       ??_C@_0DA@IAPIIJJL@Unexpected?5itemKind?$DN?$CFd?5in?5rt_Pro@ 1003b6c4     rt_logging.obj
 0002:00001700       ??_C@_0BE@LCIGPJIG@MATLAB?55?40?5MAT?9file?$AA@ 1003b700     rt_logging.obj
 0002:00001718       ??_C@_0FB@PCJEAJIB@?$CK?$CK?$CK?5Log?5variable?5?$CFs?5has?5wrapped?5@ 1003b718     rt_logging.obj
 0002:00001780       ??_C@_0MG@NKMLMOGF@?$CK?$CK?$CK?5To?5avoid?5wrapping?0?5explicitl@ 1003b780     rt_logging.obj
 0002:00001870       ??_C@_0N@IPAEOLLP@_rtw_tmw?4tmw?$AA@ 1003b870     rt_logging.obj
 0002:00001880       ??_C@_04HDOCAJNK@?$CFs?$CFs?$AA@ 1003b880     rt_logging.obj
 0002:00001888       ??_C@_03ELIABIOC@w?$CLb?$AA@ 1003b888     rt_logging.obj
 0002:0000188c       ??_C@_0BF@JPILDDFA@?$CK?$CK?$CK?5Error?5opening?5?$CFs?$AA@ 1003b88c     rt_logging.obj
 0002:000018a8       ??_C@_0BK@EEMDELA@unable?5to?5open?5data?5file?6?$AA@ 1003b8a8     rt_logging.obj
 0002:000018c8       ??_C@_04CGFJFPFD@none?$AA@ 1003b8c8     rt_logging.obj
 0002:000018d0       ??_C@_0EE@LCGFPNON@?$CK?$CK?$CK?5Error?5creating?5signals?5struc@ 1003b8d0     rt_logging.obj
 0002:00001924       ??_C@_0CE@NHECEDMK@?$CK?$CK?$CK?5Error?5creating?5log?5variable?5@ 1003b924     rt_logging.obj
 0002:00001950       ??_C@_0DB@IOCGKAGH@?$CK?$CK?$CK?5Errors?5occurred?5when?5startin@ 1003b950     rt_logging.obj
 0002:0000198c       ??_C@_0BO@BBLOGEBK@?$CK?$CK?$CK?5Memory?5allocation?5error?4?6?$AA@ 1003b98c     rt_logging.obj
 0002:000019b0       ??_C@_0N@LGFBAGEL@?5?$CIreal?5part?$CJ?$AA@ 1003b9b0     rt_logging.obj
 0002:000019c0       ??_C@_0KH@CGNMHNFE@?5?5?5?5varName?5?5?5?5?5?5?5?5?5?5?$DN?5?$CFs?$CFs?6?5?5?5?5@ 1003b9c0     rt_logging.obj
 0002:00001a88       ??_C@_0LE@OALKKEFM@?5?5?5?5varName?5?5?5?5?5?5?5?5?5?5?$DN?5?$CFs?5?$CIcompl@ 1003ba88     rt_logging.obj
 0002:00001b60       ??_C@_0KF@JDDLEOKO@?5?5?5?5varName?5?5?5?5?5?5?5?5?5?5?$DN?5?$CFs?6?5?5?5?5nR@ 1003bb60     rt_logging.obj
 0002:00001c28       ??_C@_0DP@HPDMIOFM@?$CK?$CK?$CK?5Using?5a?5default?5buffer?5of?5si@ 1003bc28     rt_logging.obj
 0002:00001c78       ??_C@_0KE@JEFOLKNF@?6?$CK?$CK?$CK?5Memory?5required?5to?5log?5vari@ 1003bc78     rt_logging.obj
 0002:00001d40       ??_C@_0JP@DKLMHCBI@?$CK?$CK?$CK?5Details?3?6?5?5?5?5?5?5?5varName?5?5?5?5?5@ 1003bd40     rt_logging.obj
 0002:00001e00       ??_C@_0CM@CAMILBED@?$CK?$CK?$CK?5Error?5allocating?5memory?5for?5@ 1003be00     rt_logging.obj
 0002:00001e34       ??_C@_0DF@BBCNMOPM@?$CK?$CK?$CK?5Error?5allocating?5memory?5for?5@ 1003be34     rt_logging.obj
 0002:00001e78       ??_C@_0JP@DBCLPCCI@?$CK?$CK?$CK?5Details?3?6?5?5?5?5?5?5?5varName?5?5?5?5?5@ 1003be78     rt_logging.obj
 0002:00001f38       ??_C@_0FK@DPGAOBGA@?$CK?$CK?$CK?5Error?5allocating?5memory?5for?5@ 1003bf38     rt_logging.obj
 0002:00001fa4       ??_C@_0BI@GGDNPHLJ@?$CK?$CK?$CK?5Error?5writing?5to?5?$CFs?$AA@ 1003bfa4     rt_logging.obj
 0002:00001fc0       ??_C@_0CB@IBGJGELG@?$CK?$CK?$CK?5Error?5writing?5?$CFs?5due?5to?3?5?$CFs?6@ 1003bfc0     rt_logging.obj
 0002:00001fe8       ??_C@_0CN@FLMCHCPB@?$CK?$CK?$CK?5Error?5writing?5log?5variable?5?$CF@ 1003bfe8     rt_logging.obj
 0002:00002020       ??_C@_0DH@GAJCNOJP@?$CK?$CK?$CK?5Error?5writing?5structure?5log?5@ 1003c020     rt_logging.obj
 0002:00002064       ??_C@_0BD@POEALECL@?$CK?$CK?5created?5?$CFs?5?$CK?$CK?6?6?$AA@ 1003c064     rt_logging.obj
 0002:00002080       __real@0000000000000000    1003c080     rt_logging.obj
 0002:00002090       __real@4020000000000000    1003c090     rt_logging.obj
 0002:000020a0       __real@41dfffffffc00000    1003c0a0     rt_logging.obj
 0002:000020b0       __real@41efffffffe00000    1003c0b0     rt_logging.obj
 0002:000020c0       __real@4330000000000000    1003c0c0     rt_logging.obj
 0002:000020d0       __real@8000000000000000    1003c0d0     rt_logging.obj
 0002:000020e0       __real@bfbf9add3afd2773    1003c0e0     rt_logging.obj
 0002:000020f0       __real@c000000000000000    1003c0f0     rt_logging.obj
 0002:00002100       __xmm@20202020202020202020202020202020 1003c100     rt_logging.obj
 0002:00002130       ??_C@_0BI@INNPNFJN@Memory?5Allocation?5Error?$AA@ 1003c130     rtw_modelmap_utils.obj
 0002:00002150       ??_C@_1FC@IHIELOAF@?$AAD?$AA?3?$AA?2?$AAR?$AA2?$AA0?$AA1?$AA6?$AAB?$AA?2?$AAr?$AAt?$AAw?$AA?2?$AAc?$AA?2?$AAs?$AAr?$AAc?$AA?2?$AAr?$AAt?$AAw?$AA_?$AAm?$AAo?$AAd?$AAe?$AAl?$AAm?$AAa?$AAp@ 1003c150     rtw_modelmap_utils.obj
 0002:000021b4       ??_C@_1CI@OEAJCJND@?$AAj?$AA?5?$AA?$DN?$AA?$DN?$AA?5?$AAe?$AAn?$AAc?$AAo?$AAd?$AAe?$AAd?$AAP?$AAa?$AAt?$AAh?$AAL?$AAe?$AAn?$AA?$AA@ 1003c1b4     rtw_modelmap_utils.obj
 0002:000021e4       ??_C@_1DC@NFAOIFKB@?$AAe?$AAn?$AAc?$AAo?$AAd?$AAe?$AAd?$AAP?$AAa?$AAt?$AAh?$AA?$FL?$AAj?$AA?9?$AA1?$AA?$FN?$AA?5?$AA?$DN?$AA?$DN?$AA?5?$AA?8?$AA?2?$AA0?$AA?8?$AA?$AA@ 1003c1e4     rtw_modelmap_utils.obj
 0002:00002220       ??_C@_1DI@FLNJGPEE@?$AAs?$AAi?$AAg?$AAC?$AAo?$AAm?$AAp?$AAl?$AAe?$AAx?$AAi?$AAt?$AAy?$AA?$FL?$AA?$CK?$AAs?$AAi?$AAg?$AAI?$AAd?$AAx?$AA?$FN?$AA?5?$AA?$CB?$AA?$DN?$AA?5?$AA1?$AA?$AA@ 1003c220     rtw_modelmap_utils.obj
 0002:00002268       ??_C@_1KI@OFELMGBG@?$AA?$CI?$AA?$CI?$AA?$CI?$AAd?$AAa?$AAt?$AAa?$AAT?$AAy?$AAp?$AAe?$AAM?$AAa?$AAp?$AA?$CJ?$AA?$FL?$AA?$CI?$AA?$CI?$AA?$CI?$AAs?$AAt?$AAa?$AAt?$AAe?$AAs?$AA?$CJ?$AA?$FL?$AA?$CI?$AAi?$AA?$CJ?$AA?$FN?$AA?4@ 1003c268     rtw_modelmap_utils.obj
 0002:00002334       ??_C@_1DA@ILCMPHNE@?$AAf?$AAu?$AAl?$AAl?$AAP?$AAa?$AAt?$AAh?$AA?5?$AA?$CB?$AA?$DN?$AA?5?$AA?$CI?$AA?$CI?$AAv?$AAo?$AAi?$AAd?$AA?5?$AA?$CK?$AA?$CJ?$AA0?$AA?$CJ?$AA?$AA@ 1003c334     rtw_modelmap_utils.obj
 0002:00002370       ??_C@_1CI@OEPPFCCA@?$AAp?$AAa?$AAt?$AAh?$AA?5?$AA?$CB?$AA?$DN?$AA?5?$AA?$CI?$AA?$CI?$AAv?$AAo?$AAi?$AAd?$AA?5?$AA?$CK?$AA?$CJ?$AA0?$AA?$CJ?$AA?$AA@ 1003c370     rtw_modelmap_utils.obj
 0002:000023a0       ??_C@_1FK@GLJIMFHB@?$AA?$CI?$AA?$CI?$AAm?$AAm?$AAi?$AA?$CJ?$AA?9?$AA?$DO?$AAI?$AAn?$AAs?$AAt?$AAa?$AAn?$AAc?$AAe?$AAM?$AAa?$AAp?$AA?4?$AAf?$AAu?$AAl?$AAl?$AAP?$AAa?$AAt?$AAh?$AA?$CJ?$AA?5?$AA?$DN?$AA?$DN@ 1003c3a0     rtw_modelmap_utils.obj
 0002:0000240c       ??_C@_1DG@HPCJGNCE@?$AAm?$AAm?$AAi?$AAP?$AAa?$AAt?$AAh?$AA?$FL?$AAp?$AAa?$AAt?$AAh?$AAL?$AAe?$AAn?$AA?9?$AA1?$AA?$FN?$AA?5?$AA?$DN?$AA?$DN?$AA?5?$AA?8?$AA?2?$AA0?$AA?8?$AA?$AA@ 1003c40c     rtw_modelmap_utils.obj
 0002:0000244c       ??_C@_1DM@DBAOGGOO@?$AAm?$AAm?$AAi?$AAP?$AAa?$AAt?$AAh?$AA?$FL?$AAm?$AAm?$AAi?$AAP?$AAa?$AAt?$AAh?$AAL?$AAe?$AAn?$AA?9?$AA1?$AA?$FN?$AA?5?$AA?$DN?$AA?$DN?$AA?5?$AA?8?$AA?2?$AA0?$AA?8?$AA?$AA@ 1003c44c     rtw_modelmap_utils.obj
 0002:00002494       ??_C@_1DC@LHIAKAFE@?$AAb?$AAl?$AAo?$AAc?$AAk?$AAP?$AAa?$AAt?$AAh?$AA?5?$AA?$CB?$AA?$DN?$AA?5?$AA?$CI?$AA?$CI?$AAv?$AAo?$AAi?$AAd?$AA?5?$AA?$CK?$AA?$CJ?$AA0?$AA?$CJ?$AA?$AA@ 1003c494     rtw_modelmap_utils.obj
 0002:000024d0       ??_C@_1GI@KIEJKPGC@?$AAf?$AAu?$AAl?$AAl?$AAS?$AAt?$AAa?$AAt?$AAe?$AAB?$AAl?$AAo?$AAc?$AAk?$AAP?$AAa?$AAt?$AAh?$AA?$FL?$AAf?$AAu?$AAl?$AAl?$AAS?$AAt?$AAa?$AAt?$AAe?$AAB?$AAl?$AAo?$AAc@ 1003c4d0     rtw_modelmap_utils.obj
 0002:00002550       ??_C@_1EE@DNPIBJHC@?$AA?$CI?$AA?$CI?$AAd?$AAi?$AAm?$AAM?$AAa?$AAp?$AA?$CJ?$AA?$FL?$AA?$CI?$AAm?$AAa?$AAp?$AAI?$AAd?$AAx?$AA?$CJ?$AA?$FN?$AA?4?$AAn?$AAu?$AAm?$AAD?$AAi?$AAm?$AAs?$AA?$CJ?$AA?5?$AA?$DN?$AA?$DN?$AA?5@ 1003c550     rtw_modelmap_utils.obj
 0002:000025a4       ??_C@_06JFOKFOED@CSTATE?$AA@ 1003c5a4     rtw_modelmap_utils.obj
 0002:000025ac       ??_C@_06FAENGAMN@DSTATE?$AA@ 1003c5ac     rtw_modelmap_utils.obj
 0002:000025b4       ??_C@_1BI@LEBJNOGG@?$AAc?$AAs?$AAv?$AAI?$AAd?$AAx?$AA?5?$AA?$DO?$AA?$DN?$AA?5?$AA0?$AA?$AA@ 1003c5b4     rtw_modelmap_utils.obj
 0002:000025d0       ??_C@_1BA@KDMGHCHP@?$AAT?$AAI?$AAD?$AA?$DN?$AA?$DN?$AA?9?$AA1?$AA?$AA@ 1003c5d0     rtw_modelmap_utils.obj
 0002:000025e4       ??_C@_1DM@DHGKBPCE@?$AAs?$AAi?$AAg?$AAP?$AAa?$AAt?$AAh?$AA?$FL?$AAs?$AAi?$AAg?$AAP?$AAa?$AAt?$AAh?$AAL?$AAe?$AAn?$AA?9?$AA1?$AA?$FN?$AA?5?$AA?$DN?$AA?$DN?$AA?5?$AA?8?$AA?2?$AA0?$AA?8?$AA?$AA@ 1003c5e4     rtw_modelmap_utils.obj
 0002:0000262c       _serialfifoground          1003c62c     xpc_datatype_ground.obj
 0002:00002638       _bcmsg1553ground           1003c638     xpc_datatype_ground.obj
 0002:00002648       _bcstatground              1003c648     xpc_datatype_ground.obj
 0002:00002660       _bmmsg1553ground           1003c660     xpc_datatype_ground.obj
 0002:00002680       ??_C@_02DFENNNBM@aa?$AA@   1003c680     xpctarget.obj
 0002:00002684       _ptsetfilename             1003c684     xpctarget.obj
 0002:00002688       _xmlfile                   1003c688     xpctarget.obj
 0002:00002690       ??_C@_0L@CHBJKKFC@xpceSetVar?$AA@ 1003c690     xpctarget.obj
 0002:000026a0       ??_C@_03JLBJCOMC@6?45?$AA@ 1003c6a0     xpctarget.obj
 0002:000026a8       __real@3fb999999999999a    1003c6a8     xpctarget.obj
 0002:000026b8       __real@4014000000000000    1003c6b8     xpctarget.obj
 0002:000026c8       _aa_BIOMAP                 1003c6c8     appmappingData.obj
 0002:000026e0       _aa_LBLMAP                 1003c6e0     appmappingData.obj
 0002:000026f8       _aa_SIDMAP                 1003c6f8     appmappingData.obj
 0002:00002710       _aa_SBIO                   1003c710     appmappingData.obj
 0002:00002718       _aa_SLBL                   1003c718     appmappingData.obj
 0002:00002720       _aa_PTIDSMAP               1003c720     appmappingData.obj
 0002:00002730       _aa_PTNAMESMAP             1003c730     appmappingData.obj
 0002:00002740       _aa_SPTMAP                 1003c740     appmappingData.obj
 0002:00002748       _aa_dtmap                  1003c748     appmappingData.obj
 0002:00002758       _appInfo                   1003c758     appmappingData.obj
 0002:000027d0       ??_C@_0CC@DMFKNLL@VendorId?5?$DN?50x?$CFx?0?5DeviceId?5?$DN?50x?$CFx@ 1003c7d0     xpcruntime:xpcimports.obj
 0002:000027f4       ??_C@_0DH@OHCBLNMG@Subsystem?5Device?5ID?5?$DN?50x?$CFx?6Subsy@ 1003c7f4     xpcruntime:xpcimports.obj
 0002:0000282c       ??_C@_0BD@MMMMEFCM@Class?5Code?5?$DN?50x?$CFx?6?$AA@ 1003c82c     xpcruntime:xpcimports.obj
 0002:00002840       ??_C@_0BE@OLDDDNHM@InterruptLine?5?$DN?5?$CFd?6?$AA@ 1003c840     xpcruntime:xpcimports.obj
 0002:00002854       ??_C@_0BF@OLKLEKBD@bus?5?$DN?5?$CFd?0?5slot?5?$DN?5?$CFd?6?$AA@ 1003c854     xpcruntime:xpcimports.obj
 0002:0000286c       ??_C@_0CE@DGLLGDFH@?5?5?5?5Phys?5?5?5Virtual?5?5?5Length?5IO?1M@ 1003c86c     xpcruntime:xpcimports.obj
 0002:00002890       ??_C@_0BI@FEOPLEMG@?$CF08x?5?$CF08x?5?$CF08x?5?5?5?5?5?5?$CFc?6?$AA@ 1003c890     xpcruntime:xpcimports.obj
 0002:000028a8       ??_C@_0BB@BNNCEDPC@rl32eScopeExists?$AA@ 1003c8a8     xpcruntime:xpcimports.obj
 0002:000028bc       ??_C@_0BM@FJBFEGFG@rl32eScopeExists?5not?5found?6?$AA@ 1003c8bc     xpcruntime:xpcimports.obj
 0002:000028d8       ??_C@_0O@BNNGKJEA@rl32eDefScope?$AA@ 1003c8d8     xpcruntime:xpcimports.obj
 0002:000028e8       ??_C@_0BJ@CDNOENKA@rl32eDefScope?5not?5found?6?$AA@ 1003c8e8     xpcruntime:xpcimports.obj
 0002:00002904       ??_C@_0P@CKNKILDP@rl32eAddSignal?$AA@ 1003c904     xpcruntime:xpcimports.obj
 0002:00002914       ??_C@_0BK@GMJAJBAI@rl32eAddSignal?5not?5found?6?$AA@ 1003c914     xpcruntime:xpcimports.obj
 0002:00002930       ??_C@_0BB@LDMIHGCE@rl32eGetSignalNo?$AA@ 1003c930     xpcruntime:xpcimports.obj
 0002:00002944       ??_C@_0BM@LGAMBAID@rl32eGetSignalNo?5not?5found?6?$AA@ 1003c944     xpcruntime:xpcimports.obj
 0002:00002960       ??_C@_0O@CFDGALBP@rl32eSetScope?$AA@ 1003c960     xpcruntime:xpcimports.obj
 0002:00002970       ??_C@_0BJ@JCLHHIN@rl32eSetScope?5not?5found?6?$AA@ 1003c970     xpcruntime:xpcimports.obj
 0002:0000298c       ??_C@_0P@IKMCBMHH@xpceFSScopeSet?$AA@ 1003c98c     xpcruntime:xpcimports.obj
 0002:0000299c       ??_C@_0BK@JODJPNNH@xpceFSScopeSet?5not?5found?6?$AA@ 1003c99c     xpcruntime:xpcimports.obj
 0002:000029b8       ??_C@_0BE@DLACEEJM@rl32eSetTargetScope?$AA@ 1003c9b8     xpcruntime:xpcimports.obj
 0002:000029cc       ??_C@_0BP@JCHFMKPJ@rl32eSetTargetScope?5not?5found?6?$AA@ 1003c9cc     xpcruntime:xpcimports.obj
 0002:000029ec       ??_C@_0BJ@LIDLNDHC@rl32eSetTargetScopeSigFt?$AA@ 1003c9ec     xpcruntime:xpcimports.obj
 0002:00002a08       ??_C@_0CE@JLGHCFHI@rl32eSetTargetScopeSigFt?5not?5fou@ 1003ca08     xpcruntime:xpcimports.obj
 0002:00002a2c       ??_C@_0BI@JAPOIDNG@rl32eRestartAcquisition?$AA@ 1003ca2c     xpcruntime:xpcimports.obj
 0002:00002a44       ??_C@_0CD@LLBEFFBO@rl32eRestartAcquisition?5not?5foun@ 1003ca44     xpcruntime:xpcimports.obj
 0002:00002a68       ??_C@_0P@IEIIADJB@xpceScopeAcqOK?$AA@ 1003ca68     xpcruntime:xpcimports.obj
 0002:00002a78       ??_C@_0BK@NJCKNFPN@xpceScopeAcqOK?5not?5found?6?$AA@ 1003ca78     xpcruntime:xpcimports.obj
 0002:00002a94       ??_C@_0BA@IJINKAHF@xpceRegisterISR?$AA@ 1003ca94     xpcruntime:xpcimports.obj
 0002:00002aa4       ??_C@_0BL@NNDLOEJE@xpceRegisterISR?5not?5found?6?$AA@ 1003caa4     xpcruntime:xpcimports.obj
 0002:00002ac0       ??_C@_0BC@NLBADGKF@xpceDeRegisterISR?$AA@ 1003cac0     xpcruntime:xpcimports.obj
 0002:00002ad4       ??_C@_0BN@DCAIKFFD@xpceDeRegisterISR?5not?5found?6?$AA@ 1003cad4     xpcruntime:xpcimports.obj
 0002:00002af4       ??_C@_07JPMEPILD@xpcInpB?$AA@ 1003caf4     xpcruntime:xpcimports.obj
 0002:00002afc       ??_C@_0BD@PGABEJOL@xpcInpB?5not?5found?6?$AA@ 1003cafc     xpcruntime:xpcimports.obj
 0002:00002b10       ??_C@_07KIHBBOKH@xpcInpW?$AA@ 1003cb10     xpcruntime:xpcimports.obj
 0002:00002b18       ??_C@_0BD@FPCJFMCC@xpcInpW?5not?5found?6?$AA@ 1003cb18     xpcruntime:xpcimports.obj
 0002:00002b2c       ??_C@_08KDIAJBOP@xpcInpDW?$AA@ 1003cb2c     xpcruntime:xpcimports.obj
 0002:00002b38       ??_C@_0BE@PIELDNIL@xpcInpDW?5not?5found?6?$AA@ 1003cb38     xpcruntime:xpcimports.obj
 0002:00002b4c       ??_C@_08PJFMOIGO@xpcOutpB?$AA@ 1003cb4c     xpcruntime:xpcimports.obj
 0002:00002b58       ??_C@_0BE@HCKNCEKF@xpcOutpB?5not?5found?6?$AA@ 1003cb58     xpcruntime:xpcimports.obj
 0002:00002b6c       ??_C@_08MOOJAOHK@xpcOutpW?$AA@ 1003cb6c     xpcruntime:xpcimports.obj
 0002:00002b78       ??_C@_0BE@NLIFDBGM@xpcOutpW?5not?5found?6?$AA@ 1003cb78     xpcruntime:xpcimports.obj
 0002:00002b8c       ??_C@_09FLIEKHJG@xpcOutpDW?$AA@ 1003cb8c     xpcruntime:xpcimports.obj
 0002:00002b98       ??_C@_0BF@GJKLPNHB@xpcOutpDW?5not?5found?6?$AA@ 1003cb98     xpcruntime:xpcimports.obj
 0002:00002bb0       ??_C@_0BH@EHOLELHH@xpcReserveMemoryRegion?$AA@ 1003cbb0     xpcruntime:xpcimports.obj
 0002:00002bc8       ??_C@_0CC@KAAAGPI@xpcReserveMemoryRegion?5not?5found@ 1003cbc8     xpcruntime:xpcimports.obj
 0002:00002bec       ??_C@_0BA@JGPMHGAF@rl32eShowPCIDev?$AA@ 1003cbec     xpcruntime:xpcimports.obj
 0002:00002bfc       ??_C@_0BL@DDFFLNHI@rl32eShowPCIDev?5not?5found?6?$AA@ 1003cbfc     xpcruntime:xpcimports.obj
 0002:00002c18       ??_C@_0BB@KBCOJPFB@rl32eShowPCIInfo?$AA@ 1003cc18     xpcruntime:xpcimports.obj
 0002:00002c2c       ??_C@_0BM@IFDMAGLO@rl32eShowPCIInfo?5not?5found?6?$AA@ 1003cc2c     xpcruntime:xpcimports.obj
 0002:00002c48       ??_C@_0BA@BGPAADB@rl32eGetPCIInfo?$AA@ 1003cc48     xpcruntime:xpcimports.obj
 0002:00002c58       ??_C@_0BL@IGOMLDCK@rl32eGetPCIInfo?5not?5found?6?$AA@ 1003cc58     xpcruntime:xpcimports.obj
 0002:00002c74       ??_C@_0BG@NJPFKFDP@rl32eGetPCIInfoAtSlot?$AA@ 1003cc74     xpcruntime:xpcimports.obj
 0002:00002c8c       ??_C@_0CB@BBKIPMLA@rl32eGetPCIInfoAtSlot?5not?5found?6@ 1003cc8c     xpcruntime:xpcimports.obj
 0002:00002cb0       ??_C@_0BH@OKBOPNFG@xpceAssignPCIInterrupt?$AA@ 1003ccb0     xpcruntime:xpcimports.obj
 0002:00002cc8       ??_C@_0CC@CDNDNJBJ@xpceAssignPCIInterrupt?5not?5found@ 1003ccc8     xpcruntime:xpcimports.obj
 0002:00002cec       ??_C@_0BD@PCKOKHO@xpceGetSignalValue?$AA@ 1003ccec     xpcruntime:xpcimports.obj
 0002:00002d00       ??_C@_0BO@GCBDJHMB@xpceGetSignalValue?5not?5found?6?$AA@ 1003cd00     xpcruntime:xpcimports.obj
 0002:00002d20       ??_C@_0BB@BJONJAGA@xpceSetParameter?$AA@ 1003cd20     xpcruntime:xpcimports.obj
 0002:00002d34       ??_C@_0BM@BJIKDLHA@xpceSetParameter?5not?5found?6?$AA@ 1003cd34     xpcruntime:xpcimports.obj
 0002:00002d50       ??_C@_0BB@GNFDFMCM@xpceGetParameter?$AA@ 1003cd50     xpcruntime:xpcimports.obj
 0002:00002d64       ??_C@_0BM@POHNKBC@xpceGetParameter?5not?5found?6?$AA@ 1003cd64     xpcruntime:xpcimports.obj
 0002:00002d80       ??_C@_0BB@CEIJLFCD@xpceGetParamDims?$AA@ 1003cd80     xpcruntime:xpcimports.obj
 0002:00002d94       ??_C@_0BM@OABDBKAO@xpceGetParamDims?5not?5found?6?$AA@ 1003cd94     xpcruntime:xpcimports.obj
 0002:00002db0       ??_C@_0L@OCBLLHBM@xpceGetTET?$AA@ 1003cdb0     xpcruntime:xpcimports.obj
 0002:00002dbc       ??_C@_0BG@HNOFBOB@xpceGetTET?5not?5found?6?$AA@ 1003cdbc     xpcruntime:xpcimports.obj
 0002:00002dd4       ??_C@_0P@OKGNGAGH@xpcIsModelInit?$AA@ 1003cdd4     xpcruntime:xpcimports.obj
 0002:00002de4       ??_C@_0BK@DHEMLBIM@xpcIsModelInit?5not?5found?6?$AA@ 1003cde4     xpcruntime:xpcimports.obj
 0002:00002e00       ??_C@_0BH@KJJLCAOJ@xpcAllocPhysicalMemory?$AA@ 1003ce00     xpcruntime:xpcimports.obj
 0002:00002e18       ??_C@_0CC@MOJPNHKL@xpcAllocPhysicalMemory?5not?5found@ 1003ce18     xpcruntime:xpcimports.obj
 0002:00002e3c       ??_C@_0BG@CBNPGAEL@xpcFreePhysicalMemory?$AA@ 1003ce3c     xpcruntime:xpcimports.obj
 0002:00002e54       ??_C@_0CB@PKJEBPOG@xpcFreePhysicalMemory?5not?5found?6@ 1003ce54     xpcruntime:xpcimports.obj
 0002:00002e78       ??_C@_0BC@JGKNLICL@xpcGetElapsedTime?$AA@ 1003ce78     xpcruntime:xpcimports.obj
 0002:00002e8c       ??_C@_0BN@OEOAHCIO@xpcGetElapsedTime?5not?5found?6?$AA@ 1003ce8c     xpcruntime:xpcimports.obj
 0002:00002eac       ??_C@_0M@ICBLMODA@xpcBusyWait?$AA@ 1003ceac     xpcruntime:xpcimports.obj
 0002:00002eb8       ??_C@_0BH@FBOPECBI@xpcBusyWait?5not?5found?6?$AA@ 1003ceb8     xpcruntime:xpcimports.obj
 0002:00002ed0       ??_C@_0N@LKKJEKKA@TBCreateSpin?$AA@ 1003ced0     xpcruntime:xpcimports.obj
 0002:00002ee0       ??_C@_0BI@FHKMLKOE@TBCreateSpin?5not?5found?6?$AA@ 1003cee0     xpcruntime:xpcimports.obj
 0002:00002ef8       ??_C@_0N@HOAJHNBD@TBDeleteSpin?$AA@ 1003cef8     xpcruntime:xpcimports.obj
 0002:00002f08       ??_C@_0BI@BKCPAAG@TBDeleteSpin?5not?5found?6?$AA@ 1003cf08     xpcruntime:xpcimports.obj
 0002:00002f20       ??_C@_0P@DAHDDBJG@TBTakeSpinFast?$AA@ 1003cf20     xpcruntime:xpcimports.obj
 0002:00002f30       ??_C@_0BK@NKAIBHGB@TBTakeSpinFast?5not?5found?6?$AA@ 1003cf30     xpcruntime:xpcimports.obj
 0002:00002f4c       ??_C@_0P@FKNAAELA@TBGiveSpinFast?$AA@ 1003cf4c     xpcruntime:xpcimports.obj
 0002:00002f5c       ??_C@_0BK@KGPJBJND@TBGiveSpinFast?5not?5found?6?$AA@ 1003cf5c     xpcruntime:xpcimports.obj
 0002:00002f78       ??_C@_0BE@IIGBFDHK@xpceCreateSemaphore?$AA@ 1003cf78     xpcruntime:xpcimports.obj
 0002:00002f8c       ??_C@_0BP@KFBAFFKJ@xpceCreateSemaphore?5not?5found?6?$AA@ 1003cf8c     xpcruntime:xpcimports.obj
 0002:00002fac       ??_C@_0BC@IFNIONKJ@xpceWaitSemaphore?$AA@ 1003cfac     xpcruntime:xpcimports.obj
 0002:00002fc0       ??_C@_0BN@NMFAADIO@xpceWaitSemaphore?5not?5found?6?$AA@ 1003cfc0     xpcruntime:xpcimports.obj
 0002:00002fe0       ??_C@_0BE@NNDIOBKE@xpceSignalSemaphore?$AA@ 1003cfe0     xpcruntime:xpcimports.obj
 0002:00002ff4       ??_C@_0BP@LBANMHJP@xpceSignalSemaphore?5not?5found?6?$AA@ 1003cff4     xpcruntime:xpcimports.obj
 0002:00003014       ??_C@_0BE@MEBEKOIM@xpceDeleteSemaphore?$AA@ 1003d014     xpcruntime:xpcimports.obj
 0002:00003028       ??_C@_0BP@OFNCKOJH@xpceDeleteSemaphore?5not?5found?6?$AA@ 1003d028     xpcruntime:xpcimports.obj
 0002:00003048       ??_C@_0BD@MFNDMBOF@FindUsbVideoDevice?$AA@ 1003d048     xpcruntime:xpcimports.obj
 0002:0000305c       ??_C@_0BO@POKLDHMI@FindUsbVideoDevice?5not?5found?6?$AA@ 1003d05c     xpcruntime:xpcimports.obj
 0002:0000307c       ??_C@_0BA@PLPAPNAB@GetVideoConfigs?$AA@ 1003d07c     xpcruntime:xpcimports.obj
 0002:0000308c       ??_C@_0BL@DALDHKHC@GetVideoConfigs?5not?5found?6?$AA@ 1003d08c     xpcruntime:xpcimports.obj
 0002:000030a8       ??_C@_0L@GBAEMHMH@StartVideo?$AA@ 1003d0a8     xpcruntime:xpcimports.obj
 0002:000030b4       ??_C@_0BG@HDCELEBP@StartVideo?5not?5found?6?$AA@ 1003d0b4     xpcruntime:xpcimports.obj
 0002:000030cc       ??_C@_0BA@FDNPOCLN@ReadFrameBuffer?$AA@ 1003d0cc     xpcruntime:xpcimports.obj
 0002:000030dc       ??_C@_0BL@JHGHPNBI@ReadFrameBuffer?5not?5found?6?$AA@ 1003d0dc     xpcruntime:xpcimports.obj
 0002:000030f8       ??_C@_09FAHCLKAG@StopVideo?$AA@ 1003d0f8     xpcruntime:xpcimports.obj
 0002:00003104       ??_C@_0BF@NKGKKADL@StopVideo?5not?5found?6?$AA@ 1003d104     xpcruntime:xpcimports.obj
 0002:0000311c       ??_C@_0O@MCPKDLLL@ConvertUImage?$AA@ 1003d11c     xpcruntime:xpcimports.obj
 0002:0000312c       ??_C@_0BJ@PHJKOAFL@ConvertUImage?5not?5found?6?$AA@ 1003d12c     xpcruntime:xpcimports.obj
 0002:00003148       ??_C@_0BD@NKCBPBJJ@CreateVideoDisplay?$AA@ 1003d148     xpcruntime:xpcimports.obj
 0002:0000315c       ??_C@_0BO@HPPLLNFP@CreateVideoDisplay?5not?5found?6?$AA@ 1003d15c     xpcruntime:xpcimports.obj
 0002:0000317c       ??_C@_0BE@KJCKGPHA@DestroyVideoDisplay?$AA@ 1003d17c     xpcruntime:xpcimports.obj
 0002:00003190       ??_C@_0BP@FMGLJAIJ@DestroyVideoDisplay?5not?5found?6?$AA@ 1003d190     xpcruntime:xpcimports.obj
 0002:000031b0       ??_C@_0BC@HCMIMIDN@StartVideoDisplay?$AA@ 1003d1b0     xpcruntime:xpcimports.obj
 0002:000031c4       ??_C@_0BN@EFIEBGOO@StartVideoDisplay?5not?5found?6?$AA@ 1003d1c4     xpcruntime:xpcimports.obj
 0002:000031e4       ??_C@_0BB@JBBLMILG@StopVideoDisplay?$AA@ 1003d1e4     xpcruntime:xpcimports.obj
 0002:000031f8       ??_C@_0BM@DBJBPLEL@StopVideoDisplay?5not?5found?6?$AA@ 1003d1f8     xpcruntime:xpcimports.obj
 0002:00003214       ??_C@_0M@MFJEGMHC@StreamVideo?$AA@ 1003d214     xpcruntime:xpcimports.obj
 0002:00003220       ??_C@_0BH@OINCDMLA@StreamVideo?5not?5found?6?$AA@ 1003d220     xpcruntime:xpcimports.obj
 0002:00003238       ??_C@_0N@IGGLCIGE@xpceaddEvent?$AA@ 1003d238     xpcruntime:xpcimports.obj
 0002:00003248       ??_C@_0BI@NHJNFMKH@xpceaddEvent?5not?5found?6?$AA@ 1003d248     xpcruntime:xpcimports.obj
 0002:00003260       ??_C@_0BB@LCMHHHFN@getMemoryService?$AA@ 1003d260     xpcruntime:xpcimports.obj
 0002:00003274       ??_C@_0BM@MPLCNIIE@getMemoryService?5not?5found?6?$AA@ 1003d274     xpcruntime:xpcimports.obj
 0002:00003290       ??_C@_0P@KIKONDKK@getCommService?$AA@ 1003d290     xpcruntime:xpcimports.obj
 0002:000032a0       ??_C@_0BK@NCECBKNM@getCommService?5not?5found?6?$AA@ 1003d2a0     xpcruntime:xpcimports.obj
 0002:000032bc       ??_C@_0P@GDLHFECE@getStatusFlags?$AA@ 1003d2bc     xpcruntime:xpcimports.obj
 0002:000032cc       ??_C@_0BK@NEKDLJHG@getStatusFlags?5not?5found?6?$AA@ 1003d2cc     xpcruntime:xpcimports.obj
 0002:000032e8       ??_C@_0BL@CDFCLKOL@startToAsyncQueueTgtAppSvc?$AA@ 1003d2e8     xpcruntime:xpcimports.obj
 0002:00003304       ??_C@_0CG@JGOFFKEL@startToAsyncQueueTgtAppSvc?5not?5f@ 1003d304     xpcruntime:xpcimports.obj
 0002:0000332c       ??_C@_0BP@IJNGPPPE@terminateToAsyncQueueTgtAppSvc?$AA@ 1003d32c     xpcruntime:xpcimports.obj
 0002:0000334c       ??_C@_0CK@NDEMAMKF@terminateToAsyncQueueTgtAppSvc?5n@ 1003d34c     xpcruntime:xpcimports.obj
 0002:00003378       ??_C@_0BK@IDACEHAO@sendToAsyncQueueTgtAppSvc?$AA@ 1003d378     xpcruntime:xpcimports.obj
 0002:00003394       ??_C@_0CF@PNCKPEHN@sendToAsyncQueueTgtAppSvc?5not?5fo@ 1003d394     xpcruntime:xpcimports.obj
 0002:000033bc       ??_C@_0BN@HJOHIFOM@xpceGetIntTimerGranularityNS?$AA@ 1003d3bc     xpcruntime:xpcimports.obj
 0002:000033dc       ??_C@_0CI@OADDPMKB@xpceGetIntTimerGranularityNS?5not@ 1003d3dc     xpcruntime:xpcimports.obj
 0002:00003404       ??_C@_0BG@CCHICKPN@slrteSetStepSizeDelta?$AA@ 1003d404     xpcruntime:xpcimports.obj
 0002:0000341c       ??_C@_0CB@MKHINEIJ@slrteSetStepSizeDelta?5not?5found?6@ 1003d41c     xpcruntime:xpcimports.obj
 0002:00003440       ??_C@_0BI@CLNBLDKJ@slrteGetCurrentStepSize?$AA@ 1003d440     xpcruntime:xpcimports.obj
 0002:00003458       ??_C@_0CD@GIOJPGJA@slrteGetCurrentStepSize?5not?5foun@ 1003d458     xpcruntime:xpcimports.obj
 0002:0000347c       ??_C@_0BE@FCLCBOC@registerPTPTimeRead?$AA@ 1003d47c     xpcruntime:xpcimports.obj
 0002:00003490       ??_C@_0BP@LHPKAJIP@registerPTPTimeRead?5not?5found?6?$AA@ 1003d490     xpcruntime:xpcimports.obj
 0002:000034b0       ??_C@_0BG@KIGCDDJI@unRegisterPTPTimeRead?$AA@ 1003d4b0     xpcruntime:xpcimports.obj
 0002:000034c8       ??_C@_0CB@MLFFBFCM@unRegisterPTPTimeRead?5not?5found?6@ 1003d4c8     xpcruntime:xpcimports.obj
 0002:000034ec       ??_C@_0BB@IPMDDBHK@slTestInitialize?$AA@ 1003d4ec     xpcruntime:xpcimports.obj
 0002:00003500       ??_C@_0BM@LAJFCCJH@slTestInitialize?5not?5found?6?$AA@ 1003d500     xpcruntime:xpcimports.obj
 0002:0000351c       ??_C@_0BF@OOMPMEBC@slTestLogAssessments?$AA@ 1003d51c     xpcruntime:xpcimports.obj
 0002:00003534       ??_C@_0CA@FGJCEBAG@slTestLogAssessments?5not?5found?6?$AA@ 1003d534     xpcruntime:xpcimports.obj
 0002:00003554       ??_C@_0BB@HJHKONHO@slTestEvalOnFail?$AA@ 1003d554     xpcruntime:xpcimports.obj
 0002:00003568       ??_C@_0BM@JIKCFFNJ@slTestEvalOnFail?5not?5found?6?$AA@ 1003d568     xpcruntime:xpcimports.obj
 0002:00003584       ??_C@_0BA@LBHLABFP@slTestTerminate?$AA@ 1003d584     xpcruntime:xpcimports.obj
 0002:00003594       ??_C@_0BL@EMFGKAPA@slTestTerminate?5not?5found?6?$AA@ 1003d594     xpcruntime:xpcimports.obj
 0002:000035b0       ??_C@_0BE@JPNPBBEO@slTestRegAssessment?$AA@ 1003d5b0     xpcruntime:xpcimports.obj
 0002:000035c4       ??_C@_0BP@FBDEJJJH@slTestRegAssessment?5not?5found?6?$AA@ 1003d5c4     xpcruntime:xpcimports.obj
 0002:000035e4       ??_C@_0O@NCLGDNIB@slrteSetupMSI?$AA@ 1003d5e4     xpcruntime:xpcimports.obj
 0002:000035f4       ??_C@_0BJ@HEFMECLM@slrteSetupMSI?5not?5found?6?$AA@ 1003d5f4     xpcruntime:xpcimports.obj
 0002:00003610       ??_C@_0BH@BPOLALHD@slrtGetCRBScratchSpace?$AA@ 1003d610     xpcruntime:xpcimports.obj
 0002:00003628       ??_C@_0CC@KCKAJKKJ@slrtGetCRBScratchSpace?5not?5found@ 1003d628     xpcruntime:xpcimports.obj
 0002:0000364c       ??_C@_0BC@MKFDAKOL@slrtGetSgCRBSpace?$AA@ 1003d64c     xpcruntime:xpcimports.obj
 0002:00003660       ??_C@_0BN@JDPHPLHL@slrtGetSgCRBSpace?5not?5found?6?$AA@ 1003d660     xpcruntime:xpcimports.obj
 0002:00003680       ??_C@_0P@EPAPKLIF@slrtfsOpenFile?$AA@ 1003d680     xpcruntime:xpcimports.obj
 0002:00003690       ??_C@_0BK@FIHCBOHG@slrtfsOpenFile?5not?5found?6?$AA@ 1003d690     xpcruntime:xpcimports.obj
 0002:000036ac       ??_C@_0BA@LILAFDDL@slrtfsCloseFile?$AA@ 1003d6ac     xpcruntime:xpcimports.obj
 0002:000036bc       ??_C@_0BL@DEGHJFIB@slrtfsCloseFile?5not?5found?6?$AA@ 1003d6bc     xpcruntime:xpcimports.obj
 0002:000036d8       ??_C@_0BC@OKMJDIEH@slrtfsWriteToFile?$AA@ 1003d6d8     xpcruntime:xpcimports.obj
 0002:000036ec       ??_C@_0BN@KCFLCLAH@slrtfsWriteToFile?5not?5found?6?$AA@ 1003d6ec     xpcruntime:xpcimports.obj
 0002:0000370c       ??_C@_0BK@GIPNFFFF@slrtfsGetFileErrorMessage?$AA@ 1003d70c     xpcruntime:xpcimports.obj
 0002:00003728       ??_C@_0CF@BCBLMKLE@slrtfsGetFileErrorMessage?5not?5fo@ 1003d728     xpcruntime:xpcimports.obj
 0002:00003750       ??_C@_0BD@ICBOKMK@slrtfsGetFileError?$AA@ 1003d750     xpcruntime:xpcimports.obj
 0002:00003764       ??_C@_0BO@FNBANAE@slrtfsGetFileError?5not?5found?6?$AA@ 1003d764     xpcruntime:xpcimports.obj
 0002:00003784       ??_C@_0BE@PPAJMHJP@slrtfsOpenFileAsync?$AA@ 1003d784     xpcruntime:xpcimports.obj
 0002:00003798       ??_C@_0BP@HKBMMJOK@slrtfsOpenFileAsync?5not?5found?6?$AA@ 1003d798     xpcruntime:xpcimports.obj
 0002:000037b8       ??_C@_0BF@IGNDIBPF@slrtfsCloseFileAsync?$AA@ 1003d7b8     xpcruntime:xpcimports.obj
 0002:000037d0       ??_C@_0CA@GJPFDBKN@slrtfsCloseFileAsync?5not?5found?6?$AA@ 1003d7d0     xpcruntime:xpcimports.obj
 0002:000037f0       ??_C@_0BE@IOLEBNB@slrtfsGetFileStatus?$AA@ 1003d7f0     xpcruntime:xpcimports.obj
 0002:00003804       ??_C@_0BP@PEFHDGHL@slrtfsGetFileStatus?5not?5found?6?$AA@ 1003d804     xpcruntime:xpcimports.obj
 0002:00003824       ??_C@_0N@IDKFJOHI@getlasterror?$AA@ 1003d824     xpcruntime:xpcimports.obj
 0002:00003834       ??_C@_0BI@MIHMCHGL@getlasterror?5not?5found?6?$AA@ 1003d834     xpcruntime:xpcimports.obj
 0002:0000384c       ??_C@_0N@EAAOMIIE@isUsedByRTIP?$AA@ 1003d84c     xpcruntime:xpcimports.obj
 0002:0000385c       ??_C@_0BI@GNHHHICK@isUsedByRTIP?5not?5found?6?$AA@ 1003d85c     xpcruntime:xpcimports.obj
 0002:00003874       ??_C@_0BC@HLDKJAG@SetIPTASKPriority?$AA@ 1003d874     xpcruntime:xpcimports.obj
 0002:00003888       ??_C@_0BN@OGKMHHAE@SetIPTASKPriority?5not?5found?6?$AA@ 1003d888     xpcruntime:xpcimports.obj
 0002:000038a8       ??_C@_0O@LHENMBDD@OpenInterface?$AA@ 1003d8a8     xpcruntime:xpcimports.obj
 0002:000038b8       ??_C@_0BJ@PFGDBKHB@OpenInterface?5not?5found?6?$AA@ 1003d8b8     xpcruntime:xpcimports.obj
 0002:000038d4       ??_C@_0P@IINFELKD@CloseInterface?$AA@ 1003d8d4     xpcruntime:xpcimports.obj
 0002:000038e4       ??_C@_0BK@PAPDNDBK@CloseInterface?5not?5found?6?$AA@ 1003d8e4     xpcruntime:xpcimports.obj
 0002:00003900       ??_C@_05LEFIAAOI@SetIP?$AA@ 1003d900     xpcruntime:xpcimports.obj
 0002:00003908       ??_C@_0BB@CGLIBAMM@SetIP?5not?5found?6?$AA@ 1003d908     xpcruntime:xpcimports.obj
 0002:0000391c       ??_C@_0BA@HIJJHHMD@AddGatewayRoute?$AA@ 1003d91c     xpcruntime:xpcimports.obj
 0002:0000392c       ??_C@_0BL@BFCFMDMN@AddGatewayRoute?5not?5found?6?$AA@ 1003d92c     xpcruntime:xpcimports.obj
 0002:00003948       ??_C@_0M@PHMABFPI@DeleteRoute?$AA@ 1003d948     xpcruntime:xpcimports.obj
 0002:00003954       ??_C@_0BH@JPJGLLID@DeleteRoute?5not?5found?6?$AA@ 1003d954     xpcruntime:xpcimports.obj
 0002:0000396c       ??_C@_0BA@FCDIMKIJ@GetHostTarIPAdd?$AA@ 1003d96c     xpcruntime:xpcimports.obj
 0002:0000397c       ??_C@_0BL@MBKDGKBO@GetHostTarIPAdd?5not?5found?6?$AA@ 1003d97c     xpcruntime:xpcimports.obj
 0002:00003998       ??_C@_0M@HPMIPIBI@GetDCUUsage?$AA@ 1003d998     xpcruntime:xpcimports.obj
 0002:000039a4       ??_C@_0BH@EBLJKCJC@GetDCUUsage?5not?5found?6?$AA@ 1003d9a4     xpcruntime:xpcimports.obj
 0002:000039bc       ??_C@_06MPKMECK@accept?$AA@ 1003d9bc     xpcruntime:xpcimports.obj
 0002:000039c4       ??_C@_0BC@GBGIEMNO@accept?5not?5found?6?$AA@ 1003d9c4     xpcruntime:xpcimports.obj
 0002:000039d8       ??_C@_04NPNJNMMP@bind?$AA@ 1003d9d8     xpcruntime:xpcimports.obj
 0002:000039e0       ??_C@_0BA@DAJNENLO@bind?5not?5found?6?$AA@ 1003d9e0     xpcruntime:xpcimports.obj
 0002:000039f0       ??_C@_0L@CKHNIFCM@setsockopt?$AA@ 1003d9f0     xpcruntime:xpcimports.obj
 0002:000039fc       ??_C@_0BG@MFIIOMFE@setsockopt?5not?5found?6?$AA@ 1003d9fc     xpcruntime:xpcimports.obj
 0002:00003a14       ??_C@_0M@ODDJDCDK@closesocket?$AA@ 1003da14     xpcruntime:xpcimports.obj
 0002:00003a20       ??_C@_0BH@JHGHMIL@closesocket?5not?5found?6?$AA@ 1003da20     xpcruntime:xpcimports.obj
 0002:00003a38       ??_C@_07KAIBNCHO@connect?$AA@ 1003da38     xpcruntime:xpcimports.obj
 0002:00003a40       ??_C@_0BD@MKLLMBM@connect?5not?5found?6?$AA@ 1003da40     xpcruntime:xpcimports.obj
 0002:00003a54       ??_C@_0M@PBPOCKDG@ioctlsocket?$AA@ 1003da54     xpcruntime:xpcimports.obj
 0002:00003a60       ??_C@_0BH@NFCNHHIH@ioctlsocket?5not?5found?6?$AA@ 1003da60     xpcruntime:xpcimports.obj
 0002:00003a78       ??_C@_06OODDLKLE@listen?$AA@ 1003da78     xpcruntime:xpcimports.obj
 0002:00003a80       ??_C@_0BC@NHBILEKI@listen?5not?5found?6?$AA@ 1003da80     xpcruntime:xpcimports.obj
 0002:00003a94       ??_C@_08HMBBGFHE@recvfrom?$AA@ 1003da94     xpcruntime:xpcimports.obj
 0002:00003aa0       ??_C@_0BE@BJAJFFLF@recvfrom?5not?5found?6?$AA@ 1003daa0     xpcruntime:xpcimports.obj
 0002:00003ab4       ??_C@_06MEPBGKEC@sendto?$AA@ 1003dab4     xpcruntime:xpcimports.obj
 0002:00003abc       ??_C@_0BC@BHPIMDJO@sendto?5not?5found?6?$AA@ 1003dabc     xpcruntime:xpcimports.obj
 0002:00003ad0       ??_C@_09JKBDEEOB@inet_addr?$AA@ 1003dad0     xpcruntime:xpcimports.obj
 0002:00003adc       ??_C@_0BF@HKJPGECN@inet_addr?5not?5found?6?$AA@ 1003dadc     xpcruntime:xpcimports.obj
 0002:00003af4       ??_C@_06HBELJPBO@socket?$AA@ 1003daf4     xpcruntime:xpcimports.obj
 0002:00003afc       ??_C@_0BC@NAGFFJGA@socket?5not?5found?6?$AA@ 1003dafc     xpcruntime:xpcimports.obj
 0002:00003b10       __FPinit                   1003db10     LIBCMT:fpinit.obj
 0002:00003b1c       ??_C@_1BI@BGOHAHKC@?$AAm?$AAs?$AAc?$AAo?$AAr?$AAe?$AAe?$AA?4?$AAd?$AAl?$AAl?$AA?$AA@ 1003db1c     LIBCMT:crt0dat.obj
 0002:00003b34       ??_C@_0P@MIGLKIOC@CorExitProcess?$AA@ 1003db34     LIBCMT:crt0dat.obj
 0002:00003bd4       ??_C@_17LGKOMLJ@?$AA?4?$AA?4?$AA?4?$AA?$AA@ 1003dbd4     LIBCMT:wassert.obj
 0002:00003bdc       ??_C@_13LBAGMAIH@?$AA?6?$AA?$AA@ 1003dbdc     LIBCMT:wassert.obj
 0002:00003be0       ??_C@_15IABLJNFO@?$AA?6?$AA?6?$AA?$AA@ 1003dbe0     LIBCMT:wassert.obj
 0002:00003be8       ??_C@_1CE@OJBNHDMO@?$AAA?$AAs?$AAs?$AAe?$AAr?$AAt?$AAi?$AAo?$AAn?$AA?5?$AAf?$AAa?$AAi?$AAl?$AAe?$AAd?$AA?$CB?$AA?$AA@ 1003dbe8     LIBCMT:wassert.obj
 0002:00003c0c       ??_C@_1BE@PHKBBGE@?$AAP?$AAr?$AAo?$AAg?$AAr?$AAa?$AAm?$AA?3?$AA?5?$AA?$AA@ 1003dc0c     LIBCMT:wassert.obj
 0002:00003c20       ??_C@_1CO@EAEJAADC@?$AA?$DM?$AAp?$AAr?$AAo?$AAg?$AAr?$AAa?$AAm?$AA?5?$AAn?$AAa?$AAm?$AAe?$AA?5?$AAu?$AAn?$AAk?$AAn?$AAo?$AAw?$AAn?$AA?$DO?$AA?$AA@ 1003dc20     LIBCMT:wassert.obj
 0002:00003c50       ??_C@_1O@HEMHKNDC@?$AAF?$AAi?$AAl?$AAe?$AA?3?$AA?5?$AA?$AA@ 1003dc50     LIBCMT:wassert.obj
 0002:00003c60       ??_C@_1O@KCAFKHJE@?$AAL?$AAi?$AAn?$AAe?$AA?3?$AA?5?$AA?$AA@ 1003dc60     LIBCMT:wassert.obj
 0002:00003c70       ??_C@_1BK@PEDCIPMA@?$AAE?$AAx?$AAp?$AAr?$AAe?$AAs?$AAs?$AAi?$AAo?$AAn?$AA?3?$AA?5?$AA?$AA@ 1003dc70     LIBCMT:wassert.obj
 0002:00003c90       ??_C@_1OA@EGMLFBHJ@?$AAF?$AAo?$AAr?$AA?5?$AAi?$AAn?$AAf?$AAo?$AAr?$AAm?$AAa?$AAt?$AAi?$AAo?$AAn?$AA?5?$AAo?$AAn?$AA?5?$AAh?$AAo?$AAw?$AA?5?$AAy?$AAo?$AAu?$AAr?$AA?5?$AAp?$AAr?$AAo?$AAg@ 1003dc90     LIBCMT:wassert.obj
 0002:00003d70       ??_C@_1HK@POCJMFGK@?$AA?$CI?$AAP?$AAr?$AAe?$AAs?$AAs?$AA?5?$AAR?$AAe?$AAt?$AAr?$AAy?$AA?5?$AAt?$AAo?$AA?5?$AAd?$AAe?$AAb?$AAu?$AAg?$AA?5?$AAt?$AAh?$AAe?$AA?5?$AAa?$AAp?$AAp?$AAl?$AAi?$AAc@ 1003dd70     LIBCMT:wassert.obj
 0002:00003df0       ??_C@_1EK@MBDPDCGA@?$AAM?$AAi?$AAc?$AAr?$AAo?$AAs?$AAo?$AAf?$AAt?$AA?5?$AAV?$AAi?$AAs?$AAu?$AAa?$AAl?$AA?5?$AAC?$AA?$CL?$AA?$CL?$AA?5?$AAR?$AAu?$AAn?$AAt?$AAi?$AAm?$AAe?$AA?5?$AAL?$AAi?$AAb@ 1003ddf0     LIBCMT:wassert.obj
 0002:00003e3c       __pDefaultRawDllMain       1003de3c     LIBCMT:dllcrt0.obj
 0002:00003e3c       __pRawDllMain              1003de3c     LIBCMT:dllcrt0.obj
 0002:00003e40       ?ProcessDetach@NativeDll@<CrtImplementationDetails>@@0IB 1003de40     LIBCMT:handler.obj
 0002:00003e44       ?ProcessAttach@NativeDll@<CrtImplementationDetails>@@0IB 1003de44     LIBCMT:handler.obj
 0002:00003e48       ?ThreadAttach@NativeDll@<CrtImplementationDetails>@@0IB 1003de48     LIBCMT:handler.obj
 0002:00003e4c       ?ThreadDetach@NativeDll@<CrtImplementationDetails>@@0IB 1003de4c     LIBCMT:handler.obj
 0002:00003e50       ?ProcessVerifier@NativeDll@<CrtImplementationDetails>@@0IB 1003de50     LIBCMT:handler.obj
 0002:00003f10       ??_C@_1FK@PGACCAFB@?$AAR?$AA6?$AA0?$AA0?$AA2?$AA?$AN?$AA?6?$AA?9?$AA?5?$AAf?$AAl?$AAo?$AAa?$AAt?$AAi?$AAn?$AAg?$AA?5?$AAp?$AAo?$AAi?$AAn?$AAt?$AA?5?$AAs?$AAu?$AAp?$AAp?$AAo?$AAr?$AAt?$AA?5@ 1003df10     LIBCMT:crt0msg.obj
 0002:00003f70       ??_C@_1FE@LLNEDJMD@?$AAR?$AA6?$AA0?$AA0?$AA8?$AA?$AN?$AA?6?$AA?9?$AA?5?$AAn?$AAo?$AAt?$AA?5?$AAe?$AAn?$AAo?$AAu?$AAg?$AAh?$AA?5?$AAs?$AAp?$AAa?$AAc?$AAe?$AA?5?$AAf?$AAo?$AAr?$AA?5?$AAa?$AAr@ 1003df70     LIBCMT:crt0msg.obj
 0002:00003fc8       ??_C@_1FI@HONFMGBI@?$AAR?$AA6?$AA0?$AA0?$AA9?$AA?$AN?$AA?6?$AA?9?$AA?5?$AAn?$AAo?$AAt?$AA?5?$AAe?$AAn?$AAo?$AAu?$AAg?$AAh?$AA?5?$AAs?$AAp?$AAa?$AAc?$AAe?$AA?5?$AAf?$AAo?$AAr?$AA?5?$AAe?$AAn@ 1003dfc8     LIBCMT:crt0msg.obj
 0002:00004020       ??_C@_1EG@BEHAGFJD@?$AAR?$AA6?$AA0?$AA1?$AA0?$AA?$AN?$AA?6?$AA?9?$AA?5?$AAa?$AAb?$AAo?$AAr?$AAt?$AA?$CI?$AA?$CJ?$AA?5?$AAh?$AAa?$AAs?$AA?5?$AAb?$AAe?$AAe?$AAn?$AA?5?$AAc?$AAa?$AAl?$AAl?$AAe?$AAd@ 1003e020     LIBCMT:crt0msg.obj
 0002:00004068       ??_C@_1FI@LOGNIKDM@?$AAR?$AA6?$AA0?$AA1?$AA6?$AA?$AN?$AA?6?$AA?9?$AA?5?$AAn?$AAo?$AAt?$AA?5?$AAe?$AAn?$AAo?$AAu?$AAg?$AAh?$AA?5?$AAs?$AAp?$AAa?$AAc?$AAe?$AA?5?$AAf?$AAo?$AAr?$AA?5?$AAt?$AAh@ 1003e068     LIBCMT:crt0msg.obj
 0002:000040c0       ??_C@_1FK@BEOGODMC@?$AAR?$AA6?$AA0?$AA1?$AA7?$AA?$AN?$AA?6?$AA?9?$AA?5?$AAu?$AAn?$AAe?$AAx?$AAp?$AAe?$AAc?$AAt?$AAe?$AAd?$AA?5?$AAm?$AAu?$AAl?$AAt?$AAi?$AAt?$AAh?$AAr?$AAe?$AAa?$AAd?$AA?5@ 1003e0c0     LIBCMT:crt0msg.obj
 0002:00004120       ??_C@_1EC@JIBHAOPH@?$AAR?$AA6?$AA0?$AA1?$AA8?$AA?$AN?$AA?6?$AA?9?$AA?5?$AAu?$AAn?$AAe?$AAx?$AAp?$AAe?$AAc?$AAt?$AAe?$AAd?$AA?5?$AAh?$AAe?$AAa?$AAp?$AA?5?$AAe?$AAr?$AAr?$AAo?$AAr?$AA?$AN?$AA?6@ 1003e120     LIBCMT:crt0msg.obj
 0002:00004168       ??_C@_1FC@ECHBIFBC@?$AAR?$AA6?$AA0?$AA1?$AA9?$AA?$AN?$AA?6?$AA?9?$AA?5?$AAu?$AAn?$AAa?$AAb?$AAl?$AAe?$AA?5?$AAt?$AAo?$AA?5?$AAo?$AAp?$AAe?$AAn?$AA?5?$AAc?$AAo?$AAn?$AAs?$AAo?$AAl?$AAe?$AA?5@ 1003e168     LIBCMT:crt0msg.obj
 0002:000041c0       ??_C@_1GK@FHCKBEFA@?$AAR?$AA6?$AA0?$AA2?$AA4?$AA?$AN?$AA?6?$AA?9?$AA?5?$AAn?$AAo?$AAt?$AA?5?$AAe?$AAn?$AAo?$AAu?$AAg?$AAh?$AA?5?$AAs?$AAp?$AAa?$AAc?$AAe?$AA?5?$AAf?$AAo?$AAr?$AA?5?$AA_?$AAo@ 1003e1c0     LIBCMT:crt0msg.obj
 0002:00004230       ??_C@_1EM@MAADIHMB@?$AAR?$AA6?$AA0?$AA2?$AA5?$AA?$AN?$AA?6?$AA?9?$AA?5?$AAp?$AAu?$AAr?$AAe?$AA?5?$AAv?$AAi?$AAr?$AAt?$AAu?$AAa?$AAl?$AA?5?$AAf?$AAu?$AAn?$AAc?$AAt?$AAi?$AAo?$AAn?$AA?5?$AAc@ 1003e230     LIBCMT:crt0msg.obj
 0002:00004280       ??_C@_1GK@MCAAGJMO@?$AAR?$AA6?$AA0?$AA2?$AA6?$AA?$AN?$AA?6?$AA?9?$AA?5?$AAn?$AAo?$AAt?$AA?5?$AAe?$AAn?$AAo?$AAu?$AAg?$AAh?$AA?5?$AAs?$AAp?$AAa?$AAc?$AAe?$AA?5?$AAf?$AAo?$AAr?$AA?5?$AAs?$AAt@ 1003e280     LIBCMT:crt0msg.obj
 0002:000042f0       ??_C@_1GK@MFGOKLAG@?$AAR?$AA6?$AA0?$AA2?$AA7?$AA?$AN?$AA?6?$AA?9?$AA?5?$AAn?$AAo?$AAt?$AA?5?$AAe?$AAn?$AAo?$AAu?$AAg?$AAh?$AA?5?$AAs?$AAp?$AAa?$AAc?$AAe?$AA?5?$AAf?$AAo?$AAr?$AA?5?$AAl?$AAo@ 1003e2f0     LIBCMT:crt0msg.obj
 0002:00004360       ??_C@_1EK@HHFLMAOL@?$AAR?$AA6?$AA0?$AA2?$AA8?$AA?$AN?$AA?6?$AA?9?$AA?5?$AAu?$AAn?$AAa?$AAb?$AAl?$AAe?$AA?5?$AAt?$AAo?$AA?5?$AAi?$AAn?$AAi?$AAt?$AAi?$AAa?$AAl?$AAi?$AAz?$AAe?$AA?5?$AAh?$AAe@ 1003e360     LIBCMT:crt0msg.obj
 0002:000043ac       ??_C@_1DO@BMFCDCD@?$AAR?$AA6?$AA0?$AA3?$AA0?$AA?$AN?$AA?6?$AA?9?$AA?5?$AAC?$AAR?$AAT?$AA?5?$AAn?$AAo?$AAt?$AA?5?$AAi?$AAn?$AAi?$AAt?$AAi?$AAa?$AAl?$AAi?$AAz?$AAe?$AAd?$AA?$AN?$AA?6?$AA?$AA@ 1003e3ac     LIBCMT:crt0msg.obj
 0002:000043f0       ??_C@_1MG@ENCOOIDF@?$AAR?$AA6?$AA0?$AA3?$AA1?$AA?$AN?$AA?6?$AA?9?$AA?5?$AAA?$AAt?$AAt?$AAe?$AAm?$AAp?$AAt?$AA?5?$AAt?$AAo?$AA?5?$AAi?$AAn?$AAi?$AAt?$AAi?$AAa?$AAl?$AAi?$AAz?$AAe?$AA?5?$AAt@ 1003e3f0     LIBCMT:crt0msg.obj
 0002:000044b8       ??_C@_1GG@GOPILAJP@?$AAR?$AA6?$AA0?$AA3?$AA2?$AA?$AN?$AA?6?$AA?9?$AA?5?$AAn?$AAo?$AAt?$AA?5?$AAe?$AAn?$AAo?$AAu?$AAg?$AAh?$AA?5?$AAs?$AAp?$AAa?$AAc?$AAe?$AA?5?$AAf?$AAo?$AAr?$AA?5?$AAl?$AAo@ 1003e4b8     LIBCMT:crt0msg.obj
 0002:00004520       ??_C@_1BOO@KGEDBGAJ@?$AAR?$AA6?$AA0?$AA3?$AA3?$AA?$AN?$AA?6?$AA?9?$AA?5?$AAA?$AAt?$AAt?$AAe?$AAm?$AAp?$AAt?$AA?5?$AAt?$AAo?$AA?5?$AAu?$AAs?$AAe?$AA?5?$AAM?$AAS?$AAI?$AAL?$AA?5?$AAc?$AAo?$AAd@ 1003e520     LIBCMT:crt0msg.obj
 0002:00004710       ??_C@_1GG@MKFPEKFO@?$AAR?$AA6?$AA0?$AA3?$AA4?$AA?$AN?$AA?6?$AA?9?$AA?5?$AAi?$AAn?$AAc?$AAo?$AAn?$AAs?$AAi?$AAs?$AAt?$AAe?$AAn?$AAt?$AA?5?$AAo?$AAn?$AAe?$AAx?$AAi?$AAt?$AA?5?$AAb?$AAe?$AAg@ 1003e710     LIBCMT:crt0msg.obj
 0002:00004778       ??_C@_1BO@BFCDCGC@?$AAD?$AAO?$AAM?$AAA?$AAI?$AAN?$AA?5?$AAe?$AAr?$AAr?$AAo?$AAr?$AA?$AN?$AA?6?$AA?$AA@ 1003e778     LIBCMT:crt0msg.obj
 0002:00004798       ??_C@_1BK@KMOMNAAI@?$AAS?$AAI?$AAN?$AAG?$AA?5?$AAe?$AAr?$AAr?$AAo?$AAr?$AA?$AN?$AA?6?$AA?$AA@ 1003e798     LIBCMT:crt0msg.obj
 0002:000047b4       ??_C@_1BM@JBBEPPHI@?$AAT?$AAL?$AAO?$AAS?$AAS?$AA?5?$AAe?$AAr?$AAr?$AAo?$AAr?$AA?$AN?$AA?6?$AA?$AA@ 1003e7b4     LIBCMT:crt0msg.obj
 0002:000047d0       ??_C@_15JNBOKNOG@?$AA?$AN?$AA?6?$AA?$AA@ 1003e7d0     LIBCMT:crt0msg.obj
 0002:000047d8       ??_C@_1BO@BKOMIGKJ@?$AAr?$AAu?$AAn?$AAt?$AAi?$AAm?$AAe?$AA?5?$AAe?$AAr?$AAr?$AAo?$AAr?$AA?5?$AA?$AA@ 1003e7d8     LIBCMT:crt0msg.obj
 0002:000047f8       ??_C@_1DE@JNGNBFGO@?$AAR?$AAu?$AAn?$AAt?$AAi?$AAm?$AAe?$AA?5?$AAE?$AAr?$AAr?$AAo?$AAr?$AA?$CB?$AA?6?$AA?6?$AAP?$AAr?$AAo?$AAg?$AAr?$AAa?$AAm?$AA?3?$AA?5?$AA?$AA@ 1003e7f8     LIBCMT:crt0msg.obj
 0002:0000482c       ??_C@_06OJHGLDPL@?$CInull?$CJ?$AA@ 1003e82c     LIBCMT:output.obj
 0002:00004834       ??_C@_1O@CEDCILHN@?$AA?$CI?$AAn?$AAu?$AAl?$AAl?$AA?$CJ?$AA?$AA@ 1003e834     LIBCMT:output.obj
 0002:00004848       ___lookuptable             1003e848     LIBCMT:output.obj
 0002:000048a4       ??_C@_05KLBDPFGC@e?$CL000?$AA@ 1003e8a4     LIBCMT:cvt.obj
 0002:000048ac       ??_C@_1BK@MGMFAEKH@?$AAk?$AAe?$AAr?$AAn?$AAe?$AAl?$AA3?$AA2?$AA?4?$AAd?$AAl?$AAl?$AA?$AA@ 1003e8ac     LIBCMT:winapisupp.obj
 0002:000048c8       ??_C@_08KNHFBNJ@FlsAlloc?$AA@ 1003e8c8     LIBCMT:winapisupp.obj
 0002:000048d4       ??_C@_07PEJMOBNF@FlsFree?$AA@ 1003e8d4     LIBCMT:winapisupp.obj
 0002:000048dc       ??_C@_0M@GDNOONDI@FlsGetValue?$AA@ 1003e8dc     LIBCMT:winapisupp.obj
 0002:000048e8       ??_C@_0M@JCPCPOEF@FlsSetValue?$AA@ 1003e8e8     LIBCMT:winapisupp.obj
 0002:000048f4       ??_C@_0BM@HCFOFFN@InitializeCriticalSectionEx?$AA@ 1003e8f4     LIBCMT:winapisupp.obj
 0002:00004910       ??_C@_0P@DLHPPCNH@CreateEventExW?$AA@ 1003e910     LIBCMT:winapisupp.obj
 0002:00004920       ??_C@_0BD@KIEEOEEH@CreateSemaphoreExW?$AA@ 1003e920     LIBCMT:winapisupp.obj
 0002:00004934       ??_C@_0BI@BKLFFAPO@SetThreadStackGuarantee?$AA@ 1003e934     LIBCMT:winapisupp.obj
 0002:0000494c       ??_C@_0BG@OGFAJCKC@CreateThreadpoolTimer?$AA@ 1003e94c     LIBCMT:winapisupp.obj
 0002:00004964       ??_C@_0BD@LPLEMMDI@SetThreadpoolTimer?$AA@ 1003e964     LIBCMT:winapisupp.obj
 0002:00004978       ??_C@_0CA@FMNJENH@WaitForThreadpoolTimerCallbacks?$AA@ 1003e978     LIBCMT:winapisupp.obj
 0002:00004998       ??_C@_0BF@DCFCCNOC@CloseThreadpoolTimer?$AA@ 1003e998     LIBCMT:winapisupp.obj
 0002:000049b0       ??_C@_0BF@FLABGKKM@CreateThreadpoolWait?$AA@ 1003e9b0     LIBCMT:winapisupp.obj
 0002:000049c8       ??_C@_0BC@MGCOHNA@SetThreadpoolWait?$AA@ 1003e9c8     LIBCMT:winapisupp.obj
 0002:000049dc       ??_C@_0BE@OCIOMIMP@CloseThreadpoolWait?$AA@ 1003e9dc     LIBCMT:winapisupp.obj
 0002:000049f0       ??_C@_0BJ@LKGHFHBO@FlushProcessWriteBuffers?$AA@ 1003e9f0     LIBCMT:winapisupp.obj
 0002:00004a0c       ??_C@_0BP@KALKKPMO@FreeLibraryWhenCallbackReturns?$AA@ 1003ea0c     LIBCMT:winapisupp.obj
 0002:00004a2c       ??_C@_0BK@DFNBACLA@GetCurrentProcessorNumber?$AA@ 1003ea2c     LIBCMT:winapisupp.obj
 0002:00004a48       ??_C@_0BP@KHGALBC@GetLogicalProcessorInformation?$AA@ 1003ea48     LIBCMT:winapisupp.obj
 0002:00004a68       ??_C@_0BE@FKKLLFLM@CreateSymbolicLinkW?$AA@ 1003ea68     LIBCMT:winapisupp.obj
 0002:00004a7c       ??_C@_0BJ@OHNKDLIJ@SetDefaultDllDirectories?$AA@ 1003ea7c     LIBCMT:winapisupp.obj
 0002:00004a98       ??_C@_0BE@LJANKFHF@EnumSystemLocalesEx?$AA@ 1003ea98     LIBCMT:winapisupp.obj
 0002:00004aac       ??_C@_0BA@IHGNDAEB@CompareStringEx?$AA@ 1003eaac     LIBCMT:winapisupp.obj
 0002:00004abc       ??_C@_0BA@EPCJIIPD@GetDateFormatEx?$AA@ 1003eabc     LIBCMT:winapisupp.obj
 0002:00004acc       ??_C@_0BA@ONOKGCMP@GetLocaleInfoEx?$AA@ 1003eacc     LIBCMT:winapisupp.obj
 0002:00004adc       ??_C@_0BA@CIJJKCJJ@GetTimeFormatEx?$AA@ 1003eadc     LIBCMT:winapisupp.obj
 0002:00004aec       ??_C@_0BJ@PBCCBIPI@GetUserDefaultLocaleName?$AA@ 1003eaec     LIBCMT:winapisupp.obj
 0002:00004b08       ??_C@_0BC@CELBKLLA@IsValidLocaleName?$AA@ 1003eb08     LIBCMT:winapisupp.obj
 0002:00004b1c       ??_C@_0O@KKBNKAPF@LCMapStringEx?$AA@ 1003eb1c     LIBCMT:winapisupp.obj
 0002:00004b2c       ??_C@_0BE@JOGNEJCI@GetCurrentPackageId?$AA@ 1003eb2c     LIBCMT:winapisupp.obj
 0002:00004b40       ??_C@_0P@CDHHOHKP@GetTickCount64?$AA@ 1003eb40     LIBCMT:winapisupp.obj
 0002:00004b50       ??_C@_0BO@KPCLFDJJ@GetFileInformationByHandleExW?$AA@ 1003eb50     LIBCMT:winapisupp.obj
 0002:00004b70       ??_C@_0BM@MHIDLABK@SetFileInformationByHandleW?$AA@ 1003eb70     LIBCMT:winapisupp.obj
 0002:00004b8c       ??_C@_1BK@GAEMIDIL@?$AAA?$AAD?$AAV?$AAA?$AAP?$AAI?$AA3?$AA2?$AA?4?$AAD?$AAL?$AAL?$AA?$AA@ 1003eb8c     LIBCMT:rand_s.obj
 0002:00004ba8       ??_C@_0BC@JEAENNKH@SystemFunction036?$AA@ 1003eba8     LIBCMT:rand_s.obj
 0002:00004bcc       ??_C@_1M@HPNHIDJI@?$AAj?$AAa?$AA?9?$AAJ?$AAP?$AA?$AA@ 1003ebcc     LIBCMT:mbctype.obj
 0002:00004bd8       ??_C@_1M@BIBDDEMK@?$AAz?$AAh?$AA?9?$AAC?$AAN?$AA?$AA@ 1003ebd8     LIBCMT:mbctype.obj
 0002:00004be4       ??_C@_1M@JLOOOEGK@?$AAk?$AAo?$AA?9?$AAK?$AAR?$AA?$AA@ 1003ebe4     LIBCMT:mbctype.obj
 0002:00004bf0       ??_C@_1M@CLNBBOPM@?$AAz?$AAh?$AA?9?$AAT?$AAW?$AA?$AA@ 1003ebf0     LIBCMT:mbctype.obj
 0002:00004c1c       ??_C@_03KHJOGHMM@exp?$AA@  1003ec1c     LIBCMT:fpexcept.obj
 0002:00004c20       ??_C@_03JGHBODFD@pow?$AA@  1003ec20     LIBCMT:fpexcept.obj
 0002:00004c24       ??_C@_03MGHMBJCF@log?$AA@  1003ec24     LIBCMT:fpexcept.obj
 0002:00004c28       ??_C@_05HGHHAHAP@log10?$AA@ 1003ec28     LIBCMT:fpexcept.obj
 0002:00004c30       ??_C@_04COOMCNPB@sinh?$AA@ 1003ec30     LIBCMT:fpexcept.obj
 0002:00004c38       ??_C@_04HPJJNFIM@cosh?$AA@ 1003ec38     LIBCMT:fpexcept.obj
 0002:00004c40       ??_C@_04FJHINJAO@tanh?$AA@ 1003ec40     LIBCMT:fpexcept.obj
 0002:00004c48       ??_C@_04FIHNOPOL@asin?$AA@ 1003ec48     LIBCMT:fpexcept.obj
 0002:00004c50       ??_C@_04PDIFKINK@acos?$AA@ 1003ec50     LIBCMT:fpexcept.obj
 0002:00004c58       ??_C@_04MLLJIGOK@atan?$AA@ 1003ec58     LIBCMT:fpexcept.obj
 0002:00004c60       ??_C@_05KNGEOGJB@atan2?$AA@ 1003ec60     LIBCMT:fpexcept.obj
 0002:00004c68       ??_C@_04EIAKFFMI@sqrt?$AA@ 1003ec68     LIBCMT:fpexcept.obj
 0002:00004c70       ??_C@_03BLEJJJBH@sin?$AA@  1003ec70     LIBCMT:fpexcept.obj
 0002:00004c74       ??_C@_03LALBNOCG@cos?$AA@  1003ec74     LIBCMT:fpexcept.obj
 0002:00004c78       ??_C@_03IIINPABG@tan?$AA@  1003ec78     LIBCMT:fpexcept.obj
 0002:00004c7c       ??_C@_04GFPJNGEK@ceil?$AA@ 1003ec7c     LIBCMT:fpexcept.obj
 0002:00004c84       ??_C@_05PBJFFIGL@floor?$AA@ 1003ec84     LIBCMT:fpexcept.obj
 0002:00004c8c       ??_C@_04ODHECPBC@fabs?$AA@ 1003ec8c     LIBCMT:fpexcept.obj
 0002:00004c94       ??_C@_04EHEDPDJG@modf?$AA@ 1003ec94     LIBCMT:fpexcept.obj
 0002:00004c9c       ??_C@_05CEJMAHNP@ldexp?$AA@ 1003ec9c     LIBCMT:fpexcept.obj
 0002:00004ca4       ??_C@_05KBKMEMPO@_cabs?$AA@ 1003eca4     LIBCMT:fpexcept.obj
 0002:00004cac       ??_C@_06MEIMCGCF@_hypot?$AA@ 1003ecac     LIBCMT:fpexcept.obj
 0002:00004cb4       ??_C@_04KEPJIHGP@fmod?$AA@ 1003ecb4     LIBCMT:fpexcept.obj
 0002:00004cbc       ??_C@_05GKKHEGJL@frexp?$AA@ 1003ecbc     LIBCMT:fpexcept.obj
 0002:00004cc4       ??_C@_03MJLDFKDL@_y0?$AA@  1003ecc4     LIBCMT:fpexcept.obj
 0002:00004cc8       ??_C@_03NAKIGLHK@_y1?$AA@  1003ecc8     LIBCMT:fpexcept.obj
 0002:00004ccc       ??_C@_03ONILCKOB@_yn?$AA@  1003eccc     LIBCMT:fpexcept.obj
 0002:00004cd0       ??_C@_05JGDBENOH@_logb?$AA@ 1003ecd0     LIBCMT:fpexcept.obj
 0002:00004cd8       ??_C@_0L@KDOEJCKC@_nextafter?$AA@ 1003ecd8     LIBCMT:fpexcept.obj
 0002:00004ce4       ??_C@_1BG@GOEBHBDC@?$AAU?$AAS?$AAE?$AAR?$AA3?$AA2?$AA?4?$AAD?$AAL?$AAL?$AA?$AA@ 1003ece4     LIBCMT:crtmboxw.obj
 0002:00004cfc       ??_C@_0M@DLDCCGNP@MessageBoxW?$AA@ 1003ecfc     LIBCMT:crtmboxw.obj
 0002:00004d08       ??_C@_0BA@HNOPNCHB@GetActiveWindow?$AA@ 1003ed08     LIBCMT:crtmboxw.obj
 0002:00004d18       ??_C@_0BD@HHGDFDBJ@GetLastActivePopup?$AA@ 1003ed18     LIBCMT:crtmboxw.obj
 0002:00004d2c       ??_C@_0BK@DEKFELLI@GetUserObjectInformationW?$AA@ 1003ed2c     LIBCMT:crtmboxw.obj
 0002:00004d48       ??_C@_0BI@DFKBFLJE@GetProcessWindowStation?$AA@ 1003ed48     LIBCMT:crtmboxw.obj
 0002:00004d60       __XcptActTab               1003ed60     LIBCMT:winxfltr.obj
 0002:00004df0       __XcptActTabCount          1003edf0     LIBCMT:winxfltr.obj
 0002:00004df4       __XcptActTabSize           1003edf4     LIBCMT:winxfltr.obj
 0002:00004df8       __First_FPE_Indx           1003edf8     LIBCMT:winxfltr.obj
 0002:00004dfc       __Num_FPE                  1003edfc     LIBCMT:winxfltr.obj
 0002:00004e00       ___lookuptable_s           1003ee00     LIBCMT:outputs.obj
 0002:00004e5c       ??_C@_03KOEHGMDN@Sun?$AA@  1003ee5c     LIBCMT:nlsdata.obj
 0002:00004e60       ??_C@_03PDAGKDH@Mon?$AA@   1003ee60     LIBCMT:nlsdata.obj
 0002:00004e64       ??_C@_03NAGEINEP@Tue?$AA@  1003ee64     LIBCMT:nlsdata.obj
 0002:00004e68       ??_C@_03MHOMLAJA@Wed?$AA@  1003ee68     LIBCMT:nlsdata.obj
 0002:00004e6c       ??_C@_03IOFIKPDN@Thu?$AA@  1003ee6c     LIBCMT:nlsdata.obj
 0002:00004e70       ??_C@_03IDIOELNC@Fri?$AA@  1003ee70     LIBCMT:nlsdata.obj
 0002:00004e74       ??_C@_03FEFJNEK@Sat?$AA@   1003ee74     LIBCMT:nlsdata.obj
 0002:00004e78       ??_C@_06OOPIFAJ@Sunday?$AA@ 1003ee78     LIBCMT:nlsdata.obj
 0002:00004e80       ??_C@_06JLEDEDGH@Monday?$AA@ 1003ee80     LIBCMT:nlsdata.obj
 0002:00004e88       ??_C@_07BAAGCFCM@Tuesday?$AA@ 1003ee88     LIBCMT:nlsdata.obj
 0002:00004e90       ??_C@_09DLIGFAKA@Wednesday?$AA@ 1003ee90     LIBCMT:nlsdata.obj
 0002:00004e9c       ??_C@_08HACCIKIA@Thursday?$AA@ 1003ee9c     LIBCMT:nlsdata.obj
 0002:00004ea8       ??_C@_06JECMNKMI@Friday?$AA@ 1003eea8     LIBCMT:nlsdata.obj
 0002:00004eb0       ??_C@_08INBOOONO@Saturday?$AA@ 1003eeb0     LIBCMT:nlsdata.obj
 0002:00004ebc       ??_C@_03JIHJHPIE@Jan?$AA@  1003eebc     LIBCMT:nlsdata.obj
 0002:00004ec0       ??_C@_03HJBDCHOM@Feb?$AA@  1003eec0     LIBCMT:nlsdata.obj
 0002:00004ec4       ??_C@_03ODNJBKGA@Mar?$AA@  1003eec4     LIBCMT:nlsdata.obj
 0002:00004ec8       ??_C@_03LEOLGMJP@Apr?$AA@  1003eec8     LIBCMT:nlsdata.obj
 0002:00004ecc       ??_C@_03CNMDKL@May?$AA@    1003eecc     LIBCMT:nlsdata.obj
 0002:00004ed0       ??_C@_03IDFGHECI@Jun?$AA@  1003eed0     LIBCMT:nlsdata.obj
 0002:00004ed4       ??_C@_03LBGABGKK@Jul?$AA@  1003eed4     LIBCMT:nlsdata.obj
 0002:00004ed8       ??_C@_03IFJFEIGA@Aug?$AA@  1003eed8     LIBCMT:nlsdata.obj
 0002:00004edc       ??_C@_03GGCAPAJC@Sep?$AA@  1003eedc     LIBCMT:nlsdata.obj
 0002:00004ee0       ??_C@_03BMAOKBAD@Oct?$AA@  1003eee0     LIBCMT:nlsdata.obj
 0002:00004ee4       ??_C@_03JPJOFNIA@Nov?$AA@  1003eee4     LIBCMT:nlsdata.obj
 0002:00004ee8       ??_C@_03MKABNOCG@Dec?$AA@  1003eee8     LIBCMT:nlsdata.obj
 0002:00004eec       ??_C@_07CGJPFGJA@January?$AA@ 1003eeec     LIBCMT:nlsdata.obj
 0002:00004ef4       ??_C@_08GNJGEPFN@February?$AA@ 1003eef4     LIBCMT:nlsdata.obj
 0002:00004f00       ??_C@_05HPCKOFNC@March?$AA@ 1003ef00     LIBCMT:nlsdata.obj
 0002:00004f08       ??_C@_05DMJDNLEJ@April?$AA@ 1003ef08     LIBCMT:nlsdata.obj
 0002:00004f10       ??_C@_04CNLMGBGM@June?$AA@ 1003ef10     LIBCMT:nlsdata.obj
 0002:00004f18       ??_C@_04MIEPOIFP@July?$AA@ 1003ef18     LIBCMT:nlsdata.obj
 0002:00004f20       ??_C@_06LBBHFDDG@August?$AA@ 1003ef20     LIBCMT:nlsdata.obj
 0002:00004f28       ??_C@_09BHHEALKD@September?$AA@ 1003ef28     LIBCMT:nlsdata.obj
 0002:00004f34       ??_C@_07JJNFCEND@October?$AA@ 1003ef34     LIBCMT:nlsdata.obj
 0002:00004f3c       ??_C@_08HCHEGEOA@November?$AA@ 1003ef3c     LIBCMT:nlsdata.obj
 0002:00004f48       ??_C@_08EDHMEBNP@December?$AA@ 1003ef48     LIBCMT:nlsdata.obj
 0002:00004f54       ??_C@_02DEDBPAFC@AM?$AA@   1003ef54     LIBCMT:nlsdata.obj
 0002:00004f58       ??_C@_02CJNFDJBF@PM?$AA@   1003ef58     LIBCMT:nlsdata.obj
 0002:00004f5c       ??_C@_08BPBNCDIB@MM?1dd?1yy?$AA@ 1003ef5c     LIBCMT:nlsdata.obj
 0002:00004f68       ??_C@_0BE@CKGJFCPC@dddd?0?5MMMM?5dd?0?5yyyy?$AA@ 1003ef68     LIBCMT:nlsdata.obj
 0002:00004f7c       ??_C@_08JCCMCCIL@HH?3mm?3ss?$AA@ 1003ef7c     LIBCMT:nlsdata.obj
 0002:00004f88       ??_C@_17MBGCMIPB@?$AAS?$AAu?$AAn?$AA?$AA@ 1003ef88     LIBCMT:nlsdata.obj
 0002:00004f90       ??_C@_17KBOMKBF@?$AAM?$AAo?$AAn?$AA?$AA@ 1003ef90     LIBCMT:nlsdata.obj
 0002:00004f98       ??_C@_17BMKGEGOJ@?$AAT?$AAu?$AAe?$AA?$AA@ 1003ef98     LIBCMT:nlsdata.obj
 0002:00004fa0       ??_C@_17CJEDCEPE@?$AAW?$AAe?$AAd?$AA?$AA@ 1003efa0     LIBCMT:nlsdata.obj
 0002:00004fa8       ??_C@_17PDPHAADD@?$AAT?$AAh?$AAu?$AA?$AA@ 1003efa8     LIBCMT:nlsdata.obj
 0002:00004fb0       ??_C@_17HFOLPPLP@?$AAF?$AAr?$AAi?$AA?$AA@ 1003efb0     LIBCMT:nlsdata.obj
 0002:00004fb8       ??_C@_17GGIBDPIH@?$AAS?$AAa?$AAt?$AA?$AA@ 1003efb8     LIBCMT:nlsdata.obj
 0002:00004fc0       ??_C@_1O@IHNHDHPB@?$AAS?$AAu?$AAn?$AAd?$AAa?$AAy?$AA?$AA@ 1003efc0     LIBCMT:nlsdata.obj
 0002:00004fd0       ??_C@_1O@MMNBFLIA@?$AAM?$AAo?$AAn?$AAd?$AAa?$AAy?$AA?$AA@ 1003efd0     LIBCMT:nlsdata.obj
 0002:00004fe0       ??_C@_1BA@ENFBFFEK@?$AAT?$AAu?$AAe?$AAs?$AAd?$AAa?$AAy?$AA?$AA@ 1003efe0     LIBCMT:nlsdata.obj
 0002:00004ff0       ??_C@_1BE@EBOGMDOH@?$AAW?$AAe?$AAd?$AAn?$AAe?$AAs?$AAd?$AAa?$AAy?$AA?$AA@ 1003eff0     LIBCMT:nlsdata.obj
 0002:00005004       ??_C@_1BC@HHMNLIHE@?$AAT?$AAh?$AAu?$AAr?$AAs?$AAd?$AAa?$AAy?$AA?$AA@ 1003f004     LIBCMT:nlsdata.obj
 0002:00005018       ??_C@_1O@PDICJHAG@?$AAF?$AAr?$AAi?$AAd?$AAa?$AAy?$AA?$AA@ 1003f018     LIBCMT:nlsdata.obj
 0002:00005028       ??_C@_1BC@ENMNNPAJ@?$AAS?$AAa?$AAt?$AAu?$AAr?$AAd?$AAa?$AAy?$AA?$AA@ 1003f028     LIBCMT:nlsdata.obj
 0002:0000503c       ??_C@_17DKNBKCHM@?$AAJ?$AAa?$AAn?$AA?$AA@ 1003f03c     LIBCMT:nlsdata.obj
 0002:00005044       ??_C@_17LMDJEKJN@?$AAF?$AAe?$AAb?$AA?$AA@ 1003f044     LIBCMT:nlsdata.obj
 0002:0000504c       ??_C@_17CKNLEDEC@?$AAM?$AAa?$AAr?$AA?$AA@ 1003f04c     LIBCMT:nlsdata.obj
 0002:00005054       ??_C@_17LFPOIHDD@?$AAA?$AAp?$AAr?$AA?$AA@ 1003f054     LIBCMT:nlsdata.obj
 0002:0000505c       ??_C@_17PNNKMEED@?$AAM?$AAa?$AAy?$AA?$AA@ 1003f05c     LIBCMT:nlsdata.obj
 0002:00005064       ??_C@_17KCJGOCPB@?$AAJ?$AAu?$AAn?$AA?$AA@ 1003f064     LIBCMT:nlsdata.obj
 0002:0000506c       ??_C@_17IJPCKHK@?$AAJ?$AAu?$AAl?$AA?$AA@ 1003f06c     LIBCMT:nlsdata.obj
 0002:00005074       ??_C@_17ICPELBCN@?$AAA?$AAu?$AAg?$AA?$AA@ 1003f074     LIBCMT:nlsdata.obj
 0002:0000507c       ??_C@_17HCHCOKMG@?$AAS?$AAe?$AAp?$AA?$AA@ 1003f07c     LIBCMT:nlsdata.obj
 0002:00005084       ??_C@_17FNLKOI@?$AAO?$AAc?$AAt?$AA?$AA@ 1003f084     LIBCMT:nlsdata.obj
 0002:0000508c       ??_C@_17BBDMLCIG@?$AAN?$AAo?$AAv?$AA?$AA@ 1003f08c     LIBCMT:nlsdata.obj
 0002:00005094       ??_C@_17EGKACKIF@?$AAD?$AAe?$AAc?$AA?$AA@ 1003f094     LIBCMT:nlsdata.obj
 0002:0000509c       ??_C@_1BA@EFMEIEBA@?$AAJ?$AAa?$AAn?$AAu?$AAa?$AAr?$AAy?$AA?$AA@ 1003f09c     LIBCMT:nlsdata.obj
 0002:000050ac       ??_C@_1BC@JGDDFFAM@?$AAF?$AAe?$AAb?$AAr?$AAu?$AAa?$AAr?$AAy?$AA?$AA@ 1003f0ac     LIBCMT:nlsdata.obj
 0002:000050c0       ??_C@_1M@IKEENEDF@?$AAM?$AAa?$AAr?$AAc?$AAh?$AA?$AA@ 1003f0c0     LIBCMT:nlsdata.obj
 0002:000050cc       ??_C@_1M@GJNLMHFD@?$AAA?$AAp?$AAr?$AAi?$AAl?$AA?$AA@ 1003f0cc     LIBCMT:nlsdata.obj
 0002:000050d8       ??_C@_19EPFLPGAP@?$AAJ?$AAu?$AAn?$AAe?$AA?$AA@ 1003f0d8     LIBCMT:nlsdata.obj
 0002:000050e4       ??_C@_19BIFMLPCD@?$AAJ?$AAu?$AAl?$AAy?$AA?$AA@ 1003f0e4     LIBCMT:nlsdata.obj
 0002:000050f0       ??_C@_1O@PAHLKOAC@?$AAA?$AAu?$AAg?$AAu?$AAs?$AAt?$AA?$AA@ 1003f0f0     LIBCMT:nlsdata.obj
 0002:00005100       ??_C@_1BE@DKAAMBJL@?$AAS?$AAe?$AAp?$AAt?$AAe?$AAm?$AAb?$AAe?$AAr?$AA?$AA@ 1003f100     LIBCMT:nlsdata.obj
 0002:00005114       ??_C@_1BA@EPANDLNG@?$AAO?$AAc?$AAt?$AAo?$AAb?$AAe?$AAr?$AA?$AA@ 1003f114     LIBCMT:nlsdata.obj
 0002:00005124       ??_C@_1BC@BGLIFPF@?$AAN?$AAo?$AAv?$AAe?$AAm?$AAb?$AAe?$AAr?$AA?$AA@ 1003f124     LIBCMT:nlsdata.obj
 0002:00005138       ??_C@_1BC@FEMKIFH@?$AAD?$AAe?$AAc?$AAe?$AAm?$AAb?$AAe?$AAr?$AA?$AA@ 1003f138     LIBCMT:nlsdata.obj
 0002:0000514c       ??_C@_15ODEHAHHF@?$AAA?$AAM?$AA?$AA@ 1003f14c     LIBCMT:nlsdata.obj
 0002:00005154       ??_C@_15CLMNNGEL@?$AAP?$AAM?$AA?$AA@ 1003f154     LIBCMT:nlsdata.obj
 0002:0000515c       ??_C@_1BC@IEBCMHCM@?$AAM?$AAM?$AA?1?$AAd?$AAd?$AA?1?$AAy?$AAy?$AA?$AA@ 1003f15c     LIBCMT:nlsdata.obj
 0002:00005170       ??_C@_1CI@KNAKOEBC@?$AAd?$AAd?$AAd?$AAd?$AA?0?$AA?5?$AAM?$AAM?$AAM?$AAM?$AA?5?$AAd?$AAd?$AA?0?$AA?5?$AAy?$AAy?$AAy?$AAy?$AA?$AA@ 1003f170     LIBCMT:nlsdata.obj
 0002:00005198       ??_C@_1BC@GDGBMEMK@?$AAH?$AAH?$AA?3?$AAm?$AAm?$AA?3?$AAs?$AAs?$AA?$AA@ 1003f198     LIBCMT:nlsdata.obj
 0002:000051ac       ??_C@_1M@BMHNFIME@?$AAe?$AAn?$AA?9?$AAU?$AAS?$AA?$AA@ 1003f1ac     LIBCMT:nlsdata.obj
 0002:000051b8       _LcidToLocaleNameTable     1003f1b8     LIBCMT:winapinls.obj
 0002:000058d8       _LocaleNameToIndexTable    1003f8d8     LIBCMT:winapinls.obj
 0002:00005ff8       ??_C@_15EMKDOKLE@?$AAa?$AAr?$AA?$AA@ 1003fff8     LIBCMT:winapinls.obj
 0002:00006000       ??_C@_15KNPADPLH@?$AAb?$AAg?$AA?$AA@ 10040000     LIBCMT:winapinls.obj
 0002:00006008       ??_C@_15EDMHLDMO@?$AAc?$AAa?$AA?$AA@ 10040008     LIBCMT:winapinls.obj
 0002:00006010       ??_C@_1O@BPEAJADD@?$AAz?$AAh?$AA?9?$AAC?$AAH?$AAS?$AA?$AA@ 10040010     LIBCMT:winapinls.obj
 0002:00006020       ??_C@_15LJNHCMNK@?$AAc?$AAs?$AA?$AA@ 10040020     LIBCMT:winapinls.obj
 0002:00006028       ??_C@_15FOMCIDHG@?$AAd?$AAa?$AA?$AA@ 10040028     LIBCMT:winapinls.obj
 0002:00006030       ??_C@_15NBKABECB@?$AAd?$AAe?$AA?$AA@ 10040030     LIBCMT:winapinls.obj
 0002:00006038       ??_C@_15GHPEIIAO@?$AAe?$AAl?$AA?$AA@ 10040038     LIBCMT:winapinls.obj
 0002:00006040       ??_C@_15MNPNEAIF@?$AAe?$AAn?$AA?$AA@ 10040040     LIBCMT:winapinls.obj
 0002:00006048       ??_C@_15GPIOMPMH@?$AAe?$AAs?$AA?$AA@ 10040048     LIBCMT:winapinls.obj
 0002:00006050       ??_C@_15NGLOAKJC@?$AAf?$AAi?$AA?$AA@ 10040050     LIBCMT:winapinls.obj
 0002:00006058       ??_C@_15FBKGNKAM@?$AAf?$AAr?$AA?$AA@ 10040058     LIBCMT:winapinls.obj
 0002:00006060       ??_C@_15KGGCNEFK@?$AAh?$AAe?$AA?$AA@ 10040060     LIBCMT:winapinls.obj
 0002:00006068       ??_C@_15PGHLIDMF@?$AAh?$AAu?$AA?$AA@ 10040068     LIBCMT:winapinls.obj
 0002:00006070       ??_C@_15BIEMAPLM@?$AAi?$AAs?$AA?$AA@ 10040070     LIBCMT:winapinls.obj
 0002:00006078       ??_C@_15IFJLDHAF@?$AAi?$AAt?$AA?$AA@ 10040078     LIBCMT:winapinls.obj
 0002:00006080       ??_C@_15GEMIOCAG@?$AAj?$AAa?$AA?$AA@ 10040080     LIBCMT:winapinls.obj
 0002:00006088       ??_C@_15EPELEGJA@?$AAk?$AAo?$AA?$AA@ 10040088     LIBCMT:winapinls.obj
 0002:00006090       ??_C@_15NDDHIMN@?$AAn?$AAl?$AA?$AA@ 10040090     LIBCMT:winapinls.obj
 0002:00006098       ??_C@_15BPIGNHCD@?$AAn?$AAo?$AA?$AA@ 10040098     LIBCMT:winapinls.obj
 0002:000060a0       ??_C@_15DEOPBLCG@?$AAp?$AAl?$AA?$AA@ 100400a0     LIBCMT:winapinls.obj
 0002:000060a8       ??_C@_15KBECGEFG@?$AAp?$AAt?$AA?$AA@ 100400a8     LIBCMT:winapinls.obj
 0002:000060b0       ??_C@_15GLJCBFMD@?$AAr?$AAo?$AA?$AA@ 100400b0     LIBCMT:winapinls.obj
 0002:000060b8       ??_C@_15FEDGKCDI@?$AAr?$AAu?$AA?$AA@ 100400b8     LIBCMT:winapinls.obj
 0002:000060c0       ??_C@_15GLKMLLHM@?$AAh?$AAr?$AA?$AA@ 100400c0     LIBCMT:winapinls.obj
 0002:000060c8       ??_C@_15CPKMFBDB@?$AAs?$AAk?$AA?$AA@ 100400c8     LIBCMT:winapinls.obj
 0002:000060d0       ??_C@_15BAAIOGMK@?$AAs?$AAq?$AA?$AA@ 100400d0     LIBCMT:winapinls.obj
 0002:000060d8       ??_C@_15INNPNOHD@?$AAs?$AAv?$AA?$AA@ 100400d8     LIBCMT:winapinls.obj
 0002:000060e0       ??_C@_15CABMMOGH@?$AAt?$AAh?$AA?$AA@ 100400e0     LIBCMT:winapinls.obj
 0002:000060e8       ??_C@_15BPLIHJJM@?$AAt?$AAr?$AA?$AA@ 100400e8     LIBCMT:winapinls.obj
 0002:000060f0       ??_C@_15NEOEKKDJ@?$AAu?$AAr?$AA?$AA@ 100400f0     LIBCMT:winapinls.obj
 0002:000060f8       ??_C@_15NFICGAJK@?$AAi?$AAd?$AA?$AA@ 100400f8     LIBCMT:winapinls.obj
 0002:00006100       ??_C@_15PJPFLCCM@?$AAu?$AAk?$AA?$AA@ 10040100     LIBCMT:winapinls.obj
 0002:00006108       ??_C@_15HPJPHDM@?$AAb?$AAe?$AA?$AA@ 10040108     LIBCMT:winapinls.obj
 0002:00006110       ??_C@_15LCHLGJII@?$AAs?$AAl?$AA?$AA@ 10040110     LIBCMT:winapinls.obj
 0002:00006118       ??_C@_15PCFJPHHO@?$AAe?$AAt?$AA?$AA@ 10040118     LIBCMT:winapinls.obj
 0002:00006120       ??_C@_15HPFPGODN@?$AAl?$AAv?$AA?$AA@ 10040120     LIBCMT:winapinls.obj
 0002:00006128       ??_C@_15NFFGKGLG@?$AAl?$AAt?$AA?$AA@ 10040128     LIBCMT:winapinls.obj
 0002:00006130       ??_C@_15BDAKCCHN@?$AAf?$AAa?$AA?$AA@ 10040130     LIBCMT:winapinls.obj
 0002:00006138       ??_C@_15NFGIAIAJ@?$AAv?$AAi?$AA?$AA@ 10040138     LIBCMT:winapinls.obj
 0002:00006140       ??_C@_15LMKNDMHN@?$AAh?$AAy?$AA?$AA@ 10040140     LIBCMT:winapinls.obj
 0002:00006148       ??_C@_15IJBHMCFL@?$AAa?$AAz?$AA?$AA@ 10040148     LIBCMT:winapinls.obj
 0002:00006150       ??_C@_15EKOFJABL@?$AAe?$AAu?$AA?$AA@ 10040150     LIBCMT:winapinls.obj
 0002:00006158       ??_C@_15BGHADCNK@?$AAm?$AAk?$AA?$AA@ 10040158     LIBCMT:winapinls.obj
 0002:00006160       ??_C@_15JDNICKHM@?$AAa?$AAf?$AA?$AA@ 10040160     LIBCMT:winapinls.obj
 0002:00006168       ??_C@_15KPJEDBKD@?$AAk?$AAa?$AA?$AA@ 10040168     LIBCMT:winapinls.obj
 0002:00006170       ??_C@_15PDNFFFEO@?$AAf?$AAo?$AA?$AA@ 10040170     LIBCMT:winapinls.obj
 0002:00006178       ??_C@_15OMLEGLOC@?$AAh?$AAi?$AA?$AA@ 10040178     LIBCMT:winapinls.obj
 0002:00006180       ??_C@_15IDNNENKK@?$AAm?$AAs?$AA?$AA@ 10040180     LIBCMT:winapinls.obj
 0002:00006188       ??_C@_15MACJNBMH@?$AAk?$AAk?$AA?$AA@ 10040188     LIBCMT:winapinls.obj
 0002:00006190       ??_C@_15DKDJEOND@?$AAk?$AAy?$AA?$AA@ 10040190     LIBCMT:winapinls.obj
 0002:00006198       ??_C@_15DFGDLJBG@?$AAs?$AAw?$AA?$AA@ 10040198     LIBCMT:winapinls.obj
 0002:000061a0       ??_C@_15BBFAICNG@?$AAu?$AAz?$AA?$AA@ 100401a0     LIBCMT:winapinls.obj
 0002:000061a8       ??_C@_15DKNDCGEA@?$AAt?$AAt?$AA?$AA@ 100401a8     LIBCMT:winapinls.obj
 0002:000061b0       ??_C@_15MGIFMDPL@?$AAp?$AAa?$AA?$AA@ 100401b0     LIBCMT:winapinls.obj
 0002:000061b8       ??_C@_15HCNDBBA@?$AAg?$AAu?$AA?$AA@ 100401b8     LIBCMT:winapinls.obj
 0002:000061c0       ??_C@_15FNBEIBON@?$AAt?$AAa?$AA?$AA@ 100401c0     LIBCMT:winapinls.obj
 0002:000061c8       ??_C@_15NCHGBGLK@?$AAt?$AAe?$AA?$AA@ 100401c8     LIBCMT:winapinls.obj
 0002:000061d0       ??_C@_15PHPHCBPF@?$AAk?$AAn?$AA?$AA@ 100401d0     LIBCMT:winapinls.obj
 0002:000061d8       ??_C@_15DLGBCKMP@?$AAm?$AAr?$AA?$AA@ 100401d8     LIBCMT:winapinls.obj
 0002:000061e0       ??_C@_15EABBLBFF@?$AAs?$AAa?$AA?$AA@ 100401e0     LIBCMT:winapinls.obj
 0002:000061e8       ??_C@_15CBKOMCOI@?$AAm?$AAn?$AA?$AA@ 100401e8     LIBCMT:winapinls.obj
 0002:000061f0       ??_C@_15CKDMCJAF@?$AAg?$AAl?$AA?$AA@ 100401f0     LIBCMT:winapinls.obj
 0002:000061f8       ??_C@_17CNJFBPG@?$AAk?$AAo?$AAk?$AA?$AA@ 100401f8     LIBCMT:winapinls.obj
 0002:00006200       ??_C@_17FFBJICPL@?$AAs?$AAy?$AAr?$AA?$AA@ 10040200     LIBCMT:winapinls.obj
 0002:00006208       ??_C@_17KPNDCPAF@?$AAd?$AAi?$AAv?$AA?$AA@ 10040208     LIBCMT:winapinls.obj
 0002:00006210       ??_C@_11LOCGONAA@?$AA?$AA@ 10040210     LIBCMT:winapinls.obj
 0002:00006214       ??_C@_1M@OKAHONE@?$AAa?$AAr?$AA?9?$AAS?$AAA?$AA?$AA@ 10040214     LIBCMT:winapinls.obj
 0002:00006220       ??_C@_1M@FFFIGIGK@?$AAb?$AAg?$AA?9?$AAB?$AAG?$AA?$AA@ 10040220     LIBCMT:winapinls.obj
 0002:0000622c       ??_C@_1M@BJNKEDC@?$AAc?$AAa?$AA?9?$AAE?$AAS?$AA?$AA@ 1004022c     LIBCMT:winapinls.obj
 0002:00006238       ??_C@_1M@IJJHFJHA@?$AAc?$AAs?$AA?9?$AAC?$AAZ?$AA?$AA@ 10040238     LIBCMT:winapinls.obj
 0002:00006244       ??_C@_1M@CLPEOBGI@?$AAd?$AAa?$AA?9?$AAD?$AAK?$AA?$AA@ 10040244     LIBCMT:winapinls.obj
 0002:00006250       ??_C@_1M@MCMADGCB@?$AAd?$AAe?$AA?9?$AAD?$AAE?$AA?$AA@ 10040250     LIBCMT:winapinls.obj
 0002:0000625c       ??_C@_1M@OOCKEMAM@?$AAe?$AAl?$AA?9?$AAG?$AAR?$AA?$AA@ 1004025c     LIBCMT:winapinls.obj
 0002:00006268       ??_C@_1M@DDNJFGID@?$AAf?$AAi?$AA?9?$AAF?$AAI?$AA?$AA@ 10040268     LIBCMT:winapinls.obj
 0002:00006274       ??_C@_1M@GLIPPMAC@?$AAf?$AAr?$AA?9?$AAF?$AAR?$AA?$AA@ 10040274     LIBCMT:winapinls.obj
 0002:00006280       ??_C@_1M@GFMCHPE@?$AAh?$AAe?$AA?9?$AAI?$AAL?$AA?$AA@ 10040280     LIBCMT:winapinls.obj
 0002:0000628c       ??_C@_1M@MHLPGNKM@?$AAh?$AAu?$AA?9?$AAH?$AAU?$AA?$AA@ 1004028c     LIBCMT:winapinls.obj
 0002:00006298       ??_C@_1M@LPDDNNPN@?$AAi?$AAs?$AA?9?$AAI?$AAS?$AA?$AA@ 10040298     LIBCMT:winapinls.obj
 0002:000062a4       ??_C@_1M@MADIPODN@?$AAi?$AAt?$AA?9?$AAI?$AAT?$AA?$AA@ 100402a4     LIBCMT:winapinls.obj
 0002:000062b0       ??_C@_1M@IHBJJGG@?$AAn?$AAl?$AA?9?$AAN?$AAL?$AA?$AA@ 100402b0     LIBCMT:winapinls.obj
 0002:000062bc       ??_C@_1M@EANAGDL@?$AAn?$AAb?$AA?9?$AAN?$AAO?$AA?$AA@ 100402bc     LIBCMT:winapinls.obj
 0002:000062c8       ??_C@_1M@NEIEMEGP@?$AAp?$AAl?$AA?9?$AAP?$AAL?$AA?$AA@ 100402c8     LIBCMT:winapinls.obj
 0002:000062d4       ??_C@_1M@BOCFIGEP@?$AAp?$AAt?$AA?9?$AAB?$AAR?$AA?$AA@ 100402d4     LIBCMT:winapinls.obj
 0002:000062e0       ??_C@_1M@IMPFOPBG@?$AAr?$AAo?$AA?9?$AAR?$AAO?$AA?$AA@ 100402e0     LIBCMT:winapinls.obj
 0002:000062ec       ??_C@_1M@IDNNEJMM@?$AAr?$AAu?$AA?9?$AAR?$AAU?$AA?$AA@ 100402ec     LIBCMT:winapinls.obj
 0002:000062f8       ??_C@_1M@LILEEOGM@?$AAh?$AAr?$AA?9?$AAH?$AAR?$AA?$AA@ 100402f8     LIBCMT:winapinls.obj
 0002:00006304       ??_C@_1M@FKIFEHPB@?$AAs?$AAk?$AA?9?$AAS?$AAK?$AA?$AA@ 10040304     LIBCMT:winapinls.obj
 0002:00006310       ??_C@_1M@LJMAMNPJ@?$AAs?$AAq?$AA?9?$AAA?$AAL?$AA?$AA@ 10040310     LIBCMT:winapinls.obj
 0002:0000631c       ??_C@_1M@GIAKDKJK@?$AAs?$AAv?$AA?9?$AAS?$AAE?$AA?$AA@ 1004031c     LIBCMT:winapinls.obj
 0002:00006328       ??_C@_1M@MKJKIKCL@?$AAt?$AAh?$AA?9?$AAT?$AAH?$AA?$AA@ 10040328     LIBCMT:winapinls.obj
 0002:00006334       ??_C@_1M@MFLCCMPB@?$AAt?$AAr?$AA?9?$AAT?$AAR?$AA?$AA@ 10040334     LIBCMT:winapinls.obj
 0002:00006340       ??_C@_1M@OIJHDKJN@?$AAu?$AAr?$AA?9?$AAP?$AAK?$AA?$AA@ 10040340     LIBCMT:winapinls.obj
 0002:0000634c       ??_C@_1M@LHIPCIEK@?$AAi?$AAd?$AA?9?$AAI?$AAD?$AA?$AA@ 1004034c     LIBCMT:winapinls.obj
 0002:00006358       ??_C@_1M@MFMOBGI@?$AAu?$AAk?$AA?9?$AAU?$AAA?$AA?$AA@ 10040358     LIBCMT:winapinls.obj
 0002:00006364       ??_C@_1M@OBGLJIPL@?$AAb?$AAe?$AA?9?$AAB?$AAY?$AA?$AA@ 10040364     LIBCMT:winapinls.obj
 0002:00006370       ??_C@_1M@BCFAJEAD@?$AAs?$AAl?$AA?9?$AAS?$AAI?$AA?$AA@ 10040370     LIBCMT:winapinls.obj
 0002:0000637c       ??_C@_1M@FKFFEDDN@?$AAe?$AAt?$AA?9?$AAE?$AAE?$AA?$AA@ 1004037c     LIBCMT:winapinls.obj
 0002:00006388       ??_C@_1M@KGKKAACI@?$AAl?$AAv?$AA?9?$AAL?$AAV?$AA?$AA@ 10040388     LIBCMT:winapinls.obj
 0002:00006394       ??_C@_1M@IFGBIJO@?$AAl?$AAt?$AA?9?$AAL?$AAT?$AA?$AA@ 10040394     LIBCMT:winapinls.obj
 0002:000063a0       ??_C@_1M@FGEAHEDM@?$AAf?$AAa?$AA?9?$AAI?$AAR?$AA?$AA@ 100403a0     LIBCMT:winapinls.obj
 0002:000063ac       ??_C@_1M@KBMAIBFN@?$AAv?$AAi?$AA?9?$AAV?$AAN?$AA?$AA@ 100403ac     LIBCMT:winapinls.obj
 0002:000063b8       ??_C@_1M@GPCBKDJK@?$AAh?$AAy?$AA?9?$AAA?$AAM?$AA?$AA@ 100403b8     LIBCMT:winapinls.obj
 0002:000063c4       ??_C@_1BG@BECMDDJB@?$AAa?$AAz?$AA?9?$AAA?$AAZ?$AA?9?$AAL?$AAa?$AAt?$AAn?$AA?$AA@ 100403c4     LIBCMT:winapinls.obj
 0002:000063dc       ??_C@_1M@MAOFCAEA@?$AAe?$AAu?$AA?9?$AAE?$AAS?$AA?$AA@ 100403dc     LIBCMT:winapinls.obj
 0002:000063e8       ??_C@_1M@IGHABKPI@?$AAm?$AAk?$AA?9?$AAM?$AAK?$AA?$AA@ 100403e8     LIBCMT:winapinls.obj
 0002:000063f4       ??_C@_1M@IAIGNEJG@?$AAt?$AAn?$AA?9?$AAZ?$AAA?$AA?$AA@ 100403f4     LIBCMT:winapinls.obj
 0002:00006400       ??_C@_1M@IIJCOJFA@?$AAx?$AAh?$AA?9?$AAZ?$AAA?$AA?$AA@ 10040400     LIBCMT:winapinls.obj
 0002:0000640c       ??_C@_1M@LGPJHNJH@?$AAz?$AAu?$AA?9?$AAZ?$AAA?$AA?$AA@ 1004040c     LIBCMT:winapinls.obj
 0002:00006418       ??_C@_1M@HOKAOIO@?$AAa?$AAf?$AA?9?$AAZ?$AAA?$AA?$AA@ 10040418     LIBCMT:winapinls.obj
 0002:00006424       ??_C@_1M@DPCLHLIE@?$AAk?$AAa?$AA?9?$AAG?$AAE?$AA?$AA@ 10040424     LIBCMT:winapinls.obj
 0002:00006430       ??_C@_1M@BLKMHJBI@?$AAf?$AAo?$AA?9?$AAF?$AAO?$AA?$AA@ 10040430     LIBCMT:winapinls.obj
 0002:0000643c       ??_C@_1M@LGGJAPPB@?$AAh?$AAi?$AA?9?$AAI?$AAN?$AA?$AA@ 1004043c     LIBCMT:winapinls.obj
 0002:00006448       ??_C@_1M@FIKPIHFE@?$AAm?$AAt?$AA?9?$AAM?$AAT?$AA?$AA@ 10040448     LIBCMT:winapinls.obj
 0002:00006454       ??_C@_1M@HEGGPBFA@?$AAs?$AAe?$AA?9?$AAN?$AAO?$AA?$AA@ 10040454     LIBCMT:winapinls.obj
 0002:00006460       ??_C@_1M@EIBJEEPA@?$AAm?$AAs?$AA?9?$AAM?$AAY?$AA?$AA@ 10040460     LIBCMT:winapinls.obj
 0002:0000646c       ??_C@_1M@FHLBGMPP@?$AAk?$AAk?$AA?9?$AAK?$AAZ?$AA?$AA@ 1004046c     LIBCMT:winapinls.obj
 0002:00006478       ??_C@_1M@NGJJLCGI@?$AAk?$AAy?$AA?9?$AAK?$AAG?$AA?$AA@ 10040478     LIBCMT:winapinls.obj
 0002:00006484       ??_C@_1M@GIENNBFC@?$AAs?$AAw?$AA?9?$AAK?$AAE?$AA?$AA@ 10040484     LIBCMT:winapinls.obj
 0002:00006490       ??_C@_1BG@NDGMJIMJ@?$AAu?$AAz?$AA?9?$AAU?$AAZ?$AA?9?$AAL?$AAa?$AAt?$AAn?$AA?$AA@ 10040490     LIBCMT:winapinls.obj
 0002:000064a8       ??_C@_1M@IDCCIHBC@?$AAt?$AAt?$AA?9?$AAR?$AAU?$AA?$AA@ 100404a8     LIBCMT:winapinls.obj
 0002:000064b4       ??_C@_1M@LOICPMOJ@?$AAb?$AAn?$AA?9?$AAI?$AAN?$AA?$AA@ 100404b4     LIBCMT:winapinls.obj
 0002:000064c0       ??_C@_1M@KPKKNEAH@?$AAp?$AAa?$AA?9?$AAI?$AAN?$AA?$AA@ 100404c0     LIBCMT:winapinls.obj
 0002:000064cc       ??_C@_1M@PJGPPBOG@?$AAg?$AAu?$AA?9?$AAI?$AAN?$AA?$AA@ 100404cc     LIBCMT:winapinls.obj
 0002:000064d8       ??_C@_1M@KMKMOPHI@?$AAt?$AAa?$AA?9?$AAI?$AAN?$AA?$AA@ 100404d8     LIBCMT:winapinls.obj
 0002:000064e4       ??_C@_1M@KFEHEPAC@?$AAt?$AAe?$AA?9?$AAI?$AAN?$AA?$AA@ 100404e4     LIBCMT:winapinls.obj
 0002:000064f0       ??_C@_1M@CDCLMGHI@?$AAk?$AAn?$AA?9?$AAI?$AAN?$AA?$AA@ 100404f0     LIBCMT:winapinls.obj
 0002:000064fc       ??_C@_1M@MIODLDKF@?$AAm?$AAl?$AA?9?$AAI?$AAN?$AA?$AA@ 100404fc     LIBCMT:winapinls.obj
 0002:00006508       ??_C@_1M@PBIEACPO@?$AAm?$AAr?$AA?9?$AAI?$AAN?$AA?$AA@ 10040508     LIBCMT:winapinls.obj
 0002:00006514       ??_C@_1M@NIDEAGPH@?$AAs?$AAa?$AA?9?$AAI?$AAN?$AA?$AA@ 10040514     LIBCMT:winapinls.obj
 0002:00006520       ??_C@_1M@FHIHCBIO@?$AAm?$AAn?$AA?9?$AAM?$AAN?$AA?$AA@ 10040520     LIBCMT:winapinls.obj
 0002:0000652c       ??_C@_1M@JAIJPENP@?$AAc?$AAy?$AA?9?$AAG?$AAB?$AA?$AA@ 1004052c     LIBCMT:winapinls.obj
 0002:00006538       ??_C@_1M@PHGFBEPN@?$AAg?$AAl?$AA?9?$AAE?$AAS?$AA?$AA@ 10040538     LIBCMT:winapinls.obj
 0002:00006544       ??_C@_1O@KPIPDNCP@?$AAk?$AAo?$AAk?$AA?9?$AAI?$AAN?$AA?$AA@ 10040544     LIBCMT:winapinls.obj
 0002:00006554       ??_C@_1O@KNHJLDJA@?$AAs?$AAy?$AAr?$AA?9?$AAS?$AAY?$AA?$AA@ 10040554     LIBCMT:winapinls.obj
 0002:00006564       ??_C@_1O@MKEKBLAH@?$AAd?$AAi?$AAv?$AA?9?$AAM?$AAV?$AA?$AA@ 10040564     LIBCMT:winapinls.obj
 0002:00006574       ??_C@_1O@OHDCKDDF@?$AAq?$AAu?$AAz?$AA?9?$AAB?$AAO?$AA?$AA@ 10040574     LIBCMT:winapinls.obj
 0002:00006584       ??_C@_1M@LEPJNLFD@?$AAn?$AAs?$AA?9?$AAZ?$AAA?$AA?$AA@ 10040584     LIBCMT:winapinls.obj
 0002:00006590       ??_C@_1M@OMLEIIJB@?$AAm?$AAi?$AA?9?$AAN?$AAZ?$AA?$AA@ 10040590     LIBCMT:winapinls.obj
 0002:0000659c       ??_C@_1M@PMPEAILG@?$AAa?$AAr?$AA?9?$AAI?$AAQ?$AA?$AA@ 1004059c     LIBCMT:winapinls.obj
 0002:000065a8       ??_C@_1M@CNKPNOEE@?$AAd?$AAe?$AA?9?$AAC?$AAH?$AA?$AA@ 100405a8     LIBCMT:winapinls.obj
 0002:000065b4       ??_C@_1M@LKMGMLKO@?$AAe?$AAn?$AA?9?$AAG?$AAB?$AA?$AA@ 100405b4     LIBCMT:winapinls.obj
 0002:000065c0       ??_C@_1M@PGKJFFGL@?$AAe?$AAs?$AA?9?$AAM?$AAX?$AA?$AA@ 100405c0     LIBCMT:winapinls.obj
 0002:000065cc       ??_C@_1M@DNNANBDC@?$AAf?$AAr?$AA?9?$AAB?$AAE?$AA?$AA@ 100405cc     LIBCMT:winapinls.obj
 0002:000065d8       ??_C@_1M@HLGMDFHM@?$AAi?$AAt?$AA?9?$AAC?$AAH?$AA?$AA@ 100405d8     LIBCMT:winapinls.obj
 0002:000065e4       ??_C@_1M@CLLBGJH@?$AAn?$AAl?$AA?9?$AAB?$AAE?$AA?$AA@ 100405e4     LIBCMT:winapinls.obj
 0002:000065f0       ??_C@_1M@BODBOGLF@?$AAn?$AAn?$AA?9?$AAN?$AAO?$AA?$AA@ 100405f0     LIBCMT:winapinls.obj
 0002:000065fc       ??_C@_1M@HFFAHKAD@?$AAp?$AAt?$AA?9?$AAP?$AAT?$AA?$AA@ 100405fc     LIBCMT:winapinls.obj
 0002:00006608       ??_C@_1BG@LNOAKHIE@?$AAs?$AAr?$AA?9?$AAS?$AAP?$AA?9?$AAL?$AAa?$AAt?$AAn?$AA?$AA@ 10040608     LIBCMT:winapinls.obj
 0002:00006620       ??_C@_1M@HBMHBGAK@?$AAs?$AAv?$AA?9?$AAF?$AAI?$AA?$AA@ 10040620     LIBCMT:winapinls.obj
 0002:0000662c       ??_C@_1BG@DGCJGJBE@?$AAa?$AAz?$AA?9?$AAA?$AAZ?$AA?9?$AAC?$AAy?$AAr?$AAl?$AA?$AA@ 1004062c     LIBCMT:winapinls.obj
 0002:00006644       ??_C@_1M@KEJDAAHB@?$AAs?$AAe?$AA?9?$AAS?$AAE?$AA?$AA@ 10040644     LIBCMT:winapinls.obj
 0002:00006650       ??_C@_1M@HEIBJJAD@?$AAm?$AAs?$AA?9?$AAB?$AAN?$AA?$AA@ 10040650     LIBCMT:winapinls.obj
 0002:0000665c       ??_C@_1BG@PBGJMCEM@?$AAu?$AAz?$AA?9?$AAU?$AAZ?$AA?9?$AAC?$AAy?$AAr?$AAl?$AA?$AA@ 1004065c     LIBCMT:winapinls.obj
 0002:00006674       ??_C@_1O@LAOBCMDF@?$AAq?$AAu?$AAz?$AA?9?$AAE?$AAC?$AA?$AA@ 10040674     LIBCMT:winapinls.obj
 0002:00006684       ??_C@_1M@POEEMAIO@?$AAa?$AAr?$AA?9?$AAE?$AAG?$AA?$AA@ 10040684     LIBCMT:winapinls.obj
 0002:00006690       ??_C@_1M@EFAKDEDL@?$AAz?$AAh?$AA?9?$AAH?$AAK?$AA?$AA@ 10040690     LIBCMT:winapinls.obj
 0002:0000669c       ??_C@_1M@HKKIJHGI@?$AAd?$AAe?$AA?9?$AAA?$AAT?$AA?$AA@ 1004069c     LIBCMT:winapinls.obj
 0002:000066a8       ??_C@_1M@KBFBEHJF@?$AAe?$AAn?$AA?9?$AAA?$AAU?$AA?$AA@ 100406a8     LIBCMT:winapinls.obj
 0002:000066b4       ??_C@_1M@MNPLFAAH@?$AAe?$AAs?$AA?9?$AAE?$AAS?$AA?$AA@ 100406b4     LIBCMT:winapinls.obj
 0002:000066c0       ??_C@_1M@HJOOJFMA@?$AAf?$AAr?$AA?9?$AAC?$AAA?$AA?$AA@ 100406c0     LIBCMT:winapinls.obj
 0002:000066cc       ??_C@_1BG@JPOFPNAB@?$AAs?$AAr?$AA?9?$AAS?$AAP?$AA?9?$AAC?$AAy?$AAr?$AAl?$AA?$AA@ 100406cc     LIBCMT:winapinls.obj
 0002:000066e4       ??_C@_1M@LNFOCMOB@?$AAs?$AAe?$AA?9?$AAF?$AAI?$AA?$AA@ 100406e4     LIBCMT:winapinls.obj
 0002:000066f0       ??_C@_1O@MGJBOAMB@?$AAq?$AAu?$AAz?$AA?9?$AAP?$AAE?$AA?$AA@ 100406f0     LIBCMT:winapinls.obj
 0002:00006700       ??_C@_1M@GJINLBOK@?$AAa?$AAr?$AA?9?$AAL?$AAY?$AA?$AA@ 10040700     LIBCMT:winapinls.obj
 0002:0000670c       ??_C@_1M@GGMNHJNL@?$AAz?$AAh?$AA?9?$AAS?$AAG?$AA?$AA@ 1004070c     LIBCMT:winapinls.obj
 0002:00006718       ??_C@_1M@HOIKODND@?$AAd?$AAe?$AA?9?$AAL?$AAU?$AA?$AA@ 10040718     LIBCMT:winapinls.obj
 0002:00006724       ??_C@_1M@DDOCCGFG@?$AAe?$AAn?$AA?9?$AAC?$AAA?$AA?$AA@ 10040724     LIBCMT:winapinls.obj
 0002:00006730       ??_C@_1M@BNOEMJLF@?$AAe?$AAs?$AA?9?$AAG?$AAT?$AA?$AA@ 10040730     LIBCMT:winapinls.obj
 0002:0000673c       ??_C@_1M@EOGNKEK@?$AAf?$AAr?$AA?9?$AAC?$AAH?$AA?$AA@ 1004073c     LIBCMT:winapinls.obj
 0002:00006748       ??_C@_1M@FLIDJFHL@?$AAh?$AAr?$AA?9?$AAB?$AAA?$AA?$AA@ 10040748     LIBCMT:winapinls.obj
 0002:00006754       ??_C@_1O@FMCELNAJ@?$AAs?$AAm?$AAj?$AA?9?$AAN?$AAO?$AA?$AA@ 10040754     LIBCMT:winapinls.obj
 0002:00006764       ??_C@_1M@JHGLJMGJ@?$AAa?$AAr?$AA?9?$AAD?$AAZ?$AA?$AA@ 10040764     LIBCMT:winapinls.obj
 0002:00006770       ??_C@_1M@JKKFDCNP@?$AAz?$AAh?$AA?9?$AAM?$AAO?$AA?$AA@ 10040770     LIBCMT:winapinls.obj
 0002:0000677c       ??_C@_1M@GEEFALPE@?$AAd?$AAe?$AA?9?$AAL?$AAI?$AA?$AA@ 1004077c     LIBCMT:winapinls.obj
 0002:00006788       ??_C@_1M@IGEOFBG@?$AAe?$AAn?$AA?9?$AAN?$AAZ?$AA?$AA@ 10040788     LIBCMT:winapinls.obj
 0002:00006794       ??_C@_1M@KDBONEHP@?$AAe?$AAs?$AA?9?$AAC?$AAR?$AA?$AA@ 10040794     LIBCMT:winapinls.obj
 0002:000067a0       ??_C@_1M@FHMDOHNN@?$AAf?$AAr?$AA?9?$AAL?$AAU?$AA?$AA@ 100407a0     LIBCMT:winapinls.obj
 0002:000067ac       ??_C@_1BG@NFKKMAFG@?$AAb?$AAs?$AA?9?$AAB?$AAA?$AA?9?$AAL?$AAa?$AAt?$AAn?$AA?$AA@ 100407ac     LIBCMT:winapinls.obj
 0002:000067c4       ??_C@_1O@IMNBEMCI@?$AAs?$AAm?$AAj?$AA?9?$AAS?$AAE?$AA?$AA@ 100407c4     LIBCMT:winapinls.obj
 0002:000067d4       ??_C@_1M@DHHMBNDP@?$AAa?$AAr?$AA?9?$AAM?$AAA?$AA?$AA@ 100407d4     LIBCMT:winapinls.obj
 0002:000067e0       ??_C@_1M@BNBLJCGH@?$AAe?$AAn?$AA?9?$AAI?$AAE?$AA?$AA@ 100407e0     LIBCMT:winapinls.obj
 0002:000067ec       ??_C@_1M@GEPAFMDL@?$AAe?$AAs?$AA?9?$AAP?$AAA?$AA?$AA@ 100407ec     LIBCMT:winapinls.obj
 0002:000067f8       ??_C@_1M@OJONDMDL@?$AAf?$AAr?$AA?9?$AAM?$AAC?$AA?$AA@ 100407f8     LIBCMT:winapinls.obj
 0002:00006804       ??_C@_1BG@OBCNFJB@?$AAs?$AAr?$AA?9?$AAB?$AAA?$AA?9?$AAL?$AAa?$AAt?$AAn?$AA?$AA@ 10040804     LIBCMT:winapinls.obj
 0002:0000681c       ??_C@_1O@KEMEEGPO@?$AAs?$AAm?$AAa?$AA?9?$AAN?$AAO?$AA?$AA@ 1004081c     LIBCMT:winapinls.obj
 0002:0000682c       ??_C@_1M@ELMGFODK@?$AAa?$AAr?$AA?9?$AAT?$AAN?$AA?$AA@ 1004082c     LIBCMT:winapinls.obj
 0002:00006838       ??_C@_1M@BHDLHFAF@?$AAe?$AAn?$AA?9?$AAZ?$AAA?$AA?$AA@ 10040838     LIBCMT:winapinls.obj
 0002:00006844       ??_C@_1M@BMGIGLIF@?$AAe?$AAs?$AA?9?$AAD?$AAO?$AA?$AA@ 10040844     LIBCMT:winapinls.obj
 0002:00006850       ??_C@_1BG@CMBHIPBE@?$AAs?$AAr?$AA?9?$AAB?$AAA?$AA?9?$AAC?$AAy?$AAr?$AAl?$AA?$AA@ 10040850     LIBCMT:winapinls.obj
 0002:00006868       ??_C@_1O@HEDBLHNP@?$AAs?$AAm?$AAa?$AA?9?$AAS?$AAE?$AA?$AA@ 10040868     LIBCMT:winapinls.obj
 0002:00006878       ??_C@_1M@DAGCADIM@?$AAa?$AAr?$AA?9?$AAO?$AAM?$AA?$AA@ 10040878     LIBCMT:winapinls.obj
 0002:00006884       ??_C@_1M@FODLMICG@?$AAe?$AAn?$AA?9?$AAJ?$AAM?$AA?$AA@ 10040884     LIBCMT:winapinls.obj
 0002:00006890       ??_C@_1M@DNMLCIHB@?$AAe?$AAs?$AA?9?$AAV?$AAE?$AA?$AA@ 10040890     LIBCMT:winapinls.obj
 0002:0000689c       ??_C@_1O@EOKHMKJK@?$AAs?$AAm?$AAs?$AA?9?$AAF?$AAI?$AA?$AA@ 1004089c     LIBCMT:winapinls.obj
 0002:000068ac       ??_C@_1M@CAFJMKOF@?$AAa?$AAr?$AA?9?$AAY?$AAE?$AA?$AA@ 100408ac     LIBCMT:winapinls.obj
 0002:000068b8       ??_C@_1M@CBFHIJLI@?$AAe?$AAn?$AA?9?$AAC?$AAB?$AA?$AA@ 100408b8     LIBCMT:winapinls.obj
 0002:000068c4       ??_C@_1M@BGNFLDN@?$AAe?$AAs?$AA?9?$AAC?$AAO?$AA?$AA@ 100408c4     LIBCMT:winapinls.obj
 0002:000068d0       ??_C@_1O@JMPHMAMC@?$AAs?$AAm?$AAn?$AA?9?$AAF?$AAI?$AA?$AA@ 100408d0     LIBCMT:winapinls.obj
 0002:000068e0       ??_C@_1M@JLANABKE@?$AAa?$AAr?$AA?9?$AAS?$AAY?$AA?$AA@ 100408e0     LIBCMT:winapinls.obj
 0002:000068ec       ??_C@_1M@HPKGCFGN@?$AAe?$AAn?$AA?9?$AAB?$AAZ?$AA?$AA@ 100408ec     LIBCMT:winapinls.obj
 0002:000068f8       ??_C@_1M@OLJCMLGM@?$AAe?$AAs?$AA?9?$AAP?$AAE?$AA?$AA@ 100408f8     LIBCMT:winapinls.obj
 0002:00006904       ??_C@_1M@MKKGFKLE@?$AAa?$AAr?$AA?9?$AAJ?$AAO?$AA?$AA@ 10040904     LIBCMT:winapinls.obj
 0002:00006910       ??_C@_1M@EKPGLDNI@?$AAe?$AAn?$AA?9?$AAT?$AAT?$AA?$AA@ 10040910     LIBCMT:winapinls.obj
 0002:0000691c       ??_C@_1M@OONGHFHE@?$AAe?$AAs?$AA?9?$AAA?$AAR?$AA?$AA@ 1004091c     LIBCMT:winapinls.obj
 0002:00006928       ??_C@_1M@OOJFGBHE@?$AAa?$AAr?$AA?9?$AAL?$AAB?$AA?$AA@ 10040928     LIBCMT:winapinls.obj
 0002:00006934       ??_C@_1M@GCEJHNEG@?$AAe?$AAn?$AA?9?$AAZ?$AAW?$AA?$AA@ 10040934     LIBCMT:winapinls.obj
 0002:00006940       ??_C@_1M@JNOCAHJI@?$AAe?$AAs?$AA?9?$AAE?$AAC?$AA?$AA@ 10040940     LIBCMT:winapinls.obj
 0002:0000694c       ??_C@_1M@JEFHPGGB@?$AAa?$AAr?$AA?9?$AAK?$AAW?$AA?$AA@ 1004094c     LIBCMT:winapinls.obj
 0002:00006958       ??_C@_1M@MLKIBJOJ@?$AAe?$AAn?$AA?9?$AAP?$AAH?$AA?$AA@ 10040958     LIBCMT:winapinls.obj
 0002:00006964       ??_C@_1M@BDNIPEND@?$AAe?$AAs?$AA?9?$AAC?$AAL?$AA?$AA@ 10040964     LIBCMT:winapinls.obj
 0002:00006970       ??_C@_1M@MPNMEKBD@?$AAa?$AAr?$AA?9?$AAA?$AAE?$AA?$AA@ 10040970     LIBCMT:winapinls.obj
 0002:0000697c       ??_C@_1M@KBJALCPI@?$AAe?$AAs?$AA?9?$AAU?$AAY?$AA?$AA@ 1004097c     LIBCMT:winapinls.obj
 0002:00006988       ??_C@_1M@LLCCOAGA@?$AAa?$AAr?$AA?9?$AAB?$AAH?$AA?$AA@ 10040988     LIBCMT:winapinls.obj
 0002:00006994       ??_C@_1M@PBFNCDEL@?$AAe?$AAs?$AA?9?$AAP?$AAY?$AA?$AA@ 10040994     LIBCMT:winapinls.obj
 0002:000069a0       ??_C@_1M@EDGINPNP@?$AAa?$AAr?$AA?9?$AAQ?$AAA?$AA?$AA@ 100409a0     LIBCMT:winapinls.obj
 0002:000069ac       ??_C@_1M@MKDBIIJI@?$AAe?$AAs?$AA?9?$AAB?$AAO?$AA?$AA@ 100409ac     LIBCMT:winapinls.obj
 0002:000069b8       ??_C@_1M@CPKKEBLD@?$AAe?$AAs?$AA?9?$AAS?$AAV?$AA?$AA@ 100409b8     LIBCMT:winapinls.obj
 0002:000069c4       ??_C@_1M@NDBGMMJL@?$AAe?$AAs?$AA?9?$AAH?$AAN?$AA?$AA@ 100409c4     LIBCMT:winapinls.obj
 0002:000069d0       ??_C@_1M@JIJIBHDP@?$AAe?$AAs?$AA?9?$AAN?$AAI?$AA?$AA@ 100409d0     LIBCMT:winapinls.obj
 0002:000069dc       ??_C@_1M@CGFMKEEK@?$AAe?$AAs?$AA?9?$AAP?$AAR?$AA?$AA@ 100409dc     LIBCMT:winapinls.obj
 0002:000069e8       ??_C@_1O@ICJHKIIK@?$AAz?$AAh?$AA?9?$AAC?$AAH?$AAT?$AA?$AA@ 100409e8     LIBCMT:winapinls.obj
 0002:000069f8       ??_C@_15CLNEJCE@?$AAs?$AAr?$AA?$AA@ 100409f8     LIBCMT:winapinls.obj
 0002:00006a00       ??_C@_1M@KAHEKEIG@?$AAa?$AAf?$AA?9?$AAz?$AAa?$AA?$AA@ 10040a00     LIBCMT:winapinls.obj
 0002:00006a0c       ??_C@_1M@GIECOABL@?$AAa?$AAr?$AA?9?$AAa?$AAe?$AA?$AA@ 10040a0c     LIBCMT:winapinls.obj
 0002:00006a18       ??_C@_1M@BMLMEKGI@?$AAa?$AAr?$AA?9?$AAb?$AAh?$AA?$AA@ 10040a18     LIBCMT:winapinls.obj
 0002:00006a24       ??_C@_1M@DAPFDGGB@?$AAa?$AAr?$AA?9?$AAd?$AAz?$AA?$AA@ 10040a24     LIBCMT:winapinls.obj
 0002:00006a30       ??_C@_1M@FJNKGKIG@?$AAa?$AAr?$AA?9?$AAe?$AAg?$AA?$AA@ 10040a30     LIBCMT:winapinls.obj
 0002:00006a3c       ??_C@_1M@FLGKKCLO@?$AAa?$AAr?$AA?9?$AAi?$AAq?$AA?$AA@ 10040a3c     LIBCMT:winapinls.obj
 0002:00006a48       ??_C@_1M@GNDIPALM@?$AAa?$AAr?$AA?9?$AAj?$AAo?$AA?$AA@ 10040a48     LIBCMT:winapinls.obj
 0002:00006a54       ??_C@_1M@DDMJFMGJ@?$AAa?$AAr?$AA?9?$AAk?$AAw?$AA?$AA@ 10040a54     LIBCMT:winapinls.obj
 0002:00006a60       ??_C@_1M@EJALMLHM@?$AAa?$AAr?$AA?9?$AAl?$AAb?$AA?$AA@ 10040a60     LIBCMT:winapinls.obj
 0002:00006a6c       ??_C@_1M@MOBDBLOC@?$AAa?$AAr?$AA?9?$AAl?$AAy?$AA?$AA@ 10040a6c     LIBCMT:winapinls.obj
 0002:00006a78       ??_C@_1M@JAOCLHDH@?$AAa?$AAr?$AA?9?$AAm?$AAa?$AA?$AA@ 10040a78     LIBCMT:winapinls.obj
 0002:00006a84       ??_C@_1M@JHPMKJIE@?$AAa?$AAr?$AA?9?$AAo?$AAm?$AA?$AA@ 10040a84     LIBCMT:winapinls.obj
 0002:00006a90       ??_C@_1M@OEPGHFNH@?$AAa?$AAr?$AA?9?$AAq?$AAa?$AA?$AA@ 10040a90     LIBCMT:winapinls.obj
 0002:00006a9c       ??_C@_1M@KJDONENM@?$AAa?$AAr?$AA?9?$AAs?$AAa?$AA?$AA@ 10040a9c     LIBCMT:winapinls.obj
 0002:00006aa8       ??_C@_1M@DMJDKLKM@?$AAa?$AAr?$AA?9?$AAs?$AAy?$AA?$AA@ 10040aa8     LIBCMT:winapinls.obj
 0002:00006ab4       ??_C@_1M@OMFIPEDC@?$AAa?$AAr?$AA?9?$AAt?$AAn?$AA?$AA@ 10040ab4     LIBCMT:winapinls.obj
 0002:00006ac0       ??_C@_1M@IHMHGAON@?$AAa?$AAr?$AA?9?$AAy?$AAe?$AA?$AA@ 10040ac0     LIBCMT:winapinls.obj
 0002:00006acc       ??_C@_1BG@KDCPGJGB@?$AAa?$AAz?$AA?9?$AAa?$AAz?$AA?9?$AAc?$AAy?$AAr?$AAl?$AA?$AA@ 10040acc     LIBCMT:winapinls.obj
 0002:00006ae4       ??_C@_1BG@IBCKDDOE@?$AAa?$AAz?$AA?9?$AAa?$AAz?$AA?9?$AAl?$AAa?$AAt?$AAn?$AA?$AA@ 10040ae4     LIBCMT:winapinls.obj
 0002:00006afc       ??_C@_1M@EGPFDCPD@?$AAb?$AAe?$AA?9?$AAb?$AAy?$AA?$AA@ 10040afc     LIBCMT:winapinls.obj
 0002:00006b08       ??_C@_1M@PCMGMCGC@?$AAb?$AAg?$AA?9?$AAb?$AAg?$AA?$AA@ 10040b08     LIBCMT:winapinls.obj
 0002:00006b14       ??_C@_1M@BJBMFGOB@?$AAb?$AAn?$AA?9?$AAi?$AAn?$AA?$AA@ 10040b14     LIBCMT:winapinls.obj
 0002:00006b20       ??_C@_1BG@EAKMMACD@?$AAb?$AAs?$AA?9?$AAb?$AAa?$AA?9?$AAl?$AAa?$AAt?$AAn?$AA?$AA@ 10040b20     LIBCMT:winapinls.obj
 0002:00006b38       ??_C@_1M@KGADAODK@?$AAc?$AAa?$AA?9?$AAe?$AAs?$AA?$AA@ 10040b38     LIBCMT:winapinls.obj
 0002:00006b44       ??_C@_1M@COAJPDHI@?$AAc?$AAs?$AA?9?$AAc?$AAz?$AA?$AA@ 10040b44     LIBCMT:winapinls.obj
 0002:00006b50       ??_C@_1M@DHBHFONH@?$AAc?$AAy?$AA?9?$AAg?$AAb?$AA?$AA@ 10040b50     LIBCMT:winapinls.obj
 0002:00006b5c       ??_C@_1M@IMGKELGA@?$AAd?$AAa?$AA?9?$AAd?$AAk?$AA?$AA@ 10040b5c     LIBCMT:winapinls.obj
 0002:00006b68       ??_C@_1M@NNDGDNGA@?$AAd?$AAe?$AA?9?$AAa?$AAt?$AA?$AA@ 10040b68     LIBCMT:winapinls.obj
 0002:00006b74       ??_C@_1M@IKDBHEEM@?$AAd?$AAe?$AA?9?$AAc?$AAh?$AA?$AA@ 10040b74     LIBCMT:winapinls.obj
 0002:00006b80       ??_C@_1M@GFFOJMCJ@?$AAd?$AAe?$AA?9?$AAd?$AAe?$AA?$AA@ 10040b80     LIBCMT:winapinls.obj
 0002:00006b8c       ??_C@_1M@MDNLKBPM@?$AAd?$AAe?$AA?9?$AAl?$AAi?$AA?$AA@ 10040b8c     LIBCMT:winapinls.obj
 0002:00006b98       ??_C@_1M@NJBEEJNL@?$AAd?$AAe?$AA?9?$AAl?$AAu?$AA?$AA@ 10040b98     LIBCMT:winapinls.obj
 0002:00006ba4       ??_C@_1O@GNNELBAP@?$AAd?$AAi?$AAv?$AA?9?$AAm?$AAv?$AA?$AA@ 10040ba4     LIBCMT:winapinls.obj
 0002:00006bb4       ??_C@_1M@EJLEOGAE@?$AAe?$AAl?$AA?9?$AAg?$AAr?$AA?$AA@ 10040bb4     LIBCMT:winapinls.obj
 0002:00006bc0       ??_C@_1M@GMPONJN@?$AAe?$AAn?$AA?9?$AAa?$AAu?$AA?$AA@ 10040bc0     LIBCMT:winapinls.obj
 0002:00006bcc       ??_C@_1M@NIDIIPGF@?$AAe?$AAn?$AA?9?$AAb?$AAz?$AA?$AA@ 10040bcc     LIBCMT:winapinls.obj
 0002:00006bd8       ??_C@_1M@JEHMIMFO@?$AAe?$AAn?$AA?9?$AAc?$AAa?$AA?$AA@ 10040bd8     LIBCMT:winapinls.obj
 0002:00006be4       ??_C@_1M@IGMJCDLA@?$AAe?$AAn?$AA?9?$AAc?$AAb?$AA?$AA@ 10040be4     LIBCMT:winapinls.obj
 0002:00006bf0       ??_C@_1M@BNFIGBKG@?$AAe?$AAn?$AA?9?$AAg?$AAb?$AA?$AA@ 10040bf0     LIBCMT:winapinls.obj
 0002:00006bfc       ??_C@_1M@LKIFDIGP@?$AAe?$AAn?$AA?9?$AAi?$AAe?$AA?$AA@ 10040bfc     LIBCMT:winapinls.obj
 0002:00006c08       ??_C@_1M@PJKFGCCO@?$AAe?$AAn?$AA?9?$AAj?$AAm?$AA?$AA@ 10040c08     LIBCMT:winapinls.obj
 0002:00006c14       ??_C@_1M@KPPKEPBO@?$AAe?$AAn?$AA?9?$AAn?$AAz?$AA?$AA@ 10040c14     LIBCMT:winapinls.obj
 0002:00006c20       ??_C@_1M@GMDGLDOB@?$AAe?$AAn?$AA?9?$AAp?$AAh?$AA?$AA@ 10040c20     LIBCMT:winapinls.obj
 0002:00006c2c       ??_C@_1M@ONGIBJNA@?$AAe?$AAn?$AA?9?$AAt?$AAt?$AA?$AA@ 10040c2c     LIBCMT:winapinls.obj
 0002:00006c38       ??_C@_1M@LLODPCMM@?$AAe?$AAn?$AA?9?$AAu?$AAs?$AA?$AA@ 10040c38     LIBCMT:winapinls.obj
 0002:00006c44       ??_C@_1M@LAKFNPAN@?$AAe?$AAn?$AA?9?$AAz?$AAa?$AA?$AA@ 10040c44     LIBCMT:winapinls.obj
 0002:00006c50       ??_C@_1M@MFNHNHEO@?$AAe?$AAn?$AA?9?$AAz?$AAw?$AA?$AA@ 10040c50     LIBCMT:winapinls.obj
 0002:00006c5c       ??_C@_1M@EJEINPHM@?$AAe?$AAs?$AA?9?$AAa?$AAr?$AA?$AA@ 10040c5c     LIBCMT:winapinls.obj
 0002:00006c68       ??_C@_1M@GNKPCCJA@?$AAe?$AAs?$AA?9?$AAb?$AAo?$AA?$AA@ 10040c68     LIBCMT:winapinls.obj
 0002:00006c74       ??_C@_1M@LEEGFONL@?$AAe?$AAs?$AA?9?$AAc?$AAl?$AA?$AA@ 10040c74     LIBCMT:winapinls.obj
 0002:00006c80       ??_C@_1M@KGPDPBDF@?$AAe?$AAs?$AA?9?$AAc?$AAo?$AA?$AA@ 10040c80     LIBCMT:winapinls.obj
 0002:00006c8c       ??_C@_1M@EIAHOHH@?$AAe?$AAs?$AA?9?$AAc?$AAr?$AA?$AA@ 10040c8c     LIBCMT:winapinls.obj
 0002:00006c98       ??_C@_1M@LLPGMBIN@?$AAe?$AAs?$AA?9?$AAd?$AAo?$AA?$AA@ 10040c98     LIBCMT:winapinls.obj
 0002:00006ca4       ??_C@_1M@DKHMKNJA@?$AAe?$AAs?$AA?9?$AAe?$AAc?$AA?$AA@ 10040ca4     LIBCMT:winapinls.obj
 0002:00006cb0       ??_C@_1M@GKGFPKAP@?$AAe?$AAs?$AA?9?$AAe?$AAs?$AA?$AA@ 10040cb0     LIBCMT:winapinls.obj
 0002:00006cbc       ??_C@_1M@LKHKGDLN@?$AAe?$AAs?$AA?9?$AAg?$AAt?$AA?$AA@ 10040cbc     LIBCMT:winapinls.obj
 0002:00006cc8       ??_C@_1M@HEIIGGJD@?$AAe?$AAs?$AA?9?$AAh?$AAn?$AA?$AA@ 10040cc8     LIBCMT:winapinls.obj
 0002:00006cd4       ??_C@_1M@FBDHPPGD@?$AAe?$AAs?$AA?9?$AAm?$AAx?$AA?$AA@ 10040cd4     LIBCMT:winapinls.obj
 0002:00006ce0       ??_C@_1M@DPAGLNDH@?$AAe?$AAs?$AA?9?$AAn?$AAi?$AA?$AA@ 10040ce0     LIBCMT:winapinls.obj
 0002:00006cec       ??_C@_1M@MDGOPGDD@?$AAe?$AAs?$AA?9?$AAp?$AAa?$AA?$AA@ 10040cec     LIBCMT:winapinls.obj
 0002:00006cf8       ??_C@_1M@EMAMGBGE@?$AAe?$AAs?$AA?9?$AAp?$AAe?$AA?$AA@ 10040cf8     LIBCMT:winapinls.obj
 0002:00006d04       ??_C@_1M@IBMCAOEC@?$AAe?$AAs?$AA?9?$AAp?$AAr?$AA?$AA@ 10040d04     LIBCMT:winapinls.obj
 0002:00006d10       ??_C@_1M@FGMDIJED@?$AAe?$AAs?$AA?9?$AAp?$AAy?$AA?$AA@ 10040d10     LIBCMT:winapinls.obj
 0002:00006d1c       ??_C@_1M@IIDEOLLL@?$AAe?$AAs?$AA?9?$AAs?$AAv?$AA?$AA@ 10040d1c     LIBCMT:winapinls.obj
 0002:00006d28       ??_C@_1M@GAOBIPA@?$AAe?$AAs?$AA?9?$AAu?$AAy?$AA?$AA@ 10040d28     LIBCMT:winapinls.obj
 0002:00006d34       ??_C@_1M@JKFFICHJ@?$AAe?$AAs?$AA?9?$AAv?$AAe?$AA?$AA@ 10040d34     LIBCMT:winapinls.obj
 0002:00006d40       ??_C@_1M@PNMLOJDF@?$AAe?$AAt?$AA?9?$AAe?$AAe?$AA?$AA@ 10040d40     LIBCMT:winapinls.obj
 0002:00006d4c       ??_C@_1M@GHHLIKEI@?$AAe?$AAu?$AA?9?$AAe?$AAs?$AA?$AA@ 10040d4c     LIBCMT:winapinls.obj
 0002:00006d58       ??_C@_1M@PBNONODE@?$AAf?$AAa?$AA?9?$AAi?$AAr?$AA?$AA@ 10040d58     LIBCMT:winapinls.obj
 0002:00006d64       ??_C@_1M@JEEHPMIL@?$AAf?$AAi?$AA?9?$AAf?$AAi?$AA?$AA@ 10040d64     LIBCMT:winapinls.obj
 0002:00006d70       ??_C@_1M@LMDCNDBA@?$AAf?$AAo?$AA?9?$AAf?$AAo?$AA?$AA@ 10040d70     LIBCMT:winapinls.obj
 0002:00006d7c       ??_C@_1M@JKEOHLDK@?$AAf?$AAr?$AA?9?$AAb?$AAe?$AA?$AA@ 10040d7c     LIBCMT:winapinls.obj
 0002:00006d88       ??_C@_1M@NOHADPMI@?$AAf?$AAr?$AA?9?$AAc?$AAa?$AA?$AA@ 10040d88     LIBCMT:winapinls.obj
 0002:00006d94       ??_C@_1M@KDHIHAEC@?$AAf?$AAr?$AA?9?$AAc?$AAh?$AA?$AA@ 10040d94     LIBCMT:winapinls.obj
 0002:00006da0       ??_C@_1M@MMBBFGAK@?$AAf?$AAr?$AA?9?$AAf?$AAr?$AA?$AA@ 10040da0     LIBCMT:winapinls.obj
 0002:00006dac       ??_C@_1M@PAFNENNF@?$AAf?$AAr?$AA?9?$AAl?$AAu?$AA?$AA@ 10040dac     LIBCMT:winapinls.obj
 0002:00006db8       ??_C@_1M@EOHDJGDD@?$AAf?$AAr?$AA?9?$AAm?$AAc?$AA?$AA@ 10040db8     LIBCMT:winapinls.obj
 0002:00006dc4       ??_C@_1M@FAPLLOPF@?$AAg?$AAl?$AA?9?$AAe?$AAs?$AA?$AA@ 10040dc4     LIBCMT:winapinls.obj
 0002:00006dd0       ??_C@_1M@FOPBFLOO@?$AAg?$AAu?$AA?9?$AAi?$AAn?$AA?$AA@ 10040dd0     LIBCMT:winapinls.obj
 0002:00006ddc       ??_C@_1M@KBMCINPM@?$AAh?$AAe?$AA?9?$AAi?$AAl?$AA?$AA@ 10040ddc     LIBCMT:winapinls.obj
 0002:00006de8       ??_C@_1M@BBPHKFPJ@?$AAh?$AAi?$AA?9?$AAi?$AAn?$AA?$AA@ 10040de8     LIBCMT:winapinls.obj
 0002:00006df4       ??_C@_1M@PMBNDPHD@?$AAh?$AAr?$AA?9?$AAb?$AAa?$AA?$AA@ 10040df4     LIBCMT:winapinls.obj
 0002:00006e00       ??_C@_1M@BPCKOEGE@?$AAh?$AAr?$AA?9?$AAh?$AAr?$AA?$AA@ 10040e00     LIBCMT:winapinls.obj
 0002:00006e0c       ??_C@_1M@GACBMHKE@?$AAh?$AAu?$AA?9?$AAh?$AAu?$AA?$AA@ 10040e0c     LIBCMT:winapinls.obj
 0002:00006e18       ??_C@_1M@MILPAJJC@?$AAh?$AAy?$AA?9?$AAa?$AAm?$AA?$AA@ 10040e18     LIBCMT:winapinls.obj
 0002:00006e24       ??_C@_1M@BABBICEC@?$AAi?$AAd?$AA?9?$AAi?$AAd?$AA?$AA@ 10040e24     LIBCMT:winapinls.obj
 0002:00006e30       ??_C@_1M@BIKNHHPF@?$AAi?$AAs?$AA?9?$AAi?$AAs?$AA?$AA@ 10040e30     LIBCMT:winapinls.obj
 0002:00006e3c       ??_C@_1M@NMPCJPHE@?$AAi?$AAt?$AA?9?$AAc?$AAh?$AA?$AA@ 10040e3c     LIBCMT:winapinls.obj
 0002:00006e48       ??_C@_1M@GHKGFEDF@?$AAi?$AAt?$AA?9?$AAi?$AAt?$AA?$AA@ 10040e48     LIBCMT:winapinls.obj
 0002:00006e54       ??_C@_1M@NIEJCJJA@?$AAj?$AAa?$AA?9?$AAj?$AAp?$AA?$AA@ 10040e54     LIBCMT:winapinls.obj
 0002:00006e60       ??_C@_1M@JILFNBIM@?$AAk?$AAa?$AA?9?$AAg?$AAe?$AA?$AA@ 10040e60     LIBCMT:winapinls.obj
 0002:00006e6c       ??_C@_1M@PACPMGPH@?$AAk?$AAk?$AA?9?$AAk?$AAz?$AA?$AA@ 10040e6c     LIBCMT:winapinls.obj
 0002:00006e78       ??_C@_1M@IELFGMHA@?$AAk?$AAn?$AA?9?$AAi?$AAn?$AA?$AA@ 10040e78     LIBCMT:winapinls.obj
 0002:00006e84       ??_C@_1O@IBBJHCH@?$AAk?$AAo?$AAk?$AA?9?$AAi?$AAn?$AA?$AA@ 10040e84     LIBCMT:winapinls.obj
 0002:00006e94       ??_C@_1M@DMHAEOGC@?$AAk?$AAo?$AA?9?$AAk?$AAr?$AA?$AA@ 10040e94     LIBCMT:winapinls.obj
 0002:00006ea0       ??_C@_1M@HBAHBIGA@?$AAk?$AAy?$AA?9?$AAk?$AAg?$AA?$AA@ 10040ea0     LIBCMT:winapinls.obj
 0002:00006eac       ??_C@_1M@KPMILCJG@?$AAl?$AAt?$AA?9?$AAl?$AAt?$AA?$AA@ 10040eac     LIBCMT:winapinls.obj
 0002:00006eb8       ??_C@_1M@BDEKKCA@?$AAl?$AAv?$AA?9?$AAl?$AAv?$AA?$AA@ 10040eb8     LIBCMT:winapinls.obj
 0002:00006ec4       ??_C@_1M@ELCKCCJJ@?$AAm?$AAi?$AA?9?$AAn?$AAz?$AA?$AA@ 10040ec4     LIBCMT:winapinls.obj
 0002:00006ed0       ??_C@_1M@CBOOLAPA@?$AAm?$AAk?$AA?9?$AAm?$AAk?$AA?$AA@ 10040ed0     LIBCMT:winapinls.obj
 0002:00006edc       ??_C@_1M@GPHNBJKN@?$AAm?$AAl?$AA?9?$AAi?$AAn?$AA?$AA@ 10040edc     LIBCMT:winapinls.obj
 0002:00006ee8       ??_C@_1M@PABJILIG@?$AAm?$AAn?$AA?9?$AAm?$AAn?$AA?$AA@ 10040ee8     LIBCMT:winapinls.obj
 0002:00006ef4       ??_C@_1M@FGBKKIPG@?$AAm?$AAr?$AA?9?$AAi?$AAn?$AA?$AA@ 10040ef4     LIBCMT:winapinls.obj
 0002:00006f00       ??_C@_1M@NDBPDDAL@?$AAm?$AAs?$AA?9?$AAb?$AAn?$AA?$AA@ 10040f00     LIBCMT:winapinls.obj
 0002:00006f0c       ??_C@_1M@OPIHOOPI@?$AAm?$AAs?$AA?9?$AAm?$AAy?$AA?$AA@ 10040f0c     LIBCMT:winapinls.obj
 0002:00006f18       ??_C@_1M@PPDBCNFM@?$AAm?$AAt?$AA?9?$AAm?$AAt?$AA?$AA@ 10040f18     LIBCMT:winapinls.obj
 0002:00006f24       ??_C@_1M@KDJDKMDD@?$AAn?$AAb?$AA?9?$AAn?$AAo?$AA?$AA@ 10040f24     LIBCMT:winapinls.obj
 0002:00006f30       ??_C@_1M@KFCFLMJP@?$AAn?$AAl?$AA?9?$AAb?$AAe?$AA?$AA@ 10040f30     LIBCMT:winapinls.obj
 0002:00006f3c       ??_C@_1M@KPOPDDGO@?$AAn?$AAl?$AA?9?$AAn?$AAl?$AA?$AA@ 10040f3c     LIBCMT:winapinls.obj
 0002:00006f48       ??_C@_1M@LJKPEMLN@?$AAn?$AAn?$AA?9?$AAn?$AAo?$AA?$AA@ 10040f48     LIBCMT:winapinls.obj
 0002:00006f54       ??_C@_1M@BDGHHBFL@?$AAn?$AAs?$AA?9?$AAz?$AAa?$AA?$AA@ 10040f54     LIBCMT:winapinls.obj
 0002:00006f60       ??_C@_1M@IDEHOAP@?$AAp?$AAa?$AA?9?$AAi?$AAn?$AA?$AA@ 10040f60     LIBCMT:winapinls.obj
 0002:00006f6c       ??_C@_1M@HDBKGOGH@?$AAp?$AAl?$AA?9?$AAp?$AAl?$AA?$AA@ 10040f6c     LIBCMT:winapinls.obj
 0002:00006f78       ??_C@_1M@LJLLCMEH@?$AAp?$AAt?$AA?9?$AAb?$AAr?$AA?$AA@ 10040f78     LIBCMT:winapinls.obj
 0002:00006f84       ??_C@_1M@NCMONAAL@?$AAp?$AAt?$AA?9?$AAp?$AAt?$AA?$AA@ 10040f84     LIBCMT:winapinls.obj
 0002:00006f90       ??_C@_1O@EAKMAJDN@?$AAq?$AAu?$AAz?$AA?9?$AAb?$AAo?$AA?$AA@ 10040f90     LIBCMT:winapinls.obj
 0002:00006fa0       ??_C@_1O@BHHPIGDN@?$AAq?$AAu?$AAz?$AA?9?$AAe?$AAc?$AA?$AA@ 10040fa0     LIBCMT:winapinls.obj
 0002:00006fb0       ??_C@_1O@GBAPEKMJ@?$AAq?$AAu?$AAz?$AA?9?$AAp?$AAe?$AA?$AA@ 10040fb0     LIBCMT:winapinls.obj
 0002:00006fc0       ??_C@_1M@CLGLEFBO@?$AAr?$AAo?$AA?9?$AAr?$AAo?$AA?$AA@ 10040fc0     LIBCMT:winapinls.obj
 0002:00006fcc       ??_C@_1M@CEEDODME@?$AAr?$AAu?$AA?9?$AAr?$AAu?$AA?$AA@ 10040fcc     LIBCMT:winapinls.obj
 0002:00006fd8       ??_C@_1M@HPKKKMPP@?$AAs?$AAa?$AA?9?$AAi?$AAn?$AA?$AA@ 10040fd8     LIBCMT:winapinls.obj
 0002:00006fe4       ??_C@_1M@BKMAIGOJ@?$AAs?$AAe?$AA?9?$AAf?$AAi?$AA?$AA@ 10040fe4     LIBCMT:winapinls.obj
 0002:00006ff0       ??_C@_1M@NDPIFLFI@?$AAs?$AAe?$AA?9?$AAn?$AAo?$AA?$AA@ 10040ff0     LIBCMT:winapinls.obj
 0002:00006ffc       ??_C@_1M@DANKKHJ@?$AAs?$AAe?$AA?9?$AAs?$AAe?$AA?$AA@ 10040ffc     LIBCMT:winapinls.obj
 0002:00007008       ??_C@_1M@PNBLONPJ@?$AAs?$AAk?$AA?9?$AAs?$AAk?$AA?$AA@ 10041008     LIBCMT:winapinls.obj
 0002:00007014       ??_C@_1M@LFMODOAL@?$AAs?$AAl?$AA?9?$AAs?$AAi?$AA?$AA@ 10041014     LIBCMT:winapinls.obj
 0002:00007020       ??_C@_1O@DFKOMPG@?$AAs?$AAm?$AAa?$AA?9?$AAn?$AAo?$AA?$AA@ 10041020     LIBCMT:winapinls.obj
 0002:00007030       ??_C@_1O@NDKPBNNH@?$AAs?$AAm?$AAa?$AA?9?$AAs?$AAe?$AA?$AA@ 10041030     LIBCMT:winapinls.obj
 0002:00007040       ??_C@_1O@PLLKBHAB@?$AAs?$AAm?$AAj?$AA?9?$AAn?$AAo?$AA?$AA@ 10041040     LIBCMT:winapinls.obj
 0002:00007050       ??_C@_1O@CLEPOGCA@?$AAs?$AAm?$AAj?$AA?9?$AAs?$AAe?$AA?$AA@ 10041050     LIBCMT:winapinls.obj
 0002:00007060       ??_C@_1O@DLGJGKMK@?$AAs?$AAm?$AAn?$AA?9?$AAf?$AAi?$AA?$AA@ 10041060     LIBCMT:winapinls.obj
 0002:00007070       ??_C@_1O@OJDJGAJC@?$AAs?$AAm?$AAs?$AA?9?$AAf?$AAi?$AA?$AA@ 10041070     LIBCMT:winapinls.obj
 0002:00007080       ??_C@_1M@BOFOGHPB@?$AAs?$AAq?$AA?9?$AAa?$AAl?$AA?$AA@ 10041080     LIBCMT:winapinls.obj
 0002:0000708c       ??_C@_1BG@LJBBIPGB@?$AAs?$AAr?$AA?9?$AAb?$AAa?$AA?9?$AAc?$AAy?$AAr?$AAl?$AA?$AA@ 1004108c     LIBCMT:winapinls.obj
 0002:000070a4       ??_C@_1BG@JLBENFOE@?$AAs?$AAr?$AA?9?$AAb?$AAa?$AA?9?$AAl?$AAa?$AAt?$AAn?$AA?$AA@ 100410a4     LIBCMT:winapinls.obj
 0002:000070bc       ??_C@_1BG@KODPNHE@?$AAs?$AAr?$AA?9?$AAs?$AAp?$AA?9?$AAc?$AAy?$AAr?$AAl?$AA?$AA@ 100410bc     LIBCMT:winapinls.obj
 0002:000070d4       ??_C@_1BG@CIOGKHPB@?$AAs?$AAr?$AA?9?$AAs?$AAp?$AA?9?$AAl?$AAa?$AAt?$AAn?$AA?$AA@ 100410d4     LIBCMT:winapinls.obj
 0002:000070ec       ??_C@_1M@NGFJLMAC@?$AAs?$AAv?$AA?9?$AAf?$AAi?$AA?$AA@ 100410ec     LIBCMT:winapinls.obj
 0002:000070f8       ??_C@_1M@MPJEJAJC@?$AAs?$AAv?$AA?9?$AAs?$AAe?$AA?$AA@ 100410f8     LIBCMT:winapinls.obj
 0002:00007104       ??_C@_1M@MPNDHLFK@?$AAs?$AAw?$AA?9?$AAk?$AAe?$AA?$AA@ 10041104     LIBCMT:winapinls.obj
 0002:00007110       ??_C@_1O@KOHBJJI@?$AAs?$AAy?$AAr?$AA?9?$AAs?$AAy?$AA?$AA@ 10041110     LIBCMT:winapinls.obj
 0002:00007120       ??_C@_1M@LDCEFHA@?$AAt?$AAa?$AA?9?$AAi?$AAn?$AA?$AA@ 10041120     LIBCMT:winapinls.obj
 0002:0000712c       ??_C@_1M@CNJOFAK@?$AAt?$AAe?$AA?9?$AAi?$AAn?$AA?$AA@ 1004112c     LIBCMT:winapinls.obj
 0002:00007138       ??_C@_1M@GNAECACD@?$AAt?$AAh?$AA?9?$AAt?$AAh?$AA?$AA@ 10041138     LIBCMT:winapinls.obj
 0002:00007144       ??_C@_1M@CHBIHOJO@?$AAt?$AAn?$AA?9?$AAz?$AAa?$AA?$AA@ 10041144     LIBCMT:winapinls.obj
 0002:00007150       ??_C@_1M@GCCMIGPJ@?$AAt?$AAr?$AA?9?$AAt?$AAr?$AA?$AA@ 10041150     LIBCMT:winapinls.obj
 0002:0000715c       ??_C@_1M@CELMCNBK@?$AAt?$AAt?$AA?9?$AAr?$AAu?$AA?$AA@ 1004115c     LIBCMT:winapinls.obj
 0002:00007168       ??_C@_1M@KLMCELGA@?$AAu?$AAk?$AA?9?$AAu?$AAa?$AA?$AA@ 10041168     LIBCMT:winapinls.obj
 0002:00007174       ??_C@_1M@EPAJJAJF@?$AAu?$AAr?$AA?9?$AAp?$AAk?$AA?$AA@ 10041174     LIBCMT:winapinls.obj
 0002:00007180       ??_C@_1BG@GEGPMCDJ@?$AAu?$AAz?$AA?9?$AAu?$AAz?$AA?9?$AAc?$AAy?$AAr?$AAl?$AA?$AA@ 10041180     LIBCMT:winapinls.obj
 0002:00007198       ??_C@_1BG@EGGKJILM@?$AAu?$AAz?$AA?9?$AAu?$AAz?$AA?9?$AAl?$AAa?$AAt?$AAn?$AA?$AA@ 10041198     LIBCMT:winapinls.obj
 0002:000071b0       ??_C@_1M@GFOCLFF@?$AAv?$AAi?$AA?9?$AAv?$AAn?$AA?$AA@ 100411b0     LIBCMT:winapinls.obj
 0002:000071bc       ??_C@_1M@CPAMEDFI@?$AAx?$AAh?$AA?9?$AAz?$AAa?$AA?$AA@ 100411bc     LIBCMT:winapinls.obj
 0002:000071c8       ??_C@_1O@EBKIFIGN@?$AAz?$AAh?$AA?9?$AAc?$AAh?$AAs?$AA?$AA@ 100411c8     LIBCMT:winapinls.obj
 0002:000071d8       ??_C@_1O@NMHPGANE@?$AAz?$AAh?$AA?9?$AAc?$AAh?$AAt?$AA?$AA@ 100411d8     LIBCMT:winapinls.obj
 0002:000071e8       ??_C@_1M@LPINJOMC@?$AAz?$AAh?$AA?9?$AAc?$AAn?$AA?$AA@ 100411e8     LIBCMT:winapinls.obj
 0002:000071f4       ??_C@_1M@OCJEJODD@?$AAz?$AAh?$AA?9?$AAh?$AAk?$AA?$AA@ 100411f4     LIBCMT:winapinls.obj
 0002:00007200       ??_C@_1M@DNDLJINH@?$AAz?$AAh?$AA?9?$AAm?$AAo?$AA?$AA@ 10041200     LIBCMT:winapinls.obj
 0002:0000720c       ??_C@_1M@MBFDNDND@?$AAz?$AAh?$AA?9?$AAs?$AAg?$AA?$AA@ 1004120c     LIBCMT:winapinls.obj
 0002:00007218       ??_C@_1M@IMEPLEPE@?$AAz?$AAh?$AA?9?$AAt?$AAw?$AA?$AA@ 10041218     LIBCMT:winapinls.obj
 0002:00007224       ??_C@_1M@BBGHNHJP@?$AAz?$AAu?$AA?9?$AAz?$AAa?$AA?$AA@ 10041224     LIBCMT:winapinls.obj
 0002:00007230       ___newctype                10041230     LIBCMT:ctype.obj
 0002:00007530       __wctype                   10041530     LIBCMT:ctype.obj
 0002:00007738       ___newclmap                10041738     LIBCMT:ctype.obj
 0002:000078b8       ___newcumap                100418b8     LIBCMT:ctype.obj
 0002:00007a38       ___lc_category             10041a38     LIBCMT:wsetloca.obj
 0002:00007a80       ??_C@_1O@GIFLHMA@?$AAL?$AAC?$AA_?$AAA?$AAL?$AAL?$AA?$AA@ 10041a80     LIBCMT:wsetloca.obj
 0002:00007a90       ??_C@_1BG@PPOMIBNJ@?$AAL?$AAC?$AA_?$AAC?$AAO?$AAL?$AAL?$AAA?$AAT?$AAE?$AA?$AA@ 10041a90     LIBCMT:wsetloca.obj
 0002:00007aa8       ??_C@_1BC@FFJGAPJM@?$AAL?$AAC?$AA_?$AAC?$AAT?$AAY?$AAP?$AAE?$AA?$AA@ 10041aa8     LIBCMT:wsetloca.obj
 0002:00007abc       ??_C@_1BI@PCKFNJFB@?$AAL?$AAC?$AA_?$AAM?$AAO?$AAN?$AAE?$AAT?$AAA?$AAR?$AAY?$AA?$AA@ 10041abc     LIBCMT:wsetloca.obj
 0002:00007ad4       ??_C@_1BG@ENIEDKID@?$AAL?$AAC?$AA_?$AAN?$AAU?$AAM?$AAE?$AAR?$AAI?$AAC?$AA?$AA@ 10041ad4     LIBCMT:wsetloca.obj
 0002:00007aec       ??_C@_1BA@HAAOMIIG@?$AAL?$AAC?$AA_?$AAT?$AAI?$AAM?$AAE?$AA?$AA@ 10041aec     LIBCMT:wsetloca.obj
 0002:00007b80       ??_C@_15NBPDDFIP@?$AA?$DN?$AA?$DL?$AA?$AA@ 10041b80     LIBCMT:wsetloca.obj
 0002:00007b88       ??_C@_13PJJBFPED@?$AA?$DL?$AA?$AA@ 10041b88     LIBCMT:wsetloca.obj
 0002:00007b8c       ??_C@_13NMPKAAJP@?$AA?$DN?$AA?$AA@ 10041b8c     LIBCMT:wsetloca.obj
 0002:00007b90       ??_C@_13FHBKNHDA@?$AAC?$AA?$AA@ 10041b90     LIBCMT:wsetloca.obj
 0002:00007b94       ??_C@_17MBJJLFDM@?$AA_?$AA?4?$AA?0?$AA?$AA@ 10041b94     LIBCMT:wsetloca.obj
 0002:00007b9c       ??_C@_13ENNFDPBH@?$AA_?$AA?$AA@ 10041b9c     LIBCMT:wsetloca.obj
 0002:00007ba0       ??_C@_13JOFGPIOO@?$AA?4?$AA?$AA@ 10041ba0     LIBCMT:wsetloca.obj
 0002:00007ba4       ??_C@_06PGGFOGJG@1?$CDSNAN?$AA@ 10041ba4     LIBCMT:x10fout.obj
 0002:00007bac       ??_C@_05PHHOCPM@1?$CDIND?$AA@ 10041bac     LIBCMT:x10fout.obj
 0002:00007bb4       ??_C@_05DNEBIAHO@1?$CDINF?$AA@ 10041bb4     LIBCMT:x10fout.obj
 0002:00007bbc       ??_C@_06IMKFLFPG@1?$CDQNAN?$AA@ 10041bbc     LIBCMT:x10fout.obj
 0002:00007bc4       ??_C@_0M@HHGEPIBF@CreateFile2?$AA@ 10041bc4     LIBCMT:wopen.obj
 0002:00007bd0       ??_C@_1BA@BALFACEM@?$AAC?$AAO?$AAN?$AAO?$AAU?$AAT?$AA$?$AA?$AA@ 10041bd0     LIBCMT:initcon.obj
 0002:00007be0       ___rg_language             10041be0     LIBCMT:getqloc.obj
 0002:00007eec       ??_C@_1BC@LLOKLNP@?$AAa?$AAm?$AAe?$AAr?$AAi?$AAc?$AAa?$AAn?$AA?$AA@ 10041eec     LIBCMT:getqloc.obj
 0002:00007f00       ??_C@_1CC@HEIGCDGG@?$AAa?$AAm?$AAe?$AAr?$AAi?$AAc?$AAa?$AAn?$AA?5?$AAe?$AAn?$AAg?$AAl?$AAi?$AAs?$AAh?$AA?$AA@ 10041f00     LIBCMT:getqloc.obj
 0002:00007f24       ??_C@_1CC@IHCNOMIN@?$AAa?$AAm?$AAe?$AAr?$AAi?$AAc?$AAa?$AAn?$AA?9?$AAe?$AAn?$AAg?$AAl?$AAi?$AAs?$AAh?$AA?$AA@ 10041f24     LIBCMT:getqloc.obj
 0002:00007f48       ??_C@_1BG@GKAGPCGG@?$AAa?$AAu?$AAs?$AAt?$AAr?$AAa?$AAl?$AAi?$AAa?$AAn?$AA?$AA@ 10041f48     LIBCMT:getqloc.obj
 0002:00007f60       ??_C@_1BA@GMENCENF@?$AAb?$AAe?$AAl?$AAg?$AAi?$AAa?$AAn?$AA?$AA@ 10041f60     LIBCMT:getqloc.obj
 0002:00007f70       ??_C@_1BC@PJMIIAAN@?$AAc?$AAa?$AAn?$AAa?$AAd?$AAi?$AAa?$AAn?$AA?$AA@ 10041f70     LIBCMT:getqloc.obj
 0002:00007f84       ??_C@_17NOIMNFBF@?$AAc?$AAh?$AAh?$AA?$AA@ 10041f84     LIBCMT:getqloc.obj
 0002:00007f8c       ??_C@_17GGDALCHA@?$AAc?$AAh?$AAi?$AA?$AA@ 10041f8c     LIBCMT:getqloc.obj
 0002:00007f94       ??_C@_1BA@NPNJKIBL@?$AAc?$AAh?$AAi?$AAn?$AAe?$AAs?$AAe?$AA?$AA@ 10041f94     LIBCMT:getqloc.obj
 0002:00007fa4       ??_C@_1CC@DINBAMMJ@?$AAc?$AAh?$AAi?$AAn?$AAe?$AAs?$AAe?$AA?9?$AAh?$AAo?$AAn?$AAg?$AAk?$AAo?$AAn?$AAg?$AA?$AA@ 10041fa4     LIBCMT:getqloc.obj
 0002:00007fc8       ??_C@_1CG@IOBJPACO@?$AAc?$AAh?$AAi?$AAn?$AAe?$AAs?$AAe?$AA?9?$AAs?$AAi?$AAm?$AAp?$AAl?$AAi?$AAf?$AAi?$AAe?$AAd?$AA?$AA@ 10041fc8     LIBCMT:getqloc.obj
 0002:00007ff0       ??_C@_1CE@GAJNDCKG@?$AAc?$AAh?$AAi?$AAn?$AAe?$AAs?$AAe?$AA?9?$AAs?$AAi?$AAn?$AAg?$AAa?$AAp?$AAo?$AAr?$AAe?$AA?$AA@ 10041ff0     LIBCMT:getqloc.obj
 0002:00008014       ??_C@_1CI@PAJPIOOD@?$AAc?$AAh?$AAi?$AAn?$AAe?$AAs?$AAe?$AA?9?$AAt?$AAr?$AAa?$AAd?$AAi?$AAt?$AAi?$AAo?$AAn?$AAa?$AAl?$AA?$AA@ 10042014     LIBCMT:getqloc.obj
 0002:0000803c       ??_C@_1BM@NILJBMMD@?$AAd?$AAu?$AAt?$AAc?$AAh?$AA?9?$AAb?$AAe?$AAl?$AAg?$AAi?$AAa?$AAn?$AA?$AA@ 1004203c     LIBCMT:getqloc.obj
 0002:00008058       ??_C@_1CC@OOJPJNEJ@?$AAe?$AAn?$AAg?$AAl?$AAi?$AAs?$AAh?$AA?9?$AAa?$AAm?$AAe?$AAr?$AAi?$AAc?$AAa?$AAn?$AA?$AA@ 10042058     LIBCMT:getqloc.obj
 0002:0000807c       ??_C@_1BI@IOLFEEM@?$AAe?$AAn?$AAg?$AAl?$AAi?$AAs?$AAh?$AA?9?$AAa?$AAu?$AAs?$AA?$AA@ 1004207c     LIBCMT:getqloc.obj
 0002:00008094       ??_C@_1BO@HFFNLENJ@?$AAe?$AAn?$AAg?$AAl?$AAi?$AAs?$AAh?$AA?9?$AAb?$AAe?$AAl?$AAi?$AAz?$AAe?$AA?$AA@ 10042094     LIBCMT:getqloc.obj
 0002:000080b4       ??_C@_1BI@HAPKJMPO@?$AAe?$AAn?$AAg?$AAl?$AAi?$AAs?$AAh?$AA?9?$AAc?$AAa?$AAn?$AA?$AA@ 100420b4     LIBCMT:getqloc.obj
 0002:000080cc       ??_C@_1CE@HLNDMIOJ@?$AAe?$AAn?$AAg?$AAl?$AAi?$AAs?$AAh?$AA?9?$AAc?$AAa?$AAr?$AAi?$AAb?$AAb?$AAe?$AAa?$AAn?$AA?$AA@ 100420cc     LIBCMT:getqloc.obj
 0002:000080f0       ??_C@_1BI@LDHJHHAC@?$AAe?$AAn?$AAg?$AAl?$AAi?$AAs?$AAh?$AA?9?$AAi?$AAr?$AAe?$AA?$AA@ 100420f0     LIBCMT:getqloc.obj
 0002:00008108       ??_C@_1CA@NJMMCFOC@?$AAe?$AAn?$AAg?$AAl?$AAi?$AAs?$AAh?$AA?9?$AAj?$AAa?$AAm?$AAa?$AAi?$AAc?$AAa?$AA?$AA@ 10042108     LIBCMT:getqloc.obj
 0002:00008128       ??_C@_1BG@BHJEBBGG@?$AAe?$AAn?$AAg?$AAl?$AAi?$AAs?$AAh?$AA?9?$AAn?$AAz?$AA?$AA@ 10042128     LIBCMT:getqloc.obj
 0002:00008140       ??_C@_1CK@FGOEJJCO@?$AAe?$AAn?$AAg?$AAl?$AAi?$AAs?$AAh?$AA?9?$AAs?$AAo?$AAu?$AAt?$AAh?$AA?5?$AAa?$AAf?$AAr?$AAi?$AAc?$AAa?$AA?$AA@ 10042140     LIBCMT:getqloc.obj
 0002:0000816c       ??_C@_1DE@PDBJPCJ@?$AAe?$AAn?$AAg?$AAl?$AAi?$AAs?$AAh?$AA?9?$AAt?$AAr?$AAi?$AAn?$AAi?$AAd?$AAa?$AAd?$AA?5?$AAy?$AA?5?$AAt?$AAo?$AAb?$AAa?$AAg?$AAo?$AA?$AA@ 1004216c     LIBCMT:getqloc.obj
 0002:000081a0       ??_C@_1BG@JGCANDME@?$AAe?$AAn?$AAg?$AAl?$AAi?$AAs?$AAh?$AA?9?$AAu?$AAk?$AA?$AA@ 100421a0     LIBCMT:getqloc.obj
 0002:000081b8       ??_C@_1BG@DINKMLE@?$AAe?$AAn?$AAg?$AAl?$AAi?$AAs?$AAh?$AA?9?$AAu?$AAs?$AA?$AA@ 100421b8     LIBCMT:getqloc.obj
 0002:000081d0       ??_C@_1BI@NMFDBHJE@?$AAe?$AAn?$AAg?$AAl?$AAi?$AAs?$AAh?$AA?9?$AAu?$AAs?$AAa?$AA?$AA@ 100421d0     LIBCMT:getqloc.obj
 0002:000081e8       ??_C@_1BO@OIHKJKII@?$AAf?$AAr?$AAe?$AAn?$AAc?$AAh?$AA?9?$AAb?$AAe?$AAl?$AAg?$AAi?$AAa?$AAn?$AA?$AA@ 100421e8     LIBCMT:getqloc.obj
 0002:00008208       ??_C@_1CA@NKAELJKI@?$AAf?$AAr?$AAe?$AAn?$AAc?$AAh?$AA?9?$AAc?$AAa?$AAn?$AAa?$AAd?$AAi?$AAa?$AAn?$AA?$AA@ 10042208     LIBCMT:getqloc.obj
 0002:00008228       ??_C@_1CE@MGKCNLGN@?$AAf?$AAr?$AAe?$AAn?$AAc?$AAh?$AA?9?$AAl?$AAu?$AAx?$AAe?$AAm?$AAb?$AAo?$AAu?$AAr?$AAg?$AA?$AA@ 10042228     LIBCMT:getqloc.obj
 0002:0000824c       ??_C@_1BK@CEGEAILM@?$AAf?$AAr?$AAe?$AAn?$AAc?$AAh?$AA?9?$AAs?$AAw?$AAi?$AAs?$AAs?$AA?$AA@ 1004224c     LIBCMT:getqloc.obj
 0002:00008268       ??_C@_1CA@PAFKEOCC@?$AAg?$AAe?$AAr?$AAm?$AAa?$AAn?$AA?9?$AAa?$AAu?$AAs?$AAt?$AAr?$AAi?$AAa?$AAn?$AA?$AA@ 10042268     LIBCMT:getqloc.obj
 0002:00008288       ??_C@_1CI@HCFHGOFD@?$AAg?$AAe?$AAr?$AAm?$AAa?$AAn?$AA?9?$AAl?$AAi?$AAc?$AAh?$AAt?$AAe?$AAn?$AAs?$AAt?$AAe?$AAi?$AAn?$AA?$AA@ 10042288     LIBCMT:getqloc.obj
 0002:000082b0       ??_C@_1CE@FEDDNPDG@?$AAg?$AAe?$AAr?$AAm?$AAa?$AAn?$AA?9?$AAl?$AAu?$AAx?$AAe?$AAm?$AAb?$AAo?$AAu?$AAr?$AAg?$AA?$AA@ 100422b0     LIBCMT:getqloc.obj
 0002:000082d4       ??_C@_1BK@LIMINNMN@?$AAg?$AAe?$AAr?$AAm?$AAa?$AAn?$AA?9?$AAs?$AAw?$AAi?$AAs?$AAs?$AA?$AA@ 100422d4     LIBCMT:getqloc.obj
 0002:000082f0       ??_C@_1BM@LGMDBEPD@?$AAi?$AAr?$AAi?$AAs?$AAh?$AA?9?$AAe?$AAn?$AAg?$AAl?$AAi?$AAs?$AAh?$AA?$AA@ 100422f0     LIBCMT:getqloc.obj
 0002:0000830c       ??_C@_1BM@NNCFBAEE@?$AAi?$AAt?$AAa?$AAl?$AAi?$AAa?$AAn?$AA?9?$AAs?$AAw?$AAi?$AAs?$AAs?$AA?$AA@ 1004230c     LIBCMT:getqloc.obj
 0002:00008328       ??_C@_1BE@FEDJNPIB@?$AAn?$AAo?$AAr?$AAw?$AAe?$AAg?$AAi?$AAa?$AAn?$AA?$AA@ 10042328     LIBCMT:getqloc.obj
 0002:0000833c       ??_C@_1CC@CILKDEIE@?$AAn?$AAo?$AAr?$AAw?$AAe?$AAg?$AAi?$AAa?$AAn?$AA?9?$AAb?$AAo?$AAk?$AAm?$AAa?$AAl?$AA?$AA@ 1004233c     LIBCMT:getqloc.obj
 0002:00008360       ??_C@_1CE@DHMMHEPL@?$AAn?$AAo?$AAr?$AAw?$AAe?$AAg?$AAi?$AAa?$AAn?$AA?9?$AAn?$AAy?$AAn?$AAo?$AAr?$AAs?$AAk?$AA?$AA@ 10042360     LIBCMT:getqloc.obj
 0002:00008384       ??_C@_1CK@OPNMHECD@?$AAp?$AAo?$AAr?$AAt?$AAu?$AAg?$AAu?$AAe?$AAs?$AAe?$AA?9?$AAb?$AAr?$AAa?$AAz?$AAi?$AAl?$AAi?$AAa?$AAn?$AA?$AA@ 10042384     LIBCMT:getqloc.obj
 0002:000083b0       ??_C@_1CE@KEEHCDB@?$AAs?$AAp?$AAa?$AAn?$AAi?$AAs?$AAh?$AA?9?$AAa?$AAr?$AAg?$AAe?$AAn?$AAt?$AAi?$AAn?$AAa?$AA?$AA@ 100423b0     LIBCMT:getqloc.obj
 0002:000083d4       ??_C@_1CA@GIAOLHJD@?$AAs?$AAp?$AAa?$AAn?$AAi?$AAs?$AAh?$AA?9?$AAb?$AAo?$AAl?$AAi?$AAv?$AAi?$AAa?$AA?$AA@ 100423d4     LIBCMT:getqloc.obj
 0002:000083f4       ??_C@_1BM@OJNDFNPD@?$AAs?$AAp?$AAa?$AAn?$AAi?$AAs?$AAh?$AA?9?$AAc?$AAh?$AAi?$AAl?$AAe?$AA?$AA@ 100423f4     LIBCMT:getqloc.obj
 0002:00008410       ??_C@_1CC@OCOLPALL@?$AAs?$AAp?$AAa?$AAn?$AAi?$AAs?$AAh?$AA?9?$AAc?$AAo?$AAl?$AAo?$AAm?$AAb?$AAi?$AAa?$AA?$AA@ 10042410     LIBCMT:getqloc.obj
 0002:00008434       ??_C@_1CG@BPOFMKBB@?$AAs?$AAp?$AAa?$AAn?$AAi?$AAs?$AAh?$AA?9?$AAc?$AAo?$AAs?$AAt?$AAa?$AA?5?$AAr?$AAi?$AAc?$AAa?$AA?$AA@ 10042434     LIBCMT:getqloc.obj
 0002:0000845c       ??_C@_1DG@IGOBAPBB@?$AAs?$AAp?$AAa?$AAn?$AAi?$AAs?$AAh?$AA?9?$AAd?$AAo?$AAm?$AAi?$AAn?$AAi?$AAc?$AAa?$AAn?$AA?5?$AAr?$AAe?$AAp?$AAu?$AAb?$AAl?$AAi?$AAc?$AA?$AA@ 1004245c     LIBCMT:getqloc.obj
 0002:00008494       ??_C@_1CA@JHAPGEGI@?$AAs?$AAp?$AAa?$AAn?$AAi?$AAs?$AAh?$AA?9?$AAe?$AAc?$AAu?$AAa?$AAd?$AAo?$AAr?$AA?$AA@ 10042494     LIBCMT:getqloc.obj
 0002:000084b4       ??_C@_1CI@LAPALJPP@?$AAs?$AAp?$AAa?$AAn?$AAi?$AAs?$AAh?$AA?9?$AAe?$AAl?$AA?5?$AAs?$AAa?$AAl?$AAv?$AAa?$AAd?$AAo?$AAr?$AA?$AA@ 100424b4     LIBCMT:getqloc.obj
 0002:000084dc       ??_C@_1CE@PDGBOFOM@?$AAs?$AAp?$AAa?$AAn?$AAi?$AAs?$AAh?$AA?9?$AAg?$AAu?$AAa?$AAt?$AAe?$AAm?$AAa?$AAl?$AAa?$AA?$AA@ 100424dc     LIBCMT:getqloc.obj
 0002:00008500       ??_C@_1CC@NBEBAODI@?$AAs?$AAp?$AAa?$AAn?$AAi?$AAs?$AAh?$AA?9?$AAh?$AAo?$AAn?$AAd?$AAu?$AAr?$AAa?$AAs?$AA?$AA@ 10042500     LIBCMT:getqloc.obj
 0002:00008524       ??_C@_1CA@LLKGHBMF@?$AAs?$AAp?$AAa?$AAn?$AAi?$AAs?$AAh?$AA?9?$AAm?$AAe?$AAx?$AAi?$AAc?$AAa?$AAn?$AA?$AA@ 10042524     LIBCMT:getqloc.obj
 0002:00008544       ??_C@_1BO@LKNDOIGD@?$AAs?$AAp?$AAa?$AAn?$AAi?$AAs?$AAh?$AA?9?$AAm?$AAo?$AAd?$AAe?$AAr?$AAn?$AA?$AA@ 10042544     LIBCMT:getqloc.obj
 0002:00008564       ??_C@_1CE@NMDMOEEB@?$AAs?$AAp?$AAa?$AAn?$AAi?$AAs?$AAh?$AA?9?$AAn?$AAi?$AAc?$AAa?$AAr?$AAa?$AAg?$AAu?$AAa?$AA?$AA@ 10042564     LIBCMT:getqloc.obj
 0002:00008588       ??_C@_1BO@LLCBEJGB@?$AAs?$AAp?$AAa?$AAn?$AAi?$AAs?$AAh?$AA?9?$AAp?$AAa?$AAn?$AAa?$AAm?$AAa?$AA?$AA@ 10042588     LIBCMT:getqloc.obj
 0002:000085a8       ??_C@_1CC@FKPGGIHO@?$AAs?$AAp?$AAa?$AAn?$AAi?$AAs?$AAh?$AA?9?$AAp?$AAa?$AAr?$AAa?$AAg?$AAu?$AAa?$AAy?$AA?$AA@ 100425a8     LIBCMT:getqloc.obj
 0002:000085cc       ??_C@_1BK@CDEIHOOP@?$AAs?$AAp?$AAa?$AAn?$AAi?$AAs?$AAh?$AA?9?$AAp?$AAe?$AAr?$AAu?$AA?$AA@ 100425cc     LIBCMT:getqloc.obj
 0002:000085e8       ??_C@_1CI@GAHAKKGP@?$AAs?$AAp?$AAa?$AAn?$AAi?$AAs?$AAh?$AA?9?$AAp?$AAu?$AAe?$AAr?$AAt?$AAo?$AA?5?$AAr?$AAi?$AAc?$AAo?$AA?$AA@ 100425e8     LIBCMT:getqloc.obj
 0002:00008610       ??_C@_1CA@NKJBCAGP@?$AAs?$AAp?$AAa?$AAn?$AAi?$AAs?$AAh?$AA?9?$AAu?$AAr?$AAu?$AAg?$AAu?$AAa?$AAy?$AA?$AA@ 10042610     LIBCMT:getqloc.obj
 0002:00008630       ??_C@_1CE@ODILCONM@?$AAs?$AAp?$AAa?$AAn?$AAi?$AAs?$AAh?$AA?9?$AAv?$AAe?$AAn?$AAe?$AAz?$AAu?$AAe?$AAl?$AAa?$AA?$AA@ 10042630     LIBCMT:getqloc.obj
 0002:00008654       ??_C@_1CA@OBNMCGFO@?$AAs?$AAw?$AAe?$AAd?$AAi?$AAs?$AAh?$AA?9?$AAf?$AAi?$AAn?$AAl?$AAa?$AAn?$AAd?$AA?$AA@ 10042654     LIBCMT:getqloc.obj
 0002:00008674       ??_C@_1M@PIPDDPPI@?$AAs?$AAw?$AAi?$AAs?$AAs?$AA?$AA@ 10042674     LIBCMT:getqloc.obj
 0002:00008680       ??_C@_15GMFIMNFM@?$AAu?$AAs?$AA?$AA@ 10042680     LIBCMT:getqloc.obj
 0002:00008688       ??_C@_17HAEBFAGL@?$AAu?$AAs?$AAa?$AA?$AA@ 10042688     LIBCMT:getqloc.obj
 0002:00008690       ___rg_country              10042690     LIBCMT:getqloc.obj
 0002:000087a4       ??_C@_1BA@DPFJEPHB@?$AAa?$AAm?$AAe?$AAr?$AAi?$AAc?$AAa?$AA?$AA@ 100427a4     LIBCMT:getqloc.obj
 0002:000087b4       ??_C@_1BA@ELOGGFK@?$AAb?$AAr?$AAi?$AAt?$AAa?$AAi?$AAn?$AA?$AA@ 100427b4     LIBCMT:getqloc.obj
 0002:000087c4       ??_C@_1M@GHBGIGDA@?$AAc?$AAh?$AAi?$AAn?$AAa?$AA?$AA@ 100427c4     LIBCMT:getqloc.obj
 0002:000087d0       ??_C@_1M@NCHEJOPO@?$AAc?$AAz?$AAe?$AAc?$AAh?$AA?$AA@ 100427d0     LIBCMT:getqloc.obj
 0002:000087dc       ??_C@_1BA@BKPAPBLA@?$AAe?$AAn?$AAg?$AAl?$AAa?$AAn?$AAd?$AA?$AA@ 100427dc     LIBCMT:getqloc.obj
 0002:000087ec       ??_C@_1BM@HKBCKIPC@?$AAg?$AAr?$AAe?$AAa?$AAt?$AA?5?$AAb?$AAr?$AAi?$AAt?$AAa?$AAi?$AAn?$AA?$AA@ 100427ec     LIBCMT:getqloc.obj
 0002:00008808       ??_C@_1BA@PPCHPGJB@?$AAh?$AAo?$AAl?$AAl?$AAa?$AAn?$AAd?$AA?$AA@ 10042808     LIBCMT:getqloc.obj
 0002:00008818       ??_C@_1BE@JBMPEGDG@?$AAh?$AAo?$AAn?$AAg?$AA?9?$AAk?$AAo?$AAn?$AAg?$AA?$AA@ 10042818     LIBCMT:getqloc.obj
 0002:0000882c       ??_C@_1BI@KOELBBPJ@?$AAn?$AAe?$AAw?$AA?9?$AAz?$AAe?$AAa?$AAl?$AAa?$AAn?$AAd?$AA?$AA@ 1004282c     LIBCMT:getqloc.obj
 0002:00008844       ??_C@_15HIEBHAIO@?$AAn?$AAz?$AA?$AA@ 10042844     LIBCMT:getqloc.obj
 0002:0000884c       ??_C@_1BC@CHBCPFPI@?$AAp?$AAr?$AA?5?$AAc?$AAh?$AAi?$AAn?$AAa?$AA?$AA@ 1004284c     LIBCMT:getqloc.obj
 0002:00008860       ??_C@_1BC@JAOIIFKD@?$AAp?$AAr?$AA?9?$AAc?$AAh?$AAi?$AAn?$AAa?$AA?$AA@ 10042860     LIBCMT:getqloc.obj
 0002:00008874       ??_C@_1BI@BEHPPHKC@?$AAp?$AAu?$AAe?$AAr?$AAt?$AAo?$AA?9?$AAr?$AAi?$AAc?$AAo?$AA?$AA@ 10042874     LIBCMT:getqloc.obj
 0002:0000888c       ??_C@_1O@PAEOFKDI@?$AAs?$AAl?$AAo?$AAv?$AAa?$AAk?$AA?$AA@ 1004288c     LIBCMT:getqloc.obj
 0002:0000889c       ??_C@_1BK@FIHMCKAM@?$AAs?$AAo?$AAu?$AAt?$AAh?$AA?5?$AAa?$AAf?$AAr?$AAi?$AAc?$AAa?$AA?$AA@ 1004289c     LIBCMT:getqloc.obj
 0002:000088b8       ??_C@_1BI@NAEOODKB@?$AAs?$AAo?$AAu?$AAt?$AAh?$AA?5?$AAk?$AAo?$AAr?$AAe?$AAa?$AA?$AA@ 100428b8     LIBCMT:getqloc.obj
 0002:000088d0       ??_C@_1BK@FBDGGIFF@?$AAs?$AAo?$AAu?$AAt?$AAh?$AA?9?$AAa?$AAf?$AAr?$AAi?$AAc?$AAa?$AA?$AA@ 100428d0     LIBCMT:getqloc.obj
 0002:000088ec       ??_C@_1BI@GHLEJDPK@?$AAs?$AAo?$AAu?$AAt?$AAh?$AA?9?$AAk?$AAo?$AAr?$AAe?$AAa?$AA?$AA@ 100428ec     LIBCMT:getqloc.obj
 0002:00008904       ??_C@_1CE@PLHLOMJF@?$AAt?$AAr?$AAi?$AAn?$AAi?$AAd?$AAa?$AAd?$AA?5?$AA?$CG?$AA?5?$AAt?$AAo?$AAb?$AAa?$AAg?$AAo?$AA?$AA@ 10042904     LIBCMT:getqloc.obj
 0002:00008928       ??_C@_1BO@MODIMHHI@?$AAu?$AAn?$AAi?$AAt?$AAe?$AAd?$AA?9?$AAk?$AAi?$AAn?$AAg?$AAd?$AAo?$AAm?$AA?$AA@ 10042928     LIBCMT:getqloc.obj
 0002:00008948       ??_C@_1BM@FFHJONBJ@?$AAu?$AAn?$AAi?$AAt?$AAe?$AAd?$AA?9?$AAs?$AAt?$AAa?$AAt?$AAe?$AAs?$AA?$AA@ 10042948     LIBCMT:getqloc.obj
 0002:00008964       ___rg_language_count       10042964     LIBCMT:getqloc.obj
 0002:00008968       ___rg_country_count        10042968     LIBCMT:getqloc.obj
 0002:0000896c       ??_C@_17DNCLJFIF@?$AAA?$AAC?$AAP?$AA?$AA@ 1004296c     LIBCMT:getqloc.obj
 0002:00008974       ??_C@_17CIKBIHLH@?$AAO?$AAC?$AAP?$AA?$AA@ 10042974     LIBCMT:getqloc.obj
 0002:0000897c       ___rglangidNotDefault      1004297c     LIBCMT:getqloc_downlevel.obj
 0002:00008990       __real@00000000            10042990     LIBCMT:wcstoq.obj
 0002:00008998       __load_config_used         10042998     LIBCMT:loadcfg.obj
 0002:0000a060       ___safe_se_handler_table   10044060     <linker-defined>
 0002:0000a170       ___rtc_iaa                 10044170     LIBCMT:initsect.obj
 0002:0000a274       ___rtc_izz                 10044274     LIBCMT:initsect.obj
 0002:0000a378       ___rtc_taa                 10044378     LIBCMT:initsect.obj
 0002:0000a47c       ___rtc_tzz                 1004447c     LIBCMT:initsect.obj
 0003:00000088       _aa_P                      10046088     aa_data.obj
 0003:00000098       _pci20041digout            10046098     xpctarget.obj
 0003:0000009c       _nipcdio24cnfg             1004609c     xpctarget.obj
 0003:000000a0       _rtddm6604cnfg             100460a0     xpctarget.obj
 0003:000001c4       _DefaultCOMIOBase          100461c4     xpcruntime:xpcimports.obj
 0003:000001d4       _DefaultCOMIRQ             100461d4     xpcruntime:xpcimports.obj
 0003:000001f0       __fltused                  100461f0     LIBCMT:fpinit.obj
 0003:000001f4       __ldused                   100461f4     LIBCMT:fpinit.obj
 0003:00000200       __iob                      10046200     LIBCMT:_file.obj
 0003:00000480       ___isa_enabled             10046480     LIBCMT:cpu_disp.obj
 0003:00000484       ___security_cookie         10046484     LIBCMT:gs_cookie.obj
 0003:00000488       ___security_cookie_complement 10046488     LIBCMT:gs_cookie.obj
 0003:00000660       ___nullstring              10046660     LIBCMT:output.obj
 0003:00000664       ___wnullstring             10046664     LIBCMT:output.obj
 0003:00000670       __cfltcvt_tab              10046670     LIBCMT:cmiscdat.obj
 0003:000007c0       __mbctype                  100467c0     LIBCMT:mbctype.obj
 0003:000008c8       __mbcasemap                100468c8     LIBCMT:mbctype.obj
 0003:000009c8       ___initialmbcinfo          100469c8     LIBCMT:mbctype.obj
 0003:00000bec       ___ptmbcinfo               10046bec     LIBCMT:mbctype.obj
 0003:00000ce0       ___badioinfo               10046ce0     LIBCMT:ioinit.obj
 0003:00000d20       __lookuptrailbytes         10046d20     LIBCMT:read.obj
 0003:00000e20       __d_inf                    10046e20     LIBCMT:util.obj
 0003:00000e28       __d_ind                    10046e28     LIBCMT:util.obj
 0003:00000e30       __d_max                    10046e30     LIBCMT:util.obj
 0003:00000e38       __d_min                    10046e38     LIBCMT:util.obj
 0003:00000e40       __d_mzero                  10046e40     LIBCMT:util.obj
 0003:00000f4c       ___abort_behavior          10046f4c     LIBCMT:abort.obj
 0003:00000f50       ___flsindex                10046f50     LIBCMT:tidtable.obj
 0003:00000f60       ___mb_cur_max              10046f60     LIBCMT:nlsdata.obj
 0003:00000f64       ___wclocalestr             10046f64     LIBCMT:nlsdata.obj
 0003:00000f68       ___lc_time_c               10046f68     LIBCMT:nlsdata.obj
 0003:000010cc       ___ptlocinfo               100470cc     LIBCMT:nlsdata.obj
 0003:000010d0       ___initiallocinfo          100470d0     LIBCMT:nlsdata.obj
 0003:00001188       ___initiallocalestructinfo 10047188     LIBCMT:nlsdata.obj
 0003:00001190       ___globallocalestatus      10047190     LIBCMT:glstatus.obj
 0003:000011a0       __NLG_Destination          100471a0     LIBCMT:exsup.obj
 0003:000011b0       __matherr_flag             100471b0     LIBCMT:matherr.obj
 0003:000011b8       ___lconv                   100471b8     LIBCMT:lconv.obj
 0003:000011bc       ___lconv_static_decimal    100471bc     LIBCMT:lconv.obj
 0003:000011c0       ___lconv_c                 100471c0     LIBCMT:lconv.obj
 0003:00001210       ___lconv_static_W_decimal  10047210     LIBCMT:lconv.obj
 0003:00001214       __pctype                   10047214     LIBCMT:ctype.obj
 0003:00001218       __pwctype                  10047218     LIBCMT:ctype.obj
 0003:00001250       __confh                    10047250     LIBCMT:initcon.obj
 0003:00001258       __pow10pos                 10047258     LIBCMT:constpow.obj
 0003:000013b8       __pow10neg                 100473b8     LIBCMT:constpow.obj
 0003:00001520       __HUGE                     10047520     LIBCMT:huge.obj
 0003:00001a7c       ___isa_available_default   10047a7c     rt_logging.obj
 0003:00001a80       _pci20098PortA             10047a80     xpctarget.obj
 0003:00001a84       _pci20098PortB             10047a84     xpctarget.obj
 0003:00001a88       _siepowercan_firmware_initialized 10047a88     xpctarget.obj
 0003:00001a8c       _siepowercan_port1_configured 10047a8c     xpctarget.obj
 0003:00001a90       _siepowercan_port2_configured 10047a90     xpctarget.obj
 0003:00001a94       _CANAC2_FIRMWARE_LOADED    10047a94     xpctarget.obj
 0003:00001a98       _rs232ports                10047a98     xpctarget.obj
 0003:00001aa8       _NI_AT_MIO_16F_5_commreg2  10047aa8     xpctarget.obj
 0003:00001aac       _RTD_DM6430_init           10047aac     xpctarget.obj
 0003:00001ab0       _RTD_DM6420_init           10047ab0     xpctarget.obj
 0003:00001ab4       _CANAC2_FIRMWARE_LOADED_mb1 10047ab4     xpctarget.obj
 0003:00001ab8       _CANAC2_FIRMWARE_LOADED_mb2 10047ab8     xpctarget.obj
 0003:00001abc       _CANAC2_FIRMWARE_LOADED_mb3 10047abc     xpctarget.obj
 0003:00001ac0       _xmlsize                   10047ac0     xpctarget.obj
 0003:00001adc       ___fastflag                10047adc     LIBCMT:fpinit.obj
 0003:00001e00       __C_Exit_Done              10047e00     LIBCMT:crt0dat.obj
 0003:00001e04       ___argc                    10047e04     LIBCMT:crt0dat.obj
 0003:00001e08       ___argv                    10047e08     LIBCMT:crt0dat.obj
 0003:00001e0c       ___wargv                   10047e0c     LIBCMT:crt0dat.obj
 0003:00001e10       __environ                  10047e10     LIBCMT:crt0dat.obj
 0003:00001e14       __wenviron                 10047e14     LIBCMT:crt0dat.obj
 0003:00001e18       __pgmptr                   10047e18     LIBCMT:crt0dat.obj
 0003:00001e1c       __wpgmptr                  10047e1c     LIBCMT:crt0dat.obj
 0003:00001e20       __umaskval                 10047e20     LIBCMT:crt0dat.obj
 0003:00001e24       __exitflag                 10047e24     LIBCMT:crt0dat.obj
 0003:00001e28       __C_Termination_Done       10047e28     LIBCMT:crt0dat.obj
 0003:00001e2c       ___winitenv                10047e2c     LIBCMT:crt0dat.obj
 0003:00001e30       ___initenv                 10047e30     LIBCMT:crt0dat.obj
 0003:00001e34       __cflush                   10047e34     LIBCMT:_file.obj
 0003:00001e38       ___isa_available           10047e38     LIBCMT:cpu_disp.obj
 0003:00001e3c       ___favor                   10047e3c     LIBCMT:cpu_disp.obj
 0003:00001e44       __aenvptr                  10047e44     LIBCMT:dllcrt0.obj
 0003:00001e48       __wenvptr                  10047e48     LIBCMT:dllcrt0.obj
 0003:00001e4c       ?_pnhHeap@@3P6AHI@ZA       10047e4c     LIBCMT:handler.obj
 0003:00001e50       ___app_type                10047e50     LIBCMT:crt0msg.obj
 0003:00002480       __newmode                  10048480     LIBCMT:_newmode.obj
 0003:00002484       __crtheap                  10048484     LIBCMT:heapinit.obj
 0003:00002488       ___pInvalidArgHandler      10048488     LIBCMT:invarg.obj
 0003:0000248c       __stdbuf                   1004848c     LIBCMT:_sftbuf.obj
 0003:000025e8       __maxwait                  100485e8     LIBCMT:crtheap.obj
 0003:000025ec       ?__pInconsistency@@3P6AXXZA 100485ec     LIBCMT:hooks.obj
 0003:000025f0       ___pPurecall               100485f0     LIBCMT:inithelp.obj
 0003:0000260c       ___mbcodepage              1004860c     LIBCMT:mbctype.obj
 0003:00002610       ___ismbcodepage            10048610     LIBCMT:mbctype.obj
 0003:00002614       ___mbulinfo                10048614     LIBCMT:mbctype.obj
 0003:00002620       ___mblocalename            10048620     LIBCMT:mbctype.obj
 0003:00002628       ___pioinfo                 10048628     LIBCMT:ioinit.obj
 0003:00002728       ___error_mode              10048728     LIBCMT:errmode.obj
 0003:00002848       __outputformat             10048848     LIBCMT:outputformat.obj
 0003:00002850       __commode                  10048850     LIBCMT:ncommode.obj
 0003:00002854       ___lconv_static_null       10048854     LIBCMT:lconv.obj
 0003:00002858       ___lconv_static_W_null     10048858     LIBCMT:lconv.obj
 0003:0000285c       ___locale_changed          1004885c     LIBCMT:wsetloca.obj
 0003:00002860       __fmode                    10048860     LIBCMT:txtmode.obj
 0003:00002880       _CANAC2_2_receiveindex_mb3 10048880     <common>
 0003:00005954       _CANAC2_2_receivemaxindex_mb3 1004b954     <common>
 0003:00005960       _CANAC2_2_sendindex_mb3    1004b960     <common>
 0003:00005c80       _CANAC2_2_sendmaxindex_mb3 1004bc80     <common>
 0003:00005ca0       _CANAC2_1_receiveindex_mb3 1004bca0     <common>
 0003:00005fc0       _CANAC2_1_receivemaxindex_mb3 1004bfc0     <common>
 0003:00005fe0       _CANAC2_1_sendindex_mb3    1004bfe0     <common>
 0003:00006300       _CANAC2_1_sendmaxindex_mb3 1004c300     <common>
 0003:00006320       _CANAC2_2_receive_mb3      1004c320     <common>
 0003:00006640       _CANAC2_2_send_mb3         1004c640     <common>
 0003:00006960       _CANAC2_1_receive_mb3      1004c960     <common>
 0003:00006c80       _CANAC2_1_send_mb3         1004cc80     <common>
 0003:00006fa0       _CANAC2_2_receiveindex_mb2 1004cfa0     <common>
 0003:000072c0       _CANAC2_2_receivemaxindex_mb2 1004d2c0     <common>
 0003:000072e0       _CANAC2_2_sendindex_mb2    1004d2e0     <common>
 0003:00007600       _CANAC2_2_sendmaxindex_mb2 1004d600     <common>
 0003:00007620       _CANAC2_1_receiveindex_mb2 1004d620     <common>
 0003:00007940       _CANAC2_1_receivemaxindex_mb2 1004d940     <common>
 0003:00007960       _CANAC2_1_sendindex_mb2    1004d960     <common>
 0003:00007c80       _CANAC2_1_sendmaxindex_mb2 1004dc80     <common>
 0003:00007ca0       _CANAC2_2_receive_mb2      1004dca0     <common>
 0003:00007fc0       _CANAC2_2_send_mb2         1004dfc0     <common>
 0003:000082e0       _CANAC2_1_receive_mb2      1004e2e0     <common>
 0003:00008600       _CANAC2_1_send_mb2         1004e600     <common>
 0003:00008920       _CANAC2_2_receiveindex_mb1 1004e920     <common>
 0003:00008c40       _CANAC2_2_receivemaxindex_mb1 1004ec40     <common>
 0003:00008c60       _CANAC2_2_sendindex_mb1    1004ec60     <common>
 0003:00008f80       _CANAC2_2_sendmaxindex_mb1 1004ef80     <common>
 0003:00008fa0       _CANAC2_1_receiveindex_mb1 1004efa0     <common>
 0003:000092c0       _CANAC2_1_receivemaxindex_mb1 1004f2c0     <common>
 0003:000092e0       _CANAC2_1_sendindex_mb1    1004f2e0     <common>
 0003:00009600       _CANAC2_1_sendmaxindex_mb1 1004f600     <common>
 0003:00009620       _CANAC2_2_receive_mb1      1004f620     <common>
 0003:00009940       _CANAC2_2_send_mb1         1004f940     <common>
 0003:00009c60       _CANAC2_1_receive_mb1      1004fc60     <common>
 0003:00009f80       _CANAC2_1_send_mb1         1004ff80     <common>
 0003:0000a2a0       _CANAC2_2_receiveindex     100502a0     <common>
 0003:0000a5c0       _CANAC2_2_receivemaxindex  100505c0     <common>
 0003:0000a5e0       _CANAC2_2_sendindex        100505e0     <common>
 0003:0000a900       _CANAC2_2_sendmaxindex     10050900     <common>
 0003:0000a920       _CANAC2_1_receiveindex     10050920     <common>
 0003:0000ac40       _CANAC2_1_receivemaxindex  10050c40     <common>
 0003:0000ac60       _CANAC2_1_sendindex        10050c60     <common>
 0003:0000af80       _CANAC2_1_sendmaxindex     10050f80     <common>
 0003:0000afa0       _CANAC2_2_receive          10050fa0     <common>
 0003:0000b2c0       _CANAC2_2_send             100512c0     <common>
 0003:0000b5e0       _CANAC2_1_receive          100515e0     <common>
 0003:0000b900       _CANAC2_1_send             10051900     <common>
 0003:0000bc20       _siepowercan_can_object_buffer_port2 10051c20     <common>
 0003:0000fc40       _siepowercan_can_object_buffer_port1 10055c40     <common>
 0003:00013c40       _rtNaNF                    10059c40     <common>
 0003:00013c54       _rtMinusInfF               10059c54     <common>
 0003:00013c58       _rtInfF                    10059c58     <common>
 0003:00013c60       _rtNaN                     10059c60     <common>
 0003:00013c68       _rtMinusInf                10059c68     <common>
 0003:00013c70       _rtInf                     10059c70     <common>
 0003:00013c80       _aa_M_                     10059c80     <common>
 0003:00013f64       _aa_DW                     10059f64     <common>
 0003:00013f68       _aa_B                      10059f68     <common>
 0003:00013f70       _GetVideoConfigs           10059f70     <common>
 0003:00013fd0       _FindUsbVideoDevice        10059fd0     <common>
 0003:00013fd4       _xpceDeleteSemaphore       10059fd4     <common>
 0003:00013fd8       _xpceSignalSemaphore       10059fd8     <common>
 0003:00013fdc       _xpceWaitSemaphore         10059fdc     <common>
 0003:00013fe0       _xpceCreateSemaphore       10059fe0     <common>
 0003:00013fe4       _TBGiveSpinFast            10059fe4     <common>
 0003:00013fe8       _TBTakeSpinFast            10059fe8     <common>
 0003:00013fec       _TBDeleteSpin              10059fec     <common>
 0003:00013ff0       _TBCreateSpin              10059ff0     <common>
 0003:00013ff4       _xpceScopeAcqOK            10059ff4     <common>
 0003:00013ff8       _rl32eRestartAcquisition   10059ff8     <common>
 0003:00013ffc       _rl32eSetTargetScopeSigFt  10059ffc     <common>
 0003:00014000       _rl32eSetTargetScope       1005a000     <common>
 0003:00014004       _xpceFSScopeSet            1005a004     <common>
 0003:00014008       _rl32eSetScope             1005a008     <common>
 0003:0001400c       _rl32eAddSignal            1005a00c     <common>
 0003:00014010       _rl32eGetSignalNo          1005a010     <common>
 0003:00014014       _rl32eDefScope             1005a014     <common>
 0003:00014018       _rl32eScopeExists          1005a018     <common>
 0003:0001401c       _xpceGetParamDims          1005a01c     <common>
 0003:00014020       _xpceGetParameter          1005a020     <common>
 0003:00014024       _xpceSetParameter          1005a024     <common>
 0003:00014028       _xpceGetSignalValue        1005a028     <common>
 0003:0001402c       _xpceAssignPCIInterrupt    1005a02c     <common>
 0003:00014030       _rl32eGetPCIInfoAtSlot     1005a030     <common>
 0003:00014034       _rl32eGetPCIInfo           1005a034     <common>
 0003:00014038       _rl32eShowPCIInfo          1005a038     <common>
 0003:0001403c       _rl32eShowPCIDev           1005a03c     <common>
 0003:00014040       _xpceGetTET                1005a040     <common>
 0003:00014044       _xpceaddEvent              1005a044     <common>
 0003:00014048       _xpceDeRegisterISR         1005a048     <common>
 0003:0001404c       _xpceRegisterISR           1005a04c     <common>
 0003:00014050       _xpcIsModelInit            1005a050     <common>
 0003:00014054       _xpcGetElapsedTime         1005a054     <common>
 0003:00014058       _xpcBusyWait               1005a058     <common>
 0003:0001405c       _xpcFreePhysicalMemory     1005a05c     <common>
 0003:00014060       _xpcAllocPhysicalMemory    1005a060     <common>
 0003:00014064       _xpcReserveMemoryRegion    1005a064     <common>
 0003:00014068       _xpcOutpB                  1005a068     <common>
 0003:0001406c       _xpcOutpW                  1005a06c     <common>
 0003:00014070       _xpcOutpDW                 1005a070     <common>
 0003:00014074       _xpcInpB                   1005a074     <common>
 0003:00014078       _xpcInpW                   1005a078     <common>
 0003:0001407c       _xpcInpDW                  1005a07c     <common>
 0003:00014080       _socket                    1005a080     <common>
 0003:00014084       _inet_addr                 1005a084     <common>
 0003:00014088       _sendto                    1005a088     <common>
 0003:0001408c       _recvfrom                  1005a08c     <common>
 0003:00014090       _listen                    1005a090     <common>
 0003:00014094       _ioctlsocket               1005a094     <common>
 0003:00014098       _connect                   1005a098     <common>
 0003:0001409c       _closesocket               1005a09c     <common>
 0003:000140a0       _setsockopt                1005a0a0     <common>
 0003:000140a4       _bind                      1005a0a4     <common>
 0003:000140a8       _accept                    1005a0a8     <common>
 0003:000140ac       _GetHostTarIPAdd           1005a0ac     <common>
 0003:000140b0       _GetDCUUsage               1005a0b0     <common>
 0003:000140b4       _DeleteRoute               1005a0b4     <common>
 0003:000140b8       _AddGatewayRoute           1005a0b8     <common>
 0003:000140bc       _SetIP                     1005a0bc     <common>
 0003:000140c0       _CloseInterface            1005a0c0     <common>
 0003:000140c4       _OpenInterface             1005a0c4     <common>
 0003:000140c8       _SetIPTASKPriority         1005a0c8     <common>
 0003:000140cc       _isUsedByRTIP              1005a0cc     <common>
 0003:000140d0       _getlasterror              1005a0d0     <common>
 0003:000140d4       _slrtfsGetFileStatus       1005a0d4     <common>
 0003:000140d8       _slrtfsOpenFileAsync       1005a0d8     <common>
 0003:000140dc       _slrtfsCloseFileAsync      1005a0dc     <common>
 0003:000140e0       _slrtfsGetFileErrorMessage 1005a0e0     <common>
 0003:000140e4       _slrtfsGetFileError        1005a0e4     <common>
 0003:000140e8       _slrtfsWriteToFile         1005a0e8     <common>
 0003:000140ec       _slrtfsCloseFile           1005a0ec     <common>
 0003:000140f0       _slrtfsOpenFile            1005a0f0     <common>
 0003:000140f4       _slrtGetSgCRBSpace         1005a0f4     <common>
 0003:000140f8       _slrtGetCRBScratchSpace    1005a0f8     <common>
 0003:000140fc       _slrteSetupMSI             1005a0fc     <common>
 0003:00014100       _slTestRegAssessment       1005a100     <common>
 0003:00014104       _slTestTerminate           1005a104     <common>
 0003:00014108       _slTestEvalOnFail          1005a108     <common>
 0003:0001410c       _slTestLogAssessments      1005a10c     <common>
 0003:00014110       _slTestInitialize          1005a110     <common>
 0003:00014114       _unRegisterPTPTimeRead     1005a114     <common>
 0003:00014118       _registerPTPTimeRead       1005a118     <common>
 0003:0001411c       _slrteGetCurrentStepSize   1005a11c     <common>
 0003:00014120       _slrteSetStepSizeDelta     1005a120     <common>
 0003:00014124       _xpceGetIntTimerGranularityNS 1005a124     <common>
 0003:00014128       _sendToAsyncQueueTgtAppSvc 1005a128     <common>
 0003:0001412c       _terminateToAsyncQueueTgtAppSvc 1005a12c     <common>
 0003:00014130       _startToAsyncQueueTgtAppSvc 1005a130     <common>
 0003:00014134       _getStatusFlags            1005a134     <common>
 0003:00014138       _getCommService            1005a138     <common>
 0003:0001413c       _getMemoryService          1005a13c     <common>
 0003:00014140       _StreamVideo               1005a140     <common>
 0003:00014144       _StopVideoDisplay          1005a144     <common>
 0003:00014148       _StartVideoDisplay         1005a148     <common>
 0003:0001414c       _DestroyVideoDisplay       1005a14c     <common>
 0003:00014150       _CreateVideoDisplay        1005a150     <common>
 0003:00014154       _ConvertUImage             1005a154     <common>
 0003:00014158       _StopVideo                 1005a158     <common>
 0003:0001415c       _ReadFrameBuffer           1005a15c     <common>
 0003:00014160       _StartVideo                1005a160     <common>
 0003:00014164       ___unguarded_readlc_active 1005a164     <common>
 0003:00014174       ___setlc_active            1005a174     <common>
 0003:00014178       __nhandle                  1005a178     <common>
 0003:000141a0       _encodedKERNEL32Functions  1005a1a0     <common>
 0003:00014248       __debugger_hook_dummy      1005a248     <common>
 0003:00014254       __pDestructExceptionObject 1005a254     <common>
 0003:00014260       __acmdln                   1005a260     <common>
 0003:00014280       __bufin                    1005a280     <common>
 0003:000155bc       ___piob                    1005b5bc     <common>
 0003:000155c0       __nstream                  1005b5c0     <common>
 0003:000155c4       ___dyn_tls_init_callback   1005b5c4     <common>
 0003:000155d4       ___onexitend               1005b5d4     <common>
 0003:000155d8       ___onexitbegin             1005b5d8     <common>
 0003:000155dc       ___mbctype_initialized     1005b5dc     <common>
 0003:000155e0       ___env_initialized         1005b5e0     <common>
 0004:00000000       __imp__GetModuleHandleA@4  1005c000     kernel32:KERNEL32.dll
 0004:00000004       __imp__GetProcAddress@8    1005c004     kernel32:KERNEL32.dll
 0004:00000008       __imp__HeapAlloc@12        1005c008     kernel32:KERNEL32.dll
 0004:0000000c       __imp__IsDebuggerPresent@0 1005c00c     kernel32:KERNEL32.dll
 0004:00000010       __imp__IsProcessorFeaturePresent@4 1005c010     kernel32:KERNEL32.dll
 0004:00000014       __imp__EncodePointer@4     1005c014     kernel32:KERNEL32.dll
 0004:00000018       __imp__DecodePointer@4     1005c018     kernel32:KERNEL32.dll
 0004:0000001c       __imp__GetLastError@0      1005c01c     kernel32:KERNEL32.dll
 0004:00000020       __imp__ExitProcess@4       1005c020     kernel32:KERNEL32.dll
 0004:00000024       __imp__GetModuleHandleExW@12 1005c024     kernel32:KERNEL32.dll
 0004:00000028       __imp__AreFileApisANSI@0   1005c028     kernel32:KERNEL32.dll
 0004:0000002c       __imp__MultiByteToWideChar@24 1005c02c     kernel32:KERNEL32.dll
 0004:00000030       __imp__WideCharToMultiByte@32 1005c030     kernel32:KERNEL32.dll
 0004:00000034       __imp__HeapFree@12         1005c034     kernel32:KERNEL32.dll
 0004:00000038       __imp__HeapReAlloc@16      1005c038     kernel32:KERNEL32.dll
 0004:0000003c       __imp__EnterCriticalSection@4 1005c03c     kernel32:KERNEL32.dll
 0004:00000040       __imp__LeaveCriticalSection@4 1005c040     kernel32:KERNEL32.dll
 0004:00000044       __imp__GetStdHandle@4      1005c044     kernel32:KERNEL32.dll
 0004:00000048       __imp__GetFileType@4       1005c048     kernel32:KERNEL32.dll
 0004:0000004c       __imp__GetModuleFileNameW@12 1005c04c     kernel32:KERNEL32.dll
 0004:00000050       __imp__WriteConsoleW@20    1005c050     kernel32:KERNEL32.dll
 0004:00000054       __imp__GetCommandLineA@0   1005c054     kernel32:KERNEL32.dll
 0004:00000058       __imp__GetCurrentThreadId@0 1005c058     kernel32:KERNEL32.dll
 0004:0000005c       __imp__WriteFile@20        1005c05c     kernel32:KERNEL32.dll
 0004:00000060       __imp__GetProcessHeap@0    1005c060     kernel32:KERNEL32.dll
 0004:00000064       __imp__UnhandledExceptionFilter@4 1005c064     kernel32:KERNEL32.dll
 0004:00000068       __imp__SetUnhandledExceptionFilter@4 1005c068     kernel32:KERNEL32.dll
 0004:0000006c       __imp__SetLastError@4      1005c06c     kernel32:KERNEL32.dll
 0004:00000070       __imp__InitializeCriticalSectionAndSpinCount@8 1005c070     kernel32:KERNEL32.dll
 0004:00000074       __imp__CreateEventW@16     1005c074     kernel32:KERNEL32.dll
 0004:00000078       __imp__Sleep@4             1005c078     kernel32:KERNEL32.dll
 0004:0000007c       __imp__GetCurrentProcess@0 1005c07c     kernel32:KERNEL32.dll
 0004:00000080       __imp__TerminateProcess@8  1005c080     kernel32:KERNEL32.dll
 0004:00000084       __imp__TlsAlloc@0          1005c084     kernel32:KERNEL32.dll
 0004:00000088       __imp__TlsGetValue@4       1005c088     kernel32:KERNEL32.dll
 0004:0000008c       __imp__TlsSetValue@8       1005c08c     kernel32:KERNEL32.dll
 0004:00000090       __imp__TlsFree@4           1005c090     kernel32:KERNEL32.dll
 0004:00000094       __imp__GetStartupInfoW@4   1005c094     kernel32:KERNEL32.dll
 0004:00000098       __imp__GetTickCount@0      1005c098     kernel32:KERNEL32.dll
 0004:0000009c       __imp__GetModuleHandleW@4  1005c09c     kernel32:KERNEL32.dll
 0004:000000a0       __imp__CreateSemaphoreW@16 1005c0a0     kernel32:KERNEL32.dll
 0004:000000a4       __imp__DeleteCriticalSection@4 1005c0a4     kernel32:KERNEL32.dll
 0004:000000a8       __imp__FatalAppExitA@8     1005c0a8     kernel32:KERNEL32.dll
 0004:000000ac       __imp__SetConsoleCtrlHandler@8 1005c0ac     kernel32:KERNEL32.dll
 0004:000000b0       __imp__FreeLibrary@4       1005c0b0     kernel32:KERNEL32.dll
 0004:000000b4       __imp__LoadLibraryExW@12   1005c0b4     kernel32:KERNEL32.dll
 0004:000000b8       __imp__IsValidCodePage@4   1005c0b8     kernel32:KERNEL32.dll
 0004:000000bc       __imp__GetACP@0            1005c0bc     kernel32:KERNEL32.dll
 0004:000000c0       __imp__GetOEMCP@0          1005c0c0     kernel32:KERNEL32.dll
 0004:000000c4       __imp__GetCPInfo@8         1005c0c4     kernel32:KERNEL32.dll
 0004:000000c8       __imp__CloseHandle@4       1005c0c8     kernel32:KERNEL32.dll
 0004:000000cc       __imp__RtlUnwind@16        1005c0cc     kernel32:KERNEL32.dll
 0004:000000d0       __imp__ReadFile@20         1005c0d0     kernel32:KERNEL32.dll
 0004:000000d4       __imp__GetConsoleMode@8    1005c0d4     kernel32:KERNEL32.dll
 0004:000000d8       __imp__ReadConsoleW@20     1005c0d8     kernel32:KERNEL32.dll
 0004:000000dc       __imp__GetConsoleCP@0      1005c0dc     kernel32:KERNEL32.dll
 0004:000000e0       __imp__DeleteFileW@4       1005c0e0     kernel32:KERNEL32.dll
 0004:000000e4       __imp__SetFilePointerEx@20 1005c0e4     kernel32:KERNEL32.dll
 0004:000000e8       __imp__RaiseException@16   1005c0e8     kernel32:KERNEL32.dll
 0004:000000ec       __imp__OutputDebugStringW@4 1005c0ec     kernel32:KERNEL32.dll
 0004:000000f0       __imp__GetCurrentThread@0  1005c0f0     kernel32:KERNEL32.dll
 0004:000000f4       __imp__GetModuleFileNameA@12 1005c0f4     kernel32:KERNEL32.dll
 0004:000000f8       __imp__QueryPerformanceCounter@4 1005c0f8     kernel32:KERNEL32.dll
 0004:000000fc       __imp__GetCurrentProcessId@0 1005c0fc     kernel32:KERNEL32.dll
 0004:00000100       __imp__GetSystemTimeAsFileTime@4 1005c100     kernel32:KERNEL32.dll
 0004:00000104       __imp__GetEnvironmentStringsW@0 1005c104     kernel32:KERNEL32.dll
 0004:00000108       __imp__FreeEnvironmentStringsW@4 1005c108     kernel32:KERNEL32.dll
 0004:0000010c       __imp__HeapSize@12         1005c10c     kernel32:KERNEL32.dll
 0004:00000110       __imp__GetDateFormatW@24   1005c110     kernel32:KERNEL32.dll
 0004:00000114       __imp__GetTimeFormatW@24   1005c114     kernel32:KERNEL32.dll
 0004:00000118       __imp__CompareStringW@24   1005c118     kernel32:KERNEL32.dll
 0004:0000011c       __imp__LCMapStringW@24     1005c11c     kernel32:KERNEL32.dll
 0004:00000120       __imp__GetLocaleInfoW@16   1005c120     kernel32:KERNEL32.dll
 0004:00000124       __imp__IsValidLocale@8     1005c124     kernel32:KERNEL32.dll
 0004:00000128       __imp__GetUserDefaultLCID@0 1005c128     kernel32:KERNEL32.dll
 0004:0000012c       __imp__EnumSystemLocalesW@8 1005c12c     kernel32:KERNEL32.dll
 0004:00000130       __imp__GetStringTypeW@16   1005c130     kernel32:KERNEL32.dll
 0004:00000134       __imp__FlushFileBuffers@4  1005c134     kernel32:KERNEL32.dll
 0004:00000138       __imp__SetStdHandle@8      1005c138     kernel32:KERNEL32.dll
 0004:0000013c       __imp__CreateFileW@28      1005c13c     kernel32:KERNEL32.dll
 0004:00000140       __imp__SetEndOfFile@4      1005c140     kernel32:KERNEL32.dll
 0004:00000144       \177KERNEL32_NULL_THUNK_DATA 1005c144     kernel32:KERNEL32.dll
 0004:000001b0       __IMPORT_DESCRIPTOR_KERNEL32 1005c1b0     kernel32:KERNEL32.dll
 0004:000001c4       __NULL_IMPORT_DESCRIPTOR   1005c1c4     kernel32:KERNEL32.dll
