 aaaqi_xpc

 Timestamp is 609bb927 (Wed May 12 19:16:55 2021)

 Preferred load address is 10000000

 Start         Length     Name                   Class
 0001:00000000 0000df20H .text                   CODE
 0001:0000df20 000715eaH .text$mn                CODE
 0002:00000000 00000104H .CRT$XCA                DATA
 0002:00000104 00000104H .CRT$XCZ                DATA
 0002:00000208 00000104H .CRT$XIA                DATA
 0002:0000030c 00000110H .CRT$XIC                DATA
 0002:0000041c 00000104H .CRT$XIZ                DATA
 0002:00000520 00000104H .CRT$XPA                DATA
 0002:00000624 0000010cH .CRT$XPX                DATA
 0002:00000730 00000104H .CRT$XPXA               DATA
 0002:00000834 00000104H .CRT$XPZ                DATA
 0002:00000938 00000104H .CRT$XTA                DATA
 0002:00000a3c 00000104H .CRT$XTZ                DATA
 0002:00000b40 0002730cH .rdata                  DATA
 0002:00027e4c 00000394H .rdata$r                DATA
 0002:000281e0 00000110H .rdata$sxdata           DATA
 0002:000282f0 00000188H .rdata$zzzdbg           DATA
 0002:00028478 00000104H .rtc$IAA                DATA
 0002:0002857c 00000104H .rtc$IZZ                DATA
 0002:00028680 00000104H .rtc$TAA                DATA
 0002:00028784 00000104H .rtc$TZZ                DATA
 0002:00028888 00000ac8H .xdata$x                DATA
 0002:00029350 000001dcH .edata                  DATA
 0003:00000000 00011c48H .data                   DATA
 0003:00011c48 000001d8H .data$r                 DATA
 0003:00011e20 0001c134H .bss                    DATA
 0004:00000000 000001f4H .idata$5                DATA
 0004:000001f4 00000014H .idata$2                DATA
 0004:00000208 00000014H .idata$3                DATA
 0004:0000021c 000001f4H .idata$4                DATA
 0004:00000410 000008b1H .idata$6                DATA
 0005:00000000 00000224H .gfids$x                DATA
 0005:00000224 000001a5H .gfids$y                DATA
 0006:00000000 00000104H .00cfg                  DATA

  Address         Publics by Value              Rva+Base       Lib:Object

 0000:00000000       ___guard_iat_count         00000000     <absolute>
 0000:00000000       ___guard_iat_table         00000000     <absolute>
 0000:00000000       ___guard_fids_table        00000000     <absolute>
 0000:00000000       __except_list              00000000     <absolute>
 0000:00000000       ___guard_fids_count        00000000     <absolute>
 0000:00000000       ___dynamic_value_reloc_table 00000000     <absolute>
 0000:00000000       ___guard_longjmp_count     00000000     <absolute>
 0000:00000000       ___guard_longjmp_table     00000000     <absolute>
 0000:00000003       ___safe_se_handler_count   00000003     <absolute>
 0000:00000100       ___guard_flags             00000100     <absolute>
 0000:00000000       ___ImageBase               10000000     <linker-defined>
 0001:00006400       _CANPC_define_cyclic2_mbx  10007400 f   xpccanac2pci_vc:card_can_mbx.obj
 0001:000064b0       _CANPC_define_cyclic_mbx   100074b0 f   xpccanac2pci_vc:card_can_mbx.obj
 0001:00006560       _CANPC_define_object2_mbx  10007560 f   xpccanac2pci_vc:card_can_mbx.obj
 0001:000066f0       _CANPC_define_object_mbx   100076f0 f   xpccanac2pci_vc:card_can_mbx.obj
 0001:00006880       _CANPC_enable_dde_check_mbx 10007880 f   xpccanac2pci_vc:card_can_mbx.obj
 0001:000069e0       _CANPC_enable_dyn_obj_buf_mbx 100079e0 f   xpccanac2pci_vc:card_can_mbx.obj
 0001:00006ae0       _CANPC_enable_error_frame_detection_mbx 10007ae0 f   xpccanac2pci_vc:card_can_mbx.obj
 0001:00006ba0       _CANPC_enable_fifo_mbx     10007ba0 f   xpccanac2pci_vc:card_can_mbx.obj
 0001:00006c90       _CANPC_enable_fifo_transmit_ack2_mbx 10007c90 f   xpccanac2pci_vc:card_can_mbx.obj
 0001:00006d00       _CANPC_enable_fifo_transmit_ack_mbx 10007d00 f   xpccanac2pci_vc:card_can_mbx.obj
 0001:00006d70       _CANPC_enable_ivm_check_mbx 10007d70 f   xpccanac2pci_vc:card_can_mbx.obj
 0001:00006ed0       _CANPC_enable_j1939_check_mbx 10007ed0 f   xpccanac2pci_vc:card_can_mbx.obj
 0001:00007030       _CANPC_enable_timestamps_mb 10008030 f   xpccanac2pci_vc:card_can_mbx.obj
 0001:00007040       _CANPC_get_bus_state_mbx   10008040 f   xpccanac2pci_vc:card_can_mbx.obj
 0001:00007070       _CANPC_get_device_id_mbx   10008070 f   xpccanac2pci_vc:card_can_mbx.obj
 0001:000070a0       _CANPC_get_serial_number_mbx 100080a0 f   xpccanac2pci_vc:card_can_mbx.obj
 0001:00007140       _CANPC_get_time1_mbx       10008140 f   xpccanac2pci_vc:card_can_mbx.obj
 0001:00007440       _CANPC_get_time2_mbx       10008440 f   xpccanac2pci_vc:card_can_mbx.obj
 0001:00007740       _CANPC_get_trigger2_mb     10008740 f   xpccanac2pci_vc:card_can_mbx.obj
 0001:00007750       _CANPC_get_trigger_mb      10008750 f   xpccanac2pci_vc:card_can_mbx.obj
 0001:00007760       _CANPC_get_version_mbx     10008760 f   xpccanac2pci_vc:card_can_mbx.obj
 0001:00007840       _CANPC_init_signals_mbx    10008840 f   xpccanac2pci_vc:card_can_mbx.obj
 0001:00007a90       _CANPC_initialize_chip2_mbx 10008a90 f   xpccanac2pci_vc:card_can_mbx.obj
 0001:00007be0       _CANPC_initialize_chip_mbx 10008be0 f   xpccanac2pci_vc:card_can_mbx.obj
 0001:00007d30       _CANPC_initialize_interface_mbx 10008d30 f   xpccanac2pci_vc:card_can_mbx.obj
 0001:00007fb0       _CANPC_optimize_rcv_speed_mb 10008fb0 f   xpccanac2pci_vc:card_can_mbx.obj
 0001:00007fc0       _CANPC_read_ac1_mbx        10008fc0 f   xpccanac2pci_vc:card_can_mbx.obj
 0001:00008e80       _CANPC_read_ac2_mbx        10009e80 f   xpccanac2pci_vc:card_can_mbx.obj
 0001:00009d50       _CANPC_read_rcv_data2_mbx  1000ad50 f   xpccanac2pci_vc:card_can_mbx.obj
 0001:00009f00       _CANPC_read_rcv_data_mbx   1000af00 f   xpccanac2pci_vc:card_can_mbx.obj
 0001:0000a0b0       _CANPC_read_rcv_fifo_level1_mbx 1000b0b0 f   xpccanac2pci_vc:card_can_mbx.obj
 0001:0000a130       _CANPC_read_rcv_fifo_level2_mbx 1000b130 f   xpccanac2pci_vc:card_can_mbx.obj
 0001:0000a1b0       _CANPC_read_signals1_mbx   1000b1b0 f   xpccanac2pci_vc:card_can_mbx.obj
 0001:0000a2b0       _CANPC_read_signals2_mbx   1000b2b0 f   xpccanac2pci_vc:card_can_mbx.obj
 0001:0000a3b0       _CANPC_read_xmt_data2_mbx  1000b3b0 f   xpccanac2pci_vc:card_can_mbx.obj
 0001:0000a470       _CANPC_read_xmt_data_mbx   1000b470 f   xpccanac2pci_vc:card_can_mbx.obj
 0001:0000a530       _CANPC_read_xmt_fifo_level1_mbx 1000b530 f   xpccanac2pci_vc:card_can_mbx.obj
 0001:0000a5b0       _CANPC_read_xmt_fifo_level2_mbx 1000b5b0 f   xpccanac2pci_vc:card_can_mbx.obj
 0001:0000a630       _CANPC_reinitialize_mbx    1000b630 f   xpccanac2pci_vc:card_can_mbx.obj
 0001:0000a680       _CANPC_reset_board_mbx     1000b680 f   xpccanac2pci_vc:card_can_mbx.obj
 0001:0000a770       _CANPC_reset_chip_mbx      1000b770 f   xpccanac2pci_vc:card_can_mbx.obj
 0001:0000a8c0       _CANPC_reset_lost_msg_counter_mbx 1000b8c0 f   xpccanac2pci_vc:card_can_mbx.obj
 0001:0000a900       _CANPC_reset_rcv_fifo_mbx  1000b900 f   xpccanac2pci_vc:card_can_mbx.obj
 0001:0000a9c0       _CANPC_reset_xmt_fifo_mbx  1000b9c0 f   xpccanac2pci_vc:card_can_mbx.obj
 0001:0000aa90       _CANPC_send_data2_mbx      1000ba90 f   xpccanac2pci_vc:card_can_mbx.obj
 0001:0000ab50       _CANPC_send_data_mbx       1000bb50 f   xpccanac2pci_vc:card_can_mbx.obj
 0001:0000ac10       _CANPC_send_object2_mbx    1000bc10 f   xpccanac2pci_vc:card_can_mbx.obj
 0001:0000aca0       _CANPC_send_object_mbx     1000bca0 f   xpccanac2pci_vc:card_can_mbx.obj
 0001:0000ad30       _CANPC_send_remote2_mbx    1000bd30 f   xpccanac2pci_vc:card_can_mbx.obj
 0001:0000add0       _CANPC_send_remote_mbx     1000bdd0 f   xpccanac2pci_vc:card_can_mbx.obj
 0001:0000ae70       _CANPC_send_remote_object2_mbx 1000be70 f   xpccanac2pci_vc:card_can_mbx.obj
 0001:0000af00       _CANPC_send_remote_object_mbx 1000bf00 f   xpccanac2pci_vc:card_can_mbx.obj
 0001:0000af90       _CANPC_set_acceptance2_mbx 1000bf90 f   xpccanac2pci_vc:card_can_mbx.obj
 0001:0000b070       _CANPC_set_acceptance_mbx  1000c070 f   xpccanac2pci_vc:card_can_mbx.obj
 0001:0000b150       _CANPC_set_irq_number_mbx  1000c150 f   xpccanac2pci_vc:card_can_mbx.obj
 0001:0000b230       _CANPC_set_mode2_mbx       1000c230 f   xpccanac2pci_vc:card_can_mbx.obj
 0001:0000b2c0       _CANPC_set_mode_mbx        1000c2c0 f   xpccanac2pci_vc:card_can_mbx.obj
 0001:0000b350       _CANPC_set_output_control2_mbx 1000c350 f   xpccanac2pci_vc:card_can_mbx.obj
 0001:0000b450       _CANPC_set_output_control_mbx 1000c450 f   xpccanac2pci_vc:card_can_mbx.obj
 0001:0000b570       _CANPC_set_path_mb         1000c570 f   xpccanac2pci_vc:card_can_mbx.obj
 0001:0000b5f0       _CANPC_set_trigger2_mbx    1000c5f0 f   xpccanac2pci_vc:card_can_mbx.obj
 0001:0000b670       _CANPC_set_trigger_mbx     1000c670 f   xpccanac2pci_vc:card_can_mbx.obj
 0001:0000b6f0       _CANPC_start_chip_mbx      1000c6f0 f   xpccanac2pci_vc:card_can_mbx.obj
 0001:0000b7e0       _CANPC_supply_object_data2_mbx 1000c7e0 f   xpccanac2pci_vc:card_can_mbx.obj
 0001:0000b8a0       _CANPC_supply_object_data_mbx 1000c8a0 f   xpccanac2pci_vc:card_can_mbx.obj
 0001:0000b960       _CANPC_supply_rcv_object_data2_mbx 1000c960 f   xpccanac2pci_vc:card_can_mbx.obj
 0001:0000ba20       _CANPC_supply_rcv_object_data_mbx 1000ca20 f   xpccanac2pci_vc:card_can_mbx.obj
 0001:0000bae0       _CANPC_synch_communication_mbx 1000cae0 f   xpccanac2pci_vc:card_can_mbx.obj
 0001:0000bc00       _CANPC_write_object2_mbx   1000cc00 f   xpccanac2pci_vc:card_can_mbx.obj
 0001:0000bcc0       _CANPC_write_object_mbx    1000ccc0 f   xpccanac2pci_vc:card_can_mbx.obj
 0001:0000bd80       _CANPC_write_signals1_mbx  1000cd80 f   xpccanac2pci_vc:card_can_mbx.obj
 0001:0000bed0       _CANPC_write_signals2_mbx  1000ced0 f   xpccanac2pci_vc:card_can_mbx.obj
 0001:0000c020       _LoaderPrintMsgCallBack_mb 1000d020 f   xpccanac2pci_vc:card_can_mbx.obj
 0001:0000c030       _wait_for_handshake_mbx    1000d030 f   xpccanac2pci_vc:card_can_mbx.obj
 0001:0000c0d0       _INIPC_close_board_mbx     1000d0d0 f   xpccanac2pci_vc:card_ini_mbx.obj
 0001:0000c100       _INIPC_initialize_board_mbx 1000d100 f   xpccanac2pci_vc:card_ini_mbx.obj
 0001:0000c250       _CS_EnableInterrupt_mbx    1000d250 f   xpccanac2pci_vc:devacc32_mbx.obj
 0001:0000c2c0       _CS_InitCnfReg_mbx         1000d2c0 f   xpccanac2pci_vc:devacc32_mbx.obj
 0001:0000c330       _CS_SetCanCardReset_mbx    1000d330 f   xpccanac2pci_vc:devacc32_mbx.obj
 0001:0000c3a0       _CloseCANDevice_mbx        1000d3a0 f   xpccanac2pci_vc:devacc32_mbx.obj
 0001:0000c3f0       _GetAssignedIRQ_Nr_mbx     1000d3f0 f   xpccanac2pci_vc:devacc32_mbx.obj
 0001:0000c440       _GetDeviceId_mbx           1000d440 f   xpccanac2pci_vc:devacc32_mbx.obj
 0001:0000c480       _GetDeviceLoadDataPointer_mbx 1000d480 f   xpccanac2pci_vc:devacc32_mbx.obj
 0001:0000c4d0       _GetSBNBufAppDataFileName_mbx 1000d4d0 f   xpccanac2pci_vc:devacc32_mbx.obj
 0001:0000c520       _GetSBNBufAppDataPointer_mbx 1000d520 f   xpccanac2pci_vc:devacc32_mbx.obj
 0001:0000c570       _GetSBNBufBootDataFileName_mbx 1000d570 f   xpccanac2pci_vc:devacc32_mbx.obj
 0001:0000c5c0       _GetSBNBufBootDataPointer_mbx 1000d5c0 f   xpccanac2pci_vc:devacc32_mbx.obj
 0001:0000c610       _GetSBNBufIniFileName_mbx  1000d610 f   xpccanac2pci_vc:devacc32_mbx.obj
 0001:0000c660       _GetSBNBufLoadDataFileName_mbx 1000d660 f   xpccanac2pci_vc:devacc32_mbx.obj
 0001:0000c6b0       _GetSBNBufLoadDataPointer_mbx 1000d6b0 f   xpccanac2pci_vc:devacc32_mbx.obj
 0001:0000c700       _GetTimeStampType_mbx      1000d700 f   xpccanac2pci_vc:devacc32_mbx.obj
 0001:0000c750       _Init_devacc32             1000d750 f   xpccanac2pci_vc:devacc32_mbx.obj
 0001:0000c8f0       _OpenCANDevice_mbx         1000d8f0 f   xpccanac2pci_vc:devacc32_mbx.obj
 0001:0000ca30       _PnPFreePhysAccess_mbx     1000da30 f   xpccanac2pci_vc:devacc32_mbx.obj
 0001:0000ca80       _PnPGetPhysAccess_mbx      1000da80 f   xpccanac2pci_vc:devacc32_mbx.obj
 0001:0000cb10       _ReturnErrorCode_mb        1000db10 f   xpccanac2pci_vc:devacc32_mbx.obj
 0001:0000cd50       _pciEnableInterrupt_mbx    1000dd50 f   xpccanac2pci_vc:devacc32_mbx.obj
 0001:0000ce00       _pcireset_mbx              1000de00 f   xpccanac2pci_vc:devacc32_mbx.obj
 0001:0000cea0       _GetAttributeMemoryPtr_mbx 1000dea0 f   xpccanac2pci_vc:loadcard_mbx.obj
 0001:0000cec0       _GetDPRAMPtr_mbx           1000dec0 f   xpccanac2pci_vc:loadcard_mbx.obj
 0001:0000cee0       _GetINIData_mbx            1000dee0 f   xpccanac2pci_vc:loadcard_mbx.obj
 0001:0000cf70       _GetINI_IRQ_Nr_mbx         1000df70 f   xpccanac2pci_vc:loadcard_mbx.obj
 0001:0000cf90       _GetINI_Socket_Nr_mbx      1000df90 f   xpccanac2pci_vc:loadcard_mbx.obj
 0001:0000d400       _LCInitialization_mbx      1000e400 f   xpccanac2pci_vc:loadcard_mbx.obj
 0001:0000da10       _LCSBNFileToDPRAM_mbx      1000ea10 f   xpccanac2pci_vc:loadcard_mbx.obj
 0001:0000dc30       _LoadCard_mbx              1000ec30 f   xpccanac2pci_vc:loadcard_mbx.obj
 0001:0000dce0       _ReadInitialization_mbx    1000ece0 f   xpccanac2pci_vc:loadcard_mbx.obj
 0001:0000dcf0       _SetINIData_mbx            1000ecf0 f   xpccanac2pci_vc:loadcard_mbx.obj
 0001:0000dd40       _SetINI_IRQ_Nr_mbx         1000ed40 f   xpccanac2pci_vc:loadcard_mbx.obj
 0001:0000dd60       _fmemcmp_byte_mb           1000ed60 f   xpccanac2pci_vc:loadcard_mbx.obj
 0001:0000ddc0       _fmemcpy_byte_mb           1000edc0 f   xpccanac2pci_vc:loadcard_mbx.obj
 0001:0000ddf0       _noprintf_mb               1000edf0 f   xpccanac2pci_vc:loadcard_mbx.obj
 0001:0000de00       _ReadSBINRecordFromBuffer_mb 1000ee00 f   xpccanac2pci_vc:sbn_buf_mbx.obj
 0001:0000df20       _MdlInitialize             1000ef20 f   aaaqi.obj
 0001:0000df30       _MdlInitializeSampleTimes  1000ef30 f   aaaqi.obj
 0001:0000df40       _MdlInitializeSizes        1000ef40 f   aaaqi.obj
 0001:0000df50       _MdlOutputs                1000ef50 f   aaaqi.obj
 0001:0000df60       _MdlStart                  1000ef60 f   aaaqi.obj
 0001:0000df70       _MdlTerminate              1000ef70 f   aaaqi.obj
 0001:0000dfd0       _MdlUpdate                 1000efd0 f   aaaqi.obj
 0001:0000dfe0       ___local_stdio_printf_options 1000efe0 f i aaaqi.obj
 0001:0000dff0       __vfprintf_l               1000eff0 f i aaaqi.obj
 0001:0000e020       _aaaqi                     1000f020 f   aaaqi.obj
 0001:0000fa10       _aaaqi_Chart1              10010a10 f   aaaqi.obj
 0001:0000fb00       _aaaqi_Chart1_Init         10010b00 f   aaaqi.obj
 0001:00011880       _aaaqi_Subsystem4          10012880 f   aaaqi.obj
 0001:000118d0       _aaaqi_Subsystem4_Init     100128d0 f   aaaqi.obj
 0001:0001fdb0       _look1_binlxpw             10020db0 f   aaaqi.obj
 0001:0001fe90       _printf                    10020e90 f i aaaqi.obj
 0001:0001fed0       _rt_powd_snf               10020ed0 f   aaaqi.obj
 0001:00020150       _aaaqi_GetCAPIStaticMap    10021150 f   aaaqi_capi.obj
 0001:00020160       _aaaqi_InitializeDataMapInfo 10021160 f   aaaqi_capi.obj
 0001:000201f0       _rtGetInf                  100211f0 f   rtGetInf.obj
 0001:00020220       _rtGetInfF                 10021220 f   rtGetInf.obj
 0001:00020240       _rtGetMinusInf             10021240 f   rtGetInf.obj
 0001:00020270       _rtGetMinusInfF            10021270 f   rtGetInf.obj
 0001:00020290       _rtGetNaN                  10021290 f   rtGetNaN.obj
 0001:000202c0       _rtGetNaNF                 100212c0 f   rtGetNaN.obj
 0001:000202e0       __vsnprintf_l              100212e0 f i rt_logging.obj
 0001:00020320       __vsprintf_l               10021320 f i rt_logging.obj
 0001:00020360       _fprintf                   10021360 f i rt_logging.obj
 0001:00020c70       _rt_CreateLogVar           10021c70 f   rt_logging.obj
 0001:00020d00       _rt_CreateLogVarWithConvert 10021d00 f   rt_logging.obj
 0001:00021680       _rt_CreateStructLogVar     10022680 f   rt_logging.obj
 0001:000223e0       _rt_GetMxIdFromDTypeId     100233e0 f   rt_logging.obj
 0001:00022410       _rt_GetMxIdFromDTypeIdForRSim 10023410 f   rt_logging.obj
 0001:00024ce0       _rt_StartDataLogging       10025ce0 f   rt_logging.obj
 0001:000251a0       _rt_StartDataLoggingWithStartTime 100261a0 f   rt_logging.obj
 0001:00025b00       _rt_StopDataLogging        10026b00 f   rt_logging.obj
 0001:00025b20       _rt_StopDataLoggingImpl    10026b20 f   rt_logging.obj
 0001:00025e50       _rt_UpdateLogVar           10026e50 f   rt_logging.obj
 0001:00026f70       _rt_UpdateStructLogVar     10027f70 f   rt_logging.obj
 0001:00027000       _rt_UpdateTXXFYLogVars     10028000 f   rt_logging.obj
 0001:00027330       _rt_UpdateTXYLogVars       10028330 f   rt_logging.obj
 0001:00027580       _sprintf                   10028580 f i rt_logging.obj
 0001:000275c0       _rt_CleanUpForStateLogWithMMI 100285c0 f   rt_logging_mmi.obj
 0001:000276d0       _rt_FillStateSigInfoFromMMI 100286d0 f   rt_logging_mmi.obj
 0001:00027a70       _rt_mxCreateCharMatrixFromStrings 10028a70 f   rt_matrx.obj
 0001:00027bd0       _rt_mxCreateDoubleMatrix   10028bd0 f   rt_matrx.obj
 0001:00027c30       _rt_mxCreateNumericArray   10028c30 f   rt_matrx.obj
 0001:00027cb0       _rt_mxCreateString         10028cb0 f   rt_matrx.obj
 0001:00027d40       _rt_mxDuplicateArray       10028d40 f   rt_matrx.obj
 0001:00027da0       _rt_mxGetDimensions        10028da0 f   rt_matrx.obj
 0001:00027de0       _rt_mxGetEps               10028de0 f   rt_matrx.obj
 0001:00027df0       _rt_mxGetString            10028df0 f   rt_matrx.obj
 0001:00027e70       _rtIsInf                   10028e70 f   rt_nonfinite.obj
 0001:00027eb0       _rtIsInfF                  10028eb0 f   rt_nonfinite.obj
 0001:00027ef0       _rtIsNaN                   10028ef0 f   rt_nonfinite.obj
 0001:00027f10       _rtIsNaNF                  10028f10 f   rt_nonfinite.obj
 0001:00027f30       _rt_InitInfAndNaN          10028f30 f   rt_nonfinite.obj
 0001:00027f90       _rtPrintfNoOp              10028f90 f   rt_printf.obj
 0001:00027fa0       _rtwCAPI_CountSysRan       10028fa0 f   rtw_modelmap_utils.obj
 0001:00028040       _rtwCAPI_EncodePath        10029040 f   rtw_modelmap_utils.obj
 0001:00028140       _rtwCAPI_FillSysRan        10029140 f   rtw_modelmap_utils.obj
 0001:00028230       _rtwCAPI_FreeFullPaths     10029230 f   rtw_modelmap_utils.obj
 0001:000282c0       _rtwCAPI_GetFullStateBlockPath 100292c0 f   rtw_modelmap_utils.obj
 0001:00028470       _rtwCAPI_GetNumContStateRecords 10029470 f   rtw_modelmap_utils.obj
 0001:00028530       _rtwCAPI_GetNumSigLogRecords 10029530 f   rtw_modelmap_utils.obj
 0001:00028580       _rtwCAPI_GetNumSigLogRecordsForRTWLogging 10029580 f   rtw_modelmap_utils.obj
 0001:00028620       _rtwCAPI_GetNumStateRecords 10029620 f   rtw_modelmap_utils.obj
 0001:00028670       _rtwCAPI_GetNumStateRecordsForRTWLogging 10029670 f   rtw_modelmap_utils.obj
 0001:00028710       _rtwCAPI_GetSigAddrFromMap 10029710 f   rtw_modelmap_utils.obj
 0001:000287d0       _rtwCAPI_GetSigLogRecordInfo 100297d0 f   rtw_modelmap_utils.obj
 0001:00028c00       _rtwCAPI_GetStateRecordInfo 10029c00 f   rtw_modelmap_utils.obj
 0001:000290b0       _rtwCAPI_GetStateWidth     1002a0b0 f   rtw_modelmap_utils.obj
 0001:00029110       _rtwCAPI_HasStates         1002a110 f   rtw_modelmap_utils.obj
 0001:00029180       _rtwCAPI_UpdateFullPaths   1002a180 f   rtw_modelmap_utils.obj
 0001:00029360       _DllMain@12                1002a360 f   xpctarget.obj
 0001:00029370       _SLRTSetErrorStatus        1002a370 f   xpctarget.obj
 0001:00029390       _aaaqi_ChangeStepSize      1002a390 f   xpctarget.obj
 0001:00029400       _changeStepSize            1002a400 f   xpctarget.obj
 0001:00029470       _getDLMVersion             1002a470 f   xpctarget.obj
 0001:00029480       _getRefMdlPath             1002a480 f   xpctarget.obj
 0001:00029500       _getRefMdlSignalNumber     1002a500 f   xpctarget.obj
 0001:000295b0       _getrlmdlinfo              1002a5b0 f   xpctarget.obj
 0001:00029790       _updateDiscreteEvents      1002a790 f   xpctarget.obj
 0001:000297a0       _getNumRef                 1002a7a0 f   appmappingData.obj
 0001:000297b0       _vprintf                   1002a7b0 f i legacy_stdio.obj
 0001:000297f0       _adpci_1784                1002a7f0 f   adpci_1784.obj
 0001:0002a8b0       _canac2pcisetupx           1002b8b0 f   canac2pcisetupx.obj
 0001:0002b550       _da6208                    1002c550 f   da6208.obj
 0001:0002c700       _pci1716DIO                1002d700 f   pci1716DIO.obj
 0001:0002c760       _restoreInterrupts         1002d760 f   xpcruntime:xpcPCFunctions.obj
 0001:0002c770       _rl32eGetTicksDouble       1002d770 f   xpcruntime:xpcPCFunctions.obj
 0001:0002c7f0       _saveAndDisableInterrupts  1002d7f0 f   xpcruntime:xpcPCFunctions.obj
 0001:0002c810       _xPCSubtractTime           1002d810 f   xpcruntime:xpcPCFunctions.obj
 0001:0002c840       _xpcSubtractTime           1002d840 f   xpcruntime:xpcPCFunctions.obj
 0001:0002c920       _GetPCIDeviceFull          1002d920 f   xpcruntime:xpcimports.obj
 0001:0002c960       _ShowPCIDevice             1002d960 f   xpcruntime:xpcimports.obj
 0001:0002d120       _xpcGetPciConfigAtSlot     1002e120 f   xpcruntime:xpcimports.obj
 0001:0002d430       _xpcInitProcs              1002e430 f   xpcruntime:xpcimports.obj
 0001:0002e540       _xpceuploadevent           1002f540 f   xpcruntime:xpcimports.obj
 0001:0002e541       @__security_check_cookie@4 1002f541 f   LIBCMT:_secchk_.obj
 0001:0002e556       ___raise_securityfailure   1002f556 f   LIBCMT:gs_report.obj
 0001:0002e588       ___report_gsfailure        1002f588 f   LIBCMT:gs_report.obj
 0001:0002e6c1       ___report_rangecheckfailure 1002f6c1 f   LIBCMT:gs_report.obj
 0001:0002e6d0       ___report_securityfailure  1002f6d0 f   LIBCMT:gs_report.obj
 0001:0002e7d4       ___report_securityfailureEx 1002f7d4 f   LIBCMT:gs_report.obj
 0001:0002e930       __ftoui3                   1002f930 f   LIBCMT:_ftol3_.obj
 0001:0002e93f       __ftoul3                   1002f93f f   LIBCMT:_ftol3_.obj
 0001:0002e94e       __ftol3                    1002f94e f   LIBCMT:_ftol3_.obj
 0001:0002e95b       __ftol3_NaN                1002f95b f   LIBCMT:_ftol3_.obj
 0001:0002e973       __ftol3_work               1002f973 f   LIBCMT:_ftol3_.obj
 0001:0002e9f9       __ftol3_common             1002f9f9 f   LIBCMT:_ftol3_.obj
 0001:0002eabb       __ftol3_arg_error          1002fabb f   LIBCMT:_ftol3_.obj
 0001:0002eacd       __ftol3_except             1002facd f   LIBCMT:_ftol3_.obj
 0001:0002eb11       __dtoui3                   1002fb11 f   LIBCMT:_ftol3_.obj
 0001:0002eb20       __dtoul3                   1002fb20 f   LIBCMT:_ftol3_.obj
 0001:0002eb2f       __dtol3                    1002fb2f f   LIBCMT:_ftol3_.obj
 0001:0002eb3c       __dtol3_NaN                1002fb3c f   LIBCMT:_ftol3_.obj
 0001:0002eb59       __dtol3_work               1002fb59 f   LIBCMT:_ftol3_.obj
 0001:0002ec40       __ultod3                   1002fc40 f   LIBCMT:_ftol3_.obj
 0001:0002ec80       __ltod3                    1002fc80 f   LIBCMT:_ftol3_.obj
 0001:0002ed84       ___isa_available_init      1002fd84 f   LIBCMT:_cpu_disp_.obj
 0001:0002f34c       __CRT_INIT@12              1003034c f   LIBCMT:dll_dllmain.obj
 0001:0002f357       __DllMainCRTStartup@12     10030357 f   LIBCMT:dll_dllmain.obj
 0001:0002f382       ??$__crt_fast_decode_pointer@PAP6AXXZ@@YAPAP6AXXZQAP6AXXZ@Z 10030382 f i LIBCMT:utility.obj
 0001:0002f39b       ??$__crt_fast_encode_pointer@PAP6AXXZ@@YAPAP6AXXZQAP6AXXZ@Z 1003039b f i LIBCMT:utility.obj
 0001:0002f3bf       ?__crt_rotate_pointer_value@@YAIIH@Z 100303bf f i LIBCMT:utility.obj
 0001:0002f3cf       ?configure_argv@__scrt_narrow_argv_policy@@SAHXZ 100303cf f i LIBCMT:utility.obj
 0001:0002f473       _NtCurrentTeb              10030473 f i LIBCMT:utility.obj
 0001:0002f47a       ___scrt_acquire_startup_lock 1003047a f   LIBCMT:utility.obj
 0001:0002f4bc       ___scrt_dllmain_after_initialize_c 100304bc f   LIBCMT:utility.obj
 0001:0002f4f1       ___scrt_dllmain_before_initialize_c 100304f1 f   LIBCMT:utility.obj
 0001:0002f502       ___scrt_dllmain_crt_thread_attach 10030502 f   LIBCMT:utility.obj
 0001:0002f528       ___scrt_dllmain_crt_thread_detach 10030528 f   LIBCMT:utility.obj
 0001:0002f538       ___scrt_dllmain_exception_filter 10030538 f   LIBCMT:utility.obj
 0001:0002f577       ___scrt_dllmain_uninitialize_c 10030577 f   LIBCMT:utility.obj
 0001:0002f5a2       ___scrt_dllmain_uninitialize_critical 100305a2 f   LIBCMT:utility.obj
 0001:0002f5b2       ___scrt_initialize_crt     100305b2 f   LIBCMT:utility.obj
 0001:0002f5f9       ___scrt_initialize_onexit_tables 100305f9 f   LIBCMT:utility.obj
 0001:0002f6b5       ___scrt_is_nonwritable_in_current_image 100306b5 f   LIBCMT:utility.obj
 0001:0002f761       ___scrt_release_startup_lock 10030761 f   LIBCMT:utility.obj
 0001:0002f785       ___scrt_uninitialize_crt   10030785 f   LIBCMT:utility.obj
 0001:0002f7b7       __onexit                   100307b7 f   LIBCMT:utility.obj
 0001:0002f800       _at_quick_exit             10030800 f   LIBCMT:utility.obj
 0001:0002f83d       _atexit                    1003083d f   LIBCMT:utility.obj
 0001:0002f857       ___security_init_cookie    10030857 f   LIBCMT:gs_support.obj
 0001:0002f91a       ?__scrt_initialize_type_info@@YAXXZ 1003091a f   LIBCMT:tncleanup.obj
 0001:0002f929       ?__scrt_uninitialize_type_info@@YAXXZ 10030929 f   LIBCMT:tncleanup.obj
 0001:0002f938       ___local_stdio_scanf_options 10030938 f i LIBCMT:default_local_stdio_options.obj
 0001:0002f93e       ___scrt_initialize_default_local_stdio_options 1003093e f   LIBCMT:default_local_stdio_options.obj
 0001:0002f962       ___scrt_get_dyn_tls_init_callback 10030962 f   LIBCMT:dyn_tls_init.obj
 0001:0002f968       ___scrt_fastfail           10030968 f   LIBCMT:utility_desktop.obj
 0001:0002fac9       ___scrt_get_show_window_mode 10030ac9 f   LIBCMT:utility_desktop.obj
 0001:0002fb08       ___scrt_initialize_winrt   10030b08 f   LIBCMT:utility_desktop.obj
 0001:0002fb0b       ___scrt_is_managed_app     10030b0b f   LIBCMT:utility_desktop.obj
 0001:0002fb60       ___scrt_set_unhandled_exception_filter 10030b60 f   LIBCMT:utility_desktop.obj
 0001:0002fb6f       ___scrt_unhandled_exception_filter@4 10030b6f f   LIBCMT:utility_desktop.obj
 0001:0002fbc0       __crt_debugger_hook        10030bc0 f   LIBCMT:utility_desktop.obj
 0001:0002fbca       __RTC_Initialize           10030bca f   LIBCMT:_initsect_.obj
 0001:0002fbff       __RTC_Terminate            10030bff f   LIBCMT:_initsect_.obj
 0001:0002fc34       @_guard_check_icall@4      10030c34 f i LIBCMT:checkcfg.obj
 0001:0002fc40       __SEH_prolog4              10030c40 f   LIBCMT:_sehprolg4_.obj
 0001:0002fc86       __SEH_epilog4              10030c86 f   LIBCMT:_sehprolg4_.obj
 0001:0002fcb1       __get_startup_argv_mode    10030cb1 f   LIBCMT:argv_mode.obj
 0001:0002fcb5       ___scrt_is_ucrt_dll_in_use 10030cb5 f   LIBCMT:ucrt_detection.obj
 0001:0002fcc4       @_guard_check_icall_nop@4  10030cc4 f i LIBCMT:guard_support.obj
 0001:0002fcc5       __guard_icall_checks_enforced 10030cc5 f i LIBCMT:guard_support.obj
 0001:0002fcdc       _GetModuleHandleA@4        10030cdc f   kernel32:KERNEL32.dll
 0001:0002fce2       _GetProcAddress@8          10030ce2 f   kernel32:KERNEL32.dll
 0001:0002fce8       _CloseHandle@4             10030ce8 f   kernel32:KERNEL32.dll
 0001:0002fcee       _ReleaseSemaphore@12       10030cee f   kernel32:KERNEL32.dll
 0001:0002fcf4       _WaitForSingleObject@8     10030cf4 f   kernel32:KERNEL32.dll
 0001:0002fcfa       _Sleep@4                   10030cfa f   kernel32:KERNEL32.dll
 0001:0002fd00       _CreateThread@24           10030d00 f   kernel32:KERNEL32.dll
 0001:0002fd06       _TerminateThread@8         10030d06 f   kernel32:KERNEL32.dll
 0001:0002fd0c       _GetSystemTimeAsFileTime@4 10030d0c f   kernel32:KERNEL32.dll
 0001:0002fd12       _CreateSemaphoreA@16       10030d12 f   kernel32:KERNEL32.dll
 0001:0002fd18       _lstrlenA@4                10030d18 f   kernel32:KERNEL32.dll
 0001:0002fd1e       _UnhandledExceptionFilter@4 10030d1e f   kernel32:KERNEL32.dll
 0001:0002fd24       _SetUnhandledExceptionFilter@4 10030d24 f   kernel32:KERNEL32.dll
 0001:0002fd2a       _GetCurrentProcess@0       10030d2a f   kernel32:KERNEL32.dll
 0001:0002fd30       _TerminateProcess@8        10030d30 f   kernel32:KERNEL32.dll
 0001:0002fd36       _IsProcessorFeaturePresent@4 10030d36 f   kernel32:KERNEL32.dll
 0001:0002fd3c       _QueryPerformanceCounter@4 10030d3c f   kernel32:KERNEL32.dll
 0001:0002fd42       _GetCurrentProcessId@0     10030d42 f   kernel32:KERNEL32.dll
 0001:0002fd48       _GetCurrentThreadId@0      10030d48 f   kernel32:KERNEL32.dll
 0001:0002fd4e       _InitializeSListHead@4     10030d4e f   kernel32:KERNEL32.dll
 0001:0002fd54       _IsDebuggerPresent@0       10030d54 f   kernel32:KERNEL32.dll
 0001:0002fd5a       _GetStartupInfoW@4         10030d5a f   kernel32:KERNEL32.dll
 0001:0002fd60       _GetModuleHandleW@4        10030d60 f   kernel32:KERNEL32.dll
 0001:0002fd70       _memset                    10030d70 f   libvcruntime:memset.obj
 0001:0002ff20       _memmove                   10030f20 f   libvcruntime:memmove.obj
 0001:00030600       _strchr                    10031600 f   libvcruntime:strchr.obj
 0001:0003066e       ___from_strstr_to_strchr   1003166e     libvcruntime:strchr.obj
 0001:00030780       _memcpy                    10031780 f   libvcruntime:memcpy.obj
 0001:00030ea0       __except_handler4          10031ea0 f   libvcruntime:_chandler4_.obj
 0001:0003105f       ___vcrt_initialize         1003205f f   libvcruntime:initialization.obj
 0001:00031092       ___vcrt_thread_attach      10032092 f   libvcruntime:initialization.obj
 0001:0003109f       ___vcrt_thread_detach      1003209f f   libvcruntime:initialization.obj
 0001:000310ac       ___vcrt_uninitialize       100320ac f   libvcruntime:initialization.obj
 0001:000310d2       ___vcrt_uninitialize_critical 100320d2 f   libvcruntime:initialization.obj
 0001:000310ed       ??$?RD@__crt_internal_free_policy@@QBEXQBD@Z 100320ed f i libvcruntime:std_type_info.obj
 0001:00031101       ??$?RX@__crt_internal_free_policy@@QBEXQBX@Z 10032101 f i libvcruntime:std_type_info.obj
 0001:00031115       ??$__crt_interlocked_compare_exchange_pointer@$$CBD$$T$$T@@YAPBDPDSBD$$T1@Z 10032115 f i libvcruntime:std_type_info.obj
 0001:0003112b       ??$__crt_interlocked_compare_exchange_pointer@$$CBDPAD$$T@@YAPBDPDSBDQAD$$T@Z 1003212b f i libvcruntime:std_type_info.obj
 0001:00031141       ??$__crt_interlocked_read_pointer@$$CBD@@YAPBDPDSBD@Z 10032141 f i libvcruntime:std_type_info.obj
 0001:00031155       ??0?$__crt_unique_heap_ptr@DU__crt_internal_free_policy@@@@QAE@QAD@Z 10032155 f i libvcruntime:std_type_info.obj
 0001:00031166       ??0?$__crt_unique_heap_ptr@XU__crt_internal_free_policy@@@@QAE@QAX@Z 10032166 f i libvcruntime:std_type_info.obj
 0001:00031177       ??1?$__crt_unique_heap_ptr@DU__crt_internal_free_policy@@@@QAE@XZ 10032177 f i libvcruntime:std_type_info.obj
 0001:0003118b       ??1?$__crt_unique_heap_ptr@XU__crt_internal_free_policy@@@@QAE@XZ 1003218b f i libvcruntime:std_type_info.obj
 0001:000311ab       ??B?$__crt_unique_heap_ptr@DU__crt_internal_free_policy@@@@QBE_NXZ 100321ab f i libvcruntime:std_type_info.obj
 0001:000311b2       ??B?$__crt_unique_heap_ptr@XU__crt_internal_free_policy@@@@QBE_NXZ 100321b2 f i libvcruntime:std_type_info.obj
 0001:000311e1       ?detach@?$__crt_unique_heap_ptr@XU__crt_internal_free_policy@@@@QAEPAXXZ 100321e1 f i libvcruntime:std_type_info.obj
 0001:000311e7       ?get@?$__crt_unique_heap_ptr@DU__crt_internal_free_policy@@@@QBEPADXZ 100321e7 f i libvcruntime:std_type_info.obj
 0001:000311ea       ?get@?$__crt_unique_heap_ptr@XU__crt_internal_free_policy@@@@QBEPAXXZ 100321ea f i libvcruntime:std_type_info.obj
 0001:000311ed       ?is_valid@?$__crt_unique_heap_ptr@DU__crt_internal_free_policy@@@@QBE_NXZ 100321ed f i libvcruntime:std_type_info.obj
 0001:000311f4       ?is_valid@?$__crt_unique_heap_ptr@XU__crt_internal_free_policy@@@@QBE_NXZ 100321f4 f i libvcruntime:std_type_info.obj
 0001:000311fb       ?release@?$__crt_unique_heap_ptr@DU__crt_internal_free_policy@@@@QAEXXZ 100321fb f i libvcruntime:std_type_info.obj
 0001:0003120f       ?release@?$__crt_unique_heap_ptr@XU__crt_internal_free_policy@@@@QAEXXZ 1003220f f i libvcruntime:std_type_info.obj
 0001:00031223       ___std_type_info_compare   10032223 f   libvcruntime:std_type_info.obj
 0001:0003126e       ___std_type_info_destroy_list 1003226e f   libvcruntime:std_type_info.obj
 0001:00031299       ___std_type_info_hash      10032299 f   libvcruntime:std_type_info.obj
 0001:000312c8       ___std_type_info_name      100322c8 f   libvcruntime:std_type_info.obj
 0001:000313d0       __local_unwind4            100323d0 f   libvcruntime:_exsup4_.obj
 0001:000314a6       __seh_longjmp_unwind4@4    100324a6 f   libvcruntime:_exsup4_.obj
 0001:000314ce       @_EH4_CallFilterFunc@8     100324ce f   libvcruntime:_exsup4_.obj
 0001:000314e5       @_EH4_TransferToHandler@8  100324e5 f   libvcruntime:_exsup4_.obj
 0001:000314fe       @_EH4_GlobalUnwind2@8      100324fe f   libvcruntime:_exsup4_.obj
 0001:00031517       @_EH4_LocalUnwind@16       10032517 f   libvcruntime:_exsup4_.obj
 0001:00031585       ___except_validate_context_record 10032585 f   libvcruntime:jbcxrval.obj
 0001:00031586       ___except_validate_jump_buffer 10032586 f   libvcruntime:jbcxrval.obj
 0001:00031587       ??$?RU__vcrt_ptd@@@__crt_internal_free_policy@@QBEXQBU__vcrt_ptd@@@Z 10032587 f i libvcruntime:per_thread_data.obj
 0001:0003159b       ??0?$__crt_unique_heap_ptr@U__vcrt_ptd@@U__crt_internal_free_policy@@@@QAE@QAU__vcrt_ptd@@@Z 1003259b f i libvcruntime:per_thread_data.obj
 0001:000315be       ??1?$__crt_unique_heap_ptr@U__vcrt_ptd@@U__crt_internal_free_policy@@@@QAE@XZ 100325be f i libvcruntime:per_thread_data.obj
 0001:000315dd       ??B?$__crt_unique_heap_ptr@U__vcrt_ptd@@U__crt_internal_free_policy@@@@QBE_NXZ 100325dd f i libvcruntime:per_thread_data.obj
 0001:000315e4       ?detach@?$__crt_unique_heap_ptr@U__vcrt_ptd@@U__crt_internal_free_policy@@@@QAEPAU__vcrt_ptd@@XZ 100325e4 f i libvcruntime:per_thread_data.obj
 0001:000315ea       ?get@?$__crt_unique_heap_ptr@U__vcrt_ptd@@U__crt_internal_free_policy@@@@QBEPAU__vcrt_ptd@@XZ 100325ea f i libvcruntime:per_thread_data.obj
 0001:000315ed       ?is_valid@?$__crt_unique_heap_ptr@U__vcrt_ptd@@U__crt_internal_free_policy@@@@QBE_NXZ 100325ed f i libvcruntime:per_thread_data.obj
 0001:000315f4       ?release@?$__crt_unique_heap_ptr@U__vcrt_ptd@@U__crt_internal_free_policy@@@@QAEXXZ 100325f4 f i libvcruntime:per_thread_data.obj
 0001:00031628       ___vcrt_freefls@4          10032628 f   libvcruntime:per_thread_data.obj
 0001:0003164b       ___vcrt_freeptd            1003264b f   libvcruntime:per_thread_data.obj
 0001:0003168e       ___vcrt_getptd             1003268e f   libvcruntime:per_thread_data.obj
 0001:0003169f       ___vcrt_getptd_noexit      1003269f f   libvcruntime:per_thread_data.obj
 0001:00031755       ___vcrt_initialize_ptd     10032755 f   libvcruntime:per_thread_data.obj
 0001:00031794       ___vcrt_uninitialize_ptd   10032794 f   libvcruntime:per_thread_data.obj
 0001:000317b5       ___vcrt_initialize_locks   100327b5 f   libvcruntime:locks.obj
 0001:00031800       ___vcrt_lock               10032800 f   libvcruntime:locks.obj
 0001:0003181a       ___vcrt_uninitialize_locks 1003281a f   libvcruntime:locks.obj
 0001:00031854       ___vcrt_unlock             10032854 f   libvcruntime:locks.obj
 0001:0003186e       ??$?BX@__crt_fast_encoded_nullptr_t@@QBEPAXXZ 1003286e f i libvcruntime:winapi_downlevel.obj
 0001:0003188c       ??$__crt_fast_decode_pointer@PAX@@YAPAXQAX@Z 1003288c f i libvcruntime:winapi_downlevel.obj
 0001:000318a5       ??$__crt_fast_encode_pointer@PAX@@YAPAXQAX@Z 100328a5 f i libvcruntime:winapi_downlevel.obj
 0001:000318c9       ??$__crt_interlocked_compare_exchange_pointer@UHINSTANCE__@@$$T$$T@@YAPAUHINSTANCE__@@PDSAU0@$$T1@Z 100328c9 f i libvcruntime:winapi_downlevel.obj
 0001:000318df       ??$__crt_interlocked_compare_exchange_pointer@X$$T$$T@@YAPAXPDSAX$$T1@Z 100328df f i libvcruntime:winapi_downlevel.obj
 0001:000318f5       ??$__crt_interlocked_exchange_pointer@UHINSTANCE__@@PAU1@@@YAPAUHINSTANCE__@@PDSAU0@QAU0@@Z 100328f5 f i libvcruntime:winapi_downlevel.obj
 0001:00031905       ??$__crt_interlocked_exchange_pointer@UHINSTANCE__@@PAX@@YAPAUHINSTANCE__@@PDSAU0@QAX@Z 10032905 f i libvcruntime:winapi_downlevel.obj
 0001:00031915       ??$__crt_interlocked_exchange_pointer@XPAX@@YAPAXPDSAXQAX@Z 10032915 f i libvcruntime:winapi_downlevel.obj
 0001:00031925       ??$__crt_interlocked_read_pointer@UHINSTANCE__@@@@YAPAUHINSTANCE__@@PDSAU0@@Z 10032925 f i libvcruntime:winapi_downlevel.obj
 0001:00031939       ??$__crt_interlocked_read_pointer@X@@YAPAXPDSAX@Z 10032939 f i libvcruntime:winapi_downlevel.obj
 0001:0003194d       ?__crt_fast_encode_pointer@@YA?AU__crt_fast_encoded_nullptr_t@@$$T@Z 1003294d f i libvcruntime:winapi_downlevel.obj
 0001:00031c91       ___vcrt_EventRegister      10032c91 f   libvcruntime:winapi_downlevel.obj
 0001:00031ce1       ___vcrt_EventSetInformation 10032ce1 f   libvcruntime:winapi_downlevel.obj
 0001:00031d34       ___vcrt_EventUnregister    10032d34 f   libvcruntime:winapi_downlevel.obj
 0001:00031d7c       ___vcrt_EventWriteTransfer 10032d7c f   libvcruntime:winapi_downlevel.obj
 0001:00031dd7       ___vcrt_FlsAlloc           10032dd7 f   libvcruntime:winapi_downlevel.obj
 0001:00031e1f       ___vcrt_FlsFree            10032e1f f   libvcruntime:winapi_downlevel.obj
 0001:00031e67       ___vcrt_FlsGetValue        10032e67 f   libvcruntime:winapi_downlevel.obj
 0001:00031eaf       ___vcrt_FlsSetValue        10032eaf f   libvcruntime:winapi_downlevel.obj
 0001:00031efb       ___vcrt_InitializeCriticalSectionEx 10032efb f   libvcruntime:winapi_downlevel.obj
 0001:00031f52       ___vcrt_initialize_winapi_thunks 10032f52 f   libvcruntime:winapi_downlevel.obj
 0001:00031f9a       ___vcrt_uninitialize_winapi_thunks 10032f9a f   libvcruntime:winapi_downlevel.obj
 0001:00031fd8       ??$?B$$A6AXXZ@__crt_fast_encoded_nullptr_t@@QBEP6AXXZXZ 10032fd8 f i libvcruntime:purevirt_data.obj
 0001:00031ff6       ??$__crt_fast_encode_pointer@P6AXXZ@@YAP6AXXZQ6AXXZ@Z 10032ff6 f i libvcruntime:purevirt_data.obj
 0001:0003201a       ___vcrt_initialize_pure_virtual_call_handler 1003301a f   libvcruntime:purevirt_data.obj
 0001:0003203e       ??$__vcrt_va_start_verify_argument_type@QBD@@YAXXZ 1003303e f i libvcruntime:undname.obj
 0001:0003203f       ??0Block@_HeapManager@@QAE@XZ 1003303f f i libvcruntime:undname.obj
 0001:00032045       ??0DName@@QAE@AAPBDD@Z     10033045 f   libvcruntime:undname.obj
 0001:0003212c       ??0DName@@QAE@ABV0@@Z      1003312c f i libvcruntime:undname.obj
 0001:00032147       ??0DName@@QAE@D@Z          10033147 f   libvcruntime:undname.obj
 0001:0003217e       ??0DName@@QAE@PAV0@@Z      1003317e f   libvcruntime:undname.obj
 0001:000321de       ??0DName@@QAE@PBD@Z        100331de f   libvcruntime:undname.obj
 0001:00032226       ??0DName@@QAE@W4DNameStatus@@@Z 10033226 f   libvcruntime:undname.obj
 0001:00032279       ??0DName@@QAE@XZ           10033279 f i libvcruntime:undname.obj
 0001:0003228e       ??0DName@@QAE@_J@Z         1003328e f   libvcruntime:undname.obj
 0001:00032348       ??0DName@@QAE@_K@Z         10033348 f   libvcruntime:undname.obj
 0001:000323d2       ??0DNameNode@@IAE@XZ       100333d2 f   libvcruntime:undname.obj
 0001:000323dd       ??0DNameStatusNode@@AAE@W4DNameStatus@@@Z 100333dd f   libvcruntime:undname.obj
 0001:00032408       ??0Replicator@@QAE@XZ      10033408 f i libvcruntime:undname.obj
 0001:0003240e       ??0UnDecorator@@QAE@PADPBDHP6APADJ@ZK@Z 1003340e f i libvcruntime:undname.obj
 0001:00032491       ??0charNode@@QAE@D@Z       10033491 f   libvcruntime:undname.obj
 0001:000324ab       ??0pDNameNode@@QAE@PAVDName@@@Z 100334ab f   libvcruntime:undname.obj
 0001:000324dd       ??0pairNode@@QAE@PAVDNameNode@@0@Z 100334dd f   libvcruntime:undname.obj
 0001:00032503       ??0pcharNode@@QAE@PBDH@Z   10033503 f   libvcruntime:undname.obj
 0001:00032572       ??2@YAPAXIAAV_HeapManager@@H@Z 10033572 f i libvcruntime:undname.obj
 0001:0003258c       ??4DName@@QAEAAV0@ABV0@@Z  1003358c f   libvcruntime:undname.obj
 0001:000325a7       ??4DName@@QAEAAV0@D@Z      100335a7 f i libvcruntime:undname.obj
 0001:000325de       ??4DName@@QAEAAV0@PAV0@@Z  100335de f   libvcruntime:undname.obj
 0001:00032639       ??4DName@@QAEAAV0@PBD@Z    10033639 f   libvcruntime:undname.obj
 0001:00032677       ??4DName@@QAEAAV0@W4DNameStatus@@@Z 10033677 f   libvcruntime:undname.obj
 0001:000326b9       ??AReplicator@@QBE?AVDName@@H@Z 100336b9 f   libvcruntime:undname.obj
 0001:00032704       ??BUnDecorator@@QAEPADXZ   10033704 f i libvcruntime:undname.obj
 0001:000328db       ??H@YA?AVDName@@DABV0@@Z   100338db f i libvcruntime:undname.obj
 0001:00032908       ??H@YA?AVDName@@PBDABV0@@Z 10033908 f i libvcruntime:undname.obj
 0001:00032935       ??H@YA?AVDName@@W4DNameStatus@@ABV0@@Z 10033935 f i libvcruntime:undname.obj
 0001:00032962       ??HDName@@QBE?AV0@ABV0@@Z  10033962 f   libvcruntime:undname.obj
 0001:0003298c       ??HDName@@QBE?AV0@D@Z      1003398c f   libvcruntime:undname.obj
 0001:000329b6       ??HDName@@QBE?AV0@PAV0@@Z  100339b6 f   libvcruntime:undname.obj
 0001:000329e0       ??HDName@@QBE?AV0@PBD@Z    100339e0 f   libvcruntime:undname.obj
 0001:00032a0a       ??HDName@@QBE?AV0@W4DNameStatus@@@Z 10033a0a f   libvcruntime:undname.obj
 0001:00032a34       ??YDName@@QAEAAV0@ABV0@@Z  10033a34 f   libvcruntime:undname.obj
 0001:00032a87       ??YDName@@QAEAAV0@D@Z      10033a87 f   libvcruntime:undname.obj
 0001:00032aeb       ??YDName@@QAEAAV0@PAV0@@Z  10033aeb f   libvcruntime:undname.obj
 0001:00032b69       ??YDName@@QAEAAV0@PBD@Z    10033b69 f   libvcruntime:undname.obj
 0001:00032be2       ??YDName@@QAEAAV0@W4DNameStatus@@@Z 10033be2 f   libvcruntime:undname.obj
 0001:00032c32       ??YReplicator@@QAEAAV0@ABVDName@@@Z 10033c32 f   libvcruntime:undname.obj
 0001:00032c8e       ??_5DName@@QAEAAV0@ABV0@@Z 10033c8e f   libvcruntime:undname.obj
 0001:00032cb1       ?Constructor@_HeapManager@@QAEXP6APAXI@ZP6AXPAX@Z@Z 10033cb1 f i libvcruntime:undname.obj
 0001:00032cd5       ?Destructor@_HeapManager@@QAEXXZ 10033cd5 f i libvcruntime:undname.obj
 0001:00032d1c       ?UScore@UnDecorator@@SAPBDW4Tokens@@@Z 10033d1c f   libvcruntime:undname.obj
 0001:00032d40       ?append@DName@@AAEXPAVDNameNode@@@Z 10033d40 f   libvcruntime:undname.obj
 0001:00032d97       ?composeDeclaration@UnDecorator@@CA?AVDName@@ABV2@@Z 10033d97 f i libvcruntime:undname.obj
 0001:00033dd2       ?doAccessSpecifiers@UnDecorator@@SAHXZ 10034dd2 f i libvcruntime:undname.obj
 0001:00033de3       ?doAllocationLanguage@UnDecorator@@SAHXZ 10034de3 f i libvcruntime:undname.obj
 0001:00033df4       ?doAllocationModel@UnDecorator@@SAHXZ 10034df4 f i libvcruntime:undname.obj
 0001:00033e05       ?doEcsu@UnDecorator@@SAHXZ 10034e05 f i libvcruntime:undname.obj
 0001:00033e16       ?doEllipsis@UnDecorator@@SAHXZ 10034e16 f i libvcruntime:undname.obj
 0001:00033e27       ?doFunctionReturns@UnDecorator@@SAHXZ 10034e27 f i libvcruntime:undname.obj
 0001:00033e38       ?doMSKeywords@UnDecorator@@SAHXZ 10034e38 f i libvcruntime:undname.obj
 0001:00033e48       ?doMemberTypes@UnDecorator@@SAHXZ 10034e48 f i libvcruntime:undname.obj
 0001:00033e59       ?doNameOnly@UnDecorator@@SAHXZ 10034e59 f i libvcruntime:undname.obj
 0001:00033e66       ?doNoIdentCharCheck@UnDecorator@@SAHXZ 10034e66 f i libvcruntime:undname.obj
 0001:00033e73       ?doPchar@DName@@AAEXPBDH@Z 10034e73 f   libvcruntime:undname.obj
 0001:00033f1f       ?doPtr64@UnDecorator@@SAHXZ 10034f1f f i libvcruntime:undname.obj
 0001:00033f30       ?doRestrictionSpec@UnDecorator@@SAHXZ 10034f30 f i libvcruntime:undname.obj
 0001:00033f41       ?doThisTypes@UnDecorator@@SAHXZ 10034f41 f i libvcruntime:undname.obj
 0001:00033f57       ?doThrowTypes@UnDecorator@@SAHXZ 10034f57 f i libvcruntime:undname.obj
 0001:00033f68       ?doTypeOnly@UnDecorator@@SAHXZ 10034f68 f i libvcruntime:undname.obj
 0001:00033f75       ?doUnderScore@UnDecorator@@SAHXZ 10034f75 f i libvcruntime:undname.obj
 0001:00033f82       ?getArgumentList@UnDecorator@@CA?AVDName@@XZ 10034f82 f   libvcruntime:undname.obj
 0001:000340d1       ?getArgumentTypes@UnDecorator@@CA?AVDName@@XZ 100350d1 f   libvcruntime:undname.obj
 0001:000341e9       ?getArrayType@UnDecorator@@CA?AVDName@@ABV2@@Z 100351e9 f i libvcruntime:undname.obj
 0001:0003446b       ?getBasedType@UnDecorator@@CA?AVDName@@XZ 1003546b f   libvcruntime:undname.obj
 0001:0003452a       ?getBasicDataType@UnDecorator@@CA?AVDName@@ABV2@@Z 1003552a f   libvcruntime:undname.obj
 0001:00034a14       ?getCallIndex@UnDecorator@@CA?AVDName@@XZ 10035a14 f i libvcruntime:undname.obj
 0001:00034a2d       ?getCallingConvention@UnDecorator@@CA?AVDName@@XZ 10035a2d f   libvcruntime:undname.obj
 0001:00034b1b       ?getDataIndirectType@UnDecorator@@CA?AVDName@@ABV2@PBD0H@Z 10035b1b f   libvcruntime:undname.obj
 0001:000352c6       ?getDataIndirectType@UnDecorator@@CA?AVDName@@XZ 100362c6 f i libvcruntime:undname.obj
 0001:0003530d       ?getDataType@UnDecorator@@CA?AVDName@@PAV2@@Z 1003630d f   libvcruntime:undname.obj
 0001:00035413       ?getDecoratedName@UnDecorator@@CA?AVDName@@XZ 10036413 f   libvcruntime:undname.obj
 0001:000356f2       ?getDimension@UnDecorator@@CA?AVDName@@_N@Z 100366f2 f   libvcruntime:undname.obj
 0001:00035876       ?getDispatchTarget@UnDecorator@@CA?AVDName@@XZ 10036876 f   libvcruntime:undname.obj
 0001:000358e7       ?getDisplacement@UnDecorator@@CA?AVDName@@XZ 100368e7 f i libvcruntime:undname.obj
 0001:00035900       ?getECSUDataType@UnDecorator@@CA?AVDName@@XZ 10036900 f   libvcruntime:undname.obj
 0001:00035a64       ?getECSUName@UnDecorator@@CA?AVDName@@XZ 10036a64 f i libvcruntime:undname.obj
 0001:00035a79       ?getEnumType@UnDecorator@@CA?AVDName@@XZ 10036a79 f i libvcruntime:undname.obj
 0001:00035ba0       ?getExtendedDataIndirectType@UnDecorator@@CA?AVDName@@AAPBDAA_NH@Z 10036ba0 f   libvcruntime:undname.obj
 0001:00035db3       ?getExternalDataType@UnDecorator@@CA?AVDName@@ABV2@@Z 10036db3 f i libvcruntime:undname.obj
 0001:00035e4a       ?getFunctionIndirectType@UnDecorator@@CA?AVDName@@ABV2@@Z 10036e4a f   libvcruntime:undname.obj
 0001:00036355       ?getGuardNumber@UnDecorator@@CA?AVDName@@XZ 10037355 f i libvcruntime:undname.obj
 0001:0003636e       ?getLastChar@DName@@QBEDXZ 1003736e f i libvcruntime:undname.obj
 0001:00036394       ?getLastChar@DNameStatusNode@@UBEDXZ 10037394 f i libvcruntime:undname.obj
 0001:000363a3       ?getLastChar@charNode@@UBEDXZ 100373a3 f i libvcruntime:undname.obj
 0001:000363a7       ?getLastChar@pDNameNode@@UBEDXZ 100373a7 f i libvcruntime:undname.obj
 0001:000363b8       ?getLastChar@pairNode@@UBEDXZ 100373b8 f i libvcruntime:undname.obj
 0001:000363f7       ?getLastChar@pcharNode@@UBEDXZ 100373f7 f i libvcruntime:undname.obj
 0001:0003640d       ?getLexicalFrame@UnDecorator@@CA?AVDName@@XZ 1003740d f i libvcruntime:undname.obj
 0001:00036459       ?getMemory@_HeapManager@@QAEPAXIH@Z 10037459 f   libvcruntime:undname.obj
 0001:0003650a       ?getNumberOfDimensions@UnDecorator@@CAHXZ 1003750a f   libvcruntime:undname.obj
 0001:00036583       ?getOperatorName@UnDecorator@@CA?AVDName@@_NPA_N@Z 10037583 f i libvcruntime:undname.obj
 0001:00036d33       ?getPointerType@UnDecorator@@CA?AVDName@@ABV2@0@Z 10037d33 f i libvcruntime:undname.obj
 0001:00036d58       ?getPointerTypeArray@UnDecorator@@CA?AVDName@@ABV2@0@Z 10037d58 f i libvcruntime:undname.obj
 0001:00036d7d       ?getPrimaryDataType@UnDecorator@@CA?AVDName@@ABV2@@Z 10037d7d f   libvcruntime:undname.obj
 0001:00036fee       ?getPtrRefDataType@UnDecorator@@CA?AVDName@@ABV2@H@Z 10037fee f   libvcruntime:undname.obj
 0001:00037130       ?getPtrRefType@UnDecorator@@CA?AVDName@@ABV2@0PBD@Z 10038130 f   libvcruntime:undname.obj
 0001:0003726b       ?getReferenceType@UnDecorator@@CA?AVDName@@ABV2@0PBD@Z 1003826b f i libvcruntime:undname.obj
 0001:0003728e       ?getRestrictionSpec@UnDecorator@@CA?AVDName@@XZ 1003828e f   libvcruntime:undname.obj
 0001:000373bc       ?getReturnType@UnDecorator@@CA?AVDName@@PAV2@@Z 100383bc f   libvcruntime:undname.obj
 0001:000373f6       ?getScope@UnDecorator@@CA?AVDName@@XZ 100383f6 f   libvcruntime:undname.obj
 0001:000378cb       ?getScopedName@UnDecorator@@CA?AVDName@@XZ 100388cb f   libvcruntime:undname.obj
 0001:00037a04       ?getSignedDimension@UnDecorator@@CA?AVDName@@XZ 10038a04 f   libvcruntime:undname.obj
 0001:00037a6b       ?getStorageConvention@UnDecorator@@CA?AVDName@@XZ 10038a6b f i libvcruntime:undname.obj
 0001:00037a80       ?getString@DName@@QBEPADPAD0@Z 10038a80 f i libvcruntime:undname.obj
 0001:00037ab7       ?getString@DName@@QBEPADPADH@Z 10038ab7 f i libvcruntime:undname.obj
 0001:00037b22       ?getString@DNameStatusNode@@UBEPADPAD0@Z 10038b22 f i libvcruntime:undname.obj
 0001:00037b52       ?getString@charNode@@UBEPADPAD0@Z 10038b52 f i libvcruntime:undname.obj
 0001:00037b6c       ?getString@pDNameNode@@UBEPADPAD0@Z 10038b6c f i libvcruntime:undname.obj
 0001:00037b88       ?getString@pairNode@@UBEPADPAD0@Z 10038b88 f i libvcruntime:undname.obj
 0001:00037bdd       ?getString@pcharNode@@UBEPADPAD0@Z 10038bdd f i libvcruntime:undname.obj
 0001:00037bfe       ?getStringEncoding@UnDecorator@@CA?AVDName@@PADH@Z 10038bfe f   libvcruntime:undname.obj
 0001:00037cc9       ?getStringHelper@@YAPADPAD00H@Z 10038cc9 f i libvcruntime:undname.obj
 0001:00037d0d       ?getSymbolName@UnDecorator@@CA?AVDName@@XZ 10038d0d f i libvcruntime:undname.obj
 0001:00037d67       ?getTemplateArgumentList@UnDecorator@@CA?AVDName@@XZ 10038d67 f   libvcruntime:undname.obj
 0001:000380b4       ?getTemplateConstant@UnDecorator@@CA?AVDName@@XZ 100390b4 f   libvcruntime:undname.obj
 0001:000384c9       ?getTemplateName@UnDecorator@@CA?AVDName@@_N@Z 100394c9 f   libvcruntime:undname.obj
 0001:00038674       ?getThisType@UnDecorator@@CA?AVDName@@XZ 10039674 f i libvcruntime:undname.obj
 0001:000386bc       ?getThrowTypes@UnDecorator@@CA?AVDName@@XZ 100396bc f   libvcruntime:undname.obj
 0001:00038768       ?getTypeEncoding@UnDecorator@@CAHXZ 10039768 f i libvcruntime:undname.obj
 0001:00038b64       ?getVCallThunkType@UnDecorator@@CA?AVDName@@XZ 10039b64 f i libvcruntime:undname.obj
 0001:00038bad       ?getVbTableType@UnDecorator@@CA?AVDName@@ABV2@@Z 10039bad f i libvcruntime:undname.obj
 0001:00038bc7       ?getVdispMapType@UnDecorator@@CA?AVDName@@ABV2@@Z 10039bc7 f i libvcruntime:undname.obj
 0001:00038c32       ?getVfTableType@UnDecorator@@CA?AVDName@@ABV2@@Z 10039c32 f i libvcruntime:undname.obj
 0001:00038df0       ?getZName@UnDecorator@@CA?AVDName@@_N0@Z 10039df0 f   libvcruntime:undname.obj
 0001:000390c0       ?haveTemplateParameters@UnDecorator@@SAHXZ 1003a0c0 f i libvcruntime:undname.obj
 0001:000390cd       ?isArray@DName@@QBEHXZ     1003a0cd f i libvcruntime:undname.obj
 0001:000390d9       ?isComArray@DName@@QBEHXZ  1003a0d9 f i libvcruntime:undname.obj
 0001:000390e5       ?isEmpty@DName@@QBEHXZ     1003a0e5 f i libvcruntime:undname.obj
 0001:000390ef       ?isFull@Replicator@@QBEHXZ 1003a0ef f i libvcruntime:undname.obj
 0001:000390fa       ?isNoTE@DName@@QBEHXZ      1003a0fa f i libvcruntime:undname.obj
 0001:00039106       ?isPinPtr@DName@@QBEHXZ    1003a106 f i libvcruntime:undname.obj
 0001:00039112       ?isPtrRef@DName@@QBEHXZ    1003a112 f i libvcruntime:undname.obj
 0001:0003911e       ?isUDC@DName@@QBEHXZ       1003a11e f i libvcruntime:undname.obj
 0001:00039133       ?isUDTThunk@DName@@QBEHXZ  1003a133 f i libvcruntime:undname.obj
 0001:00039148       ?isVCallThunk@DName@@QBEHXZ 1003a148 f i libvcruntime:undname.obj
 0001:00039154       ?isValid@DName@@QBEHXZ     1003a154 f i libvcruntime:undname.obj
 0001:00039160       ?length@DName@@QBEHXZ      1003a160 f i libvcruntime:undname.obj
 0001:00039185       ?length@DNameStatusNode@@UBEHXZ 1003a185 f i libvcruntime:undname.obj
 0001:00039189       ?length@charNode@@UBEHXZ   1003a189 f i libvcruntime:undname.obj
 0001:0003918d       ?length@pDNameNode@@UBEHXZ 1003a18d f i libvcruntime:undname.obj
 0001:0003919e       ?length@pairNode@@UBEHXZ   1003a19e f i libvcruntime:undname.obj
 0001:000391fa       ?length@pcharNode@@UBEHXZ  1003a1fa f i libvcruntime:undname.obj
 0001:000391fe       ?make@DNameStatusNode@@SAPAV1@W4DNameStatus@@@Z 1003a1fe f i libvcruntime:undname.obj
 0001:000392a5       ?setIsArray@DName@@QAEXXZ  1003a2a5 f i libvcruntime:undname.obj
 0001:000392af       ?setIsComArray@DName@@QAEXXZ 1003a2af f i libvcruntime:undname.obj
 0001:000392b9       ?setIsNoTE@DName@@QAEXXZ   1003a2b9 f i libvcruntime:undname.obj
 0001:000392c3       ?setIsPinPtr@DName@@QAEXXZ 1003a2c3 f i libvcruntime:undname.obj
 0001:000392cd       ?setIsUDC@DName@@QAEXXZ    1003a2cd f i libvcruntime:undname.obj
 0001:000392dd       ?setIsVCallThunk@DName@@QAEXXZ 1003a2dd f i libvcruntime:undname.obj
 0001:000392e7       ?setPtrRef@DName@@QAEAAV1@XZ 1003a2e7 f i libvcruntime:undname.obj
 0001:000392f3       ?status@DName@@QBE?AW4DNameStatus@@XZ 1003a2f3 f i libvcruntime:undname.obj
 0001:00039378       ___unDName                 1003a378 f   libvcruntime:undname.obj
 0001:00039432       ___unDNameEx               1003a432 f   libvcruntime:undname.obj
 0001:000394ec       __vsprintf_s_l             1003a4ec f i libvcruntime:undname.obj
 0001:00039524       _sprintf_s                 1003a524 f i libvcruntime:undname.obj
 0001:00039550       __global_unwind2           1003a550 f   libvcruntime:_exsup_.obj
 0001:000395b5       __local_unwind2            1003a5b5 f   libvcruntime:_exsup_.obj
 0001:00039639       __abnormal_termination     1003a639 f   libvcruntime:_exsup_.obj
 0001:0003965c       __NLG_Notify1              1003a65c f   libvcruntime:_exsup_.obj
 0001:00039665       __NLG_Notify               1003a665 f   libvcruntime:_exsup_.obj
 0001:0003967c       __NLG_Dispatch2            1003a67c     libvcruntime:_exsup_.obj
 0001:0003967c       __NLG_Dispatch             1003a67c     libvcruntime:_exsup_.obj
 0001:00039684       __NLG_Call                 1003a684 f   libvcruntime:_exsup_.obj
 0001:00039686       __NLG_Return2              1003a686     libvcruntime:_exsup_.obj
 0001:000396d4       ??$__crt_fast_decode_pointer@P6AXXZ@@YAP6AXXZQ6AXXZ@Z 1003a6d4 f i libvcruntime:purevirt.obj
 0001:000396ed       ??$__crt_interlocked_compare_exchange_pointer@$$A6AXXZ$$T$$T@@YAP6AXXZPDS6AXXZ$$T1@Z 1003a6ed f i libvcruntime:purevirt.obj
 0001:00039703       ??$__crt_interlocked_exchange_pointer@$$A6AXXZP6AXXZ@@YAP6AXXZPDS6AXXZQ6AXXZ@Z 1003a703 f i libvcruntime:purevirt.obj
 0001:00039713       ??$__crt_interlocked_read_pointer@$$A6AXXZ@@YAP6AXXZPDS6AXXZ@Z 1003a713 f i libvcruntime:purevirt.obj
 0001:00039727       __get_purecall_handler     1003a727 f   libvcruntime:purevirt.obj
 0001:0003974d       __purecall                 1003a74d f   libvcruntime:purevirt.obj
 0001:0003976e       __set_purecall_handler     1003a76e f   libvcruntime:purevirt.obj
 0001:0003979c       _malloc                    1003a79c f   libucrt:malloc.obj
 0001:000397a9       ??$?RPAU__crt_stdio_stream_data@@@__crt_internal_free_policy@@QBEXQBQAU__crt_stdio_stream_data@@@Z 1003a7a9 f i libucrt:_file.obj
 0001:000397bf       ??0?$__crt_unique_heap_ptr@PAU__crt_stdio_stream_data@@U__crt_internal_free_policy@@@@QAE@QAPAU__crt_stdio_stream_data@@@Z 1003a7bf f i libucrt:_file.obj
 0001:000397d3       ??0__crt_stdio_stream@@QAE@QAU_iobuf@@@Z 1003a7d3 f i libucrt:_file.obj
 0001:000397e7       ??1?$__crt_unique_heap_ptr@PAU__crt_stdio_stream_data@@U__crt_internal_free_policy@@@@QAE@XZ 1003a7e7 f i libucrt:_file.obj
 0001:000397fd       ??C__crt_stdio_stream@@QBEPAU__crt_stdio_stream_data@@XZ 1003a7fd f i libucrt:_file.obj
 0001:00039800       ?detach@?$__crt_unique_heap_ptr@PAU__crt_stdio_stream_data@@U__crt_internal_free_policy@@@@QAEPAPAU__crt_stdio_stream_data@@XZ 1003a800 f i libucrt:_file.obj
 0001:00039806       ?release@?$__crt_unique_heap_ptr@PAU__crt_stdio_stream_data@@U__crt_internal_free_policy@@@@QAEXXZ 1003a806 f i libucrt:_file.obj
 0001:0003981c       ___acrt_initialize_stdio   1003a81c f   libucrt:_file.obj
 0001:00039916       ___acrt_iob_func           1003a916 f   libucrt:_file.obj
 0001:0003992a       ___acrt_uninitialize_stdio 1003a92a f   libucrt:_file.obj
 0001:00039989       __get_stream_buffer_pointers 1003a989 f   libucrt:_file.obj
 0001:000399e0       __lock_file                1003a9e0 f   libucrt:_file.obj
 0001:000399f9       __unlock_file              1003a9f9 f   libucrt:_file.obj
 0001:00039a12       ??$?0ABV?$stream_output_adapter@D@__crt_stdio_output@@AB_KABQBDABQAU__crt_locale_pointers@@ABQAD@?$format_validation_base@DV?$stream_output_adapter@D@__crt_stdio_output@@@__crt_stdio_output@@IAE@ABV?$stream_output_adapter@D@1@AB_KABQBDABQAU__crt_locale_pointers@@ABQAD@Z 1003aa12 f i libucrt:output.obj
 0001:00039a3d       ??$?0ABV?$stream_output_adapter@D@__crt_stdio_output@@AB_KABQBDABQAU__crt_locale_pointers@@ABQAD@?$positional_parameter_base@DV?$stream_output_adapter@D@__crt_stdio_output@@@__crt_stdio_output@@IAE@ABV?$stream_output_adapter@D@1@AB_KABQBDABQAU__crt_locale_pointers@@ABQAD@Z 1003aa3d f i libucrt:output.obj
 0001:00039a97       ??$?0ABV?$stream_output_adapter@D@__crt_stdio_output@@AB_KABQBDABQAU__crt_locale_pointers@@ABQAD@?$standard_base@DV?$stream_output_adapter@D@__crt_stdio_output@@@__crt_stdio_output@@IAE@ABV?$stream_output_adapter@D@1@AB_KABQBDABQAU__crt_locale_pointers@@ABQAD@Z 1003aa97 f i libucrt:output.obj
 0001:00039ad9       ??$?0ABV?$stream_output_adapter@_W@__crt_stdio_output@@AB_KABQB_WABQAU__crt_locale_pointers@@ABQAD@?$format_validation_base@_WV?$stream_output_adapter@_W@__crt_stdio_output@@@__crt_stdio_output@@IAE@ABV?$stream_output_adapter@_W@1@AB_KABQB_WABQAU__crt_locale_pointers@@ABQAD@Z 1003aad9 f i libucrt:output.obj
 0001:00039b04       ??$?0ABV?$stream_output_adapter@_W@__crt_stdio_output@@AB_KABQB_WABQAU__crt_locale_pointers@@ABQAD@?$positional_parameter_base@_WV?$stream_output_adapter@_W@__crt_stdio_output@@@__crt_stdio_output@@IAE@ABV?$stream_output_adapter@_W@1@AB_KABQB_WABQAU__crt_locale_pointers@@ABQAD@Z 1003ab04 f i libucrt:output.obj
 0001:00039b5e       ??$?0ABV?$stream_output_adapter@_W@__crt_stdio_output@@AB_KABQB_WABQAU__crt_locale_pointers@@ABQAD@?$standard_base@_WV?$stream_output_adapter@_W@__crt_stdio_output@@@__crt_stdio_output@@IAE@ABV?$stream_output_adapter@_W@1@AB_KABQB_WABQAU__crt_locale_pointers@@ABQAD@Z 1003ab5e f i libucrt:output.obj
 0001:00039ba0       ??$?0ABV?$string_output_adapter@D@__crt_stdio_output@@AB_KABQBDABQAU__crt_locale_pointers@@ABQAD@?$format_validation_base@DV?$string_output_adapter@D@__crt_stdio_output@@@__crt_stdio_output@@IAE@ABV?$string_output_adapter@D@1@AB_KABQBDABQAU__crt_locale_pointers@@ABQAD@Z 1003aba0 f i libucrt:output.obj
 0001:00039bcb       ??$?0ABV?$string_output_adapter@D@__crt_stdio_output@@AB_KABQBDABQAU__crt_locale_pointers@@ABQAD@?$positional_parameter_base@DV?$string_output_adapter@D@__crt_stdio_output@@@__crt_stdio_output@@IAE@ABV?$string_output_adapter@D@1@AB_KABQBDABQAU__crt_locale_pointers@@ABQAD@Z 1003abcb f i libucrt:output.obj
 0001:00039c25       ??$?0ABV?$string_output_adapter@D@__crt_stdio_output@@AB_KABQBDABQAU__crt_locale_pointers@@ABQAD@?$standard_base@DV?$string_output_adapter@D@__crt_stdio_output@@@__crt_stdio_output@@IAE@ABV?$string_output_adapter@D@1@AB_KABQBDABQAU__crt_locale_pointers@@ABQAD@Z 1003ac25 f i libucrt:output.obj
 0001:00039c67       ??$?0ABV?$string_output_adapter@_W@__crt_stdio_output@@AB_KABQB_WABQAU__crt_locale_pointers@@ABQAD@?$format_validation_base@_WV?$string_output_adapter@_W@__crt_stdio_output@@@__crt_stdio_output@@IAE@ABV?$string_output_adapter@_W@1@AB_KABQB_WABQAU__crt_locale_pointers@@ABQAD@Z 1003ac67 f i libucrt:output.obj
 0001:00039c92       ??$?0ABV?$string_output_adapter@_W@__crt_stdio_output@@AB_KABQB_WABQAU__crt_locale_pointers@@ABQAD@?$positional_parameter_base@_WV?$string_output_adapter@_W@__crt_stdio_output@@@__crt_stdio_output@@IAE@ABV?$string_output_adapter@_W@1@AB_KABQB_WABQAU__crt_locale_pointers@@ABQAD@Z 1003ac92 f i libucrt:output.obj
 0001:00039cec       ??$?0ABV?$string_output_adapter@_W@__crt_stdio_output@@AB_KABQB_WABQAU__crt_locale_pointers@@ABQAD@?$standard_base@_WV?$string_output_adapter@_W@__crt_stdio_output@@@__crt_stdio_output@@IAE@ABV?$string_output_adapter@_W@1@AB_KABQB_WABQAU__crt_locale_pointers@@ABQAD@Z 1003acec f i libucrt:output.obj
 0001:00039d2e       ??$?RV<lambda_2293f24e3ce1ad6fe22ccfb9dec07671>@@AAV<lambda_2565fc715a641e539f44ad02d6823606>@@V<lambda_d3217f279b832965d9ca670dc2993570>@@@?$__crt_seh_guarded_call@H@@QAEH$$QAV<lambda_2293f24e3ce1ad6fe22ccfb9dec07671>@@AAV<lambda_2565fc715a641e539f44ad02d6823606>@@$$QAV<lambda_d3217f279b832965d9ca670dc2993570>@@@Z 1003ad2e f i libucrt:output.obj
 0001:00039d93       ??$?RV<lambda_4d4ac866be0fa3c441830420fabdd2cb>@@AAV<lambda_63a10c2dc8dbb9e4dd1890be52af7c93>@@V<lambda_002af9fa0f8fe472b648c51882d4fc32>@@@?$__crt_seh_guarded_call@H@@QAEH$$QAV<lambda_4d4ac866be0fa3c441830420fabdd2cb>@@AAV<lambda_63a10c2dc8dbb9e4dd1890be52af7c93>@@$$QAV<lambda_002af9fa0f8fe472b648c51882d4fc32>@@@Z 1003ad93 f i libucrt:output.obj
 0001:00039df8       ??$?RV<lambda_5be909dfbae0a631386585770cd7b676>@@AAV<lambda_e516058a9c289d98c8ca9fea99247804>@@V<lambda_afe2e0cdc5e0ecf6f0d6f5e2f8985e38>@@@?$__crt_seh_guarded_call@H@@QAEH$$QAV<lambda_5be909dfbae0a631386585770cd7b676>@@AAV<lambda_e516058a9c289d98c8ca9fea99247804>@@$$QAV<lambda_afe2e0cdc5e0ecf6f0d6f5e2f8985e38>@@@Z 1003adf8 f i libucrt:output.obj
 0001:00039e5d       ??$?RV<lambda_823d65812123d985753d53e2a8c25d20>@@AAV<lambda_0a97c9e57da7be065955385c79108ff2>@@V<lambda_4d2973f3ad2d226f00468307185dca1b>@@@?$__crt_seh_guarded_call@H@@QAEH$$QAV<lambda_823d65812123d985753d53e2a8c25d20>@@AAV<lambda_0a97c9e57da7be065955385c79108ff2>@@$$QAV<lambda_4d2973f3ad2d226f00468307185dca1b>@@@Z 1003ae5d f i libucrt:output.obj
 0001:00039ec2       ??$?RV<lambda_ab9923ffb5d694ec0d78876dd103e44f>@@AAV<lambda_481dd5778c961fbcd3b60b650e9b9dc4>@@V<lambda_7923d86c9e3f319b415918ec4b39749c>@@@?$__crt_seh_guarded_call@H@@QAEH$$QAV<lambda_ab9923ffb5d694ec0d78876dd103e44f>@@AAV<lambda_481dd5778c961fbcd3b60b650e9b9dc4>@@$$QAV<lambda_7923d86c9e3f319b415918ec4b39749c>@@@Z 1003aec2 f i libucrt:output.obj
 0001:00039f27       ??$?RV<lambda_db08b09ef7aa9d4f8620ce68402612bc>@@AAV<lambda_4f2c1eaeead2a5fc776db5b62ea0fb9b>@@V<lambda_3ae262bc35d4ba6a3825c4f6bcaaf95c>@@@?$__crt_seh_guarded_call@H@@QAEH$$QAV<lambda_db08b09ef7aa9d4f8620ce68402612bc>@@AAV<lambda_4f2c1eaeead2a5fc776db5b62ea0fb9b>@@$$QAV<lambda_3ae262bc35d4ba6a3825c4f6bcaaf95c>@@@Z 1003af27 f i libucrt:output.obj
 0001:00039f8c       ??$__acrt_lock_stream_and_call@V<lambda_0a97c9e57da7be065955385c79108ff2>@@@@YAHQAU_iobuf@@$$QAV<lambda_0a97c9e57da7be065955385c79108ff2>@@@Z 1003af8c f i libucrt:output.obj
 0001:00039fbe       ??$__acrt_lock_stream_and_call@V<lambda_2565fc715a641e539f44ad02d6823606>@@@@YAHQAU_iobuf@@$$QAV<lambda_2565fc715a641e539f44ad02d6823606>@@@Z 1003afbe f i libucrt:output.obj
 0001:00039ff0       ??$__acrt_lock_stream_and_call@V<lambda_481dd5778c961fbcd3b60b650e9b9dc4>@@@@YAHQAU_iobuf@@$$QAV<lambda_481dd5778c961fbcd3b60b650e9b9dc4>@@@Z 1003aff0 f i libucrt:output.obj
 0001:0003a022       ??$__acrt_lock_stream_and_call@V<lambda_4f2c1eaeead2a5fc776db5b62ea0fb9b>@@@@YAHQAU_iobuf@@$$QAV<lambda_4f2c1eaeead2a5fc776db5b62ea0fb9b>@@@Z 1003b022 f i libucrt:output.obj
 0001:0003a054       ??$__acrt_lock_stream_and_call@V<lambda_63a10c2dc8dbb9e4dd1890be52af7c93>@@@@YAHQAU_iobuf@@$$QAV<lambda_63a10c2dc8dbb9e4dd1890be52af7c93>@@@Z 1003b054 f i libucrt:output.obj
 0001:0003a086       ??$__acrt_lock_stream_and_call@V<lambda_e516058a9c289d98c8ca9fea99247804>@@@@YAHQAU_iobuf@@$$QAV<lambda_e516058a9c289d98c8ca9fea99247804>@@@Z 1003b086 f i libucrt:output.obj
 0001:0003a0b8       ??$__crt_interlocked_read@J@@YAJPDJ@Z 1003b0b8 f i libucrt:output.obj
 0001:0003b303       ??$count@D@formatting_buffer@__crt_stdio_output@@QBEIXZ 1003c303 f i libucrt:output.obj
 0001:0003b321       ??$data@D@formatting_buffer@__crt_stdio_output@@QAEPADXZ 1003c321 f i libucrt:output.obj
 0001:0003b331       ??$data@_W@formatting_buffer@__crt_stdio_output@@QAEPA_WXZ 1003c331 f i libucrt:output.obj
 0001:0003b341       ??$ensure_buffer_is_big_enough@D@formatting_buffer@__crt_stdio_output@@QAE_NI@Z 1003c341 f i libucrt:output.obj
 0001:0003b3e8       ??$extract_argument_from_va_list@C_J@?$positional_parameter_base@DV?$stream_output_adapter@D@__crt_stdio_output@@@__crt_stdio_output@@IAE_NAA_J@Z 1003c3e8 f i libucrt:output.obj
 0001:0003b486       ??$extract_argument_from_va_list@C_J@?$positional_parameter_base@DV?$string_output_adapter@D@__crt_stdio_output@@@__crt_stdio_output@@IAE_NAA_J@Z 1003c486 f i libucrt:output.obj
 0001:0003b524       ??$extract_argument_from_va_list@C_J@?$positional_parameter_base@_WV?$stream_output_adapter@_W@__crt_stdio_output@@@__crt_stdio_output@@IAE_NAA_J@Z 1003c524 f i libucrt:output.obj
 0001:0003b5c2       ??$extract_argument_from_va_list@C_J@?$positional_parameter_base@_WV?$string_output_adapter@_W@__crt_stdio_output@@@__crt_stdio_output@@IAE_NAA_J@Z 1003c5c2 f i libucrt:output.obj
 0001:0003b660       ??$extract_argument_from_va_list@C_J@?$standard_base@DV?$stream_output_adapter@D@__crt_stdio_output@@@__crt_stdio_output@@IAE_NAA_J@Z 1003c660 f i libucrt:output.obj
 0001:0003b686       ??$extract_argument_from_va_list@C_J@?$standard_base@DV?$string_output_adapter@D@__crt_stdio_output@@@__crt_stdio_output@@IAE_NAA_J@Z 1003c686 f i libucrt:output.obj
 0001:0003b6ac       ??$extract_argument_from_va_list@C_J@?$standard_base@_WV?$stream_output_adapter@_W@__crt_stdio_output@@@__crt_stdio_output@@IAE_NAA_J@Z 1003c6ac f i libucrt:output.obj
 0001:0003b6d2       ??$extract_argument_from_va_list@C_J@?$standard_base@_WV?$string_output_adapter@_W@__crt_stdio_output@@@__crt_stdio_output@@IAE_NAA_J@Z 1003c6d2 f i libucrt:output.obj
 0001:0003b6f8       ??$extract_argument_from_va_list@E_J@?$positional_parameter_base@DV?$stream_output_adapter@D@__crt_stdio_output@@@__crt_stdio_output@@IAE_NAA_J@Z 1003c6f8 f i libucrt:output.obj
 0001:0003b796       ??$extract_argument_from_va_list@E_J@?$positional_parameter_base@DV?$string_output_adapter@D@__crt_stdio_output@@@__crt_stdio_output@@IAE_NAA_J@Z 1003c796 f i libucrt:output.obj
 0001:0003b834       ??$extract_argument_from_va_list@E_J@?$positional_parameter_base@_WV?$stream_output_adapter@_W@__crt_stdio_output@@@__crt_stdio_output@@IAE_NAA_J@Z 1003c834 f i libucrt:output.obj
 0001:0003b8d2       ??$extract_argument_from_va_list@E_J@?$positional_parameter_base@_WV?$string_output_adapter@_W@__crt_stdio_output@@@__crt_stdio_output@@IAE_NAA_J@Z 1003c8d2 f i libucrt:output.obj
 0001:0003b970       ??$extract_argument_from_va_list@E_J@?$standard_base@DV?$stream_output_adapter@D@__crt_stdio_output@@@__crt_stdio_output@@IAE_NAA_J@Z 1003c970 f i libucrt:output.obj
 0001:0003b996       ??$extract_argument_from_va_list@E_J@?$standard_base@DV?$string_output_adapter@D@__crt_stdio_output@@@__crt_stdio_output@@IAE_NAA_J@Z 1003c996 f i libucrt:output.obj
 0001:0003b9bc       ??$extract_argument_from_va_list@E_J@?$standard_base@_WV?$stream_output_adapter@_W@__crt_stdio_output@@@__crt_stdio_output@@IAE_NAA_J@Z 1003c9bc f i libucrt:output.obj
 0001:0003b9e2       ??$extract_argument_from_va_list@E_J@?$standard_base@_WV?$string_output_adapter@_W@__crt_stdio_output@@@__crt_stdio_output@@IAE_NAA_J@Z 1003c9e2 f i libucrt:output.obj
 0001:0003ba08       ??$extract_argument_from_va_list@F_J@?$positional_parameter_base@DV?$stream_output_adapter@D@__crt_stdio_output@@@__crt_stdio_output@@IAE_NAA_J@Z 1003ca08 f i libucrt:output.obj
 0001:0003baa6       ??$extract_argument_from_va_list@F_J@?$positional_parameter_base@DV?$string_output_adapter@D@__crt_stdio_output@@@__crt_stdio_output@@IAE_NAA_J@Z 1003caa6 f i libucrt:output.obj
 0001:0003bb44       ??$extract_argument_from_va_list@F_J@?$positional_parameter_base@_WV?$stream_output_adapter@_W@__crt_stdio_output@@@__crt_stdio_output@@IAE_NAA_J@Z 1003cb44 f i libucrt:output.obj
 0001:0003bbe2       ??$extract_argument_from_va_list@F_J@?$positional_parameter_base@_WV?$string_output_adapter@_W@__crt_stdio_output@@@__crt_stdio_output@@IAE_NAA_J@Z 1003cbe2 f i libucrt:output.obj
 0001:0003bc80       ??$extract_argument_from_va_list@F_J@?$standard_base@DV?$stream_output_adapter@D@__crt_stdio_output@@@__crt_stdio_output@@IAE_NAA_J@Z 1003cc80 f i libucrt:output.obj
 0001:0003bca6       ??$extract_argument_from_va_list@F_J@?$standard_base@DV?$string_output_adapter@D@__crt_stdio_output@@@__crt_stdio_output@@IAE_NAA_J@Z 1003cca6 f i libucrt:output.obj
 0001:0003bccc       ??$extract_argument_from_va_list@F_J@?$standard_base@_WV?$stream_output_adapter@_W@__crt_stdio_output@@@__crt_stdio_output@@IAE_NAA_J@Z 1003cccc f i libucrt:output.obj
 0001:0003bcf2       ??$extract_argument_from_va_list@F_J@?$standard_base@_WV?$string_output_adapter@_W@__crt_stdio_output@@@__crt_stdio_output@@IAE_NAA_J@Z 1003ccf2 f i libucrt:output.obj
 0001:0003bd18       ??$extract_argument_from_va_list@GD@?$positional_parameter_base@DV?$stream_output_adapter@D@__crt_stdio_output@@@__crt_stdio_output@@IAE_NAAD@Z 1003cd18 f i libucrt:output.obj
 0001:0003bdb5       ??$extract_argument_from_va_list@GD@?$positional_parameter_base@DV?$string_output_adapter@D@__crt_stdio_output@@@__crt_stdio_output@@IAE_NAAD@Z 1003cdb5 f i libucrt:output.obj
 0001:0003be52       ??$extract_argument_from_va_list@GD@?$standard_base@DV?$stream_output_adapter@D@__crt_stdio_output@@@__crt_stdio_output@@IAE_NAAD@Z 1003ce52 f i libucrt:output.obj
 0001:0003be72       ??$extract_argument_from_va_list@GD@?$standard_base@DV?$string_output_adapter@D@__crt_stdio_output@@@__crt_stdio_output@@IAE_NAAD@Z 1003ce72 f i libucrt:output.obj
 0001:0003be92       ??$extract_argument_from_va_list@G_J@?$positional_parameter_base@DV?$stream_output_adapter@D@__crt_stdio_output@@@__crt_stdio_output@@IAE_NAA_J@Z 1003ce92 f i libucrt:output.obj
 0001:0003bf30       ??$extract_argument_from_va_list@G_J@?$positional_parameter_base@DV?$string_output_adapter@D@__crt_stdio_output@@@__crt_stdio_output@@IAE_NAA_J@Z 1003cf30 f i libucrt:output.obj
 0001:0003bfce       ??$extract_argument_from_va_list@G_J@?$positional_parameter_base@_WV?$stream_output_adapter@_W@__crt_stdio_output@@@__crt_stdio_output@@IAE_NAA_J@Z 1003cfce f i libucrt:output.obj
 0001:0003c06c       ??$extract_argument_from_va_list@G_J@?$positional_parameter_base@_WV?$string_output_adapter@_W@__crt_stdio_output@@@__crt_stdio_output@@IAE_NAA_J@Z 1003d06c f i libucrt:output.obj
 0001:0003c10a       ??$extract_argument_from_va_list@G_J@?$standard_base@DV?$stream_output_adapter@D@__crt_stdio_output@@@__crt_stdio_output@@IAE_NAA_J@Z 1003d10a f i libucrt:output.obj
 0001:0003c130       ??$extract_argument_from_va_list@G_J@?$standard_base@DV?$string_output_adapter@D@__crt_stdio_output@@@__crt_stdio_output@@IAE_NAA_J@Z 1003d130 f i libucrt:output.obj
 0001:0003c156       ??$extract_argument_from_va_list@G_J@?$standard_base@_WV?$stream_output_adapter@_W@__crt_stdio_output@@@__crt_stdio_output@@IAE_NAA_J@Z 1003d156 f i libucrt:output.obj
 0001:0003c17c       ??$extract_argument_from_va_list@G_J@?$standard_base@_WV?$string_output_adapter@_W@__crt_stdio_output@@@__crt_stdio_output@@IAE_NAA_J@Z 1003d17c f i libucrt:output.obj
 0001:0003c1a2       ??$extract_argument_from_va_list@H_J@?$positional_parameter_base@DV?$stream_output_adapter@D@__crt_stdio_output@@@__crt_stdio_output@@IAE_NAA_J@Z 1003d1a2 f i libucrt:output.obj
 0001:0003c23e       ??$extract_argument_from_va_list@H_J@?$positional_parameter_base@DV?$string_output_adapter@D@__crt_stdio_output@@@__crt_stdio_output@@IAE_NAA_J@Z 1003d23e f i libucrt:output.obj
 0001:0003c2da       ??$extract_argument_from_va_list@H_J@?$positional_parameter_base@_WV?$stream_output_adapter@_W@__crt_stdio_output@@@__crt_stdio_output@@IAE_NAA_J@Z 1003d2da f i libucrt:output.obj
 0001:0003c376       ??$extract_argument_from_va_list@H_J@?$positional_parameter_base@_WV?$string_output_adapter@_W@__crt_stdio_output@@@__crt_stdio_output@@IAE_NAA_J@Z 1003d376 f i libucrt:output.obj
 0001:0003c412       ??$extract_argument_from_va_list@H_J@?$standard_base@DV?$stream_output_adapter@D@__crt_stdio_output@@@__crt_stdio_output@@IAE_NAA_J@Z 1003d412 f i libucrt:output.obj
 0001:0003c437       ??$extract_argument_from_va_list@H_J@?$standard_base@DV?$string_output_adapter@D@__crt_stdio_output@@@__crt_stdio_output@@IAE_NAA_J@Z 1003d437 f i libucrt:output.obj
 0001:0003c45c       ??$extract_argument_from_va_list@H_J@?$standard_base@_WV?$stream_output_adapter@_W@__crt_stdio_output@@@__crt_stdio_output@@IAE_NAA_J@Z 1003d45c f i libucrt:output.obj
 0001:0003c481       ??$extract_argument_from_va_list@H_J@?$standard_base@_WV?$string_output_adapter@_W@__crt_stdio_output@@@__crt_stdio_output@@IAE_NAA_J@Z 1003d481 f i libucrt:output.obj
 0001:0003c4a6       ??$extract_argument_from_va_list@I_J@?$positional_parameter_base@DV?$stream_output_adapter@D@__crt_stdio_output@@@__crt_stdio_output@@IAE_NAA_J@Z 1003d4a6 f i libucrt:output.obj
 0001:0003c54d       ??$extract_argument_from_va_list@I_J@?$positional_parameter_base@DV?$string_output_adapter@D@__crt_stdio_output@@@__crt_stdio_output@@IAE_NAA_J@Z 1003d54d f i libucrt:output.obj
 0001:0003c5f4       ??$extract_argument_from_va_list@I_J@?$positional_parameter_base@_WV?$stream_output_adapter@_W@__crt_stdio_output@@@__crt_stdio_output@@IAE_NAA_J@Z 1003d5f4 f i libucrt:output.obj
 0001:0003c69b       ??$extract_argument_from_va_list@I_J@?$positional_parameter_base@_WV?$string_output_adapter@_W@__crt_stdio_output@@@__crt_stdio_output@@IAE_NAA_J@Z 1003d69b f i libucrt:output.obj
 0001:0003c742       ??$extract_argument_from_va_list@I_J@?$standard_base@DV?$stream_output_adapter@D@__crt_stdio_output@@@__crt_stdio_output@@IAE_NAA_J@Z 1003d742 f i libucrt:output.obj
 0001:0003c767       ??$extract_argument_from_va_list@I_J@?$standard_base@DV?$string_output_adapter@D@__crt_stdio_output@@@__crt_stdio_output@@IAE_NAA_J@Z 1003d767 f i libucrt:output.obj
 0001:0003c78c       ??$extract_argument_from_va_list@I_J@?$standard_base@_WV?$stream_output_adapter@_W@__crt_stdio_output@@@__crt_stdio_output@@IAE_NAA_J@Z 1003d78c f i libucrt:output.obj
 0001:0003c7b1       ??$extract_argument_from_va_list@I_J@?$standard_base@_WV?$string_output_adapter@_W@__crt_stdio_output@@@__crt_stdio_output@@IAE_NAA_J@Z 1003d7b1 f i libucrt:output.obj
 0001:0003c7d6       ??$extract_argument_from_va_list@PADPAD@?$positional_parameter_base@DV?$stream_output_adapter@D@__crt_stdio_output@@@__crt_stdio_output@@IAE_NAAPAD@Z 1003d7d6 f i libucrt:output.obj
 0001:0003c873       ??$extract_argument_from_va_list@PADPAD@?$positional_parameter_base@DV?$string_output_adapter@D@__crt_stdio_output@@@__crt_stdio_output@@IAE_NAAPAD@Z 1003d873 f i libucrt:output.obj
 0001:0003c910       ??$extract_argument_from_va_list@PADPAD@?$positional_parameter_base@_WV?$stream_output_adapter@_W@__crt_stdio_output@@@__crt_stdio_output@@IAE_NAAPAD@Z 1003d910 f i libucrt:output.obj
 0001:0003c9ad       ??$extract_argument_from_va_list@PADPAD@?$positional_parameter_base@_WV?$string_output_adapter@_W@__crt_stdio_output@@@__crt_stdio_output@@IAE_NAAPAD@Z 1003d9ad f i libucrt:output.obj
 0001:0003ca4a       ??$extract_argument_from_va_list@PADPAD@?$standard_base@DV?$stream_output_adapter@D@__crt_stdio_output@@@__crt_stdio_output@@IAE_NAAPAD@Z 1003da4a f i libucrt:output.obj
 0001:0003ca6a       ??$extract_argument_from_va_list@PADPAD@?$standard_base@DV?$string_output_adapter@D@__crt_stdio_output@@@__crt_stdio_output@@IAE_NAAPAD@Z 1003da6a f i libucrt:output.obj
 0001:0003ca8a       ??$extract_argument_from_va_list@PADPAD@?$standard_base@_WV?$stream_output_adapter@_W@__crt_stdio_output@@@__crt_stdio_output@@IAE_NAAPAD@Z 1003da8a f i libucrt:output.obj
 0001:0003caaa       ??$extract_argument_from_va_list@PADPAD@?$standard_base@_WV?$string_output_adapter@_W@__crt_stdio_output@@@__crt_stdio_output@@IAE_NAAPAD@Z 1003daaa f i libucrt:output.obj
 0001:0003caca       ??$extract_argument_from_va_list@PAUansi_string@?1??type_case_Z@?$output_processor@DV?$stream_output_adapter@D@__crt_stdio_output@@V?$format_validation_base@DV?$stream_output_adapter@D@__crt_stdio_output@@@2@@__crt_stdio_output@@AAE_NXZ@PAU1?1??234@AAE_NXZ@@?$standard_base@DV?$stream_output_adapter@D@__crt_stdio_output@@@__crt_stdio_output@@IAE_NAAPAUansi_string@?1??type_case_Z@?$output_processor@DV?$stream_output_adapter@D@__crt_stdio_output@@V?$format_validation_base@DV?$stream_output_adapter@D@__crt_stdio_output@@@2@@1@AAE_NXZ@@Z 1003daca f i libucrt:output.obj
 0001:0003caea       ??$extract_argument_from_va_list@PAUansi_string@?1??type_case_Z@?$output_processor@DV?$stream_output_adapter@D@__crt_stdio_output@@V?$positional_parameter_base@DV?$stream_output_adapter@D@__crt_stdio_output@@@2@@__crt_stdio_output@@AAE_NXZ@PAU1?1??234@AAE_NXZ@@?$positional_parameter_base@DV?$stream_output_adapter@D@__crt_stdio_output@@@__crt_stdio_output@@IAE_NAAPAUansi_string@?1??type_case_Z@?$output_processor@DV?$stream_output_adapter@D@__crt_stdio_output@@V?$positional_parameter_base@DV?$stream_output_adapter@D@__crt_stdio_output@@@2@@1@AAE_NXZ@@Z 1003daea f i libucrt:output.obj
 0001:0003cb87       ??$extract_argument_from_va_list@PAUansi_string@?1??type_case_Z@?$output_processor@DV?$stream_output_adapter@D@__crt_stdio_output@@V?$positional_parameter_base@DV?$stream_output_adapter@D@__crt_stdio_output@@@2@@__crt_stdio_output@@AAE_NXZ@PAU1?1??234@AAE_NXZ@@?$standard_base@DV?$stream_output_adapter@D@__crt_stdio_output@@@__crt_stdio_output@@IAE_NAAPAUansi_string@?1??type_case_Z@?$output_processor@DV?$stream_output_adapter@D@__crt_stdio_output@@V?$positional_parameter_base@DV?$stream_output_adapter@D@__crt_stdio_output@@@2@@1@AAE_NXZ@@Z 1003db87 f i libucrt:output.obj
 0001:0003cba7       ??$extract_argument_from_va_list@PAUansi_string@?1??type_case_Z@?$output_processor@DV?$stream_output_adapter@D@__crt_stdio_output@@V?$standard_base@DV?$stream_output_adapter@D@__crt_stdio_output@@@2@@__crt_stdio_output@@AAE_NXZ@PAU1?1??234@AAE_NXZ@@?$standard_base@DV?$stream_output_adapter@D@__crt_stdio_output@@@__crt_stdio_output@@IAE_NAAPAUansi_string@?1??type_case_Z@?$output_processor@DV?$stream_output_adapter@D@__crt_stdio_output@@V?$standard_base@DV?$stream_output_adapter@D@__crt_stdio_output@@@2@@1@AAE_NXZ@@Z 1003dba7 f i libucrt:output.obj
 0001:0003cbc7       ??$extract_argument_from_va_list@PAUansi_string@?1??type_case_Z@?$output_processor@DV?$string_output_adapter@D@__crt_stdio_output@@V?$format_validation_base@DV?$string_output_adapter@D@__crt_stdio_output@@@2@@__crt_stdio_output@@AAE_NXZ@PAU1?1??234@AAE_NXZ@@?$standard_base@DV?$string_output_adapter@D@__crt_stdio_output@@@__crt_stdio_output@@IAE_NAAPAUansi_string@?1??type_case_Z@?$output_processor@DV?$string_output_adapter@D@__crt_stdio_output@@V?$format_validation_base@DV?$string_output_adapter@D@__crt_stdio_output@@@2@@1@AAE_NXZ@@Z 1003dbc7 f i libucrt:output.obj
 0001:0003cbe7       ??$extract_argument_from_va_list@PAUansi_string@?1??type_case_Z@?$output_processor@DV?$string_output_adapter@D@__crt_stdio_output@@V?$positional_parameter_base@DV?$string_output_adapter@D@__crt_stdio_output@@@2@@__crt_stdio_output@@AAE_NXZ@PAU1?1??234@AAE_NXZ@@?$positional_parameter_base@DV?$string_output_adapter@D@__crt_stdio_output@@@__crt_stdio_output@@IAE_NAAPAUansi_string@?1??type_case_Z@?$output_processor@DV?$string_output_adapter@D@__crt_stdio_output@@V?$positional_parameter_base@DV?$string_output_adapter@D@__crt_stdio_output@@@2@@1@AAE_NXZ@@Z 1003dbe7 f i libucrt:output.obj
 0001:0003cc84       ??$extract_argument_from_va_list@PAUansi_string@?1??type_case_Z@?$output_processor@DV?$string_output_adapter@D@__crt_stdio_output@@V?$positional_parameter_base@DV?$string_output_adapter@D@__crt_stdio_output@@@2@@__crt_stdio_output@@AAE_NXZ@PAU1?1??234@AAE_NXZ@@?$standard_base@DV?$string_output_adapter@D@__crt_stdio_output@@@__crt_stdio_output@@IAE_NAAPAUansi_string@?1??type_case_Z@?$output_processor@DV?$string_output_adapter@D@__crt_stdio_output@@V?$positional_parameter_base@DV?$string_output_adapter@D@__crt_stdio_output@@@2@@1@AAE_NXZ@@Z 1003dc84 f i libucrt:output.obj
 0001:0003cca4       ??$extract_argument_from_va_list@PAUansi_string@?1??type_case_Z@?$output_processor@DV?$string_output_adapter@D@__crt_stdio_output@@V?$standard_base@DV?$string_output_adapter@D@__crt_stdio_output@@@2@@__crt_stdio_output@@AAE_NXZ@PAU1?1??234@AAE_NXZ@@?$standard_base@DV?$string_output_adapter@D@__crt_stdio_output@@@__crt_stdio_output@@IAE_NAAPAUansi_string@?1??type_case_Z@?$output_processor@DV?$string_output_adapter@D@__crt_stdio_output@@V?$standard_base@DV?$string_output_adapter@D@__crt_stdio_output@@@2@@1@AAE_NXZ@@Z 1003dca4 f i libucrt:output.obj
 0001:0003ccc4       ??$extract_argument_from_va_list@PAUansi_string@?1??type_case_Z@?$output_processor@_WV?$stream_output_adapter@_W@__crt_stdio_output@@V?$format_validation_base@_WV?$stream_output_adapter@_W@__crt_stdio_output@@@2@@__crt_stdio_output@@AAE_NXZ@PAU1?1??234@AAE_NXZ@@?$standard_base@_WV?$stream_output_adapter@_W@__crt_stdio_output@@@__crt_stdio_output@@IAE_NAAPAUansi_string@?1??type_case_Z@?$output_processor@_WV?$stream_output_adapter@_W@__crt_stdio_output@@V?$format_validation_base@_WV?$stream_output_adapter@_W@__crt_stdio_output@@@2@@1@AAE_NXZ@@Z 1003dcc4 f i libucrt:output.obj
 0001:0003cce4       ??$extract_argument_from_va_list@PAUansi_string@?1??type_case_Z@?$output_processor@_WV?$stream_output_adapter@_W@__crt_stdio_output@@V?$positional_parameter_base@_WV?$stream_output_adapter@_W@__crt_stdio_output@@@2@@__crt_stdio_output@@AAE_NXZ@PAU1?1??234@AAE_NXZ@@?$positional_parameter_base@_WV?$stream_output_adapter@_W@__crt_stdio_output@@@__crt_stdio_output@@IAE_NAAPAUansi_string@?1??type_case_Z@?$output_processor@_WV?$stream_output_adapter@_W@__crt_stdio_output@@V?$positional_parameter_base@_WV?$stream_output_adapter@_W@__crt_stdio_output@@@2@@1@AAE_NXZ@@Z 1003dce4 f i libucrt:output.obj
 0001:0003cd81       ??$extract_argument_from_va_list@PAUansi_string@?1??type_case_Z@?$output_processor@_WV?$stream_output_adapter@_W@__crt_stdio_output@@V?$positional_parameter_base@_WV?$stream_output_adapter@_W@__crt_stdio_output@@@2@@__crt_stdio_output@@AAE_NXZ@PAU1?1??234@AAE_NXZ@@?$standard_base@_WV?$stream_output_adapter@_W@__crt_stdio_output@@@__crt_stdio_output@@IAE_NAAPAUansi_string@?1??type_case_Z@?$output_processor@_WV?$stream_output_adapter@_W@__crt_stdio_output@@V?$positional_parameter_base@_WV?$stream_output_adapter@_W@__crt_stdio_output@@@2@@1@AAE_NXZ@@Z 1003dd81 f i libucrt:output.obj
 0001:0003cda1       ??$extract_argument_from_va_list@PAUansi_string@?1??type_case_Z@?$output_processor@_WV?$stream_output_adapter@_W@__crt_stdio_output@@V?$standard_base@_WV?$stream_output_adapter@_W@__crt_stdio_output@@@2@@__crt_stdio_output@@AAE_NXZ@PAU1?1??234@AAE_NXZ@@?$standard_base@_WV?$stream_output_adapter@_W@__crt_stdio_output@@@__crt_stdio_output@@IAE_NAAPAUansi_string@?1??type_case_Z@?$output_processor@_WV?$stream_output_adapter@_W@__crt_stdio_output@@V?$standard_base@_WV?$stream_output_adapter@_W@__crt_stdio_output@@@2@@1@AAE_NXZ@@Z 1003dda1 f i libucrt:output.obj
 0001:0003cdc1       ??$extract_argument_from_va_list@PAUansi_string@?1??type_case_Z@?$output_processor@_WV?$string_output_adapter@_W@__crt_stdio_output@@V?$format_validation_base@_WV?$string_output_adapter@_W@__crt_stdio_output@@@2@@__crt_stdio_output@@AAE_NXZ@PAU1?1??234@AAE_NXZ@@?$standard_base@_WV?$string_output_adapter@_W@__crt_stdio_output@@@__crt_stdio_output@@IAE_NAAPAUansi_string@?1??type_case_Z@?$output_processor@_WV?$string_output_adapter@_W@__crt_stdio_output@@V?$format_validation_base@_WV?$string_output_adapter@_W@__crt_stdio_output@@@2@@1@AAE_NXZ@@Z 1003ddc1 f i libucrt:output.obj
 0001:0003cde1       ??$extract_argument_from_va_list@PAUansi_string@?1??type_case_Z@?$output_processor@_WV?$string_output_adapter@_W@__crt_stdio_output@@V?$positional_parameter_base@_WV?$string_output_adapter@_W@__crt_stdio_output@@@2@@__crt_stdio_output@@AAE_NXZ@PAU1?1??234@AAE_NXZ@@?$positional_parameter_base@_WV?$string_output_adapter@_W@__crt_stdio_output@@@__crt_stdio_output@@IAE_NAAPAUansi_string@?1??type_case_Z@?$output_processor@_WV?$string_output_adapter@_W@__crt_stdio_output@@V?$positional_parameter_base@_WV?$string_output_adapter@_W@__crt_stdio_output@@@2@@1@AAE_NXZ@@Z 1003dde1 f i libucrt:output.obj
 0001:0003ce7e       ??$extract_argument_from_va_list@PAUansi_string@?1??type_case_Z@?$output_processor@_WV?$string_output_adapter@_W@__crt_stdio_output@@V?$positional_parameter_base@_WV?$string_output_adapter@_W@__crt_stdio_output@@@2@@__crt_stdio_output@@AAE_NXZ@PAU1?1??234@AAE_NXZ@@?$standard_base@_WV?$string_output_adapter@_W@__crt_stdio_output@@@__crt_stdio_output@@IAE_NAAPAUansi_string@?1??type_case_Z@?$output_processor@_WV?$string_output_adapter@_W@__crt_stdio_output@@V?$positional_parameter_base@_WV?$string_output_adapter@_W@__crt_stdio_output@@@2@@1@AAE_NXZ@@Z 1003de7e f i libucrt:output.obj
 0001:0003ce9e       ??$extract_argument_from_va_list@PAUansi_string@?1??type_case_Z@?$output_processor@_WV?$string_output_adapter@_W@__crt_stdio_output@@V?$standard_base@_WV?$string_output_adapter@_W@__crt_stdio_output@@@2@@__crt_stdio_output@@AAE_NXZ@PAU1?1??234@AAE_NXZ@@?$standard_base@_WV?$string_output_adapter@_W@__crt_stdio_output@@@__crt_stdio_output@@IAE_NAAPAUansi_string@?1??type_case_Z@?$output_processor@_WV?$string_output_adapter@_W@__crt_stdio_output@@V?$standard_base@_WV?$string_output_adapter@_W@__crt_stdio_output@@@2@@1@AAE_NXZ@@Z 1003de9e f i libucrt:output.obj
 0001:0003cebe       ??$extract_argument_from_va_list@PAXPAX@?$positional_parameter_base@DV?$stream_output_adapter@D@__crt_stdio_output@@@__crt_stdio_output@@IAE_NAAPAX@Z 1003debe f i libucrt:output.obj
 0001:0003cf5b       ??$extract_argument_from_va_list@PAXPAX@?$positional_parameter_base@DV?$string_output_adapter@D@__crt_stdio_output@@@__crt_stdio_output@@IAE_NAAPAX@Z 1003df5b f i libucrt:output.obj
 0001:0003cff8       ??$extract_argument_from_va_list@PAXPAX@?$positional_parameter_base@_WV?$stream_output_adapter@_W@__crt_stdio_output@@@__crt_stdio_output@@IAE_NAAPAX@Z 1003dff8 f i libucrt:output.obj
 0001:0003d095       ??$extract_argument_from_va_list@PAXPAX@?$positional_parameter_base@_WV?$string_output_adapter@_W@__crt_stdio_output@@@__crt_stdio_output@@IAE_NAAPAX@Z 1003e095 f i libucrt:output.obj
 0001:0003d132       ??$extract_argument_from_va_list@PAXPAX@?$standard_base@DV?$stream_output_adapter@D@__crt_stdio_output@@@__crt_stdio_output@@IAE_NAAPAX@Z 1003e132 f i libucrt:output.obj
 0001:0003d152       ??$extract_argument_from_va_list@PAXPAX@?$standard_base@DV?$string_output_adapter@D@__crt_stdio_output@@@__crt_stdio_output@@IAE_NAAPAX@Z 1003e152 f i libucrt:output.obj
 0001:0003d172       ??$extract_argument_from_va_list@PAXPAX@?$standard_base@_WV?$stream_output_adapter@_W@__crt_stdio_output@@@__crt_stdio_output@@IAE_NAAPAX@Z 1003e172 f i libucrt:output.obj
 0001:0003d192       ??$extract_argument_from_va_list@PAXPAX@?$standard_base@_WV?$string_output_adapter@_W@__crt_stdio_output@@@__crt_stdio_output@@IAE_NAAPAX@Z 1003e192 f i libucrt:output.obj
 0001:0003d1b2       ??$extract_argument_from_va_list@U_CRT_DOUBLE@@U1@@?$positional_parameter_base@DV?$stream_output_adapter@D@__crt_stdio_output@@@__crt_stdio_output@@IAE_NAAU_CRT_DOUBLE@@@Z 1003e1b2 f i libucrt:output.obj
 0001:0003d263       ??$extract_argument_from_va_list@U_CRT_DOUBLE@@U1@@?$positional_parameter_base@DV?$string_output_adapter@D@__crt_stdio_output@@@__crt_stdio_output@@IAE_NAAU_CRT_DOUBLE@@@Z 1003e263 f i libucrt:output.obj
 0001:0003d314       ??$extract_argument_from_va_list@U_CRT_DOUBLE@@U1@@?$positional_parameter_base@_WV?$stream_output_adapter@_W@__crt_stdio_output@@@__crt_stdio_output@@IAE_NAAU_CRT_DOUBLE@@@Z 1003e314 f i libucrt:output.obj
 0001:0003d3c5       ??$extract_argument_from_va_list@U_CRT_DOUBLE@@U1@@?$positional_parameter_base@_WV?$string_output_adapter@_W@__crt_stdio_output@@@__crt_stdio_output@@IAE_NAAU_CRT_DOUBLE@@@Z 1003e3c5 f i libucrt:output.obj
 0001:0003d476       ??$extract_argument_from_va_list@U_CRT_DOUBLE@@U1@@?$standard_base@DV?$stream_output_adapter@D@__crt_stdio_output@@@__crt_stdio_output@@IAE_NAAU_CRT_DOUBLE@@@Z 1003e476 f i libucrt:output.obj
 0001:0003d49e       ??$extract_argument_from_va_list@U_CRT_DOUBLE@@U1@@?$standard_base@DV?$string_output_adapter@D@__crt_stdio_output@@@__crt_stdio_output@@IAE_NAAU_CRT_DOUBLE@@@Z 1003e49e f i libucrt:output.obj
 0001:0003d4c6       ??$extract_argument_from_va_list@U_CRT_DOUBLE@@U1@@?$standard_base@_WV?$stream_output_adapter@_W@__crt_stdio_output@@@__crt_stdio_output@@IAE_NAAU_CRT_DOUBLE@@@Z 1003e4c6 f i libucrt:output.obj
 0001:0003d4ee       ??$extract_argument_from_va_list@U_CRT_DOUBLE@@U1@@?$standard_base@_WV?$string_output_adapter@_W@__crt_stdio_output@@@__crt_stdio_output@@IAE_NAAU_CRT_DOUBLE@@@Z 1003e4ee f i libucrt:output.obj
 0001:0003d516       ??$extract_argument_from_va_list@_J_J@?$positional_parameter_base@DV?$stream_output_adapter@D@__crt_stdio_output@@@__crt_stdio_output@@IAE_NAA_J@Z 1003e516 f i libucrt:output.obj
 0001:0003d5c7       ??$extract_argument_from_va_list@_J_J@?$positional_parameter_base@DV?$string_output_adapter@D@__crt_stdio_output@@@__crt_stdio_output@@IAE_NAA_J@Z 1003e5c7 f i libucrt:output.obj
 0001:0003d678       ??$extract_argument_from_va_list@_J_J@?$positional_parameter_base@_WV?$stream_output_adapter@_W@__crt_stdio_output@@@__crt_stdio_output@@IAE_NAA_J@Z 1003e678 f i libucrt:output.obj
 0001:0003d729       ??$extract_argument_from_va_list@_J_J@?$positional_parameter_base@_WV?$string_output_adapter@_W@__crt_stdio_output@@@__crt_stdio_output@@IAE_NAA_J@Z 1003e729 f i libucrt:output.obj
 0001:0003d7da       ??$extract_argument_from_va_list@_J_J@?$standard_base@DV?$stream_output_adapter@D@__crt_stdio_output@@@__crt_stdio_output@@IAE_NAA_J@Z 1003e7da f i libucrt:output.obj
 0001:0003d802       ??$extract_argument_from_va_list@_J_J@?$standard_base@DV?$string_output_adapter@D@__crt_stdio_output@@@__crt_stdio_output@@IAE_NAA_J@Z 1003e802 f i libucrt:output.obj
 0001:0003d82a       ??$extract_argument_from_va_list@_J_J@?$standard_base@_WV?$stream_output_adapter@_W@__crt_stdio_output@@@__crt_stdio_output@@IAE_NAA_J@Z 1003e82a f i libucrt:output.obj
 0001:0003d852       ??$extract_argument_from_va_list@_J_J@?$standard_base@_WV?$string_output_adapter@_W@__crt_stdio_output@@@__crt_stdio_output@@IAE_NAA_J@Z 1003e852 f i libucrt:output.obj
 0001:0003d87a       ??$extract_argument_from_va_list@_K_J@?$positional_parameter_base@DV?$stream_output_adapter@D@__crt_stdio_output@@@__crt_stdio_output@@IAE_NAA_J@Z 1003e87a f i libucrt:output.obj
 0001:0003d92b       ??$extract_argument_from_va_list@_K_J@?$positional_parameter_base@DV?$string_output_adapter@D@__crt_stdio_output@@@__crt_stdio_output@@IAE_NAA_J@Z 1003e92b f i libucrt:output.obj
 0001:0003d9dc       ??$extract_argument_from_va_list@_K_J@?$positional_parameter_base@_WV?$stream_output_adapter@_W@__crt_stdio_output@@@__crt_stdio_output@@IAE_NAA_J@Z 1003e9dc f i libucrt:output.obj
 0001:0003da8d       ??$extract_argument_from_va_list@_K_J@?$positional_parameter_base@_WV?$string_output_adapter@_W@__crt_stdio_output@@@__crt_stdio_output@@IAE_NAA_J@Z 1003ea8d f i libucrt:output.obj
 0001:0003db3e       ??$extract_argument_from_va_list@_K_J@?$standard_base@DV?$stream_output_adapter@D@__crt_stdio_output@@@__crt_stdio_output@@IAE_NAA_J@Z 1003eb3e f i libucrt:output.obj
 0001:0003db66       ??$extract_argument_from_va_list@_K_J@?$standard_base@DV?$string_output_adapter@D@__crt_stdio_output@@@__crt_stdio_output@@IAE_NAA_J@Z 1003eb66 f i libucrt:output.obj
 0001:0003db8e       ??$extract_argument_from_va_list@_K_J@?$standard_base@_WV?$stream_output_adapter@_W@__crt_stdio_output@@@__crt_stdio_output@@IAE_NAA_J@Z 1003eb8e f i libucrt:output.obj
 0001:0003dbb6       ??$extract_argument_from_va_list@_K_J@?$standard_base@_WV?$string_output_adapter@_W@__crt_stdio_output@@@__crt_stdio_output@@IAE_NAA_J@Z 1003ebb6 f i libucrt:output.obj
 0001:0003dbde       ??$extract_argument_from_va_list@_W_W@?$positional_parameter_base@DV?$stream_output_adapter@D@__crt_stdio_output@@@__crt_stdio_output@@IAE_NAA_W@Z 1003ebde f i libucrt:output.obj
 0001:0003dc80       ??$extract_argument_from_va_list@_W_W@?$positional_parameter_base@DV?$string_output_adapter@D@__crt_stdio_output@@@__crt_stdio_output@@IAE_NAA_W@Z 1003ec80 f i libucrt:output.obj
 0001:0003dd22       ??$extract_argument_from_va_list@_W_W@?$positional_parameter_base@_WV?$stream_output_adapter@_W@__crt_stdio_output@@@__crt_stdio_output@@IAE_NAA_W@Z 1003ed22 f i libucrt:output.obj
 0001:0003ddc4       ??$extract_argument_from_va_list@_W_W@?$positional_parameter_base@_WV?$string_output_adapter@_W@__crt_stdio_output@@@__crt_stdio_output@@IAE_NAA_W@Z 1003edc4 f i libucrt:output.obj
 0001:0003de66       ??$extract_argument_from_va_list@_W_W@?$standard_base@DV?$stream_output_adapter@D@__crt_stdio_output@@@__crt_stdio_output@@IAE_NAA_W@Z 1003ee66 f i libucrt:output.obj
 0001:0003de89       ??$extract_argument_from_va_list@_W_W@?$standard_base@DV?$string_output_adapter@D@__crt_stdio_output@@@__crt_stdio_output@@IAE_NAA_W@Z 1003ee89 f i libucrt:output.obj
 0001:0003deac       ??$extract_argument_from_va_list@_W_W@?$standard_base@_WV?$stream_output_adapter@_W@__crt_stdio_output@@@__crt_stdio_output@@IAE_NAA_W@Z 1003eeac f i libucrt:output.obj
 0001:0003decf       ??$extract_argument_from_va_list@_W_W@?$standard_base@_WV?$string_output_adapter@_W@__crt_stdio_output@@@__crt_stdio_output@@IAE_NAA_W@Z 1003eecf f i libucrt:output.obj
 0001:0003def2       ??$get_parameter_type@D@?$positional_parameter_base@DV?$stream_output_adapter@D@__crt_stdio_output@@@__crt_stdio_output@@CA?AW4parameter_type@01@PAD@Z 1003eef2 f i libucrt:output.obj
 0001:0003def6       ??$get_parameter_type@D@?$positional_parameter_base@DV?$string_output_adapter@D@__crt_stdio_output@@@__crt_stdio_output@@CA?AW4parameter_type@01@PAD@Z 1003eef6 f i libucrt:output.obj
 0001:0003defa       ??$get_parameter_type@D@?$positional_parameter_base@_WV?$stream_output_adapter@_W@__crt_stdio_output@@@__crt_stdio_output@@CA?AW4parameter_type@01@PAD@Z 1003eefa f i libucrt:output.obj
 0001:0003defe       ??$get_parameter_type@D@?$positional_parameter_base@_WV?$string_output_adapter@_W@__crt_stdio_output@@@__crt_stdio_output@@CA?AW4parameter_type@01@PAD@Z 1003eefe f i libucrt:output.obj
 0001:0003df02       ??$get_parameter_type@Uansi_string@?1??type_case_Z@?$output_processor@DV?$stream_output_adapter@D@__crt_stdio_output@@V?$positional_parameter_base@DV?$stream_output_adapter@D@__crt_stdio_output@@@2@@__crt_stdio_output@@AAE_NXZ@@?$positional_parameter_base@DV?$stream_output_adapter@D@__crt_stdio_output@@@__crt_stdio_output@@CA?AW4parameter_type@01@PAUansi_string@?1??type_case_Z@?$output_processor@DV?$stream_output_adapter@D@__crt_stdio_output@@V?$positional_parameter_base@DV?$stream_output_adapter@D@__crt_stdio_output@@@2@@1@AAE_NXZ@@Z 1003ef02 f i libucrt:output.obj
 0001:0003df06       ??$get_parameter_type@Uansi_string@?1??type_case_Z@?$output_processor@DV?$string_output_adapter@D@__crt_stdio_output@@V?$positional_parameter_base@DV?$string_output_adapter@D@__crt_stdio_output@@@2@@__crt_stdio_output@@AAE_NXZ@@?$positional_parameter_base@DV?$string_output_adapter@D@__crt_stdio_output@@@__crt_stdio_output@@CA?AW4parameter_type@01@PAUansi_string@?1??type_case_Z@?$output_processor@DV?$string_output_adapter@D@__crt_stdio_output@@V?$positional_parameter_base@DV?$string_output_adapter@D@__crt_stdio_output@@@2@@1@AAE_NXZ@@Z 1003ef06 f i libucrt:output.obj
 0001:0003df0a       ??$get_parameter_type@Uansi_string@?1??type_case_Z@?$output_processor@_WV?$stream_output_adapter@_W@__crt_stdio_output@@V?$positional_parameter_base@_WV?$stream_output_adapter@_W@__crt_stdio_output@@@2@@__crt_stdio_output@@AAE_NXZ@@?$positional_parameter_base@_WV?$stream_output_adapter@_W@__crt_stdio_output@@@__crt_stdio_output@@CA?AW4parameter_type@01@PAUansi_string@?1??type_case_Z@?$output_processor@_WV?$stream_output_adapter@_W@__crt_stdio_output@@V?$positional_parameter_base@_WV?$stream_output_adapter@_W@__crt_stdio_output@@@2@@1@AAE_NXZ@@Z 1003ef0a f i libucrt:output.obj
 0001:0003df0e       ??$get_parameter_type@Uansi_string@?1??type_case_Z@?$output_processor@_WV?$string_output_adapter@_W@__crt_stdio_output@@V?$positional_parameter_base@_WV?$string_output_adapter@_W@__crt_stdio_output@@@2@@__crt_stdio_output@@AAE_NXZ@@?$positional_parameter_base@_WV?$string_output_adapter@_W@__crt_stdio_output@@@__crt_stdio_output@@CA?AW4parameter_type@01@PAUansi_string@?1??type_case_Z@?$output_processor@_WV?$string_output_adapter@_W@__crt_stdio_output@@V?$positional_parameter_base@_WV?$string_output_adapter@_W@__crt_stdio_output@@@2@@1@AAE_NXZ@@Z 1003ef0e f i libucrt:output.obj
 0001:0003df12       ??$get_parameter_type@X@?$positional_parameter_base@DV?$stream_output_adapter@D@__crt_stdio_output@@@__crt_stdio_output@@CA?AW4parameter_type@01@PAX@Z 1003ef12 f i libucrt:output.obj
 0001:0003df16       ??$get_parameter_type@X@?$positional_parameter_base@DV?$string_output_adapter@D@__crt_stdio_output@@@__crt_stdio_output@@CA?AW4parameter_type@01@PAX@Z 1003ef16 f i libucrt:output.obj
 0001:0003df1a       ??$get_parameter_type@X@?$positional_parameter_base@_WV?$stream_output_adapter@_W@__crt_stdio_output@@@__crt_stdio_output@@CA?AW4parameter_type@01@PAX@Z 1003ef1a f i libucrt:output.obj
 0001:0003df1e       ??$get_parameter_type@X@?$positional_parameter_base@_WV?$string_output_adapter@_W@__crt_stdio_output@@@__crt_stdio_output@@CA?AW4parameter_type@01@PAX@Z 1003ef1e f i libucrt:output.obj
 0001:0003df22       ??$is_character_specifier@D@?$positional_parameter_base@DV?$stream_output_adapter@D@__crt_stdio_output@@@__crt_stdio_output@@CA_ND@Z 1003ef22 f i libucrt:output.obj
 0001:0003df41       ??$is_character_specifier@D@?$positional_parameter_base@DV?$string_output_adapter@D@__crt_stdio_output@@@__crt_stdio_output@@CA_ND@Z 1003ef41 f i libucrt:output.obj
 0001:0003df60       ??$is_character_specifier@_W@?$positional_parameter_base@_WV?$stream_output_adapter@_W@__crt_stdio_output@@@__crt_stdio_output@@CA_N_W@Z 1003ef60 f i libucrt:output.obj
 0001:0003df83       ??$is_character_specifier@_W@?$positional_parameter_base@_WV?$string_output_adapter@_W@__crt_stdio_output@@@__crt_stdio_output@@CA_N_W@Z 1003ef83 f i libucrt:output.obj
 0001:0003dfa6       ??$is_integral_specifier@D@?$positional_parameter_base@DV?$stream_output_adapter@D@__crt_stdio_output@@@__crt_stdio_output@@CA_ND@Z 1003efa6 f i libucrt:output.obj
 0001:0003dfde       ??$is_integral_specifier@D@?$positional_parameter_base@DV?$string_output_adapter@D@__crt_stdio_output@@@__crt_stdio_output@@CA_ND@Z 1003efde f i libucrt:output.obj
 0001:0003e016       ??$is_integral_specifier@_W@?$positional_parameter_base@_WV?$stream_output_adapter@_W@__crt_stdio_output@@@__crt_stdio_output@@CA_N_W@Z 1003f016 f i libucrt:output.obj
 0001:0003e061       ??$is_integral_specifier@_W@?$positional_parameter_base@_WV?$string_output_adapter@_W@__crt_stdio_output@@@__crt_stdio_output@@CA_N_W@Z 1003f061 f i libucrt:output.obj
 0001:0003e0ac       ??$is_pointer_specifier@D@?$positional_parameter_base@DV?$stream_output_adapter@D@__crt_stdio_output@@@__crt_stdio_output@@CA_ND@Z 1003f0ac f i libucrt:output.obj
 0001:0003e0c0       ??$is_pointer_specifier@D@?$positional_parameter_base@DV?$string_output_adapter@D@__crt_stdio_output@@@__crt_stdio_output@@CA_ND@Z 1003f0c0 f i libucrt:output.obj
 0001:0003e0d4       ??$is_pointer_specifier@_W@?$positional_parameter_base@_WV?$stream_output_adapter@_W@__crt_stdio_output@@@__crt_stdio_output@@CA_N_W@Z 1003f0d4 f i libucrt:output.obj
 0001:0003e0e9       ??$is_pointer_specifier@_W@?$positional_parameter_base@_WV?$string_output_adapter@_W@__crt_stdio_output@@@__crt_stdio_output@@CA_N_W@Z 1003f0e9 f i libucrt:output.obj
 0001:0003e0fe       ??$is_string_specifier@D@?$positional_parameter_base@DV?$stream_output_adapter@D@__crt_stdio_output@@@__crt_stdio_output@@CA_ND@Z 1003f0fe f i libucrt:output.obj
 0001:0003e11d       ??$is_string_specifier@D@?$positional_parameter_base@DV?$string_output_adapter@D@__crt_stdio_output@@@__crt_stdio_output@@CA_ND@Z 1003f11d f i libucrt:output.obj
 0001:0003e13c       ??$is_string_specifier@_W@?$positional_parameter_base@_WV?$stream_output_adapter@_W@__crt_stdio_output@@@__crt_stdio_output@@CA_N_W@Z 1003f13c f i libucrt:output.obj
 0001:0003e15f       ??$is_string_specifier@_W@?$positional_parameter_base@_WV?$string_output_adapter@_W@__crt_stdio_output@@@__crt_stdio_output@@CA_N_W@Z 1003f15f f i libucrt:output.obj
 0001:0003e182       ??$is_wide_character_specifier@D@__crt_stdio_output@@YA_N_KDW4length_modifier@0@@Z 1003f182 f i libucrt:output.obj
 0001:0003e1d2       ??$is_wide_character_specifier@_W@__crt_stdio_output@@YA_N_K_WW4length_modifier@0@@Z 1003f1d2 f i libucrt:output.obj
 0001:0003e234       ??$peek_va_arg@C@__crt_stdio_output@@YACPAD@Z 1003f234 f i libucrt:output.obj
 0001:0003e243       ??$peek_va_arg@E@__crt_stdio_output@@YAEPAD@Z 1003f243 f i libucrt:output.obj
 0001:0003e252       ??$peek_va_arg@F@__crt_stdio_output@@YAFPAD@Z 1003f252 f i libucrt:output.obj
 0001:0003e262       ??$peek_va_arg@G@__crt_stdio_output@@YAGPAD@Z 1003f262 f i libucrt:output.obj
 0001:0003e272       ??$peek_va_arg@H@__crt_stdio_output@@YAHPAD@Z 1003f272 f i libucrt:output.obj
 0001:0003e281       ??$peek_va_arg@I@__crt_stdio_output@@YAIPAD@Z 1003f281 f i libucrt:output.obj
 0001:0003e290       ??$peek_va_arg@PAD@__crt_stdio_output@@YAPADPAD@Z 1003f290 f i libucrt:output.obj
 0001:0003e29f       ??$peek_va_arg@PAUansi_string@?1??type_case_Z@?$output_processor@DV?$stream_output_adapter@D@__crt_stdio_output@@V?$positional_parameter_base@DV?$stream_output_adapter@D@__crt_stdio_output@@@2@@__crt_stdio_output@@AAE_NXZ@@__crt_stdio_output@@YAPAUansi_string@?1??type_case_Z@?$output_processor@DV?$stream_output_adapter@D@__crt_stdio_output@@V?$positional_parameter_base@DV?$stream_output_adapter@D@__crt_stdio_output@@@2@@0@AAE_NXZ@PAD@Z 1003f29f f i libucrt:output.obj
 0001:0003e2ae       ??$peek_va_arg@PAUansi_string@?1??type_case_Z@?$output_processor@DV?$string_output_adapter@D@__crt_stdio_output@@V?$positional_parameter_base@DV?$string_output_adapter@D@__crt_stdio_output@@@2@@__crt_stdio_output@@AAE_NXZ@@__crt_stdio_output@@YAPAUansi_string@?1??type_case_Z@?$output_processor@DV?$string_output_adapter@D@__crt_stdio_output@@V?$positional_parameter_base@DV?$string_output_adapter@D@__crt_stdio_output@@@2@@0@AAE_NXZ@PAD@Z 1003f2ae f i libucrt:output.obj
 0001:0003e2bd       ??$peek_va_arg@PAUansi_string@?1??type_case_Z@?$output_processor@_WV?$stream_output_adapter@_W@__crt_stdio_output@@V?$positional_parameter_base@_WV?$stream_output_adapter@_W@__crt_stdio_output@@@2@@__crt_stdio_output@@AAE_NXZ@@__crt_stdio_output@@YAPAUansi_string@?1??type_case_Z@?$output_processor@_WV?$stream_output_adapter@_W@__crt_stdio_output@@V?$positional_parameter_base@_WV?$stream_output_adapter@_W@__crt_stdio_output@@@2@@0@AAE_NXZ@PAD@Z 1003f2bd f i libucrt:output.obj
 0001:0003e2cc       ??$peek_va_arg@PAUansi_string@?1??type_case_Z@?$output_processor@_WV?$string_output_adapter@_W@__crt_stdio_output@@V?$positional_parameter_base@_WV?$string_output_adapter@_W@__crt_stdio_output@@@2@@__crt_stdio_output@@AAE_NXZ@@__crt_stdio_output@@YAPAUansi_string@?1??type_case_Z@?$output_processor@_WV?$string_output_adapter@_W@__crt_stdio_output@@V?$positional_parameter_base@_WV?$string_output_adapter@_W@__crt_stdio_output@@@2@@0@AAE_NXZ@PAD@Z 1003f2cc f i libucrt:output.obj
 0001:0003e2db       ??$peek_va_arg@PAX@__crt_stdio_output@@YAPAXPAD@Z 1003f2db f i libucrt:output.obj
 0001:0003e2ea       ??$peek_va_arg@U_CRT_DOUBLE@@@__crt_stdio_output@@YA?AU_CRT_DOUBLE@@PAD@Z 1003f2ea f i libucrt:output.obj
 0001:0003e2fc       ??$peek_va_arg@_J@__crt_stdio_output@@YA_JPAD@Z 1003f2fc f i libucrt:output.obj
 0001:0003e30e       ??$peek_va_arg@_K@__crt_stdio_output@@YA_KPAD@Z 1003f30e f i libucrt:output.obj
 0001:0003e320       ??$peek_va_arg@_W@__crt_stdio_output@@YA_WPAD@Z 1003f320 f i libucrt:output.obj
 0001:0003e330       ??$puttc_nolock@ABDPAU_iobuf@@@?$__crt_char_traits@D@@SAHABD$$QAPAU_iobuf@@@Z 1003f330 f i libucrt:output.obj
 0001:0003e350       ??$puttc_nolock@AB_WPAU_iobuf@@@?$__crt_char_traits@_W@@SAGAB_W$$QAPAU_iobuf@@@Z 1003f350 f i libucrt:output.obj
 0001:0003e370       ??$read_va_arg@C@__crt_stdio_output@@YACAAPAD@Z 1003f370 f i libucrt:output.obj
 0001:0003e386       ??$read_va_arg@E@__crt_stdio_output@@YAEAAPAD@Z 1003f386 f i libucrt:output.obj
 0001:0003e39c       ??$read_va_arg@F@__crt_stdio_output@@YAFAAPAD@Z 1003f39c f i libucrt:output.obj
 0001:0003e3b3       ??$read_va_arg@G@__crt_stdio_output@@YAGAAPAD@Z 1003f3b3 f i libucrt:output.obj
 0001:0003e3ca       ??$read_va_arg@H@__crt_stdio_output@@YAHAAPAD@Z 1003f3ca f i libucrt:output.obj
 0001:0003e3e0       ??$read_va_arg@I@__crt_stdio_output@@YAIAAPAD@Z 1003f3e0 f i libucrt:output.obj
 0001:0003e3f6       ??$read_va_arg@PAD@__crt_stdio_output@@YAPADAAPAD@Z 1003f3f6 f i libucrt:output.obj
 0001:0003e40c       ??$read_va_arg@PAUansi_string@?1??type_case_Z@?$output_processor@DV?$stream_output_adapter@D@__crt_stdio_output@@V?$format_validation_base@DV?$stream_output_adapter@D@__crt_stdio_output@@@2@@__crt_stdio_output@@AAE_NXZ@@__crt_stdio_output@@YAPAUansi_string@?1??type_case_Z@?$output_processor@DV?$stream_output_adapter@D@__crt_stdio_output@@V?$format_validation_base@DV?$stream_output_adapter@D@__crt_stdio_output@@@2@@0@AAE_NXZ@AAPAD@Z 1003f40c f i libucrt:output.obj
 0001:0003e422       ??$read_va_arg@PAUansi_string@?1??type_case_Z@?$output_processor@DV?$stream_output_adapter@D@__crt_stdio_output@@V?$positional_parameter_base@DV?$stream_output_adapter@D@__crt_stdio_output@@@2@@__crt_stdio_output@@AAE_NXZ@@__crt_stdio_output@@YAPAUansi_string@?1??type_case_Z@?$output_processor@DV?$stream_output_adapter@D@__crt_stdio_output@@V?$positional_parameter_base@DV?$stream_output_adapter@D@__crt_stdio_output@@@2@@0@AAE_NXZ@AAPAD@Z 1003f422 f i libucrt:output.obj
 0001:0003e438       ??$read_va_arg@PAUansi_string@?1??type_case_Z@?$output_processor@DV?$stream_output_adapter@D@__crt_stdio_output@@V?$standard_base@DV?$stream_output_adapter@D@__crt_stdio_output@@@2@@__crt_stdio_output@@AAE_NXZ@@__crt_stdio_output@@YAPAUansi_string@?1??type_case_Z@?$output_processor@DV?$stream_output_adapter@D@__crt_stdio_output@@V?$standard_base@DV?$stream_output_adapter@D@__crt_stdio_output@@@2@@0@AAE_NXZ@AAPAD@Z 1003f438 f i libucrt:output.obj
 0001:0003e44e       ??$read_va_arg@PAUansi_string@?1??type_case_Z@?$output_processor@DV?$string_output_adapter@D@__crt_stdio_output@@V?$format_validation_base@DV?$string_output_adapter@D@__crt_stdio_output@@@2@@__crt_stdio_output@@AAE_NXZ@@__crt_stdio_output@@YAPAUansi_string@?1??type_case_Z@?$output_processor@DV?$string_output_adapter@D@__crt_stdio_output@@V?$format_validation_base@DV?$string_output_adapter@D@__crt_stdio_output@@@2@@0@AAE_NXZ@AAPAD@Z 1003f44e f i libucrt:output.obj
 0001:0003e464       ??$read_va_arg@PAUansi_string@?1??type_case_Z@?$output_processor@DV?$string_output_adapter@D@__crt_stdio_output@@V?$positional_parameter_base@DV?$string_output_adapter@D@__crt_stdio_output@@@2@@__crt_stdio_output@@AAE_NXZ@@__crt_stdio_output@@YAPAUansi_string@?1??type_case_Z@?$output_processor@DV?$string_output_adapter@D@__crt_stdio_output@@V?$positional_parameter_base@DV?$string_output_adapter@D@__crt_stdio_output@@@2@@0@AAE_NXZ@AAPAD@Z 1003f464 f i libucrt:output.obj
 0001:0003e47a       ??$read_va_arg@PAUansi_string@?1??type_case_Z@?$output_processor@DV?$string_output_adapter@D@__crt_stdio_output@@V?$standard_base@DV?$string_output_adapter@D@__crt_stdio_output@@@2@@__crt_stdio_output@@AAE_NXZ@@__crt_stdio_output@@YAPAUansi_string@?1??type_case_Z@?$output_processor@DV?$string_output_adapter@D@__crt_stdio_output@@V?$standard_base@DV?$string_output_adapter@D@__crt_stdio_output@@@2@@0@AAE_NXZ@AAPAD@Z 1003f47a f i libucrt:output.obj
 0001:0003e490       ??$read_va_arg@PAUansi_string@?1??type_case_Z@?$output_processor@_WV?$stream_output_adapter@_W@__crt_stdio_output@@V?$format_validation_base@_WV?$stream_output_adapter@_W@__crt_stdio_output@@@2@@__crt_stdio_output@@AAE_NXZ@@__crt_stdio_output@@YAPAUansi_string@?1??type_case_Z@?$output_processor@_WV?$stream_output_adapter@_W@__crt_stdio_output@@V?$format_validation_base@_WV?$stream_output_adapter@_W@__crt_stdio_output@@@2@@0@AAE_NXZ@AAPAD@Z 1003f490 f i libucrt:output.obj
 0001:0003e4a6       ??$read_va_arg@PAUansi_string@?1??type_case_Z@?$output_processor@_WV?$stream_output_adapter@_W@__crt_stdio_output@@V?$positional_parameter_base@_WV?$stream_output_adapter@_W@__crt_stdio_output@@@2@@__crt_stdio_output@@AAE_NXZ@@__crt_stdio_output@@YAPAUansi_string@?1??type_case_Z@?$output_processor@_WV?$stream_output_adapter@_W@__crt_stdio_output@@V?$positional_parameter_base@_WV?$stream_output_adapter@_W@__crt_stdio_output@@@2@@0@AAE_NXZ@AAPAD@Z 1003f4a6 f i libucrt:output.obj
 0001:0003e4bc       ??$read_va_arg@PAUansi_string@?1??type_case_Z@?$output_processor@_WV?$stream_output_adapter@_W@__crt_stdio_output@@V?$standard_base@_WV?$stream_output_adapter@_W@__crt_stdio_output@@@2@@__crt_stdio_output@@AAE_NXZ@@__crt_stdio_output@@YAPAUansi_string@?1??type_case_Z@?$output_processor@_WV?$stream_output_adapter@_W@__crt_stdio_output@@V?$standard_base@_WV?$stream_output_adapter@_W@__crt_stdio_output@@@2@@0@AAE_NXZ@AAPAD@Z 1003f4bc f i libucrt:output.obj
 0001:0003e4d2       ??$read_va_arg@PAUansi_string@?1??type_case_Z@?$output_processor@_WV?$string_output_adapter@_W@__crt_stdio_output@@V?$format_validation_base@_WV?$string_output_adapter@_W@__crt_stdio_output@@@2@@__crt_stdio_output@@AAE_NXZ@@__crt_stdio_output@@YAPAUansi_string@?1??type_case_Z@?$output_processor@_WV?$string_output_adapter@_W@__crt_stdio_output@@V?$format_validation_base@_WV?$string_output_adapter@_W@__crt_stdio_output@@@2@@0@AAE_NXZ@AAPAD@Z 1003f4d2 f i libucrt:output.obj
 0001:0003e4e8       ??$read_va_arg@PAUansi_string@?1??type_case_Z@?$output_processor@_WV?$string_output_adapter@_W@__crt_stdio_output@@V?$positional_parameter_base@_WV?$string_output_adapter@_W@__crt_stdio_output@@@2@@__crt_stdio_output@@AAE_NXZ@@__crt_stdio_output@@YAPAUansi_string@?1??type_case_Z@?$output_processor@_WV?$string_output_adapter@_W@__crt_stdio_output@@V?$positional_parameter_base@_WV?$string_output_adapter@_W@__crt_stdio_output@@@2@@0@AAE_NXZ@AAPAD@Z 1003f4e8 f i libucrt:output.obj
 0001:0003e4fe       ??$read_va_arg@PAUansi_string@?1??type_case_Z@?$output_processor@_WV?$string_output_adapter@_W@__crt_stdio_output@@V?$standard_base@_WV?$string_output_adapter@_W@__crt_stdio_output@@@2@@__crt_stdio_output@@AAE_NXZ@@__crt_stdio_output@@YAPAUansi_string@?1??type_case_Z@?$output_processor@_WV?$string_output_adapter@_W@__crt_stdio_output@@V?$standard_base@_WV?$string_output_adapter@_W@__crt_stdio_output@@@2@@0@AAE_NXZ@AAPAD@Z 1003f4fe f i libucrt:output.obj
 0001:0003e514       ??$read_va_arg@PAX@__crt_stdio_output@@YAPAXAAPAD@Z 1003f514 f i libucrt:output.obj
 0001:0003e52a       ??$read_va_arg@U_CRT_DOUBLE@@@__crt_stdio_output@@YA?AU_CRT_DOUBLE@@AAPAD@Z 1003f52a f i libucrt:output.obj
 0001:0003e544       ??$read_va_arg@_J@__crt_stdio_output@@YA_JAAPAD@Z 1003f544 f i libucrt:output.obj
 0001:0003e55e       ??$read_va_arg@_K@__crt_stdio_output@@YA_KAAPAD@Z 1003f55e f i libucrt:output.obj
 0001:0003e578       ??$read_va_arg@_W@__crt_stdio_output@@YA_WAAPAD@Z 1003f578 f i libucrt:output.obj
 0001:0003e58f       ??$scratch_count@D@formatting_buffer@__crt_stdio_output@@QBEIXZ 1003f58f f i libucrt:output.obj
 0001:0003e594       ??$scratch_data@D@formatting_buffer@__crt_stdio_output@@QAEPADXZ 1003f594 f i libucrt:output.obj
 0001:0003e5b9       ??$tcstol@AAPBDPAPADH@?$__crt_char_traits@D@@SAJAAPBD$$QAPAPAD$$QAH@Z 1003f5b9 f i libucrt:output.obj
 0001:0003e5de       ??$tcstol@AAPB_WPAPA_WH@?$__crt_char_traits@_W@@SAJAAPB_W$$QAPAPA_W$$QAH@Z 1003f5de f i libucrt:output.obj
 0001:0003e603       ??$tcstol@PBDPAPADH@?$__crt_char_traits@D@@SAJ$$QAPBD$$QAPAPAD$$QAH@Z 1003f603 f i libucrt:output.obj
 0001:0003e628       ??$tcstol@PB_WPAPA_WH@?$__crt_char_traits@_W@@SAJ$$QAPB_W$$QAPAPA_W$$QAH@Z 1003f628 f i libucrt:output.obj
 0001:0003e64d       ??$type_case_integer_parse_into_buffer@I@?$output_processor@DV?$stream_output_adapter@D@__crt_stdio_output@@V?$format_validation_base@DV?$stream_output_adapter@D@__crt_stdio_output@@@2@@__crt_stdio_output@@AAEXII_N@Z 1003f64d f i libucrt:output.obj
 0001:0003e6df       ??$type_case_integer_parse_into_buffer@I@?$output_processor@DV?$stream_output_adapter@D@__crt_stdio_output@@V?$positional_parameter_base@DV?$stream_output_adapter@D@__crt_stdio_output@@@2@@__crt_stdio_output@@AAEXII_N@Z 1003f6df f i libucrt:output.obj
 0001:0003e771       ??$type_case_integer_parse_into_buffer@I@?$output_processor@DV?$stream_output_adapter@D@__crt_stdio_output@@V?$standard_base@DV?$stream_output_adapter@D@__crt_stdio_output@@@2@@__crt_stdio_output@@AAEXII_N@Z 1003f771 f i libucrt:output.obj
 0001:0003e803       ??$type_case_integer_parse_into_buffer@I@?$output_processor@DV?$string_output_adapter@D@__crt_stdio_output@@V?$format_validation_base@DV?$string_output_adapter@D@__crt_stdio_output@@@2@@__crt_stdio_output@@AAEXII_N@Z 1003f803 f i libucrt:output.obj
 0001:0003e895       ??$type_case_integer_parse_into_buffer@I@?$output_processor@DV?$string_output_adapter@D@__crt_stdio_output@@V?$positional_parameter_base@DV?$string_output_adapter@D@__crt_stdio_output@@@2@@__crt_stdio_output@@AAEXII_N@Z 1003f895 f i libucrt:output.obj
 0001:0003e927       ??$type_case_integer_parse_into_buffer@I@?$output_processor@DV?$string_output_adapter@D@__crt_stdio_output@@V?$standard_base@DV?$string_output_adapter@D@__crt_stdio_output@@@2@@__crt_stdio_output@@AAEXII_N@Z 1003f927 f i libucrt:output.obj
 0001:0003e9b9       ??$type_case_integer_parse_into_buffer@I@?$output_processor@_WV?$stream_output_adapter@_W@__crt_stdio_output@@V?$format_validation_base@_WV?$stream_output_adapter@_W@__crt_stdio_output@@@2@@__crt_stdio_output@@AAEXII_N@Z 1003f9b9 f i libucrt:output.obj
 0001:0003ea4b       ??$type_case_integer_parse_into_buffer@I@?$output_processor@_WV?$stream_output_adapter@_W@__crt_stdio_output@@V?$positional_parameter_base@_WV?$stream_output_adapter@_W@__crt_stdio_output@@@2@@__crt_stdio_output@@AAEXII_N@Z 1003fa4b f i libucrt:output.obj
 0001:0003eadd       ??$type_case_integer_parse_into_buffer@I@?$output_processor@_WV?$stream_output_adapter@_W@__crt_stdio_output@@V?$standard_base@_WV?$stream_output_adapter@_W@__crt_stdio_output@@@2@@__crt_stdio_output@@AAEXII_N@Z 1003fadd f i libucrt:output.obj
 0001:0003eb6f       ??$type_case_integer_parse_into_buffer@I@?$output_processor@_WV?$string_output_adapter@_W@__crt_stdio_output@@V?$format_validation_base@_WV?$string_output_adapter@_W@__crt_stdio_output@@@2@@__crt_stdio_output@@AAEXII_N@Z 1003fb6f f i libucrt:output.obj
 0001:0003ec01       ??$type_case_integer_parse_into_buffer@I@?$output_processor@_WV?$string_output_adapter@_W@__crt_stdio_output@@V?$positional_parameter_base@_WV?$string_output_adapter@_W@__crt_stdio_output@@@2@@__crt_stdio_output@@AAEXII_N@Z 1003fc01 f i libucrt:output.obj
 0001:0003ec93       ??$type_case_integer_parse_into_buffer@I@?$output_processor@_WV?$string_output_adapter@_W@__crt_stdio_output@@V?$standard_base@_WV?$string_output_adapter@_W@__crt_stdio_output@@@2@@__crt_stdio_output@@AAEXII_N@Z 1003fc93 f i libucrt:output.obj
 0001:0003ed25       ??$type_case_integer_parse_into_buffer@_K@?$output_processor@DV?$stream_output_adapter@D@__crt_stdio_output@@V?$format_validation_base@DV?$stream_output_adapter@D@__crt_stdio_output@@@2@@__crt_stdio_output@@AAEX_KI_N@Z 1003fd25 f i libucrt:output.obj
 0001:0003edcf       ??$type_case_integer_parse_into_buffer@_K@?$output_processor@DV?$stream_output_adapter@D@__crt_stdio_output@@V?$positional_parameter_base@DV?$stream_output_adapter@D@__crt_stdio_output@@@2@@__crt_stdio_output@@AAEX_KI_N@Z 1003fdcf f i libucrt:output.obj
 0001:0003ee79       ??$type_case_integer_parse_into_buffer@_K@?$output_processor@DV?$stream_output_adapter@D@__crt_stdio_output@@V?$standard_base@DV?$stream_output_adapter@D@__crt_stdio_output@@@2@@__crt_stdio_output@@AAEX_KI_N@Z 1003fe79 f i libucrt:output.obj
 0001:0003ef23       ??$type_case_integer_parse_into_buffer@_K@?$output_processor@DV?$string_output_adapter@D@__crt_stdio_output@@V?$format_validation_base@DV?$string_output_adapter@D@__crt_stdio_output@@@2@@__crt_stdio_output@@AAEX_KI_N@Z 1003ff23 f i libucrt:output.obj
 0001:0003efcd       ??$type_case_integer_parse_into_buffer@_K@?$output_processor@DV?$string_output_adapter@D@__crt_stdio_output@@V?$positional_parameter_base@DV?$string_output_adapter@D@__crt_stdio_output@@@2@@__crt_stdio_output@@AAEX_KI_N@Z 1003ffcd f i libucrt:output.obj
 0001:0003f077       ??$type_case_integer_parse_into_buffer@_K@?$output_processor@DV?$string_output_adapter@D@__crt_stdio_output@@V?$standard_base@DV?$string_output_adapter@D@__crt_stdio_output@@@2@@__crt_stdio_output@@AAEX_KI_N@Z 10040077 f i libucrt:output.obj
 0001:0003f121       ??$type_case_integer_parse_into_buffer@_K@?$output_processor@_WV?$stream_output_adapter@_W@__crt_stdio_output@@V?$format_validation_base@_WV?$stream_output_adapter@_W@__crt_stdio_output@@@2@@__crt_stdio_output@@AAEX_KI_N@Z 10040121 f i libucrt:output.obj
 0001:0003f1cb       ??$type_case_integer_parse_into_buffer@_K@?$output_processor@_WV?$stream_output_adapter@_W@__crt_stdio_output@@V?$positional_parameter_base@_WV?$stream_output_adapter@_W@__crt_stdio_output@@@2@@__crt_stdio_output@@AAEX_KI_N@Z 100401cb f i libucrt:output.obj
 0001:0003f275       ??$type_case_integer_parse_into_buffer@_K@?$output_processor@_WV?$stream_output_adapter@_W@__crt_stdio_output@@V?$standard_base@_WV?$stream_output_adapter@_W@__crt_stdio_output@@@2@@__crt_stdio_output@@AAEX_KI_N@Z 10040275 f i libucrt:output.obj
 0001:0003f31f       ??$type_case_integer_parse_into_buffer@_K@?$output_processor@_WV?$string_output_adapter@_W@__crt_stdio_output@@V?$format_validation_base@_WV?$string_output_adapter@_W@__crt_stdio_output@@@2@@__crt_stdio_output@@AAEX_KI_N@Z 1004031f f i libucrt:output.obj
 0001:0003f3c9       ??$type_case_integer_parse_into_buffer@_K@?$output_processor@_WV?$string_output_adapter@_W@__crt_stdio_output@@V?$positional_parameter_base@_WV?$string_output_adapter@_W@__crt_stdio_output@@@2@@__crt_stdio_output@@AAEX_KI_N@Z 100403c9 f i libucrt:output.obj
 0001:0003f473       ??$type_case_integer_parse_into_buffer@_K@?$output_processor@_WV?$string_output_adapter@_W@__crt_stdio_output@@V?$standard_base@_WV?$string_output_adapter@_W@__crt_stdio_output@@@2@@__crt_stdio_output@@AAEX_KI_N@Z 10040473 f i libucrt:output.obj
 0001:0003f51d       ??$write_multiple_characters@V?$stream_output_adapter@D@__crt_stdio_output@@D@__crt_stdio_output@@YAXABV?$stream_output_adapter@D@0@DHQAH@Z 1004051d f i libucrt:output.obj
 0001:0003f554       ??$write_multiple_characters@V?$stream_output_adapter@_W@__crt_stdio_output@@D@__crt_stdio_output@@YAXABV?$stream_output_adapter@_W@0@DHQAH@Z 10040554 f i libucrt:output.obj
 0001:0003f591       ??$write_multiple_characters@V?$string_output_adapter@D@__crt_stdio_output@@D@__crt_stdio_output@@YAXABV?$string_output_adapter@D@0@DHQAH@Z 10040591 f i libucrt:output.obj
 0001:0003f5c8       ??$write_multiple_characters@V?$string_output_adapter@_W@__crt_stdio_output@@D@__crt_stdio_output@@YAXABV?$string_output_adapter@_W@0@DHQAH@Z 100405c8 f i libucrt:output.obj
 0001:0003f839       ??0?$common_data@D@__crt_stdio_output@@IAE@XZ 10040839 f i libucrt:output.obj
 0001:0003f891       ??0?$common_data@_W@__crt_stdio_output@@IAE@XZ 10040891 f i libucrt:output.obj
 0001:0003f8f0       ??0?$output_adapter_data@DV?$stream_output_adapter@D@__crt_stdio_output@@@__crt_stdio_output@@IAE@ABV?$stream_output_adapter@D@1@_KQBDQAU__crt_locale_pointers@@QAD@Z 100408f0 f i libucrt:output.obj
 0001:0003f93b       ??0?$output_adapter_data@DV?$string_output_adapter@D@__crt_stdio_output@@@__crt_stdio_output@@IAE@ABV?$string_output_adapter@D@1@_KQBDQAU__crt_locale_pointers@@QAD@Z 1004093b f i libucrt:output.obj
 0001:0003f986       ??0?$output_adapter_data@_WV?$stream_output_adapter@_W@__crt_stdio_output@@@__crt_stdio_output@@IAE@ABV?$stream_output_adapter@_W@1@_KQB_WQAU__crt_locale_pointers@@QAD@Z 10040986 f i libucrt:output.obj
 0001:0003f9d1       ??0?$output_adapter_data@_WV?$string_output_adapter@_W@__crt_stdio_output@@@__crt_stdio_output@@IAE@ABV?$string_output_adapter@_W@1@_KQB_WQAU__crt_locale_pointers@@QAD@Z 100409d1 f i libucrt:output.obj
 0001:0003fa1c       ??0?$output_processor@DV?$stream_output_adapter@D@__crt_stdio_output@@V?$format_validation_base@DV?$stream_output_adapter@D@__crt_stdio_output@@@2@@__crt_stdio_output@@QAE@ABV?$stream_output_adapter@D@1@_KQBDQAU__crt_locale_pointers@@QAD@Z 10040a1c f i libucrt:output.obj
 0001:0003fa5e       ??0?$output_processor@DV?$stream_output_adapter@D@__crt_stdio_output@@V?$positional_parameter_base@DV?$stream_output_adapter@D@__crt_stdio_output@@@2@@__crt_stdio_output@@QAE@ABV?$stream_output_adapter@D@1@_KQBDQAU__crt_locale_pointers@@QAD@Z 10040a5e f i libucrt:output.obj
 0001:0003fa98       ??0?$output_processor@DV?$stream_output_adapter@D@__crt_stdio_output@@V?$standard_base@DV?$stream_output_adapter@D@__crt_stdio_output@@@2@@__crt_stdio_output@@QAE@ABV?$stream_output_adapter@D@1@_KQBDQAU__crt_locale_pointers@@QAD@Z 10040a98 f i libucrt:output.obj
 0001:0003fada       ??0?$output_processor@DV?$string_output_adapter@D@__crt_stdio_output@@V?$format_validation_base@DV?$string_output_adapter@D@__crt_stdio_output@@@2@@__crt_stdio_output@@QAE@ABV?$string_output_adapter@D@1@_KQBDQAU__crt_locale_pointers@@QAD@Z 10040ada f i libucrt:output.obj
 0001:0003fb1c       ??0?$output_processor@DV?$string_output_adapter@D@__crt_stdio_output@@V?$positional_parameter_base@DV?$string_output_adapter@D@__crt_stdio_output@@@2@@__crt_stdio_output@@QAE@ABV?$string_output_adapter@D@1@_KQBDQAU__crt_locale_pointers@@QAD@Z 10040b1c f i libucrt:output.obj
 0001:0003fb56       ??0?$output_processor@DV?$string_output_adapter@D@__crt_stdio_output@@V?$standard_base@DV?$string_output_adapter@D@__crt_stdio_output@@@2@@__crt_stdio_output@@QAE@ABV?$string_output_adapter@D@1@_KQBDQAU__crt_locale_pointers@@QAD@Z 10040b56 f i libucrt:output.obj
 0001:0003fb98       ??0?$output_processor@_WV?$stream_output_adapter@_W@__crt_stdio_output@@V?$format_validation_base@_WV?$stream_output_adapter@_W@__crt_stdio_output@@@2@@__crt_stdio_output@@QAE@ABV?$stream_output_adapter@_W@1@_KQB_WQAU__crt_locale_pointers@@QAD@Z 10040b98 f i libucrt:output.obj
 0001:0003fbda       ??0?$output_processor@_WV?$stream_output_adapter@_W@__crt_stdio_output@@V?$positional_parameter_base@_WV?$stream_output_adapter@_W@__crt_stdio_output@@@2@@__crt_stdio_output@@QAE@ABV?$stream_output_adapter@_W@1@_KQB_WQAU__crt_locale_pointers@@QAD@Z 10040bda f i libucrt:output.obj
 0001:0003fc14       ??0?$output_processor@_WV?$stream_output_adapter@_W@__crt_stdio_output@@V?$standard_base@_WV?$stream_output_adapter@_W@__crt_stdio_output@@@2@@__crt_stdio_output@@QAE@ABV?$stream_output_adapter@_W@1@_KQB_WQAU__crt_locale_pointers@@QAD@Z 10040c14 f i libucrt:output.obj
 0001:0003fc56       ??0?$output_processor@_WV?$string_output_adapter@_W@__crt_stdio_output@@V?$format_validation_base@_WV?$string_output_adapter@_W@__crt_stdio_output@@@2@@__crt_stdio_output@@QAE@ABV?$string_output_adapter@_W@1@_KQB_WQAU__crt_locale_pointers@@QAD@Z 10040c56 f i libucrt:output.obj
 0001:0003fc98       ??0?$output_processor@_WV?$string_output_adapter@_W@__crt_stdio_output@@V?$positional_parameter_base@_WV?$string_output_adapter@_W@__crt_stdio_output@@@2@@__crt_stdio_output@@QAE@ABV?$string_output_adapter@_W@1@_KQB_WQAU__crt_locale_pointers@@QAD@Z 10040c98 f i libucrt:output.obj
 0001:0003fcd2       ??0?$output_processor@_WV?$string_output_adapter@_W@__crt_stdio_output@@V?$standard_base@_WV?$string_output_adapter@_W@__crt_stdio_output@@@2@@__crt_stdio_output@@QAE@ABV?$string_output_adapter@_W@1@_KQB_WQAU__crt_locale_pointers@@QAD@Z 10040cd2 f i libucrt:output.obj
 0001:0003fd14       ??0?$stream_output_adapter@D@__crt_stdio_output@@QAE@QAU_iobuf@@@Z 10040d14 f i libucrt:output.obj
 0001:0003fd28       ??0?$stream_output_adapter@_W@__crt_stdio_output@@QAE@QAU_iobuf@@@Z 10040d28 f i libucrt:output.obj
 0001:0003fd3c       ??0?$string_output_adapter@D@__crt_stdio_output@@QAE@QAU?$string_output_adapter_context@D@1@@Z 10040d3c f i libucrt:output.obj
 0001:0003fd50       ??0?$string_output_adapter@_W@__crt_stdio_output@@QAE@QAU?$string_output_adapter_context@_W@1@@Z 10040d50 f i libucrt:output.obj
 0001:0003fd64       ??0_LocaleUpdate@@QAE@QAU__crt_locale_pointers@@@Z 10040d64 f i libucrt:output.obj
 0001:0003fe07       ??0__acrt_stdio_temporary_buffering_guard@@QAE@QAU_iobuf@@@Z 10040e07 f i libucrt:output.obj
 0001:0003fe2c       ??0__crt_errno_guard@@QAE@QAH@Z 10040e2c f i libucrt:output.obj
 0001:0003fe4a       ??0formatting_buffer@__crt_stdio_output@@QAE@XZ 10040e4a f i libucrt:output.obj
 0001:0003fe5f       ??1?$common_data@D@__crt_stdio_output@@QAE@XZ 10040e5f f i libucrt:output.obj
 0001:0003fe69       ??1?$common_data@_W@__crt_stdio_output@@QAE@XZ 10040e69 f i libucrt:output.obj
 0001:0003fe73       ??1?$format_validation_base@DV?$stream_output_adapter@D@__crt_stdio_output@@@__crt_stdio_output@@QAE@XZ 10040e73 f i libucrt:output.obj
 0001:0003fe7d       ??1?$format_validation_base@DV?$string_output_adapter@D@__crt_stdio_output@@@__crt_stdio_output@@QAE@XZ 10040e7d f i libucrt:output.obj
 0001:0003fe87       ??1?$format_validation_base@_WV?$stream_output_adapter@_W@__crt_stdio_output@@@__crt_stdio_output@@QAE@XZ 10040e87 f i libucrt:output.obj
 0001:0003fe91       ??1?$format_validation_base@_WV?$string_output_adapter@_W@__crt_stdio_output@@@__crt_stdio_output@@QAE@XZ 10040e91 f i libucrt:output.obj
 0001:0003fe9b       ??1?$output_adapter_data@DV?$stream_output_adapter@D@__crt_stdio_output@@@__crt_stdio_output@@QAE@XZ 10040e9b f i libucrt:output.obj
 0001:0003fea5       ??1?$output_adapter_data@DV?$string_output_adapter@D@__crt_stdio_output@@@__crt_stdio_output@@QAE@XZ 10040ea5 f i libucrt:output.obj
 0001:0003feaf       ??1?$output_adapter_data@_WV?$stream_output_adapter@_W@__crt_stdio_output@@@__crt_stdio_output@@QAE@XZ 10040eaf f i libucrt:output.obj
 0001:0003feb9       ??1?$output_adapter_data@_WV?$string_output_adapter@_W@__crt_stdio_output@@@__crt_stdio_output@@QAE@XZ 10040eb9 f i libucrt:output.obj
 0001:0003fec3       ??1?$output_processor@DV?$stream_output_adapter@D@__crt_stdio_output@@V?$format_validation_base@DV?$stream_output_adapter@D@__crt_stdio_output@@@2@@__crt_stdio_output@@QAE@XZ 10040ec3 f i libucrt:output.obj
 0001:0003fecd       ??1?$output_processor@DV?$stream_output_adapter@D@__crt_stdio_output@@V?$positional_parameter_base@DV?$stream_output_adapter@D@__crt_stdio_output@@@2@@__crt_stdio_output@@QAE@XZ 10040ecd f i libucrt:output.obj
 0001:0003fed7       ??1?$output_processor@DV?$stream_output_adapter@D@__crt_stdio_output@@V?$standard_base@DV?$stream_output_adapter@D@__crt_stdio_output@@@2@@__crt_stdio_output@@QAE@XZ 10040ed7 f i libucrt:output.obj
 0001:0003fee1       ??1?$output_processor@DV?$string_output_adapter@D@__crt_stdio_output@@V?$format_validation_base@DV?$string_output_adapter@D@__crt_stdio_output@@@2@@__crt_stdio_output@@QAE@XZ 10040ee1 f i libucrt:output.obj
 0001:0003feeb       ??1?$output_processor@DV?$string_output_adapter@D@__crt_stdio_output@@V?$positional_parameter_base@DV?$string_output_adapter@D@__crt_stdio_output@@@2@@__crt_stdio_output@@QAE@XZ 10040eeb f i libucrt:output.obj
 0001:0003fef5       ??1?$output_processor@DV?$string_output_adapter@D@__crt_stdio_output@@V?$standard_base@DV?$string_output_adapter@D@__crt_stdio_output@@@2@@__crt_stdio_output@@QAE@XZ 10040ef5 f i libucrt:output.obj
 0001:0003feff       ??1?$output_processor@_WV?$stream_output_adapter@_W@__crt_stdio_output@@V?$format_validation_base@_WV?$stream_output_adapter@_W@__crt_stdio_output@@@2@@__crt_stdio_output@@QAE@XZ 10040eff f i libucrt:output.obj
 0001:0003ff09       ??1?$output_processor@_WV?$stream_output_adapter@_W@__crt_stdio_output@@V?$positional_parameter_base@_WV?$stream_output_adapter@_W@__crt_stdio_output@@@2@@__crt_stdio_output@@QAE@XZ 10040f09 f i libucrt:output.obj
 0001:0003ff13       ??1?$output_processor@_WV?$stream_output_adapter@_W@__crt_stdio_output@@V?$standard_base@_WV?$stream_output_adapter@_W@__crt_stdio_output@@@2@@__crt_stdio_output@@QAE@XZ 10040f13 f i libucrt:output.obj
 0001:0003ff1d       ??1?$output_processor@_WV?$string_output_adapter@_W@__crt_stdio_output@@V?$format_validation_base@_WV?$string_output_adapter@_W@__crt_stdio_output@@@2@@__crt_stdio_output@@QAE@XZ 10040f1d f i libucrt:output.obj
 0001:0003ff27       ??1?$output_processor@_WV?$string_output_adapter@_W@__crt_stdio_output@@V?$positional_parameter_base@_WV?$string_output_adapter@_W@__crt_stdio_output@@@2@@__crt_stdio_output@@QAE@XZ 10040f27 f i libucrt:output.obj
 0001:0003ff31       ??1?$output_processor@_WV?$string_output_adapter@_W@__crt_stdio_output@@V?$standard_base@_WV?$string_output_adapter@_W@__crt_stdio_output@@@2@@__crt_stdio_output@@QAE@XZ 10040f31 f i libucrt:output.obj
 0001:0003ff3b       ??1?$positional_parameter_base@DV?$stream_output_adapter@D@__crt_stdio_output@@@__crt_stdio_output@@QAE@XZ 10040f3b f i libucrt:output.obj
 0001:0003ff45       ??1?$positional_parameter_base@DV?$string_output_adapter@D@__crt_stdio_output@@@__crt_stdio_output@@QAE@XZ 10040f45 f i libucrt:output.obj
 0001:0003ff4f       ??1?$positional_parameter_base@_WV?$stream_output_adapter@_W@__crt_stdio_output@@@__crt_stdio_output@@QAE@XZ 10040f4f f i libucrt:output.obj
 0001:0003ff59       ??1?$positional_parameter_base@_WV?$string_output_adapter@_W@__crt_stdio_output@@@__crt_stdio_output@@QAE@XZ 10040f59 f i libucrt:output.obj
 0001:0003ff63       ??1?$standard_base@DV?$stream_output_adapter@D@__crt_stdio_output@@@__crt_stdio_output@@QAE@XZ 10040f63 f i libucrt:output.obj
 0001:0003ff6d       ??1?$standard_base@DV?$string_output_adapter@D@__crt_stdio_output@@@__crt_stdio_output@@QAE@XZ 10040f6d f i libucrt:output.obj
 0001:0003ff77       ??1?$standard_base@_WV?$stream_output_adapter@_W@__crt_stdio_output@@@__crt_stdio_output@@QAE@XZ 10040f77 f i libucrt:output.obj
 0001:0003ff81       ??1?$standard_base@_WV?$string_output_adapter@_W@__crt_stdio_output@@@__crt_stdio_output@@QAE@XZ 10040f81 f i libucrt:output.obj
 0001:0003ff8b       ??1_LocaleUpdate@@QAE@XZ   10040f8b f i libucrt:output.obj
 0001:0003ff9f       ??1__acrt_stdio_temporary_buffering_guard@@QAE@XZ 10040f9f f i libucrt:output.obj
 0001:0003ffb1       ??1__crt_errno_guard@@QAE@XZ 10040fb1 f i libucrt:output.obj
 0001:0003ffc6       ??1formatting_buffer@__crt_stdio_output@@QAE@XZ 10040fc6 f i libucrt:output.obj
 0001:0003ffe6       ??4?$__crt_unique_heap_ptr@DU__crt_internal_free_policy@@@@QAEAAV0@$$QAV0@@Z 10040fe6 f i libucrt:output.obj
 0001:000406c9       ?GetLocaleT@_LocaleUpdate@@QAEPAU__crt_locale_pointers@@XZ 100416c9 f i libucrt:output.obj
 0001:000406cd       ?__crt_interlocked_read_32@@YAHPDH@Z 100416cd f i libucrt:output.obj
 0001:000406dc       ?adjust_hexit@?$output_processor@DV?$stream_output_adapter@D@__crt_stdio_output@@V?$format_validation_base@DV?$stream_output_adapter@D@__crt_stdio_output@@@2@@__crt_stdio_output@@CADH_N@Z 100416dc f i libucrt:output.obj
 0001:00040701       ?adjust_hexit@?$output_processor@DV?$stream_output_adapter@D@__crt_stdio_output@@V?$positional_parameter_base@DV?$stream_output_adapter@D@__crt_stdio_output@@@2@@__crt_stdio_output@@CADH_N@Z 10041701 f i libucrt:output.obj
 0001:00040726       ?adjust_hexit@?$output_processor@DV?$stream_output_adapter@D@__crt_stdio_output@@V?$standard_base@DV?$stream_output_adapter@D@__crt_stdio_output@@@2@@__crt_stdio_output@@CADH_N@Z 10041726 f i libucrt:output.obj
 0001:0004074b       ?adjust_hexit@?$output_processor@DV?$string_output_adapter@D@__crt_stdio_output@@V?$format_validation_base@DV?$string_output_adapter@D@__crt_stdio_output@@@2@@__crt_stdio_output@@CADH_N@Z 1004174b f i libucrt:output.obj
 0001:00040770       ?adjust_hexit@?$output_processor@DV?$string_output_adapter@D@__crt_stdio_output@@V?$positional_parameter_base@DV?$string_output_adapter@D@__crt_stdio_output@@@2@@__crt_stdio_output@@CADH_N@Z 10041770 f i libucrt:output.obj
 0001:00040795       ?adjust_hexit@?$output_processor@DV?$string_output_adapter@D@__crt_stdio_output@@V?$standard_base@DV?$string_output_adapter@D@__crt_stdio_output@@@2@@__crt_stdio_output@@CADH_N@Z 10041795 f i libucrt:output.obj
 0001:000407ba       ?adjust_hexit@?$output_processor@_WV?$stream_output_adapter@_W@__crt_stdio_output@@V?$format_validation_base@_WV?$stream_output_adapter@_W@__crt_stdio_output@@@2@@__crt_stdio_output@@CADH_N@Z 100417ba f i libucrt:output.obj
 0001:000407df       ?adjust_hexit@?$output_processor@_WV?$stream_output_adapter@_W@__crt_stdio_output@@V?$positional_parameter_base@_WV?$stream_output_adapter@_W@__crt_stdio_output@@@2@@__crt_stdio_output@@CADH_N@Z 100417df f i libucrt:output.obj
 0001:00040804       ?adjust_hexit@?$output_processor@_WV?$stream_output_adapter@_W@__crt_stdio_output@@V?$standard_base@_WV?$stream_output_adapter@_W@__crt_stdio_output@@@2@@__crt_stdio_output@@CADH_N@Z 10041804 f i libucrt:output.obj
 0001:00040829       ?adjust_hexit@?$output_processor@_WV?$string_output_adapter@_W@__crt_stdio_output@@V?$format_validation_base@_WV?$string_output_adapter@_W@__crt_stdio_output@@@2@@__crt_stdio_output@@CADH_N@Z 10041829 f i libucrt:output.obj
 0001:0004084e       ?adjust_hexit@?$output_processor@_WV?$string_output_adapter@_W@__crt_stdio_output@@V?$positional_parameter_base@_WV?$string_output_adapter@_W@__crt_stdio_output@@@2@@__crt_stdio_output@@CADH_N@Z 1004184e f i libucrt:output.obj
 0001:00040873       ?adjust_hexit@?$output_processor@_WV?$string_output_adapter@_W@__crt_stdio_output@@V?$standard_base@_WV?$string_output_adapter@_W@__crt_stdio_output@@@2@@__crt_stdio_output@@CADH_N@Z 10041873 f i libucrt:output.obj
 0001:00040898       ?advance_to_next_pass@?$positional_parameter_base@DV?$stream_output_adapter@D@__crt_stdio_output@@@__crt_stdio_output@@IAE_NXZ 10041898 f i libucrt:output.obj
 0001:000408f7       ?advance_to_next_pass@?$positional_parameter_base@DV?$string_output_adapter@D@__crt_stdio_output@@@__crt_stdio_output@@IAE_NXZ 100418f7 f i libucrt:output.obj
 0001:00040956       ?advance_to_next_pass@?$positional_parameter_base@_WV?$stream_output_adapter@_W@__crt_stdio_output@@@__crt_stdio_output@@IAE_NXZ 10041956 f i libucrt:output.obj
 0001:000409b5       ?advance_to_next_pass@?$positional_parameter_base@_WV?$string_output_adapter@_W@__crt_stdio_output@@@__crt_stdio_output@@IAE_NXZ 100419b5 f i libucrt:output.obj
 0001:00040a14       ?advance_to_next_pass@?$standard_base@DV?$stream_output_adapter@D@__crt_stdio_output@@@__crt_stdio_output@@IAE_NXZ 10041a14 f i libucrt:output.obj
 0001:00040a2b       ?advance_to_next_pass@?$standard_base@DV?$string_output_adapter@D@__crt_stdio_output@@@__crt_stdio_output@@IAE_NXZ 10041a2b f i libucrt:output.obj
 0001:00040a42       ?advance_to_next_pass@?$standard_base@_WV?$stream_output_adapter@_W@__crt_stdio_output@@@__crt_stdio_output@@IAE_NXZ 10041a42 f i libucrt:output.obj
 0001:00040a59       ?advance_to_next_pass@?$standard_base@_WV?$string_output_adapter@_W@__crt_stdio_output@@@__crt_stdio_output@@IAE_NXZ 10041a59 f i libucrt:output.obj
 0001:00040a70       ?crop_zeroes@__crt_stdio_output@@YAXPADQAU__crt_locale_pointers@@@Z 10041a70 f i libucrt:output.obj
 0001:00040adc       ?find_next_state@?$output_processor@DV?$stream_output_adapter@D@__crt_stdio_output@@V?$format_validation_base@DV?$stream_output_adapter@D@__crt_stdio_output@@@2@@__crt_stdio_output@@ABE?AW4state@2@DW432@@Z 10041adc f i libucrt:output.obj
 0001:00040b1e       ?find_next_state@?$output_processor@DV?$stream_output_adapter@D@__crt_stdio_output@@V?$positional_parameter_base@DV?$stream_output_adapter@D@__crt_stdio_output@@@2@@__crt_stdio_output@@ABE?AW4state@2@DW432@@Z 10041b1e f i libucrt:output.obj
 0001:00040b60       ?find_next_state@?$output_processor@DV?$stream_output_adapter@D@__crt_stdio_output@@V?$standard_base@DV?$stream_output_adapter@D@__crt_stdio_output@@@2@@__crt_stdio_output@@ABE?AW4state@2@DW432@@Z 10041b60 f i libucrt:output.obj
 0001:00040b9e       ?find_next_state@?$output_processor@DV?$string_output_adapter@D@__crt_stdio_output@@V?$format_validation_base@DV?$string_output_adapter@D@__crt_stdio_output@@@2@@__crt_stdio_output@@ABE?AW4state@2@DW432@@Z 10041b9e f i libucrt:output.obj
 0001:00040be0       ?find_next_state@?$output_processor@DV?$string_output_adapter@D@__crt_stdio_output@@V?$positional_parameter_base@DV?$string_output_adapter@D@__crt_stdio_output@@@2@@__crt_stdio_output@@ABE?AW4state@2@DW432@@Z 10041be0 f i libucrt:output.obj
 0001:00040c22       ?find_next_state@?$output_processor@DV?$string_output_adapter@D@__crt_stdio_output@@V?$standard_base@DV?$string_output_adapter@D@__crt_stdio_output@@@2@@__crt_stdio_output@@ABE?AW4state@2@DW432@@Z 10041c22 f i libucrt:output.obj
 0001:00040c60       ?find_next_state@?$output_processor@_WV?$stream_output_adapter@_W@__crt_stdio_output@@V?$format_validation_base@_WV?$stream_output_adapter@_W@__crt_stdio_output@@@2@@__crt_stdio_output@@ABE?AW4state@2@_WW432@@Z 10041c60 f i libucrt:output.obj
 0001:00040ca4       ?find_next_state@?$output_processor@_WV?$stream_output_adapter@_W@__crt_stdio_output@@V?$positional_parameter_base@_WV?$stream_output_adapter@_W@__crt_stdio_output@@@2@@__crt_stdio_output@@ABE?AW4state@2@_WW432@@Z 10041ca4 f i libucrt:output.obj
 0001:00040ce8       ?find_next_state@?$output_processor@_WV?$stream_output_adapter@_W@__crt_stdio_output@@V?$standard_base@_WV?$stream_output_adapter@_W@__crt_stdio_output@@@2@@__crt_stdio_output@@ABE?AW4state@2@_WW432@@Z 10041ce8 f i libucrt:output.obj
 0001:00040d29       ?find_next_state@?$output_processor@_WV?$string_output_adapter@_W@__crt_stdio_output@@V?$format_validation_base@_WV?$string_output_adapter@_W@__crt_stdio_output@@@2@@__crt_stdio_output@@ABE?AW4state@2@_WW432@@Z 10041d29 f i libucrt:output.obj
 0001:00040d6d       ?find_next_state@?$output_processor@_WV?$string_output_adapter@_W@__crt_stdio_output@@V?$positional_parameter_base@_WV?$string_output_adapter@_W@__crt_stdio_output@@@2@@__crt_stdio_output@@ABE?AW4state@2@_WW432@@Z 10041d6d f i libucrt:output.obj
 0001:00040db1       ?find_next_state@?$output_processor@_WV?$string_output_adapter@_W@__crt_stdio_output@@V?$standard_base@_WV?$string_output_adapter@_W@__crt_stdio_output@@@2@@__crt_stdio_output@@ABE?AW4state@2@_WW432@@Z 10041db1 f i libucrt:output.obj
 0001:00040df2       ?force_decimal_point@__crt_stdio_output@@YAXPADQAU__crt_locale_pointers@@@Z 10041df2 f i libucrt:output.obj
 0001:00040e65       ?get_flags@__crt_stdio_stream@@QBEJXZ 10041e65 f i libucrt:output.obj
 0001:00040e6b       ?get_parameter_type@?$positional_parameter_base@DV?$stream_output_adapter@D@__crt_stdio_output@@@__crt_stdio_output@@CA?AW4parameter_type@12@F@Z 10041e6b f i libucrt:output.obj
 0001:00040e6f       ?get_parameter_type@?$positional_parameter_base@DV?$stream_output_adapter@D@__crt_stdio_output@@@__crt_stdio_output@@CA?AW4parameter_type@12@G@Z 10041e6f f i libucrt:output.obj
 0001:00040e73       ?get_parameter_type@?$positional_parameter_base@DV?$stream_output_adapter@D@__crt_stdio_output@@@__crt_stdio_output@@CA?AW4parameter_type@12@H@Z 10041e73 f i libucrt:output.obj
 0001:00040e77       ?get_parameter_type@?$positional_parameter_base@DV?$stream_output_adapter@D@__crt_stdio_output@@@__crt_stdio_output@@CA?AW4parameter_type@12@I@Z 10041e77 f i libucrt:output.obj
 0001:00040e7b       ?get_parameter_type@?$positional_parameter_base@DV?$stream_output_adapter@D@__crt_stdio_output@@@__crt_stdio_output@@CA?AW4parameter_type@12@U_CRT_DOUBLE@@@Z 10041e7b f i libucrt:output.obj
 0001:00040e7f       ?get_parameter_type@?$positional_parameter_base@DV?$stream_output_adapter@D@__crt_stdio_output@@@__crt_stdio_output@@CA?AW4parameter_type@12@_J@Z 10041e7f f i libucrt:output.obj
 0001:00040e83       ?get_parameter_type@?$positional_parameter_base@DV?$stream_output_adapter@D@__crt_stdio_output@@@__crt_stdio_output@@CA?AW4parameter_type@12@_K@Z 10041e83 f i libucrt:output.obj
 0001:00040e87       ?get_parameter_type@?$positional_parameter_base@DV?$stream_output_adapter@D@__crt_stdio_output@@@__crt_stdio_output@@CA?AW4parameter_type@12@_W@Z 10041e87 f i libucrt:output.obj
 0001:00040e8b       ?get_parameter_type@?$positional_parameter_base@DV?$string_output_adapter@D@__crt_stdio_output@@@__crt_stdio_output@@CA?AW4parameter_type@12@F@Z 10041e8b f i libucrt:output.obj
 0001:00040e8f       ?get_parameter_type@?$positional_parameter_base@DV?$string_output_adapter@D@__crt_stdio_output@@@__crt_stdio_output@@CA?AW4parameter_type@12@G@Z 10041e8f f i libucrt:output.obj
 0001:00040e93       ?get_parameter_type@?$positional_parameter_base@DV?$string_output_adapter@D@__crt_stdio_output@@@__crt_stdio_output@@CA?AW4parameter_type@12@H@Z 10041e93 f i libucrt:output.obj
 0001:00040e97       ?get_parameter_type@?$positional_parameter_base@DV?$string_output_adapter@D@__crt_stdio_output@@@__crt_stdio_output@@CA?AW4parameter_type@12@I@Z 10041e97 f i libucrt:output.obj
 0001:00040e9b       ?get_parameter_type@?$positional_parameter_base@DV?$string_output_adapter@D@__crt_stdio_output@@@__crt_stdio_output@@CA?AW4parameter_type@12@U_CRT_DOUBLE@@@Z 10041e9b f i libucrt:output.obj
 0001:00040e9f       ?get_parameter_type@?$positional_parameter_base@DV?$string_output_adapter@D@__crt_stdio_output@@@__crt_stdio_output@@CA?AW4parameter_type@12@_J@Z 10041e9f f i libucrt:output.obj
 0001:00040ea3       ?get_parameter_type@?$positional_parameter_base@DV?$string_output_adapter@D@__crt_stdio_output@@@__crt_stdio_output@@CA?AW4parameter_type@12@_K@Z 10041ea3 f i libucrt:output.obj
 0001:00040ea7       ?get_parameter_type@?$positional_parameter_base@DV?$string_output_adapter@D@__crt_stdio_output@@@__crt_stdio_output@@CA?AW4parameter_type@12@_W@Z 10041ea7 f i libucrt:output.obj
 0001:00040eab       ?get_parameter_type@?$positional_parameter_base@_WV?$stream_output_adapter@_W@__crt_stdio_output@@@__crt_stdio_output@@CA?AW4parameter_type@12@F@Z 10041eab f i libucrt:output.obj
 0001:00040eaf       ?get_parameter_type@?$positional_parameter_base@_WV?$stream_output_adapter@_W@__crt_stdio_output@@@__crt_stdio_output@@CA?AW4parameter_type@12@G@Z 10041eaf f i libucrt:output.obj
 0001:00040eb3       ?get_parameter_type@?$positional_parameter_base@_WV?$stream_output_adapter@_W@__crt_stdio_output@@@__crt_stdio_output@@CA?AW4parameter_type@12@H@Z 10041eb3 f i libucrt:output.obj
 0001:00040eb7       ?get_parameter_type@?$positional_parameter_base@_WV?$stream_output_adapter@_W@__crt_stdio_output@@@__crt_stdio_output@@CA?AW4parameter_type@12@I@Z 10041eb7 f i libucrt:output.obj
 0001:00040ebb       ?get_parameter_type@?$positional_parameter_base@_WV?$stream_output_adapter@_W@__crt_stdio_output@@@__crt_stdio_output@@CA?AW4parameter_type@12@U_CRT_DOUBLE@@@Z 10041ebb f i libucrt:output.obj
 0001:00040ebf       ?get_parameter_type@?$positional_parameter_base@_WV?$stream_output_adapter@_W@__crt_stdio_output@@@__crt_stdio_output@@CA?AW4parameter_type@12@_J@Z 10041ebf f i libucrt:output.obj
 0001:00040ec3       ?get_parameter_type@?$positional_parameter_base@_WV?$stream_output_adapter@_W@__crt_stdio_output@@@__crt_stdio_output@@CA?AW4parameter_type@12@_K@Z 10041ec3 f i libucrt:output.obj
 0001:00040ec7       ?get_parameter_type@?$positional_parameter_base@_WV?$stream_output_adapter@_W@__crt_stdio_output@@@__crt_stdio_output@@CA?AW4parameter_type@12@_W@Z 10041ec7 f i libucrt:output.obj
 0001:00040ecb       ?get_parameter_type@?$positional_parameter_base@_WV?$string_output_adapter@_W@__crt_stdio_output@@@__crt_stdio_output@@CA?AW4parameter_type@12@F@Z 10041ecb f i libucrt:output.obj
 0001:00040ecf       ?get_parameter_type@?$positional_parameter_base@_WV?$string_output_adapter@_W@__crt_stdio_output@@@__crt_stdio_output@@CA?AW4parameter_type@12@G@Z 10041ecf f i libucrt:output.obj
 0001:00040ed3       ?get_parameter_type@?$positional_parameter_base@_WV?$string_output_adapter@_W@__crt_stdio_output@@@__crt_stdio_output@@CA?AW4parameter_type@12@H@Z 10041ed3 f i libucrt:output.obj
 0001:00040ed7       ?get_parameter_type@?$positional_parameter_base@_WV?$string_output_adapter@_W@__crt_stdio_output@@@__crt_stdio_output@@CA?AW4parameter_type@12@I@Z 10041ed7 f i libucrt:output.obj
 0001:00040edb       ?get_parameter_type@?$positional_parameter_base@_WV?$string_output_adapter@_W@__crt_stdio_output@@@__crt_stdio_output@@CA?AW4parameter_type@12@U_CRT_DOUBLE@@@Z 10041edb f i libucrt:output.obj
 0001:00040edf       ?get_parameter_type@?$positional_parameter_base@_WV?$string_output_adapter@_W@__crt_stdio_output@@@__crt_stdio_output@@CA?AW4parameter_type@12@_J@Z 10041edf f i libucrt:output.obj
 0001:00040ee3       ?get_parameter_type@?$positional_parameter_base@_WV?$string_output_adapter@_W@__crt_stdio_output@@@__crt_stdio_output@@CA?AW4parameter_type@12@_K@Z 10041ee3 f i libucrt:output.obj
 0001:00040ee7       ?get_parameter_type@?$positional_parameter_base@_WV?$string_output_adapter@_W@__crt_stdio_output@@@__crt_stdio_output@@CA?AW4parameter_type@12@_W@Z 10041ee7 f i libucrt:output.obj
 0001:00040eeb       ?has_flag@?$output_processor@DV?$stream_output_adapter@D@__crt_stdio_output@@V?$format_validation_base@DV?$stream_output_adapter@D@__crt_stdio_output@@@2@@__crt_stdio_output@@ABE_NI@Z 10041eeb f i libucrt:output.obj
 0001:00040f05       ?has_flag@?$output_processor@DV?$stream_output_adapter@D@__crt_stdio_output@@V?$positional_parameter_base@DV?$stream_output_adapter@D@__crt_stdio_output@@@2@@__crt_stdio_output@@ABE_NI@Z 10041f05 f i libucrt:output.obj
 0001:00040f1f       ?has_flag@?$output_processor@DV?$stream_output_adapter@D@__crt_stdio_output@@V?$standard_base@DV?$stream_output_adapter@D@__crt_stdio_output@@@2@@__crt_stdio_output@@ABE_NI@Z 10041f1f f i libucrt:output.obj
 0001:00040f39       ?has_flag@?$output_processor@DV?$string_output_adapter@D@__crt_stdio_output@@V?$format_validation_base@DV?$string_output_adapter@D@__crt_stdio_output@@@2@@__crt_stdio_output@@ABE_NI@Z 10041f39 f i libucrt:output.obj
 0001:00040f53       ?has_flag@?$output_processor@DV?$string_output_adapter@D@__crt_stdio_output@@V?$positional_parameter_base@DV?$string_output_adapter@D@__crt_stdio_output@@@2@@__crt_stdio_output@@ABE_NI@Z 10041f53 f i libucrt:output.obj
 0001:00040f6d       ?has_flag@?$output_processor@DV?$string_output_adapter@D@__crt_stdio_output@@V?$standard_base@DV?$string_output_adapter@D@__crt_stdio_output@@@2@@__crt_stdio_output@@ABE_NI@Z 10041f6d f i libucrt:output.obj
 0001:00040f87       ?has_flag@?$output_processor@_WV?$stream_output_adapter@_W@__crt_stdio_output@@V?$format_validation_base@_WV?$stream_output_adapter@_W@__crt_stdio_output@@@2@@__crt_stdio_output@@ABE_NI@Z 10041f87 f i libucrt:output.obj
 0001:00040fa1       ?has_flag@?$output_processor@_WV?$stream_output_adapter@_W@__crt_stdio_output@@V?$positional_parameter_base@_WV?$stream_output_adapter@_W@__crt_stdio_output@@@2@@__crt_stdio_output@@ABE_NI@Z 10041fa1 f i libucrt:output.obj
 0001:00040fbb       ?has_flag@?$output_processor@_WV?$stream_output_adapter@_W@__crt_stdio_output@@V?$standard_base@_WV?$stream_output_adapter@_W@__crt_stdio_output@@@2@@__crt_stdio_output@@ABE_NI@Z 10041fbb f i libucrt:output.obj
 0001:00040fd5       ?has_flag@?$output_processor@_WV?$string_output_adapter@_W@__crt_stdio_output@@V?$format_validation_base@_WV?$string_output_adapter@_W@__crt_stdio_output@@@2@@__crt_stdio_output@@ABE_NI@Z 10041fd5 f i libucrt:output.obj
 0001:00040fef       ?has_flag@?$output_processor@_WV?$string_output_adapter@_W@__crt_stdio_output@@V?$positional_parameter_base@_WV?$string_output_adapter@_W@__crt_stdio_output@@@2@@__crt_stdio_output@@ABE_NI@Z 10041fef f i libucrt:output.obj
 0001:00041009       ?has_flag@?$output_processor@_WV?$string_output_adapter@_W@__crt_stdio_output@@V?$standard_base@_WV?$string_output_adapter@_W@__crt_stdio_output@@@2@@__crt_stdio_output@@ABE_NI@Z 10042009 f i libucrt:output.obj
 0001:00041023       ?is_positional_parameter_reappearance_consistent@?$positional_parameter_base@DV?$stream_output_adapter@D@__crt_stdio_output@@@__crt_stdio_output@@AAE_NABUparameter_data@12@W4parameter_type@12@DW4length_modifier@2@@Z 10042023 f i libucrt:output.obj
 0001:0004119c       ?is_positional_parameter_reappearance_consistent@?$positional_parameter_base@DV?$string_output_adapter@D@__crt_stdio_output@@@__crt_stdio_output@@AAE_NABUparameter_data@12@W4parameter_type@12@DW4length_modifier@2@@Z 1004219c f i libucrt:output.obj
 0001:00041315       ?is_positional_parameter_reappearance_consistent@?$positional_parameter_base@_WV?$stream_output_adapter@_W@__crt_stdio_output@@@__crt_stdio_output@@AAE_NABUparameter_data@12@W4parameter_type@12@_WW4length_modifier@2@@Z 10042315 f i libucrt:output.obj
 0001:00041480       ?is_positional_parameter_reappearance_consistent@?$positional_parameter_base@_WV?$string_output_adapter@_W@__crt_stdio_output@@@__crt_stdio_output@@AAE_NABUparameter_data@12@W4parameter_type@12@_WW4length_modifier@2@@Z 10042480 f i libucrt:output.obj
 0001:000415eb       ?is_string_backed@__crt_stdio_stream@@QBE_NXZ 100425eb f i libucrt:output.obj
 0001:000415fa       ?narrow_null_string@?$output_processor@DV?$stream_output_adapter@D@__crt_stdio_output@@V?$format_validation_base@DV?$stream_output_adapter@D@__crt_stdio_output@@@2@@__crt_stdio_output@@CAPADXZ 100425fa f i libucrt:output.obj
 0001:00041600       ?narrow_null_string@?$output_processor@DV?$stream_output_adapter@D@__crt_stdio_output@@V?$positional_parameter_base@DV?$stream_output_adapter@D@__crt_stdio_output@@@2@@__crt_stdio_output@@CAPADXZ 10042600 f i libucrt:output.obj
 0001:00041606       ?narrow_null_string@?$output_processor@DV?$stream_output_adapter@D@__crt_stdio_output@@V?$standard_base@DV?$stream_output_adapter@D@__crt_stdio_output@@@2@@__crt_stdio_output@@CAPADXZ 10042606 f i libucrt:output.obj
 0001:0004160c       ?narrow_null_string@?$output_processor@DV?$string_output_adapter@D@__crt_stdio_output@@V?$format_validation_base@DV?$string_output_adapter@D@__crt_stdio_output@@@2@@__crt_stdio_output@@CAPADXZ 1004260c f i libucrt:output.obj
 0001:00041612       ?narrow_null_string@?$output_processor@DV?$string_output_adapter@D@__crt_stdio_output@@V?$positional_parameter_base@DV?$string_output_adapter@D@__crt_stdio_output@@@2@@__crt_stdio_output@@CAPADXZ 10042612 f i libucrt:output.obj
 0001:00041618       ?narrow_null_string@?$output_processor@DV?$string_output_adapter@D@__crt_stdio_output@@V?$standard_base@DV?$string_output_adapter@D@__crt_stdio_output@@@2@@__crt_stdio_output@@CAPADXZ 10042618 f i libucrt:output.obj
 0001:0004161e       ?narrow_null_string@?$output_processor@_WV?$stream_output_adapter@_W@__crt_stdio_output@@V?$format_validation_base@_WV?$stream_output_adapter@_W@__crt_stdio_output@@@2@@__crt_stdio_output@@CAPADXZ 1004261e f i libucrt:output.obj
 0001:00041624       ?narrow_null_string@?$output_processor@_WV?$stream_output_adapter@_W@__crt_stdio_output@@V?$positional_parameter_base@_WV?$stream_output_adapter@_W@__crt_stdio_output@@@2@@__crt_stdio_output@@CAPADXZ 10042624 f i libucrt:output.obj
 0001:0004162a       ?narrow_null_string@?$output_processor@_WV?$stream_output_adapter@_W@__crt_stdio_output@@V?$standard_base@_WV?$stream_output_adapter@_W@__crt_stdio_output@@@2@@__crt_stdio_output@@CAPADXZ 1004262a f i libucrt:output.obj
 0001:00041630       ?narrow_null_string@?$output_processor@_WV?$string_output_adapter@_W@__crt_stdio_output@@V?$format_validation_base@_WV?$string_output_adapter@_W@__crt_stdio_output@@@2@@__crt_stdio_output@@CAPADXZ 10042630 f i libucrt:output.obj
 0001:00041636       ?narrow_null_string@?$output_processor@_WV?$string_output_adapter@_W@__crt_stdio_output@@V?$positional_parameter_base@_WV?$string_output_adapter@_W@__crt_stdio_output@@@2@@__crt_stdio_output@@CAPADXZ 10042636 f i libucrt:output.obj
 0001:0004163c       ?narrow_null_string@?$output_processor@_WV?$string_output_adapter@_W@__crt_stdio_output@@V?$standard_base@_WV?$string_output_adapter@_W@__crt_stdio_output@@@2@@__crt_stdio_output@@CAPADXZ 1004263c f i libucrt:output.obj
 0001:00041642       ?parse_int_from_format_string@?$output_processor@DV?$stream_output_adapter@D@__crt_stdio_output@@V?$format_validation_base@DV?$stream_output_adapter@D@__crt_stdio_output@@@2@@__crt_stdio_output@@AAE_NQAH@Z 10042642 f i libucrt:output.obj
 0001:000416b5       ?parse_int_from_format_string@?$output_processor@DV?$stream_output_adapter@D@__crt_stdio_output@@V?$positional_parameter_base@DV?$stream_output_adapter@D@__crt_stdio_output@@@2@@__crt_stdio_output@@AAE_NQAH@Z 100426b5 f i libucrt:output.obj
 0001:00041728       ?parse_int_from_format_string@?$output_processor@DV?$stream_output_adapter@D@__crt_stdio_output@@V?$standard_base@DV?$stream_output_adapter@D@__crt_stdio_output@@@2@@__crt_stdio_output@@AAE_NQAH@Z 10042728 f i libucrt:output.obj
 0001:0004179b       ?parse_int_from_format_string@?$output_processor@DV?$string_output_adapter@D@__crt_stdio_output@@V?$format_validation_base@DV?$string_output_adapter@D@__crt_stdio_output@@@2@@__crt_stdio_output@@AAE_NQAH@Z 1004279b f i libucrt:output.obj
 0001:0004180e       ?parse_int_from_format_string@?$output_processor@DV?$string_output_adapter@D@__crt_stdio_output@@V?$positional_parameter_base@DV?$string_output_adapter@D@__crt_stdio_output@@@2@@__crt_stdio_output@@AAE_NQAH@Z 1004280e f i libucrt:output.obj
 0001:00041881       ?parse_int_from_format_string@?$output_processor@DV?$string_output_adapter@D@__crt_stdio_output@@V?$standard_base@DV?$string_output_adapter@D@__crt_stdio_output@@@2@@__crt_stdio_output@@AAE_NQAH@Z 10042881 f i libucrt:output.obj
 0001:000418f4       ?parse_int_from_format_string@?$output_processor@_WV?$stream_output_adapter@_W@__crt_stdio_output@@V?$format_validation_base@_WV?$stream_output_adapter@_W@__crt_stdio_output@@@2@@__crt_stdio_output@@AAE_NQAH@Z 100428f4 f i libucrt:output.obj
 0001:00041969       ?parse_int_from_format_string@?$output_processor@_WV?$stream_output_adapter@_W@__crt_stdio_output@@V?$positional_parameter_base@_WV?$stream_output_adapter@_W@__crt_stdio_output@@@2@@__crt_stdio_output@@AAE_NQAH@Z 10042969 f i libucrt:output.obj
 0001:000419de       ?parse_int_from_format_string@?$output_processor@_WV?$stream_output_adapter@_W@__crt_stdio_output@@V?$standard_base@_WV?$stream_output_adapter@_W@__crt_stdio_output@@@2@@__crt_stdio_output@@AAE_NQAH@Z 100429de f i libucrt:output.obj
 0001:00041a53       ?parse_int_from_format_string@?$output_processor@_WV?$string_output_adapter@_W@__crt_stdio_output@@V?$format_validation_base@_WV?$string_output_adapter@_W@__crt_stdio_output@@@2@@__crt_stdio_output@@AAE_NQAH@Z 10042a53 f i libucrt:output.obj
 0001:00041ac8       ?parse_int_from_format_string@?$output_processor@_WV?$string_output_adapter@_W@__crt_stdio_output@@V?$positional_parameter_base@_WV?$string_output_adapter@_W@__crt_stdio_output@@@2@@__crt_stdio_output@@AAE_NQAH@Z 10042ac8 f i libucrt:output.obj
 0001:00041b3d       ?parse_int_from_format_string@?$output_processor@_WV?$string_output_adapter@_W@__crt_stdio_output@@V?$standard_base@_WV?$string_output_adapter@_W@__crt_stdio_output@@@2@@__crt_stdio_output@@AAE_NQAH@Z 10042b3d f i libucrt:output.obj
 0001:00041bb2       ?process@?$output_processor@DV?$stream_output_adapter@D@__crt_stdio_output@@V?$format_validation_base@DV?$stream_output_adapter@D@__crt_stdio_output@@@2@@__crt_stdio_output@@QAEHXZ 10042bb2 f i libucrt:output.obj
 0001:00041d24       ?process@?$output_processor@DV?$stream_output_adapter@D@__crt_stdio_output@@V?$positional_parameter_base@DV?$stream_output_adapter@D@__crt_stdio_output@@@2@@__crt_stdio_output@@QAEHXZ 10042d24 f i libucrt:output.obj
 0001:00041ed7       ?process@?$output_processor@DV?$stream_output_adapter@D@__crt_stdio_output@@V?$standard_base@DV?$stream_output_adapter@D@__crt_stdio_output@@@2@@__crt_stdio_output@@QAEHXZ 10042ed7 f i libucrt:output.obj
 0001:0004203a       ?process@?$output_processor@DV?$string_output_adapter@D@__crt_stdio_output@@V?$format_validation_base@DV?$string_output_adapter@D@__crt_stdio_output@@@2@@__crt_stdio_output@@QAEHXZ 1004303a f i libucrt:output.obj
 0001:000421ac       ?process@?$output_processor@DV?$string_output_adapter@D@__crt_stdio_output@@V?$positional_parameter_base@DV?$string_output_adapter@D@__crt_stdio_output@@@2@@__crt_stdio_output@@QAEHXZ 100431ac f i libucrt:output.obj
 0001:0004235f       ?process@?$output_processor@DV?$string_output_adapter@D@__crt_stdio_output@@V?$standard_base@DV?$string_output_adapter@D@__crt_stdio_output@@@2@@__crt_stdio_output@@QAEHXZ 1004335f f i libucrt:output.obj
 0001:000424c2       ?process@?$output_processor@_WV?$stream_output_adapter@_W@__crt_stdio_output@@V?$format_validation_base@_WV?$stream_output_adapter@_W@__crt_stdio_output@@@2@@__crt_stdio_output@@QAEHXZ 100434c2 f i libucrt:output.obj
 0001:0004263e       ?process@?$output_processor@_WV?$stream_output_adapter@_W@__crt_stdio_output@@V?$positional_parameter_base@_WV?$stream_output_adapter@_W@__crt_stdio_output@@@2@@__crt_stdio_output@@QAEHXZ 1004363e f i libucrt:output.obj
 0001:000427f6       ?process@?$output_processor@_WV?$stream_output_adapter@_W@__crt_stdio_output@@V?$standard_base@_WV?$stream_output_adapter@_W@__crt_stdio_output@@@2@@__crt_stdio_output@@QAEHXZ 100437f6 f i libucrt:output.obj
 0001:0004295e       ?process@?$output_processor@_WV?$string_output_adapter@_W@__crt_stdio_output@@V?$format_validation_base@_WV?$string_output_adapter@_W@__crt_stdio_output@@@2@@__crt_stdio_output@@QAEHXZ 1004395e f i libucrt:output.obj
 0001:00042ada       ?process@?$output_processor@_WV?$string_output_adapter@_W@__crt_stdio_output@@V?$positional_parameter_base@_WV?$string_output_adapter@_W@__crt_stdio_output@@@2@@__crt_stdio_output@@QAEHXZ 10043ada f i libucrt:output.obj
 0001:00042c92       ?process@?$output_processor@_WV?$string_output_adapter@_W@__crt_stdio_output@@V?$standard_base@_WV?$string_output_adapter@_W@__crt_stdio_output@@@2@@__crt_stdio_output@@QAEHXZ 10043c92 f i libucrt:output.obj
 0001:00042dfa       ?public_stream@__crt_stdio_stream@@QBEPAU_iobuf@@XZ 10043dfa f i libucrt:output.obj
 0001:00042dfd       ?set_flag@?$output_processor@DV?$stream_output_adapter@D@__crt_stdio_output@@V?$format_validation_base@DV?$stream_output_adapter@D@__crt_stdio_output@@@2@@__crt_stdio_output@@AAEXI@Z 10043dfd f i libucrt:output.obj
 0001:00042e0f       ?set_flag@?$output_processor@DV?$stream_output_adapter@D@__crt_stdio_output@@V?$positional_parameter_base@DV?$stream_output_adapter@D@__crt_stdio_output@@@2@@__crt_stdio_output@@AAEXI@Z 10043e0f f i libucrt:output.obj
 0001:00042e21       ?set_flag@?$output_processor@DV?$stream_output_adapter@D@__crt_stdio_output@@V?$standard_base@DV?$stream_output_adapter@D@__crt_stdio_output@@@2@@__crt_stdio_output@@AAEXI@Z 10043e21 f i libucrt:output.obj
 0001:00042e33       ?set_flag@?$output_processor@DV?$string_output_adapter@D@__crt_stdio_output@@V?$format_validation_base@DV?$string_output_adapter@D@__crt_stdio_output@@@2@@__crt_stdio_output@@AAEXI@Z 10043e33 f i libucrt:output.obj
 0001:00042e45       ?set_flag@?$output_processor@DV?$string_output_adapter@D@__crt_stdio_output@@V?$positional_parameter_base@DV?$string_output_adapter@D@__crt_stdio_output@@@2@@__crt_stdio_output@@AAEXI@Z 10043e45 f i libucrt:output.obj
 0001:00042e57       ?set_flag@?$output_processor@DV?$string_output_adapter@D@__crt_stdio_output@@V?$standard_base@DV?$string_output_adapter@D@__crt_stdio_output@@@2@@__crt_stdio_output@@AAEXI@Z 10043e57 f i libucrt:output.obj
 0001:00042e69       ?set_flag@?$output_processor@_WV?$stream_output_adapter@_W@__crt_stdio_output@@V?$format_validation_base@_WV?$stream_output_adapter@_W@__crt_stdio_output@@@2@@__crt_stdio_output@@AAEXI@Z 10043e69 f i libucrt:output.obj
 0001:00042e7b       ?set_flag@?$output_processor@_WV?$stream_output_adapter@_W@__crt_stdio_output@@V?$positional_parameter_base@_WV?$stream_output_adapter@_W@__crt_stdio_output@@@2@@__crt_stdio_output@@AAEXI@Z 10043e7b f i libucrt:output.obj
 0001:00042e8d       ?set_flag@?$output_processor@_WV?$stream_output_adapter@_W@__crt_stdio_output@@V?$standard_base@_WV?$stream_output_adapter@_W@__crt_stdio_output@@@2@@__crt_stdio_output@@AAEXI@Z 10043e8d f i libucrt:output.obj
 0001:00042e9f       ?set_flag@?$output_processor@_WV?$string_output_adapter@_W@__crt_stdio_output@@V?$format_validation_base@_WV?$string_output_adapter@_W@__crt_stdio_output@@@2@@__crt_stdio_output@@AAEXI@Z 10043e9f f i libucrt:output.obj
 0001:00042eb1       ?set_flag@?$output_processor@_WV?$string_output_adapter@_W@__crt_stdio_output@@V?$positional_parameter_base@_WV?$string_output_adapter@_W@__crt_stdio_output@@@2@@__crt_stdio_output@@AAEXI@Z 10043eb1 f i libucrt:output.obj
 0001:00042ec3       ?set_flag@?$output_processor@_WV?$string_output_adapter@_W@__crt_stdio_output@@V?$standard_base@_WV?$string_output_adapter@_W@__crt_stdio_output@@@2@@__crt_stdio_output@@AAEXI@Z 10043ec3 f i libucrt:output.obj
 0001:00042ed5       ?should_format@?$positional_parameter_base@DV?$stream_output_adapter@D@__crt_stdio_output@@@__crt_stdio_output@@IAE_NXZ 10043ed5 f i libucrt:output.obj
 0001:00042ef0       ?should_format@?$positional_parameter_base@DV?$string_output_adapter@D@__crt_stdio_output@@@__crt_stdio_output@@IAE_NXZ 10043ef0 f i libucrt:output.obj
 0001:00042f0b       ?should_format@?$positional_parameter_base@_WV?$stream_output_adapter@_W@__crt_stdio_output@@@__crt_stdio_output@@IAE_NXZ 10043f0b f i libucrt:output.obj
 0001:00042f26       ?should_format@?$positional_parameter_base@_WV?$string_output_adapter@_W@__crt_stdio_output@@@__crt_stdio_output@@IAE_NXZ 10043f26 f i libucrt:output.obj
 0001:00042f41       ?should_format@?$standard_base@DV?$stream_output_adapter@D@__crt_stdio_output@@@__crt_stdio_output@@IAE_NXZ 10043f41 f i libucrt:output.obj
 0001:00042f44       ?should_format@?$standard_base@DV?$string_output_adapter@D@__crt_stdio_output@@@__crt_stdio_output@@IAE_NXZ 10043f44 f i libucrt:output.obj
 0001:00042f47       ?should_format@?$standard_base@_WV?$stream_output_adapter@_W@__crt_stdio_output@@@__crt_stdio_output@@IAE_NXZ 10043f47 f i libucrt:output.obj
 0001:00042f4a       ?should_format@?$standard_base@_WV?$string_output_adapter@_W@__crt_stdio_output@@@__crt_stdio_output@@IAE_NXZ 10043f4a f i libucrt:output.obj
 0001:00042f4d       ?should_skip_normal_state_processing@?$positional_parameter_base@DV?$stream_output_adapter@D@__crt_stdio_output@@@__crt_stdio_output@@IAE_NXZ 10043f4d f i libucrt:output.obj
 0001:00042f7f       ?should_skip_normal_state_processing@?$positional_parameter_base@DV?$string_output_adapter@D@__crt_stdio_output@@@__crt_stdio_output@@IAE_NXZ 10043f7f f i libucrt:output.obj
 0001:00042fb1       ?should_skip_normal_state_processing@?$positional_parameter_base@_WV?$stream_output_adapter@_W@__crt_stdio_output@@@__crt_stdio_output@@IAE_NXZ 10043fb1 f i libucrt:output.obj
 0001:00042fe3       ?should_skip_normal_state_processing@?$positional_parameter_base@_WV?$string_output_adapter@_W@__crt_stdio_output@@@__crt_stdio_output@@IAE_NXZ 10043fe3 f i libucrt:output.obj
 0001:00043015       ?should_skip_normal_state_processing@?$standard_base@DV?$stream_output_adapter@D@__crt_stdio_output@@@__crt_stdio_output@@IAE_NXZ 10044015 f i libucrt:output.obj
 0001:00043018       ?should_skip_normal_state_processing@?$standard_base@DV?$string_output_adapter@D@__crt_stdio_output@@@__crt_stdio_output@@IAE_NXZ 10044018 f i libucrt:output.obj
 0001:0004301b       ?should_skip_normal_state_processing@?$standard_base@_WV?$stream_output_adapter@_W@__crt_stdio_output@@@__crt_stdio_output@@IAE_NXZ 1004401b f i libucrt:output.obj
 0001:0004301e       ?should_skip_normal_state_processing@?$standard_base@_WV?$string_output_adapter@_W@__crt_stdio_output@@@__crt_stdio_output@@IAE_NXZ 1004401e f i libucrt:output.obj
 0001:00043021       ?should_skip_type_state_output@?$positional_parameter_base@DV?$stream_output_adapter@D@__crt_stdio_output@@@__crt_stdio_output@@IBE_NXZ 10044021 f i libucrt:output.obj
 0001:0004303d       ?should_skip_type_state_output@?$positional_parameter_base@DV?$string_output_adapter@D@__crt_stdio_output@@@__crt_stdio_output@@IBE_NXZ 1004403d f i libucrt:output.obj
 0001:00043059       ?should_skip_type_state_output@?$positional_parameter_base@_WV?$stream_output_adapter@_W@__crt_stdio_output@@@__crt_stdio_output@@IBE_NXZ 10044059 f i libucrt:output.obj
 0001:00043075       ?should_skip_type_state_output@?$positional_parameter_base@_WV?$string_output_adapter@_W@__crt_stdio_output@@@__crt_stdio_output@@IBE_NXZ 10044075 f i libucrt:output.obj
 0001:00043091       ?should_skip_type_state_output@?$standard_base@DV?$stream_output_adapter@D@__crt_stdio_output@@@__crt_stdio_output@@IBE_NXZ 10044091 f i libucrt:output.obj
 0001:00043094       ?should_skip_type_state_output@?$standard_base@DV?$string_output_adapter@D@__crt_stdio_output@@@__crt_stdio_output@@IBE_NXZ 10044094 f i libucrt:output.obj
 0001:00043097       ?should_skip_type_state_output@?$standard_base@_WV?$stream_output_adapter@_W@__crt_stdio_output@@@__crt_stdio_output@@IBE_NXZ 10044097 f i libucrt:output.obj
 0001:0004309a       ?should_skip_type_state_output@?$standard_base@_WV?$string_output_adapter@_W@__crt_stdio_output@@@__crt_stdio_output@@IBE_NXZ 1004409a f i libucrt:output.obj
 0001:0004309d       ?state_case_dot@?$output_processor@DV?$stream_output_adapter@D@__crt_stdio_output@@V?$format_validation_base@DV?$stream_output_adapter@D@__crt_stdio_output@@@2@@__crt_stdio_output@@AAE_NXZ 1004409d f i libucrt:output.obj
 0001:000430a4       ?state_case_dot@?$output_processor@DV?$stream_output_adapter@D@__crt_stdio_output@@V?$positional_parameter_base@DV?$stream_output_adapter@D@__crt_stdio_output@@@2@@__crt_stdio_output@@AAE_NXZ 100440a4 f i libucrt:output.obj
 0001:000430ab       ?state_case_dot@?$output_processor@DV?$stream_output_adapter@D@__crt_stdio_output@@V?$standard_base@DV?$stream_output_adapter@D@__crt_stdio_output@@@2@@__crt_stdio_output@@AAE_NXZ 100440ab f i libucrt:output.obj
 0001:000430b2       ?state_case_dot@?$output_processor@DV?$string_output_adapter@D@__crt_stdio_output@@V?$format_validation_base@DV?$string_output_adapter@D@__crt_stdio_output@@@2@@__crt_stdio_output@@AAE_NXZ 100440b2 f i libucrt:output.obj
 0001:000430b9       ?state_case_dot@?$output_processor@DV?$string_output_adapter@D@__crt_stdio_output@@V?$positional_parameter_base@DV?$string_output_adapter@D@__crt_stdio_output@@@2@@__crt_stdio_output@@AAE_NXZ 100440b9 f i libucrt:output.obj
 0001:000430c0       ?state_case_dot@?$output_processor@DV?$string_output_adapter@D@__crt_stdio_output@@V?$standard_base@DV?$string_output_adapter@D@__crt_stdio_output@@@2@@__crt_stdio_output@@AAE_NXZ 100440c0 f i libucrt:output.obj
 0001:000430c7       ?state_case_dot@?$output_processor@_WV?$stream_output_adapter@_W@__crt_stdio_output@@V?$format_validation_base@_WV?$stream_output_adapter@_W@__crt_stdio_output@@@2@@__crt_stdio_output@@AAE_NXZ 100440c7 f i libucrt:output.obj
 0001:000430ce       ?state_case_dot@?$output_processor@_WV?$stream_output_adapter@_W@__crt_stdio_output@@V?$positional_parameter_base@_WV?$stream_output_adapter@_W@__crt_stdio_output@@@2@@__crt_stdio_output@@AAE_NXZ 100440ce f i libucrt:output.obj
 0001:000430d5       ?state_case_dot@?$output_processor@_WV?$stream_output_adapter@_W@__crt_stdio_output@@V?$standard_base@_WV?$stream_output_adapter@_W@__crt_stdio_output@@@2@@__crt_stdio_output@@AAE_NXZ 100440d5 f i libucrt:output.obj
 0001:000430dc       ?state_case_dot@?$output_processor@_WV?$string_output_adapter@_W@__crt_stdio_output@@V?$format_validation_base@_WV?$string_output_adapter@_W@__crt_stdio_output@@@2@@__crt_stdio_output@@AAE_NXZ 100440dc f i libucrt:output.obj
 0001:000430e3       ?state_case_dot@?$output_processor@_WV?$string_output_adapter@_W@__crt_stdio_output@@V?$positional_parameter_base@_WV?$string_output_adapter@_W@__crt_stdio_output@@@2@@__crt_stdio_output@@AAE_NXZ 100440e3 f i libucrt:output.obj
 0001:000430ea       ?state_case_dot@?$output_processor@_WV?$string_output_adapter@_W@__crt_stdio_output@@V?$standard_base@_WV?$string_output_adapter@_W@__crt_stdio_output@@@2@@__crt_stdio_output@@AAE_NXZ 100440ea f i libucrt:output.obj
 0001:000430f1       ?state_case_flag@?$output_processor@DV?$stream_output_adapter@D@__crt_stdio_output@@V?$format_validation_base@DV?$stream_output_adapter@D@__crt_stdio_output@@@2@@__crt_stdio_output@@AAE_NXZ 100440f1 f i libucrt:output.obj
 0001:0004313d       ?state_case_flag@?$output_processor@DV?$stream_output_adapter@D@__crt_stdio_output@@V?$positional_parameter_base@DV?$stream_output_adapter@D@__crt_stdio_output@@@2@@__crt_stdio_output@@AAE_NXZ 1004413d f i libucrt:output.obj
 0001:00043189       ?state_case_flag@?$output_processor@DV?$stream_output_adapter@D@__crt_stdio_output@@V?$standard_base@DV?$stream_output_adapter@D@__crt_stdio_output@@@2@@__crt_stdio_output@@AAE_NXZ 10044189 f i libucrt:output.obj
 0001:000431d5       ?state_case_flag@?$output_processor@DV?$string_output_adapter@D@__crt_stdio_output@@V?$format_validation_base@DV?$string_output_adapter@D@__crt_stdio_output@@@2@@__crt_stdio_output@@AAE_NXZ 100441d5 f i libucrt:output.obj
 0001:00043221       ?state_case_flag@?$output_processor@DV?$string_output_adapter@D@__crt_stdio_output@@V?$positional_parameter_base@DV?$string_output_adapter@D@__crt_stdio_output@@@2@@__crt_stdio_output@@AAE_NXZ 10044221 f i libucrt:output.obj
 0001:0004326d       ?state_case_flag@?$output_processor@DV?$string_output_adapter@D@__crt_stdio_output@@V?$standard_base@DV?$string_output_adapter@D@__crt_stdio_output@@@2@@__crt_stdio_output@@AAE_NXZ 1004426d f i libucrt:output.obj
 0001:000432b9       ?state_case_flag@?$output_processor@_WV?$stream_output_adapter@_W@__crt_stdio_output@@V?$format_validation_base@_WV?$stream_output_adapter@_W@__crt_stdio_output@@@2@@__crt_stdio_output@@AAE_NXZ 100442b9 f i libucrt:output.obj
 0001:00043305       ?state_case_flag@?$output_processor@_WV?$stream_output_adapter@_W@__crt_stdio_output@@V?$positional_parameter_base@_WV?$stream_output_adapter@_W@__crt_stdio_output@@@2@@__crt_stdio_output@@AAE_NXZ 10044305 f i libucrt:output.obj
 0001:00043351       ?state_case_flag@?$output_processor@_WV?$stream_output_adapter@_W@__crt_stdio_output@@V?$standard_base@_WV?$stream_output_adapter@_W@__crt_stdio_output@@@2@@__crt_stdio_output@@AAE_NXZ 10044351 f i libucrt:output.obj
 0001:0004339d       ?state_case_flag@?$output_processor@_WV?$string_output_adapter@_W@__crt_stdio_output@@V?$format_validation_base@_WV?$string_output_adapter@_W@__crt_stdio_output@@@2@@__crt_stdio_output@@AAE_NXZ 1004439d f i libucrt:output.obj
 0001:000433e9       ?state_case_flag@?$output_processor@_WV?$string_output_adapter@_W@__crt_stdio_output@@V?$positional_parameter_base@_WV?$string_output_adapter@_W@__crt_stdio_output@@@2@@__crt_stdio_output@@AAE_NXZ 100443e9 f i libucrt:output.obj
 0001:00043435       ?state_case_flag@?$output_processor@_WV?$string_output_adapter@_W@__crt_stdio_output@@V?$standard_base@_WV?$string_output_adapter@_W@__crt_stdio_output@@@2@@__crt_stdio_output@@AAE_NXZ 10044435 f i libucrt:output.obj
 0001:00043481       ?state_case_normal@?$output_processor@DV?$stream_output_adapter@D@__crt_stdio_output@@V?$format_validation_base@DV?$stream_output_adapter@D@__crt_stdio_output@@@2@@__crt_stdio_output@@AAE_NXZ 10044481 f i libucrt:output.obj
 0001:000434a7       ?state_case_normal@?$output_processor@DV?$stream_output_adapter@D@__crt_stdio_output@@V?$positional_parameter_base@DV?$stream_output_adapter@D@__crt_stdio_output@@@2@@__crt_stdio_output@@AAE_NXZ 100444a7 f i libucrt:output.obj
 0001:000434e4       ?state_case_normal@?$output_processor@DV?$stream_output_adapter@D@__crt_stdio_output@@V?$standard_base@DV?$stream_output_adapter@D@__crt_stdio_output@@@2@@__crt_stdio_output@@AAE_NXZ 100444e4 f i libucrt:output.obj
 0001:0004350a       ?state_case_normal@?$output_processor@DV?$string_output_adapter@D@__crt_stdio_output@@V?$format_validation_base@DV?$string_output_adapter@D@__crt_stdio_output@@@2@@__crt_stdio_output@@AAE_NXZ 1004450a f i libucrt:output.obj
 0001:00043530       ?state_case_normal@?$output_processor@DV?$string_output_adapter@D@__crt_stdio_output@@V?$positional_parameter_base@DV?$string_output_adapter@D@__crt_stdio_output@@@2@@__crt_stdio_output@@AAE_NXZ 10044530 f i libucrt:output.obj
 0001:0004356d       ?state_case_normal@?$output_processor@DV?$string_output_adapter@D@__crt_stdio_output@@V?$standard_base@DV?$string_output_adapter@D@__crt_stdio_output@@@2@@__crt_stdio_output@@AAE_NXZ 1004456d f i libucrt:output.obj
 0001:00043593       ?state_case_normal@?$output_processor@_WV?$stream_output_adapter@_W@__crt_stdio_output@@V?$format_validation_base@_WV?$stream_output_adapter@_W@__crt_stdio_output@@@2@@__crt_stdio_output@@AAE_NXZ 10044593 f i libucrt:output.obj
 0001:000435b9       ?state_case_normal@?$output_processor@_WV?$stream_output_adapter@_W@__crt_stdio_output@@V?$positional_parameter_base@_WV?$stream_output_adapter@_W@__crt_stdio_output@@@2@@__crt_stdio_output@@AAE_NXZ 100445b9 f i libucrt:output.obj
 0001:000435f6       ?state_case_normal@?$output_processor@_WV?$stream_output_adapter@_W@__crt_stdio_output@@V?$standard_base@_WV?$stream_output_adapter@_W@__crt_stdio_output@@@2@@__crt_stdio_output@@AAE_NXZ 100445f6 f i libucrt:output.obj
 0001:0004361c       ?state_case_normal@?$output_processor@_WV?$string_output_adapter@_W@__crt_stdio_output@@V?$format_validation_base@_WV?$string_output_adapter@_W@__crt_stdio_output@@@2@@__crt_stdio_output@@AAE_NXZ 1004461c f i libucrt:output.obj
 0001:00043642       ?state_case_normal@?$output_processor@_WV?$string_output_adapter@_W@__crt_stdio_output@@V?$positional_parameter_base@_WV?$string_output_adapter@_W@__crt_stdio_output@@@2@@__crt_stdio_output@@AAE_NXZ 10044642 f i libucrt:output.obj
 0001:0004367f       ?state_case_normal@?$output_processor@_WV?$string_output_adapter@_W@__crt_stdio_output@@V?$standard_base@_WV?$string_output_adapter@_W@__crt_stdio_output@@@2@@__crt_stdio_output@@AAE_NXZ 1004467f f i libucrt:output.obj
 0001:000436a5       ?state_case_normal_common@?$output_processor@DV?$stream_output_adapter@D@__crt_stdio_output@@V?$format_validation_base@DV?$stream_output_adapter@D@__crt_stdio_output@@@2@@__crt_stdio_output@@AAE_NXZ 100446a5 f i libucrt:output.obj
 0001:000436d9       ?state_case_normal_common@?$output_processor@DV?$stream_output_adapter@D@__crt_stdio_output@@V?$positional_parameter_base@DV?$stream_output_adapter@D@__crt_stdio_output@@@2@@__crt_stdio_output@@AAE_NXZ 100446d9 f i libucrt:output.obj
 0001:0004370d       ?state_case_normal_common@?$output_processor@DV?$stream_output_adapter@D@__crt_stdio_output@@V?$standard_base@DV?$stream_output_adapter@D@__crt_stdio_output@@@2@@__crt_stdio_output@@AAE_NXZ 1004470d f i libucrt:output.obj
 0001:00043741       ?state_case_normal_common@?$output_processor@DV?$string_output_adapter@D@__crt_stdio_output@@V?$format_validation_base@DV?$string_output_adapter@D@__crt_stdio_output@@@2@@__crt_stdio_output@@AAE_NXZ 10044741 f i libucrt:output.obj
 0001:00043775       ?state_case_normal_common@?$output_processor@DV?$string_output_adapter@D@__crt_stdio_output@@V?$positional_parameter_base@DV?$string_output_adapter@D@__crt_stdio_output@@@2@@__crt_stdio_output@@AAE_NXZ 10044775 f i libucrt:output.obj
 0001:000437a9       ?state_case_normal_common@?$output_processor@DV?$string_output_adapter@D@__crt_stdio_output@@V?$standard_base@DV?$string_output_adapter@D@__crt_stdio_output@@@2@@__crt_stdio_output@@AAE_NXZ 100447a9 f i libucrt:output.obj
 0001:000437dd       ?state_case_normal_common@?$output_processor@_WV?$stream_output_adapter@_W@__crt_stdio_output@@V?$format_validation_base@_WV?$stream_output_adapter@_W@__crt_stdio_output@@@2@@__crt_stdio_output@@AAE_NXZ 100447dd f i libucrt:output.obj
 0001:000437fe       ?state_case_normal_common@?$output_processor@_WV?$stream_output_adapter@_W@__crt_stdio_output@@V?$positional_parameter_base@_WV?$stream_output_adapter@_W@__crt_stdio_output@@@2@@__crt_stdio_output@@AAE_NXZ 100447fe f i libucrt:output.obj
 0001:0004381f       ?state_case_normal_common@?$output_processor@_WV?$stream_output_adapter@_W@__crt_stdio_output@@V?$standard_base@_WV?$stream_output_adapter@_W@__crt_stdio_output@@@2@@__crt_stdio_output@@AAE_NXZ 1004481f f i libucrt:output.obj
 0001:00043840       ?state_case_normal_common@?$output_processor@_WV?$string_output_adapter@_W@__crt_stdio_output@@V?$format_validation_base@_WV?$string_output_adapter@_W@__crt_stdio_output@@@2@@__crt_stdio_output@@AAE_NXZ 10044840 f i libucrt:output.obj
 0001:00043861       ?state_case_normal_common@?$output_processor@_WV?$string_output_adapter@_W@__crt_stdio_output@@V?$positional_parameter_base@_WV?$string_output_adapter@_W@__crt_stdio_output@@@2@@__crt_stdio_output@@AAE_NXZ 10044861 f i libucrt:output.obj
 0001:00043882       ?state_case_normal_common@?$output_processor@_WV?$string_output_adapter@_W@__crt_stdio_output@@V?$standard_base@_WV?$string_output_adapter@_W@__crt_stdio_output@@@2@@__crt_stdio_output@@AAE_NXZ 10044882 f i libucrt:output.obj
 0001:000438a3       ?state_case_normal_tchar@?$output_processor@DV?$stream_output_adapter@D@__crt_stdio_output@@V?$format_validation_base@DV?$stream_output_adapter@D@__crt_stdio_output@@@2@@__crt_stdio_output@@AAE_ND@Z 100448a3 f i libucrt:output.obj
 0001:0004391c       ?state_case_normal_tchar@?$output_processor@DV?$stream_output_adapter@D@__crt_stdio_output@@V?$positional_parameter_base@DV?$stream_output_adapter@D@__crt_stdio_output@@@2@@__crt_stdio_output@@AAE_ND@Z 1004491c f i libucrt:output.obj
 0001:00043995       ?state_case_normal_tchar@?$output_processor@DV?$stream_output_adapter@D@__crt_stdio_output@@V?$standard_base@DV?$stream_output_adapter@D@__crt_stdio_output@@@2@@__crt_stdio_output@@AAE_ND@Z 10044995 f i libucrt:output.obj
 0001:00043a0e       ?state_case_normal_tchar@?$output_processor@DV?$string_output_adapter@D@__crt_stdio_output@@V?$format_validation_base@DV?$string_output_adapter@D@__crt_stdio_output@@@2@@__crt_stdio_output@@AAE_ND@Z 10044a0e f i libucrt:output.obj
 0001:00043a87       ?state_case_normal_tchar@?$output_processor@DV?$string_output_adapter@D@__crt_stdio_output@@V?$positional_parameter_base@DV?$string_output_adapter@D@__crt_stdio_output@@@2@@__crt_stdio_output@@AAE_ND@Z 10044a87 f i libucrt:output.obj
 0001:00043b00       ?state_case_normal_tchar@?$output_processor@DV?$string_output_adapter@D@__crt_stdio_output@@V?$standard_base@DV?$string_output_adapter@D@__crt_stdio_output@@@2@@__crt_stdio_output@@AAE_ND@Z 10044b00 f i libucrt:output.obj
 0001:00043b79       ?state_case_normal_tchar@?$output_processor@_WV?$stream_output_adapter@_W@__crt_stdio_output@@V?$format_validation_base@_WV?$stream_output_adapter@_W@__crt_stdio_output@@@2@@__crt_stdio_output@@AAE_N_W@Z 10044b79 f i libucrt:output.obj
 0001:00043b84       ?state_case_normal_tchar@?$output_processor@_WV?$stream_output_adapter@_W@__crt_stdio_output@@V?$positional_parameter_base@_WV?$stream_output_adapter@_W@__crt_stdio_output@@@2@@__crt_stdio_output@@AAE_N_W@Z 10044b84 f i libucrt:output.obj
 0001:00043b8f       ?state_case_normal_tchar@?$output_processor@_WV?$stream_output_adapter@_W@__crt_stdio_output@@V?$standard_base@_WV?$stream_output_adapter@_W@__crt_stdio_output@@@2@@__crt_stdio_output@@AAE_N_W@Z 10044b8f f i libucrt:output.obj
 0001:00043b9a       ?state_case_normal_tchar@?$output_processor@_WV?$string_output_adapter@_W@__crt_stdio_output@@V?$format_validation_base@_WV?$string_output_adapter@_W@__crt_stdio_output@@@2@@__crt_stdio_output@@AAE_N_W@Z 10044b9a f i libucrt:output.obj
 0001:00043ba5       ?state_case_normal_tchar@?$output_processor@_WV?$string_output_adapter@_W@__crt_stdio_output@@V?$positional_parameter_base@_WV?$string_output_adapter@_W@__crt_stdio_output@@@2@@__crt_stdio_output@@AAE_N_W@Z 10044ba5 f i libucrt:output.obj
 0001:00043bb0       ?state_case_normal_tchar@?$output_processor@_WV?$string_output_adapter@_W@__crt_stdio_output@@V?$standard_base@_WV?$string_output_adapter@_W@__crt_stdio_output@@@2@@__crt_stdio_output@@AAE_N_W@Z 10044bb0 f i libucrt:output.obj
 0001:00043bbb       ?state_case_percent@?$output_processor@DV?$stream_output_adapter@D@__crt_stdio_output@@V?$format_validation_base@DV?$stream_output_adapter@D@__crt_stdio_output@@@2@@__crt_stdio_output@@AAE_NXZ 10044bbb f i libucrt:output.obj
 0001:00043bd9       ?state_case_percent@?$output_processor@DV?$stream_output_adapter@D@__crt_stdio_output@@V?$positional_parameter_base@DV?$stream_output_adapter@D@__crt_stdio_output@@@2@@__crt_stdio_output@@AAE_NXZ 10044bd9 f i libucrt:output.obj
 0001:00043bf7       ?state_case_percent@?$output_processor@DV?$stream_output_adapter@D@__crt_stdio_output@@V?$standard_base@DV?$stream_output_adapter@D@__crt_stdio_output@@@2@@__crt_stdio_output@@AAE_NXZ 10044bf7 f i libucrt:output.obj
 0001:00043c15       ?state_case_percent@?$output_processor@DV?$string_output_adapter@D@__crt_stdio_output@@V?$format_validation_base@DV?$string_output_adapter@D@__crt_stdio_output@@@2@@__crt_stdio_output@@AAE_NXZ 10044c15 f i libucrt:output.obj
 0001:00043c33       ?state_case_percent@?$output_processor@DV?$string_output_adapter@D@__crt_stdio_output@@V?$positional_parameter_base@DV?$string_output_adapter@D@__crt_stdio_output@@@2@@__crt_stdio_output@@AAE_NXZ 10044c33 f i libucrt:output.obj
 0001:00043c51       ?state_case_percent@?$output_processor@DV?$string_output_adapter@D@__crt_stdio_output@@V?$standard_base@DV?$string_output_adapter@D@__crt_stdio_output@@@2@@__crt_stdio_output@@AAE_NXZ 10044c51 f i libucrt:output.obj
 0001:00043c6f       ?state_case_percent@?$output_processor@_WV?$stream_output_adapter@_W@__crt_stdio_output@@V?$format_validation_base@_WV?$stream_output_adapter@_W@__crt_stdio_output@@@2@@__crt_stdio_output@@AAE_NXZ 10044c6f f i libucrt:output.obj
 0001:00043c8d       ?state_case_percent@?$output_processor@_WV?$stream_output_adapter@_W@__crt_stdio_output@@V?$positional_parameter_base@_WV?$stream_output_adapter@_W@__crt_stdio_output@@@2@@__crt_stdio_output@@AAE_NXZ 10044c8d f i libucrt:output.obj
 0001:00043cab       ?state_case_percent@?$output_processor@_WV?$stream_output_adapter@_W@__crt_stdio_output@@V?$standard_base@_WV?$stream_output_adapter@_W@__crt_stdio_output@@@2@@__crt_stdio_output@@AAE_NXZ 10044cab f i libucrt:output.obj
 0001:00043cc9       ?state_case_percent@?$output_processor@_WV?$string_output_adapter@_W@__crt_stdio_output@@V?$format_validation_base@_WV?$string_output_adapter@_W@__crt_stdio_output@@@2@@__crt_stdio_output@@AAE_NXZ 10044cc9 f i libucrt:output.obj
 0001:00043ce7       ?state_case_percent@?$output_processor@_WV?$string_output_adapter@_W@__crt_stdio_output@@V?$positional_parameter_base@_WV?$string_output_adapter@_W@__crt_stdio_output@@@2@@__crt_stdio_output@@AAE_NXZ 10044ce7 f i libucrt:output.obj
 0001:00043d05       ?state_case_percent@?$output_processor@_WV?$string_output_adapter@_W@__crt_stdio_output@@V?$standard_base@_WV?$string_output_adapter@_W@__crt_stdio_output@@@2@@__crt_stdio_output@@AAE_NXZ 10044d05 f i libucrt:output.obj
 0001:00043d23       ?state_case_precision@?$output_processor@DV?$stream_output_adapter@D@__crt_stdio_output@@V?$format_validation_base@DV?$stream_output_adapter@D@__crt_stdio_output@@@2@@__crt_stdio_output@@AAE_NXZ 10044d23 f i libucrt:output.obj
 0001:00043d55       ?state_case_precision@?$output_processor@DV?$stream_output_adapter@D@__crt_stdio_output@@V?$positional_parameter_base@DV?$stream_output_adapter@D@__crt_stdio_output@@@2@@__crt_stdio_output@@AAE_NXZ 10044d55 f i libucrt:output.obj
 0001:00043d9d       ?state_case_precision@?$output_processor@DV?$stream_output_adapter@D@__crt_stdio_output@@V?$standard_base@DV?$stream_output_adapter@D@__crt_stdio_output@@@2@@__crt_stdio_output@@AAE_NXZ 10044d9d f i libucrt:output.obj
 0001:00043dcf       ?state_case_precision@?$output_processor@DV?$string_output_adapter@D@__crt_stdio_output@@V?$format_validation_base@DV?$string_output_adapter@D@__crt_stdio_output@@@2@@__crt_stdio_output@@AAE_NXZ 10044dcf f i libucrt:output.obj
 0001:00043e01       ?state_case_precision@?$output_processor@DV?$string_output_adapter@D@__crt_stdio_output@@V?$positional_parameter_base@DV?$string_output_adapter@D@__crt_stdio_output@@@2@@__crt_stdio_output@@AAE_NXZ 10044e01 f i libucrt:output.obj
 0001:00043e49       ?state_case_precision@?$output_processor@DV?$string_output_adapter@D@__crt_stdio_output@@V?$standard_base@DV?$string_output_adapter@D@__crt_stdio_output@@@2@@__crt_stdio_output@@AAE_NXZ 10044e49 f i libucrt:output.obj
 0001:00043e7b       ?state_case_precision@?$output_processor@_WV?$stream_output_adapter@_W@__crt_stdio_output@@V?$format_validation_base@_WV?$stream_output_adapter@_W@__crt_stdio_output@@@2@@__crt_stdio_output@@AAE_NXZ 10044e7b f i libucrt:output.obj
 0001:00043eae       ?state_case_precision@?$output_processor@_WV?$stream_output_adapter@_W@__crt_stdio_output@@V?$positional_parameter_base@_WV?$stream_output_adapter@_W@__crt_stdio_output@@@2@@__crt_stdio_output@@AAE_NXZ 10044eae f i libucrt:output.obj
 0001:00043ef7       ?state_case_precision@?$output_processor@_WV?$stream_output_adapter@_W@__crt_stdio_output@@V?$standard_base@_WV?$stream_output_adapter@_W@__crt_stdio_output@@@2@@__crt_stdio_output@@AAE_NXZ 10044ef7 f i libucrt:output.obj
 0001:00043f2a       ?state_case_precision@?$output_processor@_WV?$string_output_adapter@_W@__crt_stdio_output@@V?$format_validation_base@_WV?$string_output_adapter@_W@__crt_stdio_output@@@2@@__crt_stdio_output@@AAE_NXZ 10044f2a f i libucrt:output.obj
 0001:00043f5d       ?state_case_precision@?$output_processor@_WV?$string_output_adapter@_W@__crt_stdio_output@@V?$positional_parameter_base@_WV?$string_output_adapter@_W@__crt_stdio_output@@@2@@__crt_stdio_output@@AAE_NXZ 10044f5d f i libucrt:output.obj
 0001:00043fa6       ?state_case_precision@?$output_processor@_WV?$string_output_adapter@_W@__crt_stdio_output@@V?$standard_base@_WV?$string_output_adapter@_W@__crt_stdio_output@@@2@@__crt_stdio_output@@AAE_NXZ 10044fa6 f i libucrt:output.obj
 0001:00043fd9       ?state_case_size@?$output_processor@DV?$stream_output_adapter@D@__crt_stdio_output@@V?$format_validation_base@DV?$stream_output_adapter@D@__crt_stdio_output@@@2@@__crt_stdio_output@@AAE_NXZ 10044fd9 f i libucrt:output.obj
 0001:0004419c       ?state_case_size@?$output_processor@DV?$stream_output_adapter@D@__crt_stdio_output@@V?$positional_parameter_base@DV?$stream_output_adapter@D@__crt_stdio_output@@@2@@__crt_stdio_output@@AAE_NXZ 1004519c f i libucrt:output.obj
 0001:0004435f       ?state_case_size@?$output_processor@DV?$stream_output_adapter@D@__crt_stdio_output@@V?$standard_base@DV?$stream_output_adapter@D@__crt_stdio_output@@@2@@__crt_stdio_output@@AAE_NXZ 1004535f f i libucrt:output.obj
 0001:00044522       ?state_case_size@?$output_processor@DV?$string_output_adapter@D@__crt_stdio_output@@V?$format_validation_base@DV?$string_output_adapter@D@__crt_stdio_output@@@2@@__crt_stdio_output@@AAE_NXZ 10045522 f i libucrt:output.obj
 0001:000446e5       ?state_case_size@?$output_processor@DV?$string_output_adapter@D@__crt_stdio_output@@V?$positional_parameter_base@DV?$string_output_adapter@D@__crt_stdio_output@@@2@@__crt_stdio_output@@AAE_NXZ 100456e5 f i libucrt:output.obj
 0001:000448a8       ?state_case_size@?$output_processor@DV?$string_output_adapter@D@__crt_stdio_output@@V?$standard_base@DV?$string_output_adapter@D@__crt_stdio_output@@@2@@__crt_stdio_output@@AAE_NXZ 100458a8 f i libucrt:output.obj
 0001:00044a6b       ?state_case_size@?$output_processor@_WV?$stream_output_adapter@_W@__crt_stdio_output@@V?$format_validation_base@_WV?$stream_output_adapter@_W@__crt_stdio_output@@@2@@__crt_stdio_output@@AAE_NXZ 10045a6b f i libucrt:output.obj
 0001:00044c46       ?state_case_size@?$output_processor@_WV?$stream_output_adapter@_W@__crt_stdio_output@@V?$positional_parameter_base@_WV?$stream_output_adapter@_W@__crt_stdio_output@@@2@@__crt_stdio_output@@AAE_NXZ 10045c46 f i libucrt:output.obj
 0001:00044e21       ?state_case_size@?$output_processor@_WV?$stream_output_adapter@_W@__crt_stdio_output@@V?$standard_base@_WV?$stream_output_adapter@_W@__crt_stdio_output@@@2@@__crt_stdio_output@@AAE_NXZ 10045e21 f i libucrt:output.obj
 0001:00044ffc       ?state_case_size@?$output_processor@_WV?$string_output_adapter@_W@__crt_stdio_output@@V?$format_validation_base@_WV?$string_output_adapter@_W@__crt_stdio_output@@@2@@__crt_stdio_output@@AAE_NXZ 10045ffc f i libucrt:output.obj
 0001:000451d7       ?state_case_size@?$output_processor@_WV?$string_output_adapter@_W@__crt_stdio_output@@V?$positional_parameter_base@_WV?$string_output_adapter@_W@__crt_stdio_output@@@2@@__crt_stdio_output@@AAE_NXZ 100461d7 f i libucrt:output.obj
 0001:000453b2       ?state_case_size@?$output_processor@_WV?$string_output_adapter@_W@__crt_stdio_output@@V?$standard_base@_WV?$string_output_adapter@_W@__crt_stdio_output@@@2@@__crt_stdio_output@@AAE_NXZ 100463b2 f i libucrt:output.obj
 0001:0004558d       ?state_case_type@?$output_processor@DV?$stream_output_adapter@D@__crt_stdio_output@@V?$format_validation_base@DV?$stream_output_adapter@D@__crt_stdio_output@@@2@@__crt_stdio_output@@AAE_NXZ 1004658d f i libucrt:output.obj
 0001:00045847       ?state_case_type@?$output_processor@DV?$stream_output_adapter@D@__crt_stdio_output@@V?$positional_parameter_base@DV?$stream_output_adapter@D@__crt_stdio_output@@@2@@__crt_stdio_output@@AAE_NXZ 10046847 f i libucrt:output.obj
 0001:00045b0f       ?state_case_type@?$output_processor@DV?$stream_output_adapter@D@__crt_stdio_output@@V?$standard_base@DV?$stream_output_adapter@D@__crt_stdio_output@@@2@@__crt_stdio_output@@AAE_NXZ 10046b0f f i libucrt:output.obj
 0001:00045dc9       ?state_case_type@?$output_processor@DV?$string_output_adapter@D@__crt_stdio_output@@V?$format_validation_base@DV?$string_output_adapter@D@__crt_stdio_output@@@2@@__crt_stdio_output@@AAE_NXZ 10046dc9 f i libucrt:output.obj
 0001:00046083       ?state_case_type@?$output_processor@DV?$string_output_adapter@D@__crt_stdio_output@@V?$positional_parameter_base@DV?$string_output_adapter@D@__crt_stdio_output@@@2@@__crt_stdio_output@@AAE_NXZ 10047083 f i libucrt:output.obj
 0001:0004634b       ?state_case_type@?$output_processor@DV?$string_output_adapter@D@__crt_stdio_output@@V?$standard_base@DV?$string_output_adapter@D@__crt_stdio_output@@@2@@__crt_stdio_output@@AAE_NXZ 1004734b f i libucrt:output.obj
 0001:00046605       ?state_case_type@?$output_processor@_WV?$stream_output_adapter@_W@__crt_stdio_output@@V?$format_validation_base@_WV?$stream_output_adapter@_W@__crt_stdio_output@@@2@@__crt_stdio_output@@AAE_NXZ 10047605 f i libucrt:output.obj
 0001:000468f9       ?state_case_type@?$output_processor@_WV?$stream_output_adapter@_W@__crt_stdio_output@@V?$positional_parameter_base@_WV?$stream_output_adapter@_W@__crt_stdio_output@@@2@@__crt_stdio_output@@AAE_NXZ 100478f9 f i libucrt:output.obj
 0001:00046c00       ?state_case_type@?$output_processor@_WV?$stream_output_adapter@_W@__crt_stdio_output@@V?$standard_base@_WV?$stream_output_adapter@_W@__crt_stdio_output@@@2@@__crt_stdio_output@@AAE_NXZ 10047c00 f i libucrt:output.obj
 0001:00046ef4       ?state_case_type@?$output_processor@_WV?$string_output_adapter@_W@__crt_stdio_output@@V?$format_validation_base@_WV?$string_output_adapter@_W@__crt_stdio_output@@@2@@__crt_stdio_output@@AAE_NXZ 10047ef4 f i libucrt:output.obj
 0001:000471e8       ?state_case_type@?$output_processor@_WV?$string_output_adapter@_W@__crt_stdio_output@@V?$positional_parameter_base@_WV?$string_output_adapter@_W@__crt_stdio_output@@@2@@__crt_stdio_output@@AAE_NXZ 100481e8 f i libucrt:output.obj
 0001:000474ef       ?state_case_type@?$output_processor@_WV?$string_output_adapter@_W@__crt_stdio_output@@V?$standard_base@_WV?$string_output_adapter@_W@__crt_stdio_output@@@2@@__crt_stdio_output@@AAE_NXZ 100484ef f i libucrt:output.obj
 0001:000477e3       ?state_case_width@?$output_processor@DV?$stream_output_adapter@D@__crt_stdio_output@@V?$format_validation_base@DV?$stream_output_adapter@D@__crt_stdio_output@@@2@@__crt_stdio_output@@AAE_NXZ 100487e3 f i libucrt:output.obj
 0001:00047818       ?state_case_width@?$output_processor@DV?$stream_output_adapter@D@__crt_stdio_output@@V?$positional_parameter_base@DV?$stream_output_adapter@D@__crt_stdio_output@@@2@@__crt_stdio_output@@AAE_NXZ 10048818 f i libucrt:output.obj
 0001:00047868       ?state_case_width@?$output_processor@DV?$stream_output_adapter@D@__crt_stdio_output@@V?$standard_base@DV?$stream_output_adapter@D@__crt_stdio_output@@@2@@__crt_stdio_output@@AAE_NXZ 10048868 f i libucrt:output.obj
 0001:0004789d       ?state_case_width@?$output_processor@DV?$string_output_adapter@D@__crt_stdio_output@@V?$format_validation_base@DV?$string_output_adapter@D@__crt_stdio_output@@@2@@__crt_stdio_output@@AAE_NXZ 1004889d f i libucrt:output.obj
 0001:000478d2       ?state_case_width@?$output_processor@DV?$string_output_adapter@D@__crt_stdio_output@@V?$positional_parameter_base@DV?$string_output_adapter@D@__crt_stdio_output@@@2@@__crt_stdio_output@@AAE_NXZ 100488d2 f i libucrt:output.obj
 0001:00047922       ?state_case_width@?$output_processor@DV?$string_output_adapter@D@__crt_stdio_output@@V?$standard_base@DV?$string_output_adapter@D@__crt_stdio_output@@@2@@__crt_stdio_output@@AAE_NXZ 10048922 f i libucrt:output.obj
 0001:00047957       ?state_case_width@?$output_processor@_WV?$stream_output_adapter@_W@__crt_stdio_output@@V?$format_validation_base@_WV?$stream_output_adapter@_W@__crt_stdio_output@@@2@@__crt_stdio_output@@AAE_NXZ 10048957 f i libucrt:output.obj
 0001:0004798e       ?state_case_width@?$output_processor@_WV?$stream_output_adapter@_W@__crt_stdio_output@@V?$positional_parameter_base@_WV?$stream_output_adapter@_W@__crt_stdio_output@@@2@@__crt_stdio_output@@AAE_NXZ 1004898e f i libucrt:output.obj
 0001:000479df       ?state_case_width@?$output_processor@_WV?$stream_output_adapter@_W@__crt_stdio_output@@V?$standard_base@_WV?$stream_output_adapter@_W@__crt_stdio_output@@@2@@__crt_stdio_output@@AAE_NXZ 100489df f i libucrt:output.obj
 0001:00047a16       ?state_case_width@?$output_processor@_WV?$string_output_adapter@_W@__crt_stdio_output@@V?$format_validation_base@_WV?$string_output_adapter@_W@__crt_stdio_output@@@2@@__crt_stdio_output@@AAE_NXZ 10048a16 f i libucrt:output.obj
 0001:00047a4d       ?state_case_width@?$output_processor@_WV?$string_output_adapter@_W@__crt_stdio_output@@V?$positional_parameter_base@_WV?$string_output_adapter@_W@__crt_stdio_output@@@2@@__crt_stdio_output@@AAE_NXZ 10048a4d f i libucrt:output.obj
 0001:00047a9e       ?state_case_width@?$output_processor@_WV?$string_output_adapter@_W@__crt_stdio_output@@V?$standard_base@_WV?$string_output_adapter@_W@__crt_stdio_output@@@2@@__crt_stdio_output@@AAE_NXZ 10048a9e f i libucrt:output.obj
 0001:00047ad5       ?state_count@?$format_validation_base@DV?$stream_output_adapter@D@__crt_stdio_output@@@__crt_stdio_output@@KAIXZ 10048ad5 f i libucrt:output.obj
 0001:00047ad9       ?state_count@?$format_validation_base@DV?$string_output_adapter@D@__crt_stdio_output@@@__crt_stdio_output@@KAIXZ 10048ad9 f i libucrt:output.obj
 0001:00047add       ?state_count@?$format_validation_base@_WV?$stream_output_adapter@_W@__crt_stdio_output@@@__crt_stdio_output@@KAIXZ 10048add f i libucrt:output.obj
 0001:00047ae1       ?state_count@?$format_validation_base@_WV?$string_output_adapter@_W@__crt_stdio_output@@@__crt_stdio_output@@KAIXZ 10048ae1 f i libucrt:output.obj
 0001:00047ae5       ?state_count@?$standard_base@DV?$stream_output_adapter@D@__crt_stdio_output@@@__crt_stdio_output@@KAIXZ 10048ae5 f i libucrt:output.obj
 0001:00047ae9       ?state_count@?$standard_base@DV?$string_output_adapter@D@__crt_stdio_output@@@__crt_stdio_output@@KAIXZ 10048ae9 f i libucrt:output.obj
 0001:00047aed       ?state_count@?$standard_base@_WV?$stream_output_adapter@_W@__crt_stdio_output@@@__crt_stdio_output@@KAIXZ 10048aed f i libucrt:output.obj
 0001:00047af1       ?state_count@?$standard_base@_WV?$string_output_adapter@_W@__crt_stdio_output@@@__crt_stdio_output@@KAIXZ 10048af1 f i libucrt:output.obj
 0001:00047af5       ?state_transition_table@?$format_validation_base@DV?$stream_output_adapter@D@__crt_stdio_output@@@__crt_stdio_output@@KAPBEXZ 10048af5 f i libucrt:output.obj
 0001:00047afb       ?state_transition_table@?$format_validation_base@DV?$string_output_adapter@D@__crt_stdio_output@@@__crt_stdio_output@@KAPBEXZ 10048afb f i libucrt:output.obj
 0001:00047b01       ?state_transition_table@?$format_validation_base@_WV?$stream_output_adapter@_W@__crt_stdio_output@@@__crt_stdio_output@@KAPBEXZ 10048b01 f i libucrt:output.obj
 0001:00047b07       ?state_transition_table@?$format_validation_base@_WV?$string_output_adapter@_W@__crt_stdio_output@@@__crt_stdio_output@@KAPBEXZ 10048b07 f i libucrt:output.obj
 0001:00047b0d       ?state_transition_table@?$standard_base@DV?$stream_output_adapter@D@__crt_stdio_output@@@__crt_stdio_output@@KAPBEXZ 10048b0d f i libucrt:output.obj
 0001:00047b13       ?state_transition_table@?$standard_base@DV?$string_output_adapter@D@__crt_stdio_output@@@__crt_stdio_output@@KAPBEXZ 10048b13 f i libucrt:output.obj
 0001:00047b19       ?state_transition_table@?$standard_base@_WV?$stream_output_adapter@_W@__crt_stdio_output@@@__crt_stdio_output@@KAPBEXZ 10048b19 f i libucrt:output.obj
 0001:00047b1f       ?state_transition_table@?$standard_base@_WV?$string_output_adapter@_W@__crt_stdio_output@@@__crt_stdio_output@@KAPBEXZ 10048b1f f i libucrt:output.obj
 0001:00047b25       ?to_integer_size@__crt_stdio_output@@YAIW4length_modifier@1@@Z 10048b25 f i libucrt:output.obj
 0001:00047b98       ?type_case_X@?$output_processor@DV?$stream_output_adapter@D@__crt_stdio_output@@V?$format_validation_base@DV?$stream_output_adapter@D@__crt_stdio_output@@@2@@__crt_stdio_output@@AAE_NXZ 10048b98 f i libucrt:output.obj
 0001:00047ba4       ?type_case_X@?$output_processor@DV?$stream_output_adapter@D@__crt_stdio_output@@V?$positional_parameter_base@DV?$stream_output_adapter@D@__crt_stdio_output@@@2@@__crt_stdio_output@@AAE_NXZ 10048ba4 f i libucrt:output.obj
 0001:00047bb0       ?type_case_X@?$output_processor@DV?$stream_output_adapter@D@__crt_stdio_output@@V?$standard_base@DV?$stream_output_adapter@D@__crt_stdio_output@@@2@@__crt_stdio_output@@AAE_NXZ 10048bb0 f i libucrt:output.obj
 0001:00047bbc       ?type_case_X@?$output_processor@DV?$string_output_adapter@D@__crt_stdio_output@@V?$format_validation_base@DV?$string_output_adapter@D@__crt_stdio_output@@@2@@__crt_stdio_output@@AAE_NXZ 10048bbc f i libucrt:output.obj
 0001:00047bc8       ?type_case_X@?$output_processor@DV?$string_output_adapter@D@__crt_stdio_output@@V?$positional_parameter_base@DV?$string_output_adapter@D@__crt_stdio_output@@@2@@__crt_stdio_output@@AAE_NXZ 10048bc8 f i libucrt:output.obj
 0001:00047bd4       ?type_case_X@?$output_processor@DV?$string_output_adapter@D@__crt_stdio_output@@V?$standard_base@DV?$string_output_adapter@D@__crt_stdio_output@@@2@@__crt_stdio_output@@AAE_NXZ 10048bd4 f i libucrt:output.obj
 0001:00047be0       ?type_case_X@?$output_processor@_WV?$stream_output_adapter@_W@__crt_stdio_output@@V?$format_validation_base@_WV?$stream_output_adapter@_W@__crt_stdio_output@@@2@@__crt_stdio_output@@AAE_NXZ 10048be0 f i libucrt:output.obj
 0001:00047bec       ?type_case_X@?$output_processor@_WV?$stream_output_adapter@_W@__crt_stdio_output@@V?$positional_parameter_base@_WV?$stream_output_adapter@_W@__crt_stdio_output@@@2@@__crt_stdio_output@@AAE_NXZ 10048bec f i libucrt:output.obj
 0001:00047bf8       ?type_case_X@?$output_processor@_WV?$stream_output_adapter@_W@__crt_stdio_output@@V?$standard_base@_WV?$stream_output_adapter@_W@__crt_stdio_output@@@2@@__crt_stdio_output@@AAE_NXZ 10048bf8 f i libucrt:output.obj
 0001:00047c04       ?type_case_X@?$output_processor@_WV?$string_output_adapter@_W@__crt_stdio_output@@V?$format_validation_base@_WV?$string_output_adapter@_W@__crt_stdio_output@@@2@@__crt_stdio_output@@AAE_NXZ 10048c04 f i libucrt:output.obj
 0001:00047c10       ?type_case_X@?$output_processor@_WV?$string_output_adapter@_W@__crt_stdio_output@@V?$positional_parameter_base@_WV?$string_output_adapter@_W@__crt_stdio_output@@@2@@__crt_stdio_output@@AAE_NXZ 10048c10 f i libucrt:output.obj
 0001:00047c1c       ?type_case_X@?$output_processor@_WV?$string_output_adapter@_W@__crt_stdio_output@@V?$standard_base@_WV?$string_output_adapter@_W@__crt_stdio_output@@@2@@__crt_stdio_output@@AAE_NXZ 10048c1c f i libucrt:output.obj
 0001:00047c28       ?type_case_Z@?$output_processor@DV?$stream_output_adapter@D@__crt_stdio_output@@V?$format_validation_base@DV?$stream_output_adapter@D@__crt_stdio_output@@@2@@__crt_stdio_output@@AAE_NXZ 10048c28 f i libucrt:output.obj
 0001:00047ca3       ?type_case_Z@?$output_processor@DV?$stream_output_adapter@D@__crt_stdio_output@@V?$positional_parameter_base@DV?$stream_output_adapter@D@__crt_stdio_output@@@2@@__crt_stdio_output@@AAE_NXZ 10048ca3 f i libucrt:output.obj
 0001:00047d41       ?type_case_Z@?$output_processor@DV?$stream_output_adapter@D@__crt_stdio_output@@V?$standard_base@DV?$stream_output_adapter@D@__crt_stdio_output@@@2@@__crt_stdio_output@@AAE_NXZ 10048d41 f i libucrt:output.obj
 0001:00047dbc       ?type_case_Z@?$output_processor@DV?$string_output_adapter@D@__crt_stdio_output@@V?$format_validation_base@DV?$string_output_adapter@D@__crt_stdio_output@@@2@@__crt_stdio_output@@AAE_NXZ 10048dbc f i libucrt:output.obj
 0001:00047e37       ?type_case_Z@?$output_processor@DV?$string_output_adapter@D@__crt_stdio_output@@V?$positional_parameter_base@DV?$string_output_adapter@D@__crt_stdio_output@@@2@@__crt_stdio_output@@AAE_NXZ 10048e37 f i libucrt:output.obj
 0001:00047ed5       ?type_case_Z@?$output_processor@DV?$string_output_adapter@D@__crt_stdio_output@@V?$standard_base@DV?$string_output_adapter@D@__crt_stdio_output@@@2@@__crt_stdio_output@@AAE_NXZ 10048ed5 f i libucrt:output.obj
 0001:00047f50       ?type_case_Z@?$output_processor@_WV?$stream_output_adapter@_W@__crt_stdio_output@@V?$format_validation_base@_WV?$stream_output_adapter@_W@__crt_stdio_output@@@2@@__crt_stdio_output@@AAE_NXZ 10048f50 f i libucrt:output.obj
 0001:00047fcb       ?type_case_Z@?$output_processor@_WV?$stream_output_adapter@_W@__crt_stdio_output@@V?$positional_parameter_base@_WV?$stream_output_adapter@_W@__crt_stdio_output@@@2@@__crt_stdio_output@@AAE_NXZ 10048fcb f i libucrt:output.obj
 0001:00048069       ?type_case_Z@?$output_processor@_WV?$stream_output_adapter@_W@__crt_stdio_output@@V?$standard_base@_WV?$stream_output_adapter@_W@__crt_stdio_output@@@2@@__crt_stdio_output@@AAE_NXZ 10049069 f i libucrt:output.obj
 0001:000480e4       ?type_case_Z@?$output_processor@_WV?$string_output_adapter@_W@__crt_stdio_output@@V?$format_validation_base@_WV?$string_output_adapter@_W@__crt_stdio_output@@@2@@__crt_stdio_output@@AAE_NXZ 100490e4 f i libucrt:output.obj
 0001:0004815f       ?type_case_Z@?$output_processor@_WV?$string_output_adapter@_W@__crt_stdio_output@@V?$positional_parameter_base@_WV?$string_output_adapter@_W@__crt_stdio_output@@@2@@__crt_stdio_output@@AAE_NXZ 1004915f f i libucrt:output.obj
 0001:000481fd       ?type_case_Z@?$output_processor@_WV?$string_output_adapter@_W@__crt_stdio_output@@V?$standard_base@_WV?$string_output_adapter@_W@__crt_stdio_output@@@2@@__crt_stdio_output@@AAE_NXZ 100491fd f i libucrt:output.obj
 0001:00048278       ?type_case_a@?$output_processor@DV?$stream_output_adapter@D@__crt_stdio_output@@V?$format_validation_base@DV?$stream_output_adapter@D@__crt_stdio_output@@@2@@__crt_stdio_output@@AAE_NXZ 10049278 f i libucrt:output.obj
 0001:00048428       ?type_case_a@?$output_processor@DV?$stream_output_adapter@D@__crt_stdio_output@@V?$positional_parameter_base@DV?$stream_output_adapter@D@__crt_stdio_output@@@2@@__crt_stdio_output@@AAE_NXZ 10049428 f i libucrt:output.obj
 0001:000485ff       ?type_case_a@?$output_processor@DV?$stream_output_adapter@D@__crt_stdio_output@@V?$standard_base@DV?$stream_output_adapter@D@__crt_stdio_output@@@2@@__crt_stdio_output@@AAE_NXZ 100495ff f i libucrt:output.obj
 0001:000487af       ?type_case_a@?$output_processor@DV?$string_output_adapter@D@__crt_stdio_output@@V?$format_validation_base@DV?$string_output_adapter@D@__crt_stdio_output@@@2@@__crt_stdio_output@@AAE_NXZ 100497af f i libucrt:output.obj
 0001:0004895f       ?type_case_a@?$output_processor@DV?$string_output_adapter@D@__crt_stdio_output@@V?$positional_parameter_base@DV?$string_output_adapter@D@__crt_stdio_output@@@2@@__crt_stdio_output@@AAE_NXZ 1004995f f i libucrt:output.obj
 0001:00048b36       ?type_case_a@?$output_processor@DV?$string_output_adapter@D@__crt_stdio_output@@V?$standard_base@DV?$string_output_adapter@D@__crt_stdio_output@@@2@@__crt_stdio_output@@AAE_NXZ 10049b36 f i libucrt:output.obj
 0001:00048ce6       ?type_case_a@?$output_processor@_WV?$stream_output_adapter@_W@__crt_stdio_output@@V?$format_validation_base@_WV?$stream_output_adapter@_W@__crt_stdio_output@@@2@@__crt_stdio_output@@AAE_NXZ 10049ce6 f i libucrt:output.obj
 0001:00048eb4       ?type_case_a@?$output_processor@_WV?$stream_output_adapter@_W@__crt_stdio_output@@V?$positional_parameter_base@_WV?$stream_output_adapter@_W@__crt_stdio_output@@@2@@__crt_stdio_output@@AAE_NXZ 10049eb4 f i libucrt:output.obj
 0001:000490a9       ?type_case_a@?$output_processor@_WV?$stream_output_adapter@_W@__crt_stdio_output@@V?$standard_base@_WV?$stream_output_adapter@_W@__crt_stdio_output@@@2@@__crt_stdio_output@@AAE_NXZ 1004a0a9 f i libucrt:output.obj
 0001:00049277       ?type_case_a@?$output_processor@_WV?$string_output_adapter@_W@__crt_stdio_output@@V?$format_validation_base@_WV?$string_output_adapter@_W@__crt_stdio_output@@@2@@__crt_stdio_output@@AAE_NXZ 1004a277 f i libucrt:output.obj
 0001:00049445       ?type_case_a@?$output_processor@_WV?$string_output_adapter@_W@__crt_stdio_output@@V?$positional_parameter_base@_WV?$string_output_adapter@_W@__crt_stdio_output@@@2@@__crt_stdio_output@@AAE_NXZ 1004a445 f i libucrt:output.obj
 0001:0004963a       ?type_case_a@?$output_processor@_WV?$string_output_adapter@_W@__crt_stdio_output@@V?$standard_base@_WV?$string_output_adapter@_W@__crt_stdio_output@@@2@@__crt_stdio_output@@AAE_NXZ 1004a63a f i libucrt:output.obj
 0001:00049808       ?type_case_c@?$output_processor@DV?$stream_output_adapter@D@__crt_stdio_output@@V?$format_validation_base@DV?$stream_output_adapter@D@__crt_stdio_output@@@2@@__crt_stdio_output@@AAE_NXZ 1004a808 f i libucrt:output.obj
 0001:00049812       ?type_case_c@?$output_processor@DV?$stream_output_adapter@D@__crt_stdio_output@@V?$positional_parameter_base@DV?$stream_output_adapter@D@__crt_stdio_output@@@2@@__crt_stdio_output@@AAE_NXZ 1004a812 f i libucrt:output.obj
 0001:0004981c       ?type_case_c@?$output_processor@DV?$stream_output_adapter@D@__crt_stdio_output@@V?$standard_base@DV?$stream_output_adapter@D@__crt_stdio_output@@@2@@__crt_stdio_output@@AAE_NXZ 1004a81c f i libucrt:output.obj
 0001:00049826       ?type_case_c@?$output_processor@DV?$string_output_adapter@D@__crt_stdio_output@@V?$format_validation_base@DV?$string_output_adapter@D@__crt_stdio_output@@@2@@__crt_stdio_output@@AAE_NXZ 1004a826 f i libucrt:output.obj
 0001:00049830       ?type_case_c@?$output_processor@DV?$string_output_adapter@D@__crt_stdio_output@@V?$positional_parameter_base@DV?$string_output_adapter@D@__crt_stdio_output@@@2@@__crt_stdio_output@@AAE_NXZ 1004a830 f i libucrt:output.obj
 0001:0004983a       ?type_case_c@?$output_processor@DV?$string_output_adapter@D@__crt_stdio_output@@V?$standard_base@DV?$string_output_adapter@D@__crt_stdio_output@@@2@@__crt_stdio_output@@AAE_NXZ 1004a83a f i libucrt:output.obj
 0001:00049844       ?type_case_c@?$output_processor@_WV?$stream_output_adapter@_W@__crt_stdio_output@@V?$format_validation_base@_WV?$stream_output_adapter@_W@__crt_stdio_output@@@2@@__crt_stdio_output@@AAE_NXZ 1004a844 f i libucrt:output.obj
 0001:0004984e       ?type_case_c@?$output_processor@_WV?$stream_output_adapter@_W@__crt_stdio_output@@V?$positional_parameter_base@_WV?$stream_output_adapter@_W@__crt_stdio_output@@@2@@__crt_stdio_output@@AAE_NXZ 1004a84e f i libucrt:output.obj
 0001:00049858       ?type_case_c@?$output_processor@_WV?$stream_output_adapter@_W@__crt_stdio_output@@V?$standard_base@_WV?$stream_output_adapter@_W@__crt_stdio_output@@@2@@__crt_stdio_output@@AAE_NXZ 1004a858 f i libucrt:output.obj
 0001:00049862       ?type_case_c@?$output_processor@_WV?$string_output_adapter@_W@__crt_stdio_output@@V?$format_validation_base@_WV?$string_output_adapter@_W@__crt_stdio_output@@@2@@__crt_stdio_output@@AAE_NXZ 1004a862 f i libucrt:output.obj
 0001:0004986c       ?type_case_c@?$output_processor@_WV?$string_output_adapter@_W@__crt_stdio_output@@V?$positional_parameter_base@_WV?$string_output_adapter@_W@__crt_stdio_output@@@2@@__crt_stdio_output@@AAE_NXZ 1004a86c f i libucrt:output.obj
 0001:00049876       ?type_case_c@?$output_processor@_WV?$string_output_adapter@_W@__crt_stdio_output@@V?$standard_base@_WV?$string_output_adapter@_W@__crt_stdio_output@@@2@@__crt_stdio_output@@AAE_NXZ 1004a876 f i libucrt:output.obj
 0001:00049880       ?type_case_c_tchar@?$output_processor@DV?$stream_output_adapter@D@__crt_stdio_output@@V?$format_validation_base@DV?$stream_output_adapter@D@__crt_stdio_output@@@2@@__crt_stdio_output@@AAE_ND@Z 1004a880 f i libucrt:output.obj
 0001:00049934       ?type_case_c_tchar@?$output_processor@DV?$stream_output_adapter@D@__crt_stdio_output@@V?$positional_parameter_base@DV?$stream_output_adapter@D@__crt_stdio_output@@@2@@__crt_stdio_output@@AAE_ND@Z 1004a934 f i libucrt:output.obj
 0001:00049a24       ?type_case_c_tchar@?$output_processor@DV?$stream_output_adapter@D@__crt_stdio_output@@V?$standard_base@DV?$stream_output_adapter@D@__crt_stdio_output@@@2@@__crt_stdio_output@@AAE_ND@Z 1004aa24 f i libucrt:output.obj
 0001:00049ad8       ?type_case_c_tchar@?$output_processor@DV?$string_output_adapter@D@__crt_stdio_output@@V?$format_validation_base@DV?$string_output_adapter@D@__crt_stdio_output@@@2@@__crt_stdio_output@@AAE_ND@Z 1004aad8 f i libucrt:output.obj
 0001:00049b8c       ?type_case_c_tchar@?$output_processor@DV?$string_output_adapter@D@__crt_stdio_output@@V?$positional_parameter_base@DV?$string_output_adapter@D@__crt_stdio_output@@@2@@__crt_stdio_output@@AAE_ND@Z 1004ab8c f i libucrt:output.obj
 0001:00049c7c       ?type_case_c_tchar@?$output_processor@DV?$string_output_adapter@D@__crt_stdio_output@@V?$standard_base@DV?$string_output_adapter@D@__crt_stdio_output@@@2@@__crt_stdio_output@@AAE_ND@Z 1004ac7c f i libucrt:output.obj
 0001:00049d30       ?type_case_c_tchar@?$output_processor@_WV?$stream_output_adapter@_W@__crt_stdio_output@@V?$format_validation_base@_WV?$stream_output_adapter@_W@__crt_stdio_output@@@2@@__crt_stdio_output@@AAE_N_W@Z 1004ad30 f i libucrt:output.obj
 0001:00049dee       ?type_case_c_tchar@?$output_processor@_WV?$stream_output_adapter@_W@__crt_stdio_output@@V?$positional_parameter_base@_WV?$stream_output_adapter@_W@__crt_stdio_output@@@2@@__crt_stdio_output@@AAE_N_W@Z 1004adee f i libucrt:output.obj
 0001:00049ec8       ?type_case_c_tchar@?$output_processor@_WV?$stream_output_adapter@_W@__crt_stdio_output@@V?$standard_base@_WV?$stream_output_adapter@_W@__crt_stdio_output@@@2@@__crt_stdio_output@@AAE_N_W@Z 1004aec8 f i libucrt:output.obj
 0001:00049f86       ?type_case_c_tchar@?$output_processor@_WV?$string_output_adapter@_W@__crt_stdio_output@@V?$format_validation_base@_WV?$string_output_adapter@_W@__crt_stdio_output@@@2@@__crt_stdio_output@@AAE_N_W@Z 1004af86 f i libucrt:output.obj
 0001:0004a044       ?type_case_c_tchar@?$output_processor@_WV?$string_output_adapter@_W@__crt_stdio_output@@V?$positional_parameter_base@_WV?$string_output_adapter@_W@__crt_stdio_output@@@2@@__crt_stdio_output@@AAE_N_W@Z 1004b044 f i libucrt:output.obj
 0001:0004a11e       ?type_case_c_tchar@?$output_processor@_WV?$string_output_adapter@_W@__crt_stdio_output@@V?$standard_base@_WV?$string_output_adapter@_W@__crt_stdio_output@@@2@@__crt_stdio_output@@AAE_N_W@Z 1004b11e f i libucrt:output.obj
 0001:0004a1dc       ?type_case_d@?$output_processor@DV?$stream_output_adapter@D@__crt_stdio_output@@V?$format_validation_base@DV?$stream_output_adapter@D@__crt_stdio_output@@@2@@__crt_stdio_output@@AAE_NXZ 1004b1dc f i libucrt:output.obj
 0001:0004a1ed       ?type_case_d@?$output_processor@DV?$stream_output_adapter@D@__crt_stdio_output@@V?$positional_parameter_base@DV?$stream_output_adapter@D@__crt_stdio_output@@@2@@__crt_stdio_output@@AAE_NXZ 1004b1ed f i libucrt:output.obj
 0001:0004a1fe       ?type_case_d@?$output_processor@DV?$stream_output_adapter@D@__crt_stdio_output@@V?$standard_base@DV?$stream_output_adapter@D@__crt_stdio_output@@@2@@__crt_stdio_output@@AAE_NXZ 1004b1fe f i libucrt:output.obj
 0001:0004a20f       ?type_case_d@?$output_processor@DV?$string_output_adapter@D@__crt_stdio_output@@V?$format_validation_base@DV?$string_output_adapter@D@__crt_stdio_output@@@2@@__crt_stdio_output@@AAE_NXZ 1004b20f f i libucrt:output.obj
 0001:0004a220       ?type_case_d@?$output_processor@DV?$string_output_adapter@D@__crt_stdio_output@@V?$positional_parameter_base@DV?$string_output_adapter@D@__crt_stdio_output@@@2@@__crt_stdio_output@@AAE_NXZ 1004b220 f i libucrt:output.obj
 0001:0004a231       ?type_case_d@?$output_processor@DV?$string_output_adapter@D@__crt_stdio_output@@V?$standard_base@DV?$string_output_adapter@D@__crt_stdio_output@@@2@@__crt_stdio_output@@AAE_NXZ 1004b231 f i libucrt:output.obj
 0001:0004a242       ?type_case_d@?$output_processor@_WV?$stream_output_adapter@_W@__crt_stdio_output@@V?$format_validation_base@_WV?$stream_output_adapter@_W@__crt_stdio_output@@@2@@__crt_stdio_output@@AAE_NXZ 1004b242 f i libucrt:output.obj
 0001:0004a253       ?type_case_d@?$output_processor@_WV?$stream_output_adapter@_W@__crt_stdio_output@@V?$positional_parameter_base@_WV?$stream_output_adapter@_W@__crt_stdio_output@@@2@@__crt_stdio_output@@AAE_NXZ 1004b253 f i libucrt:output.obj
 0001:0004a264       ?type_case_d@?$output_processor@_WV?$stream_output_adapter@_W@__crt_stdio_output@@V?$standard_base@_WV?$stream_output_adapter@_W@__crt_stdio_output@@@2@@__crt_stdio_output@@AAE_NXZ 1004b264 f i libucrt:output.obj
 0001:0004a275       ?type_case_d@?$output_processor@_WV?$string_output_adapter@_W@__crt_stdio_output@@V?$format_validation_base@_WV?$string_output_adapter@_W@__crt_stdio_output@@@2@@__crt_stdio_output@@AAE_NXZ 1004b275 f i libucrt:output.obj
 0001:0004a286       ?type_case_d@?$output_processor@_WV?$string_output_adapter@_W@__crt_stdio_output@@V?$positional_parameter_base@_WV?$string_output_adapter@_W@__crt_stdio_output@@@2@@__crt_stdio_output@@AAE_NXZ 1004b286 f i libucrt:output.obj
 0001:0004a297       ?type_case_d@?$output_processor@_WV?$string_output_adapter@_W@__crt_stdio_output@@V?$standard_base@_WV?$string_output_adapter@_W@__crt_stdio_output@@@2@@__crt_stdio_output@@AAE_NXZ 1004b297 f i libucrt:output.obj
 0001:0004a2a8       ?type_case_integer@?$output_processor@DV?$stream_output_adapter@D@__crt_stdio_output@@V?$format_validation_base@DV?$stream_output_adapter@D@__crt_stdio_output@@@2@@__crt_stdio_output@@AAE_NI_N@Z 1004b2a8 f i libucrt:output.obj
 0001:0004a444       ?type_case_integer@?$output_processor@DV?$stream_output_adapter@D@__crt_stdio_output@@V?$positional_parameter_base@DV?$stream_output_adapter@D@__crt_stdio_output@@@2@@__crt_stdio_output@@AAE_NI_N@Z 1004b444 f i libucrt:output.obj
 0001:0004a621       ?type_case_integer@?$output_processor@DV?$stream_output_adapter@D@__crt_stdio_output@@V?$standard_base@DV?$stream_output_adapter@D@__crt_stdio_output@@@2@@__crt_stdio_output@@AAE_NI_N@Z 1004b621 f i libucrt:output.obj
 0001:0004a7bd       ?type_case_integer@?$output_processor@DV?$string_output_adapter@D@__crt_stdio_output@@V?$format_validation_base@DV?$string_output_adapter@D@__crt_stdio_output@@@2@@__crt_stdio_output@@AAE_NI_N@Z 1004b7bd f i libucrt:output.obj
 0001:0004a959       ?type_case_integer@?$output_processor@DV?$string_output_adapter@D@__crt_stdio_output@@V?$positional_parameter_base@DV?$string_output_adapter@D@__crt_stdio_output@@@2@@__crt_stdio_output@@AAE_NI_N@Z 1004b959 f i libucrt:output.obj
 0001:0004ab36       ?type_case_integer@?$output_processor@DV?$string_output_adapter@D@__crt_stdio_output@@V?$standard_base@DV?$string_output_adapter@D@__crt_stdio_output@@@2@@__crt_stdio_output@@AAE_NI_N@Z 1004bb36 f i libucrt:output.obj
 0001:0004acd2       ?type_case_integer@?$output_processor@_WV?$stream_output_adapter@_W@__crt_stdio_output@@V?$format_validation_base@_WV?$stream_output_adapter@_W@__crt_stdio_output@@@2@@__crt_stdio_output@@AAE_NI_N@Z 1004bcd2 f i libucrt:output.obj
 0001:0004ae6e       ?type_case_integer@?$output_processor@_WV?$stream_output_adapter@_W@__crt_stdio_output@@V?$positional_parameter_base@_WV?$stream_output_adapter@_W@__crt_stdio_output@@@2@@__crt_stdio_output@@AAE_NI_N@Z 1004be6e f i libucrt:output.obj
 0001:0004b04b       ?type_case_integer@?$output_processor@_WV?$stream_output_adapter@_W@__crt_stdio_output@@V?$standard_base@_WV?$stream_output_adapter@_W@__crt_stdio_output@@@2@@__crt_stdio_output@@AAE_NI_N@Z 1004c04b f i libucrt:output.obj
 0001:0004b1e7       ?type_case_integer@?$output_processor@_WV?$string_output_adapter@_W@__crt_stdio_output@@V?$format_validation_base@_WV?$string_output_adapter@_W@__crt_stdio_output@@@2@@__crt_stdio_output@@AAE_NI_N@Z 1004c1e7 f i libucrt:output.obj
 0001:0004b383       ?type_case_integer@?$output_processor@_WV?$string_output_adapter@_W@__crt_stdio_output@@V?$positional_parameter_base@_WV?$string_output_adapter@_W@__crt_stdio_output@@@2@@__crt_stdio_output@@AAE_NI_N@Z 1004c383 f i libucrt:output.obj
 0001:0004b560       ?type_case_integer@?$output_processor@_WV?$string_output_adapter@_W@__crt_stdio_output@@V?$standard_base@_WV?$string_output_adapter@_W@__crt_stdio_output@@@2@@__crt_stdio_output@@AAE_NI_N@Z 1004c560 f i libucrt:output.obj
 0001:0004b6fc       ?type_case_n@?$output_processor@DV?$stream_output_adapter@D@__crt_stdio_output@@V?$format_validation_base@DV?$stream_output_adapter@D@__crt_stdio_output@@@2@@__crt_stdio_output@@AAE_NXZ 1004c6fc f i libucrt:output.obj
 0001:0004b78d       ?type_case_n@?$output_processor@DV?$stream_output_adapter@D@__crt_stdio_output@@V?$positional_parameter_base@DV?$stream_output_adapter@D@__crt_stdio_output@@@2@@__crt_stdio_output@@AAE_NXZ 1004c78d f i libucrt:output.obj
 0001:0004b84c       ?type_case_n@?$output_processor@DV?$stream_output_adapter@D@__crt_stdio_output@@V?$standard_base@DV?$stream_output_adapter@D@__crt_stdio_output@@@2@@__crt_stdio_output@@AAE_NXZ 1004c84c f i libucrt:output.obj
 0001:0004b8dd       ?type_case_n@?$output_processor@DV?$string_output_adapter@D@__crt_stdio_output@@V?$format_validation_base@DV?$string_output_adapter@D@__crt_stdio_output@@@2@@__crt_stdio_output@@AAE_NXZ 1004c8dd f i libucrt:output.obj
 0001:0004b96e       ?type_case_n@?$output_processor@DV?$string_output_adapter@D@__crt_stdio_output@@V?$positional_parameter_base@DV?$string_output_adapter@D@__crt_stdio_output@@@2@@__crt_stdio_output@@AAE_NXZ 1004c96e f i libucrt:output.obj
 0001:0004ba2d       ?type_case_n@?$output_processor@DV?$string_output_adapter@D@__crt_stdio_output@@V?$standard_base@DV?$string_output_adapter@D@__crt_stdio_output@@@2@@__crt_stdio_output@@AAE_NXZ 1004ca2d f i libucrt:output.obj
 0001:0004babe       ?type_case_n@?$output_processor@_WV?$stream_output_adapter@_W@__crt_stdio_output@@V?$format_validation_base@_WV?$stream_output_adapter@_W@__crt_stdio_output@@@2@@__crt_stdio_output@@AAE_NXZ 1004cabe f i libucrt:output.obj
 0001:0004bb4f       ?type_case_n@?$output_processor@_WV?$stream_output_adapter@_W@__crt_stdio_output@@V?$positional_parameter_base@_WV?$stream_output_adapter@_W@__crt_stdio_output@@@2@@__crt_stdio_output@@AAE_NXZ 1004cb4f f i libucrt:output.obj
 0001:0004bc0e       ?type_case_n@?$output_processor@_WV?$stream_output_adapter@_W@__crt_stdio_output@@V?$standard_base@_WV?$stream_output_adapter@_W@__crt_stdio_output@@@2@@__crt_stdio_output@@AAE_NXZ 1004cc0e f i libucrt:output.obj
 0001:0004bc9f       ?type_case_n@?$output_processor@_WV?$string_output_adapter@_W@__crt_stdio_output@@V?$format_validation_base@_WV?$string_output_adapter@_W@__crt_stdio_output@@@2@@__crt_stdio_output@@AAE_NXZ 1004cc9f f i libucrt:output.obj
 0001:0004bd30       ?type_case_n@?$output_processor@_WV?$string_output_adapter@_W@__crt_stdio_output@@V?$positional_parameter_base@_WV?$string_output_adapter@_W@__crt_stdio_output@@@2@@__crt_stdio_output@@AAE_NXZ 1004cd30 f i libucrt:output.obj
 0001:0004bdef       ?type_case_n@?$output_processor@_WV?$string_output_adapter@_W@__crt_stdio_output@@V?$standard_base@_WV?$string_output_adapter@_W@__crt_stdio_output@@@2@@__crt_stdio_output@@AAE_NXZ 1004cdef f i libucrt:output.obj
 0001:0004be80       ?type_case_o@?$output_processor@DV?$stream_output_adapter@D@__crt_stdio_output@@V?$format_validation_base@DV?$stream_output_adapter@D@__crt_stdio_output@@@2@@__crt_stdio_output@@AAE_NXZ 1004ce80 f i libucrt:output.obj
 0001:0004bea6       ?type_case_o@?$output_processor@DV?$stream_output_adapter@D@__crt_stdio_output@@V?$positional_parameter_base@DV?$stream_output_adapter@D@__crt_stdio_output@@@2@@__crt_stdio_output@@AAE_NXZ 1004cea6 f i libucrt:output.obj
 0001:0004becc       ?type_case_o@?$output_processor@DV?$stream_output_adapter@D@__crt_stdio_output@@V?$standard_base@DV?$stream_output_adapter@D@__crt_stdio_output@@@2@@__crt_stdio_output@@AAE_NXZ 1004cecc f i libucrt:output.obj
 0001:0004bef2       ?type_case_o@?$output_processor@DV?$string_output_adapter@D@__crt_stdio_output@@V?$format_validation_base@DV?$string_output_adapter@D@__crt_stdio_output@@@2@@__crt_stdio_output@@AAE_NXZ 1004cef2 f i libucrt:output.obj
 0001:0004bf18       ?type_case_o@?$output_processor@DV?$string_output_adapter@D@__crt_stdio_output@@V?$positional_parameter_base@DV?$string_output_adapter@D@__crt_stdio_output@@@2@@__crt_stdio_output@@AAE_NXZ 1004cf18 f i libucrt:output.obj
 0001:0004bf3e       ?type_case_o@?$output_processor@DV?$string_output_adapter@D@__crt_stdio_output@@V?$standard_base@DV?$string_output_adapter@D@__crt_stdio_output@@@2@@__crt_stdio_output@@AAE_NXZ 1004cf3e f i libucrt:output.obj
 0001:0004bf64       ?type_case_o@?$output_processor@_WV?$stream_output_adapter@_W@__crt_stdio_output@@V?$format_validation_base@_WV?$stream_output_adapter@_W@__crt_stdio_output@@@2@@__crt_stdio_output@@AAE_NXZ 1004cf64 f i libucrt:output.obj
 0001:0004bf8a       ?type_case_o@?$output_processor@_WV?$stream_output_adapter@_W@__crt_stdio_output@@V?$positional_parameter_base@_WV?$stream_output_adapter@_W@__crt_stdio_output@@@2@@__crt_stdio_output@@AAE_NXZ 1004cf8a f i libucrt:output.obj
 0001:0004bfb0       ?type_case_o@?$output_processor@_WV?$stream_output_adapter@_W@__crt_stdio_output@@V?$standard_base@_WV?$stream_output_adapter@_W@__crt_stdio_output@@@2@@__crt_stdio_output@@AAE_NXZ 1004cfb0 f i libucrt:output.obj
 0001:0004bfd6       ?type_case_o@?$output_processor@_WV?$string_output_adapter@_W@__crt_stdio_output@@V?$format_validation_base@_WV?$string_output_adapter@_W@__crt_stdio_output@@@2@@__crt_stdio_output@@AAE_NXZ 1004cfd6 f i libucrt:output.obj
 0001:0004bffc       ?type_case_o@?$output_processor@_WV?$string_output_adapter@_W@__crt_stdio_output@@V?$positional_parameter_base@_WV?$string_output_adapter@_W@__crt_stdio_output@@@2@@__crt_stdio_output@@AAE_NXZ 1004cffc f i libucrt:output.obj
 0001:0004c022       ?type_case_o@?$output_processor@_WV?$string_output_adapter@_W@__crt_stdio_output@@V?$standard_base@_WV?$string_output_adapter@_W@__crt_stdio_output@@@2@@__crt_stdio_output@@AAE_NXZ 1004d022 f i libucrt:output.obj
 0001:0004c048       ?type_case_p@?$output_processor@DV?$stream_output_adapter@D@__crt_stdio_output@@V?$format_validation_base@DV?$stream_output_adapter@D@__crt_stdio_output@@@2@@__crt_stdio_output@@AAE_NXZ 1004d048 f i libucrt:output.obj
 0001:0004c066       ?type_case_p@?$output_processor@DV?$stream_output_adapter@D@__crt_stdio_output@@V?$positional_parameter_base@DV?$stream_output_adapter@D@__crt_stdio_output@@@2@@__crt_stdio_output@@AAE_NXZ 1004d066 f i libucrt:output.obj
 0001:0004c084       ?type_case_p@?$output_processor@DV?$stream_output_adapter@D@__crt_stdio_output@@V?$standard_base@DV?$stream_output_adapter@D@__crt_stdio_output@@@2@@__crt_stdio_output@@AAE_NXZ 1004d084 f i libucrt:output.obj
 0001:0004c0a2       ?type_case_p@?$output_processor@DV?$string_output_adapter@D@__crt_stdio_output@@V?$format_validation_base@DV?$string_output_adapter@D@__crt_stdio_output@@@2@@__crt_stdio_output@@AAE_NXZ 1004d0a2 f i libucrt:output.obj
 0001:0004c0c0       ?type_case_p@?$output_processor@DV?$string_output_adapter@D@__crt_stdio_output@@V?$positional_parameter_base@DV?$string_output_adapter@D@__crt_stdio_output@@@2@@__crt_stdio_output@@AAE_NXZ 1004d0c0 f i libucrt:output.obj
 0001:0004c0de       ?type_case_p@?$output_processor@DV?$string_output_adapter@D@__crt_stdio_output@@V?$standard_base@DV?$string_output_adapter@D@__crt_stdio_output@@@2@@__crt_stdio_output@@AAE_NXZ 1004d0de f i libucrt:output.obj
 0001:0004c0fc       ?type_case_p@?$output_processor@_WV?$stream_output_adapter@_W@__crt_stdio_output@@V?$format_validation_base@_WV?$stream_output_adapter@_W@__crt_stdio_output@@@2@@__crt_stdio_output@@AAE_NXZ 1004d0fc f i libucrt:output.obj
 0001:0004c11a       ?type_case_p@?$output_processor@_WV?$stream_output_adapter@_W@__crt_stdio_output@@V?$positional_parameter_base@_WV?$stream_output_adapter@_W@__crt_stdio_output@@@2@@__crt_stdio_output@@AAE_NXZ 1004d11a f i libucrt:output.obj
 0001:0004c138       ?type_case_p@?$output_processor@_WV?$stream_output_adapter@_W@__crt_stdio_output@@V?$standard_base@_WV?$stream_output_adapter@_W@__crt_stdio_output@@@2@@__crt_stdio_output@@AAE_NXZ 1004d138 f i libucrt:output.obj
 0001:0004c156       ?type_case_p@?$output_processor@_WV?$string_output_adapter@_W@__crt_stdio_output@@V?$format_validation_base@_WV?$string_output_adapter@_W@__crt_stdio_output@@@2@@__crt_stdio_output@@AAE_NXZ 1004d156 f i libucrt:output.obj
 0001:0004c174       ?type_case_p@?$output_processor@_WV?$string_output_adapter@_W@__crt_stdio_output@@V?$positional_parameter_base@_WV?$string_output_adapter@_W@__crt_stdio_output@@@2@@__crt_stdio_output@@AAE_NXZ 1004d174 f i libucrt:output.obj
 0001:0004c192       ?type_case_p@?$output_processor@_WV?$string_output_adapter@_W@__crt_stdio_output@@V?$standard_base@_WV?$string_output_adapter@_W@__crt_stdio_output@@@2@@__crt_stdio_output@@AAE_NXZ 1004d192 f i libucrt:output.obj
 0001:0004c1b0       ?type_case_s@?$output_processor@DV?$stream_output_adapter@D@__crt_stdio_output@@V?$format_validation_base@DV?$stream_output_adapter@D@__crt_stdio_output@@@2@@__crt_stdio_output@@AAE_NXZ 1004d1b0 f i libucrt:output.obj
 0001:0004c23f       ?type_case_s@?$output_processor@DV?$stream_output_adapter@D@__crt_stdio_output@@V?$positional_parameter_base@DV?$stream_output_adapter@D@__crt_stdio_output@@@2@@__crt_stdio_output@@AAE_NXZ 1004d23f f i libucrt:output.obj
 0001:0004c2da       ?type_case_s@?$output_processor@DV?$stream_output_adapter@D@__crt_stdio_output@@V?$standard_base@DV?$stream_output_adapter@D@__crt_stdio_output@@@2@@__crt_stdio_output@@AAE_NXZ 1004d2da f i libucrt:output.obj
 0001:0004c369       ?type_case_s@?$output_processor@DV?$string_output_adapter@D@__crt_stdio_output@@V?$format_validation_base@DV?$string_output_adapter@D@__crt_stdio_output@@@2@@__crt_stdio_output@@AAE_NXZ 1004d369 f i libucrt:output.obj
 0001:0004c3f8       ?type_case_s@?$output_processor@DV?$string_output_adapter@D@__crt_stdio_output@@V?$positional_parameter_base@DV?$string_output_adapter@D@__crt_stdio_output@@@2@@__crt_stdio_output@@AAE_NXZ 1004d3f8 f i libucrt:output.obj
 0001:0004c493       ?type_case_s@?$output_processor@DV?$string_output_adapter@D@__crt_stdio_output@@V?$standard_base@DV?$string_output_adapter@D@__crt_stdio_output@@@2@@__crt_stdio_output@@AAE_NXZ 1004d493 f i libucrt:output.obj
 0001:0004c522       ?type_case_s@?$output_processor@_WV?$stream_output_adapter@_W@__crt_stdio_output@@V?$format_validation_base@_WV?$stream_output_adapter@_W@__crt_stdio_output@@@2@@__crt_stdio_output@@AAE_NXZ 1004d522 f i libucrt:output.obj
 0001:0004c5b3       ?type_case_s@?$output_processor@_WV?$stream_output_adapter@_W@__crt_stdio_output@@V?$positional_parameter_base@_WV?$stream_output_adapter@_W@__crt_stdio_output@@@2@@__crt_stdio_output@@AAE_NXZ 1004d5b3 f i libucrt:output.obj
 0001:0004c650       ?type_case_s@?$output_processor@_WV?$stream_output_adapter@_W@__crt_stdio_output@@V?$standard_base@_WV?$stream_output_adapter@_W@__crt_stdio_output@@@2@@__crt_stdio_output@@AAE_NXZ 1004d650 f i libucrt:output.obj
 0001:0004c6e1       ?type_case_s@?$output_processor@_WV?$string_output_adapter@_W@__crt_stdio_output@@V?$format_validation_base@_WV?$string_output_adapter@_W@__crt_stdio_output@@@2@@__crt_stdio_output@@AAE_NXZ 1004d6e1 f i libucrt:output.obj
 0001:0004c772       ?type_case_s@?$output_processor@_WV?$string_output_adapter@_W@__crt_stdio_output@@V?$positional_parameter_base@_WV?$string_output_adapter@_W@__crt_stdio_output@@@2@@__crt_stdio_output@@AAE_NXZ 1004d772 f i libucrt:output.obj
 0001:0004c80f       ?type_case_s@?$output_processor@_WV?$string_output_adapter@_W@__crt_stdio_output@@V?$standard_base@_WV?$string_output_adapter@_W@__crt_stdio_output@@@2@@__crt_stdio_output@@AAE_NXZ 1004d80f f i libucrt:output.obj
 0001:0004c8a0       ?type_case_s_compute_narrow_string_length@?$output_processor@DV?$stream_output_adapter@D@__crt_stdio_output@@V?$format_validation_base@DV?$stream_output_adapter@D@__crt_stdio_output@@@2@@__crt_stdio_output@@ABEHHD@Z 1004d8a0 f i libucrt:output.obj
 0001:0004c8bb       ?type_case_s_compute_narrow_string_length@?$output_processor@DV?$stream_output_adapter@D@__crt_stdio_output@@V?$positional_parameter_base@DV?$stream_output_adapter@D@__crt_stdio_output@@@2@@__crt_stdio_output@@ABEHHD@Z 1004d8bb f i libucrt:output.obj
 0001:0004c8d6       ?type_case_s_compute_narrow_string_length@?$output_processor@DV?$stream_output_adapter@D@__crt_stdio_output@@V?$standard_base@DV?$stream_output_adapter@D@__crt_stdio_output@@@2@@__crt_stdio_output@@ABEHHD@Z 1004d8d6 f i libucrt:output.obj
 0001:0004c8f1       ?type_case_s_compute_narrow_string_length@?$output_processor@DV?$string_output_adapter@D@__crt_stdio_output@@V?$format_validation_base@DV?$string_output_adapter@D@__crt_stdio_output@@@2@@__crt_stdio_output@@ABEHHD@Z 1004d8f1 f i libucrt:output.obj
 0001:0004c90c       ?type_case_s_compute_narrow_string_length@?$output_processor@DV?$string_output_adapter@D@__crt_stdio_output@@V?$positional_parameter_base@DV?$string_output_adapter@D@__crt_stdio_output@@@2@@__crt_stdio_output@@ABEHHD@Z 1004d90c f i libucrt:output.obj
 0001:0004c927       ?type_case_s_compute_narrow_string_length@?$output_processor@DV?$string_output_adapter@D@__crt_stdio_output@@V?$standard_base@DV?$string_output_adapter@D@__crt_stdio_output@@@2@@__crt_stdio_output@@ABEHHD@Z 1004d927 f i libucrt:output.obj
 0001:0004c942       ?type_case_s_compute_narrow_string_length@?$output_processor@_WV?$stream_output_adapter@_W@__crt_stdio_output@@V?$format_validation_base@_WV?$stream_output_adapter@_W@__crt_stdio_output@@@2@@__crt_stdio_output@@ABEHH_W@Z 1004d942 f i libucrt:output.obj
 0001:0004c992       ?type_case_s_compute_narrow_string_length@?$output_processor@_WV?$stream_output_adapter@_W@__crt_stdio_output@@V?$positional_parameter_base@_WV?$stream_output_adapter@_W@__crt_stdio_output@@@2@@__crt_stdio_output@@ABEHH_W@Z 1004d992 f i libucrt:output.obj
 0001:0004c9e2       ?type_case_s_compute_narrow_string_length@?$output_processor@_WV?$stream_output_adapter@_W@__crt_stdio_output@@V?$standard_base@_WV?$stream_output_adapter@_W@__crt_stdio_output@@@2@@__crt_stdio_output@@ABEHH_W@Z 1004d9e2 f i libucrt:output.obj
 0001:0004ca32       ?type_case_s_compute_narrow_string_length@?$output_processor@_WV?$string_output_adapter@_W@__crt_stdio_output@@V?$format_validation_base@_WV?$string_output_adapter@_W@__crt_stdio_output@@@2@@__crt_stdio_output@@ABEHH_W@Z 1004da32 f i libucrt:output.obj
 0001:0004ca82       ?type_case_s_compute_narrow_string_length@?$output_processor@_WV?$string_output_adapter@_W@__crt_stdio_output@@V?$positional_parameter_base@_WV?$string_output_adapter@_W@__crt_stdio_output@@@2@@__crt_stdio_output@@ABEHH_W@Z 1004da82 f i libucrt:output.obj
 0001:0004cad2       ?type_case_s_compute_narrow_string_length@?$output_processor@_WV?$string_output_adapter@_W@__crt_stdio_output@@V?$standard_base@_WV?$string_output_adapter@_W@__crt_stdio_output@@@2@@__crt_stdio_output@@ABEHH_W@Z 1004dad2 f i libucrt:output.obj
 0001:0004cb22       ?type_case_u@?$output_processor@DV?$stream_output_adapter@D@__crt_stdio_output@@V?$format_validation_base@DV?$stream_output_adapter@D@__crt_stdio_output@@@2@@__crt_stdio_output@@AAE_NXZ 1004db22 f i libucrt:output.obj
 0001:0004cb2e       ?type_case_u@?$output_processor@DV?$stream_output_adapter@D@__crt_stdio_output@@V?$positional_parameter_base@DV?$stream_output_adapter@D@__crt_stdio_output@@@2@@__crt_stdio_output@@AAE_NXZ 1004db2e f i libucrt:output.obj
 0001:0004cb3a       ?type_case_u@?$output_processor@DV?$stream_output_adapter@D@__crt_stdio_output@@V?$standard_base@DV?$stream_output_adapter@D@__crt_stdio_output@@@2@@__crt_stdio_output@@AAE_NXZ 1004db3a f i libucrt:output.obj
 0001:0004cb46       ?type_case_u@?$output_processor@DV?$string_output_adapter@D@__crt_stdio_output@@V?$format_validation_base@DV?$string_output_adapter@D@__crt_stdio_output@@@2@@__crt_stdio_output@@AAE_NXZ 1004db46 f i libucrt:output.obj
 0001:0004cb52       ?type_case_u@?$output_processor@DV?$string_output_adapter@D@__crt_stdio_output@@V?$positional_parameter_base@DV?$string_output_adapter@D@__crt_stdio_output@@@2@@__crt_stdio_output@@AAE_NXZ 1004db52 f i libucrt:output.obj
 0001:0004cb5e       ?type_case_u@?$output_processor@DV?$string_output_adapter@D@__crt_stdio_output@@V?$standard_base@DV?$string_output_adapter@D@__crt_stdio_output@@@2@@__crt_stdio_output@@AAE_NXZ 1004db5e f i libucrt:output.obj
 0001:0004cb6a       ?type_case_u@?$output_processor@_WV?$stream_output_adapter@_W@__crt_stdio_output@@V?$format_validation_base@_WV?$stream_output_adapter@_W@__crt_stdio_output@@@2@@__crt_stdio_output@@AAE_NXZ 1004db6a f i libucrt:output.obj
 0001:0004cb76       ?type_case_u@?$output_processor@_WV?$stream_output_adapter@_W@__crt_stdio_output@@V?$positional_parameter_base@_WV?$stream_output_adapter@_W@__crt_stdio_output@@@2@@__crt_stdio_output@@AAE_NXZ 1004db76 f i libucrt:output.obj
 0001:0004cb82       ?type_case_u@?$output_processor@_WV?$stream_output_adapter@_W@__crt_stdio_output@@V?$standard_base@_WV?$stream_output_adapter@_W@__crt_stdio_output@@@2@@__crt_stdio_output@@AAE_NXZ 1004db82 f i libucrt:output.obj
 0001:0004cb8e       ?type_case_u@?$output_processor@_WV?$string_output_adapter@_W@__crt_stdio_output@@V?$format_validation_base@_WV?$string_output_adapter@_W@__crt_stdio_output@@@2@@__crt_stdio_output@@AAE_NXZ 1004db8e f i libucrt:output.obj
 0001:0004cb9a       ?type_case_u@?$output_processor@_WV?$string_output_adapter@_W@__crt_stdio_output@@V?$positional_parameter_base@_WV?$string_output_adapter@_W@__crt_stdio_output@@@2@@__crt_stdio_output@@AAE_NXZ 1004db9a f i libucrt:output.obj
 0001:0004cba6       ?type_case_u@?$output_processor@_WV?$string_output_adapter@_W@__crt_stdio_output@@V?$standard_base@_WV?$string_output_adapter@_W@__crt_stdio_output@@@2@@__crt_stdio_output@@AAE_NXZ 1004dba6 f i libucrt:output.obj
 0001:0004cbb2       ?type_case_x@?$output_processor@DV?$stream_output_adapter@D@__crt_stdio_output@@V?$format_validation_base@DV?$stream_output_adapter@D@__crt_stdio_output@@@2@@__crt_stdio_output@@AAE_NXZ 1004dbb2 f i libucrt:output.obj
 0001:0004cbbe       ?type_case_x@?$output_processor@DV?$stream_output_adapter@D@__crt_stdio_output@@V?$positional_parameter_base@DV?$stream_output_adapter@D@__crt_stdio_output@@@2@@__crt_stdio_output@@AAE_NXZ 1004dbbe f i libucrt:output.obj
 0001:0004cbca       ?type_case_x@?$output_processor@DV?$stream_output_adapter@D@__crt_stdio_output@@V?$standard_base@DV?$stream_output_adapter@D@__crt_stdio_output@@@2@@__crt_stdio_output@@AAE_NXZ 1004dbca f i libucrt:output.obj
 0001:0004cbd6       ?type_case_x@?$output_processor@DV?$string_output_adapter@D@__crt_stdio_output@@V?$format_validation_base@DV?$string_output_adapter@D@__crt_stdio_output@@@2@@__crt_stdio_output@@AAE_NXZ 1004dbd6 f i libucrt:output.obj
 0001:0004cbe2       ?type_case_x@?$output_processor@DV?$string_output_adapter@D@__crt_stdio_output@@V?$positional_parameter_base@DV?$string_output_adapter@D@__crt_stdio_output@@@2@@__crt_stdio_output@@AAE_NXZ 1004dbe2 f i libucrt:output.obj
 0001:0004cbee       ?type_case_x@?$output_processor@DV?$string_output_adapter@D@__crt_stdio_output@@V?$standard_base@DV?$string_output_adapter@D@__crt_stdio_output@@@2@@__crt_stdio_output@@AAE_NXZ 1004dbee f i libucrt:output.obj
 0001:0004cbfa       ?type_case_x@?$output_processor@_WV?$stream_output_adapter@_W@__crt_stdio_output@@V?$format_validation_base@_WV?$stream_output_adapter@_W@__crt_stdio_output@@@2@@__crt_stdio_output@@AAE_NXZ 1004dbfa f i libucrt:output.obj
 0001:0004cc06       ?type_case_x@?$output_processor@_WV?$stream_output_adapter@_W@__crt_stdio_output@@V?$positional_parameter_base@_WV?$stream_output_adapter@_W@__crt_stdio_output@@@2@@__crt_stdio_output@@AAE_NXZ 1004dc06 f i libucrt:output.obj
 0001:0004cc12       ?type_case_x@?$output_processor@_WV?$stream_output_adapter@_W@__crt_stdio_output@@V?$standard_base@_WV?$stream_output_adapter@_W@__crt_stdio_output@@@2@@__crt_stdio_output@@AAE_NXZ 1004dc12 f i libucrt:output.obj
 0001:0004cc1e       ?type_case_x@?$output_processor@_WV?$string_output_adapter@_W@__crt_stdio_output@@V?$format_validation_base@_WV?$string_output_adapter@_W@__crt_stdio_output@@@2@@__crt_stdio_output@@AAE_NXZ 1004dc1e f i libucrt:output.obj
 0001:0004cc2a       ?type_case_x@?$output_processor@_WV?$string_output_adapter@_W@__crt_stdio_output@@V?$positional_parameter_base@_WV?$string_output_adapter@_W@__crt_stdio_output@@@2@@__crt_stdio_output@@AAE_NXZ 1004dc2a f i libucrt:output.obj
 0001:0004cc36       ?type_case_x@?$output_processor@_WV?$string_output_adapter@_W@__crt_stdio_output@@V?$standard_base@_WV?$string_output_adapter@_W@__crt_stdio_output@@@2@@__crt_stdio_output@@AAE_NXZ 1004dc36 f i libucrt:output.obj
 0001:0004cc42       ?unset_flag@?$output_processor@DV?$stream_output_adapter@D@__crt_stdio_output@@V?$format_validation_base@DV?$stream_output_adapter@D@__crt_stdio_output@@@2@@__crt_stdio_output@@AAEXI@Z 1004dc42 f i libucrt:output.obj
 0001:0004cc57       ?unset_flag@?$output_processor@DV?$stream_output_adapter@D@__crt_stdio_output@@V?$positional_parameter_base@DV?$stream_output_adapter@D@__crt_stdio_output@@@2@@__crt_stdio_output@@AAEXI@Z 1004dc57 f i libucrt:output.obj
 0001:0004cc6c       ?unset_flag@?$output_processor@DV?$stream_output_adapter@D@__crt_stdio_output@@V?$standard_base@DV?$stream_output_adapter@D@__crt_stdio_output@@@2@@__crt_stdio_output@@AAEXI@Z 1004dc6c f i libucrt:output.obj
 0001:0004cc81       ?unset_flag@?$output_processor@DV?$string_output_adapter@D@__crt_stdio_output@@V?$format_validation_base@DV?$string_output_adapter@D@__crt_stdio_output@@@2@@__crt_stdio_output@@AAEXI@Z 1004dc81 f i libucrt:output.obj
 0001:0004cc96       ?unset_flag@?$output_processor@DV?$string_output_adapter@D@__crt_stdio_output@@V?$positional_parameter_base@DV?$string_output_adapter@D@__crt_stdio_output@@@2@@__crt_stdio_output@@AAEXI@Z 1004dc96 f i libucrt:output.obj
 0001:0004ccab       ?unset_flag@?$output_processor@DV?$string_output_adapter@D@__crt_stdio_output@@V?$standard_base@DV?$string_output_adapter@D@__crt_stdio_output@@@2@@__crt_stdio_output@@AAEXI@Z 1004dcab f i libucrt:output.obj
 0001:0004ccc0       ?unset_flag@?$output_processor@_WV?$stream_output_adapter@_W@__crt_stdio_output@@V?$format_validation_base@_WV?$stream_output_adapter@_W@__crt_stdio_output@@@2@@__crt_stdio_output@@AAEXI@Z 1004dcc0 f i libucrt:output.obj
 0001:0004ccd5       ?unset_flag@?$output_processor@_WV?$stream_output_adapter@_W@__crt_stdio_output@@V?$positional_parameter_base@_WV?$stream_output_adapter@_W@__crt_stdio_output@@@2@@__crt_stdio_output@@AAEXI@Z 1004dcd5 f i libucrt:output.obj
 0001:0004ccea       ?unset_flag@?$output_processor@_WV?$stream_output_adapter@_W@__crt_stdio_output@@V?$standard_base@_WV?$stream_output_adapter@_W@__crt_stdio_output@@@2@@__crt_stdio_output@@AAEXI@Z 1004dcea f i libucrt:output.obj
 0001:0004ccff       ?unset_flag@?$output_processor@_WV?$string_output_adapter@_W@__crt_stdio_output@@V?$format_validation_base@_WV?$string_output_adapter@_W@__crt_stdio_output@@@2@@__crt_stdio_output@@AAEXI@Z 1004dcff f i libucrt:output.obj
 0001:0004cd14       ?unset_flag@?$output_processor@_WV?$string_output_adapter@_W@__crt_stdio_output@@V?$positional_parameter_base@_WV?$string_output_adapter@_W@__crt_stdio_output@@@2@@__crt_stdio_output@@AAEXI@Z 1004dd14 f i libucrt:output.obj
 0001:0004cd29       ?unset_flag@?$output_processor@_WV?$string_output_adapter@_W@__crt_stdio_output@@V?$standard_base@_WV?$string_output_adapter@_W@__crt_stdio_output@@@2@@__crt_stdio_output@@AAEXI@Z 1004dd29 f i libucrt:output.obj
 0001:0004cd3e       ?update_field_width@?$positional_parameter_base@DV?$stream_output_adapter@D@__crt_stdio_output@@@__crt_stdio_output@@IAE_NXZ 1004dd3e f i libucrt:output.obj
 0001:0004ce21       ?update_field_width@?$positional_parameter_base@DV?$string_output_adapter@D@__crt_stdio_output@@@__crt_stdio_output@@IAE_NXZ 1004de21 f i libucrt:output.obj
 0001:0004cf04       ?update_field_width@?$positional_parameter_base@_WV?$stream_output_adapter@_W@__crt_stdio_output@@@__crt_stdio_output@@IAE_NXZ 1004df04 f i libucrt:output.obj
 0001:0004cfe8       ?update_field_width@?$positional_parameter_base@_WV?$string_output_adapter@_W@__crt_stdio_output@@@__crt_stdio_output@@IAE_NXZ 1004dfe8 f i libucrt:output.obj
 0001:0004d0cc       ?update_field_width@?$standard_base@DV?$stream_output_adapter@D@__crt_stdio_output@@@__crt_stdio_output@@IAE_NXZ 1004e0cc f i libucrt:output.obj
 0001:0004d0e0       ?update_field_width@?$standard_base@DV?$string_output_adapter@D@__crt_stdio_output@@@__crt_stdio_output@@IAE_NXZ 1004e0e0 f i libucrt:output.obj
 0001:0004d0f4       ?update_field_width@?$standard_base@_WV?$stream_output_adapter@_W@__crt_stdio_output@@@__crt_stdio_output@@IAE_NXZ 1004e0f4 f i libucrt:output.obj
 0001:0004d108       ?update_field_width@?$standard_base@_WV?$string_output_adapter@_W@__crt_stdio_output@@@__crt_stdio_output@@IAE_NXZ 1004e108 f i libucrt:output.obj
 0001:0004d11c       ?update_precision@?$positional_parameter_base@DV?$stream_output_adapter@D@__crt_stdio_output@@@__crt_stdio_output@@IAE_NXZ 1004e11c f i libucrt:output.obj
 0001:0004d1ff       ?update_precision@?$positional_parameter_base@DV?$string_output_adapter@D@__crt_stdio_output@@@__crt_stdio_output@@IAE_NXZ 1004e1ff f i libucrt:output.obj
 0001:0004d2e2       ?update_precision@?$positional_parameter_base@_WV?$stream_output_adapter@_W@__crt_stdio_output@@@__crt_stdio_output@@IAE_NXZ 1004e2e2 f i libucrt:output.obj
 0001:0004d3c6       ?update_precision@?$positional_parameter_base@_WV?$string_output_adapter@_W@__crt_stdio_output@@@__crt_stdio_output@@IAE_NXZ 1004e3c6 f i libucrt:output.obj
 0001:0004d4aa       ?update_precision@?$standard_base@DV?$stream_output_adapter@D@__crt_stdio_output@@@__crt_stdio_output@@IAE_NXZ 1004e4aa f i libucrt:output.obj
 0001:0004d4be       ?update_precision@?$standard_base@DV?$string_output_adapter@D@__crt_stdio_output@@@__crt_stdio_output@@IAE_NXZ 1004e4be f i libucrt:output.obj
 0001:0004d4d2       ?update_precision@?$standard_base@_WV?$stream_output_adapter@_W@__crt_stdio_output@@@__crt_stdio_output@@IAE_NXZ 1004e4d2 f i libucrt:output.obj
 0001:0004d4e6       ?update_precision@?$standard_base@_WV?$string_output_adapter@_W@__crt_stdio_output@@@__crt_stdio_output@@IAE_NXZ 1004e4e6 f i libucrt:output.obj
 0001:0004d4fa       ?valid@__crt_stdio_stream@@QBE_NXZ 1004e4fa f i libucrt:output.obj
 0001:0004d504       ?validate@?$stream_output_adapter@D@__crt_stdio_output@@QBE_NXZ 1004e504 f i libucrt:output.obj
 0001:0004d52d       ?validate@?$stream_output_adapter@_W@__crt_stdio_output@@QBE_NXZ 1004e52d f i libucrt:output.obj
 0001:0004d54e       ?validate@?$string_output_adapter@D@__crt_stdio_output@@QBE_NXZ 1004e54e f i libucrt:output.obj
 0001:0004d56f       ?validate@?$string_output_adapter@_W@__crt_stdio_output@@QBE_NXZ 1004e56f f i libucrt:output.obj
 0001:0004d590       ?validate_and_store_parameter_data@?$positional_parameter_base@DV?$stream_output_adapter@D@__crt_stdio_output@@@__crt_stdio_output@@AAE_NAAUparameter_data@12@W4parameter_type@12@DW4length_modifier@2@@Z 1004e590 f i libucrt:output.obj
 0001:0004d5ed       ?validate_and_store_parameter_data@?$positional_parameter_base@DV?$string_output_adapter@D@__crt_stdio_output@@@__crt_stdio_output@@AAE_NAAUparameter_data@12@W4parameter_type@12@DW4length_modifier@2@@Z 1004e5ed f i libucrt:output.obj
 0001:0004d64a       ?validate_and_store_parameter_data@?$positional_parameter_base@_WV?$stream_output_adapter@_W@__crt_stdio_output@@@__crt_stdio_output@@AAE_NAAUparameter_data@12@W4parameter_type@12@_WW4length_modifier@2@@Z 1004e64a f i libucrt:output.obj
 0001:0004d6aa       ?validate_and_store_parameter_data@?$positional_parameter_base@_WV?$string_output_adapter@_W@__crt_stdio_output@@@__crt_stdio_output@@AAE_NAAUparameter_data@12@W4parameter_type@12@_WW4length_modifier@2@@Z 1004e6aa f i libucrt:output.obj
 0001:0004d70a       ?validate_and_update_state_at_beginning_of_format_character@?$positional_parameter_base@DV?$stream_output_adapter@D@__crt_stdio_output@@@__crt_stdio_output@@IAE_NXZ 1004e70a f i libucrt:output.obj
 0001:0004d840       ?validate_and_update_state_at_beginning_of_format_character@?$positional_parameter_base@DV?$string_output_adapter@D@__crt_stdio_output@@@__crt_stdio_output@@IAE_NXZ 1004e840 f i libucrt:output.obj
 0001:0004d976       ?validate_and_update_state_at_beginning_of_format_character@?$positional_parameter_base@_WV?$stream_output_adapter@_W@__crt_stdio_output@@@__crt_stdio_output@@IAE_NXZ 1004e976 f i libucrt:output.obj
 0001:0004dab8       ?validate_and_update_state_at_beginning_of_format_character@?$positional_parameter_base@_WV?$string_output_adapter@_W@__crt_stdio_output@@@__crt_stdio_output@@IAE_NXZ 1004eab8 f i libucrt:output.obj
 0001:0004dbfa       ?validate_and_update_state_at_beginning_of_format_character@?$standard_base@DV?$stream_output_adapter@D@__crt_stdio_output@@@__crt_stdio_output@@IAE_NXZ 1004ebfa f i libucrt:output.obj
 0001:0004dbfd       ?validate_and_update_state_at_beginning_of_format_character@?$standard_base@DV?$string_output_adapter@D@__crt_stdio_output@@@__crt_stdio_output@@IAE_NXZ 1004ebfd f i libucrt:output.obj
 0001:0004dc00       ?validate_and_update_state_at_beginning_of_format_character@?$standard_base@_WV?$stream_output_adapter@_W@__crt_stdio_output@@@__crt_stdio_output@@IAE_NXZ 1004ec00 f i libucrt:output.obj
 0001:0004dc03       ?validate_and_update_state_at_beginning_of_format_character@?$standard_base@_WV?$string_output_adapter@_W@__crt_stdio_output@@@__crt_stdio_output@@IAE_NXZ 1004ec03 f i libucrt:output.obj
 0001:0004dc06       ?validate_and_update_state_at_end_of_format_string@?$format_validation_base@DV?$stream_output_adapter@D@__crt_stdio_output@@@__crt_stdio_output@@IBE_NXZ 1004ec06 f i libucrt:output.obj
 0001:0004dc30       ?validate_and_update_state_at_end_of_format_string@?$format_validation_base@DV?$string_output_adapter@D@__crt_stdio_output@@@__crt_stdio_output@@IBE_NXZ 1004ec30 f i libucrt:output.obj
 0001:0004dc5a       ?validate_and_update_state_at_end_of_format_string@?$format_validation_base@_WV?$stream_output_adapter@_W@__crt_stdio_output@@@__crt_stdio_output@@IBE_NXZ 1004ec5a f i libucrt:output.obj
 0001:0004dc84       ?validate_and_update_state_at_end_of_format_string@?$format_validation_base@_WV?$string_output_adapter@_W@__crt_stdio_output@@@__crt_stdio_output@@IBE_NXZ 1004ec84 f i libucrt:output.obj
 0001:0004dcae       ?validate_and_update_state_at_end_of_format_string@?$positional_parameter_base@DV?$stream_output_adapter@D@__crt_stdio_output@@@__crt_stdio_output@@IAE_NXZ 1004ecae f i libucrt:output.obj
 0001:0004dd4e       ?validate_and_update_state_at_end_of_format_string@?$positional_parameter_base@DV?$string_output_adapter@D@__crt_stdio_output@@@__crt_stdio_output@@IAE_NXZ 1004ed4e f i libucrt:output.obj
 0001:0004ddee       ?validate_and_update_state_at_end_of_format_string@?$positional_parameter_base@_WV?$stream_output_adapter@_W@__crt_stdio_output@@@__crt_stdio_output@@IAE_NXZ 1004edee f i libucrt:output.obj
 0001:0004de8e       ?validate_and_update_state_at_end_of_format_string@?$positional_parameter_base@_WV?$string_output_adapter@_W@__crt_stdio_output@@@__crt_stdio_output@@IAE_NXZ 1004ee8e f i libucrt:output.obj
 0001:0004df2e       ?validate_and_update_state_at_end_of_format_string@?$standard_base@DV?$stream_output_adapter@D@__crt_stdio_output@@@__crt_stdio_output@@IBE_NXZ 1004ef2e f i libucrt:output.obj
 0001:0004df31       ?validate_and_update_state_at_end_of_format_string@?$standard_base@DV?$string_output_adapter@D@__crt_stdio_output@@@__crt_stdio_output@@IBE_NXZ 1004ef31 f i libucrt:output.obj
 0001:0004df34       ?validate_and_update_state_at_end_of_format_string@?$standard_base@_WV?$stream_output_adapter@_W@__crt_stdio_output@@@__crt_stdio_output@@IBE_NXZ 1004ef34 f i libucrt:output.obj
 0001:0004df37       ?validate_and_update_state_at_end_of_format_string@?$standard_base@_WV?$string_output_adapter@_W@__crt_stdio_output@@@__crt_stdio_output@@IBE_NXZ 1004ef37 f i libucrt:output.obj
 0001:0004df3a       ?validate_state_for_type_case_a@?$positional_parameter_base@DV?$stream_output_adapter@D@__crt_stdio_output@@@__crt_stdio_output@@IAE_NXZ 1004ef3a f i libucrt:output.obj
 0001:0004dfa1       ?validate_state_for_type_case_a@?$positional_parameter_base@DV?$string_output_adapter@D@__crt_stdio_output@@@__crt_stdio_output@@IAE_NXZ 1004efa1 f i libucrt:output.obj
 0001:0004e008       ?validate_state_for_type_case_a@?$positional_parameter_base@_WV?$stream_output_adapter@_W@__crt_stdio_output@@@__crt_stdio_output@@IAE_NXZ 1004f008 f i libucrt:output.obj
 0001:0004e06f       ?validate_state_for_type_case_a@?$positional_parameter_base@_WV?$string_output_adapter@_W@__crt_stdio_output@@@__crt_stdio_output@@IAE_NXZ 1004f06f f i libucrt:output.obj
 0001:0004e0d6       ?validate_state_for_type_case_a@?$standard_base@DV?$stream_output_adapter@D@__crt_stdio_output@@@__crt_stdio_output@@IBE_NXZ 1004f0d6 f i libucrt:output.obj
 0001:0004e0d9       ?validate_state_for_type_case_a@?$standard_base@DV?$string_output_adapter@D@__crt_stdio_output@@@__crt_stdio_output@@IBE_NXZ 1004f0d9 f i libucrt:output.obj
 0001:0004e0dc       ?validate_state_for_type_case_a@?$standard_base@_WV?$stream_output_adapter@_W@__crt_stdio_output@@@__crt_stdio_output@@IBE_NXZ 1004f0dc f i libucrt:output.obj
 0001:0004e0df       ?validate_state_for_type_case_a@?$standard_base@_WV?$string_output_adapter@_W@__crt_stdio_output@@@__crt_stdio_output@@IBE_NXZ 1004f0df f i libucrt:output.obj
 0001:0004e0e2       ?validate_stream_is_ansi_if_required@?$__acrt_stdio_char_traits@D@@SA_NQAU_iobuf@@@Z 1004f0e2 f i libucrt:output.obj
 0001:0004e184       ?validate_stream_is_ansi_if_required@?$__acrt_stdio_char_traits@_W@@SA_NQAU_iobuf@@@Z 1004f184 f i libucrt:output.obj
 0001:0004e187       ?wide_null_string@?$output_processor@DV?$stream_output_adapter@D@__crt_stdio_output@@V?$format_validation_base@DV?$stream_output_adapter@D@__crt_stdio_output@@@2@@__crt_stdio_output@@CAPA_WXZ 1004f187 f i libucrt:output.obj
 0001:0004e18d       ?wide_null_string@?$output_processor@DV?$stream_output_adapter@D@__crt_stdio_output@@V?$positional_parameter_base@DV?$stream_output_adapter@D@__crt_stdio_output@@@2@@__crt_stdio_output@@CAPA_WXZ 1004f18d f i libucrt:output.obj
 0001:0004e193       ?wide_null_string@?$output_processor@DV?$stream_output_adapter@D@__crt_stdio_output@@V?$standard_base@DV?$stream_output_adapter@D@__crt_stdio_output@@@2@@__crt_stdio_output@@CAPA_WXZ 1004f193 f i libucrt:output.obj
 0001:0004e199       ?wide_null_string@?$output_processor@DV?$string_output_adapter@D@__crt_stdio_output@@V?$format_validation_base@DV?$string_output_adapter@D@__crt_stdio_output@@@2@@__crt_stdio_output@@CAPA_WXZ 1004f199 f i libucrt:output.obj
 0001:0004e19f       ?wide_null_string@?$output_processor@DV?$string_output_adapter@D@__crt_stdio_output@@V?$positional_parameter_base@DV?$string_output_adapter@D@__crt_stdio_output@@@2@@__crt_stdio_output@@CAPA_WXZ 1004f19f f i libucrt:output.obj
 0001:0004e1a5       ?wide_null_string@?$output_processor@DV?$string_output_adapter@D@__crt_stdio_output@@V?$standard_base@DV?$string_output_adapter@D@__crt_stdio_output@@@2@@__crt_stdio_output@@CAPA_WXZ 1004f1a5 f i libucrt:output.obj
 0001:0004e1ab       ?wide_null_string@?$output_processor@_WV?$stream_output_adapter@_W@__crt_stdio_output@@V?$format_validation_base@_WV?$stream_output_adapter@_W@__crt_stdio_output@@@2@@__crt_stdio_output@@CAPA_WXZ 1004f1ab f i libucrt:output.obj
 0001:0004e1b1       ?wide_null_string@?$output_processor@_WV?$stream_output_adapter@_W@__crt_stdio_output@@V?$positional_parameter_base@_WV?$stream_output_adapter@_W@__crt_stdio_output@@@2@@__crt_stdio_output@@CAPA_WXZ 1004f1b1 f i libucrt:output.obj
 0001:0004e1b7       ?wide_null_string@?$output_processor@_WV?$stream_output_adapter@_W@__crt_stdio_output@@V?$standard_base@_WV?$stream_output_adapter@_W@__crt_stdio_output@@@2@@__crt_stdio_output@@CAPA_WXZ 1004f1b7 f i libucrt:output.obj
 0001:0004e1bd       ?wide_null_string@?$output_processor@_WV?$string_output_adapter@_W@__crt_stdio_output@@V?$format_validation_base@_WV?$string_output_adapter@_W@__crt_stdio_output@@@2@@__crt_stdio_output@@CAPA_WXZ 1004f1bd f i libucrt:output.obj
 0001:0004e1c3       ?wide_null_string@?$output_processor@_WV?$string_output_adapter@_W@__crt_stdio_output@@V?$positional_parameter_base@_WV?$string_output_adapter@_W@__crt_stdio_output@@@2@@__crt_stdio_output@@CAPA_WXZ 1004f1c3 f i libucrt:output.obj
 0001:0004e1c9       ?wide_null_string@?$output_processor@_WV?$string_output_adapter@_W@__crt_stdio_output@@V?$standard_base@_WV?$string_output_adapter@_W@__crt_stdio_output@@@2@@__crt_stdio_output@@CAPA_WXZ 1004f1c9 f i libucrt:output.obj
 0001:0004e1cf       ?write_character@?$stream_output_adapter@D@__crt_stdio_output@@QBEXDQAH@Z 1004f1cf f i libucrt:output.obj
 0001:0004e21b       ?write_character@?$stream_output_adapter@_W@__crt_stdio_output@@QBEX_WQAH@Z 1004f21b f i libucrt:output.obj
 0001:0004e26b       ?write_character@?$string_output_adapter@D@__crt_stdio_output@@QBE_NDQAH@Z 1004f26b f i libucrt:output.obj
 0001:0004e2bd       ?write_character@?$string_output_adapter@_W@__crt_stdio_output@@QBE_N_WQAH@Z 1004f2bd f i libucrt:output.obj
 0001:0004e313       ?write_stored_string_tchar@?$output_processor@DV?$stream_output_adapter@D@__crt_stdio_output@@V?$format_validation_base@DV?$stream_output_adapter@D@__crt_stdio_output@@@2@@__crt_stdio_output@@AAE_ND@Z 1004f313 f i libucrt:output.obj
 0001:0004e3e3       ?write_stored_string_tchar@?$output_processor@DV?$stream_output_adapter@D@__crt_stdio_output@@V?$positional_parameter_base@DV?$stream_output_adapter@D@__crt_stdio_output@@@2@@__crt_stdio_output@@AAE_ND@Z 1004f3e3 f i libucrt:output.obj
 0001:0004e4b3       ?write_stored_string_tchar@?$output_processor@DV?$stream_output_adapter@D@__crt_stdio_output@@V?$standard_base@DV?$stream_output_adapter@D@__crt_stdio_output@@@2@@__crt_stdio_output@@AAE_ND@Z 1004f4b3 f i libucrt:output.obj
 0001:0004e583       ?write_stored_string_tchar@?$output_processor@DV?$string_output_adapter@D@__crt_stdio_output@@V?$format_validation_base@DV?$string_output_adapter@D@__crt_stdio_output@@@2@@__crt_stdio_output@@AAE_ND@Z 1004f583 f i libucrt:output.obj
 0001:0004e653       ?write_stored_string_tchar@?$output_processor@DV?$string_output_adapter@D@__crt_stdio_output@@V?$positional_parameter_base@DV?$string_output_adapter@D@__crt_stdio_output@@@2@@__crt_stdio_output@@AAE_ND@Z 1004f653 f i libucrt:output.obj
 0001:0004e723       ?write_stored_string_tchar@?$output_processor@DV?$string_output_adapter@D@__crt_stdio_output@@V?$standard_base@DV?$string_output_adapter@D@__crt_stdio_output@@@2@@__crt_stdio_output@@AAE_ND@Z 1004f723 f i libucrt:output.obj
 0001:0004e7f3       ?write_stored_string_tchar@?$output_processor@_WV?$stream_output_adapter@_W@__crt_stdio_output@@V?$format_validation_base@_WV?$stream_output_adapter@_W@__crt_stdio_output@@@2@@__crt_stdio_output@@AAE_N_W@Z 1004f7f3 f i libucrt:output.obj
 0001:0004e8a0       ?write_stored_string_tchar@?$output_processor@_WV?$stream_output_adapter@_W@__crt_stdio_output@@V?$positional_parameter_base@_WV?$stream_output_adapter@_W@__crt_stdio_output@@@2@@__crt_stdio_output@@AAE_N_W@Z 1004f8a0 f i libucrt:output.obj
 0001:0004e94d       ?write_stored_string_tchar@?$output_processor@_WV?$stream_output_adapter@_W@__crt_stdio_output@@V?$standard_base@_WV?$stream_output_adapter@_W@__crt_stdio_output@@@2@@__crt_stdio_output@@AAE_N_W@Z 1004f94d f i libucrt:output.obj
 0001:0004e9fa       ?write_stored_string_tchar@?$output_processor@_WV?$string_output_adapter@_W@__crt_stdio_output@@V?$format_validation_base@_WV?$string_output_adapter@_W@__crt_stdio_output@@@2@@__crt_stdio_output@@AAE_N_W@Z 1004f9fa f i libucrt:output.obj
 0001:0004eaa7       ?write_stored_string_tchar@?$output_processor@_WV?$string_output_adapter@_W@__crt_stdio_output@@V?$positional_parameter_base@_WV?$string_output_adapter@_W@__crt_stdio_output@@@2@@__crt_stdio_output@@AAE_N_W@Z 1004faa7 f i libucrt:output.obj
 0001:0004eb54       ?write_stored_string_tchar@?$output_processor@_WV?$string_output_adapter@_W@__crt_stdio_output@@V?$standard_base@_WV?$string_output_adapter@_W@__crt_stdio_output@@@2@@__crt_stdio_output@@AAE_N_W@Z 1004fb54 f i libucrt:output.obj
 0001:0004ec01       ?write_string@?$stream_output_adapter@D@__crt_stdio_output@@QBEXQBDHQAH1@Z 1004fc01 f i libucrt:output.obj
 0001:0004ecad       ?write_string@?$stream_output_adapter@_W@__crt_stdio_output@@QBEXQB_WHQAH1@Z 1004fcad f i libucrt:output.obj
 0001:0004ed5d       ?write_string@?$string_output_adapter@D@__crt_stdio_output@@QBEXQBDHQAH1@Z 1004fd5d f i libucrt:output.obj
 0001:0004ee14       ?write_string@?$string_output_adapter@_W@__crt_stdio_output@@QBEXQB_WHQAH1@Z 1004fe14 f i libucrt:output.obj
 0001:0004eed4       ___acrt_isleadbyte_l_noupdate 1004fed4 f i libucrt:output.obj
 0001:0004eef5       ___acrt_locale_changed     1004fef5 f i libucrt:output.obj
 0001:0004ef06       ___stdio_common_vfprintf   1004ff06 f   libucrt:output.obj
 0001:0004ef9a       ___stdio_common_vfprintf_p 1004ff9a f   libucrt:output.obj
 0001:0004f02e       ___stdio_common_vfprintf_s 1005002e f   libucrt:output.obj
 0001:0004f0c2       ___stdio_common_vfwprintf  100500c2 f   libucrt:output.obj
 0001:0004f156       ___stdio_common_vfwprintf_p 10050156 f   libucrt:output.obj
 0001:0004f1ea       ___stdio_common_vfwprintf_s 100501ea f   libucrt:output.obj
 0001:0004f27e       ___stdio_common_vsnprintf_s 1005027e f   libucrt:output.obj
 0001:0004f2ae       ___stdio_common_vsnwprintf_s 100502ae f   libucrt:output.obj
 0001:0004f2de       ___stdio_common_vsprintf   100502de f   libucrt:output.obj
 0001:0004f30b       ___stdio_common_vsprintf_p 1005030b f   libucrt:output.obj
 0001:0004f338       ___stdio_common_vsprintf_s 10050338 f   libucrt:output.obj
 0001:0004f365       ___stdio_common_vswprintf  10050365 f   libucrt:output.obj
 0001:0004f392       ___stdio_common_vswprintf_p 10050392 f   libucrt:output.obj
 0001:0004f3bf       ___stdio_common_vswprintf_s 100503bf f   libucrt:output.obj
 0001:0004f3f0       _fmod                      100503f0 f   libucrt:87fmod.obj
 0001:0004f3fa       __CIfmod                   100503fa f   libucrt:87fmod.obj
 0001:0004f41a       ___libm_sse2_pow           1005041a f   libucrt:pow_sse2.obj
 0001:00050130       _calloc                    10051130 f   libucrt:calloc.obj
 0001:0005013d       _free                      1005113d f   libucrt:free.obj
 0001:00050142       _realloc                   10051142 f   libucrt:realloc.obj
 0001:0005014f       ??$?B$$A6GXPAXK0@Z@__crt_fast_encoded_nullptr_t@@QBEP6GXPAXK0@ZXZ 1005114f f i libucrt:exit.obj
 0001:0005016d       ??$__crt_fast_decode_pointer@P6GXPAXK0@Z@@YAP6GXPAXK0@ZQ6GX0K0@Z@Z 1005116d f i libucrt:exit.obj
 0001:00050188       ??$__crt_fast_encode_pointer@P6GXPAXK0@Z@@YAP6GXPAXK0@ZQ6GX0K0@Z@Z 10051188 f i libucrt:exit.obj
 0001:000501ae       ??$__crt_get_proc_address@P6GXI@Z@@YAP6GXI@ZQAUHINSTANCE__@@QBD@Z 100511ae f i libucrt:exit.obj
 0001:000501c5       ??0?$__crt_unique_handle_t@U__crt_hmodule_traits@@@@QAE@QAUHINSTANCE__@@@Z 100511c5 f i libucrt:exit.obj
 0001:000501d9       ??1?$__crt_unique_handle_t@U__crt_hmodule_traits@@@@QAE@XZ 100511d9 f i libucrt:exit.obj
 0001:0005020c       ?close@?$__crt_unique_handle_t@U__crt_hmodule_traits@@@@QAEXXZ 1005120c f i libucrt:exit.obj
 0001:00050228       ?close@__crt_hmodule_traits@@SA_NPAUHINSTANCE__@@@Z 10051228 f i libucrt:exit.obj
 0001:000503f3       ?get@?$__crt_unique_handle_t@U__crt_hmodule_traits@@@@QBEPAUHINSTANCE__@@XZ 100513f3 f i libucrt:exit.obj
 0001:000503f6       ?get_address_of@?$__crt_unique_handle_t@U__crt_hmodule_traits@@@@QAEPAPAUHINSTANCE__@@XZ 100513f6 f i libucrt:exit.obj
 0001:000503f9       ?get_invalid_value@__crt_hmodule_traits@@SAPAUHINSTANCE__@@XZ 100513f9 f i libucrt:exit.obj
 0001:000504f6       __Exit                     100514f6 f   libucrt:exit.obj
 0001:00050511       ___acrt_initialize_thread_local_exit_callback 10051511 f   libucrt:exit.obj
 0001:00050523       __c_exit                   10051523 f   libucrt:exit.obj
 0001:00050535       __cexit                    10051535 f   libucrt:exit.obj
 0001:00050547       __exit                     10051547 f   libucrt:exit.obj
 0001:00050562       __is_c_termination_complete 10051562 f   libucrt:exit.obj
 0001:00050568       __register_thread_local_exe_atexit_callback 10051568 f   libucrt:exit.obj
 0001:000505ae       _exit                      100515ae f   libucrt:exit.obj
 0001:000505c9       _quick_exit                100515c9 f   libucrt:exit.obj
 0001:000505f0       _strncat                   100515f0 f   libucrt:strncat.obj
 0001:00050780       _strncpy                   10051780 f   libucrt:strncpy.obj
 0001:000508ed       ?is_in_use@__crt_stdio_stream@@QBE_NXZ 100518ed f i libucrt:fclose.obj
 0001:000508fc       __fclose_nolock            100518fc f   libucrt:fclose.obj
 0001:0005098f       _fclose                    1005198f f   libucrt:fclose.obj
 0001:00050cc1       ??$open_file@ABQBDABQBDABHPAU_iobuf@@@?$__crt_char_traits@D@@SAPAU_iobuf@@ABQBD0ABH$$QAPAU1@@Z 10051cc1 f i libucrt:fopen.obj
 0001:00050cec       ??$open_file@ABQB_WABQB_WABHPAU_iobuf@@@?$__crt_char_traits@_W@@SAPAU_iobuf@@ABQB_W0ABH$$QAPAU1@@Z 10051cec f i libucrt:fopen.obj
 0001:00050d17       ?unlock@__crt_stdio_stream@@QBEXXZ 10051d17 f i libucrt:fopen.obj
 0001:00050d22       __fsopen                   10051d22 f   libucrt:fopen.obj
 0001:00050d2f       __wfopen                   10051d2f f   libucrt:fopen.obj
 0001:00050d4b       __wfopen_s                 10051d4b f   libucrt:fopen.obj
 0001:00050da3       __wfsopen                  10051da3 f   libucrt:fopen.obj
 0001:00050db0       _fopen                     10051db0 f   libucrt:fopen.obj
 0001:00050dcc       _fopen_s                   10051dcc f   libucrt:fopen.obj
 0001:00050e24       ?has_any_buffer@__crt_stdio_stream@@QBE_NXZ 10051e24 f i libucrt:fread.obj
 0001:00050e39       ?has_any_of@__crt_stdio_stream@@QBE_NJ@Z 10051e39 f i libucrt:fread.obj
 0001:00050e55       ?set_flags@__crt_stdio_stream@@QBE_NJ@Z 10051e55 f i libucrt:fread.obj
 0001:00050e85       __fread_nolock             10051e85 f   libucrt:fread.obj
 0001:00050ea9       __fread_nolock_s           10051ea9 f   libucrt:fread.obj
 0001:000510e8       _fread                     100520e8 f   libucrt:fread.obj
 0001:0005110c       _fread_s                   1005210c f   libucrt:fread.obj
 0001:00051264       ??$?RV<lambda_11b4f7b0d3157825a5656a18eba1ae27>@@AAV<lambda_b51c0495177f500e782686251704ae76>@@V<lambda_cf89b47920b5017557bfe891e78aca36>@@@?$__crt_seh_guarded_call@I@@QAEI$$QAV<lambda_11b4f7b0d3157825a5656a18eba1ae27>@@AAV<lambda_b51c0495177f500e782686251704ae76>@@$$QAV<lambda_cf89b47920b5017557bfe891e78aca36>@@@Z 10052264 f i libucrt:fwrite.obj
 0001:000512c9       ??$__acrt_lock_stream_and_call@V<lambda_b51c0495177f500e782686251704ae76>@@@@YAIQAU_iobuf@@$$QAV<lambda_b51c0495177f500e782686251704ae76>@@@Z 100522c9 f i libucrt:fwrite.obj
 0001:000513be       ?has_big_buffer@__crt_stdio_stream@@QBE_NXZ 100523be f i libucrt:fwrite.obj
 0001:000513cf       __fwrite_nolock            100523cf f   libucrt:fwrite.obj
 0001:000515a6       _fwrite                    100525a6 f   libucrt:fwrite.obj
 0001:00051614       ??$?R_W@__crt_internal_free_policy@@QBEXQB_W@Z 10052614 f i libucrt:unlink.obj
 0001:0005162a       ??0?$__crt_unique_heap_ptr@_WU__crt_internal_free_policy@@@@QAE@QA_W@Z 1005262a f i libucrt:unlink.obj
 0001:0005163e       ??1?$__crt_unique_heap_ptr@_WU__crt_internal_free_policy@@@@QAE@XZ 1005263e f i libucrt:unlink.obj
 0001:00051654       ?get@?$__crt_unique_heap_ptr@_WU__crt_internal_free_policy@@@@QBEPA_WXZ 10052654 f i libucrt:unlink.obj
 0001:00051657       ?get_address_of@?$__crt_unique_heap_ptr@_WU__crt_internal_free_policy@@@@QAEPAPA_WXZ 10052657 f i libucrt:unlink.obj
 0001:0005165a       ?release@?$__crt_unique_heap_ptr@_WU__crt_internal_free_policy@@@@QAEXXZ 1005265a f i libucrt:unlink.obj
 0001:00051670       __unlink                   10052670 f   libucrt:unlink.obj
 0001:0005167d       _remove                    1005267d f   libucrt:unlink.obj
 0001:000516dd       ?__acrt_stdio_reset_buffer@@YAXV__crt_stdio_stream@@@Z 100526dd f i libucrt:rewind.obj
 0001:000516f8       ?has_all_of@__crt_stdio_stream@@QBE_NJ@Z 100526f8 f i libucrt:rewind.obj
 0001:00051717       ?unset_flags@__crt_stdio_stream@@QBE_NJ@Z 10052717 f i libucrt:rewind.obj
 0001:0005174b       _rewind                    1005274b f   libucrt:rewind.obj
 0001:0005184c       _ldexp                     1005284c f   libucrt:ldexp.obj
 0001:00051aac       ??$__vcrt_va_start_verify_argument_type@QB_W@@YAXXZ 10052aac f i libucrt:assert.obj
 0001:00052a49       ??$ftprintf@PAU_iobuf@@PBDABQBDABQBDABI@?$__crt_char_traits@D@@SAH$$QAPAU_iobuf@@$$QAPBDABQBD2ABI@Z 10053a49 f i libucrt:assert.obj
 0001:00052a7b       ??$ftprintf@PAU_iobuf@@PB_WABQB_WABQB_WABI@?$__crt_char_traits@_W@@SAH$$QAPAU_iobuf@@$$QAPB_WABQB_W2ABI@Z 10053a7b f i libucrt:assert.obj
 0001:00052aad       ??$get_module_file_name@AAPAUHINSTANCE__@@AAY0BAF@DK@?$__crt_char_traits@D@@SAKAAPAUHINSTANCE__@@AAY0BAF@D$$QAK@Z 10053aad f i libucrt:assert.obj
 0001:00052acd       ??$get_module_file_name@AAPAUHINSTANCE__@@AAY0BAF@_WK@?$__crt_char_traits@_W@@SAKAAPAUHINSTANCE__@@AAY0BAF@_W$$QAK@Z 10053acd f i libucrt:assert.obj
 0001:00052aed       ??$itot_s@ABIQAD$$CBIH@?$__crt_char_traits@D@@SAHABI$$QBQAD$$QBI$$QAH@Z 10053aed f i libucrt:assert.obj
 0001:00052b18       ??$itot_s@ABIQA_W$$CBIH@?$__crt_char_traits@_W@@SAHABI$$QBQA_W$$QBI$$QAH@Z 10053b18 f i libucrt:assert.obj
 0001:00052b43       ??$show_message_box@AAY0CEA@DPBDJ@?$__crt_char_traits@D@@SAHAAY0CEA@D$$QAPBD$$QAJ@Z 10053b43 f i libucrt:assert.obj
 0001:00052b66       ??$show_message_box@AAY0CEA@_WPB_WJ@?$__crt_char_traits@_W@@SAHAAY0CEA@_W$$QAPB_W$$QAJ@Z 10053b66 f i libucrt:assert.obj
 0001:00052b89       ??$tcscat_s@ABQADABIAAPAD@?$__crt_char_traits@D@@SAHABQADABIAAPAD@Z 10053b89 f i libucrt:assert.obj
 0001:00052bae       ??$tcscat_s@ABQADABIABQBD@?$__crt_char_traits@D@@SAHABQADABIABQBD@Z 10053bae f i libucrt:assert.obj
 0001:00052bd3       ??$tcscat_s@ABQADABIPBD@?$__crt_char_traits@D@@SAHABQADABI$$QAPBD@Z 10053bd3 f i libucrt:assert.obj
 0001:00052bf8       ??$tcscat_s@ABQA_WABIAAPA_W@?$__crt_char_traits@_W@@SAHABQA_WABIAAPA_W@Z 10053bf8 f i libucrt:assert.obj
 0001:00052c1d       ??$tcscat_s@ABQA_WABIABQB_W@?$__crt_char_traits@_W@@SAHABQA_WABIABQB_W@Z 10053c1d f i libucrt:assert.obj
 0001:00052c42       ??$tcscat_s@ABQA_WABIPB_W@?$__crt_char_traits@_W@@SAHABQA_WABI$$QAPB_W@Z 10053c42 f i libucrt:assert.obj
 0001:00052c67       ??$tcscpy_s@AAY0BAF@DIPBD@?$__crt_char_traits@D@@SAHAAY0BAF@D$$QAI$$QAPBD@Z 10053c67 f i libucrt:assert.obj
 0001:00052c8a       ??$tcscpy_s@AAY0BAF@_WIPB_W@?$__crt_char_traits@_W@@SAHAAY0BAF@_W$$QAI$$QAPB_W@Z 10053c8a f i libucrt:assert.obj
 0001:00052cad       ??$tcscpy_s@ABQADABIPBD@?$__crt_char_traits@D@@SAHABQADABI$$QAPBD@Z 10053cad f i libucrt:assert.obj
 0001:00052cd2       ??$tcscpy_s@ABQA_WABIPB_W@?$__crt_char_traits@_W@@SAHABQA_WABI$$QAPB_W@Z 10053cd2 f i libucrt:assert.obj
 0001:00052cf7       ??$tcslen@AAY0BAF@D@?$__crt_char_traits@D@@SAIAAY0BAF@D@Z 10053cf7 f i libucrt:assert.obj
 0001:00052d12       ??$tcslen@AAY0BAF@_W@?$__crt_char_traits@_W@@SAIAAY0BAF@_W@Z 10053d12 f i libucrt:assert.obj
 0001:00052d35       ??$tcslen@ABQAD@?$__crt_char_traits@D@@SAIABQAD@Z 10053d35 f i libucrt:assert.obj
 0001:00052d53       ??$tcslen@ABQA_W@?$__crt_char_traits@_W@@SAIABQA_W@Z 10053d53 f i libucrt:assert.obj
 0001:00052d78       ??$tcslen@ABQBD@?$__crt_char_traits@D@@SAIABQBD@Z 10053d78 f i libucrt:assert.obj
 0001:00052d96       ??$tcslen@ABQB_W@?$__crt_char_traits@_W@@SAIABQB_W@Z 10053d96 f i libucrt:assert.obj
 0001:00052dbb       ??$tcsncat_s@ABQADABIAAPBD$$CBI@?$__crt_char_traits@D@@SAHABQADABIAAPBD$$QBI@Z 10053dbb f i libucrt:assert.obj
 0001:00052de6       ??$tcsncat_s@ABQADABIABQBDABI@?$__crt_char_traits@D@@SAHABQADABIABQBD1@Z 10053de6 f i libucrt:assert.obj
 0001:00052e11       ??$tcsncat_s@ABQADABIPBD$$CBI@?$__crt_char_traits@D@@SAHABQADABI$$QAPBD$$QBI@Z 10053e11 f i libucrt:assert.obj
 0001:00052e3c       ??$tcsncat_s@ABQA_WABIAAPB_W$$CBI@?$__crt_char_traits@_W@@SAHABQA_WABIAAPB_W$$QBI@Z 10053e3c f i libucrt:assert.obj
 0001:00052e67       ??$tcsncat_s@ABQA_WABIABQB_WABI@?$__crt_char_traits@_W@@SAHABQA_WABIABQB_W1@Z 10053e67 f i libucrt:assert.obj
 0001:00052e92       ??$tcsncat_s@ABQA_WABIPB_W$$CBI@?$__crt_char_traits@_W@@SAHABQA_WABI$$QAPB_W$$QBI@Z 10053e92 f i libucrt:assert.obj
 0001:00053037       __assert                   10054037 f   libucrt:assert.obj
 0001:00053091       __invoke_watson_if_error   10054091 f i libucrt:assert.obj
 0001:000530bb       __vfwprintf_l              100540bb f i libucrt:assert.obj
 0001:000530e9       __vswprintf_c_l            100540e9 f i libucrt:assert.obj
 0001:00053123       __wassert                  10054123 f   libucrt:assert.obj
 0001:0005317d       _fwprintf                  1005417d f i libucrt:assert.obj
 0001:0005323f       _swprintf                  1005423f f i libucrt:assert.obj
 0001:00053264       __errcode                  10054264 f   libucrt:fpexcept.obj
 0001:000532a5       __except1                  100542a5 f   libucrt:fpexcept.obj
 0001:000533a6       __except2                  100543a6 f   libucrt:fpexcept.obj
 0001:000534ef       __handle_exc               100544ef f   libucrt:fpexcept.obj
 0001:00053747       __handle_qnan2             10054747 f   libucrt:fpexcept.obj
 0001:00053757       __raise_exc                10054757 f   libucrt:fpexcept.obj
 0001:00053782       __raise_exc_ex             10054782 f   libucrt:fpexcept.obj
 0001:00053b2f       __raise_excf               10054b2f f   libucrt:fpexcept.obj
 0001:00053b5a       __set_errno_from_matherr   10054b5a f   libucrt:fpexcept.obj
 0001:00053b94       __umatherr                 10054b94 f   libucrt:fpexcept.obj
 0001:00053c5e       __initterm                 10054c5e f   libucrt:initterm.obj
 0001:00053cd1       __initterm_e               10054cd1 f   libucrt:initterm.obj
 0001:00053d54       __seh_filter_dll           10054d54 f   libucrt:exception_filter.obj
 0001:00053d7c       __seh_filter_exe           10054d7c f   libucrt:exception_filter.obj
 0001:00053f4b       ??$?RE@__crt_internal_free_policy@@QBEXQBE@Z 10054f4b f i libucrt:argv_parsing.obj
 0001:00053f61       ??$?RPAD@__crt_internal_free_policy@@QBEXQBQAD@Z 10054f61 f i libucrt:argv_parsing.obj
 0001:00053f77       ??$?RPA_W@__crt_internal_free_policy@@QBEXQBQA_W@Z 10054f77 f i libucrt:argv_parsing.obj
 0001:00054260       ??$get_module_file_name@$$TAAY0BAF@DH@?$__crt_char_traits@D@@SAK$$QA$$TAAY0BAF@D$$QAH@Z 10055260 f i libucrt:argv_parsing.obj
 0001:00054280       ??$get_module_file_name@$$TAAY0BAF@_WH@?$__crt_char_traits@_W@@SAK$$QA$$TAAY0BAF@_W$$QAH@Z 10055280 f i libucrt:argv_parsing.obj
 0001:00054659       ??$set_program_name@PAD@?$__crt_char_traits@D@@SAX$$QAPAD@Z 10055659 f i libucrt:argv_parsing.obj
 0001:0005466e       ??$set_program_name@PA_W@?$__crt_char_traits@_W@@SAX$$QAPA_W@Z 1005566e f i libucrt:argv_parsing.obj
 0001:000546ab       ??0?$__crt_unique_heap_ptr@EU__crt_internal_free_policy@@@@QAE@QAE@Z 100556ab f i libucrt:argv_parsing.obj
 0001:000546bf       ??0?$__crt_unique_heap_ptr@PADU__crt_internal_free_policy@@@@QAE@QAPAD@Z 100556bf f i libucrt:argv_parsing.obj
 0001:000546d3       ??0?$__crt_unique_heap_ptr@PA_WU__crt_internal_free_policy@@@@QAE@QAPA_W@Z 100556d3 f i libucrt:argv_parsing.obj
 0001:000546e7       ??1?$__crt_unique_heap_ptr@EU__crt_internal_free_policy@@@@QAE@XZ 100556e7 f i libucrt:argv_parsing.obj
 0001:000546fd       ??1?$__crt_unique_heap_ptr@PADU__crt_internal_free_policy@@@@QAE@XZ 100556fd f i libucrt:argv_parsing.obj
 0001:00054713       ??1?$__crt_unique_heap_ptr@PA_WU__crt_internal_free_policy@@@@QAE@XZ 10055713 f i libucrt:argv_parsing.obj
 0001:00054729       ??B?$__crt_unique_heap_ptr@EU__crt_internal_free_policy@@@@QBE_NXZ 10055729 f i libucrt:argv_parsing.obj
 0001:00054769       ?detach@?$__crt_unique_heap_ptr@EU__crt_internal_free_policy@@@@QAEPAEXZ 10055769 f i libucrt:argv_parsing.obj
 0001:0005476f       ?detach@?$__crt_unique_heap_ptr@PADU__crt_internal_free_policy@@@@QAEPAPADXZ 1005576f f i libucrt:argv_parsing.obj
 0001:00054775       ?detach@?$__crt_unique_heap_ptr@PA_WU__crt_internal_free_policy@@@@QAEPAPA_WXZ 10055775 f i libucrt:argv_parsing.obj
 0001:0005479b       ?get@?$__crt_unique_heap_ptr@EU__crt_internal_free_policy@@@@QBEPAEXZ 1005579b f i libucrt:argv_parsing.obj
 0001:0005479e       ?get@?$__crt_unique_heap_ptr@PADU__crt_internal_free_policy@@@@QBEPAPADXZ 1005579e f i libucrt:argv_parsing.obj
 0001:000547a1       ?get@?$__crt_unique_heap_ptr@PA_WU__crt_internal_free_policy@@@@QBEPAPA_WXZ 100557a1 f i libucrt:argv_parsing.obj
 0001:000547a4       ?get_address_of@?$__crt_unique_heap_ptr@PADU__crt_internal_free_policy@@@@QAEPAPAPADXZ 100557a4 f i libucrt:argv_parsing.obj
 0001:000547a7       ?get_address_of@?$__crt_unique_heap_ptr@PA_WU__crt_internal_free_policy@@@@QAEPAPAPA_WXZ 100557a7 f i libucrt:argv_parsing.obj
 0001:000547c2       ?is_valid@?$__crt_unique_heap_ptr@EU__crt_internal_free_policy@@@@QBE_NXZ 100557c2 f i libucrt:argv_parsing.obj
 0001:000547cc       ?release@?$__crt_unique_heap_ptr@EU__crt_internal_free_policy@@@@QAEXXZ 100557cc f i libucrt:argv_parsing.obj
 0001:000547e2       ?release@?$__crt_unique_heap_ptr@PADU__crt_internal_free_policy@@@@QAEXXZ 100557e2 f i libucrt:argv_parsing.obj
 0001:000547f8       ?release@?$__crt_unique_heap_ptr@PA_WU__crt_internal_free_policy@@@@QAEXXZ 100557f8 f i libucrt:argv_parsing.obj
 0001:0005482f       ___acrt_allocate_buffer_for_argv 1005582f f   libucrt:argv_parsing.obj
 0001:00054899       __configure_narrow_argv    10055899 f   libucrt:argv_parsing.obj
 0001:000548a6       __configure_wide_argv      100558a6 f   libucrt:argv_parsing.obj
 0001:000548b3       __set_pgmptr               100558b3 f i libucrt:argv_parsing.obj
 0001:000548c5       __set_wpgmptr              100558c5 f i libucrt:argv_parsing.obj
 0001:00054d9f       ??$get_environment_from_os@$$$V@?$__crt_char_traits@D@@SAPADXZ 10055d9f f i libucrt:environment_initialization.obj
 0001:00054da4       ??$get_environment_from_os@$$$V@?$__crt_char_traits@_W@@SAPA_WXZ 10055da4 f i libucrt:environment_initialization.obj
 0001:00054ede       ??$set_variable_in_environment_nolock@PADH@?$__crt_char_traits@D@@SAH$$QAPAD$$QAH@Z 10055ede f i libucrt:environment_initialization.obj
 0001:00054efc       ??$set_variable_in_environment_nolock@PA_WH@?$__crt_char_traits@_W@@SAH$$QAPA_W$$QAH@Z 10055efc f i libucrt:environment_initialization.obj
 0001:00054f1a       ??$tcscpy_s@PADABIAAPAD@?$__crt_char_traits@D@@SAH$$QAPADABIAAPAD@Z 10055f1a f i libucrt:environment_initialization.obj
 0001:00054f3f       ??$tcscpy_s@PA_WABIAAPA_W@?$__crt_char_traits@_W@@SAH$$QAPA_WABIAAPA_W@Z 10055f3f f i libucrt:environment_initialization.obj
 0001:00054f64       ??$tcslen@AAPAD@?$__crt_char_traits@D@@SAIAAPAD@Z 10055f64 f i libucrt:environment_initialization.obj
 0001:00054f82       ??$tcslen@AAPA_W@?$__crt_char_traits@_W@@SAIAAPA_W@Z 10055f82 f i libucrt:environment_initialization.obj
 0001:00054fa7       ??$uninitialize@A6AXAAPAPAD@Z@?$dual_state_global@PAPAD@__crt_state_management@@QAEXA6AXAAPAPAD@Z@Z 10055fa7 f i libucrt:environment_initialization.obj
 0001:00054ff7       ??$uninitialize@A6AXAAPAPA_W@Z@?$dual_state_global@PAPA_W@__crt_state_management@@QAEXA6AXAAPAPA_W@Z@Z 10055ff7 f i libucrt:environment_initialization.obj
 0001:00055089       ??B?$__crt_unique_heap_ptr@PADU__crt_internal_free_policy@@@@QBE_NXZ 10056089 f i libucrt:environment_initialization.obj
 0001:00055093       ??B?$__crt_unique_heap_ptr@PA_WU__crt_internal_free_policy@@@@QBE_NXZ 10056093 f i libucrt:environment_initialization.obj
 0001:0005509d       ??B?$__crt_unique_heap_ptr@_WU__crt_internal_free_policy@@@@QBE_NXZ 1005609d f i libucrt:environment_initialization.obj
 0001:000550a7       ?__crt_compute_required_transform_buffer_count@@YAIIQBD@Z 100560a7 f i libucrt:environment_initialization.obj
 0001:000550c7       ?__crt_compute_required_transform_buffer_count@@YAIIQB_W@Z 100560c7 f i libucrt:environment_initialization.obj
 0001:000550ea       ?__crt_transform_string@@YAIIQBDQA_WI@Z 100560ea f i libucrt:environment_initialization.obj
 0001:0005510e       ?__crt_transform_string@@YAIIQB_WQADI@Z 1005610e f i libucrt:environment_initialization.obj
 0001:00055136       ?detach@?$__crt_unique_heap_ptr@DU__crt_internal_free_policy@@@@QAEPADXZ 10056136 f i libucrt:environment_initialization.obj
 0001:0005513c       ?detach@?$__crt_unique_heap_ptr@_WU__crt_internal_free_policy@@@@QAEPA_WXZ 1005613c f i libucrt:environment_initialization.obj
 0001:00055142       ?get_current_state_index@__crt_state_management@@YAIXZ 10056142 f i libucrt:environment_initialization.obj
 0001:00055169       ?initialize@?$dual_state_global@PAPAD@__crt_state_management@@QAEXQAPAD@Z 10056169 f i libucrt:environment_initialization.obj
 0001:000551a6       ?initialize@?$dual_state_global@PAPA_W@__crt_state_management@@QAEXQAPA_W@Z 100561a6 f i libucrt:environment_initialization.obj
 0001:000551e3       ?is_valid@?$__crt_unique_heap_ptr@PADU__crt_internal_free_policy@@@@QBE_NXZ 100561e3 f i libucrt:environment_initialization.obj
 0001:000551ed       ?is_valid@?$__crt_unique_heap_ptr@PA_WU__crt_internal_free_policy@@@@QBE_NXZ 100561ed f i libucrt:environment_initialization.obj
 0001:000551f7       ?is_valid@?$__crt_unique_heap_ptr@_WU__crt_internal_free_policy@@@@QBE_NXZ 100561f7 f i libucrt:environment_initialization.obj
 0001:00055207       ?value@?$dual_state_global@PAPAD@__crt_state_management@@QAEAAPAPADXZ 10056207 f i libucrt:environment_initialization.obj
 0001:0005520a       ?value@?$dual_state_global@PAPA_W@__crt_state_management@@QAEAAPAPA_WXZ 1005620a f i libucrt:environment_initialization.obj
 0001:0005520d       ___dcrt_get_or_create_narrow_environment_nolock 1005620d f   libucrt:environment_initialization.obj
 0001:00055212       ___dcrt_get_or_create_wide_environment_nolock 10056212 f   libucrt:environment_initialization.obj
 0001:00055217       ___dcrt_uninitialize_environments_nolock 10056217 f   libucrt:environment_initialization.obj
 0001:0005525b       ___p__environ              1005625b f   libucrt:environment_initialization.obj
 0001:00055261       ___p__wenviron             10056261 f   libucrt:environment_initialization.obj
 0001:00055267       __get_initial_narrow_environment 10056267 f   libucrt:environment_initialization.obj
 0001:00055280       __get_initial_wide_environment 10056280 f   libucrt:environment_initialization.obj
 0001:00055299       __initialize_narrow_environment 10056299 f   libucrt:environment_initialization.obj
 0001:0005529e       __initialize_wide_environment 1005629e f   libucrt:environment_initialization.obj
 0001:000552a3       ??$?BP6AXXZ@__crt_fast_encoded_nullptr_t@@QBEPAP6AXXZXZ 100562a3 f i libucrt:onexit.obj
 0001:000552c1       ??$?RP6AXXZ@__crt_internal_free_policy@@QBEXQBQ6AXXZ@Z 100562c1 f i libucrt:onexit.obj
 0001:000552d7       ??$?RV<lambda_800076c951b434888f4765a74a194fcc>@@AAV<lambda_4e60a939b0d047cfe11ddc22648dfba9>@@V<lambda_6dbb1268764f43b569ce7b67e331d33a>@@@?$__crt_seh_guarded_call@H@@QAEH$$QAV<lambda_800076c951b434888f4765a74a194fcc>@@AAV<lambda_4e60a939b0d047cfe11ddc22648dfba9>@@$$QAV<lambda_6dbb1268764f43b569ce7b67e331d33a>@@@Z 100562d7 f i libucrt:onexit.obj
 0001:0005533c       ??$?RV<lambda_995298e7d72eb4c2aab26c0585b3abe5>@@AAV<lambda_275893d493268fdec8709772e3fcec0e>@@V<lambda_293819299cbf9a7022e18b56a874bb5c>@@@?$__crt_seh_guarded_call@H@@QAEH$$QAV<lambda_995298e7d72eb4c2aab26c0585b3abe5>@@AAV<lambda_275893d493268fdec8709772e3fcec0e>@@$$QAV<lambda_293819299cbf9a7022e18b56a874bb5c>@@@Z 1005633c f i libucrt:onexit.obj
 0001:000553a1       ??$__acrt_lock_and_call@V<lambda_275893d493268fdec8709772e3fcec0e>@@@@YAHW4__acrt_lock_id@@$$QAV<lambda_275893d493268fdec8709772e3fcec0e>@@@Z 100563a1 f i libucrt:onexit.obj
 0001:000553d3       ??$__acrt_lock_and_call@V<lambda_4e60a939b0d047cfe11ddc22648dfba9>@@@@YAHW4__acrt_lock_id@@$$QAV<lambda_4e60a939b0d047cfe11ddc22648dfba9>@@@Z 100563d3 f i libucrt:onexit.obj
 0001:00055405       ??$__crt_fast_encode_pointer@P6AHXZ@@YAP6AHXZQ6AHXZ@Z 10056405 f i libucrt:onexit.obj
 0001:000554b2       ??0?$__crt_unique_heap_ptr@P6AXXZU__crt_internal_free_policy@@@@QAE@QAP6AXXZ@Z 100564b2 f i libucrt:onexit.obj
 0001:000554c6       ??1?$__crt_unique_heap_ptr@P6AXXZU__crt_internal_free_policy@@@@QAE@XZ 100564c6 f i libucrt:onexit.obj
 0001:00055801       ?detach@?$__crt_unique_heap_ptr@P6AXXZU__crt_internal_free_policy@@@@QAEPAP6AXXZXZ 10056801 f i libucrt:onexit.obj
 0001:00055807       ?release@?$__crt_unique_heap_ptr@P6AXXZU__crt_internal_free_policy@@@@QAEXXZ 10056807 f i libucrt:onexit.obj
 0001:0005581d       __crt_at_quick_exit        1005681d f   libucrt:onexit.obj
 0001:00055838       __crt_atexit               10056838 f   libucrt:onexit.obj
 0001:00055853       __execute_onexit_table     10056853 f   libucrt:onexit.obj
 0001:00055877       __initialize_onexit_table  10056877 f   libucrt:onexit.obj
 0001:000558c3       __register_onexit_function 100568c3 f   libucrt:onexit.obj
 0001:00055a2a       ?initialize@?$dual_state_global@PAU__crt_locale_data@@@__crt_state_management@@QAEXQAU__crt_locale_data@@@Z 10056a2a f i libucrt:initialization.obj
 0001:00055a67       ___acrt_initialize         10056a67 f   libucrt:initialization.obj
 0001:00055a7d       ___acrt_thread_attach      10056a7d f   libucrt:initialization.obj
 0001:00055a8a       ___acrt_thread_detach      10056a8a f   libucrt:initialization.obj
 0001:00055a94       ___acrt_uninitialize       10056a94 f   libucrt:initialization.obj
 0001:00055aaa       ___acrt_uninitialize_critical 10056aaa f   libucrt:initialization.obj
 0001:00055adb       __get_terminate            10056adb f   libucrt:terminate.obj
 0001:00055af1       _set_terminate             10056af1 f   libucrt:terminate.obj
 0001:00055b19       _terminate                 10056b19 f   libucrt:terminate.obj
 0001:00055b64       ??$__crt_interlocked_exchange_pointer@X$$T@@YAPAXPDSAX$$T@Z 10056b64 f i libucrt:free_base.obj
 0001:00055b7c       ___acrt_get_msvcrt_heap_handle 10056b7c f   libucrt:free_base.obj
 0001:00055c0d       __free_base                10056c0d f   libucrt:free_base.obj
 0001:00055c55       __malloc_base              10056c55 f   libucrt:malloc_base.obj
 0001:00055d26       _strcpy_s                  10056d26 f   libucrt:strcpy_s.obj
 0001:00055d96       __set_abort_behavior       10056d96 f   libucrt:abort.obj
 0001:00055dbf       _abort                     10056dbf f   libucrt:abort.obj
 0001:00055e12       __calloc_base              10056e12 f   libucrt:calloc_base.obj
 0001:00055e86       ??$is_overflow_condition@K@__crt_strtox@@YA_NIK@Z 10056e86 f i libucrt:atox.obj
 0001:00055ec5       ??$is_overflow_condition@_K@__crt_strtox@@YA_NI_K@Z 10056ec5 f i libucrt:atox.obj
 0001:00055f18       ??$make_c_string_character_source@D$$T@__crt_strtox@@YA?AV?$c_string_character_source@D@0@QBD$$T@Z 10056f18 f i libucrt:atox.obj
 0001:00055f39       ??$make_c_string_character_source@_W$$T@__crt_strtox@@YA?AV?$c_string_character_source@_W@0@QB_W$$T@Z 10056f39 f i libucrt:atox.obj
 0001:00055f5a       ??$parse_integer@KV?$c_string_character_source@D@__crt_strtox@@@__crt_strtox@@YAKQAU__crt_locale_pointers@@V?$c_string_character_source@D@0@H_N@Z 10056f5a f i libucrt:atox.obj
 0001:0005620c       ??$parse_integer@KV?$c_string_character_source@_W@__crt_strtox@@@__crt_strtox@@YAKQAU__crt_locale_pointers@@V?$c_string_character_source@_W@0@H_N@Z 1005720c f i libucrt:atox.obj
 0001:00056aaa       ??$parse_integer@_KV?$c_string_character_source@D@__crt_strtox@@@__crt_strtox@@YA_KQAU__crt_locale_pointers@@V?$c_string_character_source@D@0@H_N@Z 10057aaa f i libucrt:atox.obj
 0001:00056df9       ??$parse_integer@_KV?$c_string_character_source@_W@__crt_strtox@@@__crt_strtox@@YA_KQAU__crt_locale_pointers@@V?$c_string_character_source@_W@0@H_N@Z 10057df9 f i libucrt:atox.obj
 0001:0005756b       ??$parse_integer_from_string@JD$$T@__crt_strtox@@YAJQBD$$THQAU__crt_locale_pointers@@@Z 1005856b f i libucrt:atox.obj
 0001:000575a3       ??$parse_integer_from_string@J_W$$T@__crt_strtox@@YAJQB_W$$THQAU__crt_locale_pointers@@@Z 100585a3 f i libucrt:atox.obj
 0001:000575db       ??$parse_integer_from_string@_JD$$T@__crt_strtox@@YA_JQBD$$THQAU__crt_locale_pointers@@@Z 100585db f i libucrt:atox.obj
 0001:00057613       ??$parse_integer_from_string@_J_W$$T@__crt_strtox@@YA_JQB_W$$THQAU__crt_locale_pointers@@@Z 10058613 f i libucrt:atox.obj
 0001:0005764b       ??0?$c_string_character_source@D@__crt_strtox@@QAE@QBDQAPBD@Z 1005864b f i libucrt:atox.obj
 0001:0005766e       ??0?$c_string_character_source@_W@__crt_strtox@@QAE@QB_WQAPB_W@Z 1005866e f i libucrt:atox.obj
 0001:00057691       ??1?$c_string_character_source@D@__crt_strtox@@QAE@XZ 10058691 f i libucrt:atox.obj
 0001:000576a0       ??1?$c_string_character_source@_W@__crt_strtox@@QAE@XZ 100586a0 f i libucrt:atox.obj
 0001:000576af       ?get@?$c_string_character_source@D@__crt_strtox@@QAEDXZ 100586af f i libucrt:atox.obj
 0001:000576b9       ?get@?$c_string_character_source@_W@__crt_strtox@@QAE_WXZ 100586b9 f i libucrt:atox.obj
 0001:000576c6       ?is_space@__crt_strtox@@YA_NDQAU__crt_locale_pointers@@@Z 100586c6 f i libucrt:atox.obj
 0001:000576ec       ?is_space@__crt_strtox@@YA_N_WPAU__crt_locale_pointers@@@Z 100586ec f i libucrt:atox.obj
 0001:0005770b       ?maximum_signed_value@__crt_strtox@@YAJK@Z 1005870b f i libucrt:atox.obj
 0001:00057711       ?maximum_signed_value@__crt_strtox@@YA_J_K@Z 10058711 f i libucrt:atox.obj
 0001:0005771c       ?minimum_signed_value@__crt_strtox@@YAJK@Z 1005871c f i libucrt:atox.obj
 0001:00057722       ?minimum_signed_value@__crt_strtox@@YA_J_K@Z 10058722 f i libucrt:atox.obj
 0001:0005772c       ?parse_digit@__crt_strtox@@YAID@Z 1005872c f i libucrt:atox.obj
 0001:00057774       ?parse_digit@__crt_strtox@@YAI_W@Z 10058774 f i libucrt:atox.obj
 0001:000579d1       ?restore_state@?$c_string_character_source@D@__crt_strtox@@QAE_NQBD@Z 100589d1 f i libucrt:atox.obj
 0001:000579e5       ?restore_state@?$c_string_character_source@_W@__crt_strtox@@QAE_NQB_W@Z 100589e5 f i libucrt:atox.obj
 0001:000579f9       ?save_state@?$c_string_character_source@D@__crt_strtox@@QBEPBDXZ 100589f9 f i libucrt:atox.obj
 0001:000579fc       ?save_state@?$c_string_character_source@_W@__crt_strtox@@QBEPB_WXZ 100589fc f i libucrt:atox.obj
 0001:000579ff       ?unget@?$c_string_character_source@D@__crt_strtox@@QAEXD@Z 100589ff f i libucrt:atox.obj
 0001:00057a31       ?unget@?$c_string_character_source@_W@__crt_strtox@@QAEX_W@Z 10058a31 f i libucrt:atox.obj
 0001:00057a68       ?validate@?$c_string_character_source@D@__crt_strtox@@QBE_NXZ 10058a68 f i libucrt:atox.obj
 0001:00057a89       ?validate@?$c_string_character_source@_W@__crt_strtox@@QBE_NXZ 10058a89 f i libucrt:atox.obj
 0001:00057aaa       ?wide_character_to_digit@__crt_strtox@@YAH_W@Z 10058aaa f i libucrt:atox.obj
 0001:00057cb3       ___acrt_get_locale_data_prefix 10058cb3 f i libucrt:atox.obj
 0001:00057cc2       __atoi64                   10058cc2 f   libucrt:atox.obj
 0001:00057cf6       __atoi64_l                 10058cf6 f   libucrt:atox.obj
 0001:00057d2b       __atoi_l                   10058d2b f   libucrt:atox.obj
 0001:00057d60       __atol_l                   10058d60 f   libucrt:atox.obj
 0001:00057d95       __atoll_l                  10058d95 f   libucrt:atox.obj
 0001:00057dca       __chvalidchk_l             10058dca f i libucrt:atox.obj
 0001:00057dfe       __ischartype_l             10058dfe f i libucrt:atox.obj
 0001:00057e3d       __wtoi                     10058e3d f   libucrt:atox.obj
 0001:00057e71       __wtoi64                   10058e71 f   libucrt:atox.obj
 0001:00057ea5       __wtoi64_l                 10058ea5 f   libucrt:atox.obj
 0001:00057eda       __wtoi_l                   10058eda f   libucrt:atox.obj
 0001:00057f0f       __wtol                     10058f0f f   libucrt:atox.obj
 0001:00057f43       __wtol_l                   10058f43 f   libucrt:atox.obj
 0001:00057f78       __wtoll                    10058f78 f   libucrt:atox.obj
 0001:00057fac       __wtoll_l                  10058fac f   libucrt:atox.obj
 0001:00057fe1       _atoi                      10058fe1 f   libucrt:atox.obj
 0001:00058015       _atol                      10059015 f   libucrt:atox.obj
 0001:00058049       _atoll                     10059049 f   libucrt:atox.obj
 0001:0005807d       ??$__crt_fast_decode_pointer@P6AXPB_W00II@Z@@YAP6AXPB_W00II@ZQ6AX000II@Z@Z 1005907d f i libucrt:invalid_parameter.obj
 0001:00058098       ??$__crt_fast_encode_pointer@P6AXPB_W00II@Z@@YAP6AXPB_W00II@ZQ6AX000II@Z@Z 10059098 f i libucrt:invalid_parameter.obj
 0001:000580be       ?initialize@?$dual_state_global@P6AXPB_W00II@Z@__crt_state_management@@QAEXQ6AXPB_W00II@Z@Z 100590be f i libucrt:invalid_parameter.obj
 0001:000580fb       ?value@?$dual_state_global@P6AXPB_W00II@Z@__crt_state_management@@QAEAAP6AXPB_W00II@ZXZ 100590fb f i libucrt:invalid_parameter.obj
 0001:000580fe       ___acrt_call_reportfault   100590fe f   libucrt:invalid_parameter.obj
 0001:00058287       ___acrt_initialize_invalid_parameter_handler 10059287 f   libucrt:invalid_parameter.obj
 0001:000582a0       __get_invalid_parameter_handler 100592a0 f   libucrt:invalid_parameter.obj
 0001:000582b7       __get_thread_local_invalid_parameter_handler 100592b7 f   libucrt:invalid_parameter.obj
 0001:000582cc       __invalid_parameter        100592cc f   libucrt:invalid_parameter.obj
 0001:00058365       __invalid_parameter_noinfo 10059365 f   libucrt:invalid_parameter.obj
 0001:00058379       __invalid_parameter_noinfo_noreturn 10059379 f   libucrt:invalid_parameter.obj
 0001:0005839d       __invoke_watson            1005939d f   libucrt:invalid_parameter.obj
 0001:000583dc       __set_invalid_parameter_handler 100593dc f   libucrt:invalid_parameter.obj
 0001:00058418       __set_thread_local_invalid_parameter_handler 10059418 f   libucrt:invalid_parameter.obj
 0001:0005843c       ___acrt_errno_from_os_error 1005943c f   libucrt:errno.obj
 0001:0005848f       ___acrt_errno_map_os_error 1005948f f   libucrt:errno.obj
 0001:000584ba       ___doserrno                100594ba f   libucrt:errno.obj
 0001:000584d1       __errno                    100594d1 f   libucrt:errno.obj
 0001:000584e8       __get_doserrno             100594e8 f   libucrt:errno.obj
 0001:00058516       __get_errno                10059516 f   libucrt:errno.obj
 0001:00058544       __set_doserrno             10059544 f   libucrt:errno.obj
 0001:0005856d       __set_errno                1005956d f   libucrt:errno.obj
 0001:000585ed       ??$?B$$A6GHPA_WKJ@Z@__crt_fast_encoded_nullptr_t@@QBEP6GHPA_WKJ@ZXZ 100595ed f i libucrt:winapi_thunks.obj
 0001:0005860b       ??$?RV<lambda_9227be29367c048ad7fd93a717dcb1a1>@@AAV<lambda_a463b7b0560cfcaf9b17f27c6ef46564>@@V<lambda_ccea11b5727ccf69be64f5f5d9a08d9f>@@@?$__crt_seh_guarded_call@H@@QAEH$$QAV<lambda_9227be29367c048ad7fd93a717dcb1a1>@@AAV<lambda_a463b7b0560cfcaf9b17f27c6ef46564>@@$$QAV<lambda_ccea11b5727ccf69be64f5f5d9a08d9f>@@@Z 1005960b f i libucrt:winapi_thunks.obj
 0001:000586b0       ??$__acrt_lock_and_call@V<lambda_a463b7b0560cfcaf9b17f27c6ef46564>@@@@YAHW4__acrt_lock_id@@$$QAV<lambda_a463b7b0560cfcaf9b17f27c6ef46564>@@@Z 100596b0 f i libucrt:winapi_thunks.obj
 0001:000586e2       ??$__crt_fast_decode_pointer@P6GHPA_WKJ@Z@@YAP6GHPA_WKJ@ZQ6GH0KJ@Z@Z 100596e2 f i libucrt:winapi_thunks.obj
 0001:000586fd       ??$__crt_fast_encode_pointer@P6GHPA_WKJ@Z@@YAP6GHPA_WKJ@ZQ6GH0KJ@Z@Z 100596fd f i libucrt:winapi_thunks.obj
 0001:00058e2a       ___acrt_AreFileApisANSI@0  10059e2a f   libucrt:winapi_thunks.obj
 0001:00058e8b       ___acrt_CompareStringEx@36 10059e8b f   libucrt:winapi_thunks.obj
 0001:00058f1c       ___acrt_EnumSystemLocalesEx@16 10059f1c f   libucrt:winapi_thunks.obj
 0001:00058fa4       ___acrt_FlsAlloc@4         10059fa4 f   libucrt:winapi_thunks.obj
 0001:0005900f       ___acrt_FlsFree@4          1005a00f f   libucrt:winapi_thunks.obj
 0001:0005907a       ___acrt_FlsGetValue@4      1005a07a f   libucrt:winapi_thunks.obj
 0001:000590e5       ___acrt_FlsSetValue@8      1005a0e5 f   libucrt:winapi_thunks.obj
 0001:00059154       ___acrt_GetDateFormatEx@28 1005a154 f   libucrt:winapi_thunks.obj
 0001:000591f6       ___acrt_GetEnabledXStateFeatures@0 1005a1f6 f   libucrt:winapi_thunks.obj
 0001:00059258       ___acrt_GetFileInformationByHandleEx@16 1005a258 f   libucrt:winapi_thunks.obj
 0001:000592d3       ___acrt_GetLocaleInfoEx@16 1005a2d3 f   libucrt:winapi_thunks.obj
 0001:00059357       ___acrt_GetSystemTimePreciseAsFileTime@4 1005a357 f   libucrt:winapi_thunks.obj
 0001:000593c2       ___acrt_GetTimeFormatEx@24 1005a3c2 f   libucrt:winapi_thunks.obj
 0001:0005944e       ___acrt_GetUserDefaultLocaleName@8 1005a44e f   libucrt:winapi_thunks.obj
 0001:000594ce       ___acrt_GetXStateFeaturesMask@8 1005a4ce f   libucrt:winapi_thunks.obj
 0001:0005953a       ___acrt_InitializeCriticalSectionEx@12 1005a53a f   libucrt:winapi_thunks.obj
 0001:000595b4       ___acrt_IsValidLocaleName@4 1005a5b4 f   libucrt:winapi_thunks.obj
 0001:0005962f       ___acrt_LCIDToLocaleName@16 1005a62f f   libucrt:winapi_thunks.obj
 0001:000596b3       ___acrt_LCMapStringEx@36   1005a6b3 f   libucrt:winapi_thunks.obj
 0001:0005975d       ___acrt_LocaleNameToLCID@8 1005a75d f   libucrt:winapi_thunks.obj
 0001:000597d0       ___acrt_LocateXStateFeature@12 1005a7d0 f   libucrt:winapi_thunks.obj
 0001:00059827       ___acrt_MessageBoxA@16     1005a827 f   libucrt:winapi_thunks.obj
 0001:00059882       ___acrt_MessageBoxW@16     1005a882 f   libucrt:winapi_thunks.obj
 0001:000598dd       ___acrt_RoInitialize@4     1005a8dd f   libucrt:winapi_thunks.obj
 0001:00059943       ___acrt_RoUninitialize@0   1005a943 f   libucrt:winapi_thunks.obj
 0001:0005999e       ___acrt_RtlGenRandom@8     1005a99e f   libucrt:winapi_thunks.obj
 0001:00059a0a       ___acrt_SetThreadStackGuarantee@4 1005aa0a f   libucrt:winapi_thunks.obj
 0001:00059a70       ___acrt_can_show_message_box 1005aa70 f   libucrt:winapi_thunks.obj
 0001:00059a8f       ___acrt_can_use_vista_locale_apis 1005aa8f f   libucrt:winapi_thunks.obj
 0001:00059a9e       ___acrt_can_use_xstate_apis 1005aa9e f   libucrt:winapi_thunks.obj
 0001:00059aad       ___acrt_get_parent_window  1005aaad f   libucrt:winapi_thunks.obj
 0001:00059b4b       ___acrt_initialize_winapi_thunks 1005ab4b f   libucrt:winapi_thunks.obj
 0001:00059b7a       ___acrt_is_interactive     1005ab7a f   libucrt:winapi_thunks.obj
 0001:00059c49       ___acrt_is_packaged_app    1005ac49 f   libucrt:winapi_thunks.obj
 0001:00059cf1       ___acrt_uninitialize_winapi_thunks 1005acf1 f   libucrt:winapi_thunks.obj
 0001:00059d34       ??0__crt_stdio_stream@@QAE@QAU__crt_stdio_stream_data@@@Z 1005ad34 f i libucrt:closeall.obj
 0001:00059d48       __fcloseall                1005ad48 f   libucrt:closeall.obj
 0001:00059e10       ___acrt_stdio_flush_nolock 1005ae10 f   libucrt:fflush.obj
 0001:00059e8f       __fflush_nolock            1005ae8f f   libucrt:fflush.obj
 0001:00059ee7       __flushall                 1005aee7 f   libucrt:fflush.obj
 0001:0005a000       _fflush                    1005b000 f   libucrt:fflush.obj
 0001:0005a06f       ?has_crt_buffer@__crt_stdio_stream@@QBE_NXZ 1005b06f f i libucrt:_freebuf.obj
 0001:0005a07e       ___acrt_stdio_free_buffer_nolock 1005b07e f   libucrt:_freebuf.obj
 0001:0005a2bb       ___acrt_initialize_lowio   1005b2bb f   libucrt:ioinit.obj
 0001:0005a326       ___acrt_uninitialize_lowio 1005b326 f   libucrt:ioinit.obj
 0001:0005a378       ___isascii                 1005b378 f i libucrt:_ctype.obj
 0001:0005a38e       ___iscsym                  1005b38e f i libucrt:_ctype.obj
 0001:0005a3b8       ___iscsymf                 1005b3b8 f i libucrt:_ctype.obj
 0001:0005a3de       ___toascii                 1005b3de f i libucrt:_ctype.obj
 0001:0005a3ee       __isalnum_l                1005b3ee f i libucrt:_ctype.obj
 0001:0005a437       __isalpha_l                1005b437 f i libucrt:_ctype.obj
 0001:0005a480       __isblank_l                1005b480 f i libucrt:_ctype.obj
 0001:0005a4d3       __iscntrl_l                1005b4d3 f i libucrt:_ctype.obj
 0001:0005a519       __iscsym_l                 1005b519 f i libucrt:_ctype.obj
 0001:0005a544       __iscsymf_l                1005b544 f i libucrt:_ctype.obj
 0001:0005a56f       __isdigit_l                1005b56f f i libucrt:_ctype.obj
 0001:0005a5b5       __isgraph_l                1005b5b5 f i libucrt:_ctype.obj
 0001:0005a5fe       __islower_l                1005b5fe f i libucrt:_ctype.obj
 0001:0005a644       __isprint_l                1005b644 f i libucrt:_ctype.obj
 0001:0005a68d       __ispunct_l                1005b68d f i libucrt:_ctype.obj
 0001:0005a6d3       __isspace_l                1005b6d3 f i libucrt:_ctype.obj
 0001:0005a719       __isupper_l                1005b719 f i libucrt:_ctype.obj
 0001:0005a75f       __isxdigit_l               1005b75f f i libucrt:_ctype.obj
 0001:0005a7a8       _isalnum                   1005b7a8 f i libucrt:_ctype.obj
 0001:0005a7e2       _isalpha                   1005b7e2 f i libucrt:_ctype.obj
 0001:0005a81c       _isblank                   1005b81c f i libucrt:_ctype.obj
 0001:0005a860       _iscntrl                   1005b860 f i libucrt:_ctype.obj
 0001:0005a898       _isdigit                   1005b898 f i libucrt:_ctype.obj
 0001:0005a8d0       _isgraph                   1005b8d0 f i libucrt:_ctype.obj
 0001:0005a90a       _islower                   1005b90a f i libucrt:_ctype.obj
 0001:0005a942       _isprint                   1005b942 f i libucrt:_ctype.obj
 0001:0005a97c       _ispunct                   1005b97c f i libucrt:_ctype.obj
 0001:0005a9b4       _isspace                   1005b9b4 f i libucrt:_ctype.obj
 0001:0005a9ec       _isupper                   1005b9ec f i libucrt:_ctype.obj
 0001:0005aa24       _isxdigit                  1005ba24 f i libucrt:_ctype.obj
 0001:0005ae1c       __tolower                  1005be1c f   libucrt:tolower_toupper.obj
 0001:0005ae2c       __tolower_l                1005be2c f   libucrt:tolower_toupper.obj
 0001:0005ae4c       __toupper                  1005be4c f   libucrt:tolower_toupper.obj
 0001:0005ae5c       __toupper_l                1005be5c f   libucrt:tolower_toupper.obj
 0001:0005ae7c       _tolower                   1005be7c f   libucrt:tolower_toupper.obj
 0001:0005aeb8       _toupper                   1005beb8 f   libucrt:tolower_toupper.obj
 0001:0005aef4       ??$make_c_string_character_source@DPAPAD@__crt_strtox@@YA?AV?$c_string_character_source@D@0@QBDQAPAD@Z 1005bef4 f i libucrt:strtox.obj
 0001:0005af15       ??$make_c_string_character_source@_WPAPA_W@__crt_strtox@@YA?AV?$c_string_character_source@_W@0@QB_WQAPA_W@Z 1005bf15 f i libucrt:strtox.obj
 0001:0005af36       ??$parse_integer_from_string@JDPAPAD@__crt_strtox@@YAJQBDQAPADHQAU__crt_locale_pointers@@@Z 1005bf36 f i libucrt:strtox.obj
 0001:0005af6e       ??$parse_integer_from_string@J_WPAPA_W@__crt_strtox@@YAJQB_WQAPA_WHQAU__crt_locale_pointers@@@Z 1005bf6e f i libucrt:strtox.obj
 0001:0005afa6       ??$parse_integer_from_string@KDPAPAD@__crt_strtox@@YAKQBDQAPADHQAU__crt_locale_pointers@@@Z 1005bfa6 f i libucrt:strtox.obj
 0001:0005afde       ??$parse_integer_from_string@K_WPAPA_W@__crt_strtox@@YAKQB_WQAPA_WHQAU__crt_locale_pointers@@@Z 1005bfde f i libucrt:strtox.obj
 0001:0005b016       ??$parse_integer_from_string@_JDPAPAD@__crt_strtox@@YA_JQBDQAPADHQAU__crt_locale_pointers@@@Z 1005c016 f i libucrt:strtox.obj
 0001:0005b04e       ??$parse_integer_from_string@_J_WPAPA_W@__crt_strtox@@YA_JQB_WQAPA_WHQAU__crt_locale_pointers@@@Z 1005c04e f i libucrt:strtox.obj
 0001:0005b086       ??$parse_integer_from_string@_KDPAPAD@__crt_strtox@@YA_KQBDQAPADHQAU__crt_locale_pointers@@@Z 1005c086 f i libucrt:strtox.obj
 0001:0005b0be       ??$parse_integer_from_string@_K_WPAPA_W@__crt_strtox@@YA_KQB_WQAPA_WHQAU__crt_locale_pointers@@@Z 1005c0be f i libucrt:strtox.obj
 0001:0005b0f6       __strtoi64                 1005c0f6 f   libucrt:strtox.obj
 0001:0005b12d       __strtoi64_l               1005c12d f   libucrt:strtox.obj
 0001:0005b165       __strtoimax_l              1005c165 f   libucrt:strtox.obj
 0001:0005b19d       __strtol_l                 1005c19d f   libucrt:strtox.obj
 0001:0005b1d5       __strtoll_l                1005c1d5 f   libucrt:strtox.obj
 0001:0005b20d       __strtoui64                1005c20d f   libucrt:strtox.obj
 0001:0005b244       __strtoui64_l              1005c244 f   libucrt:strtox.obj
 0001:0005b27c       __strtoul_l                1005c27c f   libucrt:strtox.obj
 0001:0005b2b4       __strtoull_l               1005c2b4 f   libucrt:strtox.obj
 0001:0005b2ec       __strtoumax_l              1005c2ec f   libucrt:strtox.obj
 0001:0005b324       __wcstoi64                 1005c324 f   libucrt:strtox.obj
 0001:0005b35b       __wcstoi64_l               1005c35b f   libucrt:strtox.obj
 0001:0005b393       __wcstoimax_l              1005c393 f   libucrt:strtox.obj
 0001:0005b3cb       __wcstol_l                 1005c3cb f   libucrt:strtox.obj
 0001:0005b403       __wcstoll_l                1005c403 f   libucrt:strtox.obj
 0001:0005b43b       __wcstoui64                1005c43b f   libucrt:strtox.obj
 0001:0005b472       __wcstoui64_l              1005c472 f   libucrt:strtox.obj
 0001:0005b4aa       __wcstoul_l                1005c4aa f   libucrt:strtox.obj
 0001:0005b4e2       __wcstoull_l               1005c4e2 f   libucrt:strtox.obj
 0001:0005b51a       __wcstoumax_l              1005c51a f   libucrt:strtox.obj
 0001:0005b552       _strtoimax                 1005c552 f   libucrt:strtox.obj
 0001:0005b589       _strtol                    1005c589 f   libucrt:strtox.obj
 0001:0005b5c0       _strtoll                   1005c5c0 f   libucrt:strtox.obj
 0001:0005b5f7       _strtoul                   1005c5f7 f   libucrt:strtox.obj
 0001:0005b62e       _strtoull                  1005c62e f   libucrt:strtox.obj
 0001:0005b665       _strtoumax                 1005c665 f   libucrt:strtox.obj
 0001:0005b69c       _wcstoimax                 1005c69c f   libucrt:strtox.obj
 0001:0005b6d3       _wcstol                    1005c6d3 f   libucrt:strtox.obj
 0001:0005b70a       _wcstoll                   1005c70a f   libucrt:strtox.obj
 0001:0005b741       _wcstoul                   1005c741 f   libucrt:strtox.obj
 0001:0005b778       _wcstoull                  1005c778 f   libucrt:strtox.obj
 0001:0005b7af       _wcstoumax                 1005c7af f   libucrt:strtox.obj
 0001:0005b7e6       __mbtowc_l                 1005c7e6 f   libucrt:mbtowc.obj
 0001:0005b91e       _mbtowc                    1005c91e f   libucrt:mbtowc.obj
 0001:0005b93e       __wctomb_l                 1005c93e f   libucrt:wctomb.obj
 0001:0005b9a5       __wctomb_s_l               1005c9a5 f   libucrt:wctomb.obj
 0001:0005bb0e       _wctomb                    1005cb0e f   libucrt:wctomb.obj
 0001:0005bb4f       _wctomb_s                  1005cb4f f   libucrt:wctomb.obj
 0001:0005c267       ??1?$__crt_simd_cleanup_guard@$00@@QAE@XZ 1005d267 f i libucrt:strnlen.obj
 0001:0005c26b       ??1?$__crt_simd_cleanup_guard@$0A@@@QAE@XZ 1005d26b f i libucrt:strnlen.obj
 0001:0005c26c       ?compare_equals@?$__crt_simd_traits@$00E@@SA?AT__m256i@@T2@0@Z 1005d26c f i libucrt:strnlen.obj
 0001:0005c271       ?compare_equals@?$__crt_simd_traits@$00G@@SA?AT__m256i@@T2@0@Z 1005d271 f i libucrt:strnlen.obj
 0001:0005c276       ?compare_equals@?$__crt_simd_traits@$0A@E@@SA?AT__m128i@@T2@0@Z 1005d276 f i libucrt:strnlen.obj
 0001:0005c27b       ?compare_equals@?$__crt_simd_traits@$0A@G@@SA?AT__m128i@@T2@0@Z 1005d27b f i libucrt:strnlen.obj
 0001:0005c280       ?compute_byte_mask@?$__crt_simd_pack_traits@$00@@SAHT__m256i@@@Z 1005d280 f i libucrt:strnlen.obj
 0001:0005c285       ?compute_byte_mask@?$__crt_simd_pack_traits@$0A@@@SAHT__m128i@@@Z 1005d285 f i libucrt:strnlen.obj
 0001:0005c28a       ?get_zero_pack@?$__crt_simd_pack_traits@$00@@SA?AT__m256i@@XZ 1005d28a f i libucrt:strnlen.obj
 0001:0005c28f       ?get_zero_pack@?$__crt_simd_pack_traits@$0A@@@SA?AT__m128i@@XZ 1005d28f f i libucrt:strnlen.obj
 0001:0005c294       _strnlen                   1005d294 f   libucrt:strnlen.obj
 0001:0005c404       _wcsnlen                   1005d404 f   libucrt:strnlen.obj
 0001:0005c628       ??$?RU__acrt_ptd@@@__crt_internal_free_policy@@QBEXQBU__acrt_ptd@@@Z 1005d628 f i libucrt:per_thread_data.obj
 0001:0005c63e       ??$?RV<lambda_3518db117f0e7cdb002338c5d3c47b6c>@@AAV<lambda_b2ea41f6bbb362cd97d94c6828d90b61>@@V<lambda_abdedf541bb04549bc734292b4a045d4>@@@?$__crt_seh_guarded_call@X@@QAEX$$QAV<lambda_3518db117f0e7cdb002338c5d3c47b6c>@@AAV<lambda_b2ea41f6bbb362cd97d94c6828d90b61>@@$$QAV<lambda_abdedf541bb04549bc734292b4a045d4>@@@Z 1005d63e f i libucrt:per_thread_data.obj
 0001:0005c6a2       ??$?RV<lambda_51b6e8b1eb166f2a3faf91f424b38130>@@AAV<lambda_6250bd4b2a391816dd638c3bf72b0bcb>@@V<lambda_0b5a4a3e68152e1d9b943535f5f47bed>@@@?$__crt_seh_guarded_call@X@@QAEX$$QAV<lambda_51b6e8b1eb166f2a3faf91f424b38130>@@AAV<lambda_6250bd4b2a391816dd638c3bf72b0bcb>@@$$QAV<lambda_0b5a4a3e68152e1d9b943535f5f47bed>@@@Z 1005d6a2 f i libucrt:per_thread_data.obj
 0001:0005c71b       ??$?RV<lambda_5b71d36f03204c0beab531769a5b5694>@@AAV<lambda_be2b3da3f62db62e9dad5dc70221a656>@@V<lambda_8f9ce462984622f9bf76b59e2aaaf805>@@@?$__crt_seh_guarded_call@X@@QAEX$$QAV<lambda_5b71d36f03204c0beab531769a5b5694>@@AAV<lambda_be2b3da3f62db62e9dad5dc70221a656>@@$$QAV<lambda_8f9ce462984622f9bf76b59e2aaaf805>@@@Z 1005d71b f i libucrt:per_thread_data.obj
 0001:0005c778       ??$?RV<lambda_9df27f884b057bc3edfc946cb5b7cf47>@@AAV<lambda_e69574bed617af4e071282c136b37893>@@V<lambda_cc0d902bcbbeb830f749456577db4721>@@@?$__crt_seh_guarded_call@X@@QAEX$$QAV<lambda_9df27f884b057bc3edfc946cb5b7cf47>@@AAV<lambda_e69574bed617af4e071282c136b37893>@@$$QAV<lambda_cc0d902bcbbeb830f749456577db4721>@@@Z 1005d778 f i libucrt:per_thread_data.obj
 0001:0005c7d2       ??$__acrt_lock_and_call@V<lambda_6250bd4b2a391816dd638c3bf72b0bcb>@@@@YAXW4__acrt_lock_id@@$$QAV<lambda_6250bd4b2a391816dd638c3bf72b0bcb>@@@Z 1005d7d2 f i libucrt:per_thread_data.obj
 0001:0005c804       ??$__acrt_lock_and_call@V<lambda_b2ea41f6bbb362cd97d94c6828d90b61>@@@@YAXW4__acrt_lock_id@@$$QAV<lambda_b2ea41f6bbb362cd97d94c6828d90b61>@@@Z 1005d804 f i libucrt:per_thread_data.obj
 0001:0005c836       ??$__acrt_lock_and_call@V<lambda_be2b3da3f62db62e9dad5dc70221a656>@@@@YAXW4__acrt_lock_id@@$$QAV<lambda_be2b3da3f62db62e9dad5dc70221a656>@@@Z 1005d836 f i libucrt:per_thread_data.obj
 0001:0005c868       ??$__acrt_lock_and_call@V<lambda_e69574bed617af4e071282c136b37893>@@@@YAXW4__acrt_lock_id@@$$QAV<lambda_e69574bed617af4e071282c136b37893>@@@Z 1005d868 f i libucrt:per_thread_data.obj
 0001:0005c9a1       ??0?$__crt_unique_heap_ptr@U__acrt_ptd@@U__crt_internal_free_policy@@@@QAE@QAU__acrt_ptd@@@Z 1005d9a1 f i libucrt:per_thread_data.obj
 0001:0005c9b5       ??0__crt_scoped_get_last_error_reset@@QAE@XZ 1005d9b5 f i libucrt:per_thread_data.obj
 0001:0005c9ca       ??1?$__crt_unique_heap_ptr@U__acrt_ptd@@U__crt_internal_free_policy@@@@QAE@XZ 1005d9ca f i libucrt:per_thread_data.obj
 0001:0005c9e0       ??1__crt_scoped_get_last_error_reset@@QAE@XZ 1005d9e0 f i libucrt:per_thread_data.obj
 0001:0005c9eb       ??B?$__crt_unique_heap_ptr@U__acrt_ptd@@U__crt_internal_free_policy@@@@QBE_NXZ 1005d9eb f i libucrt:per_thread_data.obj
 0001:0005cb61       ?dangerous_get_state_array@?$dual_state_global@PAU__crt_locale_data@@@__crt_state_management@@QAEPAPAU__crt_locale_data@@XZ 1005db61 f i libucrt:per_thread_data.obj
 0001:0005cc65       ?detach@?$__crt_unique_heap_ptr@U__acrt_ptd@@U__crt_internal_free_policy@@@@QAEPAU__acrt_ptd@@XZ 1005dc65 f i libucrt:per_thread_data.obj
 0001:0005cc6b       ?get@?$__crt_unique_heap_ptr@U__acrt_ptd@@U__crt_internal_free_policy@@@@QBEPAU__acrt_ptd@@XZ 1005dc6b f i libucrt:per_thread_data.obj
 0001:0005cd7a       ?is_valid@?$__crt_unique_heap_ptr@U__acrt_ptd@@U__crt_internal_free_policy@@@@QBE_NXZ 1005dd7a f i libucrt:per_thread_data.obj
 0001:0005cd84       ?release@?$__crt_unique_heap_ptr@U__acrt_ptd@@U__crt_internal_free_policy@@@@QAEXXZ 1005dd84 f i libucrt:per_thread_data.obj
 0001:0005ce10       ?value@?$dual_state_global@PAU__crt_locale_data@@@__crt_state_management@@QAEAAPAU__crt_locale_data@@XZ 1005de10 f i libucrt:per_thread_data.obj
 0001:0005ce13       ___acrt_freeptd            1005de13 f   libucrt:per_thread_data.obj
 0001:0005ce4a       ___acrt_getptd             1005de4a f   libucrt:per_thread_data.obj
 0001:0005ceef       ___acrt_getptd_noexit      1005deef f   libucrt:per_thread_data.obj
 0001:0005cf95       ___acrt_initialize_ptd     1005df95 f   libucrt:per_thread_data.obj
 0001:0005cfcc       ___acrt_uninitialize_ptd   1005dfcc f   libucrt:per_thread_data.obj
 0001:0005cfec       ___threadhandle            1005dfec f   libucrt:per_thread_data.obj
 0001:0005cff2       ___threadid                1005dff2 f   libucrt:per_thread_data.obj
 0001:0005cff8       ___acrt_update_locale_info 1005dff8 f   libucrt:locale_update.obj
 0001:0005d030       ___acrt_update_multibyte_info 1005e030 f   libucrt:locale_update.obj
 0001:0005d068       ?__acrt_fp_classify@@YA?AW4__acrt_fp_class@@ABN@Z 1005e068 f i libucrt:cvt.obj
 0001:0005d0ef       ?__acrt_fp_is_negative@@YA_NABN@Z 1005e0ef f i libucrt:cvt.obj
 0001:0005db62       ?strrchr@@YAPADQADH@Z      1005eb62 f i libucrt:cvt.obj
 0001:0005db6f       ___acrt_fp_format          1005eb6f f   libucrt:cvt.obj
 0001:0005dd49       __fputwc_nolock            1005ed49 f   libucrt:fputwc.obj
 0001:0005deb8       __fputwchar                1005eeb8 f   libucrt:fputwc.obj
 0001:0005ded8       __putwc_nolock             1005eed8 f   libucrt:fputwc.obj
 0001:0005dee5       _fputwc                    1005eee5 f   libucrt:fputwc.obj
 0001:0005df7e       _putwc                     1005ef7e f   libucrt:fputwc.obj
 0001:0005df8b       _putwchar                  1005ef8b f   libucrt:fputwc.obj
 0001:0005df98       ?lowio_handle@__crt_stdio_stream@@QBEHXZ 1005ef98 f i libucrt:fileno.obj
 0001:0005df9e       __fileno                   1005ef9e f   libucrt:fileno.obj
 0001:0005dfcd       __fputc_nolock             1005efcd f   libucrt:fputc.obj
 0001:0005e000       __fputchar                 1005f000 f   libucrt:fputc.obj
 0001:0005e020       __putc_nolock              1005f020 f   libucrt:fputc.obj
 0001:0005e02d       _fputc                     1005f02d f   libucrt:fputc.obj
 0001:0005e172       _putc                      1005f172 f   libucrt:fputc.obj
 0001:0005e17f       _putchar                   1005f17f f   libucrt:fputc.obj
 0001:0005e18c       __get_printf_count_output  1005f18c f   libucrt:printf_count_output.obj
 0001:0005e1a6       __set_printf_count_output  1005f1a6 f   libucrt:printf_count_output.obj
 0001:0005e1da       ?has_temporary_buffer@__crt_stdio_stream@@QBE_NXZ 1005f1da f i libucrt:_sftbuf.obj
 0001:0005e1e9       ___acrt_stdio_begin_temporary_buffering_nolock 1005f1e9 f   libucrt:_sftbuf.obj
 0001:0005e2cb       ___acrt_stdio_end_temporary_buffering_nolock 1005f2cb f   libucrt:_sftbuf.obj
 0001:0005e315       ??$?RU__crt_locale_data@@@__crt_internal_free_policy@@QBEXQBU__crt_locale_data@@@Z 1005f315 f i libucrt:wsetlocale.obj
 0001:0005e32b       ??$?RU__crt_locale_pointers@@@__crt_internal_free_policy@@QBEXQBU__crt_locale_pointers@@@Z 1005f32b f i libucrt:wsetlocale.obj
 0001:0005e341       ??$?RU__crt_multibyte_data@@@__crt_internal_free_policy@@QBEXQBU__crt_multibyte_data@@@Z 1005f341 f i libucrt:wsetlocale.obj
 0001:0005e357       ??$?RV<lambda_70818de7b02deff9841e8b0962a60ed9>@@AAV<lambda_2af78c5f5901b1372d98f9ab3177dfa6>@@AAV<lambda_f51fe5fd7c79a33db34fc9310f277369>@@@?$__crt_seh_guarded_call@X@@QAEX$$QAV<lambda_70818de7b02deff9841e8b0962a60ed9>@@AAV<lambda_2af78c5f5901b1372d98f9ab3177dfa6>@@AAV<lambda_f51fe5fd7c79a33db34fc9310f277369>@@@Z 1005f357 f i libucrt:wsetlocale.obj
 0001:0005e3a0       ??$?RV<lambda_76aaead6e312921abc834cb00a638bdd>@@AAV<lambda_176e34f99554166dd2fac165c457248c>@@V<lambda_998ee1c9f4290b119b936bcd6215875a>@@@?$__crt_seh_guarded_call@X@@QAEX$$QAV<lambda_76aaead6e312921abc834cb00a638bdd>@@AAV<lambda_176e34f99554166dd2fac165c457248c>@@$$QAV<lambda_998ee1c9f4290b119b936bcd6215875a>@@@Z 1005f3a0 f i libucrt:wsetlocale.obj
 0001:0005e3fc       ??$?RV<lambda_c76fdea48760d5f9368b465f31df4405>@@AAV<lambda_e378711a6f6581bf7f0efd7cdf97f5d9>@@V<lambda_e927a58b2a85c081d733e8c6192ae2d2>@@@?$__crt_seh_guarded_call@X@@QAEX$$QAV<lambda_c76fdea48760d5f9368b465f31df4405>@@AAV<lambda_e378711a6f6581bf7f0efd7cdf97f5d9>@@$$QAV<lambda_e927a58b2a85c081d733e8c6192ae2d2>@@@Z 1005f3fc f i libucrt:wsetlocale.obj
 0001:0005e44f       ??$?RV<lambda_c9469061b39d205f0f236529d4a41659>@@AAV<lambda_b7fb1a997d3ebc0cc0186c5835178808>@@V<lambda_14b92c79d699846b5cc916cd4cf280e4>@@@?$__crt_seh_guarded_call@X@@QAEX$$QAV<lambda_c9469061b39d205f0f236529d4a41659>@@AAV<lambda_b7fb1a997d3ebc0cc0186c5835178808>@@$$QAV<lambda_14b92c79d699846b5cc916cd4cf280e4>@@@Z 1005f44f f i libucrt:wsetlocale.obj
 0001:0005e4a9       ??$__acrt_lock_and_call@V<lambda_176e34f99554166dd2fac165c457248c>@@@@YAXW4__acrt_lock_id@@$$QAV<lambda_176e34f99554166dd2fac165c457248c>@@@Z 1005f4a9 f i libucrt:wsetlocale.obj
 0001:0005e4db       ??$__acrt_lock_and_call@V<lambda_b7fb1a997d3ebc0cc0186c5835178808>@@@@YAXW4__acrt_lock_id@@$$QAV<lambda_b7fb1a997d3ebc0cc0186c5835178808>@@@Z 1005f4db f i libucrt:wsetlocale.obj
 0001:0005e50d       ??$__acrt_lock_and_call@V<lambda_e378711a6f6581bf7f0efd7cdf97f5d9>@@@@YAXW4__acrt_lock_id@@$$QAV<lambda_e378711a6f6581bf7f0efd7cdf97f5d9>@@@Z 1005f50d f i libucrt:wsetlocale.obj
 0001:0005e53f       ??$__crt_call_and_cleanup@V<lambda_2af78c5f5901b1372d98f9ab3177dfa6>@@V<lambda_f51fe5fd7c79a33db34fc9310f277369>@@@@YAX$$QAV<lambda_2af78c5f5901b1372d98f9ab3177dfa6>@@$$QAV<lambda_f51fe5fd7c79a33db34fc9310f277369>@@@Z 1005f53f f i libucrt:wsetlocale.obj
 0001:0005e562       ??$__vcrt_va_start_verify_argument_type@H@@YAXXZ 1005f562 f i libucrt:wsetlocale.obj
 0001:0005e687       ??0?$__crt_unique_heap_ptr@U__crt_locale_data@@U__crt_internal_free_policy@@@@QAE@QAU__crt_locale_data@@@Z 1005f687 f i libucrt:wsetlocale.obj
 0001:0005e69b       ??0?$__crt_unique_heap_ptr@U__crt_locale_pointers@@U__crt_internal_free_policy@@@@QAE@QAU__crt_locale_pointers@@@Z 1005f69b f i libucrt:wsetlocale.obj
 0001:0005e6af       ??0?$__crt_unique_heap_ptr@U__crt_multibyte_data@@U__crt_internal_free_policy@@@@QAE@QAU__crt_multibyte_data@@@Z 1005f6af f i libucrt:wsetlocale.obj
 0001:0005e6c3       ??1?$__crt_unique_heap_ptr@U__crt_locale_data@@U__crt_internal_free_policy@@@@QAE@XZ 1005f6c3 f i libucrt:wsetlocale.obj
 0001:0005e6d9       ??1?$__crt_unique_heap_ptr@U__crt_locale_pointers@@U__crt_internal_free_policy@@@@QAE@XZ 1005f6d9 f i libucrt:wsetlocale.obj
 0001:0005e6ef       ??1?$__crt_unique_heap_ptr@U__crt_multibyte_data@@U__crt_internal_free_policy@@@@QAE@XZ 1005f6ef f i libucrt:wsetlocale.obj
 0001:0005e705       ??B?$__crt_unique_heap_ptr@U__crt_locale_data@@U__crt_internal_free_policy@@@@QBE_NXZ 1005f705 f i libucrt:wsetlocale.obj
 0001:0005e70f       ??B?$__crt_unique_heap_ptr@U__crt_locale_pointers@@U__crt_internal_free_policy@@@@QBE_NXZ 1005f70f f i libucrt:wsetlocale.obj
 0001:0005e719       ??B?$__crt_unique_heap_ptr@U__crt_multibyte_data@@U__crt_internal_free_policy@@@@QBE_NXZ 1005f719 f i libucrt:wsetlocale.obj
 0001:0005e942       ?detach@?$__crt_unique_heap_ptr@U__crt_locale_data@@U__crt_internal_free_policy@@@@QAEPAU__crt_locale_data@@XZ 1005f942 f i libucrt:wsetlocale.obj
 0001:0005e948       ?detach@?$__crt_unique_heap_ptr@U__crt_locale_pointers@@U__crt_internal_free_policy@@@@QAEPAU__crt_locale_pointers@@XZ 1005f948 f i libucrt:wsetlocale.obj
 0001:0005e94e       ?detach@?$__crt_unique_heap_ptr@U__crt_multibyte_data@@U__crt_internal_free_policy@@@@QAEPAU__crt_multibyte_data@@XZ 1005f94e f i libucrt:wsetlocale.obj
 0001:0005e954       ?get@?$__crt_unique_heap_ptr@U__crt_locale_data@@U__crt_internal_free_policy@@@@QBEPAU__crt_locale_data@@XZ 1005f954 f i libucrt:wsetlocale.obj
 0001:0005e957       ?get@?$__crt_unique_heap_ptr@U__crt_locale_pointers@@U__crt_internal_free_policy@@@@QBEPAU__crt_locale_pointers@@XZ 1005f957 f i libucrt:wsetlocale.obj
 0001:0005e95a       ?get@?$__crt_unique_heap_ptr@U__crt_multibyte_data@@U__crt_internal_free_policy@@@@QBEPAU__crt_multibyte_data@@XZ 1005f95a f i libucrt:wsetlocale.obj
 0001:0005e95d       ?is_valid@?$__crt_unique_heap_ptr@U__crt_locale_data@@U__crt_internal_free_policy@@@@QBE_NXZ 1005f95d f i libucrt:wsetlocale.obj
 0001:0005e967       ?is_valid@?$__crt_unique_heap_ptr@U__crt_locale_pointers@@U__crt_internal_free_policy@@@@QBE_NXZ 1005f967 f i libucrt:wsetlocale.obj
 0001:0005e971       ?is_valid@?$__crt_unique_heap_ptr@U__crt_multibyte_data@@U__crt_internal_free_policy@@@@QBE_NXZ 1005f971 f i libucrt:wsetlocale.obj
 0001:0005e97b       ?release@?$__crt_unique_heap_ptr@U__crt_locale_data@@U__crt_internal_free_policy@@@@QAEXXZ 1005f97b f i libucrt:wsetlocale.obj
 0001:0005e991       ?release@?$__crt_unique_heap_ptr@U__crt_locale_pointers@@U__crt_internal_free_policy@@@@QAEXXZ 1005f991 f i libucrt:wsetlocale.obj
 0001:0005e9a7       ?release@?$__crt_unique_heap_ptr@U__crt_multibyte_data@@U__crt_internal_free_policy@@@@QAEXXZ 1005f9a7 f i libucrt:wsetlocale.obj
 0001:0005e9bd       ___acrt_copy_locale_name   1005f9bd f   libucrt:wsetlocale.obj
 0001:0005ea3c       ___acrt_set_locale_changed 1005fa3c f   libucrt:wsetlocale.obj
 0001:0005ea49       ___acrt_uninitialize_locale 1005fa49 f   libucrt:wsetlocale.obj
 0001:0005eaaf       ___lc_lctowcs              1005faaf f   libucrt:wsetlocale.obj
 0001:0005eb3b       ___lc_wcstolc              1005fb3b f   libucrt:wsetlocale.obj
 0001:0005ecb5       __configthreadlocale       1005fcb5 f   libucrt:wsetlocale.obj
 0001:0005ed69       __create_locale            1005fd69 f   libucrt:wsetlocale.obj
 0001:0005ede6       __expandlocale             1005fde6 f   libucrt:wsetlocale.obj
 0001:0005f23a       __free_locale              1006023a f   libucrt:wsetlocale.obj
 0001:0005f320       __get_current_locale       10060320 f   libucrt:wsetlocale.obj
 0001:0005f3b9       __wcreate_locale           100603b9 f   libucrt:wsetlocale.obj
 0001:0005f504       __wcscats                  10060504 f   libucrt:wsetlocale.obj
 0001:0005f555       __wsetlocale               10060555 f   libucrt:wsetlocale.obj
 0001:0006007b       ___p___mb_cur_max          1006107b f   libucrt:nlsdata.obj
 0001:000600b0       __cintrindisp2             100610b0 f   libucrt:87cdisp.obj
 0001:000600f4       __cintrindisp1             100610f4 f   libucrt:87cdisp.obj
 0001:00060137       __ctrandisp2               10061137 f   libucrt:87cdisp.obj
 0001:000602c6       __ctrandisp1               100612c6 f   libucrt:87cdisp.obj
 0001:000602f9       __fload                    100612f9 f   libucrt:87cdisp.obj
 0001:000603e0       __trandisp1                100613e0 f   libucrt:87disp.obj
 0001:00060447       __trandisp2                10061447 f   libucrt:87disp.obj
 0001:000604d3       __rttospopde               100614d3     libucrt:87disp.obj
 0001:000604d8       __rttospop                 100614d8     libucrt:87disp.obj
 0001:000604da       __rtnospop                 100614da     libucrt:87disp.obj
 0001:000604dc       __rttosnpop                100614dc     libucrt:87disp.obj
 0001:000604dd       __rtnospopde               100614dd     libucrt:87disp.obj
 0001:000604e4       __rtzeropop                100614e4     libucrt:87disp.obj
 0001:000604e6       __rtzeronpop               100614e6     libucrt:87disp.obj
 0001:000604eb       __rtzerospop               100614eb     libucrt:87disp.obj
 0001:000604f8       __rtonepop                 100614f8     libucrt:87disp.obj
 0001:000604fa       __rtonenpop                100614fa     libucrt:87disp.obj
 0001:000604ff       __tosnan1                  100614ff     libucrt:87disp.obj
 0001:0006052a       __nosnan2                  1006152a     libucrt:87disp.obj
 0001:0006052c       __tosnan2                  1006152c     libucrt:87disp.obj
 0001:00060554       __nan2                     10061554     libucrt:87disp.obj
 0001:00060593       __rtindfpop                10061593     libucrt:87disp.obj
 0001:00060595       __rtindfnpop               10061595     libucrt:87disp.obj
 0001:000605a6       __rttosnpopde              100615a6     libucrt:87disp.obj
 0001:000605b0       __rtatan2inf               100615b0     libucrt:87disp.obj
 0001:000605cd       __rtchsifneg               100615cd     libucrt:87disp.obj
 0001:00060651       __realloc_base             10061651 f   libucrt:realloc_base.obj
 0001:000606d4       ___acrt_initialize_locks   100616d4 f   libucrt:locks.obj
 0001:00060725       ___acrt_lock               10061725 f   libucrt:locks.obj
 0001:00060741       ___acrt_uninitialize_locks 10061741 f   libucrt:locks.obj
 0001:0006077e       ___acrt_unlock             1006177e f   libucrt:locks.obj
 0001:0006079a       __lock_locales             1006179a f   libucrt:locks.obj
 0001:000607a5       __unlock_locales           100617a5 f   libucrt:locks.obj
 0001:000607b0       ??$?RV<lambda_123407a5e2ac06da108355a851863b7a>@@AAV<lambda_2fe9b910cf3cbf4a0ab98a02ba45b3ec>@@V<lambda_ae55bdf541ad94d75914d381c370e64d>@@@?$__crt_seh_guarded_call@H@@QAEH$$QAV<lambda_123407a5e2ac06da108355a851863b7a>@@AAV<lambda_2fe9b910cf3cbf4a0ab98a02ba45b3ec>@@$$QAV<lambda_ae55bdf541ad94d75914d381c370e64d>@@@Z 100617b0 f i libucrt:close.obj
 0001:00060852       ??$__acrt_lowio_lock_fh_and_call@V<lambda_2fe9b910cf3cbf4a0ab98a02ba45b3ec>@@@@YAHH$$QAV<lambda_2fe9b910cf3cbf4a0ab98a02ba45b3ec>@@@Z 10061852 f i libucrt:close.obj
 0001:000609a5       __close                    100619a5 f   libucrt:close.obj
 0001:00060a43       __close_nolock             10061a43 f   libucrt:close.obj
 0001:00060b06       ??$?RU__crt_stdio_stream_data@@@__crt_internal_free_policy@@QBEXQBU__crt_stdio_stream_data@@@Z 10061b06 f i libucrt:stream.obj
 0001:00060b1c       ??0?$__crt_unique_heap_ptr@U__crt_stdio_stream_data@@U__crt_internal_free_policy@@@@QAE@QAU__crt_stdio_stream_data@@@Z 10061b1c f i libucrt:stream.obj
 0001:00060b30       ??0__crt_stdio_stream@@QAE@XZ 10061b30 f i libucrt:stream.obj
 0001:00060b36       ??1?$__crt_unique_heap_ptr@U__crt_stdio_stream_data@@U__crt_internal_free_policy@@@@QAE@XZ 10061b36 f i libucrt:stream.obj
 0001:00060b4c       ?__acrt_stdio_allocate_stream@@YA?AV__crt_stdio_stream@@XZ 10061b4c f   libucrt:stream.obj
 0001:00060bc2       ?__acrt_stdio_free_stream@@YAXV__crt_stdio_stream@@@Z 10061bc2 f   libucrt:stream.obj
 0001:00060c0b       ?deallocate@__crt_stdio_stream@@QAEXXZ 10061c0b f i libucrt:stream.obj
 0001:00060c17       ?detach@?$__crt_unique_heap_ptr@U__crt_stdio_stream_data@@U__crt_internal_free_policy@@@@QAEPAU__crt_stdio_stream_data@@XZ 10061c17 f i libucrt:stream.obj
 0001:00060d10       ?lock@__crt_stdio_stream@@QBEXXZ 10061d10 f i libucrt:stream.obj
 0001:00060d1b       ?release@?$__crt_unique_heap_ptr@U__crt_stdio_stream_data@@U__crt_internal_free_policy@@@@QAEXXZ 10061d1b f i libucrt:stream.obj
 0001:00060d31       ?try_allocate@__crt_stdio_stream@@QAE_NXZ 10061d31 f i libucrt:stream.obj
 0001:00060d5a       ??$__acrt_stdio_parse_mode@D@@YA?AU__acrt_stdio_stream_mode@@QBD@Z 10061d5a f i libucrt:openfile.obj
 0001:00061018       ??$__acrt_stdio_parse_mode@_W@@YA?AU__acrt_stdio_stream_mode@@QB_W@Z 10062018 f i libucrt:openfile.obj
 0001:00061439       ??$tcsncmp@AAPBDAAY02$$CBDI@?$__crt_char_traits@D@@SAHAAPBDAAY02$$CBD$$QAI@Z 10062439 f i libucrt:openfile.obj
 0001:0006145c       ??$tcsncmp@AAPB_WAAY02$$CB_WI@?$__crt_char_traits@_W@@SAHAAPB_WAAY02$$CB_W$$QAI@Z 1006245c f i libucrt:openfile.obj
 0001:0006147f       ??$tcsnicmp@AAPBDAAY04$$CBDI@?$__crt_char_traits@D@@SAHAAPBDAAY04$$CBD$$QAI@Z 1006247f f i libucrt:openfile.obj
 0001:000614a2       ??$tcsnicmp@AAPBDAAY06$$CBDI@?$__crt_char_traits@D@@SAHAAPBDAAY06$$CBD$$QAI@Z 100624a2 f i libucrt:openfile.obj
 0001:000614c5       ??$tcsnicmp@AAPBDAAY07$$CBDI@?$__crt_char_traits@D@@SAHAAPBDAAY07$$CBD$$QAI@Z 100624c5 f i libucrt:openfile.obj
 0001:000614e8       ??$tcsnicmp@AAPB_WAAY04$$CB_WI@?$__crt_char_traits@_W@@SAHAAPB_WAAY04$$CB_W$$QAI@Z 100624e8 f i libucrt:openfile.obj
 0001:0006150b       ??$tcsnicmp@AAPB_WAAY06$$CB_WI@?$__crt_char_traits@_W@@SAHAAPB_WAAY06$$CB_W$$QAI@Z 1006250b f i libucrt:openfile.obj
 0001:0006152e       ??$tcsnicmp@AAPB_WAAY07$$CB_WI@?$__crt_char_traits@_W@@SAHAAPB_WAAY07$$CB_W$$QAI@Z 1006252e f i libucrt:openfile.obj
 0001:00061551       ??$tsopen_s@PAHABQBDABHABHH@?$__crt_char_traits@D@@SAH$$QAPAHABQBDABH2$$QAH@Z 10062551 f i libucrt:openfile.obj
 0001:00061583       ??$tsopen_s@PAHABQB_WABHABHH@?$__crt_char_traits@_W@@SAH$$QAPAHABQB_WABH2$$QAH@Z 10062583 f i libucrt:openfile.obj
 0001:000615b5       ?__acrt_stdio_parse_mode_D@@YA_NAAU__acrt_stdio_stream_mode@@@Z 100625b5 f i libucrt:openfile.obj
 0001:000615d6       ?__acrt_stdio_parse_mode_N@@YA_NAAU__acrt_stdio_stream_mode@@@Z 100625d6 f i libucrt:openfile.obj
 0001:000615ec       ?__acrt_stdio_parse_mode_R@@YA_NAAU__acrt_stdio_stream_mode@@AA_N@Z 100625ec f i libucrt:openfile.obj
 0001:00061611       ?__acrt_stdio_parse_mode_S@@YA_NAAU__acrt_stdio_stream_mode@@AA_N@Z 10062611 f i libucrt:openfile.obj
 0001:00061636       ?__acrt_stdio_parse_mode_T@@YA_NAAU__acrt_stdio_stream_mode@@@Z 10062636 f i libucrt:openfile.obj
 0001:0006165c       ?__acrt_stdio_parse_mode_b@@YA_NAAU__acrt_stdio_stream_mode@@@Z 1006265c f i libucrt:openfile.obj
 0001:00061684       ?__acrt_stdio_parse_mode_c@@YA_NAAU__acrt_stdio_stream_mode@@AA_N@Z 10062684 f i libucrt:openfile.obj
 0001:000616ae       ?__acrt_stdio_parse_mode_n@@YA_NAAU__acrt_stdio_stream_mode@@AA_N@Z 100626ae f i libucrt:openfile.obj
 0001:000616d8       ?__acrt_stdio_parse_mode_plus@@YA_NAAU__acrt_stdio_stream_mode@@AA_N@Z 100626d8 f i libucrt:openfile.obj
 0001:0006171a       ?__acrt_stdio_parse_mode_t@@YA_NAAU__acrt_stdio_stream_mode@@@Z 1006271a f i libucrt:openfile.obj
 0001:00061742       __openfile                 10062742 f   libucrt:openfile.obj
 0001:0006174f       __wopenfile                1006274f f   libucrt:openfile.obj
 0001:00061df4       __read                     10062df4 f   libucrt:read.obj
 0001:00061f4b       __read_nolock              10062f4b f   libucrt:read.obj
 0001:000628e3       ___acrt_stdio_refill_and_read_narrow_nolock 100638e3 f   libucrt:_filbuf.obj
 0001:000628f0       ___acrt_stdio_refill_and_read_wide_nolock 100638f0 f   libucrt:_filbuf.obj
 0001:0006304f       __write                    1006404f f   libucrt:write.obj
 0001:00063174       __write_nolock             10064174 f   libucrt:write.obj
 0001:000638ba       ___acrt_stdio_flush_and_write_narrow_nolock 100648ba f   libucrt:_flsbuf.obj
 0001:000638c7       ___acrt_stdio_flush_and_write_wide_nolock 100648c7 f   libucrt:_flsbuf.obj
 0001:000638d4       ___acrt_copy_path_to_wide_string 100648d4 f   libucrt:string_utilities.obj
 0001:000639cc       ___acrt_copy_to_char       100649cc f   libucrt:string_utilities.obj
 0001:00063ab7       __wremove                  10064ab7 f   libucrt:wunlink.obj
 0001:00063ae9       __wunlink                  10064ae9 f   libucrt:wunlink.obj
 0001:00063f5d       __lseek                    10064f5d f   libucrt:lseek.obj
 0001:00063f6a       __lseek_nolock             10064f6a f   libucrt:lseek.obj
 0001:00063f77       __lseeki64                 10064f77 f   libucrt:lseek.obj
 0001:00063f98       __lseeki64_nolock          10064f98 f   libucrt:lseek.obj
 0001:00063fb9       __chgsign                  10064fb9 f   libucrt:ieeemisc.obj
 0001:00063ff3       __chgsignf                 10064ff3 f   libucrt:ieeemisc.obj
 0001:0006401e       __copysign                 1006501e f   libucrt:ieeemisc.obj
 0001:00064052       __copysignf                10065052 f   libucrt:ieeemisc.obj
 0001:00064077       __finite                   10065077 f   libucrt:ieeemisc.obj
 0001:00064097       __fpclass                  10065097 f   libucrt:ieeemisc.obj
 0001:00064164       __isnan                    10065164 f   libucrt:ieeemisc.obj
 0001:000641a7       __logb                     100651a7 f   libucrt:ieeemisc.obj
 0001:000642ac       __nextafter                100652ac f   libucrt:ieeemisc.obj
 0001:000642d2       __scalb                    100652d2 f   libucrt:ieeemisc.obj
 0001:000642f2       __add_exp                  100652f2 f   libucrt:util.obj
 0001:0006432c       __decomp                   1006532c f   libucrt:util.obj
 0001:00064435       __get_exp                  10065435 f   libucrt:util.obj
 0001:00064454       __set_bexp                 10065454 f   libucrt:util.obj
 0001:00064487       __set_exp                  10065487 f   libucrt:util.obj
 0001:000644c1       __sptype                   100654c1 f   libucrt:util.obj
 0001:00064536       ___clrfp_sse2              10065536 f   libucrt:fpctrl.obj
 0001:0006455f       ___ctrlfp_sse2             1006555f f   libucrt:fpctrl.obj
 0001:000645a8       ___fclrf_sse2              100655a8 f   libucrt:fpctrl.obj
 0001:000645ce       ___get_fpsr_sse2           100655ce f   libucrt:fpctrl.obj
 0001:000645f3       ___set_fpsr_sse2           100655f3 f   libucrt:fpctrl.obj
 0001:00064686       ___set_statfp_sse2         10065686 f   libucrt:fpctrl.obj
 0001:000646a7       ___statfp_sse2             100656a7 f   libucrt:fpctrl.obj
 0001:000646c1       __clrfp                    100656c1 f   libucrt:fpctrl.obj
 0001:000646d8       __ctrlfp                   100656d8 f   libucrt:fpctrl.obj
 0001:0006470f       __set_statfp               1006570f f   libucrt:fpctrl.obj
 0001:00064780       __statfp                   10065780 f   libucrt:fpctrl.obj
 0001:0006485d       ___acrt_report_runtime_error 1006585d f   libucrt:report_runtime_error.obj
 0001:000649c3       __query_app_type           100659c3 f   libucrt:report_runtime_error.obj
 0001:000649c9       __set_app_type             100659c9 f   libucrt:report_runtime_error.obj
 0001:00064eb5       __i64toa                   10065eb5 f   libucrt:xtoa.obj
 0001:00064f08       __i64toa_s                 10065f08 f   libucrt:xtoa.obj
 0001:00064f59       __i64tow                   10065f59 f   libucrt:xtoa.obj
 0001:00064fac       __i64tow_s                 10065fac f   libucrt:xtoa.obj
 0001:00064ffd       __itoa                     10065ffd f   libucrt:xtoa.obj
 0001:00065041       __itoa_s                   10066041 f   libucrt:xtoa.obj
 0001:00065083       __itow                     10066083 f   libucrt:xtoa.obj
 0001:000650c7       __itow_s                   100660c7 f   libucrt:xtoa.obj
 0001:00065109       __ltoa                     10066109 f   libucrt:xtoa.obj
 0001:0006514d       __ltoa_s                   1006614d f   libucrt:xtoa.obj
 0001:0006518f       __ltow                     1006618f f   libucrt:xtoa.obj
 0001:000651d3       __ltow_s                   100661d3 f   libucrt:xtoa.obj
 0001:00065215       __ui64toa                  10066215 f   libucrt:xtoa.obj
 0001:0006523f       __ui64toa_s                1006623f f   libucrt:xtoa.obj
 0001:00065267       __ui64tow                  10066267 f   libucrt:xtoa.obj
 0001:00065291       __ui64tow_s                10066291 f   libucrt:xtoa.obj
 0001:000652b9       __ultoa                    100662b9 f   libucrt:xtoa.obj
 0001:000652df       __ultoa_s                  100662df f   libucrt:xtoa.obj
 0001:00065303       __ultow                    10066303 f   libucrt:xtoa.obj
 0001:00065329       __ultow_s                  10066329 f   libucrt:xtoa.obj
 0001:0006534d       __set_error_mode           1006634d f   libucrt:set_error_mode.obj
 0001:00065429       _wcscat_s                  10066429 f   libucrt:wcscat_s.obj
 0001:00065533       _wcscpy_s                  10066533 f   libucrt:wcscpy_s.obj
 0001:000656d3       _wcsncat_s                 100666d3 f   libucrt:wcsncat_s.obj
 0001:00065763       _strcat_s                  10066763 f   libucrt:strcat_s.obj
 0001:000658ea       _strncat_s                 100668ea f   libucrt:strncat_s.obj
 0001:00065b15       ??$message_box@$$TAAPBDAAPBDAAI@?$__crt_char_traits@D@@SAH$$QA$$TAAPBD1AAI@Z 10066b15 f i libucrt:crtmbox.obj
 0001:00065b3d       ??$message_box@$$TAAPB_WAAPB_WAAI@?$__crt_char_traits@_W@@SAH$$QA$$TAAPB_W1AAI@Z 10066b3d f i libucrt:crtmbox.obj
 0001:00065b65       ??$message_box@$$TABQBDABQBDK@?$__crt_char_traits@D@@SAH$$QA$$TABQBD1$$QAK@Z 10066b65 f i libucrt:crtmbox.obj
 0001:00065b8d       ??$message_box@$$TABQB_WABQB_WK@?$__crt_char_traits@_W@@SAH$$QA$$TABQB_W1$$QAK@Z 10066b8d f i libucrt:crtmbox.obj
 0001:00065bb5       ??$message_box@PAUHWND__@@ABQBDABQBDABI@?$__crt_char_traits@D@@SAH$$QAPAUHWND__@@ABQBD1ABI@Z 10066bb5 f i libucrt:crtmbox.obj
 0001:00065bdd       ??$message_box@PAUHWND__@@ABQB_WABQB_WABI@?$__crt_char_traits@_W@@SAH$$QAPAUHWND__@@ABQB_W1ABI@Z 10066bdd f i libucrt:crtmbox.obj
 0001:00065c59       ??$output_debug_string@ABQBD@?$__crt_char_traits@D@@SAXABQBD@Z 10066c59 f i libucrt:crtmbox.obj
 0001:00065c6f       ??$output_debug_string@ABQB_W@?$__crt_char_traits@_W@@SAXABQB_W@Z 10066c6f f i libucrt:crtmbox.obj
 0001:00065c85       ??0?$__crt_unique_handle_t@U__crt_handle_traits@@@@QAE@QAX@Z 10066c85 f i libucrt:crtmbox.obj
 0001:00065c99       ??1?$__crt_unique_handle_t@U__crt_handle_traits@@@@QAE@XZ 10066c99 f i libucrt:crtmbox.obj
 0001:00065cb5       ??B?$__crt_unique_handle_t@U__crt_handle_traits@@@@QBE_NXZ 10066cb5 f i libucrt:crtmbox.obj
 0001:00065cc0       ?close@?$__crt_unique_handle_t@U__crt_handle_traits@@@@QAEXXZ 10066cc0 f i libucrt:crtmbox.obj
 0001:00065cdc       ?close@__crt_handle_traits@@SA_NPAX@Z 10066cdc f i libucrt:crtmbox.obj
 0001:00065cf7       ?get@?$__crt_unique_handle_t@U__crt_handle_traits@@@@QBEPAXXZ 10066cf7 f i libucrt:crtmbox.obj
 0001:00065cfa       ?get_invalid_value@__crt_handle_traits@@SAPAXXZ 10066cfa f i libucrt:crtmbox.obj
 0001:00065cfe       ?is_valid@?$__crt_unique_handle_t@U__crt_handle_traits@@@@QBE_NXZ 10066cfe f i libucrt:crtmbox.obj
 0001:00065d09       ___acrt_show_narrow_message_box 10066d09 f   libucrt:crtmbox.obj
 0001:00065d16       ___acrt_show_wide_message_box 10066d16 f   libucrt:crtmbox.obj
 0001:00065d23       ??$?RV<lambda_d92cfe8357b99225085016881b624cb0>@@AAV<lambda_b721fa326cdb32351d23dfa67958c160>@@V<lambda_42d75b0848218ec137fa420c8ba9fdf9>@@@?$__crt_seh_guarded_call@H@@QAEH$$QAV<lambda_d92cfe8357b99225085016881b624cb0>@@AAV<lambda_b721fa326cdb32351d23dfa67958c160>@@$$QAV<lambda_42d75b0848218ec137fa420c8ba9fdf9>@@@Z 10066d23 f i libucrt:setvbuf.obj
 0001:00065d88       ??$__acrt_lock_stream_and_call@V<lambda_b721fa326cdb32351d23dfa67958c160>@@@@YAHQAU_iobuf@@$$QAV<lambda_b721fa326cdb32351d23dfa67958c160>@@@Z 10066d88 f i libucrt:setvbuf.obj
 0001:00065f25       _setvbuf                   10066f25 f   libucrt:setvbuf.obj
 0001:00065fb8       ??$?B$$A6AXH@Z@__crt_fast_encoded_nullptr_t@@QBEP6AXH@ZXZ 10066fb8 f i libucrt:signal.obj
 0001:00065fd6       ??$?RV<lambda_a048d3beccc847880fc8490e18b82769>@@AAV<lambda_ec61778202f4f5fc7e7711acc23c3bca>@@V<lambda_f7496a158712204296dd6628a163878e>@@@?$__crt_seh_guarded_call@P6AXH@Z@@QAEP6AXH@Z$$QAV<lambda_a048d3beccc847880fc8490e18b82769>@@AAV<lambda_ec61778202f4f5fc7e7711acc23c3bca>@@$$QAV<lambda_f7496a158712204296dd6628a163878e>@@@Z 10066fd6 f i libucrt:signal.obj
 0001:00066046       ??$__acrt_lock_and_call@V<lambda_ec61778202f4f5fc7e7711acc23c3bca>@@@@YAP6AXH@ZW4__acrt_lock_id@@$$QAV<lambda_ec61778202f4f5fc7e7711acc23c3bca>@@@Z 10067046 f i libucrt:signal.obj
 0001:00066078       ??$__crt_fast_decode_pointer@P6AXH@Z@@YAP6AXH@ZQ6AXH@Z@Z 10067078 f i libucrt:signal.obj
 0001:00066093       ??$__crt_fast_encode_pointer@P6AXH@Z@@YAP6AXH@ZQ6AXH@Z@Z 10067093 f i libucrt:signal.obj
 0001:0006623d       ?initialize@?$dual_state_global@P6AXH@Z@__crt_state_management@@QAEXQ6AXH@Z@Z 1006723d f i libucrt:signal.obj
 0001:000662e9       ?value@?$dual_state_global@P6AXH@Z@__crt_state_management@@QAEAAP6AXH@ZXZ 100672e9 f i libucrt:signal.obj
 0001:000662ec       ___acrt_get_sigabrt_handler 100672ec f   libucrt:signal.obj
 0001:00066308       ___acrt_initialize_signal_handlers 10067308 f   libucrt:signal.obj
 0001:00066351       ___fpecode                 10067351 f   libucrt:signal.obj
 0001:0006635c       ___pxcptinfoptrs           1006735c f   libucrt:signal.obj
 0001:00066367       _raise                     10067367 f   libucrt:signal.obj
 0001:000665f1       _signal                    100675f1 f   libucrt:signal.obj
 0001:0006680f       ??$__crt_fast_decode_pointer@P6AHPAU_exception@@@Z@@YAP6AHPAU_exception@@@ZQ6AH0@Z@Z 1006780f f i libucrt:matherr.obj
 0001:0006682a       ??$__crt_fast_encode_pointer@P6AHPAU_exception@@@Z@@YAP6AHPAU_exception@@@ZQ6AH0@Z@Z 1006782a f i libucrt:matherr.obj
 0001:00066850       ?initialize@?$dual_state_global@P6AHPAU_exception@@@Z@__crt_state_management@@QAEXQ6AHPAU_exception@@@Z@Z 10067850 f i libucrt:matherr.obj
 0001:0006688d       ?value@?$dual_state_global@P6AHPAU_exception@@@Z@__crt_state_management@@QAEAAP6AHPAU_exception@@@ZXZ 1006788d f i libucrt:matherr.obj
 0001:00066890       ___acrt_has_user_matherr   10067890 f   libucrt:matherr.obj
 0001:000668af       ___acrt_initialize_user_matherr 100678af f   libucrt:matherr.obj
 0001:000668c8       ___acrt_invoke_user_matherr 100678c8 f   libucrt:matherr.obj
 0001:00066923       ___setusermatherr          10067923 f   libucrt:matherr.obj
 0001:00067335       ??$find_first_file_ex@ABQADW4_FINDEX_INFO_LEVELS@@PAU_WIN32_FIND_DATAA@@W4_FINDEX_SEARCH_OPS@@$$TH@?$__crt_char_traits@D@@SAPAXABQAD$$QAW4_FINDEX_INFO_LEVELS@@$$QAPAU_WIN32_FIND_DATAA@@$$QAW4_FINDEX_SEARCH_OPS@@$$QA$$T$$QAH@Z 10068335 f i libucrt:argv_wildcards.obj
 0001:0006736a       ??$find_first_file_ex@ABQA_WW4_FINDEX_INFO_LEVELS@@PAU_WIN32_FIND_DATAW@@W4_FINDEX_SEARCH_OPS@@$$TH@?$__crt_char_traits@_W@@SAPAXABQA_W$$QAW4_FINDEX_INFO_LEVELS@@$$QAPAU_WIN32_FIND_DATAW@@$$QAW4_FINDEX_SEARCH_OPS@@$$QA$$T$$QAH@Z 1006836a f i libucrt:argv_wildcards.obj
 0001:0006739f       ??$find_next_file@PAXPAU_WIN32_FIND_DATAA@@@?$__crt_char_traits@D@@SAH$$QAPAX$$QAPAU_WIN32_FIND_DATAA@@@Z 1006839f f i libucrt:argv_wildcards.obj
 0001:000673bb       ??$find_next_file@PAXPAU_WIN32_FIND_DATAW@@@?$__crt_char_traits@_W@@SAH$$QAPAX$$QAPAU_WIN32_FIND_DATAW@@@Z 100683bb f i libucrt:argv_wildcards.obj
 0001:000673d7       ??$tcsncpy_s@AAPADIAAPADABI@?$__crt_char_traits@D@@SAHAAPAD$$QAI0ABI@Z 100683d7 f i libucrt:argv_wildcards.obj
 0001:00067402       ??$tcsncpy_s@AAPA_WIAAPA_WABI@?$__crt_char_traits@_W@@SAHAAPA_W$$QAI0ABI@Z 10068402 f i libucrt:argv_wildcards.obj
 0001:0006742d       ??$tcsncpy_s@PAD$$CBIABQBDABI@?$__crt_char_traits@D@@SAH$$QAPAD$$QBIABQBDABI@Z 1006842d f i libucrt:argv_wildcards.obj
 0001:00067458       ??$tcsncpy_s@PADABIABQBDABI@?$__crt_char_traits@D@@SAH$$QAPADABIABQBD1@Z 10068458 f i libucrt:argv_wildcards.obj
 0001:00067483       ??$tcsncpy_s@PA_W$$CBIABQB_WABI@?$__crt_char_traits@_W@@SAH$$QAPA_W$$QBIABQB_WABI@Z 10068483 f i libucrt:argv_wildcards.obj
 0001:000674ae       ??$tcsncpy_s@PA_WABIABQB_WABI@?$__crt_char_traits@_W@@SAH$$QAPA_WABIABQB_W1@Z 100684ae f i libucrt:argv_wildcards.obj
 0001:000674d9       ??$tcspbrk@AAPADAAY02$$CBD@?$__crt_char_traits@D@@SAPADAAPADAAY02$$CBD@Z 100684d9 f i libucrt:argv_wildcards.obj
 0001:000674f4       ??$tcspbrk@AAPA_WAAY02$$CB_W@?$__crt_char_traits@_W@@SAPA_WAAPA_WAAY02$$CB_W@Z 100684f4 f i libucrt:argv_wildcards.obj
 0001:0006750f       ??0?$__crt_unique_handle_t@U__crt_findfile_traits@@@@QAE@QAX@Z 1006850f f i libucrt:argv_wildcards.obj
 0001:00067523       ??0?$argument_list@D@?A0xb0e4b824@@QAE@XZ 10068523 f i libucrt:argv_wildcards.obj
 0001:00067533       ??0?$argument_list@_W@?A0xb0e4b824@@QAE@XZ 10068533 f i libucrt:argv_wildcards.obj
 0001:00067543       ??1?$__crt_unique_handle_t@U__crt_findfile_traits@@@@QAE@XZ 10068543 f i libucrt:argv_wildcards.obj
 0001:0006755f       ??1?$argument_list@D@?A0xb0e4b824@@QAE@XZ 1006855f f i libucrt:argv_wildcards.obj
 0001:0006758d       ??1?$argument_list@_W@?A0xb0e4b824@@QAE@XZ 1006858d f i libucrt:argv_wildcards.obj
 0001:0006761b       ?append@?$argument_list@D@?A0xb0e4b824@@QAEHQAD@Z 1006861b f i libucrt:argv_wildcards.obj
 0001:0006765d       ?append@?$argument_list@_W@?A0xb0e4b824@@QAEHQA_W@Z 1006865d f i libucrt:argv_wildcards.obj
 0001:0006769f       ?begin@?$argument_list@D@?A0xb0e4b824@@QBEPAPADXZ 1006869f f i libucrt:argv_wildcards.obj
 0001:000676a2       ?begin@?$argument_list@_W@?A0xb0e4b824@@QBEPAPA_WXZ 100686a2 f i libucrt:argv_wildcards.obj
 0001:000676a5       ?close@?$__crt_unique_handle_t@U__crt_findfile_traits@@@@QAEXXZ 100686a5 f i libucrt:argv_wildcards.obj
 0001:000676c1       ?close@__crt_findfile_traits@@SA_NPAX@Z 100686c1 f i libucrt:argv_wildcards.obj
 0001:000676dc       ?end@?$argument_list@D@?A0xb0e4b824@@QBEPAPADXZ 100686dc f i libucrt:argv_wildcards.obj
 0001:000676e0       ?end@?$argument_list@_W@?A0xb0e4b824@@QBEPAPA_WXZ 100686e0 f i libucrt:argv_wildcards.obj
 0001:000676e4       ?expand_if_necessary@?$argument_list@D@?A0xb0e4b824@@AAEHXZ 100686e4 f i libucrt:argv_wildcards.obj
 0001:0006778c       ?expand_if_necessary@?$argument_list@_W@?A0xb0e4b824@@AAEHXZ 1006878c f i libucrt:argv_wildcards.obj
 0001:00067834       ?get@?$__crt_unique_handle_t@U__crt_findfile_traits@@@@QBEPAXXZ 10068834 f i libucrt:argv_wildcards.obj
 0001:00067837       ?get_invalid_value@__crt_findfile_traits@@SAPAXXZ 10068837 f i libucrt:argv_wildcards.obj
 0001:00067858       ?size@?$argument_list@D@?A0xb0e4b824@@QBEIXZ 10068858 f i libucrt:argv_wildcards.obj
 0001:00067863       ?size@?$argument_list@_W@?A0xb0e4b824@@QBEIXZ 10068863 f i libucrt:argv_wildcards.obj
 0001:0006786e       ?strpbrk@@YAPADQADQBD@Z    1006886e f i libucrt:argv_wildcards.obj
 0001:0006787b       ?wcspbrk@@YAPA_WPA_WPB_W@Z 1006887b f i libucrt:argv_wildcards.obj
 0001:00067888       ___acrt_expand_narrow_argv_wildcards 10068888 f   libucrt:argv_wildcards.obj
 0001:00067895       ___acrt_expand_wide_argv_wildcards 10068895 f   libucrt:argv_wildcards.obj
 0001:000678a2       ??$?RV<lambda_978dc153c237d78434369da87b74ff60>@@AAV<lambda_ad1ced32f4ac17aa236e5ef05d6b3b7c>@@V<lambda_4a8533e2866a575feecb8298ce776b0d>@@@?$__crt_seh_guarded_call@X@@QAEX$$QAV<lambda_978dc153c237d78434369da87b74ff60>@@AAV<lambda_ad1ced32f4ac17aa236e5ef05d6b3b7c>@@$$QAV<lambda_4a8533e2866a575feecb8298ce776b0d>@@@Z 100688a2 f i libucrt:mbctype.obj
 0001:000678f5       ??$__acrt_lock_and_call@V<lambda_ad1ced32f4ac17aa236e5ef05d6b3b7c>@@@@YAXW4__acrt_lock_id@@$$QAV<lambda_ad1ced32f4ac17aa236e5ef05d6b3b7c>@@@Z 100688f5 f i libucrt:mbctype.obj
 0001:00067f06       ___acrt_initialize_multibyte 10068f06 f   libucrt:mbctype.obj
 0001:00067f2b       ___acrt_update_thread_multibyte_data 10068f2b f   libucrt:mbctype.obj
 0001:00067ff5       ___p__mbcasemap            10068ff5 f   libucrt:mbctype.obj
 0001:00067ffb       ___p__mbctype              10068ffb f   libucrt:mbctype.obj
 0001:00068001       __getmbcp                  10069001 f   libucrt:mbctype.obj
 0001:00068044       __setmbcp                  10069044 f   libucrt:mbctype.obj
 0001:0006805b       __setmbcp_nolock           1006905b f   libucrt:mbctype.obj
 0001:000683d8       __ismbbalnum               100693d8 f   libucrt:ismbbyte.obj
 0001:000683f9       __ismbbalnum_l             100693f9 f   libucrt:ismbbyte.obj
 0001:0006841c       __ismbbalpha               1006941c f   libucrt:ismbbyte.obj
 0001:0006843d       __ismbbalpha_l             1006943d f   libucrt:ismbbyte.obj
 0001:00068460       __ismbbblank               10069460 f   libucrt:ismbbyte.obj
 0001:0006848b       __ismbbblank_l             1006948b f   libucrt:ismbbyte.obj
 0001:000684b8       __ismbbgraph               100694b8 f   libucrt:ismbbyte.obj
 0001:000684d9       __ismbbgraph_l             100694d9 f   libucrt:ismbbyte.obj
 0001:000684fc       __ismbbkalnum              100694fc f   libucrt:ismbbyte.obj
 0001:0006851a       __ismbbkalnum_l            1006951a f   libucrt:ismbbyte.obj
 0001:00068539       __ismbbkana                10069539 f   libucrt:ismbbyte.obj
 0001:00068550       __ismbbkana_l              10069550 f   libucrt:ismbbyte.obj
 0001:000685b5       __ismbbkprint              100695b5 f   libucrt:ismbbyte.obj
 0001:000685d3       __ismbbkprint_l            100695d3 f   libucrt:ismbbyte.obj
 0001:000685f2       __ismbbkpunct              100695f2 f   libucrt:ismbbyte.obj
 0001:00068610       __ismbbkpunct_l            10069610 f   libucrt:ismbbyte.obj
 0001:0006862f       __ismbblead                1006962f f   libucrt:ismbbyte.obj
 0001:0006864d       __ismbblead_l              1006964d f   libucrt:ismbbyte.obj
 0001:0006866c       __ismbbprint               1006966c f   libucrt:ismbbyte.obj
 0001:0006868d       __ismbbprint_l             1006968d f   libucrt:ismbbyte.obj
 0001:000686b0       __ismbbpunct               100696b0 f   libucrt:ismbbyte.obj
 0001:000686ce       __ismbbpunct_l             100696ce f   libucrt:ismbbyte.obj
 0001:000686ed       __ismbbtrail               100696ed f   libucrt:ismbbyte.obj
 0001:0006870b       __ismbbtrail_l             1006970b f   libucrt:ismbbyte.obj
 0001:0006872a       ___acrt_initialize_command_line 1006972a f   libucrt:argv_data.obj
 0001:00068749       ___acrt_uninitialize_command_line 10069749 f   libucrt:argv_data.obj
 0001:0006874c       ___p___argc                1006974c f   libucrt:argv_data.obj
 0001:00068752       ___p___argv                10069752 f   libucrt:argv_data.obj
 0001:00068758       ___p___wargv               10069758 f   libucrt:argv_data.obj
 0001:0006875e       ___p__acmdln               1006975e f   libucrt:argv_data.obj
 0001:00068764       ___p__pgmptr               10069764 f   libucrt:argv_data.obj
 0001:0006876a       ___p__wcmdln               1006976a f   libucrt:argv_data.obj
 0001:00068770       ___p__wpgmptr              10069770 f   libucrt:argv_data.obj
 0001:00068776       __get_pgmptr               10069776 f   libucrt:argv_data.obj
 0001:000687b3       __get_wpgmptr              100697b3 f   libucrt:argv_data.obj
 0001:000687f0       ??0?$__crt_unique_handle_t@Uenvironment_strings_traits@?A0x588e5281@@@@QAE@QA_W@Z 100697f0 f i libucrt:get_environment_from_os.obj
 0001:00068804       ??1?$__crt_unique_handle_t@Uenvironment_strings_traits@?A0x588e5281@@@@QAE@XZ 10069804 f i libucrt:get_environment_from_os.obj
 0001:00068820       ??B?$__crt_unique_handle_t@Uenvironment_strings_traits@?A0x588e5281@@@@QBE_NXZ 10069820 f i libucrt:get_environment_from_os.obj
 0001:0006882a       ?close@?$__crt_unique_handle_t@Uenvironment_strings_traits@?A0x588e5281@@@@QAEXXZ 1006982a f i libucrt:get_environment_from_os.obj
 0001:00068846       ?close@environment_strings_traits@?A0x588e5281@@SA_NPA_W@Z 10069846 f i libucrt:get_environment_from_os.obj
 0001:000688a0       ?get@?$__crt_unique_handle_t@Uenvironment_strings_traits@?A0x588e5281@@@@QBEPA_WXZ 100698a0 f i libucrt:get_environment_from_os.obj
 0001:000688a3       ?get_invalid_value@environment_strings_traits@?A0x588e5281@@SAPA_WXZ 100698a3 f i libucrt:get_environment_from_os.obj
 0001:000688a6       ?is_valid@?$__crt_unique_handle_t@Uenvironment_strings_traits@?A0x588e5281@@@@QBE_NXZ 100698a6 f i libucrt:get_environment_from_os.obj
 0001:000688b0       ___dcrt_get_narrow_environment_from_os 100698b0 f   libucrt:get_environment_from_os.obj
 0001:00068953       ___dcrt_get_wide_environment_from_os 10069953 f   libucrt:get_environment_from_os.obj
 0001:000691eb       ??$get_or_create_environment_nolock@$$$V@?$__crt_char_traits@D@@SAPAPADXZ 1006a1eb f i libucrt:setenv.obj
 0001:000691f0       ??$get_or_create_environment_nolock@$$$V@?$__crt_char_traits@_W@@SAPAPA_WXZ 1006a1f0 f i libucrt:setenv.obj
 0001:000691f5       ??$set_environment_variable@ABQADQAD@?$__crt_char_traits@D@@SAHABQAD$$QBQAD@Z 1006a1f5 f i libucrt:setenv.obj
 0001:00069211       ??$set_environment_variable@ABQA_WQA_W@?$__crt_char_traits@_W@@SAHABQA_W$$QBQA_W@Z 1006a211 f i libucrt:setenv.obj
 0001:0006922d       ??$tcschr@ABQADD@?$__crt_char_traits@D@@SAPADABQAD$$QAD@Z 1006a22d f i libucrt:setenv.obj
 0001:0006924d       ??$tcschr@ABQA_WD@?$__crt_char_traits@_W@@SAPA_WABQA_W$$QAD@Z 1006a24d f i libucrt:setenv.obj
 0001:00069272       ??$tcscpy_s@AAPADABIAAPAD@?$__crt_char_traits@D@@SAHAAPADABI0@Z 1006a272 f i libucrt:setenv.obj
 0001:00069297       ??$tcscpy_s@AAPA_WABIAAPA_W@?$__crt_char_traits@_W@@SAHAAPA_WABI0@Z 1006a297 f i libucrt:setenv.obj
 0001:000692bc       ??$tcscpy_s@ABQADABIABQAD@?$__crt_char_traits@D@@SAHABQADABI0@Z 1006a2bc f i libucrt:setenv.obj
 0001:000692e1       ??$tcscpy_s@ABQA_WABIABQA_W@?$__crt_char_traits@_W@@SAHABQA_WABI0@Z 1006a2e1 f i libucrt:setenv.obj
 0001:00069306       ??$tcsnicoll@ABQBDAAPADABI@?$__crt_char_traits@D@@SAHABQBDAAPADABI@Z 1006a306 f i libucrt:setenv.obj
 0001:0006932b       ??$tcsnicoll@ABQB_WAAPA_WABI@?$__crt_char_traits@_W@@SAHABQB_WAAPA_WABI@Z 1006a32b f i libucrt:setenv.obj
 0001:00069374       ?strchr@@YAPADQADH@Z       1006a374 f i libucrt:setenv.obj
 0001:00069381       ?wcschr@@YAPA_WPA_W_W@Z    1006a381 f i libucrt:setenv.obj
 0001:0006938e       ___dcrt_set_variable_in_narrow_environment_nolock 1006a38e f   libucrt:setenv.obj
 0001:0006939b       ___dcrt_set_variable_in_wide_environment_nolock 1006a39b f   libucrt:setenv.obj
 0001:000693a8       __recalloc                 1006a3a8 f   libucrt:recalloc.obj
 0001:000693b5       __recalloc_base            1006a3b5 f   libucrt:recalloc.obj
 0001:0006943d       ___acrt_getheap            1006a43d f   libucrt:heap_handle.obj
 0001:00069443       ___acrt_initialize_heap    1006a443 f   libucrt:heap_handle.obj
 0001:00069458       ___acrt_uninitialize_heap  1006a458 f   libucrt:heap_handle.obj
 0001:00069464       __get_heap_handle          1006a464 f   libucrt:heap_handle.obj
 0001:0006946a       ___acrt_execute_initializers 1006a46a f   libucrt:shared_initialization.obj
 0001:0006950d       ___acrt_execute_uninitializers 1006a50d f   libucrt:shared_initialization.obj
 0001:0006956d       ??$?B$$A6AHI@Z@__crt_fast_encoded_nullptr_t@@QBEP6AHI@ZXZ 1006a56d f i libucrt:new_handler.obj
 0001:0006958b       ??$__crt_fast_decode_pointer@P6AHI@Z@@YAP6AHI@ZQ6AHI@Z@Z 1006a58b f i libucrt:new_handler.obj
 0001:000695a6       ??$__crt_fast_encode_pointer@P6AHI@Z@@YAP6AHI@ZQ6AHI@Z@Z 1006a5a6 f i libucrt:new_handler.obj
 0001:000695cc       ?_set_new_handler@@YAP6AHI@ZH@Z 1006a5cc f   libucrt:new_handler.obj
 0001:000695f2       ?initialize@?$dual_state_global@P6AHI@Z@__crt_state_management@@QAEXQ6AHI@Z@Z 1006a5f2 f i libucrt:new_handler.obj
 0001:0006962f       ?value@?$dual_state_global@P6AHI@Z@__crt_state_management@@QAEAAP6AHI@ZXZ 1006a62f f i libucrt:new_handler.obj
 0001:00069632       ___acrt_initialize_new_handler 1006a632 f   libucrt:new_handler.obj
 0001:0006964b       __callnewh                 1006a64b f   libucrt:new_handler.obj
 0001:000696a0       __query_new_handler        1006a6a0 f   libucrt:new_handler.obj
 0001:00069706       __set_new_handler          1006a706 f   libucrt:new_handler.obj
 0001:0006977e       ?value@?$dual_state_global@J@__crt_state_management@@QAEAAJXZ 1006a77e f i libucrt:new_mode.obj
 0001:00069781       __query_new_mode           1006a781 f   libucrt:new_mode.obj
 0001:00069787       __set_new_mode             1006a787 f   libucrt:new_mode.obj
 0001:000697c1       ___pctype_func             1006a7c1 f   libucrt:ctype.obj
 0001:000697f0       ___pwctype_func            1006a7f0 f   libucrt:ctype.obj
 0001:000697f6       __iswctype_l               1006a7f6 f   libucrt:iswctype.obj
 0001:0006980f       _iswctype                  1006a80f f   libucrt:iswctype.obj
 0001:00069885       __isctype                  1006a885 f   libucrt:isctype.obj
 0001:000698c2       __isctype_l                1006a8c2 f   libucrt:isctype.obj
 0001:00069b89       ___acrt_DownlevelLCIDToLocaleName 1006ab89 f   libucrt:lcidtoname_downlevel.obj
 0001:00069c5d       ___acrt_DownlevelLocaleNameToLCID 1006ac5d f   libucrt:lcidtoname_downlevel.obj
 0001:00069c94       ??$?RV<lambda_61cee617f5178ae960314fd4d05640a0>@@AAV<lambda_6978c1fb23f02e42e1d9e99668cc68aa>@@V<lambda_9cd88cf8ad10232537feb2133f08c833>@@@?$__crt_seh_guarded_call@H@@QAEH$$QAV<lambda_61cee617f5178ae960314fd4d05640a0>@@AAV<lambda_6978c1fb23f02e42e1d9e99668cc68aa>@@$$QAV<lambda_9cd88cf8ad10232537feb2133f08c833>@@@Z 1006ac94 f i libucrt:commit.obj
 0001:00069d52       ??$__acrt_lowio_lock_fh_and_call@V<lambda_6978c1fb23f02e42e1d9e99668cc68aa>@@@@YAHH$$QAV<lambda_6978c1fb23f02e42e1d9e99668cc68aa>@@@Z 1006ad52 f i libucrt:commit.obj
 0001:00069e44       __commit                   1006ae44 f   libucrt:commit.obj
 0001:00069ece       ??$?RU__crt_lowio_handle_data@@@__crt_internal_free_policy@@QBEXQBU__crt_lowio_handle_data@@@Z 1006aece f i libucrt:osfinfo.obj
 0001:00069ee4       ??0?$__crt_unique_heap_ptr@U__crt_lowio_handle_data@@U__crt_internal_free_policy@@@@QAE@QAU__crt_lowio_handle_data@@@Z 1006aee4 f i libucrt:osfinfo.obj
 0001:00069ef8       ??1?$__crt_unique_heap_ptr@U__crt_lowio_handle_data@@U__crt_internal_free_policy@@@@QAE@XZ 1006aef8 f i libucrt:osfinfo.obj
 0001:00069f0e       ??B?$__crt_unique_heap_ptr@U__crt_lowio_handle_data@@U__crt_internal_free_policy@@@@QBE_NXZ 1006af0e f i libucrt:osfinfo.obj
 0001:00069f18       ?detach@?$__crt_unique_heap_ptr@U__crt_lowio_handle_data@@U__crt_internal_free_policy@@@@QAEPAU__crt_lowio_handle_data@@XZ 1006af18 f i libucrt:osfinfo.obj
 0001:00069f1e       ?get@?$__crt_unique_heap_ptr@U__crt_lowio_handle_data@@U__crt_internal_free_policy@@@@QBEPAU__crt_lowio_handle_data@@XZ 1006af1e f i libucrt:osfinfo.obj
 0001:00069f21       ?is_valid@?$__crt_unique_heap_ptr@U__crt_lowio_handle_data@@U__crt_internal_free_policy@@@@QBE_NXZ 1006af21 f i libucrt:osfinfo.obj
 0001:00069f2b       ?release@?$__crt_unique_heap_ptr@U__crt_lowio_handle_data@@U__crt_internal_free_policy@@@@QAEXXZ 1006af2b f i libucrt:osfinfo.obj
 0001:00069f41       ___acrt_lowio_create_handle_array 1006af41 f   libucrt:osfinfo.obj
 0001:00069fd9       ___acrt_lowio_destroy_handle_array 1006afd9 f   libucrt:osfinfo.obj
 0001:0006a01b       ___acrt_lowio_ensure_fh_exists 1006b01b f   libucrt:osfinfo.obj
 0001:0006a0d9       ___acrt_lowio_lock_fh      1006b0d9 f   libucrt:osfinfo.obj
 0001:0006a104       ___acrt_lowio_set_os_handle 1006b104 f   libucrt:osfinfo.obj
 0001:0006a1bd       ___acrt_lowio_unlock_fh    1006b1bd f   libucrt:osfinfo.obj
 0001:0006a1e8       __alloc_osfhnd             1006b1e8 f   libucrt:osfinfo.obj
 0001:0006a33e       __free_osfhnd              1006b33e f   libucrt:osfinfo.obj
 0001:0006a3f3       __get_osfhandle            1006b3f3 f   libucrt:osfinfo.obj
 0001:0006a477       __open_osfhandle           1006b477 f   libucrt:osfinfo.obj
 0001:0006a5c8       ___iswcsym                 1006b5c8 f i libucrt:_wctype.obj
 0001:0006a5f7       ___iswcsymf                1006b5f7 f i libucrt:_wctype.obj
 0001:0006a626       __isleadbyte_l             1006b626 f i libucrt:_wctype.obj
 0001:0006a66d       __iswalnum_l               1006b66d f i libucrt:_wctype.obj
 0001:0006a688       __iswalpha_l               1006b688 f i libucrt:_wctype.obj
 0001:0006a6a3       __iswblank_l               1006b6a3 f i libucrt:_wctype.obj
 0001:0006a6c7       __iswcntrl_l               1006b6c7 f i libucrt:_wctype.obj
 0001:0006a6de       __iswcsym_l                1006b6de f i libucrt:_wctype.obj
 0001:0006a70d       __iswcsymf_l               1006b70d f i libucrt:_wctype.obj
 0001:0006a73c       __iswdigit_l               1006b73c f i libucrt:_wctype.obj
 0001:0006a753       __iswgraph_l               1006b753 f i libucrt:_wctype.obj
 0001:0006a76e       __iswlower_l               1006b76e f i libucrt:_wctype.obj
 0001:0006a785       __iswprint_l               1006b785 f i libucrt:_wctype.obj
 0001:0006a7a0       __iswpunct_l               1006b7a0 f i libucrt:_wctype.obj
 0001:0006a7b7       __iswspace_l               1006b7b7 f i libucrt:_wctype.obj
 0001:0006a7ce       __iswupper_l               1006b7ce f i libucrt:_wctype.obj
 0001:0006a7e5       __iswxdigit_l              1006b7e5 f i libucrt:_wctype.obj
 0001:0006a800       _isleadbyte                1006b800 f i libucrt:_wctype.obj
 0001:0006a817       _iswalnum                  1006b817 f i libucrt:_wctype.obj
 0001:0006a832       _iswalpha                  1006b832 f i libucrt:_wctype.obj
 0001:0006a84d       _iswascii                  1006b84d f i libucrt:_wctype.obj
 0001:0006a866       _iswblank                  1006b866 f i libucrt:_wctype.obj
 0001:0006a88a       _iswcntrl                  1006b88a f i libucrt:_wctype.obj
 0001:0006a8a1       _iswdigit                  1006b8a1 f i libucrt:_wctype.obj
 0001:0006a8b8       _iswgraph                  1006b8b8 f i libucrt:_wctype.obj
 0001:0006a8d3       _iswlower                  1006b8d3 f i libucrt:_wctype.obj
 0001:0006a8ea       _iswprint                  1006b8ea f i libucrt:_wctype.obj
 0001:0006a905       _iswpunct                  1006b905 f i libucrt:_wctype.obj
 0001:0006a91c       _iswspace                  1006b91c f i libucrt:_wctype.obj
 0001:0006a933       _iswupper                  1006b933 f i libucrt:_wctype.obj
 0001:0006a94a       _iswxdigit                 1006b94a f i libucrt:_wctype.obj
 0001:0006a965       ??0?$__crt_scoped_stack_ptr@_W@@QAE@U?$__crt_scoped_stack_ptr_tag@_W@@@Z 1006b965 f i libucrt:lcmapstringa.obj
 0001:0006a979       ??0?$__crt_scoped_stack_ptr_tag@_W@@QAE@QA_W@Z 1006b979 f i libucrt:lcmapstringa.obj
 0001:0006a98d       ??1?$__crt_scoped_stack_ptr@_W@@QAE@XZ 1006b98d f i libucrt:lcmapstringa.obj
 0001:0006a998       ??B?$__crt_scoped_stack_ptr@_W@@QBE_NXZ 1006b998 f i libucrt:lcmapstringa.obj
 0001:0006ac46       ?get@?$__crt_scoped_stack_ptr@_W@@QBEPA_WXZ 1006bc46 f i libucrt:lcmapstringa.obj
 0001:0006ac49       __MallocaComputeSize       1006bc49 f i libucrt:lcmapstringa.obj
 0001:0006ac60       __MarkAllocaS              1006bc60 f i libucrt:lcmapstringa.obj
 0001:0006ac7b       ___acrt_LCMapStringA       1006bc7b f   libucrt:lcmapstringa.obj
 0001:0006acd8       __freea_crt                1006bcd8 f i libucrt:lcmapstringa.obj
 0001:0006ad00       ??$?RG@__crt_internal_free_policy@@QBEXQBG@Z 1006bd00 f i libucrt:initctype.obj
 0001:0006ad16       ??$?RJ@__crt_internal_free_policy@@QBEXQBJ@Z 1006bd16 f i libucrt:initctype.obj
 0001:0006ad2c       ??0?$__crt_unique_heap_ptr@GU__crt_internal_free_policy@@@@QAE@QAG@Z 1006bd2c f i libucrt:initctype.obj
 0001:0006ad40       ??0?$__crt_unique_heap_ptr@JU__crt_internal_free_policy@@@@QAE@QAJ@Z 1006bd40 f i libucrt:initctype.obj
 0001:0006ad54       ??1?$__crt_unique_heap_ptr@GU__crt_internal_free_policy@@@@QAE@XZ 1006bd54 f i libucrt:initctype.obj
 0001:0006ad6a       ??1?$__crt_unique_heap_ptr@JU__crt_internal_free_policy@@@@QAE@XZ 1006bd6a f i libucrt:initctype.obj
 0001:0006ad80       ?detach@?$__crt_unique_heap_ptr@GU__crt_internal_free_policy@@@@QAEPAGXZ 1006bd80 f i libucrt:initctype.obj
 0001:0006ad86       ?detach@?$__crt_unique_heap_ptr@JU__crt_internal_free_policy@@@@QAEPAJXZ 1006bd86 f i libucrt:initctype.obj
 0001:0006ad8c       ?release@?$__crt_unique_heap_ptr@GU__crt_internal_free_policy@@@@QAEXXZ 1006bd8c f i libucrt:initctype.obj
 0001:0006ada2       ?release@?$__crt_unique_heap_ptr@JU__crt_internal_free_policy@@@@QAEXXZ 1006bda2 f i libucrt:initctype.obj
 0001:0006adb8       ____lc_codepage_func       1006bdb8 f   libucrt:initctype.obj
 0001:0006ade8       ____lc_collate_cp_func     1006bde8 f   libucrt:initctype.obj
 0001:0006ae18       ____lc_locale_name_func    1006be18 f   libucrt:initctype.obj
 0001:0006ae4b       ____mb_cur_max_func        1006be4b f   libucrt:initctype.obj
 0001:0006ae7b       ____mb_cur_max_l_func      1006be7b f   libucrt:initctype.obj
 0001:0006ae9a       ___acrt_locale_initialize_ctype 1006be9a f   libucrt:initctype.obj
 0001:0006b31f       ___acrt_add_locale_ref     1006c31f f   libucrt:locale_refcounting.obj
 0001:0006b3bb       ___acrt_free_locale        1006c3bb f   libucrt:locale_refcounting.obj
 0001:0006b557       ___acrt_locale_add_lc_time_reference 1006c557 f   libucrt:locale_refcounting.obj
 0001:0006b58a       ___acrt_locale_free_lc_time_if_unreferenced 1006c58a f   libucrt:locale_refcounting.obj
 0001:0006b5c6       ___acrt_locale_release_lc_time_reference 1006c5c6 f   libucrt:locale_refcounting.obj
 0001:0006b5f9       ___acrt_release_locale_ref 1006c5f9 f   libucrt:locale_refcounting.obj
 0001:0006b69a       ___acrt_update_thread_locale_data 1006c69a f   libucrt:locale_refcounting.obj
 0001:0006b72e       __updatetlocinfoEx_nolock  1006c72e f   libucrt:locale_refcounting.obj
 0001:0006b792       ___acrt_fp_strflt_to_string 1006c792 f   libucrt:_fptostr.obj
 0001:0006cfc0       ??0big_integer@__crt_strtox@@QAE@ABU01@@Z 1006dfc0 f i libucrt:cfout.obj
 0001:0006d000       ??0big_integer@__crt_strtox@@QAE@XZ 1006e000 f i libucrt:cfout.obj
 0001:0006d00b       ??0scoped_fp_state_reset@?A0x48fbfdd4@@QAE@XZ 1006e00b f i libucrt:cfout.obj
 0001:0006d03f       ??1scoped_fp_state_reset@?A0x48fbfdd4@@QAE@XZ 1006e03f f i libucrt:cfout.obj
 0001:0006d050       ??4big_integer@__crt_strtox@@QAEAAU01@ABU01@@Z 1006e050 f i libucrt:cfout.obj
 0001:0006d090       ??8__crt_strtox@@YA_NABUbig_integer@0@0@Z 1006e090 f i libucrt:cfout.obj
 0001:0006d0e0       ??9__crt_strtox@@YA_NABUbig_integer@0@0@Z 1006e0e0 f i libucrt:cfout.obj
 0001:0006d140       ?add_carry@__crt_strtox@@YAIAAIII@Z 1006e140 f i libucrt:cfout.obj
 0001:0006d170       ?add_multiply_carry@__crt_strtox@@YAIAAIIII@Z 1006e170 f i libucrt:cfout.obj
 0001:0006d1a0       ?bit_scan_reverse@__crt_strtox@@YAII@Z 1006e1a0 f i libucrt:cfout.obj
 0001:0006d1d0       ?count_sequential_high_zeroes@__crt_strtox@@YAII@Z 1006e1d0 f i libucrt:cfout.obj
 0001:0006d200       ?divide@__crt_strtox@@YA_KAAUbig_integer@1@ABU21@@Z 1006e200 f i libucrt:cfout.obj
 0001:0006d7e0       ?is_zero@__crt_strtox@@YA_NABUbig_integer@1@@Z 1006e7e0 f i libucrt:cfout.obj
 0001:0006d800       ?make_big_integer@__crt_strtox@@YA?AUbig_integer@1@_K@Z 1006e800 f i libucrt:cfout.obj
 0001:0006d830       ?make_big_integer_power_of_two@__crt_strtox@@YA?AUbig_integer@1@I@Z 1006e830 f i libucrt:cfout.obj
 0001:0006d890       ?multiply@__crt_strtox@@YA_NAAUbig_integer@1@ABU21@@Z 1006e890 f i libucrt:cfout.obj
 0001:0006dd40       ?multiply@__crt_strtox@@YA_NAAUbig_integer@1@I@Z 1006ed40 f i libucrt:cfout.obj
 0001:0006de40       ?multiply_64_32@__crt_strtox@@YA_K_KI@Z 1006ee40 f i libucrt:cfout.obj
 0001:0006de60       ?multiply_by_power_of_ten@__crt_strtox@@YA_NAAUbig_integer@1@I@Z 1006ee60 f i libucrt:cfout.obj
 0001:0006e560       ?multiply_core@__crt_strtox@@YAIQAIII@Z 1006f560 f i libucrt:cfout.obj
 0001:0006e5b0       ?shift_left@__crt_strtox@@YA_NAAUbig_integer@1@I@Z 1006f5b0 f i libucrt:cfout.obj
 0001:0006e752       ___acrt_fltout             1006f752 f   libucrt:cfout.obj
 0001:00070076       __isatty                   10071076 f   libucrt:isatty.obj
 0001:000700e1       ??$?RUlconv@@@__crt_internal_free_policy@@QBEXQBUlconv@@@Z 100710e1 f i libucrt:initmon.obj
 0001:000700f7       ??0?$__crt_unique_heap_ptr@Ulconv@@U__crt_internal_free_policy@@@@QAE@QAUlconv@@@Z 100710f7 f i libucrt:initmon.obj
 0001:0007010b       ??1?$__crt_unique_heap_ptr@Ulconv@@U__crt_internal_free_policy@@@@QAE@XZ 1007110b f i libucrt:initmon.obj
 0001:00070121       ?detach@?$__crt_unique_heap_ptr@Ulconv@@U__crt_internal_free_policy@@@@QAEPAUlconv@@XZ 10071121 f i libucrt:initmon.obj
 0001:00070127       ?release@?$__crt_unique_heap_ptr@Ulconv@@U__crt_internal_free_policy@@@@QAEXXZ 10071127 f i libucrt:initmon.obj
 0001:0007013d       ___acrt_locale_free_monetary 1007113d f   libucrt:initmon.obj
 0001:0007027a       ___acrt_locale_initialize_monetary 1007127a f   libucrt:initmon.obj
 0001:0007076d       ___acrt_locale_free_numeric 1007176d f   libucrt:initnum.obj
 0001:000707f0       ___acrt_locale_initialize_numeric 100717f0 f   libucrt:initnum.obj
 0001:00070adb       ??$?RU__crt_lc_time_data@@@__crt_internal_free_policy@@QBEXQBU__crt_lc_time_data@@@Z 10071adb f i libucrt:inittime.obj
 0001:00070b7b       ??0?$__crt_unique_heap_ptr@U__crt_lc_time_data@@U__crt_internal_free_policy@@@@QAE@QAU__crt_lc_time_data@@@Z 10071b7b f i libucrt:inittime.obj
 0001:00070b8f       ??1?$__crt_unique_heap_ptr@U__crt_lc_time_data@@U__crt_internal_free_policy@@@@QAE@XZ 10071b8f f i libucrt:inittime.obj
 0001:00070ba5       ??B?$__crt_unique_heap_ptr@U__crt_lc_time_data@@U__crt_internal_free_policy@@@@QBE_NXZ 10071ba5 f i libucrt:inittime.obj
 0001:00070baf       ?detach@?$__crt_unique_heap_ptr@U__crt_lc_time_data@@U__crt_internal_free_policy@@@@QAEPAU__crt_lc_time_data@@XZ 10071baf f i libucrt:inittime.obj
 0001:00070c00       ?get@?$__crt_unique_heap_ptr@U__crt_lc_time_data@@U__crt_internal_free_policy@@@@QBEPAU__crt_lc_time_data@@XZ 10071c00 f i libucrt:inittime.obj
 0001:00070f98       ?is_valid@?$__crt_unique_heap_ptr@U__crt_lc_time_data@@U__crt_internal_free_policy@@@@QBE_NXZ 10071f98 f i libucrt:inittime.obj
 0001:00070fa2       ?release@?$__crt_unique_heap_ptr@U__crt_lc_time_data@@U__crt_internal_free_policy@@@@QAEXXZ 10071fa2 f i libucrt:inittime.obj
 0001:00070fb8       ___acrt_locale_free_time   10071fb8 f   libucrt:inittime.obj
 0001:000710d5       ___acrt_locale_initialize_time 100720d5 f   libucrt:inittime.obj
 0001:00071273       _wcsncpy_s                 10072273 f   libucrt:wcsncpy_s.obj
 0001:00071280       _wcscspn                   10072280 f   libucrt:wcscspn.obj
 0001:000712e4       _wcsncmp                   100722e4 f   libucrt:wcsncmp.obj
 0001:0007132c       _wcspbrk                   1007232c f   libucrt:wcspbrk.obj
 0001:00071382       ___acrt_GetStringTypeA     10072382 f   libucrt:getstringtypea.obj
 0001:00071df6       ___acrt_get_qualified_locale 10072df6 f   libucrt:get_qualified_locale.obj
 0001:0007299d       ___acrt_get_qualified_locale_downlevel 1007399d f   libucrt:getqloc_downlevel.obj
 0001:00072c25       _localeconv                10073c25 f   libucrt:localeconv.obj
 0001:00072c59       ___setfflag                10073c59 f   libucrt:fp_flags.obj
 0001:00072c73       __87except                 10073c73 f   libucrt:87except.obj
 0001:00072dc0       __wcsnicmp                 10073dc0 f   libucrt:wcsnicmp.obj
 0001:00072ea6       __wcsnicmp_l               10073ea6 f   libucrt:wcsnicmp.obj
 0001:00072ff0       _strncmp                   10073ff0 f   libucrt:strncmp.obj
 0001:00073086       __strnicmp                 10074086 f   libucrt:strnicmp.obj
 0001:0007310d       __strnicmp_l               1007410d f   libucrt:strnicmp.obj
 0001:000731f1       ??$__vcrt_va_start_verify_argument_type@$$CBH@@YAXXZ 100741f1 f i libucrt:open.obj
 0001:000735a8       ??$tsopen_nolock@PAHABQAHABQBDABHABHABHABH@?$__crt_char_traits@D@@SAH$$QAPAHABQAHABQBDABH333@Z 100745a8 f i libucrt:open.obj
 0001:000735e6       ??$tsopen_nolock@PAHABQAHABQB_WABHABHABHABH@?$__crt_char_traits@_W@@SAH$$QAPAHABQAHABQB_WABH333@Z 100745e6 f i libucrt:open.obj
 0001:00073624       ??$tsopen_nolock@PAHPAHABQBDABHHABHH@?$__crt_char_traits@D@@SAH$$QAPAH0ABQBDABH$$QAH23@Z 10074624 f i libucrt:open.obj
 0001:00073662       ??$tsopen_nolock@PAHPAHABQB_WABHHABHH@?$__crt_char_traits@_W@@SAH$$QAPAH0ABQB_WABH$$QAH23@Z 10074662 f i libucrt:open.obj
 0001:00073e30       __open                     10074e30 f   libucrt:open.obj
 0001:00073e4e       __sopen                    10074e4e f   libucrt:open.obj
 0001:00073e90       __sopen_dispatch           10074e90 f   libucrt:open.obj
 0001:00073e9d       __sopen_nolock             10074e9d f   libucrt:open.obj
 0001:00073f02       __sopen_s                  10074f02 f   libucrt:open.obj
 0001:00073f2a       __wopen                    10074f2a f   libucrt:open.obj
 0001:00073f48       __wsopen                   10074f48 f   libucrt:open.obj
 0001:00073f8a       __wsopen_dispatch          10074f8a f   libucrt:open.obj
 0001:00073f97       __wsopen_nolock            10074f97 f   libucrt:open.obj
 0001:0007438a       __wsopen_s                 1007538a f   libucrt:open.obj
 0001:000743b2       ___p__commode              100753b2 f   libucrt:ncommode.obj
 0001:000743b8       ___acrt_stdio_allocate_buffer_nolock 100753b8 f   libucrt:_getbuf.obj
 0001:0007442c       ??$?RV<lambda_4980db0136e49a56f91ef52c46ca659a>@@AAV<lambda_6e3e78bb6855d1e4040e022c1b427e22>@@V<lambda_9c074eaf62197b4fd0274ed9e7824161>@@@?$__crt_seh_guarded_call@G@@QAEG$$QAV<lambda_4980db0136e49a56f91ef52c46ca659a>@@AAV<lambda_6e3e78bb6855d1e4040e022c1b427e22>@@$$QAV<lambda_9c074eaf62197b4fd0274ed9e7824161>@@@Z 1007542c f i libucrt:putwch.obj
 0001:000744a1       ??$__acrt_lock_and_call@V<lambda_6e3e78bb6855d1e4040e022c1b427e22>@@@@YAGW4__acrt_lock_id@@$$QAV<lambda_6e3e78bb6855d1e4040e022c1b427e22>@@@Z 100754a1 f i libucrt:putwch.obj
 0001:00074539       __putwch                   10075539 f   libucrt:putwch.obj
 0001:0007455d       __putwch_nolock            1007555d f   libucrt:putwch.obj
 0001:000745b3       _nextafter                 100755b3 f   libucrt:nextafter.obj
 0001:000745d9       ??1scoped_global_state_reset@__crt_state_management@@QAE@XZ 100755d9 f i libucrt:qsort.obj
 0001:000746f0       _qsort                     100756f0 f   libucrt:qsort.obj
 0001:00074c4d       _strncpy_s                 10075c4d f   libucrt:strncpy_s.obj
 0001:00074c60       _strpbrk                   10075c60 f   libucrt:strpbrk.obj
 0001:00074cb0       __mbsdec                   10075cb0 f   libucrt:mbsdec.obj
 0001:00074ccc       __mbsdec_l                 10075ccc f   libucrt:mbsdec.obj
 0001:00074d8e       __wcsnicoll                10075d8e f   libucrt:wcsnicol.obj
 0001:00074e92       __wcsnicoll_l              10075e92 f   libucrt:wcsnicol.obj
 0001:0007500a       __strnicoll                1007600a f   libucrt:strnicol.obj
 0001:0007503d       __strnicoll_l              1007603d f   libucrt:strnicol.obj
 0001:00075178       __msize                    10076178 f   libucrt:msize.obj
 0001:000751b7       ___strncnt                 100761b7 f   libucrt:strncnt.obj
 0001:00075313       ___acrt_GetLocaleInfoA     10076313 f   libucrt:getlocaleinfoa.obj
 0001:00075531       _fegetenv                  10076531 f   libucrt:fegetenv.obj
 0001:00075555       _fesetenv                  10076555 f   libucrt:fesetenv.obj
 0001:000755b0       _feholdexcept              100765b0 f   libucrt:feholdexcept.obj
 0001:00075620       _log10                     10076620 f   libucrt:log10.obj
 0001:00075660       __CIlog10                  10076660 f   libucrt:log10.obj
 0001:0007569b       __CIlog10_default          1007669b f   libucrt:log10.obj
 0001:000756af       __log10_default            100766af     libucrt:log10.obj
 0001:000757d0       _ceil                      100767d0 f   libucrt:ceil_pentium4.obj
 0001:00075810       __ceil_pentium4            10076810 f   libucrt:ceil_pentium4.obj
 0001:00075934       __wcsicmp                  10076934 f   libucrt:wcsicmp.obj
 0001:000759ee       __wcsicmp_l                100769ee f   libucrt:wcsicmp.obj
 0001:00075b06       __towlower_l               10076b06 f   libucrt:towlower.obj
 0001:00075c01       _towlower                  10076c01 f   libucrt:towlower.obj
 0001:00075c20       ___ascii_strnicmp          10076c20 f   libucrt:_strnicm.obj
 0001:00075c99       ??$__crt_interlocked_read@H@@YAHPDH@Z 10076c99 f i libucrt:setmode.obj
 0001:00075ca8       __get_fmode                10076ca8 f   libucrt:setmode.obj
 0001:00075cdf       __set_fmode                10076cdf f   libucrt:setmode.obj
 0001:00075d2b       __setmode                  10076d2b f   libucrt:setmode.obj
 0001:00075e7c       __setmode_nolock           10076e7c f   libucrt:setmode.obj
 0001:00075f81       ??$?RV<lambda_4cfda81533ccf5a03113a1ca40a30445>@@AAV<lambda_1cffa78e445b1da5fba1a2e0e533226f>@@V<lambda_68c952aa1b860373b2109ef12d0bba9d>@@@?$__crt_seh_guarded_call@H@@QAEH$$QAV<lambda_4cfda81533ccf5a03113a1ca40a30445>@@AAV<lambda_1cffa78e445b1da5fba1a2e0e533226f>@@$$QAV<lambda_68c952aa1b860373b2109ef12d0bba9d>@@@Z 10076f81 f i libucrt:chsize.obj
 0001:0007602b       ??$__acrt_lowio_lock_fh_and_call@V<lambda_1cffa78e445b1da5fba1a2e0e533226f>@@@@YAHH$$QAV<lambda_1cffa78e445b1da5fba1a2e0e533226f>@@@Z 1007702b f i libucrt:chsize.obj
 0001:0007610d       __chsize                   1007710d f   libucrt:chsize.obj
 0001:00076130       __chsize_nolock            10077130 f   libucrt:chsize.obj
 0001:00076325       __chsize_s                 10077325 f   libucrt:chsize.obj
 0001:000763e6       __umask                    100773e6 f   libucrt:umask.obj
 0001:00076414       __umask_s                  10077414 f   libucrt:umask.obj
 0001:0007645d       ___dcrt_lowio_initialize_console_output 1007745d f   libucrt:initcon.obj
 0001:00076483       ___dcrt_terminate_console_output 10077483 f   libucrt:initcon.obj
 0001:0007649f       _nexttoward                1007749f f   libucrt:nexttoward.obj
 0001:00076650       ___acrt_CompareStringW     10077650 f   libucrt:comparestringw.obj
 0001:00076a24       ___acrt_CompareStringA     10077a24 f   libucrt:comparestringa.obj
 0001:00076a7e       ___acrt_fenv_get_fp_status_word_from_exception_mask 10077a7e f   libucrt:_fenvutils.obj
 0001:00076ec1       __getfpcontrolword         10077ec1 f   libucrt:_fenvutils.obj
 0001:00076f14       __getfpstatusword          10077f14 f   libucrt:_fenvutils.obj
 0001:00076fe6       __setfpcontrolword         10077fe6 f   libucrt:_fenvutils.obj
 0001:00077086       __setfpstatusword          10078086 f   libucrt:_fenvutils.obj
 0001:000772bc       ___control87_2             100782bc f   libucrt:ieee87.obj
 0001:00077890       ___fpreset_sse2            10078890 f   libucrt:ieee87.obj
 0001:00077ae3       __clearfp                  10078ae3 f   libucrt:ieee87.obj
 0001:00077bf8       __control87                10078bf8 f   libucrt:ieee87.obj
 0001:00077fba       __controlfp                10078fba f   libucrt:ieee87.obj
 0001:00077fda       __fpreset                  10078fda f   libucrt:ieee87.obj
 0001:000780d7       __set_controlfp            100790d7 f   libucrt:ieee87.obj
 0001:0007816d       __statusfp                 1007916d f   libucrt:ieee87.obj
 0001:00078230       __statusfp2                10079230 f   libucrt:ieee87.obj
 0001:000782ad       ___acrt_initialize_sse2    100792ad f   libucrt:mathfcns.obj
 0001:000782bf       __set_SSE2_enable          100792bf f   libucrt:mathfcns.obj
 0001:000782f0       __CIlog10_pentium4         100792f0 f   libucrt:log10_pentium4.obj
 0001:00078308       __log10_pentium4           10079308     libucrt:log10_pentium4.obj
 0001:00078641       __fFEXP                    10079641     libucrt:87tran.obj
 0001:00078698       __rtinfpopse               10079698     libucrt:87tran.obj
 0001:0007869a       __rtinfnpopse              1007969a     libucrt:87tran.obj
 0001:000786aa       __fFLN                     100796aa     libucrt:87tran.obj
 0001:0007875f       __rtinfpop                 1007975f     libucrt:87tran.obj
 0001:00078761       __rtinfnpop                10079761     libucrt:87tran.obj
 0001:0007877e       __ffexpm1                  1007977e     libucrt:87tran.obj
 0001:000788b0       __twoToTOS                 100798b0 f   libucrt:common.obj
 0001:000788c5       __load_CW                  100798c5 f   libucrt:common.obj
 0001:000788dc       __convertTOStoQNaN         100798dc f   libucrt:common.obj
 0001:000788f5       __fload_withFB             100798f5 f   libucrt:common.obj
 0001:00078938       __checkTOS_withFB          10079938 f   libucrt:common.obj
 0001:0007894e       __fast_exit                1007994e f   libucrt:common.obj
 0001:0007895b       __math_exit                1007995b f   libucrt:common.obj
 0001:00078985       __check_overflow_exit      10079985 f   libucrt:common.obj
 0001:00078999       __check_range_exit         10079999 f   libucrt:common.obj
 0001:00078aa0       __startTwoArgErrorHandling 10079aa0 f   libucrt:genexcep.obj
 0001:00078ab7       __startOneArgErrorHandling 10079ab7 f   libucrt:genexcep.obj
 0001:00078b07       ___libm_error_support      10079b07 f   libucrt:libm_error.obj
 0001:00078da5       ___libm_setusermatherr     10079da5 f   libucrt:libm_error.obj
 0001:00078dde       __ceil_default             10079dde f   libucrt:ceil.obj
 0001:00078ec5       ___acrt_LCMapStringW       10079ec5 f   libucrt:lcmapstringw.obj
 0001:00078f12       ___p__fmode                10079f12 f   libucrt:txtmode.obj
 0001:00078f18       __d_int                    10079f18 f   libucrt:_test.obj
 0001:00079060       __dtest                    1007a060 f   libucrt:_test.obj
 0001:000790dd       __fd_int                   1007a0dd f   libucrt:_test.obj
 0001:000791df       __fdtest                   1007a1df f   libucrt:_test.obj
 0001:00079240       __fperrraise               1007a240 f   libucrt:_test.obj
 0001:0007926b       __ld_int                   1007a26b f   libucrt:_test.obj
 0001:00079278       __ldtest                   1007a278 f   libucrt:_test.obj
 0001:0007931d       __controlfp_s              1007a31d f   libucrt:contrlfp.obj
 0001:00079393       __d_inttype                1007a393 f   libucrt:powhlp.obj
 0001:00079417       __powhlp                   1007a417 f   libucrt:powhlp.obj
 0001:0007958c       __frnd                     1007a58c f   libucrt:frnd.obj
 0001:000795a7       _fegetexceptflag           1007a5a7 f   libucrt:fegetexceptflag.obj
 0001:000795e4       _fesetexceptflag           1007a5e4 f   libucrt:fesetexceptflag.obj
 0001:00079645       _fetestexcept              1007a645 f   libucrt:fetestexcept.obj
 0001:00079670       __FindPESection            1007a670 f   LIBCMT:pesect.obj
 0001:000796d0       __IsNonwritableInCurrentImage 1007a6d0 f   LIBCMT:pesect.obj
 0001:000797c0       __ValidateImageBase        1007a7c0 f   LIBCMT:pesect.obj
 0001:00079800       __aulldvrm                 1007a800 f   LIBCMT:ulldvrm.obj
 0001:000798ba       ??1type_info@@UAE@XZ       1007a8ba f   LIBCMT:std_type_info_static.obj
 0001:000798c1       ??_Etype_info@@UAEPAXI@Z   1007a8c1 f i LIBCMT:std_type_info_static.obj
 0001:000798c1       ??_Gtype_info@@UAEPAXI@Z   1007a8c1 f i LIBCMT:std_type_info_static.obj
 0001:000798f0       __SEH_prolog4_GS           1007a8f0 f   LIBCMT:_sehprolg4gs_.obj
 0001:00079939       __SEH_epilog4_GS           1007a939 f   LIBCMT:_sehprolg4gs_.obj
 0001:00079960       __allmul                   1007a960 f   LIBCMT:llmul.obj
 0001:000799b0       __alldvrm                  1007a9b0 f   LIBCMT:lldvrm.obj
 0001:00079ad0       __aullshr                  1007aad0 f   LIBCMT:ullshr.obj
 0001:00079b00       __chkstk                   1007ab00 f   LIBCMT:chkstk.obj
 0001:00079b00       __alloca_probe             1007ab00 f   LIBCMT:chkstk.obj
 0001:00079b40       __alloca_probe_16          1007ab40 f   LIBCMT:alloca16.obj
 0001:00079b56       __alloca_probe_8           1007ab56     LIBCMT:alloca16.obj
 0001:00079b80       __allshl                   1007ab80 f   LIBCMT:llshl.obj
 0001:00079bb0       __ftol2_sse                1007abb0 f   LIBCMT:_ftol2_.obj
 0001:00079bb9       __ftol2_pentium4           1007abb9 f   LIBCMT:_ftol2_.obj
 0001:00079bcc       __ftol2_sse_excpt          1007abcc f   LIBCMT:_ftol2_.obj
 0001:00079bf0       __ftol2                    1007abf0 f   LIBCMT:_ftol2_.obj
 0001:00079c92       __initialize_default_precision 1007ac92 f   LIBCMT:default_precision.obj
 0001:00079cbb       ??3@YAXPAXI@Z              1007acbb f   LIBCMT:delete_scalar_size.obj
 0001:00079ccc       ??3@YAXPAX@Z               1007accc f   LIBCMT:delete_scalar.obj
 0001:00079cd2       _InterlockedPushEntrySList@8 1007acd2 f   kernel32:KERNEL32.dll
 0001:00079cd8       _InterlockedFlushSList@4   1007acd8 f   kernel32:KERNEL32.dll
 0001:00079cde       _RtlUnwind@16              1007acde f   kernel32:KERNEL32.dll
 0001:00079ce4       _GetLastError@0            1007ace4 f   kernel32:KERNEL32.dll
 0001:00079cea       _SetLastError@4            1007acea f   kernel32:KERNEL32.dll
 0001:00079cf0       _EnterCriticalSection@4    1007acf0 f   kernel32:KERNEL32.dll
 0001:00079cf6       _LeaveCriticalSection@4    1007acf6 f   kernel32:KERNEL32.dll
 0001:00079cfc       _DeleteCriticalSection@4   1007acfc f   kernel32:KERNEL32.dll
 0001:00079d02       _InitializeCriticalSectionAndSpinCount@8 1007ad02 f   kernel32:KERNEL32.dll
 0001:00079d08       _TlsAlloc@0                1007ad08 f   kernel32:KERNEL32.dll
 0001:00079d0e       _TlsGetValue@4             1007ad0e f   kernel32:KERNEL32.dll
 0001:00079d14       _TlsSetValue@8             1007ad14 f   kernel32:KERNEL32.dll
 0001:00079d1a       _TlsFree@4                 1007ad1a f   kernel32:KERNEL32.dll
 0001:00079d20       _FreeLibrary@4             1007ad20 f   kernel32:KERNEL32.dll
 0001:00079d26       _LoadLibraryExW@12         1007ad26 f   kernel32:KERNEL32.dll
 0001:00079d2c       _ExitProcess@4             1007ad2c f   kernel32:KERNEL32.dll
 0001:00079d32       _GetModuleHandleExW@12     1007ad32 f   kernel32:KERNEL32.dll
 0001:00079d38       _GetStdHandle@4            1007ad38 f   kernel32:KERNEL32.dll
 0001:00079d3e       _GetFileType@4             1007ad3e f   kernel32:KERNEL32.dll
 0001:00079d44       _GetModuleFileNameA@12     1007ad44 f   kernel32:KERNEL32.dll
 0001:00079d4a       _GetModuleFileNameW@12     1007ad4a f   kernel32:KERNEL32.dll
 0001:00079d50       _WriteConsoleW@20          1007ad50 f   kernel32:KERNEL32.dll
 0001:00079d56       _RaiseException@16         1007ad56 f   kernel32:KERNEL32.dll
 0001:00079d5c       _MultiByteToWideChar@24    1007ad5c f   kernel32:KERNEL32.dll
 0001:00079d62       _WideCharToMultiByte@32    1007ad62 f   kernel32:KERNEL32.dll
 0001:00079d68       _HeapFree@12               1007ad68 f   kernel32:KERNEL32.dll
 0001:00079d6e       _HeapAlloc@12              1007ad6e f   kernel32:KERNEL32.dll
 0001:00079d74       _GetDateFormatW@24         1007ad74 f   kernel32:KERNEL32.dll
 0001:00079d7a       _GetTimeFormatW@24         1007ad7a f   kernel32:KERNEL32.dll
 0001:00079d80       _CompareStringW@24         1007ad80 f   kernel32:KERNEL32.dll
 0001:00079d86       _LCMapStringW@24           1007ad86 f   kernel32:KERNEL32.dll
 0001:00079d8c       _GetLocaleInfoW@16         1007ad8c f   kernel32:KERNEL32.dll
 0001:00079d92       _IsValidLocale@8           1007ad92 f   kernel32:KERNEL32.dll
 0001:00079d98       _GetUserDefaultLCID@0      1007ad98 f   kernel32:KERNEL32.dll
 0001:00079d9e       _EnumSystemLocalesW@8      1007ad9e f   kernel32:KERNEL32.dll
 0001:00079da4       _GetCurrentThread@0        1007ada4 f   kernel32:KERNEL32.dll
 0001:00079daa       _GetACP@0                  1007adaa f   kernel32:KERNEL32.dll
 0001:00079db0       _HeapReAlloc@16            1007adb0 f   kernel32:KERNEL32.dll
 0001:00079db6       _ReadFile@20               1007adb6 f   kernel32:KERNEL32.dll
 0001:00079dbc       _GetConsoleMode@8          1007adbc f   kernel32:KERNEL32.dll
 0001:00079dc2       _ReadConsoleW@20           1007adc2 f   kernel32:KERNEL32.dll
 0001:00079dc8       _WriteFile@20              1007adc8 f   kernel32:KERNEL32.dll
 0001:00079dce       _GetConsoleCP@0            1007adce f   kernel32:KERNEL32.dll
 0001:00079dd4       _DeleteFileW@4             1007add4 f   kernel32:KERNEL32.dll
 0001:00079dda       _SetFilePointerEx@20       1007adda f   kernel32:KERNEL32.dll
 0001:00079de0       _OutputDebugStringA@4      1007ade0 f   kernel32:KERNEL32.dll
 0001:00079de6       _OutputDebugStringW@4      1007ade6 f   kernel32:KERNEL32.dll
 0001:00079dec       _WaitForSingleObjectEx@12  1007adec f   kernel32:KERNEL32.dll
 0001:00079df2       _SetConsoleCtrlHandler@8   1007adf2 f   kernel32:KERNEL32.dll
 0001:00079df8       _FindClose@4               1007adf8 f   kernel32:KERNEL32.dll
 0001:00079dfe       _FindFirstFileExA@24       1007adfe f   kernel32:KERNEL32.dll
 0001:00079e04       _FindFirstFileExW@24       1007ae04 f   kernel32:KERNEL32.dll
 0001:00079e0a       _FindNextFileA@8           1007ae0a f   kernel32:KERNEL32.dll
 0001:00079e10       _FindNextFileW@8           1007ae10 f   kernel32:KERNEL32.dll
 0001:00079e16       _IsValidCodePage@4         1007ae16 f   kernel32:KERNEL32.dll
 0001:00079e1c       _GetOEMCP@0                1007ae1c f   kernel32:KERNEL32.dll
 0001:00079e22       _GetCPInfo@8               1007ae22 f   kernel32:KERNEL32.dll
 0001:00079e28       _GetCommandLineA@0         1007ae28 f   kernel32:KERNEL32.dll
 0001:00079e2e       _GetCommandLineW@0         1007ae2e f   kernel32:KERNEL32.dll
 0001:00079e34       _GetEnvironmentStringsW@0  1007ae34 f   kernel32:KERNEL32.dll
 0001:00079e3a       _FreeEnvironmentStringsW@4 1007ae3a f   kernel32:KERNEL32.dll
 0001:00079e40       _SetEnvironmentVariableA@8 1007ae40 f   kernel32:KERNEL32.dll
 0001:00079e46       _SetEnvironmentVariableW@8 1007ae46 f   kernel32:KERNEL32.dll
 0001:00079e4c       _GetProcessHeap@0          1007ae4c f   kernel32:KERNEL32.dll
 0001:00079e52       _GetStringTypeW@16         1007ae52 f   kernel32:KERNEL32.dll
 0001:00079e58       _FlushFileBuffers@4        1007ae58 f   kernel32:KERNEL32.dll
 0001:00079e5e       _SetStdHandle@8            1007ae5e f   kernel32:KERNEL32.dll
 0001:00079e64       _CreateFileW@28            1007ae64 f   kernel32:KERNEL32.dll
 0001:00079e6a       _HeapSize@12               1007ae6a f   kernel32:KERNEL32.dll
 0001:00079e70       _SetEndOfFile@4            1007ae70 f   kernel32:KERNEL32.dll
 0001:00079e76       _EncodePointer@4           1007ae76 f   kernel32:KERNEL32.dll
 0001:00079e7c       _DecodePointer@4           1007ae7c f   kernel32:KERNEL32.dll
 0001:00079e90       _strrchr                   1007ae90 f   libvcruntime:strrchr.obj
 0001:0007a177       _memcmp                    1007b177 f   libvcruntime:_memcmp_.obj
 0001:0007dc5f       _wcschr                    1007ec5f f   libvcruntime:wcschr.obj
 0002:00000000       ___xc_a                    10081000     LIBCMT:initializers.obj
 0002:00000104       ___xc_z                    10081104     LIBCMT:initializers.obj
 0002:00000208       ___xi_a                    10081208     LIBCMT:initializers.obj
 0002:0000030c       ___acrt_stdio_initializer  1008130c     libucrt:stdio_initializer.obj
 0002:00000310       ___acrt_multibyte_initializer 10081310     libucrt:multibyte_initializer.obj
 0002:00000314       ___acrt_tran_sse2_initializer 10081314     libucrt:sse2_initializer.obj
 0002:0000041c       ___xi_z                    1008141c     LIBCMT:initializers.obj
 0002:00000520       ___xp_a                    10081520     LIBCMT:initializers.obj
 0002:00000624       ___acrt_locale_terminator  10081624     libucrt:locale_initializer.obj
 0002:00000628       ___dcrt_console_output_terminator 10081628     libucrt:console_output_initializer.obj
 0002:00000730       ___acrt_stdio_terminator   10081730     libucrt:stdio_initializer.obj
 0002:00000834       ___xp_z                    10081834     LIBCMT:initializers.obj
 0002:00000938       ___xt_a                    10081938     LIBCMT:initializers.obj
 0002:00000a3c       ___xt_z                    10081a3c     LIBCMT:initializers.obj
 0002:00000b40       _aaaqi_RGND                10081b40     aaaqi.obj
 0002:00000b48       _aaaqi_M                   10081b48     aaaqi.obj
 0002:00000b50       ??_C@_0BI@PAJNFNID@Error?5creating?5scope?55?6?$AA@ 10081b50     aaaqi.obj
 0002:00000b6c       ??_C@_0BO@JEGFKAKH@Subsystem2?1shoudong?1Chart?1p26?$AA@ 10081b6c     aaaqi.obj
 0002:00000b90       ??_C@_0BO@INHOJBOG@Subsystem2?1shoudong?1Chart?1p27?$AA@ 10081b90     aaaqi.obj
 0002:00000bb4       ??_C@_06KFNFIEK@?$CF15?46f?$AA@ 10081bb4     aaaqi.obj
 0002:00000bbc       ??_C@_0BI@PEBACBDB@Error?5creating?5scope?53?6?$AA@ 10081bbc     aaaqi.obj
 0002:00000bd8       ??_C@_0BP@BPJIAEHP@Subsystem2?1Multiport?5Switch?1s1?$AA@ 10081bd8     aaaqi.obj
 0002:00000c00       ??_C@_0BP@DELFFHLM@Subsystem2?1Multiport?5Switch?1s2?$AA@ 10081c00     aaaqi.obj
 0002:00000c28       ??_C@_0BP@CNKOGGPN@Subsystem2?1Multiport?5Switch?1s3?$AA@ 10081c28     aaaqi.obj
 0002:00000c50       ??_C@_0BP@GCOPPADK@Subsystem2?1Multiport?5Switch?1s4?$AA@ 10081c50     aaaqi.obj
 0002:00000c78       ??_C@_0BP@HLPEMBHL@Subsystem2?1Multiport?5Switch?1s5?$AA@ 10081c78     aaaqi.obj
 0002:00000ca0       ??_C@_0BP@FANJJCLI@Subsystem2?1Multiport?5Switch?1s6?$AA@ 10081ca0     aaaqi.obj
 0002:00000cc8       ??_C@_0BP@EJMCKDPJ@Subsystem2?1Multiport?5Switch?1s7?$AA@ 10081cc8     aaaqi.obj
 0002:00000cf0       ??_C@_0BP@MOFKLPDG@Subsystem2?1Multiport?5Switch?1s8?$AA@ 10081cf0     aaaqi.obj
 0002:00000d18       ??_C@_0BI@PHJEPFFP@Error?5creating?5scope?51?6?$AA@ 10081d18     aaaqi.obj
 0002:00000d34       ??_C@_0BJ@KJPPDLK@Data?5Type?5Conversion5?1s1?$AA@ 10081d34     aaaqi.obj
 0002:00000d54       ??_C@_0BJ@CBLCKAHJ@Data?5Type?5Conversion5?1s2?$AA@ 10081d54     aaaqi.obj
 0002:00000d74       ??_C@_0BJ@DIKJJBDI@Data?5Type?5Conversion5?1s3?$AA@ 10081d74     aaaqi.obj
 0002:00000d94       ??_C@_0BJ@HHOIAHPP@Data?5Type?5Conversion5?1s4?$AA@ 10081d94     aaaqi.obj
 0002:00000db4       ??_C@_0BJ@GOPDDGLO@Data?5Type?5Conversion5?1s5?$AA@ 10081db4     aaaqi.obj
 0002:00000dd4       ??_C@_0BI@PFNCELAG@Error?5creating?5scope?52?6?$AA@ 10081dd4     aaaqi.obj
 0002:00000df0       ??_C@_0BJ@HAFPKANK@Data?5Type?5Conversion7?1s1?$AA@ 10081df0     aaaqi.obj
 0002:00000e10       ??_C@_0BJ@FLHCPDBJ@Data?5Type?5Conversion7?1s2?$AA@ 10081e10     aaaqi.obj
 0002:00000e30       ??_C@_0BJ@ECGJMCFI@Data?5Type?5Conversion7?1s3?$AA@ 10081e30     aaaqi.obj
 0002:00000e50       ??_C@_0BJ@NCIFEJP@Data?5Type?5Conversion7?1s4?$AA@ 10081e50     aaaqi.obj
 0002:00000e70       ??_C@_0BJ@BEDDGFNO@Data?5Type?5Conversion7?1s5?$AA@ 10081e70     aaaqi.obj
 0002:00000e90       ??_C@_0BJ@DPBODGBN@Data?5Type?5Conversion7?1s6?$AA@ 10081e90     aaaqi.obj
 0002:00000eb0       ??_C@_0BJ@CGAFAHFM@Data?5Type?5Conversion7?1s7?$AA@ 10081eb0     aaaqi.obj
 0002:00000ed0       ??_C@_0BJ@KBJNBLJD@Data?5Type?5Conversion7?1s8?$AA@ 10081ed0     aaaqi.obj
 0002:00000ef0       ??_C@_0BJ@LIIGCKNC@Data?5Type?5Conversion7?1s9?$AA@ 10081ef0     aaaqi.obj
 0002:00000f10       ??_C@_0BK@LJDAFCJJ@Data?5Type?5Conversion7?1s10?$AA@ 10081f10     aaaqi.obj
 0002:00000f30       ??_C@_0BK@KACLGDNI@Data?5Type?5Conversion7?1s11?$AA@ 10081f30     aaaqi.obj
 0002:00000f50       ??_C@_0BI@PBFPDHLE@Error?5creating?5scope?54?6?$AA@ 10081f50     aaaqi.obj
 0002:00000f6c       ??_C@_0BK@BFBDLNEM@Data?5Type?5Conversion24?1s1?$AA@ 10081f6c     aaaqi.obj
 0002:00000f8c       ??_C@_0BK@DODOOOIP@Data?5Type?5Conversion24?1s2?$AA@ 10081f8c     aaaqi.obj
 0002:00000fac       ??_C@_0BK@CHCFNPMO@Data?5Type?5Conversion24?1s3?$AA@ 10081fac     aaaqi.obj
 0002:00000fcc       ??_C@_0BK@GIGEEJAJ@Data?5Type?5Conversion24?1s4?$AA@ 10081fcc     aaaqi.obj
 0002:00000fec       ??_C@_0BK@HBHPHIEI@Data?5Type?5Conversion24?1s5?$AA@ 10081fec     aaaqi.obj
 0002:0000100c       ??_C@_0BK@FKFCCLIL@Data?5Type?5Conversion24?1s6?$AA@ 1008200c     aaaqi.obj
 0002:0000102c       ??_C@_0BK@EDEJBKMK@Data?5Type?5Conversion24?1s7?$AA@ 1008202c     aaaqi.obj
 0002:0000104c       ??_C@_0BK@MENBAGAF@Data?5Type?5Conversion24?1s8?$AA@ 1008204c     aaaqi.obj
 0002:0000106c       ??_C@_0BK@NNMKDHEE@Data?5Type?5Conversion24?1s9?$AA@ 1008206c     aaaqi.obj
 0002:0000108c       ??_C@_0BL@KADJCIPF@Data?5Type?5Conversion24?1s10?$AA@ 1008208c     aaaqi.obj
 0002:000010ac       ??_C@_0BL@LJCCBJLE@Data?5Type?5Conversion24?1s11?$AA@ 100820ac     aaaqi.obj
 0002:000010cc       ??_C@_0BL@JCAPEKHH@Data?5Type?5Conversion24?1s12?$AA@ 100820cc     aaaqi.obj
 0002:000010ec       ??_C@_0BI@PCNLODNK@Error?5creating?5scope?56?6?$AA@ 100820ec     aaaqi.obj
 0002:00001108       ??_C@_0BK@FCLDMHJM@Data?5Type?5Conversion27?1s1?$AA@ 10082108     aaaqi.obj
 0002:00001128       ??_C@_0BK@GAIFKFBO@Data?5Type?5Conversion27?1s3?$AA@ 10082128     aaaqi.obj
 0002:00001148       ??_C@_0BK@DGNPACJI@Data?5Type?5Conversion27?1s5?$AA@ 10082148     aaaqi.obj
 0002:00001168       ??_C@_0BI@PDBJIJON@Error?5creating?5scope?57?6?$AA@ 10082168     aaaqi.obj
 0002:00001184       ??_C@_0CC@MIAOOJLC@chuanganqi?1CAN?5bit?9unpacking?55?1p@ 10082184     aaaqi.obj
 0002:000011ac       ??_C@_0CC@ODCDLKHB@chuanganqi?1CAN?5bit?9unpacking?55?1p@ 100821ac     aaaqi.obj
 0002:000011d4       ??_C@_0CC@PKDIILDA@chuanganqi?1CAN?5bit?9unpacking?55?1p@ 100821d4     aaaqi.obj
 0002:000011fc       ??_C@_0BC@OJJPBDHH@FixedStepDiscrete?$AA@ 100821fc     aaaqi.obj
 0002:00001214       ??_C@_04EPKDLPPB@tout?$AA@ 10082214     aaaqi.obj
 0002:0000121a       ??_C@_00CNPNBAHC@?$AA@     1008221a     aaaqi.obj
 0002:0000121c       ??_C@_03HBFGMJOD@rt_?$AA@  1008221c     aaaqi.obj
 0002:00001220       ??_C@_0M@JNFNAMK@PCI1716DIO1?$AA@ 10082220     aaaqi.obj
 0002:00001230       ??_C@_0BK@FFANOCMF@aaaqi?1PCI1716?1PCI1716DIO1?$AA@ 10082230     aaaqi.obj
 0002:00001250       ??_C@_0O@GHMOKHOA@PCI?96208A?5DA?5?$AA@ 10082250     aaaqi.obj
 0002:00001260       ??_C@_0BM@CBGBGBDD@aaaqi?1PCI6208?1PCI?96208A?5DA?5?$AA@ 10082260     aaaqi.obj
 0002:00001284       ??_C@_06LJFBBHBB@Setup?5?$AA@ 10082284     aaaqi.obj
 0002:0000128c       ??_C@_0BI@JIAOICIE@aaaqi?1chuanganqi?1Setup?5?$AA@ 1008228c     aaaqi.obj
 0002:000012a8       ??_C@_08MGPIFPJK@PCI?91784?$AA@ 100822a8     aaaqi.obj
 0002:000012b4       ??_C@_0P@OEHAIGCH@aaaqi?1PCI?91784?$AA@ 100822b4     aaaqi.obj
 0002:000012c8       __real@3d90898717660383    100822c8     aaaqi.obj
 0002:000012d8       __real@3d908987941b2364    100822d8     aaaqi.obj
 0002:000012e8       __real@3df7a45df0d9b4e6    100822e8     aaaqi.obj
 0002:000012f8       __real@3df9f61a130ebaee    100822f8     aaaqi.obj
 0002:00001308       __real@3e4e106771ba06bb    10082308     aaaqi.obj
 0002:00001318       __real@3e524b0130be3d37    10082318     aaaqi.obj
 0002:00001328       __real@3e966f6443ff4293    10082328     aaaqi.obj
 0002:00001338       __real@3e9e7641c5f26c23    10082338     aaaqi.obj
 0002:00001348       __real@3ed5e36f45ef8e41    10082348     aaaqi.obj
 0002:00001358       __real@3ee099d8aa22cd61    10082358     aaaqi.obj
 0002:00001368       __real@3f0d89cf8abc1bf7    10082368     aaaqi.obj
 0002:00001378       __real@3f18d32786b59822    10082378     aaaqi.obj
 0002:00001388       __real@3f3c8506ca8afcfc    10082388     aaaqi.obj
 0002:00001398       __real@3f4a0e46db88d036    10082398     aaaqi.obj
 0002:000013a8       __real@3f60624dd2f1a9fc    100823a8     aaaqi.obj
 0002:000013b8       __real@3f63d1b169c476cb    100823b8     aaaqi.obj
 0002:000013c8       __real@3f6402cf1054cd6f    100823c8     aaaqi.obj
 0002:000013d8       __real@3f737dffbd692755    100823d8     aaaqi.obj
 0002:000013e8       __real@3f747ae147ae147b    100823e8     aaaqi.obj
 0002:000013f8       __real@3f7acd98bd37950d    100823f8     aaaqi.obj
 0002:00001408       __real@3f841d3961119ee4    10082408     aaaqi.obj
 0002:00001418       __real@3f847ae147ae147b    10082418     aaaqi.obj
 0002:00001428       __real@3f91a4eb723d259d    10082428     aaaqi.obj
 0002:00001438       __real@3f947ae147ae147b    10082438     aaaqi.obj
 0002:00001448       __real@3f953ca6d2040211    10082448     aaaqi.obj
 0002:00001458       __real@3f9b9592ddd16352    10082458     aaaqi.obj
 0002:00001468       __real@3f9eb851eb851eb8    10082468     aaaqi.obj
 0002:00001478       __real@3faa535442bdb407    10082478     aaaqi.obj
 0002:00001488       __real@3fadea720405e6a1    10082488     aaaqi.obj
 0002:00001498       __real@3fb13b1bd5a941b7    10082498     aaaqi.obj
 0002:000014a8       __real@3fb3ac8c47fee351    100824a8     aaaqi.obj
 0002:000014b8       __real@3fba6e473326b514    100824b8     aaaqi.obj
 0002:000014c8       __real@3fc3e30b7c6eae05    100824c8     aaaqi.obj
 0002:000014d8       __real@3fc9ca7462fdd64b    100824d8     aaaqi.obj
 0002:000014e8       __real@3fdb9a241ea3f5a0    100824e8     aaaqi.obj
 0002:000014f8       __real@3fe0000000000000    100824f8     aaaqi.obj
 0002:00001508       __real@3ff0000000000000    10082508     aaaqi.obj
 0002:00001518       __real@4000000000000000    10082518     aaaqi.obj
 0002:00001528       __real@4001715afdc27a1d    10082528     aaaqi.obj
 0002:00001538       __real@400654f4a220e760    10082538     aaaqi.obj
 0002:00001548       __real@4008000000000000    10082548     aaaqi.obj
 0002:00001558       __real@4010000000000000    10082558     aaaqi.obj
 0002:00001568       __real@4014000000000000    10082568     aaaqi.obj
 0002:00001578       __real@4018000000000000    10082578     aaaqi.obj
 0002:00001588       __real@401c000000000000    10082588     aaaqi.obj
 0002:00001598       __real@4020000000000000    10082598     aaaqi.obj
 0002:000015a8       __real@4022000000000000    100825a8     aaaqi.obj
 0002:000015b8       __real@4024000000000000    100825b8     aaaqi.obj
 0002:000015c8       __real@4026000000000000    100825c8     aaaqi.obj
 0002:000015d8       __real@4028000000000000    100825d8     aaaqi.obj
 0002:000015e8       __real@402a000000000000    100825e8     aaaqi.obj
 0002:000015f8       __real@402c000000000000    100825f8     aaaqi.obj
 0002:00001608       __real@402e000000000000    10082608     aaaqi.obj
 0002:00001618       __real@4030000000000000    10082618     aaaqi.obj
 0002:00001628       __real@4034000f9367d0d3    10082628     aaaqi.obj
 0002:00001638       __real@406f400000000000    10082638     aaaqi.obj
 0002:00001648       __real@4070000000000000    10082648     aaaqi.obj
 0002:00001658       __real@4082c0002b39662d    10082658     aaaqi.obj
 0002:00001668       __real@41f0000000000000    10082668     aaaqi.obj
 0002:00001678       __real@4330000000000000    10082678     aaaqi.obj
 0002:00001688       __real@8000000000000000    10082688     aaaqi.obj
 0002:00001698       __real@bff0000000000000    10082698     aaaqi.obj
 0002:000016b0       __xmm@00000000000000003ff0000000000000 100826b0     aaaqi.obj
 0002:000016d0       __xmm@00000001000000010000000100000001 100826d0     aaaqi.obj
 0002:000016f0       __xmm@0000022e000001ca000002fb00000002 100826f0     aaaqi.obj
 0002:00001710       __xmm@3f60624dd2f1a9fc0000000000000000 10082710     aaaqi.obj
 0002:00001730       __xmm@3ff00000000000000000000000000000 10082730     aaaqi.obj
 0002:00001750       __xmm@3ff00000000000003ff0000000000000 10082750     aaaqi.obj
 0002:00001770       __xmm@41f00000000000000000000000000000 10082770     aaaqi.obj
 0002:00001790       __xmm@7fffffffffffffff7fffffffffffffff 10082790     aaaqi.obj
 0002:00007d8c       ??_C@_0N@BDJHIDIJ@diancifa11_3?$AA@ 10088d8c     aaaqi_capi.obj
 0002:00007d9c       ??_C@_0N@FMNGBFEO@diancifa11_4?$AA@ 10088d9c     aaaqi_capi.obj
 0002:00007dac       ??_C@_0N@JHFLIKHB@diancifa16_2?$AA@ 10088dac     aaaqi_capi.obj
 0002:00007dbc       ??_C@_0N@IOEALLDA@diancifa16_3?$AA@ 10088dbc     aaaqi_capi.obj
 0002:00007dcc       ??_C@_06EACHIIHE@jiting?$AA@ 10088dcc     aaaqi_capi.obj
 0002:00007dd8       ??_C@_0EJ@GMBKEKDP@?$CG?$CDx51F8?$DL?$CG?$CDx819C?$DL?$CG?$CDx4E0A?$DL?$CG?$CDx4E0B?$DL@ 10088dd8     aaaqi_capi.obj
 0002:00007e30       ??_C@_0EJ@OAADGPBD@?$CG?$CDx51F8?$DL?$CG?$CDx819C?$DL?$CG?$CDx4E0A?$DL?$CG?$CDx4E0B?$DL@ 10088e30     aaaqi_capi.obj
 0002:00007e88       ??_C@_0EB@CNHIOIFD@?$CG?$CDx5E26?$DL?$CG?$CDx6C14?$DL?$CG?$CDx6CE8?$DL?$CG?$CDx6C34?$DL@ 10088e88     aaaqi_capi.obj
 0002:00007ed8       ??_C@_0DB@KALGICGL@?$CG?$CDx6C34?$DL?$CG?$CDx8231?$DL?$CG?$CDx6700?$DL?$CG?$CDx5927?$DL@ 10088ed8     aaaqi_capi.obj
 0002:00007f14       ??_C@_0BG@OOMJLOH@Data?5Type?5Conversion1?$AA@ 10088f14     aaaqi_capi.obj
 0002:00007f30       ??_C@_0BH@OBCGKNLD@Data?5Type?5Conversion10?$AA@ 10088f30     aaaqi_capi.obj
 0002:00007f4c       ??_C@_0BH@PIDNJMPC@Data?5Type?5Conversion11?$AA@ 10088f4c     aaaqi_capi.obj
 0002:00007f68       ??_C@_0BH@NDBAMPDB@Data?5Type?5Conversion12?$AA@ 10088f68     aaaqi_capi.obj
 0002:00007f84       ??_C@_0BH@MKALPOHA@Data?5Type?5Conversion13?$AA@ 10088f84     aaaqi_capi.obj
 0002:00007fa0       ??_C@_0BH@IFEKGILH@Data?5Type?5Conversion14?$AA@ 10088fa0     aaaqi_capi.obj
 0002:00007fbc       ??_C@_0BH@JMFBFJPG@Data?5Type?5Conversion15?$AA@ 10088fbc     aaaqi_capi.obj
 0002:00007fd8       ??_C@_0BH@LHHMAKDF@Data?5Type?5Conversion16?$AA@ 10088fd8     aaaqi_capi.obj
 0002:00007ff4       ??_C@_0BH@KOGHDLHE@Data?5Type?5Conversion17?$AA@ 10088ff4     aaaqi_capi.obj
 0002:00008010       ??_C@_0BH@CJPPCHLL@Data?5Type?5Conversion18?$AA@ 10089010     aaaqi_capi.obj
 0002:0000802c       ??_C@_0BH@DAOEBGPK@Data?5Type?5Conversion19?$AA@ 1008902c     aaaqi_capi.obj
 0002:00008048       ??_C@_0BG@CFMBMICE@Data?5Type?5Conversion2?$AA@ 10089048     aaaqi_capi.obj
 0002:00008064       ??_C@_0BH@ODGABDOK@Data?5Type?5Conversion20?$AA@ 10089064     aaaqi_capi.obj
 0002:00008080       ??_C@_0BH@PKHLCCKL@Data?5Type?5Conversion21?$AA@ 10089080     aaaqi_capi.obj
 0002:0000809c       ??_C@_0BH@NBFGHBGI@Data?5Type?5Conversion22?$AA@ 1008909c     aaaqi_capi.obj
 0002:000080b8       ??_C@_0BH@MIENEACJ@Data?5Type?5Conversion23?$AA@ 100890b8     aaaqi_capi.obj
 0002:000080d4       ??_C@_0BH@IHAMNGOO@Data?5Type?5Conversion24?$AA@ 100890d4     aaaqi_capi.obj
 0002:000080f0       ??_C@_0BH@JOBHOHKP@Data?5Type?5Conversion25?$AA@ 100890f0     aaaqi_capi.obj
 0002:0000810c       ??_C@_0BH@LFDKLEGM@Data?5Type?5Conversion26?$AA@ 1008910c     aaaqi_capi.obj
 0002:00008128       ??_C@_0BH@KMCBIFCN@Data?5Type?5Conversion27?$AA@ 10089128     aaaqi_capi.obj
 0002:00008144       ??_C@_0BH@CLLJJJOC@Data?5Type?5Conversion28?$AA@ 10089144     aaaqi_capi.obj
 0002:00008160       ??_C@_0BH@DCKCKIKD@Data?5Type?5Conversion29?$AA@ 10089160     aaaqi_capi.obj
 0002:0000817c       ??_C@_0BG@DMNKPJGF@Data?5Type?5Conversion3?$AA@ 1008917c     aaaqi_capi.obj
 0002:00008198       ??_C@_0BH@OCKCHJNN@Data?5Type?5Conversion30?$AA@ 10089198     aaaqi_capi.obj
 0002:000081b4       ??_C@_0BH@PLLJEIJM@Data?5Type?5Conversion31?$AA@ 100891b4     aaaqi_capi.obj
 0002:000081d0       ??_C@_0BH@NAJEBLFP@Data?5Type?5Conversion32?$AA@ 100891d0     aaaqi_capi.obj
 0002:000081ec       ??_C@_0BH@MJIPCKBO@Data?5Type?5Conversion33?$AA@ 100891ec     aaaqi_capi.obj
 0002:00008208       ??_C@_0BH@IGMOLMNJ@Data?5Type?5Conversion34?$AA@ 10089208     aaaqi_capi.obj
 0002:00008224       ??_C@_0BH@JPNFINJI@Data?5Type?5Conversion35?$AA@ 10089224     aaaqi_capi.obj
 0002:00008240       ??_C@_0BG@HDJLGPKC@Data?5Type?5Conversion4?$AA@ 10089240     aaaqi_capi.obj
 0002:0000825c       ??_C@_0BG@GKIAFOOD@Data?5Type?5Conversion5?$AA@ 1008925c     aaaqi_capi.obj
 0002:00008278       ??_C@_0BG@EBKNANCA@Data?5Type?5Conversion6?$AA@ 10089278     aaaqi_capi.obj
 0002:00008294       ??_C@_0BG@FILGDMGB@Data?5Type?5Conversion7?$AA@ 10089294     aaaqi_capi.obj
 0002:000082b0       ??_C@_0BG@NPCOCAKO@Data?5Type?5Conversion8?$AA@ 100892b0     aaaqi_capi.obj
 0002:000082cc       ??_C@_0BG@MGDFBBOP@Data?5Type?5Conversion9?$AA@ 100892cc     aaaqi_capi.obj
 0002:000082e8       ??_C@_04OMOMKKFL@Gain?$AA@ 100892e8     aaaqi_capi.obj
 0002:000082f0       ??_C@_0BB@ILJOCOID@Logical?5Operator?$AA@ 100892f0     aaaqi_capi.obj
 0002:00008304       ??_C@_0BC@LCGHELAG@Logical?5Operator1?$AA@ 10089304     aaaqi_capi.obj
 0002:0000831c       ??_C@_0BD@DGJHPEIN@Logical?5Operator10?$AA@ 1008931c     aaaqi_capi.obj
 0002:00008334       ??_C@_0BD@CPIMMFMM@Logical?5Operator11?$AA@ 10089334     aaaqi_capi.obj
 0002:0000834c       ??_C@_0BD@EKBJGAP@Logical?5Operator12?$AA@ 1008934c     aaaqi_capi.obj
 0002:00008364       ??_C@_0BC@JJEKBIMF@Logical?5Operator2?$AA@ 10089364     aaaqi_capi.obj
 0002:0000837c       ??_C@_0BC@IAFBCJIE@Logical?5Operator3?$AA@ 1008937c     aaaqi_capi.obj
 0002:00008394       ??_C@_0BC@MPBALPED@Logical?5Operator4?$AA@ 10089394     aaaqi_capi.obj
 0002:000083ac       ??_C@_0BC@NGALIOAC@Logical?5Operator5?$AA@ 100893ac     aaaqi_capi.obj
 0002:000083c4       ??_C@_0BC@PNCGNNMB@Logical?5Operator6?$AA@ 100893c4     aaaqi_capi.obj
 0002:000083dc       ??_C@_0BC@OEDNOMIA@Logical?5Operator7?$AA@ 100893dc     aaaqi_capi.obj
 0002:000083f4       ??_C@_0BC@GDKFPAEP@Logical?5Operator8?$AA@ 100893f4     aaaqi_capi.obj
 0002:0000840c       ??_C@_0BC@HKLOMBAO@Logical?5Operator9?$AA@ 1008940c     aaaqi_capi.obj
 0002:00008424       ??_C@_0BB@KOPENPJA@1?9D?5Lookup?5Table?$AA@ 10089424     aaaqi_capi.obj
 0002:00008438       ??_C@_06LEBJIAPJ@Memory?$AA@ 10089438     aaaqi_capi.obj
 0002:00008440       ??_C@_07CIIFEIK@Memory1?$AA@ 10089440     aaaqi_capi.obj
 0002:0000844c       ??_C@_07CJKFAHEJ@Memory2?$AA@ 1008944c     aaaqi_capi.obj
 0002:00008458       ??_C@_0M@BEDMNGNP@PCI?91784?1p1?$AA@ 10089458     aaaqi_capi.obj
 0002:00008468       ??_C@_0M@DPBBIFBM@PCI?91784?1p2?$AA@ 10089468     aaaqi_capi.obj
 0002:00008478       ??_C@_0M@CGAKLEFN@PCI?91784?1p3?$AA@ 10089478     aaaqi_capi.obj
 0002:00008488       ??_C@_0M@GJELCCJK@PCI?91784?1p4?$AA@ 10089488     aaaqi_capi.obj
 0002:00008498       ??_C@_0M@HAFABDNL@PCI?91784?1p5?$AA@ 10089498     aaaqi_capi.obj
 0002:000084a8       ??_C@_0M@FLHNEABI@PCI?91784?1p6?$AA@ 100894a8     aaaqi_capi.obj
 0002:000084b8       ??_C@_0M@ECGGHBFJ@PCI?91784?1p7?$AA@ 100894b8     aaaqi_capi.obj
 0002:000084c8       ??_C@_0M@MFPOGNJG@PCI?91784?1p8?$AA@ 100894c8     aaaqi_capi.obj
 0002:000084d8       ??_C@_03LDFMNCOE@Add?$AA@  100894d8     aaaqi_capi.obj
 0002:000084dc       ??_C@_04GBIJHNAB@Add1?$AA@ 100894dc     aaaqi_capi.obj
 0002:000084e4       ??_C@_06PBEDFIPD@Switch?$AA@ 100894e4     aaaqi_capi.obj
 0002:000084ec       ??_C@_0BM@OOINMBFC@Compare?5To?5Constant?1Compare?$AA@ 100894ec     aaaqi_capi.obj
 0002:00008510       ??_C@_0BN@JOHKGFND@Compare?5To?5Constant1?1Compare?$AA@ 10089510     aaaqi_capi.obj
 0002:00008534       ??_C@_0BN@HFENNONA@Compare?5To?5Constant2?1Compare?$AA@ 10089534     aaaqi_capi.obj
 0002:00008558       ??_C@_0BN@JKIPLFOO@Compare?5To?5Constant3?1Compare?$AA@ 10089558     aaaqi_capi.obj
 0002:0000857c       ??_C@_0BB@MGCGPKBN@PCI1716?1constant?$AA@ 1008957c     aaaqi_capi.obj
 0002:00008590       ??_C@_0BN@ODNLAOPN@PCI1716?1Data?5Type?5Conversion?$AA@ 10089590     aaaqi_capi.obj
 0002:000085b4       ??_C@_0BO@FLCFCBN@PCI1716?1Data?5Type?5Conversion1?$AA@ 100895b4     aaaqi_capi.obj
 0002:000085d8       ??_C@_0BO@COJPABNO@PCI1716?1Data?5Type?5Conversion2?$AA@ 100895d8     aaaqi_capi.obj
 0002:000085fc       ??_C@_0BJ@LHLDBJGK@PCI1716?1Logical?5Operator?$AA@ 100895fc     aaaqi_capi.obj
 0002:0000861c       ??_C@_0BK@GLINDMON@PCI1716?1Logical?5Operator1?$AA@ 1008961c     aaaqi_capi.obj
 0002:0000863c       ??_C@_0BH@OGHBIFCM@PCI1716?1PCI1716DIO1?1p1?$AA@ 1008963c     aaaqi_capi.obj
 0002:00008658       ??_C@_0BH@MNFMNGOP@PCI1716?1PCI1716DIO1?1p2?$AA@ 10089658     aaaqi_capi.obj
 0002:00008674       ??_C@_0BN@JHIPLFF@PCI6208?1Data?5Type?5Conversion?$AA@ 10089674     aaaqi_capi.obj
 0002:00008698       ??_C@_0BD@JBLHFPKI@PCI6208?1Saturation?$AA@ 10089698     aaaqi_capi.obj
 0002:000086b0       ??_C@_0BE@BOMBJLDH@PCI6208?1Saturation1?$AA@ 100896b0     aaaqi_capi.obj
 0002:000086c8       ??_C@_0BE@DFOMMIPE@PCI6208?1Saturation2?$AA@ 100896c8     aaaqi_capi.obj
 0002:000086e0       ??_C@_0BE@CMPHPJLF@PCI6208?1Saturation3?$AA@ 100896e0     aaaqi_capi.obj
 0002:000086f8       ??_C@_0BE@GDLGGPHC@PCI6208?1Saturation4?$AA@ 100896f8     aaaqi_capi.obj
 0002:00008710       ??_C@_0BE@HKKNFODD@PCI6208?1Saturation5?$AA@ 10089710     aaaqi_capi.obj
 0002:00008728       ??_C@_0BE@FBIAANPA@PCI6208?1Saturation6?$AA@ 10089728     aaaqi_capi.obj
 0002:00008740       ??_C@_0BE@EIJLDMLB@PCI6208?1Saturation7?$AA@ 10089740     aaaqi_capi.obj
 0002:00008758       ??_C@_0BD@LBGOLMFA@Subsystem1?1Switch1?$AA@ 10089758     aaaqi_capi.obj
 0002:00008770       ??_C@_0BE@LEJMAJLL@Subsystem1?1Switch10?$AA@ 10089770     aaaqi_capi.obj
 0002:00008788       ??_C@_0BE@KNIHDIPK@Subsystem1?1Switch11?$AA@ 10089788     aaaqi_capi.obj
 0002:000087a0       ??_C@_0BE@IGKKGLDJ@Subsystem1?1Switch12?$AA@ 100897a0     aaaqi_capi.obj
 0002:000087b8       ??_C@_0BE@JPLBFKHI@Subsystem1?1Switch13?$AA@ 100897b8     aaaqi_capi.obj
 0002:000087d0       ??_C@_0BE@NAPAMMLP@Subsystem1?1Switch14?$AA@ 100897d0     aaaqi_capi.obj
 0002:000087e8       ??_C@_0BE@PLNNJPHM@Subsystem1?1Switch17?$AA@ 100897e8     aaaqi_capi.obj
 0002:00008800       ??_C@_0BE@HMEFIDLD@Subsystem1?1Switch18?$AA@ 10089800     aaaqi_capi.obj
 0002:00008818       ??_C@_0BD@JKEDOPJD@Subsystem1?1Switch2?$AA@ 10089818     aaaqi_capi.obj
 0002:00008830       ??_C@_0BD@IDFINONC@Subsystem1?1Switch3?$AA@ 10089830     aaaqi_capi.obj
 0002:00008848       ??_C@_0BD@MMBJEIBF@Subsystem1?1Switch4?$AA@ 10089848     aaaqi_capi.obj
 0002:00008860       ??_C@_0BD@NFACHJFE@Subsystem1?1Switch5?$AA@ 10089860     aaaqi_capi.obj
 0002:00008878       ??_C@_0BD@POCPCKJH@Subsystem1?1Switch6?$AA@ 10089878     aaaqi_capi.obj
 0002:00008890       ??_C@_0BD@OHDEBLNG@Subsystem1?1Switch7?$AA@ 10089890     aaaqi_capi.obj
 0002:000088a8       ??_C@_0BD@GAKMAHBJ@Subsystem1?1Switch8?$AA@ 100898a8     aaaqi_capi.obj
 0002:000088c0       ??_C@_0BD@HJLHDGFI@Subsystem1?1Switch9?$AA@ 100898c0     aaaqi_capi.obj
 0002:000088d8       ??_C@_0CB@NONNIIGN@Subsystem2?1Data?5Type?5Conversion1@ 100898d8     aaaqi_capi.obj
 0002:00008900       ??_C@_0CB@LKLBENGJ@Subsystem2?1Data?5Type?5Conversion5@ 10089900     aaaqi_capi.obj
 0002:00008928       ??_C@_0BM@GPNCGJJH@Subsystem2?1Logical?5Operator?$AA@ 10089928     aaaqi_capi.obj
 0002:0000894c       ??_C@_0BN@KIFJNDDM@Subsystem2?1Logical?5Operator1?$AA@ 1008994c     aaaqi_capi.obj
 0002:00008970       ??_C@_0BN@IDHEIAPP@Subsystem2?1Logical?5Operator2?$AA@ 10089970     aaaqi_capi.obj
 0002:00008994       ??_C@_0BN@JKGPLBLO@Subsystem2?1Logical?5Operator3?$AA@ 10089994     aaaqi_capi.obj
 0002:000089b8       ??_C@_0BM@JHMGNPAC@Subsystem2?1Multiport?5Switch?$AA@ 100899b8     aaaqi_capi.obj
 0002:000089dc       ??_C@_0BN@CIMEKAEB@Subsystem2?1Multiport?5Switch1?$AA@ 100899dc     aaaqi_capi.obj
 0002:00008a00       ??_C@_0BN@DOJPDIC@Subsystem2?1Multiport?5Switch2?$AA@ 10089a00     aaaqi_capi.obj
 0002:00008a24       ??_C@_0BN@BKPCMCMD@Subsystem2?1Multiport?5Switch3?$AA@ 10089a24     aaaqi_capi.obj
 0002:00008a48       ??_C@_0P@BCNGNPMN@Subsystem4?1Add?$AA@ 10089a48     aaaqi_capi.obj
 0002:00008a5c       ??_C@_0P@NJIKAMGI@Subsystem5?1Add?$AA@ 10089a5c     aaaqi_capi.obj
 0002:00008a70       ??_C@_0CA@NBMJKFGL@chuanganqi?1Data?5Type?5Conversion?$AA@ 10089a70     aaaqi_capi.obj
 0002:00008a98       ??_C@_0CB@BMOMHGMH@chuanganqi?1Data?5Type?5Conversion1@ 10089a98     aaaqi_capi.obj
 0002:00008ac0       ??_C@_0CC@NKFKINJG@chuanganqi?1Data?5Type?5Conversion1@ 10089ac0     aaaqi_capi.obj
 0002:00008ae8       ??_C@_0CC@MDEBLMNH@chuanganqi?1Data?5Type?5Conversion1@ 10089ae8     aaaqi_capi.obj
 0002:00008b10       ??_C@_0CC@OIGMOPBE@chuanganqi?1Data?5Type?5Conversion1@ 10089b10     aaaqi_capi.obj
 0002:00008b38       ??_C@_0CC@PBHHNOFF@chuanganqi?1Data?5Type?5Conversion1@ 10089b38     aaaqi_capi.obj
 0002:00008b60       ??_C@_0CC@LODGEIJC@chuanganqi?1Data?5Type?5Conversion1@ 10089b60     aaaqi_capi.obj
 0002:00008b88       ??_C@_0CC@KHCNHJND@chuanganqi?1Data?5Type?5Conversion1@ 10089b88     aaaqi_capi.obj
 0002:00008bb0       ??_C@_0CC@IMAACKBA@chuanganqi?1Data?5Type?5Conversion1@ 10089bb0     aaaqi_capi.obj
 0002:00008bd8       ??_C@_0CC@JFBLBLFB@chuanganqi?1Data?5Type?5Conversion1@ 10089bd8     aaaqi_capi.obj
 0002:00008c00       ??_C@_0CC@BCIDAHJO@chuanganqi?1Data?5Type?5Conversion1@ 10089c00     aaaqi_capi.obj
 0002:00008c28       ??_C@_0CC@LJIDGNP@chuanganqi?1Data?5Type?5Conversion1@ 10089c28     aaaqi_capi.obj
 0002:00008c50       ??_C@_0CB@DHMBCFAE@chuanganqi?1Data?5Type?5Conversion2@ 10089c50     aaaqi_capi.obj
 0002:00008c78       ??_C@_0CC@NIBMDDMP@chuanganqi?1Data?5Type?5Conversion2@ 10089c78     aaaqi_capi.obj
 0002:00008ca0       ??_C@_0CC@MBAHACIO@chuanganqi?1Data?5Type?5Conversion2@ 10089ca0     aaaqi_capi.obj
 0002:00008cc8       ??_C@_0CC@OKCKFBEN@chuanganqi?1Data?5Type?5Conversion2@ 10089cc8     aaaqi_capi.obj
 0002:00008cf0       ??_C@_0CC@PDDBGAAM@chuanganqi?1Data?5Type?5Conversion2@ 10089cf0     aaaqi_capi.obj
 0002:00008d18       ??_C@_0CC@LMHAPGML@chuanganqi?1Data?5Type?5Conversion2@ 10089d18     aaaqi_capi.obj
 0002:00008d40       ??_C@_0CC@KFGLMHIK@chuanganqi?1Data?5Type?5Conversion2@ 10089d40     aaaqi_capi.obj
 0002:00008d68       ??_C@_0CC@IOEGJEEJ@chuanganqi?1Data?5Type?5Conversion2@ 10089d68     aaaqi_capi.obj
 0002:00008d90       ??_C@_0CC@JHFNKFAI@chuanganqi?1Data?5Type?5Conversion2@ 10089d90     aaaqi_capi.obj
 0002:00008db8       ??_C@_0CC@BAMFLJMH@chuanganqi?1Data?5Type?5Conversion2@ 10089db8     aaaqi_capi.obj
 0002:00008de0       ??_C@_0CC@JNOIIIG@chuanganqi?1Data?5Type?5Conversion2@ 10089de0     aaaqi_capi.obj
 0002:00008e08       ??_C@_0CB@CONKBEEF@chuanganqi?1Data?5Type?5Conversion3@ 10089e08     aaaqi_capi.obj
 0002:00008e30       ??_C@_0CC@NJNOFJPI@chuanganqi?1Data?5Type?5Conversion3@ 10089e30     aaaqi_capi.obj
 0002:00008e58       ??_C@_0CC@MAMFGILJ@chuanganqi?1Data?5Type?5Conversion3@ 10089e58     aaaqi_capi.obj
 0002:00008e80       ??_C@_0CC@OLOIDLHK@chuanganqi?1Data?5Type?5Conversion3@ 10089e80     aaaqi_capi.obj
 0002:00008ea8       ??_C@_0CC@PCPDAKDL@chuanganqi?1Data?5Type?5Conversion3@ 10089ea8     aaaqi_capi.obj
 0002:00008ed0       ??_C@_0CC@LNLCJMPM@chuanganqi?1Data?5Type?5Conversion3@ 10089ed0     aaaqi_capi.obj
 0002:00008ef8       ??_C@_0CC@KEKJKNLN@chuanganqi?1Data?5Type?5Conversion3@ 10089ef8     aaaqi_capi.obj
 0002:00008f20       ??_C@_0CC@IPIEPOHO@chuanganqi?1Data?5Type?5Conversion3@ 10089f20     aaaqi_capi.obj
 0002:00008f48       ??_C@_0CC@JGJPMPDP@chuanganqi?1Data?5Type?5Conversion3@ 10089f48     aaaqi_capi.obj
 0002:00008f70       ??_C@_0CC@BBAHNDPA@chuanganqi?1Data?5Type?5Conversion3@ 10089f70     aaaqi_capi.obj
 0002:00008f98       ??_C@_0CC@IBMOCLB@chuanganqi?1Data?5Type?5Conversion3@ 10089f98     aaaqi_capi.obj
 0002:00008fc0       ??_C@_0CB@GBJLICIC@chuanganqi?1Data?5Type?5Conversion4@ 10089fc0     aaaqi_capi.obj
 0002:00008fe8       ??_C@_0CC@NMJBEPHN@chuanganqi?1Data?5Type?5Conversion4@ 10089fe8     aaaqi_capi.obj
 0002:00009010       ??_C@_0CC@MFIKHODM@chuanganqi?1Data?5Type?5Conversion4@ 1008a010     aaaqi_capi.obj
 0002:00009038       ??_C@_0CC@OOKHCNPP@chuanganqi?1Data?5Type?5Conversion4@ 1008a038     aaaqi_capi.obj
 0002:00009060       ??_C@_0CC@PHLMBMLO@chuanganqi?1Data?5Type?5Conversion4@ 1008a060     aaaqi_capi.obj
 0002:00009088       ??_C@_0CC@LIPNIKHJ@chuanganqi?1Data?5Type?5Conversion4@ 1008a088     aaaqi_capi.obj
 0002:000090b0       ??_C@_0CC@KBOGLLDI@chuanganqi?1Data?5Type?5Conversion4@ 1008a0b0     aaaqi_capi.obj
 0002:000090d8       ??_C@_0CC@IKMLOIPL@chuanganqi?1Data?5Type?5Conversion4@ 1008a0d8     aaaqi_capi.obj
 0002:00009100       ??_C@_0CC@JDNANJLK@chuanganqi?1Data?5Type?5Conversion4@ 1008a100     aaaqi_capi.obj
 0002:00009128       ??_C@_0CC@BEEIMFHF@chuanganqi?1Data?5Type?5Conversion4@ 1008a128     aaaqi_capi.obj
 0002:00009150       ??_C@_0CC@NFDPEDE@chuanganqi?1Data?5Type?5Conversion4@ 1008a150     aaaqi_capi.obj
 0002:00009178       ??_C@_0CB@HIIALDMD@chuanganqi?1Data?5Type?5Conversion5@ 1008a178     aaaqi_capi.obj
 0002:000091a0       ??_C@_0CC@NNFDCFEK@chuanganqi?1Data?5Type?5Conversion5@ 1008a1a0     aaaqi_capi.obj
 0002:000091c8       ??_C@_0CC@MEEIBEAL@chuanganqi?1Data?5Type?5Conversion5@ 1008a1c8     aaaqi_capi.obj
 0002:000091f0       ??_C@_0CC@OPGFEHMI@chuanganqi?1Data?5Type?5Conversion5@ 1008a1f0     aaaqi_capi.obj
 0002:00009218       ??_C@_0CC@PGHOHGIJ@chuanganqi?1Data?5Type?5Conversion5@ 1008a218     aaaqi_capi.obj
 0002:00009240       ??_C@_0CC@LJDPOAEO@chuanganqi?1Data?5Type?5Conversion5@ 1008a240     aaaqi_capi.obj
 0002:00009268       ??_C@_0CB@FDKNOAAA@chuanganqi?1Data?5Type?5Conversion6@ 1008a268     aaaqi_capi.obj
 0002:00009290       ??_C@_0CB@EKLGNBEB@chuanganqi?1Data?5Type?5Conversion7@ 1008a290     aaaqi_capi.obj
 0002:000092b8       ??_C@_0CB@MNCOMNIO@chuanganqi?1Data?5Type?5Conversion8@ 1008a2b8     aaaqi_capi.obj
 0002:000092e0       ??_C@_0CB@NEDFPMMP@chuanganqi?1Data?5Type?5Conversion9@ 1008a2e0     aaaqi_capi.obj
 0002:00009308       ??_C@_0BM@FPGLLEBA@chuanganqi?1Logical?5Operator?$AA@ 1008a308     aaaqi_capi.obj
 0002:0000932c       ??_C@_0BN@NLLFHMGC@chuanganqi?1Logical?5Operator1?$AA@ 1008a32c     aaaqi_capi.obj
 0002:00009350       ??_C@_0BM@HKABEFAD@chuanganqi?11?9D?5Lookup?5Table?$AA@ 1008a350     aaaqi_capi.obj
 0002:00009374       ??_C@_0BN@FPCOFHEN@chuanganqi?11?9D?5Lookup?5Table1?$AA@ 1008a374     aaaqi_capi.obj
 0002:00009398       ??_C@_0BN@HEADAEIO@chuanganqi?11?9D?5Lookup?5Table2?$AA@ 1008a398     aaaqi_capi.obj
 0002:000093bc       ??_C@_0BN@GNBIDFMP@chuanganqi?11?9D?5Lookup?5Table3?$AA@ 1008a3bc     aaaqi_capi.obj
 0002:000093e0       ??_C@_0BN@CCFJKDAI@chuanganqi?11?9D?5Lookup?5Table4?$AA@ 1008a3e0     aaaqi_capi.obj
 0002:00009404       ??_C@_0BN@DLECJCEJ@chuanganqi?11?9D?5Lookup?5Table5?$AA@ 1008a404     aaaqi_capi.obj
 0002:00009428       ??_C@_0BN@BAGPMBIK@chuanganqi?11?9D?5Lookup?5Table6?$AA@ 1008a428     aaaqi_capi.obj
 0002:0000944c       ??_C@_0BD@OHCLJOBK@chuanganqi?1Product?$AA@ 1008a44c     aaaqi_capi.obj
 0002:00009464       ??_C@_0BE@DLNINFFG@chuanganqi?1Product1?$AA@ 1008a464     aaaqi_capi.obj
 0002:0000947c       ??_C@_0BM@KIHOAJN@chuanganqi?1CAN?5bit?9packing?5?$AA@ 1008a47c     aaaqi_capi.obj
 0002:000094a0       ??_C@_0BN@EIOJGPKL@chuanganqi?1CAN?5bit?9packing?51?$AA@ 1008a4a0     aaaqi_capi.obj
 0002:000094c4       ??_C@_0BN@GDMEDMGI@chuanganqi?1CAN?5bit?9packing?52?$AA@ 1008a4c4     aaaqi_capi.obj
 0002:000094e8       ??_C@_0BN@HKNPANCJ@chuanganqi?1CAN?5bit?9packing?53?$AA@ 1008a4e8     aaaqi_capi.obj
 0002:0000950c       ??_C@_0BN@DFJOJLOO@chuanganqi?1CAN?5bit?9packing?54?$AA@ 1008a50c     aaaqi_capi.obj
 0002:00009530       ??_C@_0CC@HKCODFKC@chuanganqi?1CAN?5bit?9unpacking?52?1p@ 1008a530     aaaqi_capi.obj
 0002:00009558       ??_C@_0CC@FBADGGGB@chuanganqi?1CAN?5bit?9unpacking?52?1p@ 1008a558     aaaqi_capi.obj
 0002:00009580       ??_C@_0CC@EIBIFHCA@chuanganqi?1CAN?5bit?9unpacking?52?1p@ 1008a580     aaaqi_capi.obj
 0002:000095a8       ??_C@_0CC@HFJMBOH@chuanganqi?1CAN?5bit?9unpacking?52?1p@ 1008a5a8     aaaqi_capi.obj
 0002:000095d0       ??_C@_0CC@BOECPAKG@chuanganqi?1CAN?5bit?9unpacking?52?1p@ 1008a5d0     aaaqi_capi.obj
 0002:000095f8       ??_C@_0CC@DFGPKDGF@chuanganqi?1CAN?5bit?9unpacking?52?1p@ 1008a5f8     aaaqi_capi.obj
 0002:00009620       ??_C@_0CC@CMHEJCCE@chuanganqi?1CAN?5bit?9unpacking?52?1p@ 1008a620     aaaqi_capi.obj
 0002:00009648       ??_C@_0CC@KLOMIOOL@chuanganqi?1CAN?5bit?9unpacking?52?1p@ 1008a648     aaaqi_capi.obj
 0002:00009670       ??_C@_0CC@LCPHLPKK@chuanganqi?1CAN?5bit?9unpacking?52?1p@ 1008a670     aaaqi_capi.obj
 0002:00009698       ??_C@_0CD@OHOENKAC@chuanganqi?1CAN?5bit?9unpacking?52?1p@ 1008a698     aaaqi_capi.obj
 0002:000096c4       ??_C@_0CD@POPPOLED@chuanganqi?1CAN?5bit?9unpacking?52?1p@ 1008a6c4     aaaqi_capi.obj
 0002:000096f0       ??_C@_0CD@NFNCLIIA@chuanganqi?1CAN?5bit?9unpacking?52?1p@ 1008a6f0     aaaqi_capi.obj
 0002:0000971c       ??_C@_0CD@MMMJIJMB@chuanganqi?1CAN?5bit?9unpacking?52?1p@ 1008a71c     aaaqi_capi.obj
 0002:00009748       ??_C@_0CD@IDIIBPAG@chuanganqi?1CAN?5bit?9unpacking?52?1p@ 1008a748     aaaqi_capi.obj
 0002:00009774       ??_C@_0CD@JKJDCOEH@chuanganqi?1CAN?5bit?9unpacking?52?1p@ 1008a774     aaaqi_capi.obj
 0002:000097a0       ??_C@_0CD@LBLOHNIE@chuanganqi?1CAN?5bit?9unpacking?52?1p@ 1008a7a0     aaaqi_capi.obj
 0002:000097cc       ??_C@_0CC@EHEOBMBC@chuanganqi?1CAN?5bit?9unpacking?53?1p@ 1008a7cc     aaaqi_capi.obj
 0002:000097f4       ??_C@_0CC@GMGDEPNB@chuanganqi?1CAN?5bit?9unpacking?53?1p@ 1008a7f4     aaaqi_capi.obj
 0002:0000981c       ??_C@_0CC@HFHIHOJA@chuanganqi?1CAN?5bit?9unpacking?53?1p@ 1008a81c     aaaqi_capi.obj
 0002:00009844       ??_C@_0CC@DKDJOIFH@chuanganqi?1CAN?5bit?9unpacking?53?1p@ 1008a844     aaaqi_capi.obj
 0002:0000986c       ??_C@_0CC@PFGOMAAC@chuanganqi?1CAN?5bit?9unpacking?54?1p@ 1008a86c     aaaqi_capi.obj
 0002:00009894       ??_C@_0CC@NOEDJDMB@chuanganqi?1CAN?5bit?9unpacking?54?1p@ 1008a894     aaaqi_capi.obj
 0002:000098bc       ??_C@_0CC@IPKOJDGC@chuanganqi?1CAN?5bit?9unpacking?56?1p@ 1008a8bc     aaaqi_capi.obj
 0002:000098e4       ??_C@_0CC@KEIDMAKB@chuanganqi?1CAN?5bit?9unpacking?56?1p@ 1008a8e4     aaaqi_capi.obj
 0002:0000990c       ??_C@_0CC@LCMOLKNC@chuanganqi?1CAN?5bit?9unpacking?57?1p@ 1008a90c     aaaqi_capi.obj
 0002:00009934       ??_C@_0CC@JJODOJBB@chuanganqi?1CAN?5bit?9unpacking?57?1p@ 1008a934     aaaqi_capi.obj
 0002:0000995c       ??_C@_0CC@IAPINIFA@chuanganqi?1CAN?5bit?9unpacking?57?1p@ 1008a95c     aaaqi_capi.obj
 0002:00009984       ??_C@_0CC@MPLJEOJH@chuanganqi?1CAN?5bit?9unpacking?57?1p@ 1008a984     aaaqi_capi.obj
 0002:000099ac       ??_C@_0BP@BNJHHMPD@chuanganqi?1CAN?5bit?9unpacking?58?$AA@ 1008a9ac     aaaqi_capi.obj
 0002:000099d4       ??_C@_0CC@NPOAELD@chuanganqi?1CAN?5bit?9unpacking?59?1p@ 1008a9d4     aaaqi_capi.obj
 0002:000099fc       ??_C@_0CC@CGNDFHHA@chuanganqi?1CAN?5bit?9unpacking?59?1p@ 1008a9fc     aaaqi_capi.obj
 0002:00009a24       ??_C@_0CC@DPMIGGDB@chuanganqi?1CAN?5bit?9unpacking?59?1p@ 1008aa24     aaaqi_capi.obj
 0002:00009a4c       ??_C@_0BP@JNOOMEDF@chuanganqi?1kaiguangaiweiyi3402?$AA@ 1008aa4c     aaaqi_capi.obj
 0002:00009a74       ??_C@_0CK@HLAFJDAN@chuanganqi?1liuliangji_fuqiuyewei@ 1008aa74     aaaqi_capi.obj
 0002:00009aa8       ??_C@_0L@HCDOBLHP@liuliangji?$AA@ 1008aaa8     aaaqi_capi.obj
 0002:00009ab8       ??_C@_0CK@FACIMAMO@chuanganqi?1liuliangji_fuqiuyewei@ 1008aab8     aaaqi_capi.obj
 0002:00009aec       ??_C@_0BO@KHHJLOAJ@chuanganqi?1tonggai1808Receive?$AA@ 1008aaec     aaaqi_capi.obj
 0002:00009b10       ??_C@_0CB@FOPHGJNB@chuanganqi?1tonggai3402Receive?1p1@ 1008ab10     aaaqi_capi.obj
 0002:00009b38       ??_C@_0CB@HFNKDKBC@chuanganqi?1tonggai3402Receive?1p2@ 1008ab38     aaaqi_capi.obj
 0002:00009b60       ??_C@_0CB@PNAHGNAN@chuanganqi?1yalichuanganqi3402?1p1@ 1008ab60     aaaqi_capi.obj
 0002:00009b88       ??_C@_0CB@NGCKDOMO@chuanganqi?1yalichuanganqi3402?1p2@ 1008ab88     aaaqi_capi.obj
 0002:00009bb0       ??_C@_0BA@FDDIAOKL@chuanganqi?1Step?$AA@ 1008abb0     aaaqi_capi.obj
 0002:00009bc4       ??_C@_0BB@IHAKEFNM@chuanganqi?1Step1?$AA@ 1008abc4     aaaqi_capi.obj
 0002:00009bd8       ??_C@_0BJ@IIPNOMNM@chuanganqi?1Manual?5Switch?$AA@ 1008abd8     aaaqi_capi.obj
 0002:00009bf8       ??_C@_0BK@EJLAGEKB@chuanganqi?1Manual?5Switch1?$AA@ 1008abf8     aaaqi_capi.obj
 0002:00009c18       ??_C@_0BK@GCJNDHGC@chuanganqi?1Manual?5Switch2?$AA@ 1008ac18     aaaqi_capi.obj
 0002:00009c38       ??_C@_0BK@HLIGAGCD@chuanganqi?1Manual?5Switch3?$AA@ 1008ac38     aaaqi_capi.obj
 0002:00009c58       ??_C@_0BK@DEMHJAOE@chuanganqi?1Manual?5Switch4?$AA@ 1008ac58     aaaqi_capi.obj
 0002:00009c78       ??_C@_0BF@NANEGONG@guangaiquxian?1Chart1?$AA@ 1008ac78     aaaqi_capi.obj
 0002:00009c94       ??_C@_0BC@EBNMFNPP@guangaiquxian?1Fcn?$AA@ 1008ac94     aaaqi_capi.obj
 0002:00009cac       ??_C@_0BJ@BFHDKPJ@guangaiquxian?1Saturation?$AA@ 1008acac     aaaqi_capi.obj
 0002:00009ccc       ??_C@_0BK@CDNBKDA@guangaiquxian?1Saturation1?$AA@ 1008accc     aaaqi_capi.obj
 0002:00009cec       ??_C@_0BC@CDKLJLEJ@guangaiquxian?1Add?$AA@ 1008acec     aaaqi_capi.obj
 0002:00009d04       ??_C@_0BJ@NEEPCPM@jinjichuli?1jinjichuli?1p1?$AA@ 1008ad04     aaaqi_capi.obj
 0002:00009d24       ??_C@_0BJ@CGGJKBDP@jinjichuli?1jinjichuli?1p2?$AA@ 1008ad24     aaaqi_capi.obj
 0002:00009d44       ??_C@_0BJ@DPHCJAHO@jinjichuli?1jinjichuli?1p3?$AA@ 1008ad44     aaaqi_capi.obj
 0002:00009d64       ??_C@_0BJ@HADDAGLJ@jinjichuli?1jinjichuli?1p4?$AA@ 1008ad64     aaaqi_capi.obj
 0002:00009d84       ??_C@_0BJ@GJCIDHPI@jinjichuli?1jinjichuli?1p5?$AA@ 1008ad84     aaaqi_capi.obj
 0002:00009da4       ??_C@_0BJ@ECAFGEDL@jinjichuli?1jinjichuli?1p6?$AA@ 1008ada4     aaaqi_capi.obj
 0002:00009dc4       ??_C@_0BJ@FLBOFFHK@jinjichuli?1jinjichuli?1p7?$AA@ 1008adc4     aaaqi_capi.obj
 0002:00009de4       ??_C@_0BJ@NMIGEJLF@jinjichuli?1jinjichuli?1p8?$AA@ 1008ade4     aaaqi_capi.obj
 0002:00009e04       ??_C@_0BJ@MFJNHIPE@jinjichuli?1jinjichuli?1p9?$AA@ 1008ae04     aaaqi_capi.obj
 0002:00009e24       ??_C@_0BK@GLEAMMDG@jinjichuli?1jinjichuli?1p10?$AA@ 1008ae24     aaaqi_capi.obj
 0002:00009e44       ??_C@_0BK@HCFLPNHH@jinjichuli?1jinjichuli?1p11?$AA@ 1008ae44     aaaqi_capi.obj
 0002:00009e64       ??_C@_0BK@FJHGKOLE@jinjichuli?1jinjichuli?1p12?$AA@ 1008ae64     aaaqi_capi.obj
 0002:00009e84       ??_C@_0BK@EAGNJPPF@jinjichuli?1jinjichuli?1p13?$AA@ 1008ae84     aaaqi_capi.obj
 0002:00009ea4       ??_C@_0BK@PCMAJDC@jinjichuli?1jinjichuli?1p14?$AA@ 1008aea4     aaaqi_capi.obj
 0002:00009ec4       ??_C@_0BK@BGDHDIHD@jinjichuli?1jinjichuli?1p15?$AA@ 1008aec4     aaaqi_capi.obj
 0002:00009ee4       ??_C@_0BK@DNBKGLLA@jinjichuli?1jinjichuli?1p16?$AA@ 1008aee4     aaaqi_capi.obj
 0002:00009f04       ??_C@_0BD@FJJGHEGE@kaigaiquxian?1Chart?$AA@ 1008af04     aaaqi_capi.obj
 0002:00009f1c       ??_C@_0BB@CELJMPMK@kaigaiquxian?1Fcn?$AA@ 1008af1c     aaaqi_capi.obj
 0002:00009f30       ??_C@_0BI@PGIIPIEI@kaigaiquxian?1Saturation?$AA@ 1008af30     aaaqi_capi.obj
 0002:00009f4c       ??_C@_0BJ@LOKMEGOI@kaigaiquxian?1Saturation1?$AA@ 1008af4c     aaaqi_capi.obj
 0002:00009f6c       ??_C@_0BB@EGMOAJHM@kaigaiquxian?1Add?$AA@ 1008af6c     aaaqi_capi.obj
 0002:00009f80       ??_C@_0BB@PPBDHLF@tiaoshifa?1fa11_1?$AA@ 1008af80     aaaqi_capi.obj
 0002:00009f94       ??_C@_0BB@CENMGEHG@tiaoshifa?1fa11_2?$AA@ 1008af94     aaaqi_capi.obj
 0002:00009fa8       ??_C@_0BB@GLJNPCLB@tiaoshifa?1fa11_5?$AA@ 1008afa8     aaaqi_capi.obj
 0002:00009fbc       ??_C@_0BB@JCCGAPAM@tiaoshifa?1fa16_1?$AA@ 1008afbc     aaaqi_capi.obj
 0002:00009fd0       ??_C@_0BB@HCPJHIDP@tiaoshifa?1fa18_1?$AA@ 1008afd0     aaaqi_capi.obj
 0002:00009fe4       ??_C@_0BB@FJNECLPM@tiaoshifa?1fa18_2?$AA@ 1008afe4     aaaqi_capi.obj
 0002:00009ff8       ??_C@_0BB@EAMPBKLN@tiaoshifa?1fa18_3?$AA@ 1008aff8     aaaqi_capi.obj
 0002:0000a00c       ??_C@_0BB@PIOIMHK@tiaoshifa?1fa18_4?$AA@ 1008b00c     aaaqi_capi.obj
 0002:0000a020       ??_C@_0P@PKOKMIJN@tiaoshifa?1fa20?$AA@ 1008b020     aaaqi_capi.obj
 0002:0000a034       ??_C@_0P@ODPBPJNM@tiaoshifa?1fa21?$AA@ 1008b034     aaaqi_capi.obj
 0002:0000a048       ??_C@_0O@NKDHPPPD@tiaoshifa?1fa3?$AA@ 1008b048     aaaqi_capi.obj
 0002:0000a058       ??_C@_0BB@ELNKFPKF@tiaoshifa?1fa_kgg?$AA@ 1008b058     aaaqi_capi.obj
 0002:0000a06c       ??_C@_0BJ@NBIMFADG@tiaoshifa?1jiesuomingling?$AA@ 1008b06c     aaaqi_capi.obj
 0002:0000a08c       ??_C@_0BK@OJHBBGGM@tiaoshifa?1suodingmingling?$AA@ 1008b08c     aaaqi_capi.obj
 0002:0000a0ac       ??_C@_0BK@OANOOCMO@tiaoshifa?1xuanjinmingling?$AA@ 1008b0ac     aaaqi_capi.obj
 0002:0000a0cc       ??_C@_0BL@GPJNDEGN@tiaoshifa?1xuansongmingling?$AA@ 1008b0cc     aaaqi_capi.obj
 0002:0000a0ec       ??_C@_0BI@HDLPCAFP@Subsystem2?1husuo?1Memory?$AA@ 1008b0ec     aaaqi_capi.obj
 0002:0000a108       ??_C@_0BJ@DNPKPEPH@Subsystem2?1husuo?1Memory1?$AA@ 1008b108     aaaqi_capi.obj
 0002:0000a128       ??_C@_0BI@DGOFPIFF@Subsystem2?1husuo?1Switch?$AA@ 1008b128     aaaqi_capi.obj
 0002:0000a144       ??_C@_0BJ@PGEHBEPC@Subsystem2?1husuo?1Switch2?$AA@ 1008b144     aaaqi_capi.obj
 0002:0000a164       ??_C@_0BJ@DHHBMJIK@Subsystem2?1husuo1?1Memory?$AA@ 1008b164     aaaqi_capi.obj
 0002:0000a184       ??_C@_0BK@MLAHBMEF@Subsystem2?1husuo1?1Memory1?$AA@ 1008b184     aaaqi_capi.obj
 0002:0000a1a4       ??_C@_0BJ@HCCLBBIA@Subsystem2?1husuo1?1Switch?$AA@ 1008b1a4     aaaqi_capi.obj
 0002:0000a1c4       ??_C@_0BK@LKPMEA@Subsystem2?1husuo1?1Switch2?$AA@ 1008b1c4     aaaqi_capi.obj
 0002:0000a1e4       ??_C@_0BJ@OPMPFEP@Subsystem2?1husuo2?1Memory?$AA@ 1008b1e4     aaaqi_capi.obj
 0002:0000a204       ??_C@_0BK@CADAKHEG@Subsystem2?1husuo2?1Memory1?$AA@ 1008b204     aaaqi_capi.obj
 0002:0000a224       ??_C@_0BJ@ELKGCNEF@Subsystem2?1husuo2?1Switch?$AA@ 1008b224     aaaqi_capi.obj
 0002:0000a244       ??_C@_0BK@OLINEHED@Subsystem2?1husuo2?1Switch2?$AA@ 1008b244     aaaqi_capi.obj
 0002:0000a264       ??_C@_0BN@OFAMOFND@Subsystem2?1shoudong?1Chart?1p1?$AA@ 1008b264     aaaqi_capi.obj
 0002:0000a288       ??_C@_0BN@MOCBLGBA@Subsystem2?1shoudong?1Chart?1p2?$AA@ 1008b288     aaaqi_capi.obj
 0002:0000a2ac       ??_C@_0BN@NHDKIHFB@Subsystem2?1shoudong?1Chart?1p3?$AA@ 1008b2ac     aaaqi_capi.obj
 0002:0000a2d0       ??_C@_0BN@JIHLBBJG@Subsystem2?1shoudong?1Chart?1p4?$AA@ 1008b2d0     aaaqi_capi.obj
 0002:0000a2f4       ??_C@_0BN@IBGACANH@Subsystem2?1shoudong?1Chart?1p5?$AA@ 1008b2f4     aaaqi_capi.obj
 0002:0000a318       ??_C@_0BN@KKENHDBE@Subsystem2?1shoudong?1Chart?1p6?$AA@ 1008b318     aaaqi_capi.obj
 0002:0000a33c       ??_C@_0BN@LDFGECFF@Subsystem2?1shoudong?1Chart?1p7?$AA@ 1008b33c     aaaqi_capi.obj
 0002:0000a360       ??_C@_0BN@DEMOFOJK@Subsystem2?1shoudong?1Chart?1p8?$AA@ 1008b360     aaaqi_capi.obj
 0002:0000a384       ??_C@_0BN@CNNFGPNL@Subsystem2?1shoudong?1Chart?1p9?$AA@ 1008b384     aaaqi_capi.obj
 0002:0000a3a8       ??_C@_0BO@MAHJLJHI@Subsystem2?1shoudong?1Chart?1p10?$AA@ 1008b3a8     aaaqi_capi.obj
 0002:0000a3cc       ??_C@_0BO@NJGCIIDJ@Subsystem2?1shoudong?1Chart?1p11?$AA@ 1008b3cc     aaaqi_capi.obj
 0002:0000a3f0       ??_C@_0BO@PCEPNLPK@Subsystem2?1shoudong?1Chart?1p12?$AA@ 1008b3f0     aaaqi_capi.obj
 0002:0000a414       ??_C@_0BO@OLFEOKLL@Subsystem2?1shoudong?1Chart?1p13?$AA@ 1008b414     aaaqi_capi.obj
 0002:0000a438       ??_C@_0BO@KEBFHMHM@Subsystem2?1shoudong?1Chart?1p14?$AA@ 1008b438     aaaqi_capi.obj
 0002:0000a45c       ??_C@_0BO@LNAOENDN@Subsystem2?1shoudong?1Chart?1p15?$AA@ 1008b45c     aaaqi_capi.obj
 0002:0000a480       ??_C@_0BO@JGCDBOPO@Subsystem2?1shoudong?1Chart?1p16?$AA@ 1008b480     aaaqi_capi.obj
 0002:0000a4a4       ??_C@_0BO@IPDICPLP@Subsystem2?1shoudong?1Chart?1p17?$AA@ 1008b4a4     aaaqi_capi.obj
 0002:0000a4c8       ??_C@_0BO@IKADDHA@Subsystem2?1shoudong?1Chart?1p18?$AA@ 1008b4c8     aaaqi_capi.obj
 0002:0000a4ec       ??_C@_0BO@BBLLACDB@Subsystem2?1shoudong?1Chart?1p19?$AA@ 1008b4ec     aaaqi_capi.obj
 0002:0000a510       ??_C@_0BO@MCDPAHCB@Subsystem2?1shoudong?1Chart?1p20?$AA@ 1008b510     aaaqi_capi.obj
 0002:0000a534       ??_C@_0BO@NLCEDGGA@Subsystem2?1shoudong?1Chart?1p21?$AA@ 1008b534     aaaqi_capi.obj
 0002:0000a558       ??_C@_0BO@PAAJGFKD@Subsystem2?1shoudong?1Chart?1p22?$AA@ 1008b558     aaaqi_capi.obj
 0002:0000a57c       ??_C@_0BO@OJBCFEOC@Subsystem2?1shoudong?1Chart?1p23?$AA@ 1008b57c     aaaqi_capi.obj
 0002:0000a5a0       ??_C@_0BO@KGFDMCCF@Subsystem2?1shoudong?1Chart?1p24?$AA@ 1008b5a0     aaaqi_capi.obj
 0002:0000a5c4       ??_C@_0BO@LPEIPDGE@Subsystem2?1shoudong?1Chart?1p25?$AA@ 1008b5c4     aaaqi_capi.obj
 0002:0000a5e8       ??_C@_0BL@BNOIGCOE@Subsystem2?1zidong?1Chart?1p1?$AA@ 1008b5e8     aaaqi_capi.obj
 0002:0000a608       ??_C@_0BL@DGMFDBCH@Subsystem2?1zidong?1Chart?1p2?$AA@ 1008b608     aaaqi_capi.obj
 0002:0000a628       ??_C@_0BL@CPNOAAGG@Subsystem2?1zidong?1Chart?1p3?$AA@ 1008b628     aaaqi_capi.obj
 0002:0000a648       ??_C@_0BL@GAJPJGKB@Subsystem2?1zidong?1Chart?1p4?$AA@ 1008b648     aaaqi_capi.obj
 0002:0000a668       ??_C@_0BL@HJIEKHOA@Subsystem2?1zidong?1Chart?1p5?$AA@ 1008b668     aaaqi_capi.obj
 0002:0000a688       ??_C@_0BL@FCKJPECD@Subsystem2?1zidong?1Chart?1p6?$AA@ 1008b688     aaaqi_capi.obj
 0002:0000a6a8       ??_C@_0BL@ELLCMFGC@Subsystem2?1zidong?1Chart?1p7?$AA@ 1008b6a8     aaaqi_capi.obj
 0002:0000a6c8       ??_C@_0BL@MMCKNJKN@Subsystem2?1zidong?1Chart?1p8?$AA@ 1008b6c8     aaaqi_capi.obj
 0002:0000a6e8       ??_C@_0BL@NFDBOIOM@Subsystem2?1zidong?1Chart?1p9?$AA@ 1008b6e8     aaaqi_capi.obj
 0002:0000a708       ??_C@_0BM@HIDMPIPA@Subsystem2?1zidong?1Chart?1p10?$AA@ 1008b708     aaaqi_capi.obj
 0002:0000a72c       ??_C@_0BM@GBCHMJLB@Subsystem2?1zidong?1Chart?1p11?$AA@ 1008b72c     aaaqi_capi.obj
 0002:0000a750       ??_C@_0BM@EKAKJKHC@Subsystem2?1zidong?1Chart?1p12?$AA@ 1008b750     aaaqi_capi.obj
 0002:0000a774       ??_C@_0BM@FDBBKLDD@Subsystem2?1zidong?1Chart?1p13?$AA@ 1008b774     aaaqi_capi.obj
 0002:0000a798       ??_C@_0BM@BMFADNPE@Subsystem2?1zidong?1Chart?1p14?$AA@ 1008b798     aaaqi_capi.obj
 0002:0000a7bc       ??_C@_0BM@FELAMLF@Subsystem2?1zidong?1Chart?1p15?$AA@ 1008b7bc     aaaqi_capi.obj
 0002:0000a7e0       ??_C@_0BM@COGGFPHG@Subsystem2?1zidong?1Chart?1p16?$AA@ 1008b7e0     aaaqi_capi.obj
 0002:0000a804       ??_C@_0BM@DHHNGODH@Subsystem2?1zidong?1Chart?1p17?$AA@ 1008b804     aaaqi_capi.obj
 0002:0000a828       ??_C@_0BM@LAOFHCPI@Subsystem2?1zidong?1Chart?1p18?$AA@ 1008b828     aaaqi_capi.obj
 0002:0000a84c       ??_C@_0BM@KJPOEDLJ@Subsystem2?1zidong?1Chart?1p19?$AA@ 1008b84c     aaaqi_capi.obj
 0002:0000a870       ??_C@_0BM@HKHKEGKJ@Subsystem2?1zidong?1Chart?1p20?$AA@ 1008b870     aaaqi_capi.obj
 0002:0000a894       ??_C@_0BM@GDGBHHOI@Subsystem2?1zidong?1Chart?1p21?$AA@ 1008b894     aaaqi_capi.obj
 0002:0000a8b8       ??_C@_0BM@EIEMCECL@Subsystem2?1zidong?1Chart?1p22?$AA@ 1008b8b8     aaaqi_capi.obj
 0002:0000a8dc       ??_C@_0BM@FBFHBFGK@Subsystem2?1zidong?1Chart?1p23?$AA@ 1008b8dc     aaaqi_capi.obj
 0002:0000a900       ??_C@_0BM@BOBGIDKN@Subsystem2?1zidong?1Chart?1p24?$AA@ 1008b900     aaaqi_capi.obj
 0002:0000a924       ??_C@_0BM@HANLCOM@Subsystem2?1zidong?1Chart?1p25?$AA@ 1008b924     aaaqi_capi.obj
 0002:0000a948       ??_C@_0CN@OCMEDLFC@chuanganqi?1yalishangxiaxian?1Logi@ 1008b948     aaaqi_capi.obj
 0002:0000a980       ??_C@_0BO@FIIPDKMD@Subsystem2?1shoudong?1SQfa?1Gain?$AA@ 1008b980     aaaqi_capi.obj
 0002:0000a9a4       ??_C@_0BP@MEGIBLIC@Subsystem2?1shoudong?1SQfa?1Gain1?$AA@ 1008b9a4     aaaqi_capi.obj
 0002:0000a9cc       ??_C@_0CK@OPBGLDEC@Subsystem2?1shoudong?1SQfa?1Multipo@ 1008b9cc     aaaqi_capi.obj
 0002:0000aa00       ??_C@_0CB@CKMFLEHB@Subsystem2?1shoudong?1SQfa?1Product@ 1008ba00     aaaqi_capi.obj
 0002:0000aa28       ??_C@_0CC@OBHFIDKM@Subsystem2?1shoudong?1SQfa?1Product@ 1008ba28     aaaqi_capi.obj
 0002:0000aa50       ??_C@_0CJ@NEOEFHEE@Subsystem2?1shoudong?1SQfa?1Sum?5of?5@ 1008ba50     aaaqi_capi.obj
 0002:0000aa84       ??_C@_0CB@LEOCLEEI@Subsystem2?1shoudong?1SQfa?1Switch1@ 1008ba84     aaaqi_capi.obj
 0002:0000aaac       ??_C@_0CB@JPMPOHIL@Subsystem2?1shoudong?1SQfa?1Switch2@ 1008baac     aaaqi_capi.obj
 0002:0000aad4       ??_C@_0CB@IGNENGMK@Subsystem2?1shoudong?1SQfa?1Switch3@ 1008bad4     aaaqi_capi.obj
 0002:0000aafc       ??_C@_0CB@MJJFEAAN@Subsystem2?1shoudong?1SQfa?1Switch4@ 1008bafc     aaaqi_capi.obj
 0002:0000ab24       ??_C@_0CB@NAIOHBEM@Subsystem2?1shoudong?1SQfa?1Switch5@ 1008bb24     aaaqi_capi.obj
 0002:0000ab4c       ??_C@_0CB@PLKDCCIP@Subsystem2?1shoudong?1SQfa?1Switch6@ 1008bb4c     aaaqi_capi.obj
 0002:0000ab74       ??_C@_0CB@OCLIBDMO@Subsystem2?1shoudong?1SQfa?1Switch7@ 1008bb74     aaaqi_capi.obj
 0002:0000ab9c       ??_C@_0CB@GFCAAPAB@Subsystem2?1shoudong?1SQfa?1Switch8@ 1008bb9c     aaaqi_capi.obj
 0002:0000abc4       ??_C@_0CB@HMDLDOEA@Subsystem2?1shoudong?1SQfa?1Switch9@ 1008bbc4     aaaqi_capi.obj
 0002:0000abec       ??_C@_0CD@PLCMHIK@Subsystem2?1shoudong?1Subsystem?1Ga@ 1008bbec     aaaqi_capi.obj
 0002:0000ac18       ??_C@_0CE@MLDPNPEL@Subsystem2?1shoudong?1Subsystem?1Ga@ 1008bc18     aaaqi_capi.obj
 0002:0000ac44       ??_C@_0CP@ILLFDBHP@Subsystem2?1shoudong?1Subsystem?1Mu@ 1008bc44     aaaqi_capi.obj
 0002:0000ac7c       ??_C@_0CG@KMPENBII@Subsystem2?1shoudong?1Subsystem?1Pr@ 1008bc7c     aaaqi_capi.obj
 0002:0000acac       ??_C@_0CD@ICNHBANA@Subsystem2?1shoudong?1Subsystem?1Ad@ 1008bcac     aaaqi_capi.obj
 0002:0000acd8       ??_C@_0CC@LIAMPMHG@Subsystem2?1shoudong?1Subsystem?1Su@ 1008bcd8     aaaqi_capi.obj
 0002:0000ad00       ??_C@_0CD@HPIDNPEH@Subsystem2?1shoudong?1Subsystem?1Su@ 1008bd00     aaaqi_capi.obj
 0002:0000ad2c       ??_C@_0CE@JKMIAKCH@Subsystem2?1shoudong?1Subsystem2?1G@ 1008bd2c     aaaqi_capi.obj
 0002:0000ad58       ??_C@_0CF@GDMNHKND@Subsystem2?1shoudong?1Subsystem2?1G@ 1008bd58     aaaqi_capi.obj
 0002:0000ad84       ??_C@_0CF@EIOACJBA@Subsystem2?1shoudong?1Subsystem2?1G@ 1008bd84     aaaqi_capi.obj
 0002:0000adb0       ??_C@_0CF@FBPLBIFB@Subsystem2?1shoudong?1Subsystem2?1G@ 1008bdb0     aaaqi_capi.obj
 0002:0000addc       ??_C@_0DA@GGLIPHNO@Subsystem2?1shoudong?1Subsystem2?1M@ 1008bddc     aaaqi_capi.obj
 0002:0000ae18       ??_C@_0DB@KHFAEAJG@Subsystem2?1shoudong?1Subsystem2?1M@ 1008be18     aaaqi_capi.obj
 0002:0000ae54       ??_C@_0CH@LDNACOAP@Subsystem2?1shoudong?1Subsystem2?1P@ 1008be54     aaaqi_capi.obj
 0002:0000ae84       ??_C@_0CE@BHKNNNHN@Subsystem2?1shoudong?1Subsystem2?1A@ 1008be84     aaaqi_capi.obj
 0002:0000aeb0       ??_C@_0CD@HNILNDLO@Subsystem2?1shoudong?1Subsystem2?1S@ 1008beb0     aaaqi_capi.obj
 0002:0000aedc       ??_C@_0CE@OKPJBCOK@Subsystem2?1shoudong?1Subsystem2?1S@ 1008bedc     aaaqi_capi.obj
 0002:0000af08       ??_C@_0CE@MBNEEBCJ@Subsystem2?1shoudong?1Subsystem2?1S@ 1008bf08     aaaqi_capi.obj
 0002:0000af34       ??_C@_0CE@NIMPHAGI@Subsystem2?1shoudong?1Subsystem2?1S@ 1008bf34     aaaqi_capi.obj
 0002:0000af60       ??_C@_0CK@GPCNDIAC@Subsystem2?1shoudong?1XQfa?1Multipo@ 1008bf60     aaaqi_capi.obj
 0002:0000af94       ??_C@_0CB@MNAMALNC@Subsystem2?1shoudong?1XQfa?1Product@ 1008bf94     aaaqi_capi.obj
 0002:0000afbc       ??_C@_0CC@KOENLIEB@Subsystem2?1shoudong?1XQfa?1Product@ 1008bfbc     aaaqi_capi.obj
 0002:0000afe4       ??_C@_0CJ@IKAINMNB@Subsystem2?1shoudong?1XQfa?1Sum?5of?5@ 1008bfe4     aaaqi_capi.obj
 0002:0000b018       ??_C@_0CB@FDCLALOL@Subsystem2?1shoudong?1XQfa?1Switch1@ 1008c018     aaaqi_capi.obj
 0002:0000b040       ??_C@_0CB@HIAGFICI@Subsystem2?1shoudong?1XQfa?1Switch2@ 1008c040     aaaqi_capi.obj
 0002:0000b068       ??_C@_0CB@GBBNGJGJ@Subsystem2?1shoudong?1XQfa?1Switch3@ 1008c068     aaaqi_capi.obj
 0002:0000b090       ??_C@_0CB@COFMPPKO@Subsystem2?1shoudong?1XQfa?1Switch4@ 1008c090     aaaqi_capi.obj
 0002:0000b0b8       ??_C@_0CB@DHEHMOOP@Subsystem2?1shoudong?1XQfa?1Switch5@ 1008c0b8     aaaqi_capi.obj
 0002:0000b0e0       ??_C@_0CB@BMGKJNCM@Subsystem2?1shoudong?1XQfa?1Switch6@ 1008c0e0     aaaqi_capi.obj
 0002:0000b108       ??_C@_0CB@FHBKMGN@Subsystem2?1shoudong?1XQfa?1Switch7@ 1008c108     aaaqi_capi.obj
 0002:0000b130       ??_C@_0CB@ICOJLAKC@Subsystem2?1shoudong?1XQfa?1Switch8@ 1008c130     aaaqi_capi.obj
 0002:0000b158       ??_C@_0CB@JLPCIBOD@Subsystem2?1shoudong?1XQfa?1Switch9@ 1008c158     aaaqi_capi.obj
 0002:0000b180       ??_C@_0BM@OAMKHLEL@Subsystem2?1zidong?1SQfa?1Gain?$AA@ 1008c180     aaaqi_capi.obj
 0002:0000b1a4       ??_C@_0BN@CHLDFFNB@Subsystem2?1zidong?1SQfa?1Gain1?$AA@ 1008c1a4     aaaqi_capi.obj
 0002:0000b1c8       ??_C@_0CI@BFDEMCBC@Subsystem2?1zidong?1SQfa?1Multiport@ 1008c1c8     aaaqi_capi.obj
 0002:0000b1f8       ??_C@_0BP@CKDHDFKK@Subsystem2?1zidong?1SQfa?1Product?$AA@ 1008c1f8     aaaqi_capi.obj
 0002:0000b220       ??_C@_0CA@PAHEHKHB@Subsystem2?1zidong?1SQfa?1Product1?$AA@ 1008c220     aaaqi_capi.obj
 0002:0000b248       ??_C@_0CH@PJKIGEFK@Subsystem2?1zidong?1SQfa?1Sum?5of?5El@ 1008c248     aaaqi_capi.obj
 0002:0000b278       ??_C@_0BP@LEBADFJD@Subsystem2?1zidong?1SQfa?1Switch1?$AA@ 1008c278     aaaqi_capi.obj
 0002:0000b2a0       ??_C@_0BP@JPDNGGFA@Subsystem2?1zidong?1SQfa?1Switch2?$AA@ 1008c2a0     aaaqi_capi.obj
 0002:0000b2c8       ??_C@_0BP@IGCGFHBB@Subsystem2?1zidong?1SQfa?1Switch3?$AA@ 1008c2c8     aaaqi_capi.obj
 0002:0000b2f0       ??_C@_0BP@MJGHMBNG@Subsystem2?1zidong?1SQfa?1Switch4?$AA@ 1008c2f0     aaaqi_capi.obj
 0002:0000b318       ??_C@_0BP@NAHMPAJH@Subsystem2?1zidong?1SQfa?1Switch5?$AA@ 1008c318     aaaqi_capi.obj
 0002:0000b340       ??_C@_0BP@PLFBKDFE@Subsystem2?1zidong?1SQfa?1Switch6?$AA@ 1008c340     aaaqi_capi.obj
 0002:0000b368       ??_C@_0BP@OCEKJCBF@Subsystem2?1zidong?1SQfa?1Switch7?$AA@ 1008c368     aaaqi_capi.obj
 0002:0000b390       ??_C@_0BP@GFNCIONK@Subsystem2?1zidong?1SQfa?1Switch8?$AA@ 1008c390     aaaqi_capi.obj
 0002:0000b3b8       ??_C@_0BP@HMMJLPJL@Subsystem2?1zidong?1SQfa?1Switch9?$AA@ 1008c3b8     aaaqi_capi.obj
 0002:0000b3e0       ??_C@_0CB@PHMBGIBK@Subsystem2?1zidong?1Subsystem?1Gain@ 1008c3e0     aaaqi_capi.obj
 0002:0000b408       ??_C@_0CC@DLMIDPKA@Subsystem2?1zidong?1Subsystem?1Gain@ 1008c408     aaaqi_capi.obj
 0002:0000b430       ??_C@_0CN@LFLPKCPE@Subsystem2?1zidong?1Subsystem?1Mult@ 1008c430     aaaqi_capi.obj
 0002:0000b468       ??_C@_0CE@LBHEOJCA@Subsystem2?1zidong?1Subsystem?1Prod@ 1008c468     aaaqi_capi.obj
 0002:0000b494       ??_C@_0CB@HKKELPEA@Subsystem2?1zidong?1Subsystem?1Add1@ 1008c494     aaaqi_capi.obj
 0002:0000b4bc       ??_C@_0CA@KJANAFKL@Subsystem2?1zidong?1Subsystem?1Sum?$AA@ 1008c4bc     aaaqi_capi.obj
 0002:0000b4e4       ??_C@_0CB@IHPAHANH@Subsystem2?1zidong?1Subsystem?1Sum1@ 1008c4e4     aaaqi_capi.obj
 0002:0000b50c       ??_C@_0CC@FLNHPAFB@Subsystem2?1zidong?1Subsystem1?1Gai@ 1008c50c     aaaqi_capi.obj
 0002:0000b534       ??_C@_0CD@NKGKLBCA@Subsystem2?1zidong?1Subsystem1?1Gai@ 1008c534     aaaqi_capi.obj
 0002:0000b560       ??_C@_0CD@PBEHOCOD@Subsystem2?1zidong?1Subsystem1?1Gai@ 1008c560     aaaqi_capi.obj
 0002:0000b58c       ??_C@_0CD@OIFMNDKC@Subsystem2?1zidong?1Subsystem1?1Gai@ 1008c58c     aaaqi_capi.obj
 0002:0000b5b8       ??_C@_0CO@LPLKCBEM@Subsystem2?1zidong?1Subsystem1?1Mul@ 1008c5b8     aaaqi_capi.obj
 0002:0000b5f0       ??_C@_0CP@LJIILACI@Subsystem2?1zidong?1Subsystem1?1Mul@ 1008c5f0     aaaqi_capi.obj
 0002:0000b628       ??_C@_0CF@IAPHDOOO@Subsystem2?1zidong?1Subsystem1?1Pro@ 1008c628     aaaqi_capi.obj
 0002:0000b654       ??_C@_0CC@NGLCCHAL@Subsystem2?1zidong?1Subsystem1?1Add@ 1008c654     aaaqi_capi.obj
 0002:0000b67c       ??_C@_0CB@DGMAOIA@Subsystem2?1zidong?1Subsystem1?1Sum@ 1008c67c     aaaqi_capi.obj
 0002:0000b6a4       ??_C@_0CC@CLOGOIJM@Subsystem2?1zidong?1Subsystem1?1Sum@ 1008c6a4     aaaqi_capi.obj
 0002:0000b6cc       ??_C@_0CC@MLLLFP@Subsystem2?1zidong?1Subsystem1?1Sum@ 1008c6cc     aaaqi_capi.obj
 0002:0000b6f4       ??_C@_0CC@BJNAIKBO@Subsystem2?1zidong?1Subsystem1?1Sum@ 1008c6f4     aaaqi_capi.obj
 0002:0000b71c       ??_C@_0CI@JFAPEJFC@Subsystem2?1zidong?1XQfa?1Multiport@ 1008c71c     aaaqi_capi.obj
 0002:0000b74c       ??_C@_0BP@MNPOIKAJ@Subsystem2?1zidong?1XQfa?1Product?$AA@ 1008c74c     aaaqi_capi.obj
 0002:0000b774       ??_C@_0CA@LPEMEBJM@Subsystem2?1zidong?1XQfa?1Product1?$AA@ 1008c774     aaaqi_capi.obj
 0002:0000b79c       ??_C@_0CH@KHEEOPMP@Subsystem2?1zidong?1XQfa?1Sum?5of?5El@ 1008c79c     aaaqi_capi.obj
 0002:0000b7cc       ??_C@_0BP@FDNJIKDA@Subsystem2?1zidong?1XQfa?1Switch1?$AA@ 1008c7cc     aaaqi_capi.obj
 0002:0000b7f4       ??_C@_0BP@HIPENJPD@Subsystem2?1zidong?1XQfa?1Switch2?$AA@ 1008c7f4     aaaqi_capi.obj
 0002:0000b81c       ??_C@_0BP@GBOPOILC@Subsystem2?1zidong?1XQfa?1Switch3?$AA@ 1008c81c     aaaqi_capi.obj
 0002:0000b844       ??_C@_0BP@COKOHOHF@Subsystem2?1zidong?1XQfa?1Switch4?$AA@ 1008c844     aaaqi_capi.obj
 0002:0000b86c       ??_C@_0BP@DHLFEPDE@Subsystem2?1zidong?1XQfa?1Switch5?$AA@ 1008c86c     aaaqi_capi.obj
 0002:0000b894       ??_C@_0BP@BMJIBMPH@Subsystem2?1zidong?1XQfa?1Switch6?$AA@ 1008c894     aaaqi_capi.obj
 0002:0000b8bc       ??_C@_0BP@FIDCNLG@Subsystem2?1zidong?1XQfa?1Switch7?$AA@ 1008c8bc     aaaqi_capi.obj
 0002:0000b8e4       ??_C@_0BP@ICBLDBHJ@Subsystem2?1zidong?1XQfa?1Switch8?$AA@ 1008c8e4     aaaqi_capi.obj
 0002:0000b90c       ??_C@_0BP@JLAAAADI@Subsystem2?1zidong?1XQfa?1Switch9?$AA@ 1008c90c     aaaqi_capi.obj
 0002:0000b934       ??_C@_0DJ@NIDEFFKH@chuanganqi?1yalishangxiaxian?1Comp@ 1008c934     aaaqi_capi.obj
 0002:0000b978       ??_C@_0DK@FDJLNKNE@chuanganqi?1yalishangxiaxian?1Comp@ 1008c978     aaaqi_capi.obj
 0002:0000b9c0       ??_C@_0DJ@NMMBIFJK@chuanganqi?1yalishangxiaxian?1Comp@ 1008c9c0     aaaqi_capi.obj
 0002:0000ba04       ??_C@_0DJ@NBNPPFNN@chuanganqi?1yalishangxiaxian?1Comp@ 1008ca04     aaaqi_capi.obj
 0002:0000ba48       ??_C@_0DJ@NFCKCFOA@chuanganqi?1yalishangxiaxian?1Comp@ 1008ca48     aaaqi_capi.obj
 0002:0000ba8c       ??_C@_0DJ@MLODBFFD@chuanganqi?1yalishangxiaxian?1Comp@ 1008ca8c     aaaqi_capi.obj
 0002:0000bad0       ??_C@_0DF@OJDHHNBN@Subsystem2?1shoudong?1Subsystem2?1S@ 1008cad0     aaaqi_capi.obj
 0002:0000bb10       ??_C@_0DG@PFCNGGHP@Subsystem2?1shoudong?1Subsystem2?1S@ 1008cb10     aaaqi_capi.obj
 0002:0000bb50       ??_C@_0DG@MMKAFKLK@Subsystem2?1shoudong?1Subsystem2?1S@ 1008cb50     aaaqi_capi.obj
 0002:0000bb90       ??_C@_0DG@NLNLEOPJ@Subsystem2?1shoudong?1Subsystem2?1S@ 1008cb90     aaaqi_capi.obj
 0002:0000bbd0       ??_C@_0DD@BCLAEFBA@Subsystem2?1zidong?1Subsystem1?1Sig@ 1008cbd0     aaaqi_capi.obj
 0002:0000bc10       ??_C@_0DE@ILGHJNPK@Subsystem2?1zidong?1Subsystem1?1Sig@ 1008cc10     aaaqi_capi.obj
 0002:0000bc50       ??_C@_0DE@LCOKKBDP@Subsystem2?1zidong?1Subsystem1?1Sig@ 1008cc50     aaaqi_capi.obj
 0002:0000bc90       ??_C@_0DE@KFJBLFHM@Subsystem2?1zidong?1Subsystem1?1Sig@ 1008cc90     aaaqi_capi.obj
 0002:0000bcd0       ??_C@_0BE@DNHKNIOA@Compare?5To?5Constant?$AA@ 1008ccd0     aaaqi_capi.obj
 0002:0000bce8       ??_C@_05BNCCCJPP@const?$AA@ 1008cce8     aaaqi_capi.obj
 0002:0000bcf0       ??_C@_0BF@GGGKJPBC@Compare?5To?5Constant1?$AA@ 1008ccf0     aaaqi_capi.obj
 0002:0000bd0c       ??_C@_0BF@ENEHMMNB@Compare?5To?5Constant2?$AA@ 1008cd0c     aaaqi_capi.obj
 0002:0000bd28       ??_C@_0BF@FEFMPNJA@Compare?5To?5Constant3?$AA@ 1008cd28     aaaqi_capi.obj
 0002:0000bd44       ??_C@_09BJIKHCJG@BCQbushui?$AA@ 1008cd44     aaaqi_capi.obj
 0002:0000bd50       ??_C@_05LPIJGKJ@Value?$AA@ 1008cd50     aaaqi_capi.obj
 0002:0000bd58       ??_C@_08CHMPKCOC@Constant?$AA@ 1008cd58     aaaqi_capi.obj
 0002:0000bd64       ??_C@_09IIHOELEE@Constant1?$AA@ 1008cd64     aaaqi_capi.obj
 0002:0000bd70       ??_C@_09KDFDBIIH@Constant2?$AA@ 1008cd70     aaaqi_capi.obj
 0002:0000bd7c       ??_C@_09LKEICJMG@Constant3?$AA@ 1008cd7c     aaaqi_capi.obj
 0002:0000bd88       ??_C@_07KNIGBLAI@SCjiaya?$AA@ 1008cd88     aaaqi_capi.obj
 0002:0000bd94       ??_C@_07GMPKCPMP@SCxieya?$AA@ 1008cd94     aaaqi_capi.obj
 0002:0000bda0       ??_C@_09NBIKLJAO@SCzhushui?$AA@ 1008cda0     aaaqi_capi.obj
 0002:0000bdac       ??_C@_08DFCKFGBI@SXQjunya?$AA@ 1008cdac     aaaqi_capi.obj
 0002:0000bdb8       ??_C@_08JCFAIAK@SXQxieya?$AA@ 1008cdb8     aaaqi_capi.obj
 0002:0000bdc4       ??_C@_0N@CNBMNMJ@bilijianyafa?$AA@ 1008cdc4     aaaqi_capi.obj
 0002:0000bdd4       ??_C@_07EANCNNCI@guangai?$AA@ 1008cdd4     aaaqi_capi.obj
 0002:0000bde0       ??_C@_06PKKJEHCE@jiesuo?$AA@ 1008cde0     aaaqi_capi.obj
 0002:0000bde8       ??_C@_06OHHDEPBO@kaigai?$AA@ 1008cde8     aaaqi_capi.obj
 0002:0000bdf0       ??_C@_06DHNJLEFJ@kaishi?$AA@ 1008cdf0     aaaqi_capi.obj
 0002:0000bdf8       ??_C@_07PLPIKNFL@qiehuan?$AA@ 1008cdf8     aaaqi_capi.obj
 0002:0000be04       ??_C@_0N@FDOFLCNH@shiyabuchang?$AA@ 1008ce04     aaaqi_capi.obj
 0002:0000be14       ??_C@_07LNJJIGKI@suoding?$AA@ 1008ce14     aaaqi_capi.obj
 0002:0000be20       ??_C@_07PPFCMPKN@tiaoshi?$AA@ 1008ce20     aaaqi_capi.obj
 0002:0000be2c       ??_C@_07FGHBOBAN@xuanjin?$AA@ 1008ce2c     aaaqi_capi.obj
 0002:0000be38       ??_C@_0O@EKMIPCIH@xuanjinjianya?$AA@ 1008ce38     aaaqi_capi.obj
 0002:0000be48       ??_C@_08BMMAFKBD@xuansong?$AA@ 1008ce48     aaaqi_capi.obj
 0002:0000be54       ??_C@_0O@FKCBCPMJ@zidongguangai?$AA@ 1008ce54     aaaqi_capi.obj
 0002:0000be64       ??_C@_0N@MOFFNDAK@zidongkaigai?$AA@ 1008ce64     aaaqi_capi.obj
 0002:0000be74       ??_C@_05LFBINIGO@Table?$AA@ 1008ce74     aaaqi_capi.obj
 0002:0000be7c       ??_C@_0BJ@GCDCIOIA@BreakpointsForDimension1?$AA@ 1008ce7c     aaaqi_capi.obj
 0002:0000be9c       ??_C@_02LNFHGPBG@X0?$AA@   1008ce9c     aaaqi_capi.obj
 0002:0000bea0       ??_C@_02KKFPAPOP@P1?$AA@   1008cea0     aaaqi_capi.obj
 0002:0000bea4       ??_C@_02IBHCFMCM@P2?$AA@   1008cea4     aaaqi_capi.obj
 0002:0000bea8       ??_C@_02JIGJGNGN@P3?$AA@   1008cea8     aaaqi_capi.obj
 0002:0000beac       ??_C@_0BE@EMILCLO@PCI1716?1PCI1716DIO1?$AA@ 1008ceac     aaaqi_capi.obj
 0002:0000bec4       ??_C@_0BB@PFOGAGAE@PCI6208?1Constant?$AA@ 1008cec4     aaaqi_capi.obj
 0002:0000bed8       ??_C@_0BC@MBMFCFKN@PCI6208?1Constant1?$AA@ 1008ced8     aaaqi_capi.obj
 0002:0000bef0       ??_C@_0L@FBCGKKEN@UpperLimit?$AA@ 1008cef0     aaaqi_capi.obj
 0002:0000bf00       ??_C@_0L@DGFJOHKP@LowerLimit?$AA@ 1008cf00     aaaqi_capi.obj
 0002:0000bf10       ??_C@_0BG@IGMBMBDP@PCI6208?1PCI?96208A?5DA?5?$AA@ 1008cf10     aaaqi_capi.obj
 0002:0000bf2c       ??_C@_02NHCIPLKK@P4?$AA@   1008cf2c     aaaqi_capi.obj
 0002:0000bf30       ??_C@_02MODDMKOL@P5?$AA@   1008cf30     aaaqi_capi.obj
 0002:0000bf34       ??_C@_02OFBOJJCI@P6?$AA@   1008cf34     aaaqi_capi.obj
 0002:0000bf38       ??_C@_09HLCHFPPJ@Threshold?$AA@ 1008cf38     aaaqi_capi.obj
 0002:0000bf44       ??_C@_0BA@GICJECIL@Subsystem4?1Out1?$AA@ 1008cf44     aaaqi_capi.obj
 0002:0000bf58       ??_C@_0O@LILIEJBO@InitialOutput?$AA@ 1008cf58     aaaqi_capi.obj
 0002:0000bf68       ??_C@_0BE@ECMKCELE@Subsystem4?1Constant?$AA@ 1008cf68     aaaqi_capi.obj
 0002:0000bf80       ??_C@_0BA@MOFOEJDP@Subsystem5?1Out1?$AA@ 1008cf80     aaaqi_capi.obj
 0002:0000bf94       ??_C@_0BE@IDEEPLHE@Subsystem5?1Constant?$AA@ 1008cf94     aaaqi_capi.obj
 0002:0000bfac       ??_C@_0BE@PKFJMKFC@chuanganqi?1Constant?$AA@ 1008cfac     aaaqi_capi.obj
 0002:0000bfc4       ??_C@_0BF@EDMCGOKA@chuanganqi?1Constant1?$AA@ 1008cfc4     aaaqi_capi.obj
 0002:0000bfe0       ??_C@_0BG@JNDFHHF@chuanganqi?1Constant10?$AA@ 1008cfe0     aaaqi_capi.obj
 0002:0000bffc       ??_C@_0BG@BAMIGGDE@chuanganqi?1Constant11?$AA@ 1008cffc     aaaqi_capi.obj
 0002:0000c018       ??_C@_0BG@DLOFDFPH@chuanganqi?1Constant12?$AA@ 1008d018     aaaqi_capi.obj
 0002:0000c034       ??_C@_0BG@CCPOAELG@chuanganqi?1Constant13?$AA@ 1008d034     aaaqi_capi.obj
 0002:0000c050       ??_C@_0BG@GNLPJCHB@chuanganqi?1Constant14?$AA@ 1008d050     aaaqi_capi.obj
 0002:0000c06c       ??_C@_0BG@HEKEKDDA@chuanganqi?1Constant15?$AA@ 1008d06c     aaaqi_capi.obj
 0002:0000c088       ??_C@_0BG@FPIJPAPD@chuanganqi?1Constant16?$AA@ 1008d088     aaaqi_capi.obj
 0002:0000c0a4       ??_C@_0BG@EGJCMBLC@chuanganqi?1Constant17?$AA@ 1008d0a4     aaaqi_capi.obj
 0002:0000c0c0       ??_C@_0BG@MBAKNNHN@chuanganqi?1Constant18?$AA@ 1008d0c0     aaaqi_capi.obj
 0002:0000c0dc       ??_C@_0BG@NIBBOMDM@chuanganqi?1Constant19?$AA@ 1008d0dc     aaaqi_capi.obj
 0002:0000c0f8       ??_C@_0BF@GIOPDNGD@chuanganqi?1Constant2?$AA@ 1008d0f8     aaaqi_capi.obj
 0002:0000c114       ??_C@_0BG@LJFOJCM@chuanganqi?1Constant20?$AA@ 1008d114     aaaqi_capi.obj
 0002:0000c130       ??_C@_0BG@BCIONIGN@chuanganqi?1Constant21?$AA@ 1008d130     aaaqi_capi.obj
 0002:0000c14c       ??_C@_0BG@DJKDILKO@chuanganqi?1Constant22?$AA@ 1008d14c     aaaqi_capi.obj
 0002:0000c168       ??_C@_0BG@CALILKOP@chuanganqi?1Constant23?$AA@ 1008d168     aaaqi_capi.obj
 0002:0000c184       ??_C@_0BG@GPPJCMCI@chuanganqi?1Constant24?$AA@ 1008d184     aaaqi_capi.obj
 0002:0000c1a0       ??_C@_0BG@HGOCBNGJ@chuanganqi?1Constant25?$AA@ 1008d1a0     aaaqi_capi.obj
 0002:0000c1bc       ??_C@_0BG@FNMPEOKK@chuanganqi?1Constant26?$AA@ 1008d1bc     aaaqi_capi.obj
 0002:0000c1d8       ??_C@_0BG@EENEHPOL@chuanganqi?1Constant27?$AA@ 1008d1d8     aaaqi_capi.obj
 0002:0000c1f4       ??_C@_0BG@MDEMGDCE@chuanganqi?1Constant28?$AA@ 1008d1f4     aaaqi_capi.obj
 0002:0000c210       ??_C@_0BG@NKFHFCGF@chuanganqi?1Constant29?$AA@ 1008d210     aaaqi_capi.obj
 0002:0000c22c       ??_C@_0BF@HBPEAMCC@chuanganqi?1Constant3?$AA@ 1008d22c     aaaqi_capi.obj
 0002:0000c248       ??_C@_0BG@KFHIDBL@chuanganqi?1Constant30?$AA@ 1008d248     aaaqi_capi.obj
 0002:0000c264       ??_C@_0BG@BDEMLCFK@chuanganqi?1Constant31?$AA@ 1008d264     aaaqi_capi.obj
 0002:0000c280       ??_C@_0BG@DIGBOBJJ@chuanganqi?1Constant32?$AA@ 1008d280     aaaqi_capi.obj
 0002:0000c29c       ??_C@_0BG@CBHKNANI@chuanganqi?1Constant33?$AA@ 1008d29c     aaaqi_capi.obj
 0002:0000c2b8       ??_C@_0BG@GODLEGBP@chuanganqi?1Constant34?$AA@ 1008d2b8     aaaqi_capi.obj
 0002:0000c2d4       ??_C@_0BG@HHCAHHFO@chuanganqi?1Constant35?$AA@ 1008d2d4     aaaqi_capi.obj
 0002:0000c2f0       ??_C@_0BG@FMANCEJN@chuanganqi?1Constant36?$AA@ 1008d2f0     aaaqi_capi.obj
 0002:0000c30c       ??_C@_0BG@EFBGBFNM@chuanganqi?1Constant37?$AA@ 1008d30c     aaaqi_capi.obj
 0002:0000c328       ??_C@_0BG@MCIOAJBD@chuanganqi?1Constant38?$AA@ 1008d328     aaaqi_capi.obj
 0002:0000c344       ??_C@_0BG@NLJFDIFC@chuanganqi?1Constant39?$AA@ 1008d344     aaaqi_capi.obj
 0002:0000c360       ??_C@_0BF@DOLFJKOF@chuanganqi?1Constant4?$AA@ 1008d360     aaaqi_capi.obj
 0002:0000c37c       ??_C@_0BG@PBIJFJO@chuanganqi?1Constant40?$AA@ 1008d37c     aaaqi_capi.obj
 0002:0000c398       ??_C@_0BG@BGADKENP@chuanganqi?1Constant41?$AA@ 1008d398     aaaqi_capi.obj
 0002:0000c3b4       ??_C@_0BG@DNCOPHBM@chuanganqi?1Constant42?$AA@ 1008d3b4     aaaqi_capi.obj
 0002:0000c3d0       ??_C@_0BG@CEDFMGFN@chuanganqi?1Constant43?$AA@ 1008d3d0     aaaqi_capi.obj
 0002:0000c3ec       ??_C@_0BG@GLHEFAJK@chuanganqi?1Constant44?$AA@ 1008d3ec     aaaqi_capi.obj
 0002:0000c408       ??_C@_0BG@HCGPGBNL@chuanganqi?1Constant45?$AA@ 1008d408     aaaqi_capi.obj
 0002:0000c424       ??_C@_0BG@FJECDCBI@chuanganqi?1Constant46?$AA@ 1008d424     aaaqi_capi.obj
 0002:0000c440       ??_C@_0BG@EAFJADFJ@chuanganqi?1Constant47?$AA@ 1008d440     aaaqi_capi.obj
 0002:0000c45c       ??_C@_0BF@CHKOKLKE@chuanganqi?1Constant5?$AA@ 1008d45c     aaaqi_capi.obj
 0002:0000c478       ??_C@_0BF@MIDPIGH@chuanganqi?1Constant6?$AA@ 1008d478     aaaqi_capi.obj
 0002:0000c494       ??_C@_0BF@BFJIMJCG@chuanganqi?1Constant7?$AA@ 1008d494     aaaqi_capi.obj
 0002:0000c4b0       ??_C@_0BF@JCAANFOJ@chuanganqi?1Constant8?$AA@ 1008d4b0     aaaqi_capi.obj
 0002:0000c4cc       ??_C@_0BF@ILBLOEKI@chuanganqi?1Constant9?$AA@ 1008d4cc     aaaqi_capi.obj
 0002:0000c4e8       ??_C@_0BC@MJOKMINB@chuanganqi?1Setup?5?$AA@ 1008d4e8     aaaqi_capi.obj
 0002:0000c500       ??_C@_03PGECKHFE@P11?$AA@  1008d500     aaaqi_capi.obj
 0002:0000c504       ??_C@_03JCCOGCFA@P15?$AA@  1008d504     aaaqi_capi.obj
 0002:0000c508       ??_C@_03LJADDBJD@P16?$AA@  1008d508     aaaqi_capi.obj
 0002:0000c50c       ??_C@_03KABIAANC@P17?$AA@  1008d50c     aaaqi_capi.obj
 0002:0000c510       ??_C@_03CHIABMBN@P18?$AA@  1008d510     aaaqi_capi.obj
 0002:0000c514       ??_C@_03DOJLCNFM@P19?$AA@  1008d514     aaaqi_capi.obj
 0002:0000c518       ??_C@_03ONBPCIEM@P20?$AA@  1008d518     aaaqi_capi.obj
 0002:0000c51c       ??_C@_03PEAEBJAN@P21?$AA@  1008d51c     aaaqi_capi.obj
 0002:0000c520       ??_C@_03NPCJEKMO@P22?$AA@  1008d520     aaaqi_capi.obj
 0002:0000c524       ??_C@_03MGDCHLIP@P23?$AA@  1008d524     aaaqi_capi.obj
 0002:0000c528       ??_C@_03IJHDONEI@P24?$AA@  1008d528     aaaqi_capi.obj
 0002:0000c52c       ??_C@_04OKOFBOPB@Time?$AA@ 1008d52c     aaaqi_capi.obj
 0002:0000c534       ??_C@_06NDPGJMFM@Before?$AA@ 1008d534     aaaqi_capi.obj
 0002:0000c53c       ??_C@_05CLADCAAM@After?$AA@ 1008d53c     aaaqi_capi.obj
 0002:0000c544       ??_C@_0P@HMEAEHIM@CurrentSetting?$AA@ 1008d544     aaaqi_capi.obj
 0002:0000c558       ??_C@_0BK@JEENNMD@Subsystem2?1husuo?1Constant?$AA@ 1008d558     aaaqi_capi.obj
 0002:0000c578       ??_C@_0BL@OPBEIDKG@Subsystem2?1husuo?1Constant2?$AA@ 1008d578     aaaqi_capi.obj
 0002:0000c598       ??_C@_0BL@CMNNPCIL@Subsystem2?1husuo1?1Constant?$AA@ 1008d598     aaaqi_capi.obj
 0002:0000c5b8       ??_C@_0BM@JHDGNDCL@Subsystem2?1husuo1?1Constant2?$AA@ 1008d5b8     aaaqi_capi.obj
 0002:0000c5dc       ??_C@_0BL@LFDPJEIK@Subsystem2?1husuo2?1Constant?$AA@ 1008d5dc     aaaqi_capi.obj
 0002:0000c5fc       ??_C@_0BM@OAKIABNL@Subsystem2?1husuo2?1Constant2?$AA@ 1008d5fc     aaaqi_capi.obj
 0002:0000c620       ??_C@_0CH@IHDDCDPD@Subsystem2?1shoudong?1bililiuliang@ 1008d620     aaaqi_capi.obj
 0002:0000c650       ??_C@_0CH@KMBOHADA@Subsystem2?1shoudong?1bililiuliang@ 1008d650     aaaqi_capi.obj
 0002:0000c680       ??_C@_0CH@LFAFEBHB@Subsystem2?1shoudong?1bililiuliang@ 1008d680     aaaqi_capi.obj
 0002:0000c6b0       ??_C@_0CH@PKEENHLG@Subsystem2?1shoudong?1bililiuliang@ 1008d6b0     aaaqi_capi.obj
 0002:0000c6e0       ??_C@_0CB@PMBHJHMC@Subsystem2?1shoudong?1kaiguangaifa@ 1008d6e0     aaaqi_capi.obj
 0002:0000c708       ??_C@_0CF@FPCDIIBB@Subsystem2?1zidong?1bililiuliangfa@ 1008d708     aaaqi_capi.obj
 0002:0000c734       ??_C@_0CF@HEAONLNC@Subsystem2?1zidong?1bililiuliangfa@ 1008d734     aaaqi_capi.obj
 0002:0000c760       ??_C@_0CF@GNBFOKJD@Subsystem2?1zidong?1bililiuliangfa@ 1008d760     aaaqi_capi.obj
 0002:0000c78c       ??_C@_0CF@CCFEHMFE@Subsystem2?1zidong?1bililiuliangfa@ 1008d78c     aaaqi_capi.obj
 0002:0000c7b8       ??_C@_0BP@PMOFBGBJ@Subsystem2?1zidong?1kaiguangaifa?$AA@ 1008d7b8     aaaqi_capi.obj
 0002:0000c7e0       ??_C@_0DB@JGFFEMFH@chuanganqi?1yalishangxiaxian?1Comp@ 1008d7e0     aaaqi_capi.obj
 0002:0000c81c       ??_C@_0DC@DDMEJGKJ@chuanganqi?1yalishangxiaxian?1Comp@ 1008d81c     aaaqi_capi.obj
 0002:0000c858       ??_C@_0DB@KEGDCONF@chuanganqi?1yalishangxiaxian?1Comp@ 1008d858     aaaqi_capi.obj
 0002:0000c894       ??_C@_0DB@PCDJIJFD@chuanganqi?1yalishangxiaxian?1Comp@ 1008d894     aaaqi_capi.obj
 0002:0000c8d0       ??_C@_0DB@MAAPOLNB@chuanganqi?1yalishangxiaxian?1Comp@ 1008d8d0     aaaqi_capi.obj
 0002:0000c90c       ??_C@_0DB@FOIMMGFP@chuanganqi?1yalishangxiaxian?1Comp@ 1008d90c     aaaqi_capi.obj
 0002:0000c948       ??_C@_0CC@CAPEJMKI@Subsystem2?1shoudong?1SQfa?1Constan@ 1008d948     aaaqi_capi.obj
 0002:0000c970       ??_C@_0CD@BOHANIPE@Subsystem2?1shoudong?1SQfa?1Constan@ 1008d970     aaaqi_capi.obj
 0002:0000c99c       ??_C@_0CE@GFIIHACO@Subsystem2?1shoudong?1SQfa?1Constan@ 1008d99c     aaaqi_capi.obj
 0002:0000c9c8       ??_C@_0CE@HMJDEBGP@Subsystem2?1shoudong?1SQfa?1Constan@ 1008d9c8     aaaqi_capi.obj
 0002:0000c9f4       ??_C@_0CE@FHLOBCKM@Subsystem2?1shoudong?1SQfa?1Constan@ 1008d9f4     aaaqi_capi.obj
 0002:0000ca20       ??_C@_0CE@EOKFCDON@Subsystem2?1shoudong?1SQfa?1Constan@ 1008da20     aaaqi_capi.obj
 0002:0000ca4c       ??_C@_0CE@BOELFCK@Subsystem2?1shoudong?1SQfa?1Constan@ 1008da4c     aaaqi_capi.obj
 0002:0000ca78       ??_C@_0CE@BIPPIEGL@Subsystem2?1shoudong?1SQfa?1Constan@ 1008da78     aaaqi_capi.obj
 0002:0000caa4       ??_C@_0CE@DDNCNHKI@Subsystem2?1shoudong?1SQfa?1Constan@ 1008daa4     aaaqi_capi.obj
 0002:0000cad0       ??_C@_0CE@CKMJOGOJ@Subsystem2?1shoudong?1SQfa?1Constan@ 1008dad0     aaaqi_capi.obj
 0002:0000cafc       ??_C@_0CE@KNFBPKCG@Subsystem2?1shoudong?1SQfa?1Constan@ 1008dafc     aaaqi_capi.obj
 0002:0000cb28       ??_C@_0CE@LEEKMLGH@Subsystem2?1shoudong?1SQfa?1Constan@ 1008db28     aaaqi_capi.obj
 0002:0000cb54       ??_C@_0CD@DFFNILDH@Subsystem2?1shoudong?1SQfa?1Constan@ 1008db54     aaaqi_capi.obj
 0002:0000cb80       ??_C@_0CE@GHMOMOHH@Subsystem2?1shoudong?1SQfa?1Constan@ 1008db80     aaaqi_capi.obj
 0002:0000cbac       ??_C@_0CE@HONFPPDG@Subsystem2?1shoudong?1SQfa?1Constan@ 1008dbac     aaaqi_capi.obj
 0002:0000cbd8       ??_C@_0CE@FFPIKMPF@Subsystem2?1shoudong?1SQfa?1Constan@ 1008dbd8     aaaqi_capi.obj
 0002:0000cc04       ??_C@_0CE@EMODJNLE@Subsystem2?1shoudong?1SQfa?1Constan@ 1008dc04     aaaqi_capi.obj
 0002:0000cc30       ??_C@_0CE@DKCALHD@Subsystem2?1shoudong?1SQfa?1Constan@ 1008dc30     aaaqi_capi.obj
 0002:0000cc5c       ??_C@_0CE@BKLJDKDC@Subsystem2?1shoudong?1SQfa?1Constan@ 1008dc5c     aaaqi_capi.obj
 0002:0000cc88       ??_C@_0CE@DBJEGJPB@Subsystem2?1shoudong?1SQfa?1Constan@ 1008dc88     aaaqi_capi.obj
 0002:0000ccb4       ??_C@_0CE@CIIPFILA@Subsystem2?1shoudong?1SQfa?1Constan@ 1008dcb4     aaaqi_capi.obj
 0002:0000cce0       ??_C@_0CE@KPBHEEHP@Subsystem2?1shoudong?1SQfa?1Constan@ 1008dce0     aaaqi_capi.obj
 0002:0000cd0c       ??_C@_0CE@LGAMHFDO@Subsystem2?1shoudong?1SQfa?1Constan@ 1008dd0c     aaaqi_capi.obj
 0002:0000cd38       ??_C@_0CD@CMEGLKHG@Subsystem2?1shoudong?1SQfa?1Constan@ 1008dd38     aaaqi_capi.obj
 0002:0000cd64       ??_C@_0CD@GDAHCMLB@Subsystem2?1shoudong?1SQfa?1Constan@ 1008dd64     aaaqi_capi.obj
 0002:0000cd90       ??_C@_0CD@HKBMBNPA@Subsystem2?1shoudong?1SQfa?1Constan@ 1008dd90     aaaqi_capi.obj
 0002:0000cdbc       ??_C@_0CD@FBDBEODD@Subsystem2?1shoudong?1SQfa?1Constan@ 1008ddbc     aaaqi_capi.obj
 0002:0000cde8       ??_C@_0CD@EICKHPHC@Subsystem2?1shoudong?1SQfa?1Constan@ 1008dde8     aaaqi_capi.obj
 0002:0000ce14       ??_C@_0CD@MPLCGDLN@Subsystem2?1shoudong?1SQfa?1Constan@ 1008de14     aaaqi_capi.obj
 0002:0000ce40       ??_C@_0CD@NGKJFCPM@Subsystem2?1shoudong?1SQfa?1Constan@ 1008de40     aaaqi_capi.obj
 0002:0000ce6c       ??_C@_0CH@OEBDOHHF@Subsystem2?1shoudong?1Subsystem?1Co@ 1008de6c     aaaqi_capi.obj
 0002:0000ce9c       ??_C@_0CI@OGNGJBOG@Subsystem2?1shoudong?1Subsystem?1Co@ 1008de9c     aaaqi_capi.obj
 0002:0000cecc       ??_C@_0CI@JHNANFAJ@Subsystem2?1shoudong?1Subsystem2?1C@ 1008decc     aaaqi_capi.obj
 0002:0000cefc       ??_C@_0CJ@LPBGGPMD@Subsystem2?1shoudong?1Subsystem2?1C@ 1008defc     aaaqi_capi.obj
 0002:0000cf30       ??_C@_0CJ@JEDLDMAA@Subsystem2?1shoudong?1Subsystem2?1C@ 1008df30     aaaqi_capi.obj
 0002:0000cf64       ??_C@_0CC@GPMMKHEF@Subsystem2?1shoudong?1XQfa?1Constan@ 1008df64     aaaqi_capi.obj
 0002:0000cf8c       ??_C@_0CD@MAIEHOAK@Subsystem2?1shoudong?1XQfa?1Constan@ 1008df8c     aaaqi_capi.obj
 0002:0000cfb8       ??_C@_0CE@DPFDFLJD@Subsystem2?1shoudong?1XQfa?1Constan@ 1008dfb8     aaaqi_capi.obj
 0002:0000cfe4       ??_C@_0CE@CGEIGKNC@Subsystem2?1shoudong?1XQfa?1Constan@ 1008dfe4     aaaqi_capi.obj
 0002:0000d010       ??_C@_0CE@NGFDJBB@Subsystem2?1shoudong?1XQfa?1Constan@ 1008e010     aaaqi_capi.obj
 0002:0000d03c       ??_C@_0CE@BEHOAIFA@Subsystem2?1shoudong?1XQfa?1Constan@ 1008e03c     aaaqi_capi.obj
 0002:0000d068       ??_C@_0CE@FLDPJOJH@Subsystem2?1shoudong?1XQfa?1Constan@ 1008e068     aaaqi_capi.obj
 0002:0000d094       ??_C@_0CE@ECCEKPNG@Subsystem2?1shoudong?1XQfa?1Constan@ 1008e094     aaaqi_capi.obj
 0002:0000d0c0       ??_C@_0CE@GJAJPMBF@Subsystem2?1shoudong?1XQfa?1Constan@ 1008e0c0     aaaqi_capi.obj
 0002:0000d0ec       ??_C@_0CE@HABCMNFE@Subsystem2?1shoudong?1XQfa?1Constan@ 1008e0ec     aaaqi_capi.obj
 0002:0000d118       ??_C@_0CE@PHIKNBJL@Subsystem2?1shoudong?1XQfa?1Constan@ 1008e118     aaaqi_capi.obj
 0002:0000d144       ??_C@_0CE@OOJBOANK@Subsystem2?1shoudong?1XQfa?1Constan@ 1008e144     aaaqi_capi.obj
 0002:0000d170       ??_C@_0CD@OLKJCNMJ@Subsystem2?1shoudong?1XQfa?1Constan@ 1008e170     aaaqi_capi.obj
 0002:0000d19c       ??_C@_0CE@DNBFOFMK@Subsystem2?1shoudong?1XQfa?1Constan@ 1008e19c     aaaqi_capi.obj
 0002:0000d1c8       ??_C@_0CE@CEAONEIL@Subsystem2?1shoudong?1XQfa?1Constan@ 1008e1c8     aaaqi_capi.obj
 0002:0000d1f4       ??_C@_0CE@PCDIHEI@Subsystem2?1shoudong?1XQfa?1Constan@ 1008e1f4     aaaqi_capi.obj
 0002:0000d220       ??_C@_0CE@BGDILGAJ@Subsystem2?1shoudong?1XQfa?1Constan@ 1008e220     aaaqi_capi.obj
 0002:0000d24c       ??_C@_0CE@FJHJCAMO@Subsystem2?1shoudong?1XQfa?1Constan@ 1008e24c     aaaqi_capi.obj
 0002:0000d278       ??_C@_0CE@EAGCBBIP@Subsystem2?1shoudong?1XQfa?1Constan@ 1008e278     aaaqi_capi.obj
 0002:0000d2a4       ??_C@_0CE@GLEPECEM@Subsystem2?1shoudong?1XQfa?1Constan@ 1008e2a4     aaaqi_capi.obj
 0002:0000d2d0       ??_C@_0CE@HCFEHDAN@Subsystem2?1shoudong?1XQfa?1Constan@ 1008e2d0     aaaqi_capi.obj
 0002:0000d2fc       ??_C@_0CE@PFMMGPMC@Subsystem2?1shoudong?1XQfa?1Constan@ 1008e2fc     aaaqi_capi.obj
 0002:0000d328       ??_C@_0CE@OMNHFOID@Subsystem2?1shoudong?1XQfa?1Constan@ 1008e328     aaaqi_capi.obj
 0002:0000d354       ??_C@_0CD@PCLCBMII@Subsystem2?1shoudong?1XQfa?1Constan@ 1008e354     aaaqi_capi.obj
 0002:0000d380       ??_C@_0CD@LNPDIKEP@Subsystem2?1shoudong?1XQfa?1Constan@ 1008e380     aaaqi_capi.obj
 0002:0000d3ac       ??_C@_0CD@KEOILLAO@Subsystem2?1shoudong?1XQfa?1Constan@ 1008e3ac     aaaqi_capi.obj
 0002:0000d3d8       ??_C@_0CD@IPMFOIMN@Subsystem2?1shoudong?1XQfa?1Constan@ 1008e3d8     aaaqi_capi.obj
 0002:0000d404       ??_C@_0CD@JGNONJIM@Subsystem2?1shoudong?1XQfa?1Constan@ 1008e404     aaaqi_capi.obj
 0002:0000d430       ??_C@_0CD@BBEGMFED@Subsystem2?1shoudong?1XQfa?1Constan@ 1008e430     aaaqi_capi.obj
 0002:0000d45c       ??_C@_0CD@IFNPEAC@Subsystem2?1shoudong?1XQfa?1Constan@ 1008e45c     aaaqi_capi.obj
 0002:0000d488       ??_C@_0CB@OGADHHGE@Subsystem2?1zidong?1SQfa?1Constant1@ 1008e488     aaaqi_capi.obj
 0002:0000d4b0       ??_C@_0CC@JFHPJAMF@Subsystem2?1zidong?1SQfa?1Constant1@ 1008e4b0     aaaqi_capi.obj
 0002:0000d4d8       ??_C@_0CC@IMGEKBIE@Subsystem2?1zidong?1SQfa?1Constant1@ 1008e4d8     aaaqi_capi.obj
 0002:0000d500       ??_C@_0CC@KHEJPCEH@Subsystem2?1zidong?1SQfa?1Constant1@ 1008e500     aaaqi_capi.obj
 0002:0000d528       ??_C@_0CC@LOFCMDAG@Subsystem2?1zidong?1SQfa?1Constant1@ 1008e528     aaaqi_capi.obj
 0002:0000d550       ??_C@_0CC@PBBDFFMB@Subsystem2?1zidong?1SQfa?1Constant1@ 1008e550     aaaqi_capi.obj
 0002:0000d578       ??_C@_0CC@OIAIGEIA@Subsystem2?1zidong?1SQfa?1Constant1@ 1008e578     aaaqi_capi.obj
 0002:0000d5a0       ??_C@_0CC@MDCFDHED@Subsystem2?1zidong?1SQfa?1Constant1@ 1008e5a0     aaaqi_capi.obj
 0002:0000d5c8       ??_C@_0CC@NKDOAGAC@Subsystem2?1zidong?1SQfa?1Constant1@ 1008e5c8     aaaqi_capi.obj
 0002:0000d5f0       ??_C@_0CC@FNKGBKMN@Subsystem2?1zidong?1SQfa?1Constant1@ 1008e5f0     aaaqi_capi.obj
 0002:0000d618       ??_C@_0CC@EELNCLIM@Subsystem2?1zidong?1SQfa?1Constant1@ 1008e618     aaaqi_capi.obj
 0002:0000d640       ??_C@_0CB@MNCOCEKH@Subsystem2?1zidong?1SQfa?1Constant2@ 1008e640     aaaqi_capi.obj
 0002:0000d668       ??_C@_0CC@JHDJCOJM@Subsystem2?1zidong?1SQfa?1Constant2@ 1008e668     aaaqi_capi.obj
 0002:0000d690       ??_C@_0CC@IOCCBPNN@Subsystem2?1zidong?1SQfa?1Constant2@ 1008e690     aaaqi_capi.obj
 0002:0000d6b8       ??_C@_0CC@KFAPEMBO@Subsystem2?1zidong?1SQfa?1Constant2@ 1008e6b8     aaaqi_capi.obj
 0002:0000d6e0       ??_C@_0CC@LMBEHNFP@Subsystem2?1zidong?1SQfa?1Constant2@ 1008e6e0     aaaqi_capi.obj
 0002:0000d708       ??_C@_0CC@PDFFOLJI@Subsystem2?1zidong?1SQfa?1Constant2@ 1008e708     aaaqi_capi.obj
 0002:0000d730       ??_C@_0CC@OKEONKNJ@Subsystem2?1zidong?1SQfa?1Constant2@ 1008e730     aaaqi_capi.obj
 0002:0000d758       ??_C@_0CC@MBGDIJBK@Subsystem2?1zidong?1SQfa?1Constant2@ 1008e758     aaaqi_capi.obj
 0002:0000d780       ??_C@_0CC@NIHILIFL@Subsystem2?1zidong?1SQfa?1Constant2@ 1008e780     aaaqi_capi.obj
 0002:0000d7a8       ??_C@_0CC@FPOAKEJE@Subsystem2?1zidong?1SQfa?1Constant2@ 1008e7a8     aaaqi_capi.obj
 0002:0000d7d0       ??_C@_0CC@EGPLJFNF@Subsystem2?1zidong?1SQfa?1Constant2@ 1008e7d0     aaaqi_capi.obj
 0002:0000d7f8       ??_C@_0CB@NEDFBFOG@Subsystem2?1zidong?1SQfa?1Constant3@ 1008e7f8     aaaqi_capi.obj
 0002:0000d820       ??_C@_0CB@JLHEIDCB@Subsystem2?1zidong?1SQfa?1Constant4@ 1008e820     aaaqi_capi.obj
 0002:0000d848       ??_C@_0CB@ICGPLCGA@Subsystem2?1zidong?1SQfa?1Constant5@ 1008e848     aaaqi_capi.obj
 0002:0000d870       ??_C@_0CB@KJECOBKD@Subsystem2?1zidong?1SQfa?1Constant6@ 1008e870     aaaqi_capi.obj
 0002:0000d898       ??_C@_0CB@LAFJNAOC@Subsystem2?1zidong?1SQfa?1Constant7@ 1008e898     aaaqi_capi.obj
 0002:0000d8c0       ??_C@_0CB@DHMBMMCN@Subsystem2?1zidong?1SQfa?1Constant8@ 1008e8c0     aaaqi_capi.obj
 0002:0000d8e8       ??_C@_0CB@CONKPNGM@Subsystem2?1zidong?1SQfa?1Constant9@ 1008e8e8     aaaqi_capi.obj
 0002:0000d910       ??_C@_0CF@DMADEMJH@Subsystem2?1zidong?1Subsystem?1Cons@ 1008e910     aaaqi_capi.obj
 0002:0000d93c       ??_C@_0CG@KIAKACBJ@Subsystem2?1zidong?1Subsystem?1Cons@ 1008e93c     aaaqi_capi.obj
 0002:0000d96c       ??_C@_0CG@EAOOCAPH@Subsystem2?1zidong?1Subsystem1?1Con@ 1008e96c     aaaqi_capi.obj
 0002:0000d99c       ??_C@_0CH@OFMEIOCN@Subsystem2?1zidong?1Subsystem1?1Con@ 1008e99c     aaaqi_capi.obj
 0002:0000d9cc       ??_C@_0CH@MOOJNNOO@Subsystem2?1zidong?1Subsystem1?1Con@ 1008e9cc     aaaqi_capi.obj
 0002:0000d9fc       ??_C@_0CB@DIPHNBJK@Subsystem2?1zidong?1XQfa?1Constant1@ 1008e9fc     aaaqi_capi.obj
 0002:0000da24       ??_C@_0CC@MPKELLHI@Subsystem2?1zidong?1XQfa?1Constant1@ 1008ea24     aaaqi_capi.obj
 0002:0000da4c       ??_C@_0CC@NGLPIKDJ@Subsystem2?1zidong?1XQfa?1Constant1@ 1008ea4c     aaaqi_capi.obj
 0002:0000da74       ??_C@_0CC@PNJCNJPK@Subsystem2?1zidong?1XQfa?1Constant1@ 1008ea74     aaaqi_capi.obj
 0002:0000da9c       ??_C@_0CC@OEIJOILL@Subsystem2?1zidong?1XQfa?1Constant1@ 1008ea9c     aaaqi_capi.obj
 0002:0000dac4       ??_C@_0CC@KLMIHOHM@Subsystem2?1zidong?1XQfa?1Constant1@ 1008eac4     aaaqi_capi.obj
 0002:0000daec       ??_C@_0CC@LCNDEPDN@Subsystem2?1zidong?1XQfa?1Constant1@ 1008eaec     aaaqi_capi.obj
 0002:0000db14       ??_C@_0CC@JJPOBMPO@Subsystem2?1zidong?1XQfa?1Constant1@ 1008eb14     aaaqi_capi.obj
 0002:0000db3c       ??_C@_0CC@IAOFCNLP@Subsystem2?1zidong?1XQfa?1Constant1@ 1008eb3c     aaaqi_capi.obj
 0002:0000db64       ??_C@_0CC@HHNDBHA@Subsystem2?1zidong?1XQfa?1Constant1@ 1008eb64     aaaqi_capi.obj
 0002:0000db8c       ??_C@_0CC@BOGGAADB@Subsystem2?1zidong?1XQfa?1Constant1@ 1008eb8c     aaaqi_capi.obj
 0002:0000dbb4       ??_C@_0CB@BDNKICFJ@Subsystem2?1zidong?1XQfa?1Constant2@ 1008ebb4     aaaqi_capi.obj
 0002:0000dbdc       ??_C@_0CC@MNOCAFCB@Subsystem2?1zidong?1XQfa?1Constant2@ 1008ebdc     aaaqi_capi.obj
 0002:0000dc04       ??_C@_0CC@NEPJDEGA@Subsystem2?1zidong?1XQfa?1Constant2@ 1008ec04     aaaqi_capi.obj
 0002:0000dc2c       ??_C@_0CC@PPNEGHKD@Subsystem2?1zidong?1XQfa?1Constant2@ 1008ec2c     aaaqi_capi.obj
 0002:0000dc54       ??_C@_0CC@OGMPFGOC@Subsystem2?1zidong?1XQfa?1Constant2@ 1008ec54     aaaqi_capi.obj
 0002:0000dc7c       ??_C@_0CC@KJIOMACF@Subsystem2?1zidong?1XQfa?1Constant2@ 1008ec7c     aaaqi_capi.obj
 0002:0000dca4       ??_C@_0CC@LAJFPBGE@Subsystem2?1zidong?1XQfa?1Constant2@ 1008eca4     aaaqi_capi.obj
 0002:0000dccc       ??_C@_0CC@JLLIKCKH@Subsystem2?1zidong?1XQfa?1Constant2@ 1008eccc     aaaqi_capi.obj
 0002:0000dcf4       ??_C@_0CC@ICKDJDOG@Subsystem2?1zidong?1XQfa?1Constant2@ 1008ecf4     aaaqi_capi.obj
 0002:0000dd1c       ??_C@_0CC@FDLIPCJ@Subsystem2?1zidong?1XQfa?1Constant2@ 1008ed1c     aaaqi_capi.obj
 0002:0000dd44       ??_C@_0CC@BMCALOGI@Subsystem2?1zidong?1XQfa?1Constant2@ 1008ed44     aaaqi_capi.obj
 0002:0000dd6c       ??_C@_0CB@KMBLDBI@Subsystem2?1zidong?1XQfa?1Constant3@ 1008ed6c     aaaqi_capi.obj
 0002:0000dd94       ??_C@_0CB@EFIACFNP@Subsystem2?1zidong?1XQfa?1Constant4@ 1008ed94     aaaqi_capi.obj
 0002:0000ddbc       ??_C@_0CB@FMJLBEJO@Subsystem2?1zidong?1XQfa?1Constant5@ 1008edbc     aaaqi_capi.obj
 0002:0000dde4       ??_C@_0CB@HHLGEHFN@Subsystem2?1zidong?1XQfa?1Constant6@ 1008ede4     aaaqi_capi.obj
 0002:0000de0c       ??_C@_0CB@GOKNHGBM@Subsystem2?1zidong?1XQfa?1Constant7@ 1008ee0c     aaaqi_capi.obj
 0002:0000de34       ??_C@_0CB@OJDFGKND@Subsystem2?1zidong?1XQfa?1Constant8@ 1008ee34     aaaqi_capi.obj
 0002:0000de5c       ??_C@_0CB@PACOFLJC@Subsystem2?1zidong?1XQfa?1Constant9@ 1008ee5c     aaaqi_capi.obj
 0002:0000de84       ??_C@_06BNJCAIGJ@double?$AA@ 1008ee84     aaaqi_capi.obj
 0002:0000de8c       ??_C@_06CNMIJIPB@real_T?$AA@ 1008ee8c     aaaqi_capi.obj
 0002:0000de94       ??_C@_0O@PPAIJIHF@unsigned?5char?$AA@ 1008ee94     aaaqi_capi.obj
 0002:0000dea4       ??_C@_09JBMFCIMO@boolean_T?$AA@ 1008eea4     aaaqi_capi.obj
 0002:0000deb0       ??_C@_0P@IIMKEEHB@unsigned?5short?$AA@ 1008eeb0     aaaqi_capi.obj
 0002:0000dec4       ??_C@_08NHGKGJKC@uint16_T?$AA@ 1008eec4     aaaqi_capi.obj
 0002:0000ded0       ??_C@_07NCEHLPOC@uint8_T?$AA@ 1008eed0     aaaqi_capi.obj
 0002:0000dedc       ??_C@_05KNFBNCOH@float?$AA@ 1008eedc     aaaqi_capi.obj
 0002:0000e748       ??_C@_0DJ@FHKINPLE@Unexpected?5itemKind?5?$DN?5DATA_ITEM?5@ 1008f748     rt_logging.obj
 0002:0000e78c       ??_C@_0DA@IEHFPFCJ@Unexpected?5itemKind?$DN?$CFd?5in?5rt_Pro@ 1008f78c     rt_logging.obj
 0002:0000e7c8       ??_C@_0DA@IFLHJPBO@Unexpected?5itemKind?$DN?$CFd?5in?5rt_Pro@ 1008f7c8     rt_logging.obj
 0002:0000e804       ??_C@_0DA@IAPIIJJL@Unexpected?5itemKind?$DN?$CFd?5in?5rt_Pro@ 1008f804     rt_logging.obj
 0002:0000e840       ??_C@_0BE@LCIGPJIG@MATLAB?55?40?5MAT?9file?$AA@ 1008f840     rt_logging.obj
 0002:0000e858       ??_C@_0FB@PCJEAJIB@?$CK?$CK?$CK?5Log?5variable?5?$CFs?5has?5wrapped?5@ 1008f858     rt_logging.obj
 0002:0000e8c0       ??_C@_0MG@NKMLMOGF@?$CK?$CK?$CK?5To?5avoid?5wrapping?0?5explicitl@ 1008f8c0     rt_logging.obj
 0002:0000e9b0       ??_C@_0N@IPAEOLLP@_rtw_tmw?4tmw?$AA@ 1008f9b0     rt_logging.obj
 0002:0000e9c0       ??_C@_04HDOCAJNK@?$CFs?$CFs?$AA@ 1008f9c0     rt_logging.obj
 0002:0000e9c8       ??_C@_03ELIABIOC@w?$CLb?$AA@ 1008f9c8     rt_logging.obj
 0002:0000e9cc       ??_C@_0BF@JPILDDFA@?$CK?$CK?$CK?5Error?5opening?5?$CFs?$AA@ 1008f9cc     rt_logging.obj
 0002:0000e9e8       ??_C@_0BK@EEMDELA@unable?5to?5open?5data?5file?6?$AA@ 1008f9e8     rt_logging.obj
 0002:0000ea08       ??_C@_04CGFJFPFD@none?$AA@ 1008fa08     rt_logging.obj
 0002:0000ea10       ??_C@_0EE@LCGFPNON@?$CK?$CK?$CK?5Error?5creating?5signals?5struc@ 1008fa10     rt_logging.obj
 0002:0000ea64       ??_C@_0CE@NHECEDMK@?$CK?$CK?$CK?5Error?5creating?5log?5variable?5@ 1008fa64     rt_logging.obj
 0002:0000ea90       ??_C@_0DB@IOCGKAGH@?$CK?$CK?$CK?5Errors?5occurred?5when?5startin@ 1008fa90     rt_logging.obj
 0002:0000eacc       ??_C@_0BO@BBLOGEBK@?$CK?$CK?$CK?5Memory?5allocation?5error?4?6?$AA@ 1008facc     rt_logging.obj
 0002:0000eaf0       ??_C@_0N@LGFBAGEL@?5?$CIreal?5part?$CJ?$AA@ 1008faf0     rt_logging.obj
 0002:0000eb00       ??_C@_0KH@CGNMHNFE@?5?5?5?5varName?5?5?5?5?5?5?5?5?5?5?$DN?5?$CFs?$CFs?6?5?5?5?5@ 1008fb00     rt_logging.obj
 0002:0000ebc8       ??_C@_0LE@OALKKEFM@?5?5?5?5varName?5?5?5?5?5?5?5?5?5?5?$DN?5?$CFs?5?$CIcompl@ 1008fbc8     rt_logging.obj
 0002:0000eca0       ??_C@_0KF@JDDLEOKO@?5?5?5?5varName?5?5?5?5?5?5?5?5?5?5?$DN?5?$CFs?6?5?5?5?5nR@ 1008fca0     rt_logging.obj
 0002:0000ed68       ??_C@_0DP@HPDMIOFM@?$CK?$CK?$CK?5Using?5a?5default?5buffer?5of?5si@ 1008fd68     rt_logging.obj
 0002:0000edb8       ??_C@_0KE@JEFOLKNF@?6?$CK?$CK?$CK?5Memory?5required?5to?5log?5vari@ 1008fdb8     rt_logging.obj
 0002:0000ee80       ??_C@_0JP@DKLMHCBI@?$CK?$CK?$CK?5Details?3?6?5?5?5?5?5?5?5varName?5?5?5?5?5@ 1008fe80     rt_logging.obj
 0002:0000ef40       ??_C@_0CM@CAMILBED@?$CK?$CK?$CK?5Error?5allocating?5memory?5for?5@ 1008ff40     rt_logging.obj
 0002:0000ef74       ??_C@_0DF@BBCNMOPM@?$CK?$CK?$CK?5Error?5allocating?5memory?5for?5@ 1008ff74     rt_logging.obj
 0002:0000efb8       ??_C@_0JP@DBCLPCCI@?$CK?$CK?$CK?5Details?3?6?5?5?5?5?5?5?5varName?5?5?5?5?5@ 1008ffb8     rt_logging.obj
 0002:0000f078       ??_C@_0FK@DPGAOBGA@?$CK?$CK?$CK?5Error?5allocating?5memory?5for?5@ 10090078     rt_logging.obj
 0002:0000f0e4       ??_C@_0BI@GGDNPHLJ@?$CK?$CK?$CK?5Error?5writing?5to?5?$CFs?$AA@ 100900e4     rt_logging.obj
 0002:0000f100       ??_C@_0CB@IBGJGELG@?$CK?$CK?$CK?5Error?5writing?5?$CFs?5due?5to?3?5?$CFs?6@ 10090100     rt_logging.obj
 0002:0000f128       ??_C@_0CN@FLMCHCPB@?$CK?$CK?$CK?5Error?5writing?5log?5variable?5?$CF@ 10090128     rt_logging.obj
 0002:0000f160       ??_C@_0DH@GAJCNOJP@?$CK?$CK?$CK?5Error?5writing?5structure?5log?5@ 10090160     rt_logging.obj
 0002:0000f1a4       ??_C@_0BD@POEALECL@?$CK?$CK?5created?5?$CFs?5?$CK?$CK?6?6?$AA@ 100901a4     rt_logging.obj
 0002:0000f1c0       __real@0000000000000000    100901c0     rt_logging.obj
 0002:0000f1d0       __real@41dfffffffc00000    100901d0     rt_logging.obj
 0002:0000f1e0       __real@41efffffffe00000    100901e0     rt_logging.obj
 0002:0000f1f0       __real@bfbf9add3afd2773    100901f0     rt_logging.obj
 0002:0000f200       __real@c000000000000000    10090200     rt_logging.obj
 0002:0000f210       __xmm@20202020202020202020202020202020 10090210     rt_logging.obj
 0002:0000f240       __real@3cb0000000000000    10090240     rt_matrx.obj
 0002:0000f24c       ??_C@_0BI@INNPNFJN@Memory?5Allocation?5Error?$AA@ 1009024c     rtw_modelmap_utils.obj
 0002:0000f268       ??_C@_1GI@JMAMOIHM@?$AAD?$AA?3?$AA?2?$AAM?$AAA?$AAT?$AAL?$AAA?$AAB?$AA?$HO?$AA3?$AA?2?$AAM?$AAA?$AAT?$AAL?$AAA?$AAB?$AA?$HO?$AA2?$AA?2?$AAr?$AAt?$AAw?$AA?2?$AAc?$AA?2?$AAs?$AAr?$AAc?$AA?2?$AAr@ 10090268     rtw_modelmap_utils.obj
 0002:0000f2e4       ??_C@_1CI@OEAJCJND@?$AAj?$AA?5?$AA?$DN?$AA?$DN?$AA?5?$AAe?$AAn?$AAc?$AAo?$AAd?$AAe?$AAd?$AAP?$AAa?$AAt?$AAh?$AAL?$AAe?$AAn?$AA?$AA@ 100902e4     rtw_modelmap_utils.obj
 0002:0000f314       ??_C@_1DC@NFAOIFKB@?$AAe?$AAn?$AAc?$AAo?$AAd?$AAe?$AAd?$AAP?$AAa?$AAt?$AAh?$AA?$FL?$AAj?$AA?9?$AA1?$AA?$FN?$AA?5?$AA?$DN?$AA?$DN?$AA?5?$AA?8?$AA?2?$AA0?$AA?8?$AA?$AA@ 10090314     rtw_modelmap_utils.obj
 0002:0000f350       ??_C@_1DI@FLNJGPEE@?$AAs?$AAi?$AAg?$AAC?$AAo?$AAm?$AAp?$AAl?$AAe?$AAx?$AAi?$AAt?$AAy?$AA?$FL?$AA?$CK?$AAs?$AAi?$AAg?$AAI?$AAd?$AAx?$AA?$FN?$AA?5?$AA?$CB?$AA?$DN?$AA?5?$AA1?$AA?$AA@ 10090350     rtw_modelmap_utils.obj
 0002:0000f398       ??_C@_1KI@OFELMGBG@?$AA?$CI?$AA?$CI?$AA?$CI?$AAd?$AAa?$AAt?$AAa?$AAT?$AAy?$AAp?$AAe?$AAM?$AAa?$AAp?$AA?$CJ?$AA?$FL?$AA?$CI?$AA?$CI?$AA?$CI?$AAs?$AAt?$AAa?$AAt?$AAe?$AAs?$AA?$CJ?$AA?$FL?$AA?$CI?$AAi?$AA?$CJ?$AA?$FN?$AA?4@ 10090398     rtw_modelmap_utils.obj
 0002:0000f464       ??_C@_1DA@ILCMPHNE@?$AAf?$AAu?$AAl?$AAl?$AAP?$AAa?$AAt?$AAh?$AA?5?$AA?$CB?$AA?$DN?$AA?5?$AA?$CI?$AA?$CI?$AAv?$AAo?$AAi?$AAd?$AA?5?$AA?$CK?$AA?$CJ?$AA0?$AA?$CJ?$AA?$AA@ 10090464     rtw_modelmap_utils.obj
 0002:0000f4a0       ??_C@_1CI@OEPPFCCA@?$AAp?$AAa?$AAt?$AAh?$AA?5?$AA?$CB?$AA?$DN?$AA?5?$AA?$CI?$AA?$CI?$AAv?$AAo?$AAi?$AAd?$AA?5?$AA?$CK?$AA?$CJ?$AA0?$AA?$CJ?$AA?$AA@ 100904a0     rtw_modelmap_utils.obj
 0002:0000f4d0       ??_C@_1FK@GLJIMFHB@?$AA?$CI?$AA?$CI?$AAm?$AAm?$AAi?$AA?$CJ?$AA?9?$AA?$DO?$AAI?$AAn?$AAs?$AAt?$AAa?$AAn?$AAc?$AAe?$AAM?$AAa?$AAp?$AA?4?$AAf?$AAu?$AAl?$AAl?$AAP?$AAa?$AAt?$AAh?$AA?$CJ?$AA?5?$AA?$DN?$AA?$DN@ 100904d0     rtw_modelmap_utils.obj
 0002:0000f53c       ??_C@_1DG@HPCJGNCE@?$AAm?$AAm?$AAi?$AAP?$AAa?$AAt?$AAh?$AA?$FL?$AAp?$AAa?$AAt?$AAh?$AAL?$AAe?$AAn?$AA?9?$AA1?$AA?$FN?$AA?5?$AA?$DN?$AA?$DN?$AA?5?$AA?8?$AA?2?$AA0?$AA?8?$AA?$AA@ 1009053c     rtw_modelmap_utils.obj
 0002:0000f57c       ??_C@_1DM@DBAOGGOO@?$AAm?$AAm?$AAi?$AAP?$AAa?$AAt?$AAh?$AA?$FL?$AAm?$AAm?$AAi?$AAP?$AAa?$AAt?$AAh?$AAL?$AAe?$AAn?$AA?9?$AA1?$AA?$FN?$AA?5?$AA?$DN?$AA?$DN?$AA?5?$AA?8?$AA?2?$AA0?$AA?8?$AA?$AA@ 1009057c     rtw_modelmap_utils.obj
 0002:0000f5c4       ??_C@_1DC@LHIAKAFE@?$AAb?$AAl?$AAo?$AAc?$AAk?$AAP?$AAa?$AAt?$AAh?$AA?5?$AA?$CB?$AA?$DN?$AA?5?$AA?$CI?$AA?$CI?$AAv?$AAo?$AAi?$AAd?$AA?5?$AA?$CK?$AA?$CJ?$AA0?$AA?$CJ?$AA?$AA@ 100905c4     rtw_modelmap_utils.obj
 0002:0000f600       ??_C@_1GI@KIEJKPGC@?$AAf?$AAu?$AAl?$AAl?$AAS?$AAt?$AAa?$AAt?$AAe?$AAB?$AAl?$AAo?$AAc?$AAk?$AAP?$AAa?$AAt?$AAh?$AA?$FL?$AAf?$AAu?$AAl?$AAl?$AAS?$AAt?$AAa?$AAt?$AAe?$AAB?$AAl?$AAo?$AAc@ 10090600     rtw_modelmap_utils.obj
 0002:0000f680       ??_C@_1EE@DNPIBJHC@?$AA?$CI?$AA?$CI?$AAd?$AAi?$AAm?$AAM?$AAa?$AAp?$AA?$CJ?$AA?$FL?$AA?$CI?$AAm?$AAa?$AAp?$AAI?$AAd?$AAx?$AA?$CJ?$AA?$FN?$AA?4?$AAn?$AAu?$AAm?$AAD?$AAi?$AAm?$AAs?$AA?$CJ?$AA?5?$AA?$DN?$AA?$DN?$AA?5@ 10090680     rtw_modelmap_utils.obj
 0002:0000f6d4       ??_C@_06JFOKFOED@CSTATE?$AA@ 100906d4     rtw_modelmap_utils.obj
 0002:0000f6dc       ??_C@_06FAENGAMN@DSTATE?$AA@ 100906dc     rtw_modelmap_utils.obj
 0002:0000f6e4       ??_C@_1BI@LEBJNOGG@?$AAc?$AAs?$AAv?$AAI?$AAd?$AAx?$AA?5?$AA?$DO?$AA?$DN?$AA?5?$AA0?$AA?$AA@ 100906e4     rtw_modelmap_utils.obj
 0002:0000f700       ??_C@_1BA@KDMGHCHP@?$AAT?$AAI?$AAD?$AA?$DN?$AA?$DN?$AA?9?$AA1?$AA?$AA@ 10090700     rtw_modelmap_utils.obj
 0002:0000f714       ??_C@_1DM@DHGKBPCE@?$AAs?$AAi?$AAg?$AAP?$AAa?$AAt?$AAh?$AA?$FL?$AAs?$AAi?$AAg?$AAP?$AAa?$AAt?$AAh?$AAL?$AAe?$AAn?$AA?9?$AA1?$AA?$FN?$AA?5?$AA?$DN?$AA?$DN?$AA?5?$AA?8?$AA?2?$AA0?$AA?8?$AA?$AA@ 10090714     rtw_modelmap_utils.obj
 0002:0000f75c       _serialfifoground          1009075c     xpc_datatype_ground.obj
 0002:0000f768       _bcmsg1553ground           10090768     xpc_datatype_ground.obj
 0002:0000f778       _bcstatground              10090778     xpc_datatype_ground.obj
 0002:0000f790       _bmmsg1553ground           10090790     xpc_datatype_ground.obj
 0002:0000f7b0       _ptsetfilename             100907b0     xpctarget.obj
 0002:0000f7b4       _xmlfile                   100907b4     xpctarget.obj
 0002:0000f7bc       ??_C@_05ELFBJOLB@aaaqi?$AA@ 100907bc     xpctarget.obj
 0002:0000f7c4       ??_C@_0L@CHBJKKFC@xpceSetVar?$AA@ 100907c4     xpctarget.obj
 0002:0000f7d4       ??_C@_03JLBJCOMC@6?45?$AA@ 100907d4     xpctarget.obj
 0002:0000f7d8       __real@3fb999999999999a    100907d8     xpctarget.obj
 0002:0000f7e8       __real@407f400000000000    100907e8     xpctarget.obj
 0002:0000f7f8       _aaaqi_BIOMAP              100907f8     appmappingData.obj
 0002:00010d80       _aaaqi_LBLMAP              10091d80     appmappingData.obj
 0002:00012308       _aaaqi_SIDMAP              10093308     appmappingData.obj
 0002:00013890       _aaaqi_SBIO                10094890     appmappingData.obj
 0002:00013fc0       _aaaqi_SLBL                10094fc0     appmappingData.obj
 0002:000146f0       _aaaqi_PTIDSMAP            100956f0     appmappingData.obj
 0002:00015418       _aaaqi_PTNAMESMAP          10096418     appmappingData.obj
 0002:00016140       _aaaqi_SPTMAP              10097140     appmappingData.obj
 0002:000167d4       _aaaqi_dtmap               100977d4     appmappingData.obj
 0002:00016808       _appInfo                   10097808     appmappingData.obj
 0002:00017ed0       ??_C@_0ED@LKHIFFLC@Wrong?5number?5of?5input?5arguments?5@ 10098ed0     adpci_1784.obj
 0002:00017f20       ??_C@_0M@EMGCEMH@ADLINK?99114?$AA@ 10098f20     adpci_1784.obj
 0002:00017f30       ??_C@_0BG@EPCOHGPO@?$CFs?3?5board?5not?5present?$AA@ 10098f30     adpci_1784.obj
 0002:00017f4c       ??_C@_0CI@NFFNBHJA@?$CFs?5?$CIbus?5?$CFd?0?5slot?5?$CFd?$CJ?3?5board?5not?5@ 10098f4c     adpci_1784.obj
 0002:00017f7c       ??_C@_0BK@LNMFPOJE@ErrorCode?$DN?$CFd?5?5Error?5Text?3?$AA@ 10098f7c     canac2pcisetupx.obj
 0002:00017f9c       ??_C@_0BL@LBDCLEE@?5can?8t?5open?5IniFile?5?5?5?5?5?5?5?$AA@ 10098f9c     canac2pcisetupx.obj
 0002:00017fbc       ??_C@_0BL@GMCJFMGA@?5format?5error?5in?5INI?9file?5?$AA@ 10098fbc     canac2pcisetupx.obj
 0002:00017fdc       ??_C@_0BL@EIFEICM@?5error?5opening?5binary?9file?$AA@ 10098fdc     canac2pcisetupx.obj
 0002:00017ffc       ??_C@_0BL@EGFOFLEL@?5error?5reading?5binary?9file?$AA@ 10098ffc     canac2pcisetupx.obj
 0002:0001801c       ??_C@_0BL@JCLHGCOK@?5binary?9file?5too?5long?5?5?5?5?5?$AA@ 1009901c     canac2pcisetupx.obj
 0002:0001803c       ??_C@_0BL@DKMABEA@?5binary?9data?5format?5error?5?$AA@ 1009903c     canac2pcisetupx.obj
 0002:0001805c       ??_C@_0CC@NKNABABE@?5binary?9data?5checksum?5error?5?5?5?5?5@ 1009905c     canac2pcisetupx.obj
 0002:00018084       ??_C@_0BL@IANOGCDJ@?5no?5card?5present?5?5?5?5?5?5?5?5?5?5?$AA@ 10099084     canac2pcisetupx.obj
 0002:000180a4       ??_C@_0BL@DEPHJBMB@?5no?5physical?5memory?5?5?5?5?5?5?5?$AA@ 100990a4     canac2pcisetupx.obj
 0002:000180c4       ??_C@_0BL@NKJKAOEG@?5invalid?5IRQ?9number?5?5?5?5?5?5?5?$AA@ 100990c4     canac2pcisetupx.obj
 0002:000180e4       ??_C@_0BL@DHOAIMOD@?5error?5accessing?5dpram?5?5?5?5?$AA@ 100990e4     canac2pcisetupx.obj
 0002:00018104       ??_C@_0BL@BHDCLMIJ@?5bad?5response?5from?5card?5?5?5?$AA@ 10099104     canac2pcisetupx.obj
 0002:00018124       ??_C@_0BL@HECAOICO@?5sram?5seems?5to?5be?5damaged?5?$AA@ 10099124     canac2pcisetupx.obj
 0002:00018144       ??_C@_0CC@BLEKLLPB@?5invalid?5program?5start?5address?5?5@ 10099144     canac2pcisetupx.obj
 0002:0001816c       ??_C@_0BL@OGENALEB@?5invalid?5record?5type?5?5?5?5?5?5?$AA@ 1009916c     canac2pcisetupx.obj
 0002:0001818c       ??_C@_0CC@LLIEHGNJ@?5no?5response?5after?5program?5start@ 1009918c     canac2pcisetupx.obj
 0002:000181b4       ??_C@_0CC@EHIDOFAK@?5bad?5response?5after?5program?5star@ 100991b4     canac2pcisetupx.obj
 0002:000181dc       ??_C@_0BL@JLDDBAKE@?5pcmcia?5chip?5not?5supported?$AA@ 100991dc     canac2pcisetupx.obj
 0002:000181fc       ??_C@_0CC@MLFENEO@?5error?5reading?5ocmcia?5parameters@ 100991fc     canac2pcisetupx.obj
 0002:00018224       ??_C@_0BL@LGEMKKDE@?5error?5initializing?5chip?5?5?$AA@ 10099224     canac2pcisetupx.obj
 0002:00018244       ??_C@_0O@JGGAGPAH@return?5value?5?$AA@ 10099244     canac2pcisetupx.obj
 0002:00018254       ??_C@_01EEMJAFIK@?6?$AA@   10099254     canac2pcisetupx.obj
 0002:00018258       ??_C@_0CL@LLBFOOA@?9?9?$DOError?5in?5CANPC_start_chip_mbx@ 10099258     canac2pcisetupx.obj
 0002:0001828c       ??_C@_0DE@GGIMIOBE@?9?9?$DOError?5in?5CANPC_enable_dyn_obj@ 1009928c     canac2pcisetupx.obj
 0002:000182cc       ??_C@_0DG@JCBGLGDJ@?9?9?$DOError?5in?5CANPC_initialize_int@ 100992cc     canac2pcisetupx.obj
 0002:00018310       ??_C@_0EF@CKEKFKJF@?9?9?$DOError?5in?5CANPC_define_object_@ 10099310     canac2pcisetupx.obj
 0002:00018364       ??_C@_0BL@LJLMJMND@indexing?5assumption?5failed?$AA@ 10099364     canac2pcisetupx.obj
 0002:00018384       ??_C@_0DP@KBMGJHFI@?9?9?$DOError?5in?5CANPC_define_object_@ 10099384     canac2pcisetupx.obj
 0002:000183d0       ??_C@_0DN@MLCNOCPB@?9?9?$DOError?5in?5CANPC_define_object2@ 100993d0     canac2pcisetupx.obj
 0002:00018420       ??_C@_0EA@MEKOONNL@?9?9?$DOError?5in?5CANPC_define_object2@ 10099420     canac2pcisetupx.obj
 0002:0001846c       ??_C@_0CN@FHALBPDL@?9?9?$DOError?5in?5CANPC_reset_chip_mbx@ 1009946c     canac2pcisetupx.obj
 0002:000184a4       ??_C@_0CP@JPNCEBFF@?9?9?$DOError?5in?5CANPC_init_signals_m@ 100994a4     canac2pcisetupx.obj
 0002:000184dc       ??_C@_0DA@CNNNEDOA@?9?9?$DOError?5in?5CANPC_read_signals1_@ 100994dc     canac2pcisetupx.obj
 0002:00018518       ??_C@_0DA@MHFLJOIC@?9?9?$DOError?5in?5CANPC_read_signals2_@ 10099518     canac2pcisetupx.obj
 0002:00018554       ??_C@_0DB@EGCEMPCG@?9?9?$DOError?5in?5CANPC_write_signals1@ 10099554     canac2pcisetupx.obj
 0002:00018590       ??_C@_0DB@FBLNJFFM@?5?5?5?5?5?5?5?5CAN?51?3?5Physical?5bus?5chan@ 10099590     canac2pcisetupx.obj
 0002:000185cc       ??_C@_0CM@BFGEKPCM@?5?5?5?5?5?5?5?5CAN?51?3?5Lowspeed?5module?5n@ 100995cc     canac2pcisetupx.obj
 0002:00018600       ??_C@_0DB@KMKCBCEE@?9?9?$DOError?5in?5CANPC_write_signals2@ 10099600     canac2pcisetupx.obj
 0002:0001863c       ??_C@_0DB@LNMKKDM@?5?5?5?5?5?5?5?5CAN?52?3?5Physical?5bus?5chan@ 1009963c     canac2pcisetupx.obj
 0002:00018678       ??_C@_0CM@NMHLKHJD@?5?5?5?5?5?5?5?5CAN?52?3?5Lowspeed?5module?5n@ 10099678     canac2pcisetupx.obj
 0002:000186ac       ??_C@_0DC@FADAOIKF@?9?9?$DOError?5in?5CANPC_initialize_chi@ 100996ac     canac2pcisetupx.obj
 0002:000186e8       ??_C@_0DD@COBNGEFP@?9?9?$DOError?5in?5CANPC_initialize_chi@ 100996e8     canac2pcisetupx.obj
 0002:00018728       ??_C@_0DB@EKIEPFNP@?9?9?$DOError?5in?5CANPC_set_acceptance@ 10099728     canac2pcisetupx.obj
 0002:00018764       ??_C@_0DC@JONHEIGA@?9?9?$DOError?5in?5CANPC_set_acceptance@ 10099764     canac2pcisetupx.obj
 0002:000187a0       ??_C@_0CL@DEKLAPHL@?9?9?$DOError?5in?5CANPC_set_mode_mbx?0?5@ 100997a0     canac2pcisetupx.obj
 0002:000187d4       ??_C@_0CM@EPBCAAGL@?9?9?$DOError?5in?5CANPC_set_mode2_mbx?0@ 100997d4     canac2pcisetupx.obj
 0002:00018808       ??_C@_0DF@HHJLLCJD@?9?9?$DOError?5in?5CANPC_set_output_con@ 10099808     canac2pcisetupx.obj
 0002:00018848       ??_C@_0DG@OBIAFKJM@?9?9?$DOError?5in?5CANPC_set_output_con@ 10099848     canac2pcisetupx.obj
 0002:00018888       ??_C@_0BE@EGCKDKDM@init?5ret?5code?50x?$CFx?6?$AA@ 10099888     canac2pcisetupx.obj
 0002:000188a0       ??_C@_0CM@DJALBMJK@CAN?9AC2?9PCI?5Board?5?$CFd?3?5Initializa@ 100998a0     canac2pcisetupx.obj
 0002:000188d4       ??_C@_0DG@IKMIDPHG@?5?5?5?5?5?5?5?5downloading?5CAN?9AC2?9PCI?5@ 100998d4     canac2pcisetupx.obj
 0002:00018914       ??_C@_0CE@MOOIFDOM@?9?9?$DOError?5in?5CANPC_reset_board_mb@ 10099914     canac2pcisetupx.obj
 0002:00018940       ??_C@_0DD@EAPAOCNE@?5?5?5?5?5?5?5?5downloading?5CAN?9AC2?9PCI?5@ 10099940     canac2pcisetupx.obj
 0002:00018980       ??_C@_0CF@IJHBPDBG@?9?9?$DOInitialize_can_parameter?5fail@ 10099980     canac2pcisetupx.obj
 0002:000189ac       ??_C@_0CA@PAJEMEGP@?9?9?$DOInitialize_DOB_mode?5failed?5?6?$AA@ 100999ac     canac2pcisetupx.obj
 0002:000189d4       ??_C@_0BH@DGCALJLI@?9?9?$DOStart_chip?5failed?5?6?$AA@ 100999d4     canac2pcisetupx.obj
 0002:000189f0       ??_C@_0CK@CFMOHDPD@ERROR?3?5?5CANPC_write_object_mbx?5C@ 100999f0     canac2pcisetupx.obj
 0002:00018a24       ??_C@_0CK@BECGGJGO@ERROR?3?5?5CANPC_write_object_mbx?5C@ 10099a24     canac2pcisetupx.obj
 0002:00018a58       ??_C@_0O@KDNHLNEN@canac2_sem_?$CFd?$AA@ 10099a58     canac2pcisetupx.obj
 0002:00018a68       ??_C@_0CP@OANLNPFC@?9?9?$DOError?5in?5CANPC_reinitialize_m@ 10099a68     canac2pcisetupx.obj
 0002:00018aa0       ??_C@_0M@PIDBHPHD@Adlink?56208?$AA@ 10099aa0     da6208.obj
 0002:00018ab0       ??_C@_01MCMALHOG@a?$AA@    10099ab0     da6208.obj
 0002:00018ab8       __real@40e0000000000000    10099ab8     da6208.obj
 0002:00018ac4       ??_C@_07POCAPGBA@pci1716?$AA@ 10099ac4     pci1716DIO.obj
 0002:00018ad0       __real@3f34000000000000    10099ad0     pci1716DIO.obj
 0002:00018ae0       __real@40efffe000000000    10099ae0     pci1716DIO.obj
 0002:00018af0       __real@bfb999999999999a    10099af0     pci1716DIO.obj
 0002:00018afc       ??_C@_0O@CHBECCKN@?2LOADCARD?4INI?$AA@ 10099afc     xpccanac2pci_vc:card_can_mbx.obj
 0002:00018b0c       ??_C@_02CEGDFPFP@?4?2?$AA@ 10099b0c     xpccanac2pci_vc:card_can_mbx.obj
 0002:00018b10       __real@408f400000000000    10099b10     xpccanac2pci_vc:card_can_mbx.obj
 0002:00018b20       __real@4132342800000000    10099b20     xpccanac2pci_vc:card_can_mbx.obj
 0002:00018b2c       ??_C@_07JJGBLIAE@PCI?2VEN?$AA@ 10099b2c     xpccanac2pci_vc:devacc32_mbx.obj
 0002:00018b38       ??_C@_0CC@KFAPHHGD@SOFTING?5GmbH?5CAN?9AC?5PCI?5Interfac@ 10099b38     xpccanac2pci_vc:devacc32_mbx.obj
 0002:00018b60       ??_C@_0M@EKFABCAE@LDBOARD?4INI?$AA@ 10099b60     xpccanac2pci_vc:devacc32_mbx.obj
 0002:00018b70       ??_C@_0M@BCALDNPE@BOOT_CP?4SBN?$AA@ 10099b70     xpccanac2pci_vc:devacc32_mbx.obj
 0002:00018b80       ??_C@_0M@DDKPMKFM@LDBOARD?4SBN?$AA@ 10099b80     xpccanac2pci_vc:devacc32_mbx.obj
 0002:00018b90       ??_C@_0L@OMFEIHM@CANPCI?4SBN?$AA@ 10099b90     xpccanac2pci_vc:devacc32_mbx.obj
 0002:00018ba0       ??_C@_08DCGOAHCE@VCANPCID?$AA@ 10099ba0     xpccanac2pci_vc:devacc32_mbx.obj
 0002:00018bac       ??_C@_0M@IANJNLEG@enable?5IRQ?6?$AA@ 10099bac     xpccanac2pci_vc:devacc32_mbx.obj
 0002:00018bc0       ??_C@_0EK@HKKPIPEA@?6ERROR?5in?5a?5CAN?9AC2?9PCI?5driver?3?5@ 10099bc0     xpccanac2pci_vc:devacc32_mbx.obj
 0002:00018c18       ??_C@_0FF@COKCEECK@?6ERROR?5in?5?5CAN?9AC2?9PCI?5driver?3?5C@ 10099c18     xpccanac2pci_vc:devacc32_mbx.obj
 0002:00018c80       ??_C@_07KAJBENLI@Error?3?5?$AA@ 10099c80     xpccanac2pci_vc:loadcard_mbx.obj
 0002:00018c8c       ??_C@_09CKCJCCOK@Warning?3?5?$AA@ 10099c8c     xpccanac2pci_vc:loadcard_mbx.obj
 0002:00018c98       ??_C@_0CH@GIHNHFPH@Structured?5Binary?5Format?0?5Softin@ 10099c98     xpccanac2pci_vc:loadcard_mbx.obj
 0002:00018cc8       ??_C@_0CK@OALHOBHI@?$CFscard?5DPRAM?5cannot?5be?5accessed?5@ 10099cc8     xpccanac2pci_vc:loadcard_mbx.obj
 0002:00018cfc       ??_C@_0BL@DNJKJNDF@?$CFscan?8t?5open?5BootFile?5?8?$CFs?8?$AA@ 10099cfc     xpccanac2pci_vc:loadcard_mbx.obj
 0002:00018d1c       ??_C@_0BL@FEBBJGBM@?$CFscan?8t?5read?5BootFile?5?8?$CFs?8?$AA@ 10099d1c     xpccanac2pci_vc:loadcard_mbx.obj
 0002:00018d3c       ??_C@_0CH@LHLLKLCM@?$CFsBootFile?5size?5exceeds?5DPRAM?5si@ 10099d3c     xpccanac2pci_vc:loadcard_mbx.obj
 0002:00018d6c       ??_C@_0DA@JPMOGDAF@?$CFsBootFile?5?8?$CFs?8?5has?5no?5Structure@ 10099d6c     xpccanac2pci_vc:loadcard_mbx.obj
 0002:00018da8       ??_C@_0CC@IGEBFOHK@?$CFswrong?5checksum?5in?5BootFile?5?8?$CFs@ 10099da8     xpccanac2pci_vc:loadcard_mbx.obj
 0002:00018dd0       ??_C@_0BL@LBMGNPGA@?$CFscan?8t?5open?5LoadFile?5?8?$CFs?8?$AA@ 10099dd0     xpccanac2pci_vc:loadcard_mbx.obj
 0002:00018df0       ??_C@_0BL@NIENNEEJ@?$CFscan?8t?5read?5LoadFile?5?8?$CFs?8?$AA@ 10099df0     xpccanac2pci_vc:loadcard_mbx.obj
 0002:00018e10       ??_C@_0CH@PMPLLKEH@?$CFsLoadFile?5size?5exceeds?5DPRAM?5si@ 10099e10     xpccanac2pci_vc:loadcard_mbx.obj
 0002:00018e40       ??_C@_0DA@NAHNMCBP@?$CFsLoadFile?5?8?$CFs?8?5has?5no?5Structure@ 10099e40     xpccanac2pci_vc:loadcard_mbx.obj
 0002:00018e7c       ??_C@_0CC@KBNBMCP@?$CFswrong?5checksum?5in?5LoadFile?5?8?$CFs@ 10099e7c     xpccanac2pci_vc:loadcard_mbx.obj
 0002:00018ea4       ??_C@_0CG@DEOKDKBE@?$CFsno?5response?5from?5card?5after?5bo@ 10099ea4     xpccanac2pci_vc:loadcard_mbx.obj
 0002:00018ed4       ??_C@_0CG@DDJEONLI@?$CFsno?5response?5from?5card?5while?5lo@ 10099ed4     xpccanac2pci_vc:loadcard_mbx.obj
 0002:00018f04       ??_C@_0CN@MNKDHG@?$CFsbad?5response?5from?5card?5after?5b@ 10099f04     xpccanac2pci_vc:loadcard_mbx.obj
 0002:00018f3c       ??_C@_0CH@PJFOINGG@?$CFsbad?5response?5from?5card?5while?5l@ 10099f3c     xpccanac2pci_vc:loadcard_mbx.obj
 0002:00018f6c       ??_C@_0CA@NFABAKKG@?$CFscard?5SRAM?5seems?5to?5be?5damaged?$AA@ 10099f6c     xpccanac2pci_vc:loadcard_mbx.obj
 0002:00018f94       ??_C@_0CM@OKEHKJEF@?$CFsno?5response?5from?5card?5after?5pr@ 10099f94     xpccanac2pci_vc:loadcard_mbx.obj
 0002:00018fc8       ??_C@_0CN@NOIJLOKD@?$CFsbad?5response?5from?5card?5after?5p@ 10099fc8     xpccanac2pci_vc:loadcard_mbx.obj
 0002:00019000       ??_C@_0BB@NFIGKIIA@card?5not?5booted?6?$AA@ 1009a000     xpccanac2pci_vc:loadcard_mbx.obj
 0002:00019018       __real@3e112e0be826d695    1009a018     xpcruntime:xpcPCFunctions.obj
 0002:00019028       __real@3f538bcdfefbf402    1009a028     xpcruntime:xpcPCFunctions.obj
 0002:00019038       __real@40112e0be826d695    1009a038     xpcruntime:xpcPCFunctions.obj
 0002:00019044       ??_C@_0CC@DMFKNLL@VendorId?5?$DN?50x?$CFx?0?5DeviceId?5?$DN?50x?$CFx@ 1009a044     xpcruntime:xpcimports.obj
 0002:0001906c       ??_C@_0DH@OHCBLNMG@Subsystem?5Device?5ID?5?$DN?50x?$CFx?6Subsy@ 1009a06c     xpcruntime:xpcimports.obj
 0002:000190b0       ??_C@_0BD@MMMMEFCM@Class?5Code?5?$DN?50x?$CFx?6?$AA@ 1009a0b0     xpcruntime:xpcimports.obj
 0002:000190c8       ??_C@_0BE@OLDDDNHM@InterruptLine?5?$DN?5?$CFd?6?$AA@ 1009a0c8     xpcruntime:xpcimports.obj
 0002:000190e0       ??_C@_0BF@OLKLEKBD@bus?5?$DN?5?$CFd?0?5slot?5?$DN?5?$CFd?6?$AA@ 1009a0e0     xpcruntime:xpcimports.obj
 0002:000190fc       ??_C@_0CE@DGLLGDFH@?5?5?5?5Phys?5?5?5Virtual?5?5?5Length?5IO?1M@ 1009a0fc     xpcruntime:xpcimports.obj
 0002:00019128       ??_C@_0BI@FEOPLEMG@?$CF08x?5?$CF08x?5?$CF08x?5?5?5?5?5?5?$CFc?6?$AA@ 1009a128     xpcruntime:xpcimports.obj
 0002:00019144       ??_C@_0BB@BNNCEDPC@rl32eScopeExists?$AA@ 1009a144     xpcruntime:xpcimports.obj
 0002:00019158       ??_C@_0BM@FJBFEGFG@rl32eScopeExists?5not?5found?6?$AA@ 1009a158     xpcruntime:xpcimports.obj
 0002:0001917c       ??_C@_0O@BNNGKJEA@rl32eDefScope?$AA@ 1009a17c     xpcruntime:xpcimports.obj
 0002:0001918c       ??_C@_0BJ@CDNOENKA@rl32eDefScope?5not?5found?6?$AA@ 1009a18c     xpcruntime:xpcimports.obj
 0002:000191ac       ??_C@_0P@CKNKILDP@rl32eAddSignal?$AA@ 1009a1ac     xpcruntime:xpcimports.obj
 0002:000191c0       ??_C@_0BK@GMJAJBAI@rl32eAddSignal?5not?5found?6?$AA@ 1009a1c0     xpcruntime:xpcimports.obj
 0002:000191e0       ??_C@_0BB@LDMIHGCE@rl32eGetSignalNo?$AA@ 1009a1e0     xpcruntime:xpcimports.obj
 0002:000191f4       ??_C@_0BM@LGAMBAID@rl32eGetSignalNo?5not?5found?6?$AA@ 1009a1f4     xpcruntime:xpcimports.obj
 0002:00019218       ??_C@_0O@CFDGALBP@rl32eSetScope?$AA@ 1009a218     xpcruntime:xpcimports.obj
 0002:00019228       ??_C@_0BJ@JCLHHIN@rl32eSetScope?5not?5found?6?$AA@ 1009a228     xpcruntime:xpcimports.obj
 0002:00019248       ??_C@_0P@IKMCBMHH@xpceFSScopeSet?$AA@ 1009a248     xpcruntime:xpcimports.obj
 0002:0001925c       ??_C@_0BK@JODJPNNH@xpceFSScopeSet?5not?5found?6?$AA@ 1009a25c     xpcruntime:xpcimports.obj
 0002:0001927c       ??_C@_0BE@DLACEEJM@rl32eSetTargetScope?$AA@ 1009a27c     xpcruntime:xpcimports.obj
 0002:00019294       ??_C@_0BP@JCHFMKPJ@rl32eSetTargetScope?5not?5found?6?$AA@ 1009a294     xpcruntime:xpcimports.obj
 0002:000192bc       ??_C@_0BJ@LIDLNDHC@rl32eSetTargetScopeSigFt?$AA@ 1009a2bc     xpcruntime:xpcimports.obj
 0002:000192dc       ??_C@_0CE@JLGHCFHI@rl32eSetTargetScopeSigFt?5not?5fou@ 1009a2dc     xpcruntime:xpcimports.obj
 0002:00019308       ??_C@_0BI@JAPOIDNG@rl32eRestartAcquisition?$AA@ 1009a308     xpcruntime:xpcimports.obj
 0002:00019324       ??_C@_0CD@LLBEFFBO@rl32eRestartAcquisition?5not?5foun@ 1009a324     xpcruntime:xpcimports.obj
 0002:00019350       ??_C@_0P@IEIIADJB@xpceScopeAcqOK?$AA@ 1009a350     xpcruntime:xpcimports.obj
 0002:00019364       ??_C@_0BK@NJCKNFPN@xpceScopeAcqOK?5not?5found?6?$AA@ 1009a364     xpcruntime:xpcimports.obj
 0002:00019384       ??_C@_0BA@IJINKAHF@xpceRegisterISR?$AA@ 1009a384     xpcruntime:xpcimports.obj
 0002:00019398       ??_C@_0BL@NNDLOEJE@xpceRegisterISR?5not?5found?6?$AA@ 1009a398     xpcruntime:xpcimports.obj
 0002:000193b8       ??_C@_0BC@NLBADGKF@xpceDeRegisterISR?$AA@ 1009a3b8     xpcruntime:xpcimports.obj
 0002:000193d0       ??_C@_0BN@DCAIKFFD@xpceDeRegisterISR?5not?5found?6?$AA@ 1009a3d0     xpcruntime:xpcimports.obj
 0002:000193f4       ??_C@_07JPMEPILD@xpcInpB?$AA@ 1009a3f4     xpcruntime:xpcimports.obj
 0002:00019400       ??_C@_0BD@PGABEJOL@xpcInpB?5not?5found?6?$AA@ 1009a400     xpcruntime:xpcimports.obj
 0002:00019418       ??_C@_07KIHBBOKH@xpcInpW?$AA@ 1009a418     xpcruntime:xpcimports.obj
 0002:00019424       ??_C@_0BD@FPCJFMCC@xpcInpW?5not?5found?6?$AA@ 1009a424     xpcruntime:xpcimports.obj
 0002:0001943c       ??_C@_08KDIAJBOP@xpcInpDW?$AA@ 1009a43c     xpcruntime:xpcimports.obj
 0002:00019448       ??_C@_0BE@PIELDNIL@xpcInpDW?5not?5found?6?$AA@ 1009a448     xpcruntime:xpcimports.obj
 0002:00019460       ??_C@_08PJFMOIGO@xpcOutpB?$AA@ 1009a460     xpcruntime:xpcimports.obj
 0002:0001946c       ??_C@_0BE@HCKNCEKF@xpcOutpB?5not?5found?6?$AA@ 1009a46c     xpcruntime:xpcimports.obj
