 gggg_xpc

 Timestamp is 60ad2135 (Wed May 26 00:09:25 2021)

 Preferred load address is 10000000

 Start         Length     Name                   Class
 0001:00000000 0000df50H .text                   CODE
 0001:0000df50 00062b27H .text$mn                CODE
 0002:00000000 00000104H .CRT$XCA                DATA
 0002:00000104 00000104H .CRT$XCZ                DATA
 0002:00000208 00000104H .CRT$XIA                DATA
 0002:0000030c 00000110H .CRT$XIC                DATA
 0002:0000041c 00000104H .CRT$XIZ                DATA
 0002:00000520 00000104H .CRT$XPA                DATA
 0002:00000624 0000010cH .CRT$XPX                DATA
 0002:00000730 00000104H .CRT$XPXA               DATA
 0002:00000834 00000104H .CRT$XPZ                DATA
 0002:00000938 00000104H .CRT$XTA                DATA
 0002:00000a3c 00000104H .CRT$XTZ                DATA
 0002:00000b40 00012bd4H .rdata                  DATA
 0002:00013714 0000038cH .rdata$r                DATA
 0002:00013aa0 00000110H .rdata$sxdata           DATA
 0002:00013bb0 00000188H .rdata$zzzdbg           DATA
 0002:00013d38 00000104H .rtc$IAA                DATA
 0002:00013e3c 00000104H .rtc$IZZ                DATA
 0002:00013f40 00000104H .rtc$TAA                DATA
 0002:00014044 00000104H .rtc$TZZ                DATA
 0002:00014148 00000ac8H .xdata$x                DATA
 0002:00014c10 000001dbH .edata                  DATA
 0003:00000000 0000fdf4H .data                   DATA
 0003:0000fdf4 000001ecH .data$r                 DATA
 0003:0000ffe0 00019274H .bss                    DATA
 0004:00000000 000001f4H .idata$5                DATA
 0004:000001f4 00000014H .idata$2                DATA
 0004:00000208 00000014H .idata$3                DATA
 0004:0000021c 000001f4H .idata$4                DATA
 0004:00000410 000008b1H .idata$6                DATA
 0005:00000000 00000224H .gfids$x                DATA
 0005:00000224 000001a5H .gfids$y                DATA
 0006:00000000 00000104H .00cfg                  DATA

  Address         Publics by Value              Rva+Base       Lib:Object

 0000:00000000       ___guard_longjmp_table     00000000     <absolute>
 0000:00000000       ___guard_longjmp_count     00000000     <absolute>
 0000:00000000       ___dynamic_value_reloc_table 00000000     <absolute>
 0000:00000000       ___guard_iat_table         00000000     <absolute>
 0000:00000000       ___guard_fids_table        00000000     <absolute>
 0000:00000000       __except_list              00000000     <absolute>
 0000:00000000       ___guard_iat_count         00000000     <absolute>
 0000:00000000       ___guard_fids_count        00000000     <absolute>
 0000:00000003       ___safe_se_handler_count   00000003     <absolute>
 0000:00000100       ___guard_flags             00000100     <absolute>
 0000:00000000       ___ImageBase               10000000     <linker-defined>
 0001:00006430       _CANPC_define_cyclic2_mbx  10007430 f   xpccanac2pci_vc:card_can_mbx.obj
 0001:000064e0       _CANPC_define_cyclic_mbx   100074e0 f   xpccanac2pci_vc:card_can_mbx.obj
 0001:00006590       _CANPC_define_object2_mbx  10007590 f   xpccanac2pci_vc:card_can_mbx.obj
 0001:00006720       _CANPC_define_object_mbx   10007720 f   xpccanac2pci_vc:card_can_mbx.obj
 0001:000068b0       _CANPC_enable_dde_check_mbx 100078b0 f   xpccanac2pci_vc:card_can_mbx.obj
 0001:00006a10       _CANPC_enable_dyn_obj_buf_mbx 10007a10 f   xpccanac2pci_vc:card_can_mbx.obj
 0001:00006b10       _CANPC_enable_error_frame_detection_mbx 10007b10 f   xpccanac2pci_vc:card_can_mbx.obj
 0001:00006bd0       _CANPC_enable_fifo_mbx     10007bd0 f   xpccanac2pci_vc:card_can_mbx.obj
 0001:00006cc0       _CANPC_enable_fifo_transmit_ack2_mbx 10007cc0 f   xpccanac2pci_vc:card_can_mbx.obj
 0001:00006d30       _CANPC_enable_fifo_transmit_ack_mbx 10007d30 f   xpccanac2pci_vc:card_can_mbx.obj
 0001:00006da0       _CANPC_enable_ivm_check_mbx 10007da0 f   xpccanac2pci_vc:card_can_mbx.obj
 0001:00006f00       _CANPC_enable_j1939_check_mbx 10007f00 f   xpccanac2pci_vc:card_can_mbx.obj
 0001:00007060       _CANPC_enable_timestamps_mb 10008060 f   xpccanac2pci_vc:card_can_mbx.obj
 0001:00007070       _CANPC_get_bus_state_mbx   10008070 f   xpccanac2pci_vc:card_can_mbx.obj
 0001:000070a0       _CANPC_get_device_id_mbx   100080a0 f   xpccanac2pci_vc:card_can_mbx.obj
 0001:000070d0       _CANPC_get_serial_number_mbx 100080d0 f   xpccanac2pci_vc:card_can_mbx.obj
 0001:00007170       _CANPC_get_time1_mbx       10008170 f   xpccanac2pci_vc:card_can_mbx.obj
 0001:00007470       _CANPC_get_time2_mbx       10008470 f   xpccanac2pci_vc:card_can_mbx.obj
 0001:00007770       _CANPC_get_trigger2_mb     10008770 f   xpccanac2pci_vc:card_can_mbx.obj
 0001:00007780       _CANPC_get_trigger_mb      10008780 f   xpccanac2pci_vc:card_can_mbx.obj
 0001:00007790       _CANPC_get_version_mbx     10008790 f   xpccanac2pci_vc:card_can_mbx.obj
 0001:00007870       _CANPC_init_signals_mbx    10008870 f   xpccanac2pci_vc:card_can_mbx.obj
 0001:00007ac0       _CANPC_initialize_chip2_mbx 10008ac0 f   xpccanac2pci_vc:card_can_mbx.obj
 0001:00007c10       _CANPC_initialize_chip_mbx 10008c10 f   xpccanac2pci_vc:card_can_mbx.obj
 0001:00007d60       _CANPC_initialize_interface_mbx 10008d60 f   xpccanac2pci_vc:card_can_mbx.obj
 0001:00007fe0       _CANPC_optimize_rcv_speed_mb 10008fe0 f   xpccanac2pci_vc:card_can_mbx.obj
 0001:00007ff0       _CANPC_read_ac1_mbx        10008ff0 f   xpccanac2pci_vc:card_can_mbx.obj
 0001:00008eb0       _CANPC_read_ac2_mbx        10009eb0 f   xpccanac2pci_vc:card_can_mbx.obj
 0001:00009d80       _CANPC_read_rcv_data2_mbx  1000ad80 f   xpccanac2pci_vc:card_can_mbx.obj
 0001:00009f30       _CANPC_read_rcv_data_mbx   1000af30 f   xpccanac2pci_vc:card_can_mbx.obj
 0001:0000a0e0       _CANPC_read_rcv_fifo_level1_mbx 1000b0e0 f   xpccanac2pci_vc:card_can_mbx.obj
 0001:0000a160       _CANPC_read_rcv_fifo_level2_mbx 1000b160 f   xpccanac2pci_vc:card_can_mbx.obj
 0001:0000a1e0       _CANPC_read_signals1_mbx   1000b1e0 f   xpccanac2pci_vc:card_can_mbx.obj
 0001:0000a2e0       _CANPC_read_signals2_mbx   1000b2e0 f   xpccanac2pci_vc:card_can_mbx.obj
 0001:0000a3e0       _CANPC_read_xmt_data2_mbx  1000b3e0 f   xpccanac2pci_vc:card_can_mbx.obj
 0001:0000a4a0       _CANPC_read_xmt_data_mbx   1000b4a0 f   xpccanac2pci_vc:card_can_mbx.obj
 0001:0000a560       _CANPC_read_xmt_fifo_level1_mbx 1000b560 f   xpccanac2pci_vc:card_can_mbx.obj
 0001:0000a5e0       _CANPC_read_xmt_fifo_level2_mbx 1000b5e0 f   xpccanac2pci_vc:card_can_mbx.obj
 0001:0000a660       _CANPC_reinitialize_mbx    1000b660 f   xpccanac2pci_vc:card_can_mbx.obj
 0001:0000a6b0       _CANPC_reset_board_mbx     1000b6b0 f   xpccanac2pci_vc:card_can_mbx.obj
 0001:0000a7a0       _CANPC_reset_chip_mbx      1000b7a0 f   xpccanac2pci_vc:card_can_mbx.obj
 0001:0000a8f0       _CANPC_reset_lost_msg_counter_mbx 1000b8f0 f   xpccanac2pci_vc:card_can_mbx.obj
 0001:0000a930       _CANPC_reset_rcv_fifo_mbx  1000b930 f   xpccanac2pci_vc:card_can_mbx.obj
 0001:0000a9f0       _CANPC_reset_xmt_fifo_mbx  1000b9f0 f   xpccanac2pci_vc:card_can_mbx.obj
 0001:0000aac0       _CANPC_send_data2_mbx      1000bac0 f   xpccanac2pci_vc:card_can_mbx.obj
 0001:0000ab80       _CANPC_send_data_mbx       1000bb80 f   xpccanac2pci_vc:card_can_mbx.obj
 0001:0000ac40       _CANPC_send_object2_mbx    1000bc40 f   xpccanac2pci_vc:card_can_mbx.obj
 0001:0000acd0       _CANPC_send_object_mbx     1000bcd0 f   xpccanac2pci_vc:card_can_mbx.obj
 0001:0000ad60       _CANPC_send_remote2_mbx    1000bd60 f   xpccanac2pci_vc:card_can_mbx.obj
 0001:0000ae00       _CANPC_send_remote_mbx     1000be00 f   xpccanac2pci_vc:card_can_mbx.obj
 0001:0000aea0       _CANPC_send_remote_object2_mbx 1000bea0 f   xpccanac2pci_vc:card_can_mbx.obj
 0001:0000af30       _CANPC_send_remote_object_mbx 1000bf30 f   xpccanac2pci_vc:card_can_mbx.obj
 0001:0000afc0       _CANPC_set_acceptance2_mbx 1000bfc0 f   xpccanac2pci_vc:card_can_mbx.obj
 0001:0000b0a0       _CANPC_set_acceptance_mbx  1000c0a0 f   xpccanac2pci_vc:card_can_mbx.obj
 0001:0000b180       _CANPC_set_irq_number_mbx  1000c180 f   xpccanac2pci_vc:card_can_mbx.obj
 0001:0000b260       _CANPC_set_mode2_mbx       1000c260 f   xpccanac2pci_vc:card_can_mbx.obj
 0001:0000b2f0       _CANPC_set_mode_mbx        1000c2f0 f   xpccanac2pci_vc:card_can_mbx.obj
 0001:0000b380       _CANPC_set_output_control2_mbx 1000c380 f   xpccanac2pci_vc:card_can_mbx.obj
 0001:0000b480       _CANPC_set_output_control_mbx 1000c480 f   xpccanac2pci_vc:card_can_mbx.obj
 0001:0000b5a0       _CANPC_set_path_mb         1000c5a0 f   xpccanac2pci_vc:card_can_mbx.obj
 0001:0000b620       _CANPC_set_trigger2_mbx    1000c620 f   xpccanac2pci_vc:card_can_mbx.obj
 0001:0000b6a0       _CANPC_set_trigger_mbx     1000c6a0 f   xpccanac2pci_vc:card_can_mbx.obj
 0001:0000b720       _CANPC_start_chip_mbx      1000c720 f   xpccanac2pci_vc:card_can_mbx.obj
 0001:0000b810       _CANPC_supply_object_data2_mbx 1000c810 f   xpccanac2pci_vc:card_can_mbx.obj
 0001:0000b8d0       _CANPC_supply_object_data_mbx 1000c8d0 f   xpccanac2pci_vc:card_can_mbx.obj
 0001:0000b990       _CANPC_supply_rcv_object_data2_mbx 1000c990 f   xpccanac2pci_vc:card_can_mbx.obj
 0001:0000ba50       _CANPC_supply_rcv_object_data_mbx 1000ca50 f   xpccanac2pci_vc:card_can_mbx.obj
 0001:0000bb10       _CANPC_synch_communication_mbx 1000cb10 f   xpccanac2pci_vc:card_can_mbx.obj
 0001:0000bc30       _CANPC_write_object2_mbx   1000cc30 f   xpccanac2pci_vc:card_can_mbx.obj
 0001:0000bcf0       _CANPC_write_object_mbx    1000ccf0 f   xpccanac2pci_vc:card_can_mbx.obj
 0001:0000bdb0       _CANPC_write_signals1_mbx  1000cdb0 f   xpccanac2pci_vc:card_can_mbx.obj
 0001:0000bf00       _CANPC_write_signals2_mbx  1000cf00 f   xpccanac2pci_vc:card_can_mbx.obj
 0001:0000c050       _LoaderPrintMsgCallBack_mb 1000d050 f   xpccanac2pci_vc:card_can_mbx.obj
 0001:0000c060       _wait_for_handshake_mbx    1000d060 f   xpccanac2pci_vc:card_can_mbx.obj
 0001:0000c100       _INIPC_close_board_mbx     1000d100 f   xpccanac2pci_vc:card_ini_mbx.obj
 0001:0000c130       _INIPC_initialize_board_mbx 1000d130 f   xpccanac2pci_vc:card_ini_mbx.obj
 0001:0000c280       _CS_EnableInterrupt_mbx    1000d280 f   xpccanac2pci_vc:devacc32_mbx.obj
 0001:0000c2f0       _CS_InitCnfReg_mbx         1000d2f0 f   xpccanac2pci_vc:devacc32_mbx.obj
 0001:0000c360       _CS_SetCanCardReset_mbx    1000d360 f   xpccanac2pci_vc:devacc32_mbx.obj
 0001:0000c3d0       _CloseCANDevice_mbx        1000d3d0 f   xpccanac2pci_vc:devacc32_mbx.obj
 0001:0000c420       _GetAssignedIRQ_Nr_mbx     1000d420 f   xpccanac2pci_vc:devacc32_mbx.obj
 0001:0000c470       _GetDeviceId_mbx           1000d470 f   xpccanac2pci_vc:devacc32_mbx.obj
 0001:0000c4b0       _GetDeviceLoadDataPointer_mbx 1000d4b0 f   xpccanac2pci_vc:devacc32_mbx.obj
 0001:0000c500       _GetSBNBufAppDataFileName_mbx 1000d500 f   xpccanac2pci_vc:devacc32_mbx.obj
 0001:0000c550       _GetSBNBufAppDataPointer_mbx 1000d550 f   xpccanac2pci_vc:devacc32_mbx.obj
 0001:0000c5a0       _GetSBNBufBootDataFileName_mbx 1000d5a0 f   xpccanac2pci_vc:devacc32_mbx.obj
 0001:0000c5f0       _GetSBNBufBootDataPointer_mbx 1000d5f0 f   xpccanac2pci_vc:devacc32_mbx.obj
 0001:0000c640       _GetSBNBufIniFileName_mbx  1000d640 f   xpccanac2pci_vc:devacc32_mbx.obj
 0001:0000c690       _GetSBNBufLoadDataFileName_mbx 1000d690 f   xpccanac2pci_vc:devacc32_mbx.obj
 0001:0000c6e0       _GetSBNBufLoadDataPointer_mbx 1000d6e0 f   xpccanac2pci_vc:devacc32_mbx.obj
 0001:0000c730       _GetTimeStampType_mbx      1000d730 f   xpccanac2pci_vc:devacc32_mbx.obj
 0001:0000c780       _Init_devacc32             1000d780 f   xpccanac2pci_vc:devacc32_mbx.obj
 0001:0000c920       _OpenCANDevice_mbx         1000d920 f   xpccanac2pci_vc:devacc32_mbx.obj
 0001:0000ca60       _PnPFreePhysAccess_mbx     1000da60 f   xpccanac2pci_vc:devacc32_mbx.obj
 0001:0000cab0       _PnPGetPhysAccess_mbx      1000dab0 f   xpccanac2pci_vc:devacc32_mbx.obj
 0001:0000cb40       _ReturnErrorCode_mb        1000db40 f   xpccanac2pci_vc:devacc32_mbx.obj
 0001:0000cd80       _pciEnableInterrupt_mbx    1000dd80 f   xpccanac2pci_vc:devacc32_mbx.obj
 0001:0000ce30       _pcireset_mbx              1000de30 f   xpccanac2pci_vc:devacc32_mbx.obj
 0001:0000ced0       _GetAttributeMemoryPtr_mbx 1000ded0 f   xpccanac2pci_vc:loadcard_mbx.obj
 0001:0000cef0       _GetDPRAMPtr_mbx           1000def0 f   xpccanac2pci_vc:loadcard_mbx.obj
 0001:0000cf10       _GetINIData_mbx            1000df10 f   xpccanac2pci_vc:loadcard_mbx.obj
 0001:0000cfa0       _GetINI_IRQ_Nr_mbx         1000dfa0 f   xpccanac2pci_vc:loadcard_mbx.obj
 0001:0000cfc0       _GetINI_Socket_Nr_mbx      1000dfc0 f   xpccanac2pci_vc:loadcard_mbx.obj
 0001:0000d430       _LCInitialization_mbx      1000e430 f   xpccanac2pci_vc:loadcard_mbx.obj
 0001:0000da40       _LCSBNFileToDPRAM_mbx      1000ea40 f   xpccanac2pci_vc:loadcard_mbx.obj
 0001:0000dc60       _LoadCard_mbx              1000ec60 f   xpccanac2pci_vc:loadcard_mbx.obj
 0001:0000dd10       _ReadInitialization_mbx    1000ed10 f   xpccanac2pci_vc:loadcard_mbx.obj
 0001:0000dd20       _SetINIData_mbx            1000ed20 f   xpccanac2pci_vc:loadcard_mbx.obj
 0001:0000dd70       _SetINI_IRQ_Nr_mbx         1000ed70 f   xpccanac2pci_vc:loadcard_mbx.obj
 0001:0000dd90       _fmemcmp_byte_mb           1000ed90 f   xpccanac2pci_vc:loadcard_mbx.obj
 0001:0000ddf0       _fmemcpy_byte_mb           1000edf0 f   xpccanac2pci_vc:loadcard_mbx.obj
 0001:0000de20       _noprintf_mb               1000ee20 f   xpccanac2pci_vc:loadcard_mbx.obj
 0001:0000de30       _ReadSBINRecordFromBuffer_mb 1000ee30 f   xpccanac2pci_vc:sbn_buf_mbx.obj
 0001:0000df50       _MdlInitialize             1000ef50 f   gggg.obj
 0001:0000df60       _MdlInitializeSampleTimes  1000ef60 f   gggg.obj
 0001:0000df70       _MdlInitializeSizes        1000ef70 f   gggg.obj
 0001:0000df80       _MdlOutputs                1000ef80 f   gggg.obj
 0001:0000df90       _MdlStart                  1000ef90 f   gggg.obj
 0001:0000dfa0       _MdlTerminate              1000efa0 f   gggg.obj
 0001:0000dfc0       _MdlUpdate                 1000efc0 f   gggg.obj
 0001:0000dfd0       ___local_stdio_printf_options 1000efd0 f i gggg.obj
 0001:0000dfe0       __vfprintf_l               1000efe0 f i gggg.obj
 0001:0000e010       _gggg                      1000f010 f   gggg.obj
 0001:0000e730       _gggg_DI                   1000f730 f   gggg.obj
 0001:0000e9d0       _gggg_Subsystem1           1000f9d0 f   gggg.obj
 0001:0000ea60       _gggg_Subsystem1_Disable   1000fa60 f   gggg.obj
 0001:0000ea70       _gggg_Subsystem1_Init      1000fa70 f   gggg.obj
 0001:0000ea90       _gggg_Subsystem1_Start     1000fa90 f   gggg.obj
 0001:0000eaa0       _gggg_V_S_1                1000faa0 f   gggg.obj
 0001:0000f010       _gggg_anti_v               10010010 f   gggg.obj
 0001:0000f5f0       _gggg_derivatives          100105f0 f   gggg.obj
 0001:0000f700       _gggg_initialize           10010700 f   gggg.obj
 0001:0000fb00       _gggg_output               10010b00 f   gggg.obj
 0001:00012a60       _gggg_terminate            10013a60 f   gggg.obj
 0001:00012a80       _gggg_update               10013a80 f   gggg.obj
 0001:000133c0       _printf                    100143c0 f i gggg.obj
 0001:00013400       _rt_ODECreateIntegrationData 10014400 f   gggg.obj
 0001:00013410       _rt_ODEDestroyIntegrationData 10014410 f   gggg.obj
 0001:00013420       _rt_ODEUpdateContinuousStates 10014420 f   gggg.obj
 0001:00013b90       _gggg_GetCAPIStaticMap     10014b90 f   gggg_capi.obj
 0001:00013ba0       _gggg_InitializeDataMapInfo 10014ba0 f   gggg_capi.obj
 0001:00013c30       _rtGetInf                  10014c30 f   rtGetInf.obj
 0001:00013c60       _rtGetInfF                 10014c60 f   rtGetInf.obj
 0001:00013c80       _rtGetMinusInf             10014c80 f   rtGetInf.obj
 0001:00013cb0       _rtGetMinusInfF            10014cb0 f   rtGetInf.obj
 0001:00013cd0       _rtGetNaN                  10014cd0 f   rtGetNaN.obj
 0001:00013d00       _rtGetNaNF                 10014d00 f   rtGetNaN.obj
 0001:00013d20       __vsnprintf_l              10014d20 f i rt_logging.obj
 0001:00013d60       __vsprintf_l               10014d60 f i rt_logging.obj
 0001:00013da0       _fprintf                   10014da0 f i rt_logging.obj
 0001:000146b0       _rt_CreateLogVar           100156b0 f   rt_logging.obj
 0001:00014740       _rt_CreateLogVarWithConvert 10015740 f   rt_logging.obj
 0001:000150c0       _rt_CreateStructLogVar     100160c0 f   rt_logging.obj
 0001:00015e20       _rt_GetMxIdFromDTypeId     10016e20 f   rt_logging.obj
 0001:00015e50       _rt_GetMxIdFromDTypeIdForRSim 10016e50 f   rt_logging.obj
 0001:00018720       _rt_StartDataLogging       10019720 f   rt_logging.obj
 0001:00018be0       _rt_StartDataLoggingWithStartTime 10019be0 f   rt_logging.obj
 0001:00019540       _rt_StopDataLogging        1001a540 f   rt_logging.obj
 0001:00019560       _rt_StopDataLoggingImpl    1001a560 f   rt_logging.obj
 0001:00019890       _rt_UpdateLogVar           1001a890 f   rt_logging.obj
 0001:0001a9b0       _rt_UpdateStructLogVar     1001b9b0 f   rt_logging.obj
 0001:0001aa40       _rt_UpdateTXXFYLogVars     1001ba40 f   rt_logging.obj
 0001:0001ad70       _rt_UpdateTXYLogVars       1001bd70 f   rt_logging.obj
 0001:0001afc0       _sprintf                   1001bfc0 f i rt_logging.obj
 0001:0001b000       _rt_CleanUpForStateLogWithMMI 1001c000 f   rt_logging_mmi.obj
 0001:0001b110       _rt_FillStateSigInfoFromMMI 1001c110 f   rt_logging_mmi.obj
 0001:0001b4b0       _rt_mxCreateCharMatrixFromStrings 1001c4b0 f   rt_matrx.obj
 0001:0001b610       _rt_mxCreateDoubleMatrix   1001c610 f   rt_matrx.obj
 0001:0001b670       _rt_mxCreateNumericArray   1001c670 f   rt_matrx.obj
 0001:0001b6f0       _rt_mxCreateString         1001c6f0 f   rt_matrx.obj
 0001:0001b780       _rt_mxDuplicateArray       1001c780 f   rt_matrx.obj
 0001:0001b7e0       _rt_mxGetDimensions        1001c7e0 f   rt_matrx.obj
 0001:0001b820       _rt_mxGetEps               1001c820 f   rt_matrx.obj
 0001:0001b830       _rt_mxGetString            1001c830 f   rt_matrx.obj
 0001:0001b8b0       _rtIsInf                   1001c8b0 f   rt_nonfinite.obj
 0001:0001b8f0       _rtIsInfF                  1001c8f0 f   rt_nonfinite.obj
 0001:0001b930       _rtIsNaN                   1001c930 f   rt_nonfinite.obj
 0001:0001b950       _rtIsNaNF                  1001c950 f   rt_nonfinite.obj
 0001:0001b970       _rt_InitInfAndNaN          1001c970 f   rt_nonfinite.obj
 0001:0001b9d0       _rtPrintfNoOp              1001c9d0 f   rt_printf.obj
 0001:0001b9e0       _rtwCAPI_CountSysRan       1001c9e0 f   rtw_modelmap_utils.obj
 0001:0001ba80       _rtwCAPI_EncodePath        1001ca80 f   rtw_modelmap_utils.obj
 0001:0001bb80       _rtwCAPI_FillSysRan        1001cb80 f   rtw_modelmap_utils.obj
 0001:0001bc70       _rtwCAPI_FreeFullPaths     1001cc70 f   rtw_modelmap_utils.obj
 0001:0001bd00       _rtwCAPI_GetFullStateBlockPath 1001cd00 f   rtw_modelmap_utils.obj
 0001:0001beb0       _rtwCAPI_GetNumContStateRecords 1001ceb0 f   rtw_modelmap_utils.obj
 0001:0001bf70       _rtwCAPI_GetNumSigLogRecords 1001cf70 f   rtw_modelmap_utils.obj
 0001:0001bfc0       _rtwCAPI_GetNumSigLogRecordsForRTWLogging 1001cfc0 f   rtw_modelmap_utils.obj
 0001:0001c060       _rtwCAPI_GetNumStateRecords 1001d060 f   rtw_modelmap_utils.obj
 0001:0001c0b0       _rtwCAPI_GetNumStateRecordsForRTWLogging 1001d0b0 f   rtw_modelmap_utils.obj
 0001:0001c150       _rtwCAPI_GetSigAddrFromMap 1001d150 f   rtw_modelmap_utils.obj
 0001:0001c210       _rtwCAPI_GetSigLogRecordInfo 1001d210 f   rtw_modelmap_utils.obj
 0001:0001c640       _rtwCAPI_GetStateRecordInfo 1001d640 f   rtw_modelmap_utils.obj
 0001:0001caf0       _rtwCAPI_GetStateWidth     1001daf0 f   rtw_modelmap_utils.obj
 0001:0001cb50       _rtwCAPI_HasStates         1001db50 f   rtw_modelmap_utils.obj
 0001:0001cbc0       _rtwCAPI_UpdateFullPaths   1001dbc0 f   rtw_modelmap_utils.obj
 0001:0001cda0       _DllMain@12                1001dda0 f   xpctarget.obj
 0001:0001cdb0       _SLRTSetErrorStatus        1001ddb0 f   xpctarget.obj
 0001:0001cdd0       _changeStepSize            1001ddd0 f   xpctarget.obj
 0001:0001ce40       _getDLMVersion             1001de40 f   xpctarget.obj
 0001:0001ce50       _getRefMdlPath             1001de50 f   xpctarget.obj
 0001:0001ced0       _getRefMdlSignalNumber     1001ded0 f   xpctarget.obj
 0001:0001cf80       _getrlmdlinfo              1001df80 f   xpctarget.obj
 0001:0001d160       _gggg_ChangeStepSize       1001e160 f   xpctarget.obj
 0001:0001d1d0       _updateDiscreteEvents      1001e1d0 f   xpctarget.obj
 0001:0001d1e0       _getNumRef                 1001e1e0 f   appmappingData.obj
 0001:0001d1f0       _vprintf                   1001e1f0 f i legacy_stdio.obj
 0001:0001ddb0       _canac2pcisetupx           1001edb0 f   canac2pcisetupx.obj
 0001:0001ea50       _restoreInterrupts         1001fa50 f   xpcruntime:xpcPCFunctions.obj
 0001:0001ea60       _rl32eGetTicksDouble       1001fa60 f   xpcruntime:xpcPCFunctions.obj
 0001:0001eae0       _saveAndDisableInterrupts  1001fae0 f   xpcruntime:xpcPCFunctions.obj
 0001:0001eb00       _xPCSubtractTime           1001fb00 f   xpcruntime:xpcPCFunctions.obj
 0001:0001eb30       _xpcSubtractTime           1001fb30 f   xpcruntime:xpcPCFunctions.obj
 0001:0001ec10       _GetPCIDeviceFull          1001fc10 f   xpcruntime:xpcimports.obj
 0001:0001ec50       _ShowPCIDevice             1001fc50 f   xpcruntime:xpcimports.obj
 0001:0001f410       _xpcGetPciConfigAtSlot     10020410 f   xpcruntime:xpcimports.obj
 0001:0001f720       _xpcInitProcs              10020720 f   xpcruntime:xpcimports.obj
 0001:00020830       _xpceuploadevent           10021830 f   xpcruntime:xpcimports.obj
 0001:00020831       @__security_check_cookie@4 10021831 f   LIBCMT:_secchk_.obj
 0001:00020846       ___raise_securityfailure   10021846 f   LIBCMT:gs_report.obj
 0001:00020878       ___report_gsfailure        10021878 f   LIBCMT:gs_report.obj
 0001:000209b1       ___report_rangecheckfailure 100219b1 f   LIBCMT:gs_report.obj
 0001:000209c0       ___report_securityfailure  100219c0 f   LIBCMT:gs_report.obj
 0001:00020ac4       ___report_securityfailureEx 10021ac4 f   LIBCMT:gs_report.obj
 0001:00020c20       __ftoui3                   10021c20 f   LIBCMT:_ftol3_.obj
 0001:00020c2f       __ftoul3                   10021c2f f   LIBCMT:_ftol3_.obj
 0001:00020c3e       __ftol3                    10021c3e f   LIBCMT:_ftol3_.obj
 0001:00020c4b       __ftol3_NaN                10021c4b f   LIBCMT:_ftol3_.obj
 0001:00020c63       __ftol3_work               10021c63 f   LIBCMT:_ftol3_.obj
 0001:00020ce9       __ftol3_common             10021ce9 f   LIBCMT:_ftol3_.obj
 0001:00020dab       __ftol3_arg_error          10021dab f   LIBCMT:_ftol3_.obj
 0001:00020dbd       __ftol3_except             10021dbd f   LIBCMT:_ftol3_.obj
 0001:00020e01       __dtoui3                   10021e01 f   LIBCMT:_ftol3_.obj
 0001:00020e10       __dtoul3                   10021e10 f   LIBCMT:_ftol3_.obj
 0001:00020e1f       __dtol3                    10021e1f f   LIBCMT:_ftol3_.obj
 0001:00020e2c       __dtol3_NaN                10021e2c f   LIBCMT:_ftol3_.obj
 0001:00020e49       __dtol3_work               10021e49 f   LIBCMT:_ftol3_.obj
 0001:00020f30       __ultod3                   10021f30 f   LIBCMT:_ftol3_.obj
 0001:00020f70       __ltod3                    10021f70 f   LIBCMT:_ftol3_.obj
 0001:00021074       ___isa_available_init      10022074 f   LIBCMT:_cpu_disp_.obj
 0001:0002163c       __CRT_INIT@12              1002263c f   LIBCMT:dll_dllmain.obj
 0001:00021647       __DllMainCRTStartup@12     10022647 f   LIBCMT:dll_dllmain.obj
 0001:00021672       ??$__crt_fast_decode_pointer@PAP6AXXZ@@YAPAP6AXXZQAP6AXXZ@Z 10022672 f i LIBCMT:utility.obj
 0001:0002168b       ??$__crt_fast_encode_pointer@PAP6AXXZ@@YAPAP6AXXZQAP6AXXZ@Z 1002268b f i LIBCMT:utility.obj
 0001:000216af       ?__crt_rotate_pointer_value@@YAIIH@Z 100226af f i LIBCMT:utility.obj
 0001:000216bf       ?configure_argv@__scrt_narrow_argv_policy@@SAHXZ 100226bf f i LIBCMT:utility.obj
 0001:00021763       _NtCurrentTeb              10022763 f i LIBCMT:utility.obj
 0001:0002176a       ___scrt_acquire_startup_lock 1002276a f   LIBCMT:utility.obj
 0001:000217ac       ___scrt_dllmain_after_initialize_c 100227ac f   LIBCMT:utility.obj
 0001:000217e1       ___scrt_dllmain_before_initialize_c 100227e1 f   LIBCMT:utility.obj
 0001:000217f2       ___scrt_dllmain_crt_thread_attach 100227f2 f   LIBCMT:utility.obj
 0001:00021818       ___scrt_dllmain_crt_thread_detach 10022818 f   LIBCMT:utility.obj
 0001:00021828       ___scrt_dllmain_exception_filter 10022828 f   LIBCMT:utility.obj
 0001:00021867       ___scrt_dllmain_uninitialize_c 10022867 f   LIBCMT:utility.obj
 0001:00021892       ___scrt_dllmain_uninitialize_critical 10022892 f   LIBCMT:utility.obj
 0001:000218a2       ___scrt_initialize_crt     100228a2 f   LIBCMT:utility.obj
 0001:000218e9       ___scrt_initialize_onexit_tables 100228e9 f   LIBCMT:utility.obj
 0001:000219a5       ___scrt_is_nonwritable_in_current_image 100229a5 f   LIBCMT:utility.obj
 0001:00021a51       ___scrt_release_startup_lock 10022a51 f   LIBCMT:utility.obj
 0001:00021a75       ___scrt_uninitialize_crt   10022a75 f   LIBCMT:utility.obj
 0001:00021aa7       __onexit                   10022aa7 f   LIBCMT:utility.obj
 0001:00021af0       _at_quick_exit             10022af0 f   LIBCMT:utility.obj
 0001:00021b2d       _atexit                    10022b2d f   LIBCMT:utility.obj
 0001:00021b47       ___security_init_cookie    10022b47 f   LIBCMT:gs_support.obj
 0001:00021c0a       ?__scrt_initialize_type_info@@YAXXZ 10022c0a f   LIBCMT:tncleanup.obj
 0001:00021c19       ?__scrt_uninitialize_type_info@@YAXXZ 10022c19 f   LIBCMT:tncleanup.obj
 0001:00021c28       ___local_stdio_scanf_options 10022c28 f i LIBCMT:default_local_stdio_options.obj
 0001:00021c2e       ___scrt_initialize_default_local_stdio_options 10022c2e f   LIBCMT:default_local_stdio_options.obj
 0001:00021c52       ___scrt_get_dyn_tls_init_callback 10022c52 f   LIBCMT:dyn_tls_init.obj
 0001:00021c58       ___scrt_fastfail           10022c58 f   LIBCMT:utility_desktop.obj
 0001:00021db9       ___scrt_get_show_window_mode 10022db9 f   LIBCMT:utility_desktop.obj
 0001:00021df8       ___scrt_initialize_winrt   10022df8 f   LIBCMT:utility_desktop.obj
 0001:00021dfb       ___scrt_is_managed_app     10022dfb f   LIBCMT:utility_desktop.obj
 0001:00021e50       ___scrt_set_unhandled_exception_filter 10022e50 f   LIBCMT:utility_desktop.obj
 0001:00021e5f       ___scrt_unhandled_exception_filter@4 10022e5f f   LIBCMT:utility_desktop.obj
 0001:00021eb0       __crt_debugger_hook        10022eb0 f   LIBCMT:utility_desktop.obj
 0001:00021eba       __RTC_Initialize           10022eba f   LIBCMT:_initsect_.obj
 0001:00021eef       __RTC_Terminate            10022eef f   LIBCMT:_initsect_.obj
 0001:00021f24       @_guard_check_icall@4      10022f24 f i LIBCMT:checkcfg.obj
 0001:00021f30       __SEH_prolog4              10022f30 f   LIBCMT:_sehprolg4_.obj
 0001:00021f76       __SEH_epilog4              10022f76 f   LIBCMT:_sehprolg4_.obj
 0001:00021fa1       __get_startup_argv_mode    10022fa1 f   LIBCMT:argv_mode.obj
 0001:00021fa5       ___scrt_is_ucrt_dll_in_use 10022fa5 f   LIBCMT:ucrt_detection.obj
 0001:00021fb4       @_guard_check_icall_nop@4  10022fb4 f i LIBCMT:guard_support.obj
 0001:00021fb5       __guard_icall_checks_enforced 10022fb5 f i LIBCMT:guard_support.obj
 0001:00021fcc       _GetModuleHandleA@4        10022fcc f   kernel32:KERNEL32.dll
 0001:00021fd2       _GetProcAddress@8          10022fd2 f   kernel32:KERNEL32.dll
 0001:00021fd8       _CloseHandle@4             10022fd8 f   kernel32:KERNEL32.dll
 0001:00021fde       _ReleaseSemaphore@12       10022fde f   kernel32:KERNEL32.dll
 0001:00021fe4       _WaitForSingleObject@8     10022fe4 f   kernel32:KERNEL32.dll
 0001:00021fea       _Sleep@4                   10022fea f   kernel32:KERNEL32.dll
 0001:00021ff0       _CreateThread@24           10022ff0 f   kernel32:KERNEL32.dll
 0001:00021ff6       _TerminateThread@8         10022ff6 f   kernel32:KERNEL32.dll
 0001:00021ffc       _GetSystemTimeAsFileTime@4 10022ffc f   kernel32:KERNEL32.dll
 0001:00022002       _CreateSemaphoreA@16       10023002 f   kernel32:KERNEL32.dll
 0001:00022008       _lstrlenA@4                10023008 f   kernel32:KERNEL32.dll
 0001:0002200e       _UnhandledExceptionFilter@4 1002300e f   kernel32:KERNEL32.dll
 0001:00022014       _SetUnhandledExceptionFilter@4 10023014 f   kernel32:KERNEL32.dll
 0001:0002201a       _GetCurrentProcess@0       1002301a f   kernel32:KERNEL32.dll
 0001:00022020       _TerminateProcess@8        10023020 f   kernel32:KERNEL32.dll
 0001:00022026       _IsProcessorFeaturePresent@4 10023026 f   kernel32:KERNEL32.dll
 0001:0002202c       _QueryPerformanceCounter@4 1002302c f   kernel32:KERNEL32.dll
 0001:00022032       _GetCurrentProcessId@0     10023032 f   kernel32:KERNEL32.dll
 0001:00022038       _GetCurrentThreadId@0      10023038 f   kernel32:KERNEL32.dll
 0001:0002203e       _InitializeSListHead@4     1002303e f   kernel32:KERNEL32.dll
 0001:00022044       _IsDebuggerPresent@0       10023044 f   kernel32:KERNEL32.dll
 0001:0002204a       _GetStartupInfoW@4         1002304a f   kernel32:KERNEL32.dll
 0001:00022050       _GetModuleHandleW@4        10023050 f   kernel32:KERNEL32.dll
 0001:00022060       _memcpy                    10023060 f   libvcruntime:memcpy.obj
 0001:00022740       _memset                    10023740 f   libvcruntime:memset.obj
 0001:000228f0       _memmove                   100238f0 f   libvcruntime:memmove.obj
 0001:00022fd0       _strchr                    10023fd0 f   libvcruntime:strchr.obj
 0001:0002303e       ___from_strstr_to_strchr   1002403e     libvcruntime:strchr.obj
 0001:00023190       __except_handler4          10024190 f   libvcruntime:_chandler4_.obj
 0001:0002334f       ___vcrt_initialize         1002434f f   libvcruntime:initialization.obj
 0001:00023382       ___vcrt_thread_attach      10024382 f   libvcruntime:initialization.obj
 0001:0002338f       ___vcrt_thread_detach      1002438f f   libvcruntime:initialization.obj
 0001:0002339c       ___vcrt_uninitialize       1002439c f   libvcruntime:initialization.obj
 0001:000233c2       ___vcrt_uninitialize_critical 100243c2 f   libvcruntime:initialization.obj
 0001:000233dd       ??$?RD@__crt_internal_free_policy@@QBEXQBD@Z 100243dd f i libvcruntime:std_type_info.obj
 0001:000233f1       ??$?RX@__crt_internal_free_policy@@QBEXQBX@Z 100243f1 f i libvcruntime:std_type_info.obj
 0001:00023405       ??$__crt_interlocked_compare_exchange_pointer@$$CBD$$T$$T@@YAPBDPDSBD$$T1@Z 10024405 f i libvcruntime:std_type_info.obj
 0001:0002341b       ??$__crt_interlocked_compare_exchange_pointer@$$CBDPAD$$T@@YAPBDPDSBDQAD$$T@Z 1002441b f i libvcruntime:std_type_info.obj
 0001:00023431       ??$__crt_interlocked_read_pointer@$$CBD@@YAPBDPDSBD@Z 10024431 f i libvcruntime:std_type_info.obj
 0001:00023445       ??0?$__crt_unique_heap_ptr@DU__crt_internal_free_policy@@@@QAE@QAD@Z 10024445 f i libvcruntime:std_type_info.obj
 0001:00023456       ??0?$__crt_unique_heap_ptr@XU__crt_internal_free_policy@@@@QAE@QAX@Z 10024456 f i libvcruntime:std_type_info.obj
 0001:00023467       ??1?$__crt_unique_heap_ptr@DU__crt_internal_free_policy@@@@QAE@XZ 10024467 f i libvcruntime:std_type_info.obj
 0001:0002347b       ??1?$__crt_unique_heap_ptr@XU__crt_internal_free_policy@@@@QAE@XZ 1002447b f i libvcruntime:std_type_info.obj
 0001:0002349b       ??B?$__crt_unique_heap_ptr@DU__crt_internal_free_policy@@@@QBE_NXZ 1002449b f i libvcruntime:std_type_info.obj
 0001:000234a2       ??B?$__crt_unique_heap_ptr@XU__crt_internal_free_policy@@@@QBE_NXZ 100244a2 f i libvcruntime:std_type_info.obj
 0001:000234d1       ?detach@?$__crt_unique_heap_ptr@XU__crt_internal_free_policy@@@@QAEPAXXZ 100244d1 f i libvcruntime:std_type_info.obj
 0001:000234d7       ?get@?$__crt_unique_heap_ptr@DU__crt_internal_free_policy@@@@QBEPADXZ 100244d7 f i libvcruntime:std_type_info.obj
 0001:000234da       ?get@?$__crt_unique_heap_ptr@XU__crt_internal_free_policy@@@@QBEPAXXZ 100244da f i libvcruntime:std_type_info.obj
 0001:000234dd       ?is_valid@?$__crt_unique_heap_ptr@DU__crt_internal_free_policy@@@@QBE_NXZ 100244dd f i libvcruntime:std_type_info.obj
 0001:000234e4       ?is_valid@?$__crt_unique_heap_ptr@XU__crt_internal_free_policy@@@@QBE_NXZ 100244e4 f i libvcruntime:std_type_info.obj
 0001:000234eb       ?release@?$__crt_unique_heap_ptr@DU__crt_internal_free_policy@@@@QAEXXZ 100244eb f i libvcruntime:std_type_info.obj
 0001:000234ff       ?release@?$__crt_unique_heap_ptr@XU__crt_internal_free_policy@@@@QAEXXZ 100244ff f i libvcruntime:std_type_info.obj
 0001:00023513       ___std_type_info_compare   10024513 f   libvcruntime:std_type_info.obj
 0001:0002355e       ___std_type_info_destroy_list 1002455e f   libvcruntime:std_type_info.obj
 0001:00023589       ___std_type_info_hash      10024589 f   libvcruntime:std_type_info.obj
 0001:000235b8       ___std_type_info_name      100245b8 f   libvcruntime:std_type_info.obj
 0001:000236c0       __local_unwind4            100246c0 f   libvcruntime:_exsup4_.obj
 0001:00023796       __seh_longjmp_unwind4@4    10024796 f   libvcruntime:_exsup4_.obj
 0001:000237be       @_EH4_CallFilterFunc@8     100247be f   libvcruntime:_exsup4_.obj
 0001:000237d5       @_EH4_TransferToHandler@8  100247d5 f   libvcruntime:_exsup4_.obj
 0001:000237ee       @_EH4_GlobalUnwind2@8      100247ee f   libvcruntime:_exsup4_.obj
 0001:00023807       @_EH4_LocalUnwind@16       10024807 f   libvcruntime:_exsup4_.obj
 0001:00023875       ___except_validate_context_record 10024875 f   libvcruntime:jbcxrval.obj
 0001:00023876       ___except_validate_jump_buffer 10024876 f   libvcruntime:jbcxrval.obj
 0001:00023877       ??$?RU__vcrt_ptd@@@__crt_internal_free_policy@@QBEXQBU__vcrt_ptd@@@Z 10024877 f i libvcruntime:per_thread_data.obj
 0001:0002388b       ??0?$__crt_unique_heap_ptr@U__vcrt_ptd@@U__crt_internal_free_policy@@@@QAE@QAU__vcrt_ptd@@@Z 1002488b f i libvcruntime:per_thread_data.obj
 0001:000238ae       ??1?$__crt_unique_heap_ptr@U__vcrt_ptd@@U__crt_internal_free_policy@@@@QAE@XZ 100248ae f i libvcruntime:per_thread_data.obj
 0001:000238cd       ??B?$__crt_unique_heap_ptr@U__vcrt_ptd@@U__crt_internal_free_policy@@@@QBE_NXZ 100248cd f i libvcruntime:per_thread_data.obj
 0001:000238d4       ?detach@?$__crt_unique_heap_ptr@U__vcrt_ptd@@U__crt_internal_free_policy@@@@QAEPAU__vcrt_ptd@@XZ 100248d4 f i libvcruntime:per_thread_data.obj
 0001:000238da       ?get@?$__crt_unique_heap_ptr@U__vcrt_ptd@@U__crt_internal_free_policy@@@@QBEPAU__vcrt_ptd@@XZ 100248da f i libvcruntime:per_thread_data.obj
 0001:000238dd       ?is_valid@?$__crt_unique_heap_ptr@U__vcrt_ptd@@U__crt_internal_free_policy@@@@QBE_NXZ 100248dd f i libvcruntime:per_thread_data.obj
 0001:000238e4       ?release@?$__crt_unique_heap_ptr@U__vcrt_ptd@@U__crt_internal_free_policy@@@@QAEXXZ 100248e4 f i libvcruntime:per_thread_data.obj
 0001:00023918       ___vcrt_freefls@4          10024918 f   libvcruntime:per_thread_data.obj
 0001:0002393b       ___vcrt_freeptd            1002493b f   libvcruntime:per_thread_data.obj
 0001:0002397e       ___vcrt_getptd             1002497e f   libvcruntime:per_thread_data.obj
 0001:0002398f       ___vcrt_getptd_noexit      1002498f f   libvcruntime:per_thread_data.obj
 0001:00023a45       ___vcrt_initialize_ptd     10024a45 f   libvcruntime:per_thread_data.obj
 0001:00023a84       ___vcrt_uninitialize_ptd   10024a84 f   libvcruntime:per_thread_data.obj
 0001:00023aa5       ___vcrt_initialize_locks   10024aa5 f   libvcruntime:locks.obj
 0001:00023af0       ___vcrt_lock               10024af0 f   libvcruntime:locks.obj
 0001:00023b0a       ___vcrt_uninitialize_locks 10024b0a f   libvcruntime:locks.obj
 0001:00023b44       ___vcrt_unlock             10024b44 f   libvcruntime:locks.obj
 0001:00023b5e       ??$?BX@__crt_fast_encoded_nullptr_t@@QBEPAXXZ 10024b5e f i libvcruntime:winapi_downlevel.obj
 0001:00023b7c       ??$__crt_fast_decode_pointer@PAX@@YAPAXQAX@Z 10024b7c f i libvcruntime:winapi_downlevel.obj
 0001:00023b95       ??$__crt_fast_encode_pointer@PAX@@YAPAXQAX@Z 10024b95 f i libvcruntime:winapi_downlevel.obj
 0001:00023bb9       ??$__crt_interlocked_compare_exchange_pointer@UHINSTANCE__@@$$T$$T@@YAPAUHINSTANCE__@@PDSAU0@$$T1@Z 10024bb9 f i libvcruntime:winapi_downlevel.obj
 0001:00023bcf       ??$__crt_interlocked_compare_exchange_pointer@X$$T$$T@@YAPAXPDSAX$$T1@Z 10024bcf f i libvcruntime:winapi_downlevel.obj
 0001:00023be5       ??$__crt_interlocked_exchange_pointer@UHINSTANCE__@@PAU1@@@YAPAUHINSTANCE__@@PDSAU0@QAU0@@Z 10024be5 f i libvcruntime:winapi_downlevel.obj
 0001:00023bf5       ??$__crt_interlocked_exchange_pointer@UHINSTANCE__@@PAX@@YAPAUHINSTANCE__@@PDSAU0@QAX@Z 10024bf5 f i libvcruntime:winapi_downlevel.obj
 0001:00023c05       ??$__crt_interlocked_exchange_pointer@XPAX@@YAPAXPDSAXQAX@Z 10024c05 f i libvcruntime:winapi_downlevel.obj
 0001:00023c15       ??$__crt_interlocked_read_pointer@UHINSTANCE__@@@@YAPAUHINSTANCE__@@PDSAU0@@Z 10024c15 f i libvcruntime:winapi_downlevel.obj
 0001:00023c29       ??$__crt_interlocked_read_pointer@X@@YAPAXPDSAX@Z 10024c29 f i libvcruntime:winapi_downlevel.obj
 0001:00023c3d       ?__crt_fast_encode_pointer@@YA?AU__crt_fast_encoded_nullptr_t@@$$T@Z 10024c3d f i libvcruntime:winapi_downlevel.obj
 0001:00023f81       ___vcrt_EventRegister      10024f81 f   libvcruntime:winapi_downlevel.obj
 0001:00023fd1       ___vcrt_EventSetInformation 10024fd1 f   libvcruntime:winapi_downlevel.obj
 0001:00024024       ___vcrt_EventUnregister    10025024 f   libvcruntime:winapi_downlevel.obj
 0001:0002406c       ___vcrt_EventWriteTransfer 1002506c f   libvcruntime:winapi_downlevel.obj
 0001:000240c7       ___vcrt_FlsAlloc           100250c7 f   libvcruntime:winapi_downlevel.obj
 0001:0002410f       ___vcrt_FlsFree            1002510f f   libvcruntime:winapi_downlevel.obj
 0001:00024157       ___vcrt_FlsGetValue        10025157 f   libvcruntime:winapi_downlevel.obj
 0001:0002419f       ___vcrt_FlsSetValue        1002519f f   libvcruntime:winapi_downlevel.obj
 0001:000241eb       ___vcrt_InitializeCriticalSectionEx 100251eb f   libvcruntime:winapi_downlevel.obj
 0001:00024242       ___vcrt_initialize_winapi_thunks 10025242 f   libvcruntime:winapi_downlevel.obj
 0001:0002428a       ___vcrt_uninitialize_winapi_thunks 1002528a f   libvcruntime:winapi_downlevel.obj
 0001:000242c8       ??$?B$$A6AXXZ@__crt_fast_encoded_nullptr_t@@QBEP6AXXZXZ 100252c8 f i libvcruntime:purevirt_data.obj
 0001:000242e6       ??$__crt_fast_encode_pointer@P6AXXZ@@YAP6AXXZQ6AXXZ@Z 100252e6 f i libvcruntime:purevirt_data.obj
 0001:0002430a       ___vcrt_initialize_pure_virtual_call_handler 1002530a f   libvcruntime:purevirt_data.obj
 0001:0002432e       ??$__vcrt_va_start_verify_argument_type@QBD@@YAXXZ 1002532e f i libvcruntime:undname.obj
 0001:0002432f       ??0Block@_HeapManager@@QAE@XZ 1002532f f i libvcruntime:undname.obj
 0001:00024335       ??0DName@@QAE@AAPBDD@Z     10025335 f   libvcruntime:undname.obj
 0001:0002441c       ??0DName@@QAE@ABV0@@Z      1002541c f i libvcruntime:undname.obj
 0001:00024437       ??0DName@@QAE@D@Z          10025437 f   libvcruntime:undname.obj
 0001:0002446e       ??0DName@@QAE@PAV0@@Z      1002546e f   libvcruntime:undname.obj
 0001:000244ce       ??0DName@@QAE@PBD@Z        100254ce f   libvcruntime:undname.obj
 0001:00024516       ??0DName@@QAE@W4DNameStatus@@@Z 10025516 f   libvcruntime:undname.obj
 0001:00024569       ??0DName@@QAE@XZ           10025569 f i libvcruntime:undname.obj
 0001:0002457e       ??0DName@@QAE@_J@Z         1002557e f   libvcruntime:undname.obj
 0001:00024638       ??0DName@@QAE@_K@Z         10025638 f   libvcruntime:undname.obj
 0001:000246c2       ??0DNameNode@@IAE@XZ       100256c2 f   libvcruntime:undname.obj
 0001:000246cd       ??0DNameStatusNode@@AAE@W4DNameStatus@@@Z 100256cd f   libvcruntime:undname.obj
 0001:000246f8       ??0Replicator@@QAE@XZ      100256f8 f i libvcruntime:undname.obj
 0001:000246fe       ??0UnDecorator@@QAE@PADPBDHP6APADJ@ZK@Z 100256fe f i libvcruntime:undname.obj
 0001:00024781       ??0charNode@@QAE@D@Z       10025781 f   libvcruntime:undname.obj
 0001:0002479b       ??0pDNameNode@@QAE@PAVDName@@@Z 1002579b f   libvcruntime:undname.obj
 0001:000247cd       ??0pairNode@@QAE@PAVDNameNode@@0@Z 100257cd f   libvcruntime:undname.obj
 0001:000247f3       ??0pcharNode@@QAE@PBDH@Z   100257f3 f   libvcruntime:undname.obj
 0001:00024862       ??2@YAPAXIAAV_HeapManager@@H@Z 10025862 f i libvcruntime:undname.obj
 0001:0002487c       ??4DName@@QAEAAV0@ABV0@@Z  1002587c f   libvcruntime:undname.obj
 0001:00024897       ??4DName@@QAEAAV0@D@Z      10025897 f i libvcruntime:undname.obj
 0001:000248ce       ??4DName@@QAEAAV0@PAV0@@Z  100258ce f   libvcruntime:undname.obj
 0001:00024929       ??4DName@@QAEAAV0@PBD@Z    10025929 f   libvcruntime:undname.obj
 0001:00024967       ??4DName@@QAEAAV0@W4DNameStatus@@@Z 10025967 f   libvcruntime:undname.obj
 0001:000249a9       ??AReplicator@@QBE?AVDName@@H@Z 100259a9 f   libvcruntime:undname.obj
 0001:000249f4       ??BUnDecorator@@QAEPADXZ   100259f4 f i libvcruntime:undname.obj
 0001:00024bcb       ??H@YA?AVDName@@DABV0@@Z   10025bcb f i libvcruntime:undname.obj
 0001:00024bf8       ??H@YA?AVDName@@PBDABV0@@Z 10025bf8 f i libvcruntime:undname.obj
 0001:00024c25       ??H@YA?AVDName@@W4DNameStatus@@ABV0@@Z 10025c25 f i libvcruntime:undname.obj
 0001:00024c52       ??HDName@@QBE?AV0@ABV0@@Z  10025c52 f   libvcruntime:undname.obj
 0001:00024c7c       ??HDName@@QBE?AV0@D@Z      10025c7c f   libvcruntime:undname.obj
 0001:00024ca6       ??HDName@@QBE?AV0@PAV0@@Z  10025ca6 f   libvcruntime:undname.obj
 0001:00024cd0       ??HDName@@QBE?AV0@PBD@Z    10025cd0 f   libvcruntime:undname.obj
 0001:00024cfa       ??HDName@@QBE?AV0@W4DNameStatus@@@Z 10025cfa f   libvcruntime:undname.obj
 0001:00024d24       ??YDName@@QAEAAV0@ABV0@@Z  10025d24 f   libvcruntime:undname.obj
 0001:00024d77       ??YDName@@QAEAAV0@D@Z      10025d77 f   libvcruntime:undname.obj
 0001:00024ddb       ??YDName@@QAEAAV0@PAV0@@Z  10025ddb f   libvcruntime:undname.obj
 0001:00024e59       ??YDName@@QAEAAV0@PBD@Z    10025e59 f   libvcruntime:undname.obj
 0001:00024ed2       ??YDName@@QAEAAV0@W4DNameStatus@@@Z 10025ed2 f   libvcruntime:undname.obj
 0001:00024f22       ??YReplicator@@QAEAAV0@ABVDName@@@Z 10025f22 f   libvcruntime:undname.obj
 0001:00024f7e       ??_5DName@@QAEAAV0@ABV0@@Z 10025f7e f   libvcruntime:undname.obj
 0001:00024fa1       ?Constructor@_HeapManager@@QAEXP6APAXI@ZP6AXPAX@Z@Z 10025fa1 f i libvcruntime:undname.obj
 0001:00024fc5       ?Destructor@_HeapManager@@QAEXXZ 10025fc5 f i libvcruntime:undname.obj
 0001:0002500c       ?UScore@UnDecorator@@SAPBDW4Tokens@@@Z 1002600c f   libvcruntime:undname.obj
 0001:00025030       ?append@DName@@AAEXPAVDNameNode@@@Z 10026030 f   libvcruntime:undname.obj
 0001:00025087       ?composeDeclaration@UnDecorator@@CA?AVDName@@ABV2@@Z 10026087 f i libvcruntime:undname.obj
 0001:000260c2       ?doAccessSpecifiers@UnDecorator@@SAHXZ 100270c2 f i libvcruntime:undname.obj
 0001:000260d3       ?doAllocationLanguage@UnDecorator@@SAHXZ 100270d3 f i libvcruntime:undname.obj
 0001:000260e4       ?doAllocationModel@UnDecorator@@SAHXZ 100270e4 f i libvcruntime:undname.obj
 0001:000260f5       ?doEcsu@UnDecorator@@SAHXZ 100270f5 f i libvcruntime:undname.obj
 0001:00026106       ?doEllipsis@UnDecorator@@SAHXZ 10027106 f i libvcruntime:undname.obj
 0001:00026117       ?doFunctionReturns@UnDecorator@@SAHXZ 10027117 f i libvcruntime:undname.obj
 0001:00026128       ?doMSKeywords@UnDecorator@@SAHXZ 10027128 f i libvcruntime:undname.obj
 0001:00026138       ?doMemberTypes@UnDecorator@@SAHXZ 10027138 f i libvcruntime:undname.obj
 0001:00026149       ?doNameOnly@UnDecorator@@SAHXZ 10027149 f i libvcruntime:undname.obj
 0001:00026156       ?doNoIdentCharCheck@UnDecorator@@SAHXZ 10027156 f i libvcruntime:undname.obj
 0001:00026163       ?doPchar@DName@@AAEXPBDH@Z 10027163 f   libvcruntime:undname.obj
 0001:0002620f       ?doPtr64@UnDecorator@@SAHXZ 1002720f f i libvcruntime:undname.obj
 0001:00026220       ?doRestrictionSpec@UnDecorator@@SAHXZ 10027220 f i libvcruntime:undname.obj
 0001:00026231       ?doThisTypes@UnDecorator@@SAHXZ 10027231 f i libvcruntime:undname.obj
 0001:00026247       ?doThrowTypes@UnDecorator@@SAHXZ 10027247 f i libvcruntime:undname.obj
 0001:00026258       ?doTypeOnly@UnDecorator@@SAHXZ 10027258 f i libvcruntime:undname.obj
 0001:00026265       ?doUnderScore@UnDecorator@@SAHXZ 10027265 f i libvcruntime:undname.obj
 0001:00026272       ?getArgumentList@UnDecorator@@CA?AVDName@@XZ 10027272 f   libvcruntime:undname.obj
 0001:000263c1       ?getArgumentTypes@UnDecorator@@CA?AVDName@@XZ 100273c1 f   libvcruntime:undname.obj
 0001:000264d9       ?getArrayType@UnDecorator@@CA?AVDName@@ABV2@@Z 100274d9 f i libvcruntime:undname.obj
 0001:0002675b       ?getBasedType@UnDecorator@@CA?AVDName@@XZ 1002775b f   libvcruntime:undname.obj
 0001:0002681a       ?getBasicDataType@UnDecorator@@CA?AVDName@@ABV2@@Z 1002781a f   libvcruntime:undname.obj
 0001:00026d04       ?getCallIndex@UnDecorator@@CA?AVDName@@XZ 10027d04 f i libvcruntime:undname.obj
 0001:00026d1d       ?getCallingConvention@UnDecorator@@CA?AVDName@@XZ 10027d1d f   libvcruntime:undname.obj
 0001:00026e0b       ?getDataIndirectType@UnDecorator@@CA?AVDName@@ABV2@PBD0H@Z 10027e0b f   libvcruntime:undname.obj
 0001:000275b6       ?getDataIndirectType@UnDecorator@@CA?AVDName@@XZ 100285b6 f i libvcruntime:undname.obj
 0001:000275fd       ?getDataType@UnDecorator@@CA?AVDName@@PAV2@@Z 100285fd f   libvcruntime:undname.obj
 0001:00027703       ?getDecoratedName@UnDecorator@@CA?AVDName@@XZ 10028703 f   libvcruntime:undname.obj
 0001:000279e2       ?getDimension@UnDecorator@@CA?AVDName@@_N@Z 100289e2 f   libvcruntime:undname.obj
 0001:00027b66       ?getDispatchTarget@UnDecorator@@CA?AVDName@@XZ 10028b66 f   libvcruntime:undname.obj
 0001:00027bd7       ?getDisplacement@UnDecorator@@CA?AVDName@@XZ 10028bd7 f i libvcruntime:undname.obj
 0001:00027bf0       ?getECSUDataType@UnDecorator@@CA?AVDName@@XZ 10028bf0 f   libvcruntime:undname.obj
 0001:00027d54       ?getECSUName@UnDecorator@@CA?AVDName@@XZ 10028d54 f i libvcruntime:undname.obj
 0001:00027d69       ?getEnumType@UnDecorator@@CA?AVDName@@XZ 10028d69 f i libvcruntime:undname.obj
 0001:00027e90       ?getExtendedDataIndirectType@UnDecorator@@CA?AVDName@@AAPBDAA_NH@Z 10028e90 f   libvcruntime:undname.obj
 0001:000280a3       ?getExternalDataType@UnDecorator@@CA?AVDName@@ABV2@@Z 100290a3 f i libvcruntime:undname.obj
 0001:0002813a       ?getFunctionIndirectType@UnDecorator@@CA?AVDName@@ABV2@@Z 1002913a f   libvcruntime:undname.obj
 0001:00028645       ?getGuardNumber@UnDecorator@@CA?AVDName@@XZ 10029645 f i libvcruntime:undname.obj
 0001:0002865e       ?getLastChar@DName@@QBEDXZ 1002965e f i libvcruntime:undname.obj
 0001:00028684       ?getLastChar@DNameStatusNode@@UBEDXZ 10029684 f i libvcruntime:undname.obj
 0001:00028693       ?getLastChar@charNode@@UBEDXZ 10029693 f i libvcruntime:undname.obj
 0001:00028697       ?getLastChar@pDNameNode@@UBEDXZ 10029697 f i libvcruntime:undname.obj
 0001:000286a8       ?getLastChar@pairNode@@UBEDXZ 100296a8 f i libvcruntime:undname.obj
 0001:000286e7       ?getLastChar@pcharNode@@UBEDXZ 100296e7 f i libvcruntime:undname.obj
 0001:000286fd       ?getLexicalFrame@UnDecorator@@CA?AVDName@@XZ 100296fd f i libvcruntime:undname.obj
 0001:00028749       ?getMemory@_HeapManager@@QAEPAXIH@Z 10029749 f   libvcruntime:undname.obj
 0001:000287fa       ?getNumberOfDimensions@UnDecorator@@CAHXZ 100297fa f   libvcruntime:undname.obj
 0001:00028873       ?getOperatorName@UnDecorator@@CA?AVDName@@_NPA_N@Z 10029873 f i libvcruntime:undname.obj
 0001:00029023       ?getPointerType@UnDecorator@@CA?AVDName@@ABV2@0@Z 1002a023 f i libvcruntime:undname.obj
 0001:00029048       ?getPointerTypeArray@UnDecorator@@CA?AVDName@@ABV2@0@Z 1002a048 f i libvcruntime:undname.obj
 0001:0002906d       ?getPrimaryDataType@UnDecorator@@CA?AVDName@@ABV2@@Z 1002a06d f   libvcruntime:undname.obj
 0001:000292de       ?getPtrRefDataType@UnDecorator@@CA?AVDName@@ABV2@H@Z 1002a2de f   libvcruntime:undname.obj
 0001:00029420       ?getPtrRefType@UnDecorator@@CA?AVDName@@ABV2@0PBD@Z 1002a420 f   libvcruntime:undname.obj
 0001:0002955b       ?getReferenceType@UnDecorator@@CA?AVDName@@ABV2@0PBD@Z 1002a55b f i libvcruntime:undname.obj
 0001:0002957e       ?getRestrictionSpec@UnDecorator@@CA?AVDName@@XZ 1002a57e f   libvcruntime:undname.obj
 0001:000296ac       ?getReturnType@UnDecorator@@CA?AVDName@@PAV2@@Z 1002a6ac f   libvcruntime:undname.obj
 0001:000296e6       ?getScope@UnDecorator@@CA?AVDName@@XZ 1002a6e6 f   libvcruntime:undname.obj
 0001:00029bbb       ?getScopedName@UnDecorator@@CA?AVDName@@XZ 1002abbb f   libvcruntime:undname.obj
 0001:00029cf4       ?getSignedDimension@UnDecorator@@CA?AVDName@@XZ 1002acf4 f   libvcruntime:undname.obj
 0001:00029d5b       ?getStorageConvention@UnDecorator@@CA?AVDName@@XZ 1002ad5b f i libvcruntime:undname.obj
 0001:00029d70       ?getString@DName@@QBEPADPAD0@Z 1002ad70 f i libvcruntime:undname.obj
 0001:00029da7       ?getString@DName@@QBEPADPADH@Z 1002ada7 f i libvcruntime:undname.obj
 0001:00029e12       ?getString@DNameStatusNode@@UBEPADPAD0@Z 1002ae12 f i libvcruntime:undname.obj
 0001:00029e42       ?getString@charNode@@UBEPADPAD0@Z 1002ae42 f i libvcruntime:undname.obj
 0001:00029e5c       ?getString@pDNameNode@@UBEPADPAD0@Z 1002ae5c f i libvcruntime:undname.obj
 0001:00029e78       ?getString@pairNode@@UBEPADPAD0@Z 1002ae78 f i libvcruntime:undname.obj
 0001:00029ecd       ?getString@pcharNode@@UBEPADPAD0@Z 1002aecd f i libvcruntime:undname.obj
 0001:00029eee       ?getStringEncoding@UnDecorator@@CA?AVDName@@PADH@Z 1002aeee f   libvcruntime:undname.obj
 0001:00029fb9       ?getStringHelper@@YAPADPAD00H@Z 1002afb9 f i libvcruntime:undname.obj
 0001:00029ffd       ?getSymbolName@UnDecorator@@CA?AVDName@@XZ 1002affd f i libvcruntime:undname.obj
 0001:0002a057       ?getTemplateArgumentList@UnDecorator@@CA?AVDName@@XZ 1002b057 f   libvcruntime:undname.obj
 0001:0002a3a4       ?getTemplateConstant@UnDecorator@@CA?AVDName@@XZ 1002b3a4 f   libvcruntime:undname.obj
 0001:0002a7b9       ?getTemplateName@UnDecorator@@CA?AVDName@@_N@Z 1002b7b9 f   libvcruntime:undname.obj
 0001:0002a964       ?getThisType@UnDecorator@@CA?AVDName@@XZ 1002b964 f i libvcruntime:undname.obj
 0001:0002a9ac       ?getThrowTypes@UnDecorator@@CA?AVDName@@XZ 1002b9ac f   libvcruntime:undname.obj
 0001:0002aa58       ?getTypeEncoding@UnDecorator@@CAHXZ 1002ba58 f i libvcruntime:undname.obj
 0001:0002ae54       ?getVCallThunkType@UnDecorator@@CA?AVDName@@XZ 1002be54 f i libvcruntime:undname.obj
 0001:0002ae9d       ?getVbTableType@UnDecorator@@CA?AVDName@@ABV2@@Z 1002be9d f i libvcruntime:undname.obj
 0001:0002aeb7       ?getVdispMapType@UnDecorator@@CA?AVDName@@ABV2@@Z 1002beb7 f i libvcruntime:undname.obj
 0001:0002af22       ?getVfTableType@UnDecorator@@CA?AVDName@@ABV2@@Z 1002bf22 f i libvcruntime:undname.obj
 0001:0002b0e0       ?getZName@UnDecorator@@CA?AVDName@@_N0@Z 1002c0e0 f   libvcruntime:undname.obj
 0001:0002b3b0       ?haveTemplateParameters@UnDecorator@@SAHXZ 1002c3b0 f i libvcruntime:undname.obj
 0001:0002b3bd       ?isArray@DName@@QBEHXZ     1002c3bd f i libvcruntime:undname.obj
 0001:0002b3c9       ?isComArray@DName@@QBEHXZ  1002c3c9 f i libvcruntime:undname.obj
 0001:0002b3d5       ?isEmpty@DName@@QBEHXZ     1002c3d5 f i libvcruntime:undname.obj
 0001:0002b3df       ?isFull@Replicator@@QBEHXZ 1002c3df f i libvcruntime:undname.obj
 0001:0002b3ea       ?isNoTE@DName@@QBEHXZ      1002c3ea f i libvcruntime:undname.obj
 0001:0002b3f6       ?isPinPtr@DName@@QBEHXZ    1002c3f6 f i libvcruntime:undname.obj
 0001:0002b402       ?isPtrRef@DName@@QBEHXZ    1002c402 f i libvcruntime:undname.obj
 0001:0002b40e       ?isUDC@DName@@QBEHXZ       1002c40e f i libvcruntime:undname.obj
 0001:0002b423       ?isUDTThunk@DName@@QBEHXZ  1002c423 f i libvcruntime:undname.obj
 0001:0002b438       ?isVCallThunk@DName@@QBEHXZ 1002c438 f i libvcruntime:undname.obj
 0001:0002b444       ?isValid@DName@@QBEHXZ     1002c444 f i libvcruntime:undname.obj
 0001:0002b450       ?length@DName@@QBEHXZ      1002c450 f i libvcruntime:undname.obj
 0001:0002b475       ?length@DNameStatusNode@@UBEHXZ 1002c475 f i libvcruntime:undname.obj
 0001:0002b479       ?length@charNode@@UBEHXZ   1002c479 f i libvcruntime:undname.obj
 0001:0002b47d       ?length@pDNameNode@@UBEHXZ 1002c47d f i libvcruntime:undname.obj
 0001:0002b48e       ?length@pairNode@@UBEHXZ   1002c48e f i libvcruntime:undname.obj
 0001:0002b4ea       ?length@pcharNode@@UBEHXZ  1002c4ea f i libvcruntime:undname.obj
 0001:0002b4ee       ?make@DNameStatusNode@@SAPAV1@W4DNameStatus@@@Z 1002c4ee f i libvcruntime:undname.obj
 0001:0002b595       ?setIsArray@DName@@QAEXXZ  1002c595 f i libvcruntime:undname.obj
 0001:0002b59f       ?setIsComArray@DName@@QAEXXZ 1002c59f f i libvcruntime:undname.obj
 0001:0002b5a9       ?setIsNoTE@DName@@QAEXXZ   1002c5a9 f i libvcruntime:undname.obj
 0001:0002b5b3       ?setIsPinPtr@DName@@QAEXXZ 1002c5b3 f i libvcruntime:undname.obj
 0001:0002b5bd       ?setIsUDC@DName@@QAEXXZ    1002c5bd f i libvcruntime:undname.obj
 0001:0002b5cd       ?setIsVCallThunk@DName@@QAEXXZ 1002c5cd f i libvcruntime:undname.obj
 0001:0002b5d7       ?setPtrRef@DName@@QAEAAV1@XZ 1002c5d7 f i libvcruntime:undname.obj
 0001:0002b5e3       ?status@DName@@QBE?AW4DNameStatus@@XZ 1002c5e3 f i libvcruntime:undname.obj
 0001:0002b668       ___unDName                 1002c668 f   libvcruntime:undname.obj
 0001:0002b722       ___unDNameEx               1002c722 f   libvcruntime:undname.obj
 0001:0002b7dc       __vsprintf_s_l             1002c7dc f i libvcruntime:undname.obj
 0001:0002b814       _sprintf_s                 1002c814 f i libvcruntime:undname.obj
 0001:0002b840       __global_unwind2           1002c840 f   libvcruntime:_exsup_.obj
 0001:0002b8a5       __local_unwind2            1002c8a5 f   libvcruntime:_exsup_.obj
 0001:0002b929       __abnormal_termination     1002c929 f   libvcruntime:_exsup_.obj
 0001:0002b94c       __NLG_Notify1              1002c94c f   libvcruntime:_exsup_.obj
 0001:0002b955       __NLG_Notify               1002c955 f   libvcruntime:_exsup_.obj
 0001:0002b96c       __NLG_Dispatch             1002c96c     libvcruntime:_exsup_.obj
 0001:0002b96c       __NLG_Dispatch2            1002c96c     libvcruntime:_exsup_.obj
 0001:0002b974       __NLG_Call                 1002c974 f   libvcruntime:_exsup_.obj
 0001:0002b976       __NLG_Return2              1002c976     libvcruntime:_exsup_.obj
 0001:0002b9c4       ??$__crt_fast_decode_pointer@P6AXXZ@@YAP6AXXZQ6AXXZ@Z 1002c9c4 f i libvcruntime:purevirt.obj
 0001:0002b9dd       ??$__crt_interlocked_compare_exchange_pointer@$$A6AXXZ$$T$$T@@YAP6AXXZPDS6AXXZ$$T1@Z 1002c9dd f i libvcruntime:purevirt.obj
 0001:0002b9f3       ??$__crt_interlocked_exchange_pointer@$$A6AXXZP6AXXZ@@YAP6AXXZPDS6AXXZQ6AXXZ@Z 1002c9f3 f i libvcruntime:purevirt.obj
 0001:0002ba03       ??$__crt_interlocked_read_pointer@$$A6AXXZ@@YAP6AXXZPDS6AXXZ@Z 1002ca03 f i libvcruntime:purevirt.obj
 0001:0002ba17       __get_purecall_handler     1002ca17 f   libvcruntime:purevirt.obj
 0001:0002ba3d       __purecall                 1002ca3d f   libvcruntime:purevirt.obj
 0001:0002ba5e       __set_purecall_handler     1002ca5e f   libvcruntime:purevirt.obj
 0001:0002ba8c       _malloc                    1002ca8c f   libucrt:malloc.obj
 0001:0002ba99       ??$?RPAU__crt_stdio_stream_data@@@__crt_internal_free_policy@@QBEXQBQAU__crt_stdio_stream_data@@@Z 1002ca99 f i libucrt:_file.obj
 0001:0002baaf       ??0?$__crt_unique_heap_ptr@PAU__crt_stdio_stream_data@@U__crt_internal_free_policy@@@@QAE@QAPAU__crt_stdio_stream_data@@@Z 1002caaf f i libucrt:_file.obj
 0001:0002bac3       ??0__crt_stdio_stream@@QAE@QAU_iobuf@@@Z 1002cac3 f i libucrt:_file.obj
 0001:0002bad7       ??1?$__crt_unique_heap_ptr@PAU__crt_stdio_stream_data@@U__crt_internal_free_policy@@@@QAE@XZ 1002cad7 f i libucrt:_file.obj
 0001:0002baed       ??C__crt_stdio_stream@@QBEPAU__crt_stdio_stream_data@@XZ 1002caed f i libucrt:_file.obj
 0001:0002baf0       ?detach@?$__crt_unique_heap_ptr@PAU__crt_stdio_stream_data@@U__crt_internal_free_policy@@@@QAEPAPAU__crt_stdio_stream_data@@XZ 1002caf0 f i libucrt:_file.obj
 0001:0002baf6       ?release@?$__crt_unique_heap_ptr@PAU__crt_stdio_stream_data@@U__crt_internal_free_policy@@@@QAEXXZ 1002caf6 f i libucrt:_file.obj
 0001:0002bb0c       ___acrt_initialize_stdio   1002cb0c f   libucrt:_file.obj
 0001:0002bc06       ___acrt_iob_func           1002cc06 f   libucrt:_file.obj
 0001:0002bc1a       ___acrt_uninitialize_stdio 1002cc1a f   libucrt:_file.obj
 0001:0002bc79       __get_stream_buffer_pointers 1002cc79 f   libucrt:_file.obj
 0001:0002bcd0       __lock_file                1002ccd0 f   libucrt:_file.obj
 0001:0002bce9       __unlock_file              1002cce9 f   libucrt:_file.obj
 0001:0002bd02       ??$?0ABV?$stream_output_adapter@D@__crt_stdio_output@@AB_KABQBDABQAU__crt_locale_pointers@@ABQAD@?$format_validation_base@DV?$stream_output_adapter@D@__crt_stdio_output@@@__crt_stdio_output@@IAE@ABV?$stream_output_adapter@D@1@AB_KABQBDABQAU__crt_locale_pointers@@ABQAD@Z 1002cd02 f i libucrt:output.obj
 0001:0002bd2d       ??$?0ABV?$stream_output_adapter@D@__crt_stdio_output@@AB_KABQBDABQAU__crt_locale_pointers@@ABQAD@?$positional_parameter_base@DV?$stream_output_adapter@D@__crt_stdio_output@@@__crt_stdio_output@@IAE@ABV?$stream_output_adapter@D@1@AB_KABQBDABQAU__crt_locale_pointers@@ABQAD@Z 1002cd2d f i libucrt:output.obj
 0001:0002bd87       ??$?0ABV?$stream_output_adapter@D@__crt_stdio_output@@AB_KABQBDABQAU__crt_locale_pointers@@ABQAD@?$standard_base@DV?$stream_output_adapter@D@__crt_stdio_output@@@__crt_stdio_output@@IAE@ABV?$stream_output_adapter@D@1@AB_KABQBDABQAU__crt_locale_pointers@@ABQAD@Z 1002cd87 f i libucrt:output.obj
 0001:0002bdc9       ??$?0ABV?$stream_output_adapter@_W@__crt_stdio_output@@AB_KABQB_WABQAU__crt_locale_pointers@@ABQAD@?$format_validation_base@_WV?$stream_output_adapter@_W@__crt_stdio_output@@@__crt_stdio_output@@IAE@ABV?$stream_output_adapter@_W@1@AB_KABQB_WABQAU__crt_locale_pointers@@ABQAD@Z 1002cdc9 f i libucrt:output.obj
 0001:0002bdf4       ??$?0ABV?$stream_output_adapter@_W@__crt_stdio_output@@AB_KABQB_WABQAU__crt_locale_pointers@@ABQAD@?$positional_parameter_base@_WV?$stream_output_adapter@_W@__crt_stdio_output@@@__crt_stdio_output@@IAE@ABV?$stream_output_adapter@_W@1@AB_KABQB_WABQAU__crt_locale_pointers@@ABQAD@Z 1002cdf4 f i libucrt:output.obj
 0001:0002be4e       ??$?0ABV?$stream_output_adapter@_W@__crt_stdio_output@@AB_KABQB_WABQAU__crt_locale_pointers@@ABQAD@?$standard_base@_WV?$stream_output_adapter@_W@__crt_stdio_output@@@__crt_stdio_output@@IAE@ABV?$stream_output_adapter@_W@1@AB_KABQB_WABQAU__crt_locale_pointers@@ABQAD@Z 1002ce4e f i libucrt:output.obj
 0001:0002be90       ??$?0ABV?$string_output_adapter@D@__crt_stdio_output@@AB_KABQBDABQAU__crt_locale_pointers@@ABQAD@?$format_validation_base@DV?$string_output_adapter@D@__crt_stdio_output@@@__crt_stdio_output@@IAE@ABV?$string_output_adapter@D@1@AB_KABQBDABQAU__crt_locale_pointers@@ABQAD@Z 1002ce90 f i libucrt:output.obj
 0001:0002bebb       ??$?0ABV?$string_output_adapter@D@__crt_stdio_output@@AB_KABQBDABQAU__crt_locale_pointers@@ABQAD@?$positional_parameter_base@DV?$string_output_adapter@D@__crt_stdio_output@@@__crt_stdio_output@@IAE@ABV?$string_output_adapter@D@1@AB_KABQBDABQAU__crt_locale_pointers@@ABQAD@Z 1002cebb f i libucrt:output.obj
 0001:0002bf15       ??$?0ABV?$string_output_adapter@D@__crt_stdio_output@@AB_KABQBDABQAU__crt_locale_pointers@@ABQAD@?$standard_base@DV?$string_output_adapter@D@__crt_stdio_output@@@__crt_stdio_output@@IAE@ABV?$string_output_adapter@D@1@AB_KABQBDABQAU__crt_locale_pointers@@ABQAD@Z 1002cf15 f i libucrt:output.obj
 0001:0002bf57       ??$?0ABV?$string_output_adapter@_W@__crt_stdio_output@@AB_KABQB_WABQAU__crt_locale_pointers@@ABQAD@?$format_validation_base@_WV?$string_output_adapter@_W@__crt_stdio_output@@@__crt_stdio_output@@IAE@ABV?$string_output_adapter@_W@1@AB_KABQB_WABQAU__crt_locale_pointers@@ABQAD@Z 1002cf57 f i libucrt:output.obj
 0001:0002bf82       ??$?0ABV?$string_output_adapter@_W@__crt_stdio_output@@AB_KABQB_WABQAU__crt_locale_pointers@@ABQAD@?$positional_parameter_base@_WV?$string_output_adapter@_W@__crt_stdio_output@@@__crt_stdio_output@@IAE@ABV?$string_output_adapter@_W@1@AB_KABQB_WABQAU__crt_locale_pointers@@ABQAD@Z 1002cf82 f i libucrt:output.obj
 0001:0002bfdc       ??$?0ABV?$string_output_adapter@_W@__crt_stdio_output@@AB_KABQB_WABQAU__crt_locale_pointers@@ABQAD@?$standard_base@_WV?$string_output_adapter@_W@__crt_stdio_output@@@__crt_stdio_output@@IAE@ABV?$string_output_adapter@_W@1@AB_KABQB_WABQAU__crt_locale_pointers@@ABQAD@Z 1002cfdc f i libucrt:output.obj
 0001:0002c01e       ??$?RV<lambda_2293f24e3ce1ad6fe22ccfb9dec07671>@@AAV<lambda_2565fc715a641e539f44ad02d6823606>@@V<lambda_d3217f279b832965d9ca670dc2993570>@@@?$__crt_seh_guarded_call@H@@QAEH$$QAV<lambda_2293f24e3ce1ad6fe22ccfb9dec07671>@@AAV<lambda_2565fc715a641e539f44ad02d6823606>@@$$QAV<lambda_d3217f279b832965d9ca670dc2993570>@@@Z 1002d01e f i libucrt:output.obj
 0001:0002c083       ??$?RV<lambda_4d4ac866be0fa3c441830420fabdd2cb>@@AAV<lambda_63a10c2dc8dbb9e4dd1890be52af7c93>@@V<lambda_002af9fa0f8fe472b648c51882d4fc32>@@@?$__crt_seh_guarded_call@H@@QAEH$$QAV<lambda_4d4ac866be0fa3c441830420fabdd2cb>@@AAV<lambda_63a10c2dc8dbb9e4dd1890be52af7c93>@@$$QAV<lambda_002af9fa0f8fe472b648c51882d4fc32>@@@Z 1002d083 f i libucrt:output.obj
 0001:0002c0e8       ??$?RV<lambda_5be909dfbae0a631386585770cd7b676>@@AAV<lambda_e516058a9c289d98c8ca9fea99247804>@@V<lambda_afe2e0cdc5e0ecf6f0d6f5e2f8985e38>@@@?$__crt_seh_guarded_call@H@@QAEH$$QAV<lambda_5be909dfbae0a631386585770cd7b676>@@AAV<lambda_e516058a9c289d98c8ca9fea99247804>@@$$QAV<lambda_afe2e0cdc5e0ecf6f0d6f5e2f8985e38>@@@Z 1002d0e8 f i libucrt:output.obj
 0001:0002c14d       ??$?RV<lambda_823d65812123d985753d53e2a8c25d20>@@AAV<lambda_0a97c9e57da7be065955385c79108ff2>@@V<lambda_4d2973f3ad2d226f00468307185dca1b>@@@?$__crt_seh_guarded_call@H@@QAEH$$QAV<lambda_823d65812123d985753d53e2a8c25d20>@@AAV<lambda_0a97c9e57da7be065955385c79108ff2>@@$$QAV<lambda_4d2973f3ad2d226f00468307185dca1b>@@@Z 1002d14d f i libucrt:output.obj
 0001:0002c1b2       ??$?RV<lambda_ab9923ffb5d694ec0d78876dd103e44f>@@AAV<lambda_481dd5778c961fbcd3b60b650e9b9dc4>@@V<lambda_7923d86c9e3f319b415918ec4b39749c>@@@?$__crt_seh_guarded_call@H@@QAEH$$QAV<lambda_ab9923ffb5d694ec0d78876dd103e44f>@@AAV<lambda_481dd5778c961fbcd3b60b650e9b9dc4>@@$$QAV<lambda_7923d86c9e3f319b415918ec4b39749c>@@@Z 1002d1b2 f i libucrt:output.obj
 0001:0002c217       ??$?RV<lambda_db08b09ef7aa9d4f8620ce68402612bc>@@AAV<lambda_4f2c1eaeead2a5fc776db5b62ea0fb9b>@@V<lambda_3ae262bc35d4ba6a3825c4f6bcaaf95c>@@@?$__crt_seh_guarded_call@H@@QAEH$$QAV<lambda_db08b09ef7aa9d4f8620ce68402612bc>@@AAV<lambda_4f2c1eaeead2a5fc776db5b62ea0fb9b>@@$$QAV<lambda_3ae262bc35d4ba6a3825c4f6bcaaf95c>@@@Z 1002d217 f i libucrt:output.obj
 0001:0002c27c       ??$__acrt_lock_stream_and_call@V<lambda_0a97c9e57da7be065955385c79108ff2>@@@@YAHQAU_iobuf@@$$QAV<lambda_0a97c9e57da7be065955385c79108ff2>@@@Z 1002d27c f i libucrt:output.obj
 0001:0002c2ae       ??$__acrt_lock_stream_and_call@V<lambda_2565fc715a641e539f44ad02d6823606>@@@@YAHQAU_iobuf@@$$QAV<lambda_2565fc715a641e539f44ad02d6823606>@@@Z 1002d2ae f i libucrt:output.obj
 0001:0002c2e0       ??$__acrt_lock_stream_and_call@V<lambda_481dd5778c961fbcd3b60b650e9b9dc4>@@@@YAHQAU_iobuf@@$$QAV<lambda_481dd5778c961fbcd3b60b650e9b9dc4>@@@Z 1002d2e0 f i libucrt:output.obj
 0001:0002c312       ??$__acrt_lock_stream_and_call@V<lambda_4f2c1eaeead2a5fc776db5b62ea0fb9b>@@@@YAHQAU_iobuf@@$$QAV<lambda_4f2c1eaeead2a5fc776db5b62ea0fb9b>@@@Z 1002d312 f i libucrt:output.obj
 0001:0002c344       ??$__acrt_lock_stream_and_call@V<lambda_63a10c2dc8dbb9e4dd1890be52af7c93>@@@@YAHQAU_iobuf@@$$QAV<lambda_63a10c2dc8dbb9e4dd1890be52af7c93>@@@Z 1002d344 f i libucrt:output.obj
 0001:0002c376       ??$__acrt_lock_stream_and_call@V<lambda_e516058a9c289d98c8ca9fea99247804>@@@@YAHQAU_iobuf@@$$QAV<lambda_e516058a9c289d98c8ca9fea99247804>@@@Z 1002d376 f i libucrt:output.obj
 0001:0002c3a8       ??$__crt_interlocked_read@J@@YAJPDJ@Z 1002d3a8 f i libucrt:output.obj
 0001:0002d5f3       ??$count@D@formatting_buffer@__crt_stdio_output@@QBEIXZ 1002e5f3 f i libucrt:output.obj
 0001:0002d611       ??$data@D@formatting_buffer@__crt_stdio_output@@QAEPADXZ 1002e611 f i libucrt:output.obj
 0001:0002d621       ??$data@_W@formatting_buffer@__crt_stdio_output@@QAEPA_WXZ 1002e621 f i libucrt:output.obj
 0001:0002d631       ??$ensure_buffer_is_big_enough@D@formatting_buffer@__crt_stdio_output@@QAE_NI@Z 1002e631 f i libucrt:output.obj
 0001:0002d6d8       ??$extract_argument_from_va_list@C_J@?$positional_parameter_base@DV?$stream_output_adapter@D@__crt_stdio_output@@@__crt_stdio_output@@IAE_NAA_J@Z 1002e6d8 f i libucrt:output.obj
 0001:0002d776       ??$extract_argument_from_va_list@C_J@?$positional_parameter_base@DV?$string_output_adapter@D@__crt_stdio_output@@@__crt_stdio_output@@IAE_NAA_J@Z 1002e776 f i libucrt:output.obj
 0001:0002d814       ??$extract_argument_from_va_list@C_J@?$positional_parameter_base@_WV?$stream_output_adapter@_W@__crt_stdio_output@@@__crt_stdio_output@@IAE_NAA_J@Z 1002e814 f i libucrt:output.obj
 0001:0002d8b2       ??$extract_argument_from_va_list@C_J@?$positional_parameter_base@_WV?$string_output_adapter@_W@__crt_stdio_output@@@__crt_stdio_output@@IAE_NAA_J@Z 1002e8b2 f i libucrt:output.obj
 0001:0002d950       ??$extract_argument_from_va_list@C_J@?$standard_base@DV?$stream_output_adapter@D@__crt_stdio_output@@@__crt_stdio_output@@IAE_NAA_J@Z 1002e950 f i libucrt:output.obj
 0001:0002d976       ??$extract_argument_from_va_list@C_J@?$standard_base@DV?$string_output_adapter@D@__crt_stdio_output@@@__crt_stdio_output@@IAE_NAA_J@Z 1002e976 f i libucrt:output.obj
 0001:0002d99c       ??$extract_argument_from_va_list@C_J@?$standard_base@_WV?$stream_output_adapter@_W@__crt_stdio_output@@@__crt_stdio_output@@IAE_NAA_J@Z 1002e99c f i libucrt:output.obj
 0001:0002d9c2       ??$extract_argument_from_va_list@C_J@?$standard_base@_WV?$string_output_adapter@_W@__crt_stdio_output@@@__crt_stdio_output@@IAE_NAA_J@Z 1002e9c2 f i libucrt:output.obj
 0001:0002d9e8       ??$extract_argument_from_va_list@E_J@?$positional_parameter_base@DV?$stream_output_adapter@D@__crt_stdio_output@@@__crt_stdio_output@@IAE_NAA_J@Z 1002e9e8 f i libucrt:output.obj
 0001:0002da86       ??$extract_argument_from_va_list@E_J@?$positional_parameter_base@DV?$string_output_adapter@D@__crt_stdio_output@@@__crt_stdio_output@@IAE_NAA_J@Z 1002ea86 f i libucrt:output.obj
 0001:0002db24       ??$extract_argument_from_va_list@E_J@?$positional_parameter_base@_WV?$stream_output_adapter@_W@__crt_stdio_output@@@__crt_stdio_output@@IAE_NAA_J@Z 1002eb24 f i libucrt:output.obj
 0001:0002dbc2       ??$extract_argument_from_va_list@E_J@?$positional_parameter_base@_WV?$string_output_adapter@_W@__crt_stdio_output@@@__crt_stdio_output@@IAE_NAA_J@Z 1002ebc2 f i libucrt:output.obj
 0001:0002dc60       ??$extract_argument_from_va_list@E_J@?$standard_base@DV?$stream_output_adapter@D@__crt_stdio_output@@@__crt_stdio_output@@IAE_NAA_J@Z 1002ec60 f i libucrt:output.obj
 0001:0002dc86       ??$extract_argument_from_va_list@E_J@?$standard_base@DV?$string_output_adapter@D@__crt_stdio_output@@@__crt_stdio_output@@IAE_NAA_J@Z 1002ec86 f i libucrt:output.obj
 0001:0002dcac       ??$extract_argument_from_va_list@E_J@?$standard_base@_WV?$stream_output_adapter@_W@__crt_stdio_output@@@__crt_stdio_output@@IAE_NAA_J@Z 1002ecac f i libucrt:output.obj
 0001:0002dcd2       ??$extract_argument_from_va_list@E_J@?$standard_base@_WV?$string_output_adapter@_W@__crt_stdio_output@@@__crt_stdio_output@@IAE_NAA_J@Z 1002ecd2 f i libucrt:output.obj
 0001:0002dcf8       ??$extract_argument_from_va_list@F_J@?$positional_parameter_base@DV?$stream_output_adapter@D@__crt_stdio_output@@@__crt_stdio_output@@IAE_NAA_J@Z 1002ecf8 f i libucrt:output.obj
 0001:0002dd96       ??$extract_argument_from_va_list@F_J@?$positional_parameter_base@DV?$string_output_adapter@D@__crt_stdio_output@@@__crt_stdio_output@@IAE_NAA_J@Z 1002ed96 f i libucrt:output.obj
 0001:0002de34       ??$extract_argument_from_va_list@F_J@?$positional_parameter_base@_WV?$stream_output_adapter@_W@__crt_stdio_output@@@__crt_stdio_output@@IAE_NAA_J@Z 1002ee34 f i libucrt:output.obj
 0001:0002ded2       ??$extract_argument_from_va_list@F_J@?$positional_parameter_base@_WV?$string_output_adapter@_W@__crt_stdio_output@@@__crt_stdio_output@@IAE_NAA_J@Z 1002eed2 f i libucrt:output.obj
 0001:0002df70       ??$extract_argument_from_va_list@F_J@?$standard_base@DV?$stream_output_adapter@D@__crt_stdio_output@@@__crt_stdio_output@@IAE_NAA_J@Z 1002ef70 f i libucrt:output.obj
 0001:0002df96       ??$extract_argument_from_va_list@F_J@?$standard_base@DV?$string_output_adapter@D@__crt_stdio_output@@@__crt_stdio_output@@IAE_NAA_J@Z 1002ef96 f i libucrt:output.obj
 0001:0002dfbc       ??$extract_argument_from_va_list@F_J@?$standard_base@_WV?$stream_output_adapter@_W@__crt_stdio_output@@@__crt_stdio_output@@IAE_NAA_J@Z 1002efbc f i libucrt:output.obj
 0001:0002dfe2       ??$extract_argument_from_va_list@F_J@?$standard_base@_WV?$string_output_adapter@_W@__crt_stdio_output@@@__crt_stdio_output@@IAE_NAA_J@Z 1002efe2 f i libucrt:output.obj
 0001:0002e008       ??$extract_argument_from_va_list@GD@?$positional_parameter_base@DV?$stream_output_adapter@D@__crt_stdio_output@@@__crt_stdio_output@@IAE_NAAD@Z 1002f008 f i libucrt:output.obj
 0001:0002e0a5       ??$extract_argument_from_va_list@GD@?$positional_parameter_base@DV?$string_output_adapter@D@__crt_stdio_output@@@__crt_stdio_output@@IAE_NAAD@Z 1002f0a5 f i libucrt:output.obj
 0001:0002e142       ??$extract_argument_from_va_list@GD@?$standard_base@DV?$stream_output_adapter@D@__crt_stdio_output@@@__crt_stdio_output@@IAE_NAAD@Z 1002f142 f i libucrt:output.obj
 0001:0002e162       ??$extract_argument_from_va_list@GD@?$standard_base@DV?$string_output_adapter@D@__crt_stdio_output@@@__crt_stdio_output@@IAE_NAAD@Z 1002f162 f i libucrt:output.obj
 0001:0002e182       ??$extract_argument_from_va_list@G_J@?$positional_parameter_base@DV?$stream_output_adapter@D@__crt_stdio_output@@@__crt_stdio_output@@IAE_NAA_J@Z 1002f182 f i libucrt:output.obj
 0001:0002e220       ??$extract_argument_from_va_list@G_J@?$positional_parameter_base@DV?$string_output_adapter@D@__crt_stdio_output@@@__crt_stdio_output@@IAE_NAA_J@Z 1002f220 f i libucrt:output.obj
 0001:0002e2be       ??$extract_argument_from_va_list@G_J@?$positional_parameter_base@_WV?$stream_output_adapter@_W@__crt_stdio_output@@@__crt_stdio_output@@IAE_NAA_J@Z 1002f2be f i libucrt:output.obj
 0001:0002e35c       ??$extract_argument_from_va_list@G_J@?$positional_parameter_base@_WV?$string_output_adapter@_W@__crt_stdio_output@@@__crt_stdio_output@@IAE_NAA_J@Z 1002f35c f i libucrt:output.obj
 0001:0002e3fa       ??$extract_argument_from_va_list@G_J@?$standard_base@DV?$stream_output_adapter@D@__crt_stdio_output@@@__crt_stdio_output@@IAE_NAA_J@Z 1002f3fa f i libucrt:output.obj
 0001:0002e420       ??$extract_argument_from_va_list@G_J@?$standard_base@DV?$string_output_adapter@D@__crt_stdio_output@@@__crt_stdio_output@@IAE_NAA_J@Z 1002f420 f i libucrt:output.obj
 0001:0002e446       ??$extract_argument_from_va_list@G_J@?$standard_base@_WV?$stream_output_adapter@_W@__crt_stdio_output@@@__crt_stdio_output@@IAE_NAA_J@Z 1002f446 f i libucrt:output.obj
 0001:0002e46c       ??$extract_argument_from_va_list@G_J@?$standard_base@_WV?$string_output_adapter@_W@__crt_stdio_output@@@__crt_stdio_output@@IAE_NAA_J@Z 1002f46c f i libucrt:output.obj
 0001:0002e492       ??$extract_argument_from_va_list@H_J@?$positional_parameter_base@DV?$stream_output_adapter@D@__crt_stdio_output@@@__crt_stdio_output@@IAE_NAA_J@Z 1002f492 f i libucrt:output.obj
 0001:0002e52e       ??$extract_argument_from_va_list@H_J@?$positional_parameter_base@DV?$string_output_adapter@D@__crt_stdio_output@@@__crt_stdio_output@@IAE_NAA_J@Z 1002f52e f i libucrt:output.obj
 0001:0002e5ca       ??$extract_argument_from_va_list@H_J@?$positional_parameter_base@_WV?$stream_output_adapter@_W@__crt_stdio_output@@@__crt_stdio_output@@IAE_NAA_J@Z 1002f5ca f i libucrt:output.obj
 0001:0002e666       ??$extract_argument_from_va_list@H_J@?$positional_parameter_base@_WV?$string_output_adapter@_W@__crt_stdio_output@@@__crt_stdio_output@@IAE_NAA_J@Z 1002f666 f i libucrt:output.obj
 0001:0002e702       ??$extract_argument_from_va_list@H_J@?$standard_base@DV?$stream_output_adapter@D@__crt_stdio_output@@@__crt_stdio_output@@IAE_NAA_J@Z 1002f702 f i libucrt:output.obj
 0001:0002e727       ??$extract_argument_from_va_list@H_J@?$standard_base@DV?$string_output_adapter@D@__crt_stdio_output@@@__crt_stdio_output@@IAE_NAA_J@Z 1002f727 f i libucrt:output.obj
 0001:0002e74c       ??$extract_argument_from_va_list@H_J@?$standard_base@_WV?$stream_output_adapter@_W@__crt_stdio_output@@@__crt_stdio_output@@IAE_NAA_J@Z 1002f74c f i libucrt:output.obj
 0001:0002e771       ??$extract_argument_from_va_list@H_J@?$standard_base@_WV?$string_output_adapter@_W@__crt_stdio_output@@@__crt_stdio_output@@IAE_NAA_J@Z 1002f771 f i libucrt:output.obj
 0001:0002e796       ??$extract_argument_from_va_list@I_J@?$positional_parameter_base@DV?$stream_output_adapter@D@__crt_stdio_output@@@__crt_stdio_output@@IAE_NAA_J@Z 1002f796 f i libucrt:output.obj
 0001:0002e83d       ??$extract_argument_from_va_list@I_J@?$positional_parameter_base@DV?$string_output_adapter@D@__crt_stdio_output@@@__crt_stdio_output@@IAE_NAA_J@Z 1002f83d f i libucrt:output.obj
 0001:0002e8e4       ??$extract_argument_from_va_list@I_J@?$positional_parameter_base@_WV?$stream_output_adapter@_W@__crt_stdio_output@@@__crt_stdio_output@@IAE_NAA_J@Z 1002f8e4 f i libucrt:output.obj
 0001:0002e98b       ??$extract_argument_from_va_list@I_J@?$positional_parameter_base@_WV?$string_output_adapter@_W@__crt_stdio_output@@@__crt_stdio_output@@IAE_NAA_J@Z 1002f98b f i libucrt:output.obj
 0001:0002ea32       ??$extract_argument_from_va_list@I_J@?$standard_base@DV?$stream_output_adapter@D@__crt_stdio_output@@@__crt_stdio_output@@IAE_NAA_J@Z 1002fa32 f i libucrt:output.obj
 0001:0002ea57       ??$extract_argument_from_va_list@I_J@?$standard_base@DV?$string_output_adapter@D@__crt_stdio_output@@@__crt_stdio_output@@IAE_NAA_J@Z 1002fa57 f i libucrt:output.obj
 0001:0002ea7c       ??$extract_argument_from_va_list@I_J@?$standard_base@_WV?$stream_output_adapter@_W@__crt_stdio_output@@@__crt_stdio_output@@IAE_NAA_J@Z 1002fa7c f i libucrt:output.obj
 0001:0002eaa1       ??$extract_argument_from_va_list@I_J@?$standard_base@_WV?$string_output_adapter@_W@__crt_stdio_output@@@__crt_stdio_output@@IAE_NAA_J@Z 1002faa1 f i libucrt:output.obj
 0001:0002eac6       ??$extract_argument_from_va_list@PADPAD@?$positional_parameter_base@DV?$stream_output_adapter@D@__crt_stdio_output@@@__crt_stdio_output@@IAE_NAAPAD@Z 1002fac6 f i libucrt:output.obj
 0001:0002eb63       ??$extract_argument_from_va_list@PADPAD@?$positional_parameter_base@DV?$string_output_adapter@D@__crt_stdio_output@@@__crt_stdio_output@@IAE_NAAPAD@Z 1002fb63 f i libucrt:output.obj
 0001:0002ec00       ??$extract_argument_from_va_list@PADPAD@?$positional_parameter_base@_WV?$stream_output_adapter@_W@__crt_stdio_output@@@__crt_stdio_output@@IAE_NAAPAD@Z 1002fc00 f i libucrt:output.obj
 0001:0002ec9d       ??$extract_argument_from_va_list@PADPAD@?$positional_parameter_base@_WV?$string_output_adapter@_W@__crt_stdio_output@@@__crt_stdio_output@@IAE_NAAPAD@Z 1002fc9d f i libucrt:output.obj
 0001:0002ed3a       ??$extract_argument_from_va_list@PADPAD@?$standard_base@DV?$stream_output_adapter@D@__crt_stdio_output@@@__crt_stdio_output@@IAE_NAAPAD@Z 1002fd3a f i libucrt:output.obj
 0001:0002ed5a       ??$extract_argument_from_va_list@PADPAD@?$standard_base@DV?$string_output_adapter@D@__crt_stdio_output@@@__crt_stdio_output@@IAE_NAAPAD@Z 1002fd5a f i libucrt:output.obj
 0001:0002ed7a       ??$extract_argument_from_va_list@PADPAD@?$standard_base@_WV?$stream_output_adapter@_W@__crt_stdio_output@@@__crt_stdio_output@@IAE_NAAPAD@Z 1002fd7a f i libucrt:output.obj
 0001:0002ed9a       ??$extract_argument_from_va_list@PADPAD@?$standard_base@_WV?$string_output_adapter@_W@__crt_stdio_output@@@__crt_stdio_output@@IAE_NAAPAD@Z 1002fd9a f i libucrt:output.obj
 0001:0002edba       ??$extract_argument_from_va_list@PAUansi_string@?1??type_case_Z@?$output_processor@DV?$stream_output_adapter@D@__crt_stdio_output@@V?$format_validation_base@DV?$stream_output_adapter@D@__crt_stdio_output@@@2@@__crt_stdio_output@@AAE_NXZ@PAU1?1??234@AAE_NXZ@@?$standard_base@DV?$stream_output_adapter@D@__crt_stdio_output@@@__crt_stdio_output@@IAE_NAAPAUansi_string@?1??type_case_Z@?$output_processor@DV?$stream_output_adapter@D@__crt_stdio_output@@V?$format_validation_base@DV?$stream_output_adapter@D@__crt_stdio_output@@@2@@1@AAE_NXZ@@Z 1002fdba f i libucrt:output.obj
 0001:0002edda       ??$extract_argument_from_va_list@PAUansi_string@?1??type_case_Z@?$output_processor@DV?$stream_output_adapter@D@__crt_stdio_output@@V?$positional_parameter_base@DV?$stream_output_adapter@D@__crt_stdio_output@@@2@@__crt_stdio_output@@AAE_NXZ@PAU1?1??234@AAE_NXZ@@?$positional_parameter_base@DV?$stream_output_adapter@D@__crt_stdio_output@@@__crt_stdio_output@@IAE_NAAPAUansi_string@?1??type_case_Z@?$output_processor@DV?$stream_output_adapter@D@__crt_stdio_output@@V?$positional_parameter_base@DV?$stream_output_adapter@D@__crt_stdio_output@@@2@@1@AAE_NXZ@@Z 1002fdda f i libucrt:output.obj
 0001:0002ee77       ??$extract_argument_from_va_list@PAUansi_string@?1??type_case_Z@?$output_processor@DV?$stream_output_adapter@D@__crt_stdio_output@@V?$positional_parameter_base@DV?$stream_output_adapter@D@__crt_stdio_output@@@2@@__crt_stdio_output@@AAE_NXZ@PAU1?1??234@AAE_NXZ@@?$standard_base@DV?$stream_output_adapter@D@__crt_stdio_output@@@__crt_stdio_output@@IAE_NAAPAUansi_string@?1??type_case_Z@?$output_processor@DV?$stream_output_adapter@D@__crt_stdio_output@@V?$positional_parameter_base@DV?$stream_output_adapter@D@__crt_stdio_output@@@2@@1@AAE_NXZ@@Z 1002fe77 f i libucrt:output.obj
 0001:0002ee97       ??$extract_argument_from_va_list@PAUansi_string@?1??type_case_Z@?$output_processor@DV?$stream_output_adapter@D@__crt_stdio_output@@V?$standard_base@DV?$stream_output_adapter@D@__crt_stdio_output@@@2@@__crt_stdio_output@@AAE_NXZ@PAU1?1??234@AAE_NXZ@@?$standard_base@DV?$stream_output_adapter@D@__crt_stdio_output@@@__crt_stdio_output@@IAE_NAAPAUansi_string@?1??type_case_Z@?$output_processor@DV?$stream_output_adapter@D@__crt_stdio_output@@V?$standard_base@DV?$stream_output_adapter@D@__crt_stdio_output@@@2@@1@AAE_NXZ@@Z 1002fe97 f i libucrt:output.obj
 0001:0002eeb7       ??$extract_argument_from_va_list@PAUansi_string@?1??type_case_Z@?$output_processor@DV?$string_output_adapter@D@__crt_stdio_output@@V?$format_validation_base@DV?$string_output_adapter@D@__crt_stdio_output@@@2@@__crt_stdio_output@@AAE_NXZ@PAU1?1??234@AAE_NXZ@@?$standard_base@DV?$string_output_adapter@D@__crt_stdio_output@@@__crt_stdio_output@@IAE_NAAPAUansi_string@?1??type_case_Z@?$output_processor@DV?$string_output_adapter@D@__crt_stdio_output@@V?$format_validation_base@DV?$string_output_adapter@D@__crt_stdio_output@@@2@@1@AAE_NXZ@@Z 1002feb7 f i libucrt:output.obj
 0001:0002eed7       ??$extract_argument_from_va_list@PAUansi_string@?1??type_case_Z@?$output_processor@DV?$string_output_adapter@D@__crt_stdio_output@@V?$positional_parameter_base@DV?$string_output_adapter@D@__crt_stdio_output@@@2@@__crt_stdio_output@@AAE_NXZ@PAU1?1??234@AAE_NXZ@@?$positional_parameter_base@DV?$string_output_adapter@D@__crt_stdio_output@@@__crt_stdio_output@@IAE_NAAPAUansi_string@?1??type_case_Z@?$output_processor@DV?$string_output_adapter@D@__crt_stdio_output@@V?$positional_parameter_base@DV?$string_output_adapter@D@__crt_stdio_output@@@2@@1@AAE_NXZ@@Z 1002fed7 f i libucrt:output.obj
 0001:0002ef74       ??$extract_argument_from_va_list@PAUansi_string@?1??type_case_Z@?$output_processor@DV?$string_output_adapter@D@__crt_stdio_output@@V?$positional_parameter_base@DV?$string_output_adapter@D@__crt_stdio_output@@@2@@__crt_stdio_output@@AAE_NXZ@PAU1?1??234@AAE_NXZ@@?$standard_base@DV?$string_output_adapter@D@__crt_stdio_output@@@__crt_stdio_output@@IAE_NAAPAUansi_string@?1??type_case_Z@?$output_processor@DV?$string_output_adapter@D@__crt_stdio_output@@V?$positional_parameter_base@DV?$string_output_adapter@D@__crt_stdio_output@@@2@@1@AAE_NXZ@@Z 1002ff74 f i libucrt:output.obj
 0001:0002ef94       ??$extract_argument_from_va_list@PAUansi_string@?1??type_case_Z@?$output_processor@DV?$string_output_adapter@D@__crt_stdio_output@@V?$standard_base@DV?$string_output_adapter@D@__crt_stdio_output@@@2@@__crt_stdio_output@@AAE_NXZ@PAU1?1??234@AAE_NXZ@@?$standard_base@DV?$string_output_adapter@D@__crt_stdio_output@@@__crt_stdio_output@@IAE_NAAPAUansi_string@?1??type_case_Z@?$output_processor@DV?$string_output_adapter@D@__crt_stdio_output@@V?$standard_base@DV?$string_output_adapter@D@__crt_stdio_output@@@2@@1@AAE_NXZ@@Z 1002ff94 f i libucrt:output.obj
 0001:0002efb4       ??$extract_argument_from_va_list@PAUansi_string@?1??type_case_Z@?$output_processor@_WV?$stream_output_adapter@_W@__crt_stdio_output@@V?$format_validation_base@_WV?$stream_output_adapter@_W@__crt_stdio_output@@@2@@__crt_stdio_output@@AAE_NXZ@PAU1?1??234@AAE_NXZ@@?$standard_base@_WV?$stream_output_adapter@_W@__crt_stdio_output@@@__crt_stdio_output@@IAE_NAAPAUansi_string@?1??type_case_Z@?$output_processor@_WV?$stream_output_adapter@_W@__crt_stdio_output@@V?$format_validation_base@_WV?$stream_output_adapter@_W@__crt_stdio_output@@@2@@1@AAE_NXZ@@Z 1002ffb4 f i libucrt:output.obj
 0001:0002efd4       ??$extract_argument_from_va_list@PAUansi_string@?1??type_case_Z@?$output_processor@_WV?$stream_output_adapter@_W@__crt_stdio_output@@V?$positional_parameter_base@_WV?$stream_output_adapter@_W@__crt_stdio_output@@@2@@__crt_stdio_output@@AAE_NXZ@PAU1?1??234@AAE_NXZ@@?$positional_parameter_base@_WV?$stream_output_adapter@_W@__crt_stdio_output@@@__crt_stdio_output@@IAE_NAAPAUansi_string@?1??type_case_Z@?$output_processor@_WV?$stream_output_adapter@_W@__crt_stdio_output@@V?$positional_parameter_base@_WV?$stream_output_adapter@_W@__crt_stdio_output@@@2@@1@AAE_NXZ@@Z 1002ffd4 f i libucrt:output.obj
 0001:0002f071       ??$extract_argument_from_va_list@PAUansi_string@?1??type_case_Z@?$output_processor@_WV?$stream_output_adapter@_W@__crt_stdio_output@@V?$positional_parameter_base@_WV?$stream_output_adapter@_W@__crt_stdio_output@@@2@@__crt_stdio_output@@AAE_NXZ@PAU1?1??234@AAE_NXZ@@?$standard_base@_WV?$stream_output_adapter@_W@__crt_stdio_output@@@__crt_stdio_output@@IAE_NAAPAUansi_string@?1??type_case_Z@?$output_processor@_WV?$stream_output_adapter@_W@__crt_stdio_output@@V?$positional_parameter_base@_WV?$stream_output_adapter@_W@__crt_stdio_output@@@2@@1@AAE_NXZ@@Z 10030071 f i libucrt:output.obj
 0001:0002f091       ??$extract_argument_from_va_list@PAUansi_string@?1??type_case_Z@?$output_processor@_WV?$stream_output_adapter@_W@__crt_stdio_output@@V?$standard_base@_WV?$stream_output_adapter@_W@__crt_stdio_output@@@2@@__crt_stdio_output@@AAE_NXZ@PAU1?1??234@AAE_NXZ@@?$standard_base@_WV?$stream_output_adapter@_W@__crt_stdio_output@@@__crt_stdio_output@@IAE_NAAPAUansi_string@?1??type_case_Z@?$output_processor@_WV?$stream_output_adapter@_W@__crt_stdio_output@@V?$standard_base@_WV?$stream_output_adapter@_W@__crt_stdio_output@@@2@@1@AAE_NXZ@@Z 10030091 f i libucrt:output.obj
 0001:0002f0b1       ??$extract_argument_from_va_list@PAUansi_string@?1??type_case_Z@?$output_processor@_WV?$string_output_adapter@_W@__crt_stdio_output@@V?$format_validation_base@_WV?$string_output_adapter@_W@__crt_stdio_output@@@2@@__crt_stdio_output@@AAE_NXZ@PAU1?1??234@AAE_NXZ@@?$standard_base@_WV?$string_output_adapter@_W@__crt_stdio_output@@@__crt_stdio_output@@IAE_NAAPAUansi_string@?1??type_case_Z@?$output_processor@_WV?$string_output_adapter@_W@__crt_stdio_output@@V?$format_validation_base@_WV?$string_output_adapter@_W@__crt_stdio_output@@@2@@1@AAE_NXZ@@Z 100300b1 f i libucrt:output.obj
 0001:0002f0d1       ??$extract_argument_from_va_list@PAUansi_string@?1??type_case_Z@?$output_processor@_WV?$string_output_adapter@_W@__crt_stdio_output@@V?$positional_parameter_base@_WV?$string_output_adapter@_W@__crt_stdio_output@@@2@@__crt_stdio_output@@AAE_NXZ@PAU1?1??234@AAE_NXZ@@?$positional_parameter_base@_WV?$string_output_adapter@_W@__crt_stdio_output@@@__crt_stdio_output@@IAE_NAAPAUansi_string@?1??type_case_Z@?$output_processor@_WV?$string_output_adapter@_W@__crt_stdio_output@@V?$positional_parameter_base@_WV?$string_output_adapter@_W@__crt_stdio_output@@@2@@1@AAE_NXZ@@Z 100300d1 f i libucrt:output.obj
 0001:0002f16e       ??$extract_argument_from_va_list@PAUansi_string@?1??type_case_Z@?$output_processor@_WV?$string_output_adapter@_W@__crt_stdio_output@@V?$positional_parameter_base@_WV?$string_output_adapter@_W@__crt_stdio_output@@@2@@__crt_stdio_output@@AAE_NXZ@PAU1?1??234@AAE_NXZ@@?$standard_base@_WV?$string_output_adapter@_W@__crt_stdio_output@@@__crt_stdio_output@@IAE_NAAPAUansi_string@?1??type_case_Z@?$output_processor@_WV?$string_output_adapter@_W@__crt_stdio_output@@V?$positional_parameter_base@_WV?$string_output_adapter@_W@__crt_stdio_output@@@2@@1@AAE_NXZ@@Z 1003016e f i libucrt:output.obj
 0001:0002f18e       ??$extract_argument_from_va_list@PAUansi_string@?1??type_case_Z@?$output_processor@_WV?$string_output_adapter@_W@__crt_stdio_output@@V?$standard_base@_WV?$string_output_adapter@_W@__crt_stdio_output@@@2@@__crt_stdio_output@@AAE_NXZ@PAU1?1??234@AAE_NXZ@@?$standard_base@_WV?$string_output_adapter@_W@__crt_stdio_output@@@__crt_stdio_output@@IAE_NAAPAUansi_string@?1??type_case_Z@?$output_processor@_WV?$string_output_adapter@_W@__crt_stdio_output@@V?$standard_base@_WV?$string_output_adapter@_W@__crt_stdio_output@@@2@@1@AAE_NXZ@@Z 1003018e f i libucrt:output.obj
 0001:0002f1ae       ??$extract_argument_from_va_list@PAXPAX@?$positional_parameter_base@DV?$stream_output_adapter@D@__crt_stdio_output@@@__crt_stdio_output@@IAE_NAAPAX@Z 100301ae f i libucrt:output.obj
 0001:0002f24b       ??$extract_argument_from_va_list@PAXPAX@?$positional_parameter_base@DV?$string_output_adapter@D@__crt_stdio_output@@@__crt_stdio_output@@IAE_NAAPAX@Z 1003024b f i libucrt:output.obj
 0001:0002f2e8       ??$extract_argument_from_va_list@PAXPAX@?$positional_parameter_base@_WV?$stream_output_adapter@_W@__crt_stdio_output@@@__crt_stdio_output@@IAE_NAAPAX@Z 100302e8 f i libucrt:output.obj
 0001:0002f385       ??$extract_argument_from_va_list@PAXPAX@?$positional_parameter_base@_WV?$string_output_adapter@_W@__crt_stdio_output@@@__crt_stdio_output@@IAE_NAAPAX@Z 10030385 f i libucrt:output.obj
 0001:0002f422       ??$extract_argument_from_va_list@PAXPAX@?$standard_base@DV?$stream_output_adapter@D@__crt_stdio_output@@@__crt_stdio_output@@IAE_NAAPAX@Z 10030422 f i libucrt:output.obj
 0001:0002f442       ??$extract_argument_from_va_list@PAXPAX@?$standard_base@DV?$string_output_adapter@D@__crt_stdio_output@@@__crt_stdio_output@@IAE_NAAPAX@Z 10030442 f i libucrt:output.obj
 0001:0002f462       ??$extract_argument_from_va_list@PAXPAX@?$standard_base@_WV?$stream_output_adapter@_W@__crt_stdio_output@@@__crt_stdio_output@@IAE_NAAPAX@Z 10030462 f i libucrt:output.obj
 0001:0002f482       ??$extract_argument_from_va_list@PAXPAX@?$standard_base@_WV?$string_output_adapter@_W@__crt_stdio_output@@@__crt_stdio_output@@IAE_NAAPAX@Z 10030482 f i libucrt:output.obj
 0001:0002f4a2       ??$extract_argument_from_va_list@U_CRT_DOUBLE@@U1@@?$positional_parameter_base@DV?$stream_output_adapter@D@__crt_stdio_output@@@__crt_stdio_output@@IAE_NAAU_CRT_DOUBLE@@@Z 100304a2 f i libucrt:output.obj
 0001:0002f553       ??$extract_argument_from_va_list@U_CRT_DOUBLE@@U1@@?$positional_parameter_base@DV?$string_output_adapter@D@__crt_stdio_output@@@__crt_stdio_output@@IAE_NAAU_CRT_DOUBLE@@@Z 10030553 f i libucrt:output.obj
 0001:0002f604       ??$extract_argument_from_va_list@U_CRT_DOUBLE@@U1@@?$positional_parameter_base@_WV?$stream_output_adapter@_W@__crt_stdio_output@@@__crt_stdio_output@@IAE_NAAU_CRT_DOUBLE@@@Z 10030604 f i libucrt:output.obj
 0001:0002f6b5       ??$extract_argument_from_va_list@U_CRT_DOUBLE@@U1@@?$positional_parameter_base@_WV?$string_output_adapter@_W@__crt_stdio_output@@@__crt_stdio_output@@IAE_NAAU_CRT_DOUBLE@@@Z 100306b5 f i libucrt:output.obj
 0001:0002f766       ??$extract_argument_from_va_list@U_CRT_DOUBLE@@U1@@?$standard_base@DV?$stream_output_adapter@D@__crt_stdio_output@@@__crt_stdio_output@@IAE_NAAU_CRT_DOUBLE@@@Z 10030766 f i libucrt:output.obj
 0001:0002f78e       ??$extract_argument_from_va_list@U_CRT_DOUBLE@@U1@@?$standard_base@DV?$string_output_adapter@D@__crt_stdio_output@@@__crt_stdio_output@@IAE_NAAU_CRT_DOUBLE@@@Z 1003078e f i libucrt:output.obj
 0001:0002f7b6       ??$extract_argument_from_va_list@U_CRT_DOUBLE@@U1@@?$standard_base@_WV?$stream_output_adapter@_W@__crt_stdio_output@@@__crt_stdio_output@@IAE_NAAU_CRT_DOUBLE@@@Z 100307b6 f i libucrt:output.obj
 0001:0002f7de       ??$extract_argument_from_va_list@U_CRT_DOUBLE@@U1@@?$standard_base@_WV?$string_output_adapter@_W@__crt_stdio_output@@@__crt_stdio_output@@IAE_NAAU_CRT_DOUBLE@@@Z 100307de f i libucrt:output.obj
 0001:0002f806       ??$extract_argument_from_va_list@_J_J@?$positional_parameter_base@DV?$stream_output_adapter@D@__crt_stdio_output@@@__crt_stdio_output@@IAE_NAA_J@Z 10030806 f i libucrt:output.obj
 0001:0002f8b7       ??$extract_argument_from_va_list@_J_J@?$positional_parameter_base@DV?$string_output_adapter@D@__crt_stdio_output@@@__crt_stdio_output@@IAE_NAA_J@Z 100308b7 f i libucrt:output.obj
 0001:0002f968       ??$extract_argument_from_va_list@_J_J@?$positional_parameter_base@_WV?$stream_output_adapter@_W@__crt_stdio_output@@@__crt_stdio_output@@IAE_NAA_J@Z 10030968 f i libucrt:output.obj
 0001:0002fa19       ??$extract_argument_from_va_list@_J_J@?$positional_parameter_base@_WV?$string_output_adapter@_W@__crt_stdio_output@@@__crt_stdio_output@@IAE_NAA_J@Z 10030a19 f i libucrt:output.obj
 0001:0002faca       ??$extract_argument_from_va_list@_J_J@?$standard_base@DV?$stream_output_adapter@D@__crt_stdio_output@@@__crt_stdio_output@@IAE_NAA_J@Z 10030aca f i libucrt:output.obj
 0001:0002faf2       ??$extract_argument_from_va_list@_J_J@?$standard_base@DV?$string_output_adapter@D@__crt_stdio_output@@@__crt_stdio_output@@IAE_NAA_J@Z 10030af2 f i libucrt:output.obj
 0001:0002fb1a       ??$extract_argument_from_va_list@_J_J@?$standard_base@_WV?$stream_output_adapter@_W@__crt_stdio_output@@@__crt_stdio_output@@IAE_NAA_J@Z 10030b1a f i libucrt:output.obj
 0001:0002fb42       ??$extract_argument_from_va_list@_J_J@?$standard_base@_WV?$string_output_adapter@_W@__crt_stdio_output@@@__crt_stdio_output@@IAE_NAA_J@Z 10030b42 f i libucrt:output.obj
 0001:0002fb6a       ??$extract_argument_from_va_list@_K_J@?$positional_parameter_base@DV?$stream_output_adapter@D@__crt_stdio_output@@@__crt_stdio_output@@IAE_NAA_J@Z 10030b6a f i libucrt:output.obj
 0001:0002fc1b       ??$extract_argument_from_va_list@_K_J@?$positional_parameter_base@DV?$string_output_adapter@D@__crt_stdio_output@@@__crt_stdio_output@@IAE_NAA_J@Z 10030c1b f i libucrt:output.obj
 0001:0002fccc       ??$extract_argument_from_va_list@_K_J@?$positional_parameter_base@_WV?$stream_output_adapter@_W@__crt_stdio_output@@@__crt_stdio_output@@IAE_NAA_J@Z 10030ccc f i libucrt:output.obj
 0001:0002fd7d       ??$extract_argument_from_va_list@_K_J@?$positional_parameter_base@_WV?$string_output_adapter@_W@__crt_stdio_output@@@__crt_stdio_output@@IAE_NAA_J@Z 10030d7d f i libucrt:output.obj
 0001:0002fe2e       ??$extract_argument_from_va_list@_K_J@?$standard_base@DV?$stream_output_adapter@D@__crt_stdio_output@@@__crt_stdio_output@@IAE_NAA_J@Z 10030e2e f i libucrt:output.obj
 0001:0002fe56       ??$extract_argument_from_va_list@_K_J@?$standard_base@DV?$string_output_adapter@D@__crt_stdio_output@@@__crt_stdio_output@@IAE_NAA_J@Z 10030e56 f i libucrt:output.obj
 0001:0002fe7e       ??$extract_argument_from_va_list@_K_J@?$standard_base@_WV?$stream_output_adapter@_W@__crt_stdio_output@@@__crt_stdio_output@@IAE_NAA_J@Z 10030e7e f i libucrt:output.obj
 0001:0002fea6       ??$extract_argument_from_va_list@_K_J@?$standard_base@_WV?$string_output_adapter@_W@__crt_stdio_output@@@__crt_stdio_output@@IAE_NAA_J@Z 10030ea6 f i libucrt:output.obj
 0001:0002fece       ??$extract_argument_from_va_list@_W_W@?$positional_parameter_base@DV?$stream_output_adapter@D@__crt_stdio_output@@@__crt_stdio_output@@IAE_NAA_W@Z 10030ece f i libucrt:output.obj
 0001:0002ff70       ??$extract_argument_from_va_list@_W_W@?$positional_parameter_base@DV?$string_output_adapter@D@__crt_stdio_output@@@__crt_stdio_output@@IAE_NAA_W@Z 10030f70 f i libucrt:output.obj
 0001:00030012       ??$extract_argument_from_va_list@_W_W@?$positional_parameter_base@_WV?$stream_output_adapter@_W@__crt_stdio_output@@@__crt_stdio_output@@IAE_NAA_W@Z 10031012 f i libucrt:output.obj
 0001:000300b4       ??$extract_argument_from_va_list@_W_W@?$positional_parameter_base@_WV?$string_output_adapter@_W@__crt_stdio_output@@@__crt_stdio_output@@IAE_NAA_W@Z 100310b4 f i libucrt:output.obj
 0001:00030156       ??$extract_argument_from_va_list@_W_W@?$standard_base@DV?$stream_output_adapter@D@__crt_stdio_output@@@__crt_stdio_output@@IAE_NAA_W@Z 10031156 f i libucrt:output.obj
 0001:00030179       ??$extract_argument_from_va_list@_W_W@?$standard_base@DV?$string_output_adapter@D@__crt_stdio_output@@@__crt_stdio_output@@IAE_NAA_W@Z 10031179 f i libucrt:output.obj
 0001:0003019c       ??$extract_argument_from_va_list@_W_W@?$standard_base@_WV?$stream_output_adapter@_W@__crt_stdio_output@@@__crt_stdio_output@@IAE_NAA_W@Z 1003119c f i libucrt:output.obj
 0001:000301bf       ??$extract_argument_from_va_list@_W_W@?$standard_base@_WV?$string_output_adapter@_W@__crt_stdio_output@@@__crt_stdio_output@@IAE_NAA_W@Z 100311bf f i libucrt:output.obj
 0001:000301e2       ??$get_parameter_type@D@?$positional_parameter_base@DV?$stream_output_adapter@D@__crt_stdio_output@@@__crt_stdio_output@@CA?AW4parameter_type@01@PAD@Z 100311e2 f i libucrt:output.obj
 0001:000301e6       ??$get_parameter_type@D@?$positional_parameter_base@DV?$string_output_adapter@D@__crt_stdio_output@@@__crt_stdio_output@@CA?AW4parameter_type@01@PAD@Z 100311e6 f i libucrt:output.obj
 0001:000301ea       ??$get_parameter_type@D@?$positional_parameter_base@_WV?$stream_output_adapter@_W@__crt_stdio_output@@@__crt_stdio_output@@CA?AW4parameter_type@01@PAD@Z 100311ea f i libucrt:output.obj
 0001:000301ee       ??$get_parameter_type@D@?$positional_parameter_base@_WV?$string_output_adapter@_W@__crt_stdio_output@@@__crt_stdio_output@@CA?AW4parameter_type@01@PAD@Z 100311ee f i libucrt:output.obj
 0001:000301f2       ??$get_parameter_type@Uansi_string@?1??type_case_Z@?$output_processor@DV?$stream_output_adapter@D@__crt_stdio_output@@V?$positional_parameter_base@DV?$stream_output_adapter@D@__crt_stdio_output@@@2@@__crt_stdio_output@@AAE_NXZ@@?$positional_parameter_base@DV?$stream_output_adapter@D@__crt_stdio_output@@@__crt_stdio_output@@CA?AW4parameter_type@01@PAUansi_string@?1??type_case_Z@?$output_processor@DV?$stream_output_adapter@D@__crt_stdio_output@@V?$positional_parameter_base@DV?$stream_output_adapter@D@__crt_stdio_output@@@2@@1@AAE_NXZ@@Z 100311f2 f i libucrt:output.obj
 0001:000301f6       ??$get_parameter_type@Uansi_string@?1??type_case_Z@?$output_processor@DV?$string_output_adapter@D@__crt_stdio_output@@V?$positional_parameter_base@DV?$string_output_adapter@D@__crt_stdio_output@@@2@@__crt_stdio_output@@AAE_NXZ@@?$positional_parameter_base@DV?$string_output_adapter@D@__crt_stdio_output@@@__crt_stdio_output@@CA?AW4parameter_type@01@PAUansi_string@?1??type_case_Z@?$output_processor@DV?$string_output_adapter@D@__crt_stdio_output@@V?$positional_parameter_base@DV?$string_output_adapter@D@__crt_stdio_output@@@2@@1@AAE_NXZ@@Z 100311f6 f i libucrt:output.obj
 0001:000301fa       ??$get_parameter_type@Uansi_string@?1??type_case_Z@?$output_processor@_WV?$stream_output_adapter@_W@__crt_stdio_output@@V?$positional_parameter_base@_WV?$stream_output_adapter@_W@__crt_stdio_output@@@2@@__crt_stdio_output@@AAE_NXZ@@?$positional_parameter_base@_WV?$stream_output_adapter@_W@__crt_stdio_output@@@__crt_stdio_output@@CA?AW4parameter_type@01@PAUansi_string@?1??type_case_Z@?$output_processor@_WV?$stream_output_adapter@_W@__crt_stdio_output@@V?$positional_parameter_base@_WV?$stream_output_adapter@_W@__crt_stdio_output@@@2@@1@AAE_NXZ@@Z 100311fa f i libucrt:output.obj
 0001:000301fe       ??$get_parameter_type@Uansi_string@?1??type_case_Z@?$output_processor@_WV?$string_output_adapter@_W@__crt_stdio_output@@V?$positional_parameter_base@_WV?$string_output_adapter@_W@__crt_stdio_output@@@2@@__crt_stdio_output@@AAE_NXZ@@?$positional_parameter_base@_WV?$string_output_adapter@_W@__crt_stdio_output@@@__crt_stdio_output@@CA?AW4parameter_type@01@PAUansi_string@?1??type_case_Z@?$output_processor@_WV?$string_output_adapter@_W@__crt_stdio_output@@V?$positional_parameter_base@_WV?$string_output_adapter@_W@__crt_stdio_output@@@2@@1@AAE_NXZ@@Z 100311fe f i libucrt:output.obj
 0001:00030202       ??$get_parameter_type@X@?$positional_parameter_base@DV?$stream_output_adapter@D@__crt_stdio_output@@@__crt_stdio_output@@CA?AW4parameter_type@01@PAX@Z 10031202 f i libucrt:output.obj
 0001:00030206       ??$get_parameter_type@X@?$positional_parameter_base@DV?$string_output_adapter@D@__crt_stdio_output@@@__crt_stdio_output@@CA?AW4parameter_type@01@PAX@Z 10031206 f i libucrt:output.obj
 0001:0003020a       ??$get_parameter_type@X@?$positional_parameter_base@_WV?$stream_output_adapter@_W@__crt_stdio_output@@@__crt_stdio_output@@CA?AW4parameter_type@01@PAX@Z 1003120a f i libucrt:output.obj
 0001:0003020e       ??$get_parameter_type@X@?$positional_parameter_base@_WV?$string_output_adapter@_W@__crt_stdio_output@@@__crt_stdio_output@@CA?AW4parameter_type@01@PAX@Z 1003120e f i libucrt:output.obj
 0001:00030212       ??$is_character_specifier@D@?$positional_parameter_base@DV?$stream_output_adapter@D@__crt_stdio_output@@@__crt_stdio_output@@CA_ND@Z 10031212 f i libucrt:output.obj
 0001:00030231       ??$is_character_specifier@D@?$positional_parameter_base@DV?$string_output_adapter@D@__crt_stdio_output@@@__crt_stdio_output@@CA_ND@Z 10031231 f i libucrt:output.obj
 0001:00030250       ??$is_character_specifier@_W@?$positional_parameter_base@_WV?$stream_output_adapter@_W@__crt_stdio_output@@@__crt_stdio_output@@CA_N_W@Z 10031250 f i libucrt:output.obj
 0001:00030273       ??$is_character_specifier@_W@?$positional_parameter_base@_WV?$string_output_adapter@_W@__crt_stdio_output@@@__crt_stdio_output@@CA_N_W@Z 10031273 f i libucrt:output.obj
 0001:00030296       ??$is_integral_specifier@D@?$positional_parameter_base@DV?$stream_output_adapter@D@__crt_stdio_output@@@__crt_stdio_output@@CA_ND@Z 10031296 f i libucrt:output.obj
 0001:000302ce       ??$is_integral_specifier@D@?$positional_parameter_base@DV?$string_output_adapter@D@__crt_stdio_output@@@__crt_stdio_output@@CA_ND@Z 100312ce f i libucrt:output.obj
 0001:00030306       ??$is_integral_specifier@_W@?$positional_parameter_base@_WV?$stream_output_adapter@_W@__crt_stdio_output@@@__crt_stdio_output@@CA_N_W@Z 10031306 f i libucrt:output.obj
 0001:00030351       ??$is_integral_specifier@_W@?$positional_parameter_base@_WV?$string_output_adapter@_W@__crt_stdio_output@@@__crt_stdio_output@@CA_N_W@Z 10031351 f i libucrt:output.obj
 0001:0003039c       ??$is_pointer_specifier@D@?$positional_parameter_base@DV?$stream_output_adapter@D@__crt_stdio_output@@@__crt_stdio_output@@CA_ND@Z 1003139c f i libucrt:output.obj
 0001:000303b0       ??$is_pointer_specifier@D@?$positional_parameter_base@DV?$string_output_adapter@D@__crt_stdio_output@@@__crt_stdio_output@@CA_ND@Z 100313b0 f i libucrt:output.obj
 0001:000303c4       ??$is_pointer_specifier@_W@?$positional_parameter_base@_WV?$stream_output_adapter@_W@__crt_stdio_output@@@__crt_stdio_output@@CA_N_W@Z 100313c4 f i libucrt:output.obj
 0001:000303d9       ??$is_pointer_specifier@_W@?$positional_parameter_base@_WV?$string_output_adapter@_W@__crt_stdio_output@@@__crt_stdio_output@@CA_N_W@Z 100313d9 f i libucrt:output.obj
 0001:000303ee       ??$is_string_specifier@D@?$positional_parameter_base@DV?$stream_output_adapter@D@__crt_stdio_output@@@__crt_stdio_output@@CA_ND@Z 100313ee f i libucrt:output.obj
 0001:0003040d       ??$is_string_specifier@D@?$positional_parameter_base@DV?$string_output_adapter@D@__crt_stdio_output@@@__crt_stdio_output@@CA_ND@Z 1003140d f i libucrt:output.obj
 0001:0003042c       ??$is_string_specifier@_W@?$positional_parameter_base@_WV?$stream_output_adapter@_W@__crt_stdio_output@@@__crt_stdio_output@@CA_N_W@Z 1003142c f i libucrt:output.obj
 0001:0003044f       ??$is_string_specifier@_W@?$positional_parameter_base@_WV?$string_output_adapter@_W@__crt_stdio_output@@@__crt_stdio_output@@CA_N_W@Z 1003144f f i libucrt:output.obj
 0001:00030472       ??$is_wide_character_specifier@D@__crt_stdio_output@@YA_N_KDW4length_modifier@0@@Z 10031472 f i libucrt:output.obj
 0001:000304c2       ??$is_wide_character_specifier@_W@__crt_stdio_output@@YA_N_K_WW4length_modifier@0@@Z 100314c2 f i libucrt:output.obj
 0001:00030524       ??$peek_va_arg@C@__crt_stdio_output@@YACPAD@Z 10031524 f i libucrt:output.obj
 0001:00030533       ??$peek_va_arg@E@__crt_stdio_output@@YAEPAD@Z 10031533 f i libucrt:output.obj
 0001:00030542       ??$peek_va_arg@F@__crt_stdio_output@@YAFPAD@Z 10031542 f i libucrt:output.obj
 0001:00030552       ??$peek_va_arg@G@__crt_stdio_output@@YAGPAD@Z 10031552 f i libucrt:output.obj
 0001:00030562       ??$peek_va_arg@H@__crt_stdio_output@@YAHPAD@Z 10031562 f i libucrt:output.obj
 0001:00030571       ??$peek_va_arg@I@__crt_stdio_output@@YAIPAD@Z 10031571 f i libucrt:output.obj
 0001:00030580       ??$peek_va_arg@PAD@__crt_stdio_output@@YAPADPAD@Z 10031580 f i libucrt:output.obj
 0001:0003058f       ??$peek_va_arg@PAUansi_string@?1??type_case_Z@?$output_processor@DV?$stream_output_adapter@D@__crt_stdio_output@@V?$positional_parameter_base@DV?$stream_output_adapter@D@__crt_stdio_output@@@2@@__crt_stdio_output@@AAE_NXZ@@__crt_stdio_output@@YAPAUansi_string@?1??type_case_Z@?$output_processor@DV?$stream_output_adapter@D@__crt_stdio_output@@V?$positional_parameter_base@DV?$stream_output_adapter@D@__crt_stdio_output@@@2@@0@AAE_NXZ@PAD@Z 1003158f f i libucrt:output.obj
 0001:0003059e       ??$peek_va_arg@PAUansi_string@?1??type_case_Z@?$output_processor@DV?$string_output_adapter@D@__crt_stdio_output@@V?$positional_parameter_base@DV?$string_output_adapter@D@__crt_stdio_output@@@2@@__crt_stdio_output@@AAE_NXZ@@__crt_stdio_output@@YAPAUansi_string@?1??type_case_Z@?$output_processor@DV?$string_output_adapter@D@__crt_stdio_output@@V?$positional_parameter_base@DV?$string_output_adapter@D@__crt_stdio_output@@@2@@0@AAE_NXZ@PAD@Z 1003159e f i libucrt:output.obj
 0001:000305ad       ??$peek_va_arg@PAUansi_string@?1??type_case_Z@?$output_processor@_WV?$stream_output_adapter@_W@__crt_stdio_output@@V?$positional_parameter_base@_WV?$stream_output_adapter@_W@__crt_stdio_output@@@2@@__crt_stdio_output@@AAE_NXZ@@__crt_stdio_output@@YAPAUansi_string@?1??type_case_Z@?$output_processor@_WV?$stream_output_adapter@_W@__crt_stdio_output@@V?$positional_parameter_base@_WV?$stream_output_adapter@_W@__crt_stdio_output@@@2@@0@AAE_NXZ@PAD@Z 100315ad f i libucrt:output.obj
 0001:000305bc       ??$peek_va_arg@PAUansi_string@?1??type_case_Z@?$output_processor@_WV?$string_output_adapter@_W@__crt_stdio_output@@V?$positional_parameter_base@_WV?$string_output_adapter@_W@__crt_stdio_output@@@2@@__crt_stdio_output@@AAE_NXZ@@__crt_stdio_output@@YAPAUansi_string@?1??type_case_Z@?$output_processor@_WV?$string_output_adapter@_W@__crt_stdio_output@@V?$positional_parameter_base@_WV?$string_output_adapter@_W@__crt_stdio_output@@@2@@0@AAE_NXZ@PAD@Z 100315bc f i libucrt:output.obj
 0001:000305cb       ??$peek_va_arg@PAX@__crt_stdio_output@@YAPAXPAD@Z 100315cb f i libucrt:output.obj
 0001:000305da       ??$peek_va_arg@U_CRT_DOUBLE@@@__crt_stdio_output@@YA?AU_CRT_DOUBLE@@PAD@Z 100315da f i libucrt:output.obj
 0001:000305ec       ??$peek_va_arg@_J@__crt_stdio_output@@YA_JPAD@Z 100315ec f i libucrt:output.obj
 0001:000305fe       ??$peek_va_arg@_K@__crt_stdio_output@@YA_KPAD@Z 100315fe f i libucrt:output.obj
 0001:00030610       ??$peek_va_arg@_W@__crt_stdio_output@@YA_WPAD@Z 10031610 f i libucrt:output.obj
 0001:00030620       ??$puttc_nolock@ABDPAU_iobuf@@@?$__crt_char_traits@D@@SAHABD$$QAPAU_iobuf@@@Z 10031620 f i libucrt:output.obj
 0001:00030640       ??$puttc_nolock@AB_WPAU_iobuf@@@?$__crt_char_traits@_W@@SAGAB_W$$QAPAU_iobuf@@@Z 10031640 f i libucrt:output.obj
 0001:00030660       ??$read_va_arg@C@__crt_stdio_output@@YACAAPAD@Z 10031660 f i libucrt:output.obj
 0001:00030676       ??$read_va_arg@E@__crt_stdio_output@@YAEAAPAD@Z 10031676 f i libucrt:output.obj
 0001:0003068c       ??$read_va_arg@F@__crt_stdio_output@@YAFAAPAD@Z 1003168c f i libucrt:output.obj
 0001:000306a3       ??$read_va_arg@G@__crt_stdio_output@@YAGAAPAD@Z 100316a3 f i libucrt:output.obj
 0001:000306ba       ??$read_va_arg@H@__crt_stdio_output@@YAHAAPAD@Z 100316ba f i libucrt:output.obj
 0001:000306d0       ??$read_va_arg@I@__crt_stdio_output@@YAIAAPAD@Z 100316d0 f i libucrt:output.obj
 0001:000306e6       ??$read_va_arg@PAD@__crt_stdio_output@@YAPADAAPAD@Z 100316e6 f i libucrt:output.obj
 0001:000306fc       ??$read_va_arg@PAUansi_string@?1??type_case_Z@?$output_processor@DV?$stream_output_adapter@D@__crt_stdio_output@@V?$format_validation_base@DV?$stream_output_adapter@D@__crt_stdio_output@@@2@@__crt_stdio_output@@AAE_NXZ@@__crt_stdio_output@@YAPAUansi_string@?1??type_case_Z@?$output_processor@DV?$stream_output_adapter@D@__crt_stdio_output@@V?$format_validation_base@DV?$stream_output_adapter@D@__crt_stdio_output@@@2@@0@AAE_NXZ@AAPAD@Z 100316fc f i libucrt:output.obj
 0001:00030712       ??$read_va_arg@PAUansi_string@?1??type_case_Z@?$output_processor@DV?$stream_output_adapter@D@__crt_stdio_output@@V?$positional_parameter_base@DV?$stream_output_adapter@D@__crt_stdio_output@@@2@@__crt_stdio_output@@AAE_NXZ@@__crt_stdio_output@@YAPAUansi_string@?1??type_case_Z@?$output_processor@DV?$stream_output_adapter@D@__crt_stdio_output@@V?$positional_parameter_base@DV?$stream_output_adapter@D@__crt_stdio_output@@@2@@0@AAE_NXZ@AAPAD@Z 10031712 f i libucrt:output.obj
 0001:00030728       ??$read_va_arg@PAUansi_string@?1??type_case_Z@?$output_processor@DV?$stream_output_adapter@D@__crt_stdio_output@@V?$standard_base@DV?$stream_output_adapter@D@__crt_stdio_output@@@2@@__crt_stdio_output@@AAE_NXZ@@__crt_stdio_output@@YAPAUansi_string@?1??type_case_Z@?$output_processor@DV?$stream_output_adapter@D@__crt_stdio_output@@V?$standard_base@DV?$stream_output_adapter@D@__crt_stdio_output@@@2@@0@AAE_NXZ@AAPAD@Z 10031728 f i libucrt:output.obj
 0001:0003073e       ??$read_va_arg@PAUansi_string@?1??type_case_Z@?$output_processor@DV?$string_output_adapter@D@__crt_stdio_output@@V?$format_validation_base@DV?$string_output_adapter@D@__crt_stdio_output@@@2@@__crt_stdio_output@@AAE_NXZ@@__crt_stdio_output@@YAPAUansi_string@?1??type_case_Z@?$output_processor@DV?$string_output_adapter@D@__crt_stdio_output@@V?$format_validation_base@DV?$string_output_adapter@D@__crt_stdio_output@@@2@@0@AAE_NXZ@AAPAD@Z 1003173e f i libucrt:output.obj
 0001:00030754       ??$read_va_arg@PAUansi_string@?1??type_case_Z@?$output_processor@DV?$string_output_adapter@D@__crt_stdio_output@@V?$positional_parameter_base@DV?$string_output_adapter@D@__crt_stdio_output@@@2@@__crt_stdio_output@@AAE_NXZ@@__crt_stdio_output@@YAPAUansi_string@?1??type_case_Z@?$output_processor@DV?$string_output_adapter@D@__crt_stdio_output@@V?$positional_parameter_base@DV?$string_output_adapter@D@__crt_stdio_output@@@2@@0@AAE_NXZ@AAPAD@Z 10031754 f i libucrt:output.obj
 0001:0003076a       ??$read_va_arg@PAUansi_string@?1??type_case_Z@?$output_processor@DV?$string_output_adapter@D@__crt_stdio_output@@V?$standard_base@DV?$string_output_adapter@D@__crt_stdio_output@@@2@@__crt_stdio_output@@AAE_NXZ@@__crt_stdio_output@@YAPAUansi_string@?1??type_case_Z@?$output_processor@DV?$string_output_adapter@D@__crt_stdio_output@@V?$standard_base@DV?$string_output_adapter@D@__crt_stdio_output@@@2@@0@AAE_NXZ@AAPAD@Z 1003176a f i libucrt:output.obj
 0001:00030780       ??$read_va_arg@PAUansi_string@?1??type_case_Z@?$output_processor@_WV?$stream_output_adapter@_W@__crt_stdio_output@@V?$format_validation_base@_WV?$stream_output_adapter@_W@__crt_stdio_output@@@2@@__crt_stdio_output@@AAE_NXZ@@__crt_stdio_output@@YAPAUansi_string@?1??type_case_Z@?$output_processor@_WV?$stream_output_adapter@_W@__crt_stdio_output@@V?$format_validation_base@_WV?$stream_output_adapter@_W@__crt_stdio_output@@@2@@0@AAE_NXZ@AAPAD@Z 10031780 f i libucrt:output.obj
 0001:00030796       ??$read_va_arg@PAUansi_string@?1??type_case_Z@?$output_processor@_WV?$stream_output_adapter@_W@__crt_stdio_output@@V?$positional_parameter_base@_WV?$stream_output_adapter@_W@__crt_stdio_output@@@2@@__crt_stdio_output@@AAE_NXZ@@__crt_stdio_output@@YAPAUansi_string@?1??type_case_Z@?$output_processor@_WV?$stream_output_adapter@_W@__crt_stdio_output@@V?$positional_parameter_base@_WV?$stream_output_adapter@_W@__crt_stdio_output@@@2@@0@AAE_NXZ@AAPAD@Z 10031796 f i libucrt:output.obj
 0001:000307ac       ??$read_va_arg@PAUansi_string@?1??type_case_Z@?$output_processor@_WV?$stream_output_adapter@_W@__crt_stdio_output@@V?$standard_base@_WV?$stream_output_adapter@_W@__crt_stdio_output@@@2@@__crt_stdio_output@@AAE_NXZ@@__crt_stdio_output@@YAPAUansi_string@?1??type_case_Z@?$output_processor@_WV?$stream_output_adapter@_W@__crt_stdio_output@@V?$standard_base@_WV?$stream_output_adapter@_W@__crt_stdio_output@@@2@@0@AAE_NXZ@AAPAD@Z 100317ac f i libucrt:output.obj
 0001:000307c2       ??$read_va_arg@PAUansi_string@?1??type_case_Z@?$output_processor@_WV?$string_output_adapter@_W@__crt_stdio_output@@V?$format_validation_base@_WV?$string_output_adapter@_W@__crt_stdio_output@@@2@@__crt_stdio_output@@AAE_NXZ@@__crt_stdio_output@@YAPAUansi_string@?1??type_case_Z@?$output_processor@_WV?$string_output_adapter@_W@__crt_stdio_output@@V?$format_validation_base@_WV?$string_output_adapter@_W@__crt_stdio_output@@@2@@0@AAE_NXZ@AAPAD@Z 100317c2 f i libucrt:output.obj
 0001:000307d8       ??$read_va_arg@PAUansi_string@?1??type_case_Z@?$output_processor@_WV?$string_output_adapter@_W@__crt_stdio_output@@V?$positional_parameter_base@_WV?$string_output_adapter@_W@__crt_stdio_output@@@2@@__crt_stdio_output@@AAE_NXZ@@__crt_stdio_output@@YAPAUansi_string@?1??type_case_Z@?$output_processor@_WV?$string_output_adapter@_W@__crt_stdio_output@@V?$positional_parameter_base@_WV?$string_output_adapter@_W@__crt_stdio_output@@@2@@0@AAE_NXZ@AAPAD@Z 100317d8 f i libucrt:output.obj
 0001:000307ee       ??$read_va_arg@PAUansi_string@?1??type_case_Z@?$output_processor@_WV?$string_output_adapter@_W@__crt_stdio_output@@V?$standard_base@_WV?$string_output_adapter@_W@__crt_stdio_output@@@2@@__crt_stdio_output@@AAE_NXZ@@__crt_stdio_output@@YAPAUansi_string@?1??type_case_Z@?$output_processor@_WV?$string_output_adapter@_W@__crt_stdio_output@@V?$standard_base@_WV?$string_output_adapter@_W@__crt_stdio_output@@@2@@0@AAE_NXZ@AAPAD@Z 100317ee f i libucrt:output.obj
 0001:00030804       ??$read_va_arg@PAX@__crt_stdio_output@@YAPAXAAPAD@Z 10031804 f i libucrt:output.obj
 0001:0003081a       ??$read_va_arg@U_CRT_DOUBLE@@@__crt_stdio_output@@YA?AU_CRT_DOUBLE@@AAPAD@Z 1003181a f i libucrt:output.obj
 0001:00030834       ??$read_va_arg@_J@__crt_stdio_output@@YA_JAAPAD@Z 10031834 f i libucrt:output.obj
 0001:0003084e       ??$read_va_arg@_K@__crt_stdio_output@@YA_KAAPAD@Z 1003184e f i libucrt:output.obj
 0001:00030868       ??$read_va_arg@_W@__crt_stdio_output@@YA_WAAPAD@Z 10031868 f i libucrt:output.obj
 0001:0003087f       ??$scratch_count@D@formatting_buffer@__crt_stdio_output@@QBEIXZ 1003187f f i libucrt:output.obj
 0001:00030884       ??$scratch_data@D@formatting_buffer@__crt_stdio_output@@QAEPADXZ 10031884 f i libucrt:output.obj
 0001:000308a9       ??$tcstol@AAPBDPAPADH@?$__crt_char_traits@D@@SAJAAPBD$$QAPAPAD$$QAH@Z 100318a9 f i libucrt:output.obj
 0001:000308ce       ??$tcstol@AAPB_WPAPA_WH@?$__crt_char_traits@_W@@SAJAAPB_W$$QAPAPA_W$$QAH@Z 100318ce f i libucrt:output.obj
 0001:000308f3       ??$tcstol@PBDPAPADH@?$__crt_char_traits@D@@SAJ$$QAPBD$$QAPAPAD$$QAH@Z 100318f3 f i libucrt:output.obj
 0001:00030918       ??$tcstol@PB_WPAPA_WH@?$__crt_char_traits@_W@@SAJ$$QAPB_W$$QAPAPA_W$$QAH@Z 10031918 f i libucrt:output.obj
 0001:0003093d       ??$type_case_integer_parse_into_buffer@I@?$output_processor@DV?$stream_output_adapter@D@__crt_stdio_output@@V?$format_validation_base@DV?$stream_output_adapter@D@__crt_stdio_output@@@2@@__crt_stdio_output@@AAEXII_N@Z 1003193d f i libucrt:output.obj
 0001:000309cf       ??$type_case_integer_parse_into_buffer@I@?$output_processor@DV?$stream_output_adapter@D@__crt_stdio_output@@V?$positional_parameter_base@DV?$stream_output_adapter@D@__crt_stdio_output@@@2@@__crt_stdio_output@@AAEXII_N@Z 100319cf f i libucrt:output.obj
 0001:00030a61       ??$type_case_integer_parse_into_buffer@I@?$output_processor@DV?$stream_output_adapter@D@__crt_stdio_output@@V?$standard_base@DV?$stream_output_adapter@D@__crt_stdio_output@@@2@@__crt_stdio_output@@AAEXII_N@Z 10031a61 f i libucrt:output.obj
 0001:00030af3       ??$type_case_integer_parse_into_buffer@I@?$output_processor@DV?$string_output_adapter@D@__crt_stdio_output@@V?$format_validation_base@DV?$string_output_adapter@D@__crt_stdio_output@@@2@@__crt_stdio_output@@AAEXII_N@Z 10031af3 f i libucrt:output.obj
 0001:00030b85       ??$type_case_integer_parse_into_buffer@I@?$output_processor@DV?$string_output_adapter@D@__crt_stdio_output@@V?$positional_parameter_base@DV?$string_output_adapter@D@__crt_stdio_output@@@2@@__crt_stdio_output@@AAEXII_N@Z 10031b85 f i libucrt:output.obj
 0001:00030c17       ??$type_case_integer_parse_into_buffer@I@?$output_processor@DV?$string_output_adapter@D@__crt_stdio_output@@V?$standard_base@DV?$string_output_adapter@D@__crt_stdio_output@@@2@@__crt_stdio_output@@AAEXII_N@Z 10031c17 f i libucrt:output.obj
 0001:00030ca9       ??$type_case_integer_parse_into_buffer@I@?$output_processor@_WV?$stream_output_adapter@_W@__crt_stdio_output@@V?$format_validation_base@_WV?$stream_output_adapter@_W@__crt_stdio_output@@@2@@__crt_stdio_output@@AAEXII_N@Z 10031ca9 f i libucrt:output.obj
 0001:00030d3b       ??$type_case_integer_parse_into_buffer@I@?$output_processor@_WV?$stream_output_adapter@_W@__crt_stdio_output@@V?$positional_parameter_base@_WV?$stream_output_adapter@_W@__crt_stdio_output@@@2@@__crt_stdio_output@@AAEXII_N@Z 10031d3b f i libucrt:output.obj
 0001:00030dcd       ??$type_case_integer_parse_into_buffer@I@?$output_processor@_WV?$stream_output_adapter@_W@__crt_stdio_output@@V?$standard_base@_WV?$stream_output_adapter@_W@__crt_stdio_output@@@2@@__crt_stdio_output@@AAEXII_N@Z 10031dcd f i libucrt:output.obj
 0001:00030e5f       ??$type_case_integer_parse_into_buffer@I@?$output_processor@_WV?$string_output_adapter@_W@__crt_stdio_output@@V?$format_validation_base@_WV?$string_output_adapter@_W@__crt_stdio_output@@@2@@__crt_stdio_output@@AAEXII_N@Z 10031e5f f i libucrt:output.obj
 0001:00030ef1       ??$type_case_integer_parse_into_buffer@I@?$output_processor@_WV?$string_output_adapter@_W@__crt_stdio_output@@V?$positional_parameter_base@_WV?$string_output_adapter@_W@__crt_stdio_output@@@2@@__crt_stdio_output@@AAEXII_N@Z 10031ef1 f i libucrt:output.obj
 0001:00030f83       ??$type_case_integer_parse_into_buffer@I@?$output_processor@_WV?$string_output_adapter@_W@__crt_stdio_output@@V?$standard_base@_WV?$string_output_adapter@_W@__crt_stdio_output@@@2@@__crt_stdio_output@@AAEXII_N@Z 10031f83 f i libucrt:output.obj
 0001:00031015       ??$type_case_integer_parse_into_buffer@_K@?$output_processor@DV?$stream_output_adapter@D@__crt_stdio_output@@V?$format_validation_base@DV?$stream_output_adapter@D@__crt_stdio_output@@@2@@__crt_stdio_output@@AAEX_KI_N@Z 10032015 f i libucrt:output.obj
 0001:000310bf       ??$type_case_integer_parse_into_buffer@_K@?$output_processor@DV?$stream_output_adapter@D@__crt_stdio_output@@V?$positional_parameter_base@DV?$stream_output_adapter@D@__crt_stdio_output@@@2@@__crt_stdio_output@@AAEX_KI_N@Z 100320bf f i libucrt:output.obj
 0001:00031169       ??$type_case_integer_parse_into_buffer@_K@?$output_processor@DV?$stream_output_adapter@D@__crt_stdio_output@@V?$standard_base@DV?$stream_output_adapter@D@__crt_stdio_output@@@2@@__crt_stdio_output@@AAEX_KI_N@Z 10032169 f i libucrt:output.obj
 0001:00031213       ??$type_case_integer_parse_into_buffer@_K@?$output_processor@DV?$string_output_adapter@D@__crt_stdio_output@@V?$format_validation_base@DV?$string_output_adapter@D@__crt_stdio_output@@@2@@__crt_stdio_output@@AAEX_KI_N@Z 10032213 f i libucrt:output.obj
 0001:000312bd       ??$type_case_integer_parse_into_buffer@_K@?$output_processor@DV?$string_output_adapter@D@__crt_stdio_output@@V?$positional_parameter_base@DV?$string_output_adapter@D@__crt_stdio_output@@@2@@__crt_stdio_output@@AAEX_KI_N@Z 100322bd f i libucrt:output.obj
 0001:00031367       ??$type_case_integer_parse_into_buffer@_K@?$output_processor@DV?$string_output_adapter@D@__crt_stdio_output@@V?$standard_base@DV?$string_output_adapter@D@__crt_stdio_output@@@2@@__crt_stdio_output@@AAEX_KI_N@Z 10032367 f i libucrt:output.obj
 0001:00031411       ??$type_case_integer_parse_into_buffer@_K@?$output_processor@_WV?$stream_output_adapter@_W@__crt_stdio_output@@V?$format_validation_base@_WV?$stream_output_adapter@_W@__crt_stdio_output@@@2@@__crt_stdio_output@@AAEX_KI_N@Z 10032411 f i libucrt:output.obj
 0001:000314bb       ??$type_case_integer_parse_into_buffer@_K@?$output_processor@_WV?$stream_output_adapter@_W@__crt_stdio_output@@V?$positional_parameter_base@_WV?$stream_output_adapter@_W@__crt_stdio_output@@@2@@__crt_stdio_output@@AAEX_KI_N@Z 100324bb f i libucrt:output.obj
 0001:00031565       ??$type_case_integer_parse_into_buffer@_K@?$output_processor@_WV?$stream_output_adapter@_W@__crt_stdio_output@@V?$standard_base@_WV?$stream_output_adapter@_W@__crt_stdio_output@@@2@@__crt_stdio_output@@AAEX_KI_N@Z 10032565 f i libucrt:output.obj
 0001:0003160f       ??$type_case_integer_parse_into_buffer@_K@?$output_processor@_WV?$string_output_adapter@_W@__crt_stdio_output@@V?$format_validation_base@_WV?$string_output_adapter@_W@__crt_stdio_output@@@2@@__crt_stdio_output@@AAEX_KI_N@Z 1003260f f i libucrt:output.obj
 0001:000316b9       ??$type_case_integer_parse_into_buffer@_K@?$output_processor@_WV?$string_output_adapter@_W@__crt_stdio_output@@V?$positional_parameter_base@_WV?$string_output_adapter@_W@__crt_stdio_output@@@2@@__crt_stdio_output@@AAEX_KI_N@Z 100326b9 f i libucrt:output.obj
 0001:00031763       ??$type_case_integer_parse_into_buffer@_K@?$output_processor@_WV?$string_output_adapter@_W@__crt_stdio_output@@V?$standard_base@_WV?$string_output_adapter@_W@__crt_stdio_output@@@2@@__crt_stdio_output@@AAEX_KI_N@Z 10032763 f i libucrt:output.obj
 0001:0003180d       ??$write_multiple_characters@V?$stream_output_adapter@D@__crt_stdio_output@@D@__crt_stdio_output@@YAXABV?$stream_output_adapter@D@0@DHQAH@Z 1003280d f i libucrt:output.obj
 0001:00031844       ??$write_multiple_characters@V?$stream_output_adapter@_W@__crt_stdio_output@@D@__crt_stdio_output@@YAXABV?$stream_output_adapter@_W@0@DHQAH@Z 10032844 f i libucrt:output.obj
 0001:00031881       ??$write_multiple_characters@V?$string_output_adapter@D@__crt_stdio_output@@D@__crt_stdio_output@@YAXABV?$string_output_adapter@D@0@DHQAH@Z 10032881 f i libucrt:output.obj
 0001:000318b8       ??$write_multiple_characters@V?$string_output_adapter@_W@__crt_stdio_output@@D@__crt_stdio_output@@YAXABV?$string_output_adapter@_W@0@DHQAH@Z 100328b8 f i libucrt:output.obj
 0001:00031b29       ??0?$common_data@D@__crt_stdio_output@@IAE@XZ 10032b29 f i libucrt:output.obj
 0001:00031b81       ??0?$common_data@_W@__crt_stdio_output@@IAE@XZ 10032b81 f i libucrt:output.obj
 0001:00031be0       ??0?$output_adapter_data@DV?$stream_output_adapter@D@__crt_stdio_output@@@__crt_stdio_output@@IAE@ABV?$stream_output_adapter@D@1@_KQBDQAU__crt_locale_pointers@@QAD@Z 10032be0 f i libucrt:output.obj
 0001:00031c2b       ??0?$output_adapter_data@DV?$string_output_adapter@D@__crt_stdio_output@@@__crt_stdio_output@@IAE@ABV?$string_output_adapter@D@1@_KQBDQAU__crt_locale_pointers@@QAD@Z 10032c2b f i libucrt:output.obj
 0001:00031c76       ??0?$output_adapter_data@_WV?$stream_output_adapter@_W@__crt_stdio_output@@@__crt_stdio_output@@IAE@ABV?$stream_output_adapter@_W@1@_KQB_WQAU__crt_locale_pointers@@QAD@Z 10032c76 f i libucrt:output.obj
 0001:00031cc1       ??0?$output_adapter_data@_WV?$string_output_adapter@_W@__crt_stdio_output@@@__crt_stdio_output@@IAE@ABV?$string_output_adapter@_W@1@_KQB_WQAU__crt_locale_pointers@@QAD@Z 10032cc1 f i libucrt:output.obj
 0001:00031d0c       ??0?$output_processor@DV?$stream_output_adapter@D@__crt_stdio_output@@V?$format_validation_base@DV?$stream_output_adapter@D@__crt_stdio_output@@@2@@__crt_stdio_output@@QAE@ABV?$stream_output_adapter@D@1@_KQBDQAU__crt_locale_pointers@@QAD@Z 10032d0c f i libucrt:output.obj
 0001:00031d4e       ??0?$output_processor@DV?$stream_output_adapter@D@__crt_stdio_output@@V?$positional_parameter_base@DV?$stream_output_adapter@D@__crt_stdio_output@@@2@@__crt_stdio_output@@QAE@ABV?$stream_output_adapter@D@1@_KQBDQAU__crt_locale_pointers@@QAD@Z 10032d4e f i libucrt:output.obj
 0001:00031d88       ??0?$output_processor@DV?$stream_output_adapter@D@__crt_stdio_output@@V?$standard_base@DV?$stream_output_adapter@D@__crt_stdio_output@@@2@@__crt_stdio_output@@QAE@ABV?$stream_output_adapter@D@1@_KQBDQAU__crt_locale_pointers@@QAD@Z 10032d88 f i libucrt:output.obj
 0001:00031dca       ??0?$output_processor@DV?$string_output_adapter@D@__crt_stdio_output@@V?$format_validation_base@DV?$string_output_adapter@D@__crt_stdio_output@@@2@@__crt_stdio_output@@QAE@ABV?$string_output_adapter@D@1@_KQBDQAU__crt_locale_pointers@@QAD@Z 10032dca f i libucrt:output.obj
 0001:00031e0c       ??0?$output_processor@DV?$string_output_adapter@D@__crt_stdio_output@@V?$positional_parameter_base@DV?$string_output_adapter@D@__crt_stdio_output@@@2@@__crt_stdio_output@@QAE@ABV?$string_output_adapter@D@1@_KQBDQAU__crt_locale_pointers@@QAD@Z 10032e0c f i libucrt:output.obj
 0001:00031e46       ??0?$output_processor@DV?$string_output_adapter@D@__crt_stdio_output@@V?$standard_base@DV?$string_output_adapter@D@__crt_stdio_output@@@2@@__crt_stdio_output@@QAE@ABV?$string_output_adapter@D@1@_KQBDQAU__crt_locale_pointers@@QAD@Z 10032e46 f i libucrt:output.obj
 0001:00031e88       ??0?$output_processor@_WV?$stream_output_adapter@_W@__crt_stdio_output@@V?$format_validation_base@_WV?$stream_output_adapter@_W@__crt_stdio_output@@@2@@__crt_stdio_output@@QAE@ABV?$stream_output_adapter@_W@1@_KQB_WQAU__crt_locale_pointers@@QAD@Z 10032e88 f i libucrt:output.obj
 0001:00031eca       ??0?$output_processor@_WV?$stream_output_adapter@_W@__crt_stdio_output@@V?$positional_parameter_base@_WV?$stream_output_adapter@_W@__crt_stdio_output@@@2@@__crt_stdio_output@@QAE@ABV?$stream_output_adapter@_W@1@_KQB_WQAU__crt_locale_pointers@@QAD@Z 10032eca f i libucrt:output.obj
 0001:00031f04       ??0?$output_processor@_WV?$stream_output_adapter@_W@__crt_stdio_output@@V?$standard_base@_WV?$stream_output_adapter@_W@__crt_stdio_output@@@2@@__crt_stdio_output@@QAE@ABV?$stream_output_adapter@_W@1@_KQB_WQAU__crt_locale_pointers@@QAD@Z 10032f04 f i libucrt:output.obj
 0001:00031f46       ??0?$output_processor@_WV?$string_output_adapter@_W@__crt_stdio_output@@V?$format_validation_base@_WV?$string_output_adapter@_W@__crt_stdio_output@@@2@@__crt_stdio_output@@QAE@ABV?$string_output_adapter@_W@1@_KQB_WQAU__crt_locale_pointers@@QAD@Z 10032f46 f i libucrt:output.obj
 0001:00031f88       ??0?$output_processor@_WV?$string_output_adapter@_W@__crt_stdio_output@@V?$positional_parameter_base@_WV?$string_output_adapter@_W@__crt_stdio_output@@@2@@__crt_stdio_output@@QAE@ABV?$string_output_adapter@_W@1@_KQB_WQAU__crt_locale_pointers@@QAD@Z 10032f88 f i libucrt:output.obj
 0001:00031fc2       ??0?$output_processor@_WV?$string_output_adapter@_W@__crt_stdio_output@@V?$standard_base@_WV?$string_output_adapter@_W@__crt_stdio_output@@@2@@__crt_stdio_output@@QAE@ABV?$string_output_adapter@_W@1@_KQB_WQAU__crt_locale_pointers@@QAD@Z 10032fc2 f i libucrt:output.obj
 0001:00032004       ??0?$stream_output_adapter@D@__crt_stdio_output@@QAE@QAU_iobuf@@@Z 10033004 f i libucrt:output.obj
 0001:00032018       ??0?$stream_output_adapter@_W@__crt_stdio_output@@QAE@QAU_iobuf@@@Z 10033018 f i libucrt:output.obj
 0001:0003202c       ??0?$string_output_adapter@D@__crt_stdio_output@@QAE@QAU?$string_output_adapter_context@D@1@@Z 1003302c f i libucrt:output.obj
 0001:00032040       ??0?$string_output_adapter@_W@__crt_stdio_output@@QAE@QAU?$string_output_adapter_context@_W@1@@Z 10033040 f i libucrt:output.obj
 0001:00032054       ??0_LocaleUpdate@@QAE@QAU__crt_locale_pointers@@@Z 10033054 f i libucrt:output.obj
 0001:000320f7       ??0__acrt_stdio_temporary_buffering_guard@@QAE@QAU_iobuf@@@Z 100330f7 f i libucrt:output.obj
 0001:0003211c       ??0__crt_errno_guard@@QAE@QAH@Z 1003311c f i libucrt:output.obj
 0001:0003213a       ??0formatting_buffer@__crt_stdio_output@@QAE@XZ 1003313a f i libucrt:output.obj
 0001:0003214f       ??1?$common_data@D@__crt_stdio_output@@QAE@XZ 1003314f f i libucrt:output.obj
 0001:00032159       ??1?$common_data@_W@__crt_stdio_output@@QAE@XZ 10033159 f i libucrt:output.obj
 0001:00032163       ??1?$format_validation_base@DV?$stream_output_adapter@D@__crt_stdio_output@@@__crt_stdio_output@@QAE@XZ 10033163 f i libucrt:output.obj
 0001:0003216d       ??1?$format_validation_base@DV?$string_output_adapter@D@__crt_stdio_output@@@__crt_stdio_output@@QAE@XZ 1003316d f i libucrt:output.obj
 0001:00032177       ??1?$format_validation_base@_WV?$stream_output_adapter@_W@__crt_stdio_output@@@__crt_stdio_output@@QAE@XZ 10033177 f i libucrt:output.obj
 0001:00032181       ??1?$format_validation_base@_WV?$string_output_adapter@_W@__crt_stdio_output@@@__crt_stdio_output@@QAE@XZ 10033181 f i libucrt:output.obj
 0001:0003218b       ??1?$output_adapter_data@DV?$stream_output_adapter@D@__crt_stdio_output@@@__crt_stdio_output@@QAE@XZ 1003318b f i libucrt:output.obj
 0001:00032195       ??1?$output_adapter_data@DV?$string_output_adapter@D@__crt_stdio_output@@@__crt_stdio_output@@QAE@XZ 10033195 f i libucrt:output.obj
 0001:0003219f       ??1?$output_adapter_data@_WV?$stream_output_adapter@_W@__crt_stdio_output@@@__crt_stdio_output@@QAE@XZ 1003319f f i libucrt:output.obj
 0001:000321a9       ??1?$output_adapter_data@_WV?$string_output_adapter@_W@__crt_stdio_output@@@__crt_stdio_output@@QAE@XZ 100331a9 f i libucrt:output.obj
 0001:000321b3       ??1?$output_processor@DV?$stream_output_adapter@D@__crt_stdio_output@@V?$format_validation_base@DV?$stream_output_adapter@D@__crt_stdio_output@@@2@@__crt_stdio_output@@QAE@XZ 100331b3 f i libucrt:output.obj
 0001:000321bd       ??1?$output_processor@DV?$stream_output_adapter@D@__crt_stdio_output@@V?$positional_parameter_base@DV?$stream_output_adapter@D@__crt_stdio_output@@@2@@__crt_stdio_output@@QAE@XZ 100331bd f i libucrt:output.obj
 0001:000321c7       ??1?$output_processor@DV?$stream_output_adapter@D@__crt_stdio_output@@V?$standard_base@DV?$stream_output_adapter@D@__crt_stdio_output@@@2@@__crt_stdio_output@@QAE@XZ 100331c7 f i libucrt:output.obj
 0001:000321d1       ??1?$output_processor@DV?$string_output_adapter@D@__crt_stdio_output@@V?$format_validation_base@DV?$string_output_adapter@D@__crt_stdio_output@@@2@@__crt_stdio_output@@QAE@XZ 100331d1 f i libucrt:output.obj
 0001:000321db       ??1?$output_processor@DV?$string_output_adapter@D@__crt_stdio_output@@V?$positional_parameter_base@DV?$string_output_adapter@D@__crt_stdio_output@@@2@@__crt_stdio_output@@QAE@XZ 100331db f i libucrt:output.obj
 0001:000321e5       ??1?$output_processor@DV?$string_output_adapter@D@__crt_stdio_output@@V?$standard_base@DV?$string_output_adapter@D@__crt_stdio_output@@@2@@__crt_stdio_output@@QAE@XZ 100331e5 f i libucrt:output.obj
 0001:000321ef       ??1?$output_processor@_WV?$stream_output_adapter@_W@__crt_stdio_output@@V?$format_validation_base@_WV?$stream_output_adapter@_W@__crt_stdio_output@@@2@@__crt_stdio_output@@QAE@XZ 100331ef f i libucrt:output.obj
 0001:000321f9       ??1?$output_processor@_WV?$stream_output_adapter@_W@__crt_stdio_output@@V?$positional_parameter_base@_WV?$stream_output_adapter@_W@__crt_stdio_output@@@2@@__crt_stdio_output@@QAE@XZ 100331f9 f i libucrt:output.obj
 0001:00032203       ??1?$output_processor@_WV?$stream_output_adapter@_W@__crt_stdio_output@@V?$standard_base@_WV?$stream_output_adapter@_W@__crt_stdio_output@@@2@@__crt_stdio_output@@QAE@XZ 10033203 f i libucrt:output.obj
 0001:0003220d       ??1?$output_processor@_WV?$string_output_adapter@_W@__crt_stdio_output@@V?$format_validation_base@_WV?$string_output_adapter@_W@__crt_stdio_output@@@2@@__crt_stdio_output@@QAE@XZ 1003320d f i libucrt:output.obj
 0001:00032217       ??1?$output_processor@_WV?$string_output_adapter@_W@__crt_stdio_output@@V?$positional_parameter_base@_WV?$string_output_adapter@_W@__crt_stdio_output@@@2@@__crt_stdio_output@@QAE@XZ 10033217 f i libucrt:output.obj
 0001:00032221       ??1?$output_processor@_WV?$string_output_adapter@_W@__crt_stdio_output@@V?$standard_base@_WV?$string_output_adapter@_W@__crt_stdio_output@@@2@@__crt_stdio_output@@QAE@XZ 10033221 f i libucrt:output.obj
 0001:0003222b       ??1?$positional_parameter_base@DV?$stream_output_adapter@D@__crt_stdio_output@@@__crt_stdio_output@@QAE@XZ 1003322b f i libucrt:output.obj
 0001:00032235       ??1?$positional_parameter_base@DV?$string_output_adapter@D@__crt_stdio_output@@@__crt_stdio_output@@QAE@XZ 10033235 f i libucrt:output.obj
 0001:0003223f       ??1?$positional_parameter_base@_WV?$stream_output_adapter@_W@__crt_stdio_output@@@__crt_stdio_output@@QAE@XZ 1003323f f i libucrt:output.obj
 0001:00032249       ??1?$positional_parameter_base@_WV?$string_output_adapter@_W@__crt_stdio_output@@@__crt_stdio_output@@QAE@XZ 10033249 f i libucrt:output.obj
 0001:00032253       ??1?$standard_base@DV?$stream_output_adapter@D@__crt_stdio_output@@@__crt_stdio_output@@QAE@XZ 10033253 f i libucrt:output.obj
 0001:0003225d       ??1?$standard_base@DV?$string_output_adapter@D@__crt_stdio_output@@@__crt_stdio_output@@QAE@XZ 1003325d f i libucrt:output.obj
 0001:00032267       ??1?$standard_base@_WV?$stream_output_adapter@_W@__crt_stdio_output@@@__crt_stdio_output@@QAE@XZ 10033267 f i libucrt:output.obj
 0001:00032271       ??1?$standard_base@_WV?$string_output_adapter@_W@__crt_stdio_output@@@__crt_stdio_output@@QAE@XZ 10033271 f i libucrt:output.obj
 0001:0003227b       ??1_LocaleUpdate@@QAE@XZ   1003327b f i libucrt:output.obj
 0001:0003228f       ??1__acrt_stdio_temporary_buffering_guard@@QAE@XZ 1003328f f i libucrt:output.obj
 0001:000322a1       ??1__crt_errno_guard@@QAE@XZ 100332a1 f i libucrt:output.obj
 0001:000322b6       ??1formatting_buffer@__crt_stdio_output@@QAE@XZ 100332b6 f i libucrt:output.obj
 0001:000322d6       ??4?$__crt_unique_heap_ptr@DU__crt_internal_free_policy@@@@QAEAAV0@$$QAV0@@Z 100332d6 f i libucrt:output.obj
 0001:000329b9       ?GetLocaleT@_LocaleUpdate@@QAEPAU__crt_locale_pointers@@XZ 100339b9 f i libucrt:output.obj
 0001:000329bd       ?__crt_interlocked_read_32@@YAHPDH@Z 100339bd f i libucrt:output.obj
 0001:000329cc       ?adjust_hexit@?$output_processor@DV?$stream_output_adapter@D@__crt_stdio_output@@V?$format_validation_base@DV?$stream_output_adapter@D@__crt_stdio_output@@@2@@__crt_stdio_output@@CADH_N@Z 100339cc f i libucrt:output.obj
 0001:000329f1       ?adjust_hexit@?$output_processor@DV?$stream_output_adapter@D@__crt_stdio_output@@V?$positional_parameter_base@DV?$stream_output_adapter@D@__crt_stdio_output@@@2@@__crt_stdio_output@@CADH_N@Z 100339f1 f i libucrt:output.obj
 0001:00032a16       ?adjust_hexit@?$output_processor@DV?$stream_output_adapter@D@__crt_stdio_output@@V?$standard_base@DV?$stream_output_adapter@D@__crt_stdio_output@@@2@@__crt_stdio_output@@CADH_N@Z 10033a16 f i libucrt:output.obj
 0001:00032a3b       ?adjust_hexit@?$output_processor@DV?$string_output_adapter@D@__crt_stdio_output@@V?$format_validation_base@DV?$string_output_adapter@D@__crt_stdio_output@@@2@@__crt_stdio_output@@CADH_N@Z 10033a3b f i libucrt:output.obj
 0001:00032a60       ?adjust_hexit@?$output_processor@DV?$string_output_adapter@D@__crt_stdio_output@@V?$positional_parameter_base@DV?$string_output_adapter@D@__crt_stdio_output@@@2@@__crt_stdio_output@@CADH_N@Z 10033a60 f i libucrt:output.obj
 0001:00032a85       ?adjust_hexit@?$output_processor@DV?$string_output_adapter@D@__crt_stdio_output@@V?$standard_base@DV?$string_output_adapter@D@__crt_stdio_output@@@2@@__crt_stdio_output@@CADH_N@Z 10033a85 f i libucrt:output.obj
 0001:00032aaa       ?adjust_hexit@?$output_processor@_WV?$stream_output_adapter@_W@__crt_stdio_output@@V?$format_validation_base@_WV?$stream_output_adapter@_W@__crt_stdio_output@@@2@@__crt_stdio_output@@CADH_N@Z 10033aaa f i libucrt:output.obj
 0001:00032acf       ?adjust_hexit@?$output_processor@_WV?$stream_output_adapter@_W@__crt_stdio_output@@V?$positional_parameter_base@_WV?$stream_output_adapter@_W@__crt_stdio_output@@@2@@__crt_stdio_output@@CADH_N@Z 10033acf f i libucrt:output.obj
 0001:00032af4       ?adjust_hexit@?$output_processor@_WV?$stream_output_adapter@_W@__crt_stdio_output@@V?$standard_base@_WV?$stream_output_adapter@_W@__crt_stdio_output@@@2@@__crt_stdio_output@@CADH_N@Z 10033af4 f i libucrt:output.obj
 0001:00032b19       ?adjust_hexit@?$output_processor@_WV?$string_output_adapter@_W@__crt_stdio_output@@V?$format_validation_base@_WV?$string_output_adapter@_W@__crt_stdio_output@@@2@@__crt_stdio_output@@CADH_N@Z 10033b19 f i libucrt:output.obj
 0001:00032b3e       ?adjust_hexit@?$output_processor@_WV?$string_output_adapter@_W@__crt_stdio_output@@V?$positional_parameter_base@_WV?$string_output_adapter@_W@__crt_stdio_output@@@2@@__crt_stdio_output@@CADH_N@Z 10033b3e f i libucrt:output.obj
 0001:00032b63       ?adjust_hexit@?$output_processor@_WV?$string_output_adapter@_W@__crt_stdio_output@@V?$standard_base@_WV?$string_output_adapter@_W@__crt_stdio_output@@@2@@__crt_stdio_output@@CADH_N@Z 10033b63 f i libucrt:output.obj
 0001:00032b88       ?advance_to_next_pass@?$positional_parameter_base@DV?$stream_output_adapter@D@__crt_stdio_output@@@__crt_stdio_output@@IAE_NXZ 10033b88 f i libucrt:output.obj
 0001:00032be7       ?advance_to_next_pass@?$positional_parameter_base@DV?$string_output_adapter@D@__crt_stdio_output@@@__crt_stdio_output@@IAE_NXZ 10033be7 f i libucrt:output.obj
 0001:00032c46       ?advance_to_next_pass@?$positional_parameter_base@_WV?$stream_output_adapter@_W@__crt_stdio_output@@@__crt_stdio_output@@IAE_NXZ 10033c46 f i libucrt:output.obj
 0001:00032ca5       ?advance_to_next_pass@?$positional_parameter_base@_WV?$string_output_adapter@_W@__crt_stdio_output@@@__crt_stdio_output@@IAE_NXZ 10033ca5 f i libucrt:output.obj
 0001:00032d04       ?advance_to_next_pass@?$standard_base@DV?$stream_output_adapter@D@__crt_stdio_output@@@__crt_stdio_output@@IAE_NXZ 10033d04 f i libucrt:output.obj
 0001:00032d1b       ?advance_to_next_pass@?$standard_base@DV?$string_output_adapter@D@__crt_stdio_output@@@__crt_stdio_output@@IAE_NXZ 10033d1b f i libucrt:output.obj
 0001:00032d32       ?advance_to_next_pass@?$standard_base@_WV?$stream_output_adapter@_W@__crt_stdio_output@@@__crt_stdio_output@@IAE_NXZ 10033d32 f i libucrt:output.obj
 0001:00032d49       ?advance_to_next_pass@?$standard_base@_WV?$string_output_adapter@_W@__crt_stdio_output@@@__crt_stdio_output@@IAE_NXZ 10033d49 f i libucrt:output.obj
 0001:00032d60       ?crop_zeroes@__crt_stdio_output@@YAXPADQAU__crt_locale_pointers@@@Z 10033d60 f i libucrt:output.obj
 0001:00032dcc       ?find_next_state@?$output_processor@DV?$stream_output_adapter@D@__crt_stdio_output@@V?$format_validation_base@DV?$stream_output_adapter@D@__crt_stdio_output@@@2@@__crt_stdio_output@@ABE?AW4state@2@DW432@@Z 10033dcc f i libucrt:output.obj
 0001:00032e0e       ?find_next_state@?$output_processor@DV?$stream_output_adapter@D@__crt_stdio_output@@V?$positional_parameter_base@DV?$stream_output_adapter@D@__crt_stdio_output@@@2@@__crt_stdio_output@@ABE?AW4state@2@DW432@@Z 10033e0e f i libucrt:output.obj
 0001:00032e50       ?find_next_state@?$output_processor@DV?$stream_output_adapter@D@__crt_stdio_output@@V?$standard_base@DV?$stream_output_adapter@D@__crt_stdio_output@@@2@@__crt_stdio_output@@ABE?AW4state@2@DW432@@Z 10033e50 f i libucrt:output.obj
 0001:00032e8e       ?find_next_state@?$output_processor@DV?$string_output_adapter@D@__crt_stdio_output@@V?$format_validation_base@DV?$string_output_adapter@D@__crt_stdio_output@@@2@@__crt_stdio_output@@ABE?AW4state@2@DW432@@Z 10033e8e f i libucrt:output.obj
 0001:00032ed0       ?find_next_state@?$output_processor@DV?$string_output_adapter@D@__crt_stdio_output@@V?$positional_parameter_base@DV?$string_output_adapter@D@__crt_stdio_output@@@2@@__crt_stdio_output@@ABE?AW4state@2@DW432@@Z 10033ed0 f i libucrt:output.obj
 0001:00032f12       ?find_next_state@?$output_processor@DV?$string_output_adapter@D@__crt_stdio_output@@V?$standard_base@DV?$string_output_adapter@D@__crt_stdio_output@@@2@@__crt_stdio_output@@ABE?AW4state@2@DW432@@Z 10033f12 f i libucrt:output.obj
 0001:00032f50       ?find_next_state@?$output_processor@_WV?$stream_output_adapter@_W@__crt_stdio_output@@V?$format_validation_base@_WV?$stream_output_adapter@_W@__crt_stdio_output@@@2@@__crt_stdio_output@@ABE?AW4state@2@_WW432@@Z 10033f50 f i libucrt:output.obj
 0001:00032f94       ?find_next_state@?$output_processor@_WV?$stream_output_adapter@_W@__crt_stdio_output@@V?$positional_parameter_base@_WV?$stream_output_adapter@_W@__crt_stdio_output@@@2@@__crt_stdio_output@@ABE?AW4state@2@_WW432@@Z 10033f94 f i libucrt:output.obj
 0001:00032fd8       ?find_next_state@?$output_processor@_WV?$stream_output_adapter@_W@__crt_stdio_output@@V?$standard_base@_WV?$stream_output_adapter@_W@__crt_stdio_output@@@2@@__crt_stdio_output@@ABE?AW4state@2@_WW432@@Z 10033fd8 f i libucrt:output.obj
 0001:00033019       ?find_next_state@?$output_processor@_WV?$string_output_adapter@_W@__crt_stdio_output@@V?$format_validation_base@_WV?$string_output_adapter@_W@__crt_stdio_output@@@2@@__crt_stdio_output@@ABE?AW4state@2@_WW432@@Z 10034019 f i libucrt:output.obj
 0001:0003305d       ?find_next_state@?$output_processor@_WV?$string_output_adapter@_W@__crt_stdio_output@@V?$positional_parameter_base@_WV?$string_output_adapter@_W@__crt_stdio_output@@@2@@__crt_stdio_output@@ABE?AW4state@2@_WW432@@Z 1003405d f i libucrt:output.obj
 0001:000330a1       ?find_next_state@?$output_processor@_WV?$string_output_adapter@_W@__crt_stdio_output@@V?$standard_base@_WV?$string_output_adapter@_W@__crt_stdio_output@@@2@@__crt_stdio_output@@ABE?AW4state@2@_WW432@@Z 100340a1 f i libucrt:output.obj
 0001:000330e2       ?force_decimal_point@__crt_stdio_output@@YAXPADQAU__crt_locale_pointers@@@Z 100340e2 f i libucrt:output.obj
 0001:00033155       ?get_flags@__crt_stdio_stream@@QBEJXZ 10034155 f i libucrt:output.obj
 0001:0003315b       ?get_parameter_type@?$positional_parameter_base@DV?$stream_output_adapter@D@__crt_stdio_output@@@__crt_stdio_output@@CA?AW4parameter_type@12@F@Z 1003415b f i libucrt:output.obj
 0001:0003315f       ?get_parameter_type@?$positional_parameter_base@DV?$stream_output_adapter@D@__crt_stdio_output@@@__crt_stdio_output@@CA?AW4parameter_type@12@G@Z 1003415f f i libucrt:output.obj
 0001:00033163       ?get_parameter_type@?$positional_parameter_base@DV?$stream_output_adapter@D@__crt_stdio_output@@@__crt_stdio_output@@CA?AW4parameter_type@12@H@Z 10034163 f i libucrt:output.obj
 0001:00033167       ?get_parameter_type@?$positional_parameter_base@DV?$stream_output_adapter@D@__crt_stdio_output@@@__crt_stdio_output@@CA?AW4parameter_type@12@I@Z 10034167 f i libucrt:output.obj
 0001:0003316b       ?get_parameter_type@?$positional_parameter_base@DV?$stream_output_adapter@D@__crt_stdio_output@@@__crt_stdio_output@@CA?AW4parameter_type@12@U_CRT_DOUBLE@@@Z 1003416b f i libucrt:output.obj
 0001:0003316f       ?get_parameter_type@?$positional_parameter_base@DV?$stream_output_adapter@D@__crt_stdio_output@@@__crt_stdio_output@@CA?AW4parameter_type@12@_J@Z 1003416f f i libucrt:output.obj
 0001:00033173       ?get_parameter_type@?$positional_parameter_base@DV?$stream_output_adapter@D@__crt_stdio_output@@@__crt_stdio_output@@CA?AW4parameter_type@12@_K@Z 10034173 f i libucrt:output.obj
 0001:00033177       ?get_parameter_type@?$positional_parameter_base@DV?$stream_output_adapter@D@__crt_stdio_output@@@__crt_stdio_output@@CA?AW4parameter_type@12@_W@Z 10034177 f i libucrt:output.obj
 0001:0003317b       ?get_parameter_type@?$positional_parameter_base@DV?$string_output_adapter@D@__crt_stdio_output@@@__crt_stdio_output@@CA?AW4parameter_type@12@F@Z 1003417b f i libucrt:output.obj
 0001:0003317f       ?get_parameter_type@?$positional_parameter_base@DV?$string_output_adapter@D@__crt_stdio_output@@@__crt_stdio_output@@CA?AW4parameter_type@12@G@Z 1003417f f i libucrt:output.obj
 0001:00033183       ?get_parameter_type@?$positional_parameter_base@DV?$string_output_adapter@D@__crt_stdio_output@@@__crt_stdio_output@@CA?AW4parameter_type@12@H@Z 10034183 f i libucrt:output.obj
 0001:00033187       ?get_parameter_type@?$positional_parameter_base@DV?$string_output_adapter@D@__crt_stdio_output@@@__crt_stdio_output@@CA?AW4parameter_type@12@I@Z 10034187 f i libucrt:output.obj
 0001:0003318b       ?get_parameter_type@?$positional_parameter_base@DV?$string_output_adapter@D@__crt_stdio_output@@@__crt_stdio_output@@CA?AW4parameter_type@12@U_CRT_DOUBLE@@@Z 1003418b f i libucrt:output.obj
 0001:0003318f       ?get_parameter_type@?$positional_parameter_base@DV?$string_output_adapter@D@__crt_stdio_output@@@__crt_stdio_output@@CA?AW4parameter_type@12@_J@Z 1003418f f i libucrt:output.obj
 0001:00033193       ?get_parameter_type@?$positional_parameter_base@DV?$string_output_adapter@D@__crt_stdio_output@@@__crt_stdio_output@@CA?AW4parameter_type@12@_K@Z 10034193 f i libucrt:output.obj
 0001:00033197       ?get_parameter_type@?$positional_parameter_base@DV?$string_output_adapter@D@__crt_stdio_output@@@__crt_stdio_output@@CA?AW4parameter_type@12@_W@Z 10034197 f i libucrt:output.obj
 0001:0003319b       ?get_parameter_type@?$positional_parameter_base@_WV?$stream_output_adapter@_W@__crt_stdio_output@@@__crt_stdio_output@@CA?AW4parameter_type@12@F@Z 1003419b f i libucrt:output.obj
 0001:0003319f       ?get_parameter_type@?$positional_parameter_base@_WV?$stream_output_adapter@_W@__crt_stdio_output@@@__crt_stdio_output@@CA?AW4parameter_type@12@G@Z 1003419f f i libucrt:output.obj
 0001:000331a3       ?get_parameter_type@?$positional_parameter_base@_WV?$stream_output_adapter@_W@__crt_stdio_output@@@__crt_stdio_output@@CA?AW4parameter_type@12@H@Z 100341a3 f i libucrt:output.obj
 0001:000331a7       ?get_parameter_type@?$positional_parameter_base@_WV?$stream_output_adapter@_W@__crt_stdio_output@@@__crt_stdio_output@@CA?AW4parameter_type@12@I@Z 100341a7 f i libucrt:output.obj
 0001:000331ab       ?get_parameter_type@?$positional_parameter_base@_WV?$stream_output_adapter@_W@__crt_stdio_output@@@__crt_stdio_output@@CA?AW4parameter_type@12@U_CRT_DOUBLE@@@Z 100341ab f i libucrt:output.obj
 0001:000331af       ?get_parameter_type@?$positional_parameter_base@_WV?$stream_output_adapter@_W@__crt_stdio_output@@@__crt_stdio_output@@CA?AW4parameter_type@12@_J@Z 100341af f i libucrt:output.obj
 0001:000331b3       ?get_parameter_type@?$positional_parameter_base@_WV?$stream_output_adapter@_W@__crt_stdio_output@@@__crt_stdio_output@@CA?AW4parameter_type@12@_K@Z 100341b3 f i libucrt:output.obj
 0001:000331b7       ?get_parameter_type@?$positional_parameter_base@_WV?$stream_output_adapter@_W@__crt_stdio_output@@@__crt_stdio_output@@CA?AW4parameter_type@12@_W@Z 100341b7 f i libucrt:output.obj
 0001:000331bb       ?get_parameter_type@?$positional_parameter_base@_WV?$string_output_adapter@_W@__crt_stdio_output@@@__crt_stdio_output@@CA?AW4parameter_type@12@F@Z 100341bb f i libucrt:output.obj
 0001:000331bf       ?get_parameter_type@?$positional_parameter_base@_WV?$string_output_adapter@_W@__crt_stdio_output@@@__crt_stdio_output@@CA?AW4parameter_type@12@G@Z 100341bf f i libucrt:output.obj
 0001:000331c3       ?get_parameter_type@?$positional_parameter_base@_WV?$string_output_adapter@_W@__crt_stdio_output@@@__crt_stdio_output@@CA?AW4parameter_type@12@H@Z 100341c3 f i libucrt:output.obj
 0001:000331c7       ?get_parameter_type@?$positional_parameter_base@_WV?$string_output_adapter@_W@__crt_stdio_output@@@__crt_stdio_output@@CA?AW4parameter_type@12@I@Z 100341c7 f i libucrt:output.obj
 0001:000331cb       ?get_parameter_type@?$positional_parameter_base@_WV?$string_output_adapter@_W@__crt_stdio_output@@@__crt_stdio_output@@CA?AW4parameter_type@12@U_CRT_DOUBLE@@@Z 100341cb f i libucrt:output.obj
 0001:000331cf       ?get_parameter_type@?$positional_parameter_base@_WV?$string_output_adapter@_W@__crt_stdio_output@@@__crt_stdio_output@@CA?AW4parameter_type@12@_J@Z 100341cf f i libucrt:output.obj
 0001:000331d3       ?get_parameter_type@?$positional_parameter_base@_WV?$string_output_adapter@_W@__crt_stdio_output@@@__crt_stdio_output@@CA?AW4parameter_type@12@_K@Z 100341d3 f i libucrt:output.obj
 0001:000331d7       ?get_parameter_type@?$positional_parameter_base@_WV?$string_output_adapter@_W@__crt_stdio_output@@@__crt_stdio_output@@CA?AW4parameter_type@12@_W@Z 100341d7 f i libucrt:output.obj
 0001:000331db       ?has_flag@?$output_processor@DV?$stream_output_adapter@D@__crt_stdio_output@@V?$format_validation_base@DV?$stream_output_adapter@D@__crt_stdio_output@@@2@@__crt_stdio_output@@ABE_NI@Z 100341db f i libucrt:output.obj
 0001:000331f5       ?has_flag@?$output_processor@DV?$stream_output_adapter@D@__crt_stdio_output@@V?$positional_parameter_base@DV?$stream_output_adapter@D@__crt_stdio_output@@@2@@__crt_stdio_output@@ABE_NI@Z 100341f5 f i libucrt:output.obj
 0001:0003320f       ?has_flag@?$output_processor@DV?$stream_output_adapter@D@__crt_stdio_output@@V?$standard_base@DV?$stream_output_adapter@D@__crt_stdio_output@@@2@@__crt_stdio_output@@ABE_NI@Z 1003420f f i libucrt:output.obj
 0001:00033229       ?has_flag@?$output_processor@DV?$string_output_adapter@D@__crt_stdio_output@@V?$format_validation_base@DV?$string_output_adapter@D@__crt_stdio_output@@@2@@__crt_stdio_output@@ABE_NI@Z 10034229 f i libucrt:output.obj
 0001:00033243       ?has_flag@?$output_processor@DV?$string_output_adapter@D@__crt_stdio_output@@V?$positional_parameter_base@DV?$string_output_adapter@D@__crt_stdio_output@@@2@@__crt_stdio_output@@ABE_NI@Z 10034243 f i libucrt:output.obj
 0001:0003325d       ?has_flag@?$output_processor@DV?$string_output_adapter@D@__crt_stdio_output@@V?$standard_base@DV?$string_output_adapter@D@__crt_stdio_output@@@2@@__crt_stdio_output@@ABE_NI@Z 1003425d f i libucrt:output.obj
 0001:00033277       ?has_flag@?$output_processor@_WV?$stream_output_adapter@_W@__crt_stdio_output@@V?$format_validation_base@_WV?$stream_output_adapter@_W@__crt_stdio_output@@@2@@__crt_stdio_output@@ABE_NI@Z 10034277 f i libucrt:output.obj
 0001:00033291       ?has_flag@?$output_processor@_WV?$stream_output_adapter@_W@__crt_stdio_output@@V?$positional_parameter_base@_WV?$stream_output_adapter@_W@__crt_stdio_output@@@2@@__crt_stdio_output@@ABE_NI@Z 10034291 f i libucrt:output.obj
 0001:000332ab       ?has_flag@?$output_processor@_WV?$stream_output_adapter@_W@__crt_stdio_output@@V?$standard_base@_WV?$stream_output_adapter@_W@__crt_stdio_output@@@2@@__crt_stdio_output@@ABE_NI@Z 100342ab f i libucrt:output.obj
 0001:000332c5       ?has_flag@?$output_processor@_WV?$string_output_adapter@_W@__crt_stdio_output@@V?$format_validation_base@_WV?$string_output_adapter@_W@__crt_stdio_output@@@2@@__crt_stdio_output@@ABE_NI@Z 100342c5 f i libucrt:output.obj
 0001:000332df       ?has_flag@?$output_processor@_WV?$string_output_adapter@_W@__crt_stdio_output@@V?$positional_parameter_base@_WV?$string_output_adapter@_W@__crt_stdio_output@@@2@@__crt_stdio_output@@ABE_NI@Z 100342df f i libucrt:output.obj
 0001:000332f9       ?has_flag@?$output_processor@_WV?$string_output_adapter@_W@__crt_stdio_output@@V?$standard_base@_WV?$string_output_adapter@_W@__crt_stdio_output@@@2@@__crt_stdio_output@@ABE_NI@Z 100342f9 f i libucrt:output.obj
 0001:00033313       ?is_positional_parameter_reappearance_consistent@?$positional_parameter_base@DV?$stream_output_adapter@D@__crt_stdio_output@@@__crt_stdio_output@@AAE_NABUparameter_data@12@W4parameter_type@12@DW4length_modifier@2@@Z 10034313 f i libucrt:output.obj
 0001:0003348c       ?is_positional_parameter_reappearance_consistent@?$positional_parameter_base@DV?$string_output_adapter@D@__crt_stdio_output@@@__crt_stdio_output@@AAE_NABUparameter_data@12@W4parameter_type@12@DW4length_modifier@2@@Z 1003448c f i libucrt:output.obj
 0001:00033605       ?is_positional_parameter_reappearance_consistent@?$positional_parameter_base@_WV?$stream_output_adapter@_W@__crt_stdio_output@@@__crt_stdio_output@@AAE_NABUparameter_data@12@W4parameter_type@12@_WW4length_modifier@2@@Z 10034605 f i libucrt:output.obj
 0001:00033770       ?is_positional_parameter_reappearance_consistent@?$positional_parameter_base@_WV?$string_output_adapter@_W@__crt_stdio_output@@@__crt_stdio_output@@AAE_NABUparameter_data@12@W4parameter_type@12@_WW4length_modifier@2@@Z 10034770 f i libucrt:output.obj
 0001:000338db       ?is_string_backed@__crt_stdio_stream@@QBE_NXZ 100348db f i libucrt:output.obj
 0001:000338ea       ?narrow_null_string@?$output_processor@DV?$stream_output_adapter@D@__crt_stdio_output@@V?$format_validation_base@DV?$stream_output_adapter@D@__crt_stdio_output@@@2@@__crt_stdio_output@@CAPADXZ 100348ea f i libucrt:output.obj
 0001:000338f0       ?narrow_null_string@?$output_processor@DV?$stream_output_adapter@D@__crt_stdio_output@@V?$positional_parameter_base@DV?$stream_output_adapter@D@__crt_stdio_output@@@2@@__crt_stdio_output@@CAPADXZ 100348f0 f i libucrt:output.obj
 0001:000338f6       ?narrow_null_string@?$output_processor@DV?$stream_output_adapter@D@__crt_stdio_output@@V?$standard_base@DV?$stream_output_adapter@D@__crt_stdio_output@@@2@@__crt_stdio_output@@CAPADXZ 100348f6 f i libucrt:output.obj
 0001:000338fc       ?narrow_null_string@?$output_processor@DV?$string_output_adapter@D@__crt_stdio_output@@V?$format_validation_base@DV?$string_output_adapter@D@__crt_stdio_output@@@2@@__crt_stdio_output@@CAPADXZ 100348fc f i libucrt:output.obj
 0001:00033902       ?narrow_null_string@?$output_processor@DV?$string_output_adapter@D@__crt_stdio_output@@V?$positional_parameter_base@DV?$string_output_adapter@D@__crt_stdio_output@@@2@@__crt_stdio_output@@CAPADXZ 10034902 f i libucrt:output.obj
 0001:00033908       ?narrow_null_string@?$output_processor@DV?$string_output_adapter@D@__crt_stdio_output@@V?$standard_base@DV?$string_output_adapter@D@__crt_stdio_output@@@2@@__crt_stdio_output@@CAPADXZ 10034908 f i libucrt:output.obj
 0001:0003390e       ?narrow_null_string@?$output_processor@_WV?$stream_output_adapter@_W@__crt_stdio_output@@V?$format_validation_base@_WV?$stream_output_adapter@_W@__crt_stdio_output@@@2@@__crt_stdio_output@@CAPADXZ 1003490e f i libucrt:output.obj
 0001:00033914       ?narrow_null_string@?$output_processor@_WV?$stream_output_adapter@_W@__crt_stdio_output@@V?$positional_parameter_base@_WV?$stream_output_adapter@_W@__crt_stdio_output@@@2@@__crt_stdio_output@@CAPADXZ 10034914 f i libucrt:output.obj
 0001:0003391a       ?narrow_null_string@?$output_processor@_WV?$stream_output_adapter@_W@__crt_stdio_output@@V?$standard_base@_WV?$stream_output_adapter@_W@__crt_stdio_output@@@2@@__crt_stdio_output@@CAPADXZ 1003491a f i libucrt:output.obj
 0001:00033920       ?narrow_null_string@?$output_processor@_WV?$string_output_adapter@_W@__crt_stdio_output@@V?$format_validation_base@_WV?$string_output_adapter@_W@__crt_stdio_output@@@2@@__crt_stdio_output@@CAPADXZ 10034920 f i libucrt:output.obj
 0001:00033926       ?narrow_null_string@?$output_processor@_WV?$string_output_adapter@_W@__crt_stdio_output@@V?$positional_parameter_base@_WV?$string_output_adapter@_W@__crt_stdio_output@@@2@@__crt_stdio_output@@CAPADXZ 10034926 f i libucrt:output.obj
 0001:0003392c       ?narrow_null_string@?$output_processor@_WV?$string_output_adapter@_W@__crt_stdio_output@@V?$standard_base@_WV?$string_output_adapter@_W@__crt_stdio_output@@@2@@__crt_stdio_output@@CAPADXZ 1003492c f i libucrt:output.obj
 0001:00033932       ?parse_int_from_format_string@?$output_processor@DV?$stream_output_adapter@D@__crt_stdio_output@@V?$format_validation_base@DV?$stream_output_adapter@D@__crt_stdio_output@@@2@@__crt_stdio_output@@AAE_NQAH@Z 10034932 f i libucrt:output.obj
 0001:000339a5       ?parse_int_from_format_string@?$output_processor@DV?$stream_output_adapter@D@__crt_stdio_output@@V?$positional_parameter_base@DV?$stream_output_adapter@D@__crt_stdio_output@@@2@@__crt_stdio_output@@AAE_NQAH@Z 100349a5 f i libucrt:output.obj
 0001:00033a18       ?parse_int_from_format_string@?$output_processor@DV?$stream_output_adapter@D@__crt_stdio_output@@V?$standard_base@DV?$stream_output_adapter@D@__crt_stdio_output@@@2@@__crt_stdio_output@@AAE_NQAH@Z 10034a18 f i libucrt:output.obj
 0001:00033a8b       ?parse_int_from_format_string@?$output_processor@DV?$string_output_adapter@D@__crt_stdio_output@@V?$format_validation_base@DV?$string_output_adapter@D@__crt_stdio_output@@@2@@__crt_stdio_output@@AAE_NQAH@Z 10034a8b f i libucrt:output.obj
 0001:00033afe       ?parse_int_from_format_string@?$output_processor@DV?$string_output_adapter@D@__crt_stdio_output@@V?$positional_parameter_base@DV?$string_output_adapter@D@__crt_stdio_output@@@2@@__crt_stdio_output@@AAE_NQAH@Z 10034afe f i libucrt:output.obj
 0001:00033b71       ?parse_int_from_format_string@?$output_processor@DV?$string_output_adapter@D@__crt_stdio_output@@V?$standard_base@DV?$string_output_adapter@D@__crt_stdio_output@@@2@@__crt_stdio_output@@AAE_NQAH@Z 10034b71 f i libucrt:output.obj
 0001:00033be4       ?parse_int_from_format_string@?$output_processor@_WV?$stream_output_adapter@_W@__crt_stdio_output@@V?$format_validation_base@_WV?$stream_output_adapter@_W@__crt_stdio_output@@@2@@__crt_stdio_output@@AAE_NQAH@Z 10034be4 f i libucrt:output.obj
 0001:00033c59       ?parse_int_from_format_string@?$output_processor@_WV?$stream_output_adapter@_W@__crt_stdio_output@@V?$positional_parameter_base@_WV?$stream_output_adapter@_W@__crt_stdio_output@@@2@@__crt_stdio_output@@AAE_NQAH@Z 10034c59 f i libucrt:output.obj
 0001:00033cce       ?parse_int_from_format_string@?$output_processor@_WV?$stream_output_adapter@_W@__crt_stdio_output@@V?$standard_base@_WV?$stream_output_adapter@_W@__crt_stdio_output@@@2@@__crt_stdio_output@@AAE_NQAH@Z 10034cce f i libucrt:output.obj
 0001:00033d43       ?parse_int_from_format_string@?$output_processor@_WV?$string_output_adapter@_W@__crt_stdio_output@@V?$format_validation_base@_WV?$string_output_adapter@_W@__crt_stdio_output@@@2@@__crt_stdio_output@@AAE_NQAH@Z 10034d43 f i libucrt:output.obj
 0001:00033db8       ?parse_int_from_format_string@?$output_processor@_WV?$string_output_adapter@_W@__crt_stdio_output@@V?$positional_parameter_base@_WV?$string_output_adapter@_W@__crt_stdio_output@@@2@@__crt_stdio_output@@AAE_NQAH@Z 10034db8 f i libucrt:output.obj
 0001:00033e2d       ?parse_int_from_format_string@?$output_processor@_WV?$string_output_adapter@_W@__crt_stdio_output@@V?$standard_base@_WV?$string_output_adapter@_W@__crt_stdio_output@@@2@@__crt_stdio_output@@AAE_NQAH@Z 10034e2d f i libucrt:output.obj
 0001:00033ea2       ?process@?$output_processor@DV?$stream_output_adapter@D@__crt_stdio_output@@V?$format_validation_base@DV?$stream_output_adapter@D@__crt_stdio_output@@@2@@__crt_stdio_output@@QAEHXZ 10034ea2 f i libucrt:output.obj
 0001:00034014       ?process@?$output_processor@DV?$stream_output_adapter@D@__crt_stdio_output@@V?$positional_parameter_base@DV?$stream_output_adapter@D@__crt_stdio_output@@@2@@__crt_stdio_output@@QAEHXZ 10035014 f i libucrt:output.obj
 0001:000341c7       ?process@?$output_processor@DV?$stream_output_adapter@D@__crt_stdio_output@@V?$standard_base@DV?$stream_output_adapter@D@__crt_stdio_output@@@2@@__crt_stdio_output@@QAEHXZ 100351c7 f i libucrt:output.obj
 0001:0003432a       ?process@?$output_processor@DV?$string_output_adapter@D@__crt_stdio_output@@V?$format_validation_base@DV?$string_output_adapter@D@__crt_stdio_output@@@2@@__crt_stdio_output@@QAEHXZ 1003532a f i libucrt:output.obj
 0001:0003449c       ?process@?$output_processor@DV?$string_output_adapter@D@__crt_stdio_output@@V?$positional_parameter_base@DV?$string_output_adapter@D@__crt_stdio_output@@@2@@__crt_stdio_output@@QAEHXZ 1003549c f i libucrt:output.obj
 0001:0003464f       ?process@?$output_processor@DV?$string_output_adapter@D@__crt_stdio_output@@V?$standard_base@DV?$string_output_adapter@D@__crt_stdio_output@@@2@@__crt_stdio_output@@QAEHXZ 1003564f f i libucrt:output.obj
 0001:000347b2       ?process@?$output_processor@_WV?$stream_output_adapter@_W@__crt_stdio_output@@V?$format_validation_base@_WV?$stream_output_adapter@_W@__crt_stdio_output@@@2@@__crt_stdio_output@@QAEHXZ 100357b2 f i libucrt:output.obj
 0001:0003492e       ?process@?$output_processor@_WV?$stream_output_adapter@_W@__crt_stdio_output@@V?$positional_parameter_base@_WV?$stream_output_adapter@_W@__crt_stdio_output@@@2@@__crt_stdio_output@@QAEHXZ 1003592e f i libucrt:output.obj
 0001:00034ae6       ?process@?$output_processor@_WV?$stream_output_adapter@_W@__crt_stdio_output@@V?$standard_base@_WV?$stream_output_adapter@_W@__crt_stdio_output@@@2@@__crt_stdio_output@@QAEHXZ 10035ae6 f i libucrt:output.obj
 0001:00034c4e       ?process@?$output_processor@_WV?$string_output_adapter@_W@__crt_stdio_output@@V?$format_validation_base@_WV?$string_output_adapter@_W@__crt_stdio_output@@@2@@__crt_stdio_output@@QAEHXZ 10035c4e f i libucrt:output.obj
 0001:00034dca       ?process@?$output_processor@_WV?$string_output_adapter@_W@__crt_stdio_output@@V?$positional_parameter_base@_WV?$string_output_adapter@_W@__crt_stdio_output@@@2@@__crt_stdio_output@@QAEHXZ 10035dca f i libucrt:output.obj
 0001:00034f82       ?process@?$output_processor@_WV?$string_output_adapter@_W@__crt_stdio_output@@V?$standard_base@_WV?$string_output_adapter@_W@__crt_stdio_output@@@2@@__crt_stdio_output@@QAEHXZ 10035f82 f i libucrt:output.obj
 0001:000350ea       ?public_stream@__crt_stdio_stream@@QBEPAU_iobuf@@XZ 100360ea f i libucrt:output.obj
 0001:000350ed       ?set_flag@?$output_processor@DV?$stream_output_adapter@D@__crt_stdio_output@@V?$format_validation_base@DV?$stream_output_adapter@D@__crt_stdio_output@@@2@@__crt_stdio_output@@AAEXI@Z 100360ed f i libucrt:output.obj
 0001:000350ff       ?set_flag@?$output_processor@DV?$stream_output_adapter@D@__crt_stdio_output@@V?$positional_parameter_base@DV?$stream_output_adapter@D@__crt_stdio_output@@@2@@__crt_stdio_output@@AAEXI@Z 100360ff f i libucrt:output.obj
 0001:00035111       ?set_flag@?$output_processor@DV?$stream_output_adapter@D@__crt_stdio_output@@V?$standard_base@DV?$stream_output_adapter@D@__crt_stdio_output@@@2@@__crt_stdio_output@@AAEXI@Z 10036111 f i libucrt:output.obj
 0001:00035123       ?set_flag@?$output_processor@DV?$string_output_adapter@D@__crt_stdio_output@@V?$format_validation_base@DV?$string_output_adapter@D@__crt_stdio_output@@@2@@__crt_stdio_output@@AAEXI@Z 10036123 f i libucrt:output.obj
 0001:00035135       ?set_flag@?$output_processor@DV?$string_output_adapter@D@__crt_stdio_output@@V?$positional_parameter_base@DV?$string_output_adapter@D@__crt_stdio_output@@@2@@__crt_stdio_output@@AAEXI@Z 10036135 f i libucrt:output.obj
 0001:00035147       ?set_flag@?$output_processor@DV?$string_output_adapter@D@__crt_stdio_output@@V?$standard_base@DV?$string_output_adapter@D@__crt_stdio_output@@@2@@__crt_stdio_output@@AAEXI@Z 10036147 f i libucrt:output.obj
 0001:00035159       ?set_flag@?$output_processor@_WV?$stream_output_adapter@_W@__crt_stdio_output@@V?$format_validation_base@_WV?$stream_output_adapter@_W@__crt_stdio_output@@@2@@__crt_stdio_output@@AAEXI@Z 10036159 f i libucrt:output.obj
 0001:0003516b       ?set_flag@?$output_processor@_WV?$stream_output_adapter@_W@__crt_stdio_output@@V?$positional_parameter_base@_WV?$stream_output_adapter@_W@__crt_stdio_output@@@2@@__crt_stdio_output@@AAEXI@Z 1003616b f i libucrt:output.obj
 0001:0003517d       ?set_flag@?$output_processor@_WV?$stream_output_adapter@_W@__crt_stdio_output@@V?$standard_base@_WV?$stream_output_adapter@_W@__crt_stdio_output@@@2@@__crt_stdio_output@@AAEXI@Z 1003617d f i libucrt:output.obj
 0001:0003518f       ?set_flag@?$output_processor@_WV?$string_output_adapter@_W@__crt_stdio_output@@V?$format_validation_base@_WV?$string_output_adapter@_W@__crt_stdio_output@@@2@@__crt_stdio_output@@AAEXI@Z 1003618f f i libucrt:output.obj
 0001:000351a1       ?set_flag@?$output_processor@_WV?$string_output_adapter@_W@__crt_stdio_output@@V?$positional_parameter_base@_WV?$string_output_adapter@_W@__crt_stdio_output@@@2@@__crt_stdio_output@@AAEXI@Z 100361a1 f i libucrt:output.obj
 0001:000351b3       ?set_flag@?$output_processor@_WV?$string_output_adapter@_W@__crt_stdio_output@@V?$standard_base@_WV?$string_output_adapter@_W@__crt_stdio_output@@@2@@__crt_stdio_output@@AAEXI@Z 100361b3 f i libucrt:output.obj
 0001:000351c5       ?should_format@?$positional_parameter_base@DV?$stream_output_adapter@D@__crt_stdio_output@@@__crt_stdio_output@@IAE_NXZ 100361c5 f i libucrt:output.obj
 0001:000351e0       ?should_format@?$positional_parameter_base@DV?$string_output_adapter@D@__crt_stdio_output@@@__crt_stdio_output@@IAE_NXZ 100361e0 f i libucrt:output.obj
 0001:000351fb       ?should_format@?$positional_parameter_base@_WV?$stream_output_adapter@_W@__crt_stdio_output@@@__crt_stdio_output@@IAE_NXZ 100361fb f i libucrt:output.obj
 0001:00035216       ?should_format@?$positional_parameter_base@_WV?$string_output_adapter@_W@__crt_stdio_output@@@__crt_stdio_output@@IAE_NXZ 10036216 f i libucrt:output.obj
 0001:00035231       ?should_format@?$standard_base@DV?$stream_output_adapter@D@__crt_stdio_output@@@__crt_stdio_output@@IAE_NXZ 10036231 f i libucrt:output.obj
 0001:00035234       ?should_format@?$standard_base@DV?$string_output_adapter@D@__crt_stdio_output@@@__crt_stdio_output@@IAE_NXZ 10036234 f i libucrt:output.obj
 0001:00035237       ?should_format@?$standard_base@_WV?$stream_output_adapter@_W@__crt_stdio_output@@@__crt_stdio_output@@IAE_NXZ 10036237 f i libucrt:output.obj
 0001:0003523a       ?should_format@?$standard_base@_WV?$string_output_adapter@_W@__crt_stdio_output@@@__crt_stdio_output@@IAE_NXZ 1003623a f i libucrt:output.obj
 0001:0003523d       ?should_skip_normal_state_processing@?$positional_parameter_base@DV?$stream_output_adapter@D@__crt_stdio_output@@@__crt_stdio_output@@IAE_NXZ 1003623d f i libucrt:output.obj
 0001:0003526f       ?should_skip_normal_state_processing@?$positional_parameter_base@DV?$string_output_adapter@D@__crt_stdio_output@@@__crt_stdio_output@@IAE_NXZ 1003626f f i libucrt:output.obj
 0001:000352a1       ?should_skip_normal_state_processing@?$positional_parameter_base@_WV?$stream_output_adapter@_W@__crt_stdio_output@@@__crt_stdio_output@@IAE_NXZ 100362a1 f i libucrt:output.obj
 0001:000352d3       ?should_skip_normal_state_processing@?$positional_parameter_base@_WV?$string_output_adapter@_W@__crt_stdio_output@@@__crt_stdio_output@@IAE_NXZ 100362d3 f i libucrt:output.obj
 0001:00035305       ?should_skip_normal_state_processing@?$standard_base@DV?$stream_output_adapter@D@__crt_stdio_output@@@__crt_stdio_output@@IAE_NXZ 10036305 f i libucrt:output.obj
 0001:00035308       ?should_skip_normal_state_processing@?$standard_base@DV?$string_output_adapter@D@__crt_stdio_output@@@__crt_stdio_output@@IAE_NXZ 10036308 f i libucrt:output.obj
 0001:0003530b       ?should_skip_normal_state_processing@?$standard_base@_WV?$stream_output_adapter@_W@__crt_stdio_output@@@__crt_stdio_output@@IAE_NXZ 1003630b f i libucrt:output.obj
 0001:0003530e       ?should_skip_normal_state_processing@?$standard_base@_WV?$string_output_adapter@_W@__crt_stdio_output@@@__crt_stdio_output@@IAE_NXZ 1003630e f i libucrt:output.obj
 0001:00035311       ?should_skip_type_state_output@?$positional_parameter_base@DV?$stream_output_adapter@D@__crt_stdio_output@@@__crt_stdio_output@@IBE_NXZ 10036311 f i libucrt:output.obj
 0001:0003532d       ?should_skip_type_state_output@?$positional_parameter_base@DV?$string_output_adapter@D@__crt_stdio_output@@@__crt_stdio_output@@IBE_NXZ 1003632d f i libucrt:output.obj
 0001:00035349       ?should_skip_type_state_output@?$positional_parameter_base@_WV?$stream_output_adapter@_W@__crt_stdio_output@@@__crt_stdio_output@@IBE_NXZ 10036349 f i libucrt:output.obj
 0001:00035365       ?should_skip_type_state_output@?$positional_parameter_base@_WV?$string_output_adapter@_W@__crt_stdio_output@@@__crt_stdio_output@@IBE_NXZ 10036365 f i libucrt:output.obj
 0001:00035381       ?should_skip_type_state_output@?$standard_base@DV?$stream_output_adapter@D@__crt_stdio_output@@@__crt_stdio_output@@IBE_NXZ 10036381 f i libucrt:output.obj
 0001:00035384       ?should_skip_type_state_output@?$standard_base@DV?$string_output_adapter@D@__crt_stdio_output@@@__crt_stdio_output@@IBE_NXZ 10036384 f i libucrt:output.obj
 0001:00035387       ?should_skip_type_state_output@?$standard_base@_WV?$stream_output_adapter@_W@__crt_stdio_output@@@__crt_stdio_output@@IBE_NXZ 10036387 f i libucrt:output.obj
 0001:0003538a       ?should_skip_type_state_output@?$standard_base@_WV?$string_output_adapter@_W@__crt_stdio_output@@@__crt_stdio_output@@IBE_NXZ 1003638a f i libucrt:output.obj
 0001:0003538d       ?state_case_dot@?$output_processor@DV?$stream_output_adapter@D@__crt_stdio_output@@V?$format_validation_base@DV?$stream_output_adapter@D@__crt_stdio_output@@@2@@__crt_stdio_output@@AAE_NXZ 1003638d f i libucrt:output.obj
 0001:00035394       ?state_case_dot@?$output_processor@DV?$stream_output_adapter@D@__crt_stdio_output@@V?$positional_parameter_base@DV?$stream_output_adapter@D@__crt_stdio_output@@@2@@__crt_stdio_output@@AAE_NXZ 10036394 f i libucrt:output.obj
 0001:0003539b       ?state_case_dot@?$output_processor@DV?$stream_output_adapter@D@__crt_stdio_output@@V?$standard_base@DV?$stream_output_adapter@D@__crt_stdio_output@@@2@@__crt_stdio_output@@AAE_NXZ 1003639b f i libucrt:output.obj
 0001:000353a2       ?state_case_dot@?$output_processor@DV?$string_output_adapter@D@__crt_stdio_output@@V?$format_validation_base@DV?$string_output_adapter@D@__crt_stdio_output@@@2@@__crt_stdio_output@@AAE_NXZ 100363a2 f i libucrt:output.obj
 0001:000353a9       ?state_case_dot@?$output_processor@DV?$string_output_adapter@D@__crt_stdio_output@@V?$positional_parameter_base@DV?$string_output_adapter@D@__crt_stdio_output@@@2@@__crt_stdio_output@@AAE_NXZ 100363a9 f i libucrt:output.obj
 0001:000353b0       ?state_case_dot@?$output_processor@DV?$string_output_adapter@D@__crt_stdio_output@@V?$standard_base@DV?$string_output_adapter@D@__crt_stdio_output@@@2@@__crt_stdio_output@@AAE_NXZ 100363b0 f i libucrt:output.obj
 0001:000353b7       ?state_case_dot@?$output_processor@_WV?$stream_output_adapter@_W@__crt_stdio_output@@V?$format_validation_base@_WV?$stream_output_adapter@_W@__crt_stdio_output@@@2@@__crt_stdio_output@@AAE_NXZ 100363b7 f i libucrt:output.obj
 0001:000353be       ?state_case_dot@?$output_processor@_WV?$stream_output_adapter@_W@__crt_stdio_output@@V?$positional_parameter_base@_WV?$stream_output_adapter@_W@__crt_stdio_output@@@2@@__crt_stdio_output@@AAE_NXZ 100363be f i libucrt:output.obj
 0001:000353c5       ?state_case_dot@?$output_processor@_WV?$stream_output_adapter@_W@__crt_stdio_output@@V?$standard_base@_WV?$stream_output_adapter@_W@__crt_stdio_output@@@2@@__crt_stdio_output@@AAE_NXZ 100363c5 f i libucrt:output.obj
 0001:000353cc       ?state_case_dot@?$output_processor@_WV?$string_output_adapter@_W@__crt_stdio_output@@V?$format_validation_base@_WV?$string_output_adapter@_W@__crt_stdio_output@@@2@@__crt_stdio_output@@AAE_NXZ 100363cc f i libucrt:output.obj
 0001:000353d3       ?state_case_dot@?$output_processor@_WV?$string_output_adapter@_W@__crt_stdio_output@@V?$positional_parameter_base@_WV?$string_output_adapter@_W@__crt_stdio_output@@@2@@__crt_stdio_output@@AAE_NXZ 100363d3 f i libucrt:output.obj
 0001:000353da       ?state_case_dot@?$output_processor@_WV?$string_output_adapter@_W@__crt_stdio_output@@V?$standard_base@_WV?$string_output_adapter@_W@__crt_stdio_output@@@2@@__crt_stdio_output@@AAE_NXZ 100363da f i libucrt:output.obj
 0001:000353e1       ?state_case_flag@?$output_processor@DV?$stream_output_adapter@D@__crt_stdio_output@@V?$format_validation_base@DV?$stream_output_adapter@D@__crt_stdio_output@@@2@@__crt_stdio_output@@AAE_NXZ 100363e1 f i libucrt:output.obj
 0001:0003542d       ?state_case_flag@?$output_processor@DV?$stream_output_adapter@D@__crt_stdio_output@@V?$positional_parameter_base@DV?$stream_output_adapter@D@__crt_stdio_output@@@2@@__crt_stdio_output@@AAE_NXZ 1003642d f i libucrt:output.obj
 0001:00035479       ?state_case_flag@?$output_processor@DV?$stream_output_adapter@D@__crt_stdio_output@@V?$standard_base@DV?$stream_output_adapter@D@__crt_stdio_output@@@2@@__crt_stdio_output@@AAE_NXZ 10036479 f i libucrt:output.obj
 0001:000354c5       ?state_case_flag@?$output_processor@DV?$string_output_adapter@D@__crt_stdio_output@@V?$format_validation_base@DV?$string_output_adapter@D@__crt_stdio_output@@@2@@__crt_stdio_output@@AAE_NXZ 100364c5 f i libucrt:output.obj
 0001:00035511       ?state_case_flag@?$output_processor@DV?$string_output_adapter@D@__crt_stdio_output@@V?$positional_parameter_base@DV?$string_output_adapter@D@__crt_stdio_output@@@2@@__crt_stdio_output@@AAE_NXZ 10036511 f i libucrt:output.obj
 0001:0003555d       ?state_case_flag@?$output_processor@DV?$string_output_adapter@D@__crt_stdio_output@@V?$standard_base@DV?$string_output_adapter@D@__crt_stdio_output@@@2@@__crt_stdio_output@@AAE_NXZ 1003655d f i libucrt:output.obj
 0001:000355a9       ?state_case_flag@?$output_processor@_WV?$stream_output_adapter@_W@__crt_stdio_output@@V?$format_validation_base@_WV?$stream_output_adapter@_W@__crt_stdio_output@@@2@@__crt_stdio_output@@AAE_NXZ 100365a9 f i libucrt:output.obj
 0001:000355f5       ?state_case_flag@?$output_processor@_WV?$stream_output_adapter@_W@__crt_stdio_output@@V?$positional_parameter_base@_WV?$stream_output_adapter@_W@__crt_stdio_output@@@2@@__crt_stdio_output@@AAE_NXZ 100365f5 f i libucrt:output.obj
 0001:00035641       ?state_case_flag@?$output_processor@_WV?$stream_output_adapter@_W@__crt_stdio_output@@V?$standard_base@_WV?$stream_output_adapter@_W@__crt_stdio_output@@@2@@__crt_stdio_output@@AAE_NXZ 10036641 f i libucrt:output.obj
 0001:0003568d       ?state_case_flag@?$output_processor@_WV?$string_output_adapter@_W@__crt_stdio_output@@V?$format_validation_base@_WV?$string_output_adapter@_W@__crt_stdio_output@@@2@@__crt_stdio_output@@AAE_NXZ 1003668d f i libucrt:output.obj
 0001:000356d9       ?state_case_flag@?$output_processor@_WV?$string_output_adapter@_W@__crt_stdio_output@@V?$positional_parameter_base@_WV?$string_output_adapter@_W@__crt_stdio_output@@@2@@__crt_stdio_output@@AAE_NXZ 100366d9 f i libucrt:output.obj
 0001:00035725       ?state_case_flag@?$output_processor@_WV?$string_output_adapter@_W@__crt_stdio_output@@V?$standard_base@_WV?$string_output_adapter@_W@__crt_stdio_output@@@2@@__crt_stdio_output@@AAE_NXZ 10036725 f i libucrt:output.obj
 0001:00035771       ?state_case_normal@?$output_processor@DV?$stream_output_adapter@D@__crt_stdio_output@@V?$format_validation_base@DV?$stream_output_adapter@D@__crt_stdio_output@@@2@@__crt_stdio_output@@AAE_NXZ 10036771 f i libucrt:output.obj
 0001:00035797       ?state_case_normal@?$output_processor@DV?$stream_output_adapter@D@__crt_stdio_output@@V?$positional_parameter_base@DV?$stream_output_adapter@D@__crt_stdio_output@@@2@@__crt_stdio_output@@AAE_NXZ 10036797 f i libucrt:output.obj
 0001:000357d4       ?state_case_normal@?$output_processor@DV?$stream_output_adapter@D@__crt_stdio_output@@V?$standard_base@DV?$stream_output_adapter@D@__crt_stdio_output@@@2@@__crt_stdio_output@@AAE_NXZ 100367d4 f i libucrt:output.obj
 0001:000357fa       ?state_case_normal@?$output_processor@DV?$string_output_adapter@D@__crt_stdio_output@@V?$format_validation_base@DV?$string_output_adapter@D@__crt_stdio_output@@@2@@__crt_stdio_output@@AAE_NXZ 100367fa f i libucrt:output.obj
 0001:00035820       ?state_case_normal@?$output_processor@DV?$string_output_adapter@D@__crt_stdio_output@@V?$positional_parameter_base@DV?$string_output_adapter@D@__crt_stdio_output@@@2@@__crt_stdio_output@@AAE_NXZ 10036820 f i libucrt:output.obj
 0001:0003585d       ?state_case_normal@?$output_processor@DV?$string_output_adapter@D@__crt_stdio_output@@V?$standard_base@DV?$string_output_adapter@D@__crt_stdio_output@@@2@@__crt_stdio_output@@AAE_NXZ 1003685d f i libucrt:output.obj
 0001:00035883       ?state_case_normal@?$output_processor@_WV?$stream_output_adapter@_W@__crt_stdio_output@@V?$format_validation_base@_WV?$stream_output_adapter@_W@__crt_stdio_output@@@2@@__crt_stdio_output@@AAE_NXZ 10036883 f i libucrt:output.obj
 0001:000358a9       ?state_case_normal@?$output_processor@_WV?$stream_output_adapter@_W@__crt_stdio_output@@V?$positional_parameter_base@_WV?$stream_output_adapter@_W@__crt_stdio_output@@@2@@__crt_stdio_output@@AAE_NXZ 100368a9 f i libucrt:output.obj
 0001:000358e6       ?state_case_normal@?$output_processor@_WV?$stream_output_adapter@_W@__crt_stdio_output@@V?$standard_base@_WV?$stream_output_adapter@_W@__crt_stdio_output@@@2@@__crt_stdio_output@@AAE_NXZ 100368e6 f i libucrt:output.obj
 0001:0003590c       ?state_case_normal@?$output_processor@_WV?$string_output_adapter@_W@__crt_stdio_output@@V?$format_validation_base@_WV?$string_output_adapter@_W@__crt_stdio_output@@@2@@__crt_stdio_output@@AAE_NXZ 1003690c f i libucrt:output.obj
 0001:00035932       ?state_case_normal@?$output_processor@_WV?$string_output_adapter@_W@__crt_stdio_output@@V?$positional_parameter_base@_WV?$string_output_adapter@_W@__crt_stdio_output@@@2@@__crt_stdio_output@@AAE_NXZ 10036932 f i libucrt:output.obj
 0001:0003596f       ?state_case_normal@?$output_processor@_WV?$string_output_adapter@_W@__crt_stdio_output@@V?$standard_base@_WV?$string_output_adapter@_W@__crt_stdio_output@@@2@@__crt_stdio_output@@AAE_NXZ 1003696f f i libucrt:output.obj
 0001:00035995       ?state_case_normal_common@?$output_processor@DV?$stream_output_adapter@D@__crt_stdio_output@@V?$format_validation_base@DV?$stream_output_adapter@D@__crt_stdio_output@@@2@@__crt_stdio_output@@AAE_NXZ 10036995 f i libucrt:output.obj
 0001:000359c9       ?state_case_normal_common@?$output_processor@DV?$stream_output_adapter@D@__crt_stdio_output@@V?$positional_parameter_base@DV?$stream_output_adapter@D@__crt_stdio_output@@@2@@__crt_stdio_output@@AAE_NXZ 100369c9 f i libucrt:output.obj
 0001:000359fd       ?state_case_normal_common@?$output_processor@DV?$stream_output_adapter@D@__crt_stdio_output@@V?$standard_base@DV?$stream_output_adapter@D@__crt_stdio_output@@@2@@__crt_stdio_output@@AAE_NXZ 100369fd f i libucrt:output.obj
 0001:00035a31       ?state_case_normal_common@?$output_processor@DV?$string_output_adapter@D@__crt_stdio_output@@V?$format_validation_base@DV?$string_output_adapter@D@__crt_stdio_output@@@2@@__crt_stdio_output@@AAE_NXZ 10036a31 f i libucrt:output.obj
 0001:00035a65       ?state_case_normal_common@?$output_processor@DV?$string_output_adapter@D@__crt_stdio_output@@V?$positional_parameter_base@DV?$string_output_adapter@D@__crt_stdio_output@@@2@@__crt_stdio_output@@AAE_NXZ 10036a65 f i libucrt:output.obj
 0001:00035a99       ?state_case_normal_common@?$output_processor@DV?$string_output_adapter@D@__crt_stdio_output@@V?$standard_base@DV?$string_output_adapter@D@__crt_stdio_output@@@2@@__crt_stdio_output@@AAE_NXZ 10036a99 f i libucrt:output.obj
 0001:00035acd       ?state_case_normal_common@?$output_processor@_WV?$stream_output_adapter@_W@__crt_stdio_output@@V?$format_validation_base@_WV?$stream_output_adapter@_W@__crt_stdio_output@@@2@@__crt_stdio_output@@AAE_NXZ 10036acd f i libucrt:output.obj
 0001:00035aee       ?state_case_normal_common@?$output_processor@_WV?$stream_output_adapter@_W@__crt_stdio_output@@V?$positional_parameter_base@_WV?$stream_output_adapter@_W@__crt_stdio_output@@@2@@__crt_stdio_output@@AAE_NXZ 10036aee f i libucrt:output.obj
 0001:00035b0f       ?state_case_normal_common@?$output_processor@_WV?$stream_output_adapter@_W@__crt_stdio_output@@V?$standard_base@_WV?$stream_output_adapter@_W@__crt_stdio_output@@@2@@__crt_stdio_output@@AAE_NXZ 10036b0f f i libucrt:output.obj
 0001:00035b30       ?state_case_normal_common@?$output_processor@_WV?$string_output_adapter@_W@__crt_stdio_output@@V?$format_validation_base@_WV?$string_output_adapter@_W@__crt_stdio_output@@@2@@__crt_stdio_output@@AAE_NXZ 10036b30 f i libucrt:output.obj
 0001:00035b51       ?state_case_normal_common@?$output_processor@_WV?$string_output_adapter@_W@__crt_stdio_output@@V?$positional_parameter_base@_WV?$string_output_adapter@_W@__crt_stdio_output@@@2@@__crt_stdio_output@@AAE_NXZ 10036b51 f i libucrt:output.obj
 0001:00035b72       ?state_case_normal_common@?$output_processor@_WV?$string_output_adapter@_W@__crt_stdio_output@@V?$standard_base@_WV?$string_output_adapter@_W@__crt_stdio_output@@@2@@__crt_stdio_output@@AAE_NXZ 10036b72 f i libucrt:output.obj
 0001:00035b93       ?state_case_normal_tchar@?$output_processor@DV?$stream_output_adapter@D@__crt_stdio_output@@V?$format_validation_base@DV?$stream_output_adapter@D@__crt_stdio_output@@@2@@__crt_stdio_output@@AAE_ND@Z 10036b93 f i libucrt:output.obj
 0001:00035c0c       ?state_case_normal_tchar@?$output_processor@DV?$stream_output_adapter@D@__crt_stdio_output@@V?$positional_parameter_base@DV?$stream_output_adapter@D@__crt_stdio_output@@@2@@__crt_stdio_output@@AAE_ND@Z 10036c0c f i libucrt:output.obj
 0001:00035c85       ?state_case_normal_tchar@?$output_processor@DV?$stream_output_adapter@D@__crt_stdio_output@@V?$standard_base@DV?$stream_output_adapter@D@__crt_stdio_output@@@2@@__crt_stdio_output@@AAE_ND@Z 10036c85 f i libucrt:output.obj
 0001:00035cfe       ?state_case_normal_tchar@?$output_processor@DV?$string_output_adapter@D@__crt_stdio_output@@V?$format_validation_base@DV?$string_output_adapter@D@__crt_stdio_output@@@2@@__crt_stdio_output@@AAE_ND@Z 10036cfe f i libucrt:output.obj
 0001:00035d77       ?state_case_normal_tchar@?$output_processor@DV?$string_output_adapter@D@__crt_stdio_output@@V?$positional_parameter_base@DV?$string_output_adapter@D@__crt_stdio_output@@@2@@__crt_stdio_output@@AAE_ND@Z 10036d77 f i libucrt:output.obj
 0001:00035df0       ?state_case_normal_tchar@?$output_processor@DV?$string_output_adapter@D@__crt_stdio_output@@V?$standard_base@DV?$string_output_adapter@D@__crt_stdio_output@@@2@@__crt_stdio_output@@AAE_ND@Z 10036df0 f i libucrt:output.obj
 0001:00035e69       ?state_case_normal_tchar@?$output_processor@_WV?$stream_output_adapter@_W@__crt_stdio_output@@V?$format_validation_base@_WV?$stream_output_adapter@_W@__crt_stdio_output@@@2@@__crt_stdio_output@@AAE_N_W@Z 10036e69 f i libucrt:output.obj
 0001:00035e74       ?state_case_normal_tchar@?$output_processor@_WV?$stream_output_adapter@_W@__crt_stdio_output@@V?$positional_parameter_base@_WV?$stream_output_adapter@_W@__crt_stdio_output@@@2@@__crt_stdio_output@@AAE_N_W@Z 10036e74 f i libucrt:output.obj
 0001:00035e7f       ?state_case_normal_tchar@?$output_processor@_WV?$stream_output_adapter@_W@__crt_stdio_output@@V?$standard_base@_WV?$stream_output_adapter@_W@__crt_stdio_output@@@2@@__crt_stdio_output@@AAE_N_W@Z 10036e7f f i libucrt:output.obj
 0001:00035e8a       ?state_case_normal_tchar@?$output_processor@_WV?$string_output_adapter@_W@__crt_stdio_output@@V?$format_validation_base@_WV?$string_output_adapter@_W@__crt_stdio_output@@@2@@__crt_stdio_output@@AAE_N_W@Z 10036e8a f i libucrt:output.obj
 0001:00035e95       ?state_case_normal_tchar@?$output_processor@_WV?$string_output_adapter@_W@__crt_stdio_output@@V?$positional_parameter_base@_WV?$string_output_adapter@_W@__crt_stdio_output@@@2@@__crt_stdio_output@@AAE_N_W@Z 10036e95 f i libucrt:output.obj
 0001:00035ea0       ?state_case_normal_tchar@?$output_processor@_WV?$string_output_adapter@_W@__crt_stdio_output@@V?$standard_base@_WV?$string_output_adapter@_W@__crt_stdio_output@@@2@@__crt_stdio_output@@AAE_N_W@Z 10036ea0 f i libucrt:output.obj
 0001:00035eab       ?state_case_percent@?$output_processor@DV?$stream_output_adapter@D@__crt_stdio_output@@V?$format_validation_base@DV?$stream_output_adapter@D@__crt_stdio_output@@@2@@__crt_stdio_output@@AAE_NXZ 10036eab f i libucrt:output.obj
 0001:00035ec9       ?state_case_percent@?$output_processor@DV?$stream_output_adapter@D@__crt_stdio_output@@V?$positional_parameter_base@DV?$stream_output_adapter@D@__crt_stdio_output@@@2@@__crt_stdio_output@@AAE_NXZ 10036ec9 f i libucrt:output.obj
 0001:00035ee7       ?state_case_percent@?$output_processor@DV?$stream_output_adapter@D@__crt_stdio_output@@V?$standard_base@DV?$stream_output_adapter@D@__crt_stdio_output@@@2@@__crt_stdio_output@@AAE_NXZ 10036ee7 f i libucrt:output.obj
 0001:00035f05       ?state_case_percent@?$output_processor@DV?$string_output_adapter@D@__crt_stdio_output@@V?$format_validation_base@DV?$string_output_adapter@D@__crt_stdio_output@@@2@@__crt_stdio_output@@AAE_NXZ 10036f05 f i libucrt:output.obj
 0001:00035f23       ?state_case_percent@?$output_processor@DV?$string_output_adapter@D@__crt_stdio_output@@V?$positional_parameter_base@DV?$string_output_adapter@D@__crt_stdio_output@@@2@@__crt_stdio_output@@AAE_NXZ 10036f23 f i libucrt:output.obj
 0001:00035f41       ?state_case_percent@?$output_processor@DV?$string_output_adapter@D@__crt_stdio_output@@V?$standard_base@DV?$string_output_adapter@D@__crt_stdio_output@@@2@@__crt_stdio_output@@AAE_NXZ 10036f41 f i libucrt:output.obj
 0001:00035f5f       ?state_case_percent@?$output_processor@_WV?$stream_output_adapter@_W@__crt_stdio_output@@V?$format_validation_base@_WV?$stream_output_adapter@_W@__crt_stdio_output@@@2@@__crt_stdio_output@@AAE_NXZ 10036f5f f i libucrt:output.obj
 0001:00035f7d       ?state_case_percent@?$output_processor@_WV?$stream_output_adapter@_W@__crt_stdio_output@@V?$positional_parameter_base@_WV?$stream_output_adapter@_W@__crt_stdio_output@@@2@@__crt_stdio_output@@AAE_NXZ 10036f7d f i libucrt:output.obj
 0001:00035f9b       ?state_case_percent@?$output_processor@_WV?$stream_output_adapter@_W@__crt_stdio_output@@V?$standard_base@_WV?$stream_output_adapter@_W@__crt_stdio_output@@@2@@__crt_stdio_output@@AAE_NXZ 10036f9b f i libucrt:output.obj
 0001:00035fb9       ?state_case_percent@?$output_processor@_WV?$string_output_adapter@_W@__crt_stdio_output@@V?$format_validation_base@_WV?$string_output_adapter@_W@__crt_stdio_output@@@2@@__crt_stdio_output@@AAE_NXZ 10036fb9 f i libucrt:output.obj
 0001:00035fd7       ?state_case_percent@?$output_processor@_WV?$string_output_adapter@_W@__crt_stdio_output@@V?$positional_parameter_base@_WV?$string_output_adapter@_W@__crt_stdio_output@@@2@@__crt_stdio_output@@AAE_NXZ 10036fd7 f i libucrt:output.obj
 0001:00035ff5       ?state_case_percent@?$output_processor@_WV?$string_output_adapter@_W@__crt_stdio_output@@V?$standard_base@_WV?$string_output_adapter@_W@__crt_stdio_output@@@2@@__crt_stdio_output@@AAE_NXZ 10036ff5 f i libucrt:output.obj
 0001:00036013       ?state_case_precision@?$output_processor@DV?$stream_output_adapter@D@__crt_stdio_output@@V?$format_validation_base@DV?$stream_output_adapter@D@__crt_stdio_output@@@2@@__crt_stdio_output@@AAE_NXZ 10037013 f i libucrt:output.obj
 0001:00036045       ?state_case_precision@?$output_processor@DV?$stream_output_adapter@D@__crt_stdio_output@@V?$positional_parameter_base@DV?$stream_output_adapter@D@__crt_stdio_output@@@2@@__crt_stdio_output@@AAE_NXZ 10037045 f i libucrt:output.obj
 0001:0003608d       ?state_case_precision@?$output_processor@DV?$stream_output_adapter@D@__crt_stdio_output@@V?$standard_base@DV?$stream_output_adapter@D@__crt_stdio_output@@@2@@__crt_stdio_output@@AAE_NXZ 1003708d f i libucrt:output.obj
 0001:000360bf       ?state_case_precision@?$output_processor@DV?$string_output_adapter@D@__crt_stdio_output@@V?$format_validation_base@DV?$string_output_adapter@D@__crt_stdio_output@@@2@@__crt_stdio_output@@AAE_NXZ 100370bf f i libucrt:output.obj
 0001:000360f1       ?state_case_precision@?$output_processor@DV?$string_output_adapter@D@__crt_stdio_output@@V?$positional_parameter_base@DV?$string_output_adapter@D@__crt_stdio_output@@@2@@__crt_stdio_output@@AAE_NXZ 100370f1 f i libucrt:output.obj
 0001:00036139       ?state_case_precision@?$output_processor@DV?$string_output_adapter@D@__crt_stdio_output@@V?$standard_base@DV?$string_output_adapter@D@__crt_stdio_output@@@2@@__crt_stdio_output@@AAE_NXZ 10037139 f i libucrt:output.obj
 0001:0003616b       ?state_case_precision@?$output_processor@_WV?$stream_output_adapter@_W@__crt_stdio_output@@V?$format_validation_base@_WV?$stream_output_adapter@_W@__crt_stdio_output@@@2@@__crt_stdio_output@@AAE_NXZ 1003716b f i libucrt:output.obj
 0001:0003619e       ?state_case_precision@?$output_processor@_WV?$stream_output_adapter@_W@__crt_stdio_output@@V?$positional_parameter_base@_WV?$stream_output_adapter@_W@__crt_stdio_output@@@2@@__crt_stdio_output@@AAE_NXZ 1003719e f i libucrt:output.obj
 0001:000361e7       ?state_case_precision@?$output_processor@_WV?$stream_output_adapter@_W@__crt_stdio_output@@V?$standard_base@_WV?$stream_output_adapter@_W@__crt_stdio_output@@@2@@__crt_stdio_output@@AAE_NXZ 100371e7 f i libucrt:output.obj
 0001:0003621a       ?state_case_precision@?$output_processor@_WV?$string_output_adapter@_W@__crt_stdio_output@@V?$format_validation_base@_WV?$string_output_adapter@_W@__crt_stdio_output@@@2@@__crt_stdio_output@@AAE_NXZ 1003721a f i libucrt:output.obj
 0001:0003624d       ?state_case_precision@?$output_processor@_WV?$string_output_adapter@_W@__crt_stdio_output@@V?$positional_parameter_base@_WV?$string_output_adapter@_W@__crt_stdio_output@@@2@@__crt_stdio_output@@AAE_NXZ 1003724d f i libucrt:output.obj
 0001:00036296       ?state_case_precision@?$output_processor@_WV?$string_output_adapter@_W@__crt_stdio_output@@V?$standard_base@_WV?$string_output_adapter@_W@__crt_stdio_output@@@2@@__crt_stdio_output@@AAE_NXZ 10037296 f i libucrt:output.obj
 0001:000362c9       ?state_case_size@?$output_processor@DV?$stream_output_adapter@D@__crt_stdio_output@@V?$format_validation_base@DV?$stream_output_adapter@D@__crt_stdio_output@@@2@@__crt_stdio_output@@AAE_NXZ 100372c9 f i libucrt:output.obj
 0001:0003648c       ?state_case_size@?$output_processor@DV?$stream_output_adapter@D@__crt_stdio_output@@V?$positional_parameter_base@DV?$stream_output_adapter@D@__crt_stdio_output@@@2@@__crt_stdio_output@@AAE_NXZ 1003748c f i libucrt:output.obj
 0001:0003664f       ?state_case_size@?$output_processor@DV?$stream_output_adapter@D@__crt_stdio_output@@V?$standard_base@DV?$stream_output_adapter@D@__crt_stdio_output@@@2@@__crt_stdio_output@@AAE_NXZ 1003764f f i libucrt:output.obj
 0001:00036812       ?state_case_size@?$output_processor@DV?$string_output_adapter@D@__crt_stdio_output@@V?$format_validation_base@DV?$string_output_adapter@D@__crt_stdio_output@@@2@@__crt_stdio_output@@AAE_NXZ 10037812 f i libucrt:output.obj
 0001:000369d5       ?state_case_size@?$output_processor@DV?$string_output_adapter@D@__crt_stdio_output@@V?$positional_parameter_base@DV?$string_output_adapter@D@__crt_stdio_output@@@2@@__crt_stdio_output@@AAE_NXZ 100379d5 f i libucrt:output.obj
 0001:00036b98       ?state_case_size@?$output_processor@DV?$string_output_adapter@D@__crt_stdio_output@@V?$standard_base@DV?$string_output_adapter@D@__crt_stdio_output@@@2@@__crt_stdio_output@@AAE_NXZ 10037b98 f i libucrt:output.obj
 0001:00036d5b       ?state_case_size@?$output_processor@_WV?$stream_output_adapter@_W@__crt_stdio_output@@V?$format_validation_base@_WV?$stream_output_adapter@_W@__crt_stdio_output@@@2@@__crt_stdio_output@@AAE_NXZ 10037d5b f i libucrt:output.obj
 0001:00036f36       ?state_case_size@?$output_processor@_WV?$stream_output_adapter@_W@__crt_stdio_output@@V?$positional_parameter_base@_WV?$stream_output_adapter@_W@__crt_stdio_output@@@2@@__crt_stdio_output@@AAE_NXZ 10037f36 f i libucrt:output.obj
 0001:00037111       ?state_case_size@?$output_processor@_WV?$stream_output_adapter@_W@__crt_stdio_output@@V?$standard_base@_WV?$stream_output_adapter@_W@__crt_stdio_output@@@2@@__crt_stdio_output@@AAE_NXZ 10038111 f i libucrt:output.obj
 0001:000372ec       ?state_case_size@?$output_processor@_WV?$string_output_adapter@_W@__crt_stdio_output@@V?$format_validation_base@_WV?$string_output_adapter@_W@__crt_stdio_output@@@2@@__crt_stdio_output@@AAE_NXZ 100382ec f i libucrt:output.obj
 0001:000374c7       ?state_case_size@?$output_processor@_WV?$string_output_adapter@_W@__crt_stdio_output@@V?$positional_parameter_base@_WV?$string_output_adapter@_W@__crt_stdio_output@@@2@@__crt_stdio_output@@AAE_NXZ 100384c7 f i libucrt:output.obj
 0001:000376a2       ?state_case_size@?$output_processor@_WV?$string_output_adapter@_W@__crt_stdio_output@@V?$standard_base@_WV?$string_output_adapter@_W@__crt_stdio_output@@@2@@__crt_stdio_output@@AAE_NXZ 100386a2 f i libucrt:output.obj
 0001:0003787d       ?state_case_type@?$output_processor@DV?$stream_output_adapter@D@__crt_stdio_output@@V?$format_validation_base@DV?$stream_output_adapter@D@__crt_stdio_output@@@2@@__crt_stdio_output@@AAE_NXZ 1003887d f i libucrt:output.obj
 0001:00037b37       ?state_case_type@?$output_processor@DV?$stream_output_adapter@D@__crt_stdio_output@@V?$positional_parameter_base@DV?$stream_output_adapter@D@__crt_stdio_output@@@2@@__crt_stdio_output@@AAE_NXZ 10038b37 f i libucrt:output.obj
 0001:00037dff       ?state_case_type@?$output_processor@DV?$stream_output_adapter@D@__crt_stdio_output@@V?$standard_base@DV?$stream_output_adapter@D@__crt_stdio_output@@@2@@__crt_stdio_output@@AAE_NXZ 10038dff f i libucrt:output.obj
 0001:000380b9       ?state_case_type@?$output_processor@DV?$string_output_adapter@D@__crt_stdio_output@@V?$format_validation_base@DV?$string_output_adapter@D@__crt_stdio_output@@@2@@__crt_stdio_output@@AAE_NXZ 100390b9 f i libucrt:output.obj
 0001:00038373       ?state_case_type@?$output_processor@DV?$string_output_adapter@D@__crt_stdio_output@@V?$positional_parameter_base@DV?$string_output_adapter@D@__crt_stdio_output@@@2@@__crt_stdio_output@@AAE_NXZ 10039373 f i libucrt:output.obj
 0001:0003863b       ?state_case_type@?$output_processor@DV?$string_output_adapter@D@__crt_stdio_output@@V?$standard_base@DV?$string_output_adapter@D@__crt_stdio_output@@@2@@__crt_stdio_output@@AAE_NXZ 1003963b f i libucrt:output.obj
 0001:000388f5       ?state_case_type@?$output_processor@_WV?$stream_output_adapter@_W@__crt_stdio_output@@V?$format_validation_base@_WV?$stream_output_adapter@_W@__crt_stdio_output@@@2@@__crt_stdio_output@@AAE_NXZ 100398f5 f i libucrt:output.obj
 0001:00038be9       ?state_case_type@?$output_processor@_WV?$stream_output_adapter@_W@__crt_stdio_output@@V?$positional_parameter_base@_WV?$stream_output_adapter@_W@__crt_stdio_output@@@2@@__crt_stdio_output@@AAE_NXZ 10039be9 f i libucrt:output.obj
 0001:00038ef0       ?state_case_type@?$output_processor@_WV?$stream_output_adapter@_W@__crt_stdio_output@@V?$standard_base@_WV?$stream_output_adapter@_W@__crt_stdio_output@@@2@@__crt_stdio_output@@AAE_NXZ 10039ef0 f i libucrt:output.obj
 0001:000391e4       ?state_case_type@?$output_processor@_WV?$string_output_adapter@_W@__crt_stdio_output@@V?$format_validation_base@_WV?$string_output_adapter@_W@__crt_stdio_output@@@2@@__crt_stdio_output@@AAE_NXZ 1003a1e4 f i libucrt:output.obj
 0001:000394d8       ?state_case_type@?$output_processor@_WV?$string_output_adapter@_W@__crt_stdio_output@@V?$positional_parameter_base@_WV?$string_output_adapter@_W@__crt_stdio_output@@@2@@__crt_stdio_output@@AAE_NXZ 1003a4d8 f i libucrt:output.obj
 0001:000397df       ?state_case_type@?$output_processor@_WV?$string_output_adapter@_W@__crt_stdio_output@@V?$standard_base@_WV?$string_output_adapter@_W@__crt_stdio_output@@@2@@__crt_stdio_output@@AAE_NXZ 1003a7df f i libucrt:output.obj
 0001:00039ad3       ?state_case_width@?$output_processor@DV?$stream_output_adapter@D@__crt_stdio_output@@V?$format_validation_base@DV?$stream_output_adapter@D@__crt_stdio_output@@@2@@__crt_stdio_output@@AAE_NXZ 1003aad3 f i libucrt:output.obj
 0001:00039b08       ?state_case_width@?$output_processor@DV?$stream_output_adapter@D@__crt_stdio_output@@V?$positional_parameter_base@DV?$stream_output_adapter@D@__crt_stdio_output@@@2@@__crt_stdio_output@@AAE_NXZ 1003ab08 f i libucrt:output.obj
 0001:00039b58       ?state_case_width@?$output_processor@DV?$stream_output_adapter@D@__crt_stdio_output@@V?$standard_base@DV?$stream_output_adapter@D@__crt_stdio_output@@@2@@__crt_stdio_output@@AAE_NXZ 1003ab58 f i libucrt:output.obj
 0001:00039b8d       ?state_case_width@?$output_processor@DV?$string_output_adapter@D@__crt_stdio_output@@V?$format_validation_base@DV?$string_output_adapter@D@__crt_stdio_output@@@2@@__crt_stdio_output@@AAE_NXZ 1003ab8d f i libucrt:output.obj
 0001:00039bc2       ?state_case_width@?$output_processor@DV?$string_output_adapter@D@__crt_stdio_output@@V?$positional_parameter_base@DV?$string_output_adapter@D@__crt_stdio_output@@@2@@__crt_stdio_output@@AAE_NXZ 1003abc2 f i libucrt:output.obj
 0001:00039c12       ?state_case_width@?$output_processor@DV?$string_output_adapter@D@__crt_stdio_output@@V?$standard_base@DV?$string_output_adapter@D@__crt_stdio_output@@@2@@__crt_stdio_output@@AAE_NXZ 1003ac12 f i libucrt:output.obj
 0001:00039c47       ?state_case_width@?$output_processor@_WV?$stream_output_adapter@_W@__crt_stdio_output@@V?$format_validation_base@_WV?$stream_output_adapter@_W@__crt_stdio_output@@@2@@__crt_stdio_output@@AAE_NXZ 1003ac47 f i libucrt:output.obj
 0001:00039c7e       ?state_case_width@?$output_processor@_WV?$stream_output_adapter@_W@__crt_stdio_output@@V?$positional_parameter_base@_WV?$stream_output_adapter@_W@__crt_stdio_output@@@2@@__crt_stdio_output@@AAE_NXZ 1003ac7e f i libucrt:output.obj
 0001:00039ccf       ?state_case_width@?$output_processor@_WV?$stream_output_adapter@_W@__crt_stdio_output@@V?$standard_base@_WV?$stream_output_adapter@_W@__crt_stdio_output@@@2@@__crt_stdio_output@@AAE_NXZ 1003accf f i libucrt:output.obj
 0001:00039d06       ?state_case_width@?$output_processor@_WV?$string_output_adapter@_W@__crt_stdio_output@@V?$format_validation_base@_WV?$string_output_adapter@_W@__crt_stdio_output@@@2@@__crt_stdio_output@@AAE_NXZ 1003ad06 f i libucrt:output.obj
 0001:00039d3d       ?state_case_width@?$output_processor@_WV?$string_output_adapter@_W@__crt_stdio_output@@V?$positional_parameter_base@_WV?$string_output_adapter@_W@__crt_stdio_output@@@2@@__crt_stdio_output@@AAE_NXZ 1003ad3d f i libucrt:output.obj
 0001:00039d8e       ?state_case_width@?$output_processor@_WV?$string_output_adapter@_W@__crt_stdio_output@@V?$standard_base@_WV?$string_output_adapter@_W@__crt_stdio_output@@@2@@__crt_stdio_output@@AAE_NXZ 1003ad8e f i libucrt:output.obj
 0001:00039dc5       ?state_count@?$format_validation_base@DV?$stream_output_adapter@D@__crt_stdio_output@@@__crt_stdio_output@@KAIXZ 1003adc5 f i libucrt:output.obj
 0001:00039dc9       ?state_count@?$format_validation_base@DV?$string_output_adapter@D@__crt_stdio_output@@@__crt_stdio_output@@KAIXZ 1003adc9 f i libucrt:output.obj
 0001:00039dcd       ?state_count@?$format_validation_base@_WV?$stream_output_adapter@_W@__crt_stdio_output@@@__crt_stdio_output@@KAIXZ 1003adcd f i libucrt:output.obj
 0001:00039dd1       ?state_count@?$format_validation_base@_WV?$string_output_adapter@_W@__crt_stdio_output@@@__crt_stdio_output@@KAIXZ 1003add1 f i libucrt:output.obj
 0001:00039dd5       ?state_count@?$standard_base@DV?$stream_output_adapter@D@__crt_stdio_output@@@__crt_stdio_output@@KAIXZ 1003add5 f i libucrt:output.obj
 0001:00039dd9       ?state_count@?$standard_base@DV?$string_output_adapter@D@__crt_stdio_output@@@__crt_stdio_output@@KAIXZ 1003add9 f i libucrt:output.obj
 0001:00039ddd       ?state_count@?$standard_base@_WV?$stream_output_adapter@_W@__crt_stdio_output@@@__crt_stdio_output@@KAIXZ 1003addd f i libucrt:output.obj
 0001:00039de1       ?state_count@?$standard_base@_WV?$string_output_adapter@_W@__crt_stdio_output@@@__crt_stdio_output@@KAIXZ 1003ade1 f i libucrt:output.obj
 0001:00039de5       ?state_transition_table@?$format_validation_base@DV?$stream_output_adapter@D@__crt_stdio_output@@@__crt_stdio_output@@KAPBEXZ 1003ade5 f i libucrt:output.obj
 0001:00039deb       ?state_transition_table@?$format_validation_base@DV?$string_output_adapter@D@__crt_stdio_output@@@__crt_stdio_output@@KAPBEXZ 1003adeb f i libucrt:output.obj
 0001:00039df1       ?state_transition_table@?$format_validation_base@_WV?$stream_output_adapter@_W@__crt_stdio_output@@@__crt_stdio_output@@KAPBEXZ 1003adf1 f i libucrt:output.obj
 0001:00039df7       ?state_transition_table@?$format_validation_base@_WV?$string_output_adapter@_W@__crt_stdio_output@@@__crt_stdio_output@@KAPBEXZ 1003adf7 f i libucrt:output.obj
 0001:00039dfd       ?state_transition_table@?$standard_base@DV?$stream_output_adapter@D@__crt_stdio_output@@@__crt_stdio_output@@KAPBEXZ 1003adfd f i libucrt:output.obj
 0001:00039e03       ?state_transition_table@?$standard_base@DV?$string_output_adapter@D@__crt_stdio_output@@@__crt_stdio_output@@KAPBEXZ 1003ae03 f i libucrt:output.obj
 0001:00039e09       ?state_transition_table@?$standard_base@_WV?$stream_output_adapter@_W@__crt_stdio_output@@@__crt_stdio_output@@KAPBEXZ 1003ae09 f i libucrt:output.obj
 0001:00039e0f       ?state_transition_table@?$standard_base@_WV?$string_output_adapter@_W@__crt_stdio_output@@@__crt_stdio_output@@KAPBEXZ 1003ae0f f i libucrt:output.obj
 0001:00039e15       ?to_integer_size@__crt_stdio_output@@YAIW4length_modifier@1@@Z 1003ae15 f i libucrt:output.obj
 0001:00039e88       ?type_case_X@?$output_processor@DV?$stream_output_adapter@D@__crt_stdio_output@@V?$format_validation_base@DV?$stream_output_adapter@D@__crt_stdio_output@@@2@@__crt_stdio_output@@AAE_NXZ 1003ae88 f i libucrt:output.obj
 0001:00039e94       ?type_case_X@?$output_processor@DV?$stream_output_adapter@D@__crt_stdio_output@@V?$positional_parameter_base@DV?$stream_output_adapter@D@__crt_stdio_output@@@2@@__crt_stdio_output@@AAE_NXZ 1003ae94 f i libucrt:output.obj
 0001:00039ea0       ?type_case_X@?$output_processor@DV?$stream_output_adapter@D@__crt_stdio_output@@V?$standard_base@DV?$stream_output_adapter@D@__crt_stdio_output@@@2@@__crt_stdio_output@@AAE_NXZ 1003aea0 f i libucrt:output.obj
 0001:00039eac       ?type_case_X@?$output_processor@DV?$string_output_adapter@D@__crt_stdio_output@@V?$format_validation_base@DV?$string_output_adapter@D@__crt_stdio_output@@@2@@__crt_stdio_output@@AAE_NXZ 1003aeac f i libucrt:output.obj
 0001:00039eb8       ?type_case_X@?$output_processor@DV?$string_output_adapter@D@__crt_stdio_output@@V?$positional_parameter_base@DV?$string_output_adapter@D@__crt_stdio_output@@@2@@__crt_stdio_output@@AAE_NXZ 1003aeb8 f i libucrt:output.obj
 0001:00039ec4       ?type_case_X@?$output_processor@DV?$string_output_adapter@D@__crt_stdio_output@@V?$standard_base@DV?$string_output_adapter@D@__crt_stdio_output@@@2@@__crt_stdio_output@@AAE_NXZ 1003aec4 f i libucrt:output.obj
 0001:00039ed0       ?type_case_X@?$output_processor@_WV?$stream_output_adapter@_W@__crt_stdio_output@@V?$format_validation_base@_WV?$stream_output_adapter@_W@__crt_stdio_output@@@2@@__crt_stdio_output@@AAE_NXZ 1003aed0 f i libucrt:output.obj
 0001:00039edc       ?type_case_X@?$output_processor@_WV?$stream_output_adapter@_W@__crt_stdio_output@@V?$positional_parameter_base@_WV?$stream_output_adapter@_W@__crt_stdio_output@@@2@@__crt_stdio_output@@AAE_NXZ 1003aedc f i libucrt:output.obj
 0001:00039ee8       ?type_case_X@?$output_processor@_WV?$stream_output_adapter@_W@__crt_stdio_output@@V?$standard_base@_WV?$stream_output_adapter@_W@__crt_stdio_output@@@2@@__crt_stdio_output@@AAE_NXZ 1003aee8 f i libucrt:output.obj
 0001:00039ef4       ?type_case_X@?$output_processor@_WV?$string_output_adapter@_W@__crt_stdio_output@@V?$format_validation_base@_WV?$string_output_adapter@_W@__crt_stdio_output@@@2@@__crt_stdio_output@@AAE_NXZ 1003aef4 f i libucrt:output.obj
 0001:00039f00       ?type_case_X@?$output_processor@_WV?$string_output_adapter@_W@__crt_stdio_output@@V?$positional_parameter_base@_WV?$string_output_adapter@_W@__crt_stdio_output@@@2@@__crt_stdio_output@@AAE_NXZ 1003af00 f i libucrt:output.obj
 0001:00039f0c       ?type_case_X@?$output_processor@_WV?$string_output_adapter@_W@__crt_stdio_output@@V?$standard_base@_WV?$string_output_adapter@_W@__crt_stdio_output@@@2@@__crt_stdio_output@@AAE_NXZ 1003af0c f i libucrt:output.obj
 0001:00039f18       ?type_case_Z@?$output_processor@DV?$stream_output_adapter@D@__crt_stdio_output@@V?$format_validation_base@DV?$stream_output_adapter@D@__crt_stdio_output@@@2@@__crt_stdio_output@@AAE_NXZ 1003af18 f i libucrt:output.obj
 0001:00039f93       ?type_case_Z@?$output_processor@DV?$stream_output_adapter@D@__crt_stdio_output@@V?$positional_parameter_base@DV?$stream_output_adapter@D@__crt_stdio_output@@@2@@__crt_stdio_output@@AAE_NXZ 1003af93 f i libucrt:output.obj
 0001:0003a031       ?type_case_Z@?$output_processor@DV?$stream_output_adapter@D@__crt_stdio_output@@V?$standard_base@DV?$stream_output_adapter@D@__crt_stdio_output@@@2@@__crt_stdio_output@@AAE_NXZ 1003b031 f i libucrt:output.obj
 0001:0003a0ac       ?type_case_Z@?$output_processor@DV?$string_output_adapter@D@__crt_stdio_output@@V?$format_validation_base@DV?$string_output_adapter@D@__crt_stdio_output@@@2@@__crt_stdio_output@@AAE_NXZ 1003b0ac f i libucrt:output.obj
 0001:0003a127       ?type_case_Z@?$output_processor@DV?$string_output_adapter@D@__crt_stdio_output@@V?$positional_parameter_base@DV?$string_output_adapter@D@__crt_stdio_output@@@2@@__crt_stdio_output@@AAE_NXZ 1003b127 f i libucrt:output.obj
 0001:0003a1c5       ?type_case_Z@?$output_processor@DV?$string_output_adapter@D@__crt_stdio_output@@V?$standard_base@DV?$string_output_adapter@D@__crt_stdio_output@@@2@@__crt_stdio_output@@AAE_NXZ 1003b1c5 f i libucrt:output.obj
 0001:0003a240       ?type_case_Z@?$output_processor@_WV?$stream_output_adapter@_W@__crt_stdio_output@@V?$format_validation_base@_WV?$stream_output_adapter@_W@__crt_stdio_output@@@2@@__crt_stdio_output@@AAE_NXZ 1003b240 f i libucrt:output.obj
 0001:0003a2bb       ?type_case_Z@?$output_processor@_WV?$stream_output_adapter@_W@__crt_stdio_output@@V?$positional_parameter_base@_WV?$stream_output_adapter@_W@__crt_stdio_output@@@2@@__crt_stdio_output@@AAE_NXZ 1003b2bb f i libucrt:output.obj
 0001:0003a359       ?type_case_Z@?$output_processor@_WV?$stream_output_adapter@_W@__crt_stdio_output@@V?$standard_base@_WV?$stream_output_adapter@_W@__crt_stdio_output@@@2@@__crt_stdio_output@@AAE_NXZ 1003b359 f i libucrt:output.obj
 0001:0003a3d4       ?type_case_Z@?$output_processor@_WV?$string_output_adapter@_W@__crt_stdio_output@@V?$format_validation_base@_WV?$string_output_adapter@_W@__crt_stdio_output@@@2@@__crt_stdio_output@@AAE_NXZ 1003b3d4 f i libucrt:output.obj
 0001:0003a44f       ?type_case_Z@?$output_processor@_WV?$string_output_adapter@_W@__crt_stdio_output@@V?$positional_parameter_base@_WV?$string_output_adapter@_W@__crt_stdio_output@@@2@@__crt_stdio_output@@AAE_NXZ 1003b44f f i libucrt:output.obj
 0001:0003a4ed       ?type_case_Z@?$output_processor@_WV?$string_output_adapter@_W@__crt_stdio_output@@V?$standard_base@_WV?$string_output_adapter@_W@__crt_stdio_output@@@2@@__crt_stdio_output@@AAE_NXZ 1003b4ed f i libucrt:output.obj
 0001:0003a568       ?type_case_a@?$output_processor@DV?$stream_output_adapter@D@__crt_stdio_output@@V?$format_validation_base@DV?$stream_output_adapter@D@__crt_stdio_output@@@2@@__crt_stdio_output@@AAE_NXZ 1003b568 f i libucrt:output.obj
 0001:0003a718       ?type_case_a@?$output_processor@DV?$stream_output_adapter@D@__crt_stdio_output@@V?$positional_parameter_base@DV?$stream_output_adapter@D@__crt_stdio_output@@@2@@__crt_stdio_output@@AAE_NXZ 1003b718 f i libucrt:output.obj
 0001:0003a8ef       ?type_case_a@?$output_processor@DV?$stream_output_adapter@D@__crt_stdio_output@@V?$standard_base@DV?$stream_output_adapter@D@__crt_stdio_output@@@2@@__crt_stdio_output@@AAE_NXZ 1003b8ef f i libucrt:output.obj
 0001:0003aa9f       ?type_case_a@?$output_processor@DV?$string_output_adapter@D@__crt_stdio_output@@V?$format_validation_base@DV?$string_output_adapter@D@__crt_stdio_output@@@2@@__crt_stdio_output@@AAE_NXZ 1003ba9f f i libucrt:output.obj
 0001:0003ac4f       ?type_case_a@?$output_processor@DV?$string_output_adapter@D@__crt_stdio_output@@V?$positional_parameter_base@DV?$string_output_adapter@D@__crt_stdio_output@@@2@@__crt_stdio_output@@AAE_NXZ 1003bc4f f i libucrt:output.obj
 0001:0003ae26       ?type_case_a@?$output_processor@DV?$string_output_adapter@D@__crt_stdio_output@@V?$standard_base@DV?$string_output_adapter@D@__crt_stdio_output@@@2@@__crt_stdio_output@@AAE_NXZ 1003be26 f i libucrt:output.obj
 0001:0003afd6       ?type_case_a@?$output_processor@_WV?$stream_output_adapter@_W@__crt_stdio_output@@V?$format_validation_base@_WV?$stream_output_adapter@_W@__crt_stdio_output@@@2@@__crt_stdio_output@@AAE_NXZ 1003bfd6 f i libucrt:output.obj
 0001:0003b1a4       ?type_case_a@?$output_processor@_WV?$stream_output_adapter@_W@__crt_stdio_output@@V?$positional_parameter_base@_WV?$stream_output_adapter@_W@__crt_stdio_output@@@2@@__crt_stdio_output@@AAE_NXZ 1003c1a4 f i libucrt:output.obj
 0001:0003b399       ?type_case_a@?$output_processor@_WV?$stream_output_adapter@_W@__crt_stdio_output@@V?$standard_base@_WV?$stream_output_adapter@_W@__crt_stdio_output@@@2@@__crt_stdio_output@@AAE_NXZ 1003c399 f i libucrt:output.obj
 0001:0003b567       ?type_case_a@?$output_processor@_WV?$string_output_adapter@_W@__crt_stdio_output@@V?$format_validation_base@_WV?$string_output_adapter@_W@__crt_stdio_output@@@2@@__crt_stdio_output@@AAE_NXZ 1003c567 f i libucrt:output.obj
 0001:0003b735       ?type_case_a@?$output_processor@_WV?$string_output_adapter@_W@__crt_stdio_output@@V?$positional_parameter_base@_WV?$string_output_adapter@_W@__crt_stdio_output@@@2@@__crt_stdio_output@@AAE_NXZ 1003c735 f i libucrt:output.obj
 0001:0003b92a       ?type_case_a@?$output_processor@_WV?$string_output_adapter@_W@__crt_stdio_output@@V?$standard_base@_WV?$string_output_adapter@_W@__crt_stdio_output@@@2@@__crt_stdio_output@@AAE_NXZ 1003c92a f i libucrt:output.obj
 0001:0003baf8       ?type_case_c@?$output_processor@DV?$stream_output_adapter@D@__crt_stdio_output@@V?$format_validation_base@DV?$stream_output_adapter@D@__crt_stdio_output@@@2@@__crt_stdio_output@@AAE_NXZ 1003caf8 f i libucrt:output.obj
 0001:0003bb02       ?type_case_c@?$output_processor@DV?$stream_output_adapter@D@__crt_stdio_output@@V?$positional_parameter_base@DV?$stream_output_adapter@D@__crt_stdio_output@@@2@@__crt_stdio_output@@AAE_NXZ 1003cb02 f i libucrt:output.obj
 0001:0003bb0c       ?type_case_c@?$output_processor@DV?$stream_output_adapter@D@__crt_stdio_output@@V?$standard_base@DV?$stream_output_adapter@D@__crt_stdio_output@@@2@@__crt_stdio_output@@AAE_NXZ 1003cb0c f i libucrt:output.obj
 0001:0003bb16       ?type_case_c@?$output_processor@DV?$string_output_adapter@D@__crt_stdio_output@@V?$format_validation_base@DV?$string_output_adapter@D@__crt_stdio_output@@@2@@__crt_stdio_output@@AAE_NXZ 1003cb16 f i libucrt:output.obj
 0001:0003bb20       ?type_case_c@?$output_processor@DV?$string_output_adapter@D@__crt_stdio_output@@V?$positional_parameter_base@DV?$string_output_adapter@D@__crt_stdio_output@@@2@@__crt_stdio_output@@AAE_NXZ 1003cb20 f i libucrt:output.obj
 0001:0003bb2a       ?type_case_c@?$output_processor@DV?$string_output_adapter@D@__crt_stdio_output@@V?$standard_base@DV?$string_output_adapter@D@__crt_stdio_output@@@2@@__crt_stdio_output@@AAE_NXZ 1003cb2a f i libucrt:output.obj
 0001:0003bb34       ?type_case_c@?$output_processor@_WV?$stream_output_adapter@_W@__crt_stdio_output@@V?$format_validation_base@_WV?$stream_output_adapter@_W@__crt_stdio_output@@@2@@__crt_stdio_output@@AAE_NXZ 1003cb34 f i libucrt:output.obj
 0001:0003bb3e       ?type_case_c@?$output_processor@_WV?$stream_output_adapter@_W@__crt_stdio_output@@V?$positional_parameter_base@_WV?$stream_output_adapter@_W@__crt_stdio_output@@@2@@__crt_stdio_output@@AAE_NXZ 1003cb3e f i libucrt:output.obj
 0001:0003bb48       ?type_case_c@?$output_processor@_WV?$stream_output_adapter@_W@__crt_stdio_output@@V?$standard_base@_WV?$stream_output_adapter@_W@__crt_stdio_output@@@2@@__crt_stdio_output@@AAE_NXZ 1003cb48 f i libucrt:output.obj
 0001:0003bb52       ?type_case_c@?$output_processor@_WV?$string_output_adapter@_W@__crt_stdio_output@@V?$format_validation_base@_WV?$string_output_adapter@_W@__crt_stdio_output@@@2@@__crt_stdio_output@@AAE_NXZ 1003cb52 f i libucrt:output.obj
 0001:0003bb5c       ?type_case_c@?$output_processor@_WV?$string_output_adapter@_W@__crt_stdio_output@@V?$positional_parameter_base@_WV?$string_output_adapter@_W@__crt_stdio_output@@@2@@__crt_stdio_output@@AAE_NXZ 1003cb5c f i libucrt:output.obj
 0001:0003bb66       ?type_case_c@?$output_processor@_WV?$string_output_adapter@_W@__crt_stdio_output@@V?$standard_base@_WV?$string_output_adapter@_W@__crt_stdio_output@@@2@@__crt_stdio_output@@AAE_NXZ 1003cb66 f i libucrt:output.obj
 0001:0003bb70       ?type_case_c_tchar@?$output_processor@DV?$stream_output_adapter@D@__crt_stdio_output@@V?$format_validation_base@DV?$stream_output_adapter@D@__crt_stdio_output@@@2@@__crt_stdio_output@@AAE_ND@Z 1003cb70 f i libucrt:output.obj
 0001:0003bc24       ?type_case_c_tchar@?$output_processor@DV?$stream_output_adapter@D@__crt_stdio_output@@V?$positional_parameter_base@DV?$stream_output_adapter@D@__crt_stdio_output@@@2@@__crt_stdio_output@@AAE_ND@Z 1003cc24 f i libucrt:output.obj
 0001:0003bd14       ?type_case_c_tchar@?$output_processor@DV?$stream_output_adapter@D@__crt_stdio_output@@V?$standard_base@DV?$stream_output_adapter@D@__crt_stdio_output@@@2@@__crt_stdio_output@@AAE_ND@Z 1003cd14 f i libucrt:output.obj
 0001:0003bdc8       ?type_case_c_tchar@?$output_processor@DV?$string_output_adapter@D@__crt_stdio_output@@V?$format_validation_base@DV?$string_output_adapter@D@__crt_stdio_output@@@2@@__crt_stdio_output@@AAE_ND@Z 1003cdc8 f i libucrt:output.obj
 0001:0003be7c       ?type_case_c_tchar@?$output_processor@DV?$string_output_adapter@D@__crt_stdio_output@@V?$positional_parameter_base@DV?$string_output_adapter@D@__crt_stdio_output@@@2@@__crt_stdio_output@@AAE_ND@Z 1003ce7c f i libucrt:output.obj
 0001:0003bf6c       ?type_case_c_tchar@?$output_processor@DV?$string_output_adapter@D@__crt_stdio_output@@V?$standard_base@DV?$string_output_adapter@D@__crt_stdio_output@@@2@@__crt_stdio_output@@AAE_ND@Z 1003cf6c f i libucrt:output.obj
 0001:0003c020       ?type_case_c_tchar@?$output_processor@_WV?$stream_output_adapter@_W@__crt_stdio_output@@V?$format_validation_base@_WV?$stream_output_adapter@_W@__crt_stdio_output@@@2@@__crt_stdio_output@@AAE_N_W@Z 1003d020 f i libucrt:output.obj
 0001:0003c0de       ?type_case_c_tchar@?$output_processor@_WV?$stream_output_adapter@_W@__crt_stdio_output@@V?$positional_parameter_base@_WV?$stream_output_adapter@_W@__crt_stdio_output@@@2@@__crt_stdio_output@@AAE_N_W@Z 1003d0de f i libucrt:output.obj
 0001:0003c1b8       ?type_case_c_tchar@?$output_processor@_WV?$stream_output_adapter@_W@__crt_stdio_output@@V?$standard_base@_WV?$stream_output_adapter@_W@__crt_stdio_output@@@2@@__crt_stdio_output@@AAE_N_W@Z 1003d1b8 f i libucrt:output.obj
 0001:0003c276       ?type_case_c_tchar@?$output_processor@_WV?$string_output_adapter@_W@__crt_stdio_output@@V?$format_validation_base@_WV?$string_output_adapter@_W@__crt_stdio_output@@@2@@__crt_stdio_output@@AAE_N_W@Z 1003d276 f i libucrt:output.obj
 0001:0003c334       ?type_case_c_tchar@?$output_processor@_WV?$string_output_adapter@_W@__crt_stdio_output@@V?$positional_parameter_base@_WV?$string_output_adapter@_W@__crt_stdio_output@@@2@@__crt_stdio_output@@AAE_N_W@Z 1003d334 f i libucrt:output.obj
 0001:0003c40e       ?type_case_c_tchar@?$output_processor@_WV?$string_output_adapter@_W@__crt_stdio_output@@V?$standard_base@_WV?$string_output_adapter@_W@__crt_stdio_output@@@2@@__crt_stdio_output@@AAE_N_W@Z 1003d40e f i libucrt:output.obj
 0001:0003c4cc       ?type_case_d@?$output_processor@DV?$stream_output_adapter@D@__crt_stdio_output@@V?$format_validation_base@DV?$stream_output_adapter@D@__crt_stdio_output@@@2@@__crt_stdio_output@@AAE_NXZ 1003d4cc f i libucrt:output.obj
 0001:0003c4dd       ?type_case_d@?$output_processor@DV?$stream_output_adapter@D@__crt_stdio_output@@V?$positional_parameter_base@DV?$stream_output_adapter@D@__crt_stdio_output@@@2@@__crt_stdio_output@@AAE_NXZ 1003d4dd f i libucrt:output.obj
 0001:0003c4ee       ?type_case_d@?$output_processor@DV?$stream_output_adapter@D@__crt_stdio_output@@V?$standard_base@DV?$stream_output_adapter@D@__crt_stdio_output@@@2@@__crt_stdio_output@@AAE_NXZ 1003d4ee f i libucrt:output.obj
 0001:0003c4ff       ?type_case_d@?$output_processor@DV?$string_output_adapter@D@__crt_stdio_output@@V?$format_validation_base@DV?$string_output_adapter@D@__crt_stdio_output@@@2@@__crt_stdio_output@@AAE_NXZ 1003d4ff f i libucrt:output.obj
 0001:0003c510       ?type_case_d@?$output_processor@DV?$string_output_adapter@D@__crt_stdio_output@@V?$positional_parameter_base@DV?$string_output_adapter@D@__crt_stdio_output@@@2@@__crt_stdio_output@@AAE_NXZ 1003d510 f i libucrt:output.obj
 0001:0003c521       ?type_case_d@?$output_processor@DV?$string_output_adapter@D@__crt_stdio_output@@V?$standard_base@DV?$string_output_adapter@D@__crt_stdio_output@@@2@@__crt_stdio_output@@AAE_NXZ 1003d521 f i libucrt:output.obj
 0001:0003c532       ?type_case_d@?$output_processor@_WV?$stream_output_adapter@_W@__crt_stdio_output@@V?$format_validation_base@_WV?$stream_output_adapter@_W@__crt_stdio_output@@@2@@__crt_stdio_output@@AAE_NXZ 1003d532 f i libucrt:output.obj
 0001:0003c543       ?type_case_d@?$output_processor@_WV?$stream_output_adapter@_W@__crt_stdio_output@@V?$positional_parameter_base@_WV?$stream_output_adapter@_W@__crt_stdio_output@@@2@@__crt_stdio_output@@AAE_NXZ 1003d543 f i libucrt:output.obj
 0001:0003c554       ?type_case_d@?$output_processor@_WV?$stream_output_adapter@_W@__crt_stdio_output@@V?$standard_base@_WV?$stream_output_adapter@_W@__crt_stdio_output@@@2@@__crt_stdio_output@@AAE_NXZ 1003d554 f i libucrt:output.obj
 0001:0003c565       ?type_case_d@?$output_processor@_WV?$string_output_adapter@_W@__crt_stdio_output@@V?$format_validation_base@_WV?$string_output_adapter@_W@__crt_stdio_output@@@2@@__crt_stdio_output@@AAE_NXZ 1003d565 f i libucrt:output.obj
 0001:0003c576       ?type_case_d@?$output_processor@_WV?$string_output_adapter@_W@__crt_stdio_output@@V?$positional_parameter_base@_WV?$string_output_adapter@_W@__crt_stdio_output@@@2@@__crt_stdio_output@@AAE_NXZ 1003d576 f i libucrt:output.obj
 0001:0003c587       ?type_case_d@?$output_processor@_WV?$string_output_adapter@_W@__crt_stdio_output@@V?$standard_base@_WV?$string_output_adapter@_W@__crt_stdio_output@@@2@@__crt_stdio_output@@AAE_NXZ 1003d587 f i libucrt:output.obj
 0001:0003c598       ?type_case_integer@?$output_processor@DV?$stream_output_adapter@D@__crt_stdio_output@@V?$format_validation_base@DV?$stream_output_adapter@D@__crt_stdio_output@@@2@@__crt_stdio_output@@AAE_NI_N@Z 1003d598 f i libucrt:output.obj
 0001:0003c734       ?type_case_integer@?$output_processor@DV?$stream_output_adapter@D@__crt_stdio_output@@V?$positional_parameter_base@DV?$stream_output_adapter@D@__crt_stdio_output@@@2@@__crt_stdio_output@@AAE_NI_N@Z 1003d734 f i libucrt:output.obj
 0001:0003c911       ?type_case_integer@?$output_processor@DV?$stream_output_adapter@D@__crt_stdio_output@@V?$standard_base@DV?$stream_output_adapter@D@__crt_stdio_output@@@2@@__crt_stdio_output@@AAE_NI_N@Z 1003d911 f i libucrt:output.obj
 0001:0003caad       ?type_case_integer@?$output_processor@DV?$string_output_adapter@D@__crt_stdio_output@@V?$format_validation_base@DV?$string_output_adapter@D@__crt_stdio_output@@@2@@__crt_stdio_output@@AAE_NI_N@Z 1003daad f i libucrt:output.obj
 0001:0003cc49       ?type_case_integer@?$output_processor@DV?$string_output_adapter@D@__crt_stdio_output@@V?$positional_parameter_base@DV?$string_output_adapter@D@__crt_stdio_output@@@2@@__crt_stdio_output@@AAE_NI_N@Z 1003dc49 f i libucrt:output.obj
 0001:0003ce26       ?type_case_integer@?$output_processor@DV?$string_output_adapter@D@__crt_stdio_output@@V?$standard_base@DV?$string_output_adapter@D@__crt_stdio_output@@@2@@__crt_stdio_output@@AAE_NI_N@Z 1003de26 f i libucrt:output.obj
 0001:0003cfc2       ?type_case_integer@?$output_processor@_WV?$stream_output_adapter@_W@__crt_stdio_output@@V?$format_validation_base@_WV?$stream_output_adapter@_W@__crt_stdio_output@@@2@@__crt_stdio_output@@AAE_NI_N@Z 1003dfc2 f i libucrt:output.obj
 0001:0003d15e       ?type_case_integer@?$output_processor@_WV?$stream_output_adapter@_W@__crt_stdio_output@@V?$positional_parameter_base@_WV?$stream_output_adapter@_W@__crt_stdio_output@@@2@@__crt_stdio_output@@AAE_NI_N@Z 1003e15e f i libucrt:output.obj
 0001:0003d33b       ?type_case_integer@?$output_processor@_WV?$stream_output_adapter@_W@__crt_stdio_output@@V?$standard_base@_WV?$stream_output_adapter@_W@__crt_stdio_output@@@2@@__crt_stdio_output@@AAE_NI_N@Z 1003e33b f i libucrt:output.obj
 0001:0003d4d7       ?type_case_integer@?$output_processor@_WV?$string_output_adapter@_W@__crt_stdio_output@@V?$format_validation_base@_WV?$string_output_adapter@_W@__crt_stdio_output@@@2@@__crt_stdio_output@@AAE_NI_N@Z 1003e4d7 f i libucrt:output.obj
 0001:0003d673       ?type_case_integer@?$output_processor@_WV?$string_output_adapter@_W@__crt_stdio_output@@V?$positional_parameter_base@_WV?$string_output_adapter@_W@__crt_stdio_output@@@2@@__crt_stdio_output@@AAE_NI_N@Z 1003e673 f i libucrt:output.obj
 0001:0003d850       ?type_case_integer@?$output_processor@_WV?$string_output_adapter@_W@__crt_stdio_output@@V?$standard_base@_WV?$string_output_adapter@_W@__crt_stdio_output@@@2@@__crt_stdio_output@@AAE_NI_N@Z 1003e850 f i libucrt:output.obj
 0001:0003d9ec       ?type_case_n@?$output_processor@DV?$stream_output_adapter@D@__crt_stdio_output@@V?$format_validation_base@DV?$stream_output_adapter@D@__crt_stdio_output@@@2@@__crt_stdio_output@@AAE_NXZ 1003e9ec f i libucrt:output.obj
 0001:0003da7d       ?type_case_n@?$output_processor@DV?$stream_output_adapter@D@__crt_stdio_output@@V?$positional_parameter_base@DV?$stream_output_adapter@D@__crt_stdio_output@@@2@@__crt_stdio_output@@AAE_NXZ 1003ea7d f i libucrt:output.obj
 0001:0003db3c       ?type_case_n@?$output_processor@DV?$stream_output_adapter@D@__crt_stdio_output@@V?$standard_base@DV?$stream_output_adapter@D@__crt_stdio_output@@@2@@__crt_stdio_output@@AAE_NXZ 1003eb3c f i libucrt:output.obj
 0001:0003dbcd       ?type_case_n@?$output_processor@DV?$string_output_adapter@D@__crt_stdio_output@@V?$format_validation_base@DV?$string_output_adapter@D@__crt_stdio_output@@@2@@__crt_stdio_output@@AAE_NXZ 1003ebcd f i libucrt:output.obj
 0001:0003dc5e       ?type_case_n@?$output_processor@DV?$string_output_adapter@D@__crt_stdio_output@@V?$positional_parameter_base@DV?$string_output_adapter@D@__crt_stdio_output@@@2@@__crt_stdio_output@@AAE_NXZ 1003ec5e f i libucrt:output.obj
 0001:0003dd1d       ?type_case_n@?$output_processor@DV?$string_output_adapter@D@__crt_stdio_output@@V?$standard_base@DV?$string_output_adapter@D@__crt_stdio_output@@@2@@__crt_stdio_output@@AAE_NXZ 1003ed1d f i libucrt:output.obj
 0001:0003ddae       ?type_case_n@?$output_processor@_WV?$stream_output_adapter@_W@__crt_stdio_output@@V?$format_validation_base@_WV?$stream_output_adapter@_W@__crt_stdio_output@@@2@@__crt_stdio_output@@AAE_NXZ 1003edae f i libucrt:output.obj
 0001:0003de3f       ?type_case_n@?$output_processor@_WV?$stream_output_adapter@_W@__crt_stdio_output@@V?$positional_parameter_base@_WV?$stream_output_adapter@_W@__crt_stdio_output@@@2@@__crt_stdio_output@@AAE_NXZ 1003ee3f f i libucrt:output.obj
 0001:0003defe       ?type_case_n@?$output_processor@_WV?$stream_output_adapter@_W@__crt_stdio_output@@V?$standard_base@_WV?$stream_output_adapter@_W@__crt_stdio_output@@@2@@__crt_stdio_output@@AAE_NXZ 1003eefe f i libucrt:output.obj
 0001:0003df8f       ?type_case_n@?$output_processor@_WV?$string_output_adapter@_W@__crt_stdio_output@@V?$format_validation_base@_WV?$string_output_adapter@_W@__crt_stdio_output@@@2@@__crt_stdio_output@@AAE_NXZ 1003ef8f f i libucrt:output.obj
 0001:0003e020       ?type_case_n@?$output_processor@_WV?$string_output_adapter@_W@__crt_stdio_output@@V?$positional_parameter_base@_WV?$string_output_adapter@_W@__crt_stdio_output@@@2@@__crt_stdio_output@@AAE_NXZ 1003f020 f i libucrt:output.obj
 0001:0003e0df       ?type_case_n@?$output_processor@_WV?$string_output_adapter@_W@__crt_stdio_output@@V?$standard_base@_WV?$string_output_adapter@_W@__crt_stdio_output@@@2@@__crt_stdio_output@@AAE_NXZ 1003f0df f i libucrt:output.obj
 0001:0003e170       ?type_case_o@?$output_processor@DV?$stream_output_adapter@D@__crt_stdio_output@@V?$format_validation_base@DV?$stream_output_adapter@D@__crt_stdio_output@@@2@@__crt_stdio_output@@AAE_NXZ 1003f170 f i libucrt:output.obj
 0001:0003e196       ?type_case_o@?$output_processor@DV?$stream_output_adapter@D@__crt_stdio_output@@V?$positional_parameter_base@DV?$stream_output_adapter@D@__crt_stdio_output@@@2@@__crt_stdio_output@@AAE_NXZ 1003f196 f i libucrt:output.obj
 0001:0003e1bc       ?type_case_o@?$output_processor@DV?$stream_output_adapter@D@__crt_stdio_output@@V?$standard_base@DV?$stream_output_adapter@D@__crt_stdio_output@@@2@@__crt_stdio_output@@AAE_NXZ 1003f1bc f i libucrt:output.obj
 0001:0003e1e2       ?type_case_o@?$output_processor@DV?$string_output_adapter@D@__crt_stdio_output@@V?$format_validation_base@DV?$string_output_adapter@D@__crt_stdio_output@@@2@@__crt_stdio_output@@AAE_NXZ 1003f1e2 f i libucrt:output.obj
 0001:0003e208       ?type_case_o@?$output_processor@DV?$string_output_adapter@D@__crt_stdio_output@@V?$positional_parameter_base@DV?$string_output_adapter@D@__crt_stdio_output@@@2@@__crt_stdio_output@@AAE_NXZ 1003f208 f i libucrt:output.obj
 0001:0003e22e       ?type_case_o@?$output_processor@DV?$string_output_adapter@D@__crt_stdio_output@@V?$standard_base@DV?$string_output_adapter@D@__crt_stdio_output@@@2@@__crt_stdio_output@@AAE_NXZ 1003f22e f i libucrt:output.obj
 0001:0003e254       ?type_case_o@?$output_processor@_WV?$stream_output_adapter@_W@__crt_stdio_output@@V?$format_validation_base@_WV?$stream_output_adapter@_W@__crt_stdio_output@@@2@@__crt_stdio_output@@AAE_NXZ 1003f254 f i libucrt:output.obj
 0001:0003e27a       ?type_case_o@?$output_processor@_WV?$stream_output_adapter@_W@__crt_stdio_output@@V?$positional_parameter_base@_WV?$stream_output_adapter@_W@__crt_stdio_output@@@2@@__crt_stdio_output@@AAE_NXZ 1003f27a f i libucrt:output.obj
 0001:0003e2a0       ?type_case_o@?$output_processor@_WV?$stream_output_adapter@_W@__crt_stdio_output@@V?$standard_base@_WV?$stream_output_adapter@_W@__crt_stdio_output@@@2@@__crt_stdio_output@@AAE_NXZ 1003f2a0 f i libucrt:output.obj
 0001:0003e2c6       ?type_case_o@?$output_processor@_WV?$string_output_adapter@_W@__crt_stdio_output@@V?$format_validation_base@_WV?$string_output_adapter@_W@__crt_stdio_output@@@2@@__crt_stdio_output@@AAE_NXZ 1003f2c6 f i libucrt:output.obj
 0001:0003e2ec       ?type_case_o@?$output_processor@_WV?$string_output_adapter@_W@__crt_stdio_output@@V?$positional_parameter_base@_WV?$string_output_adapter@_W@__crt_stdio_output@@@2@@__crt_stdio_output@@AAE_NXZ 1003f2ec f i libucrt:output.obj
 0001:0003e312       ?type_case_o@?$output_processor@_WV?$string_output_adapter@_W@__crt_stdio_output@@V?$standard_base@_WV?$string_output_adapter@_W@__crt_stdio_output@@@2@@__crt_stdio_output@@AAE_NXZ 1003f312 f i libucrt:output.obj
 0001:0003e338       ?type_case_p@?$output_processor@DV?$stream_output_adapter@D@__crt_stdio_output@@V?$format_validation_base@DV?$stream_output_adapter@D@__crt_stdio_output@@@2@@__crt_stdio_output@@AAE_NXZ 1003f338 f i libucrt:output.obj
 0001:0003e356       ?type_case_p@?$output_processor@DV?$stream_output_adapter@D@__crt_stdio_output@@V?$positional_parameter_base@DV?$stream_output_adapter@D@__crt_stdio_output@@@2@@__crt_stdio_output@@AAE_NXZ 1003f356 f i libucrt:output.obj
 0001:0003e374       ?type_case_p@?$output_processor@DV?$stream_output_adapter@D@__crt_stdio_output@@V?$standard_base@DV?$stream_output_adapter@D@__crt_stdio_output@@@2@@__crt_stdio_output@@AAE_NXZ 1003f374 f i libucrt:output.obj
 0001:0003e392       ?type_case_p@?$output_processor@DV?$string_output_adapter@D@__crt_stdio_output@@V?$format_validation_base@DV?$string_output_adapter@D@__crt_stdio_output@@@2@@__crt_stdio_output@@AAE_NXZ 1003f392 f i libucrt:output.obj
 0001:0003e3b0       ?type_case_p@?$output_processor@DV?$string_output_adapter@D@__crt_stdio_output@@V?$positional_parameter_base@DV?$string_output_adapter@D@__crt_stdio_output@@@2@@__crt_stdio_output@@AAE_NXZ 1003f3b0 f i libucrt:output.obj
 0001:0003e3ce       ?type_case_p@?$output_processor@DV?$string_output_adapter@D@__crt_stdio_output@@V?$standard_base@DV?$string_output_adapter@D@__crt_stdio_output@@@2@@__crt_stdio_output@@AAE_NXZ 1003f3ce f i libucrt:output.obj
 0001:0003e3ec       ?type_case_p@?$output_processor@_WV?$stream_output_adapter@_W@__crt_stdio_output@@V?$format_validation_base@_WV?$stream_output_adapter@_W@__crt_stdio_output@@@2@@__crt_stdio_output@@AAE_NXZ 1003f3ec f i libucrt:output.obj
 0001:0003e40a       ?type_case_p@?$output_processor@_WV?$stream_output_adapter@_W@__crt_stdio_output@@V?$positional_parameter_base@_WV?$stream_output_adapter@_W@__crt_stdio_output@@@2@@__crt_stdio_output@@AAE_NXZ 1003f40a f i libucrt:output.obj
 0001:0003e428       ?type_case_p@?$output_processor@_WV?$stream_output_adapter@_W@__crt_stdio_output@@V?$standard_base@_WV?$stream_output_adapter@_W@__crt_stdio_output@@@2@@__crt_stdio_output@@AAE_NXZ 1003f428 f i libucrt:output.obj
 0001:0003e446       ?type_case_p@?$output_processor@_WV?$string_output_adapter@_W@__crt_stdio_output@@V?$format_validation_base@_WV?$string_output_adapter@_W@__crt_stdio_output@@@2@@__crt_stdio_output@@AAE_NXZ 1003f446 f i libucrt:output.obj
 0001:0003e464       ?type_case_p@?$output_processor@_WV?$string_output_adapter@_W@__crt_stdio_output@@V?$positional_parameter_base@_WV?$string_output_adapter@_W@__crt_stdio_output@@@2@@__crt_stdio_output@@AAE_NXZ 1003f464 f i libucrt:output.obj
 0001:0003e482       ?type_case_p@?$output_processor@_WV?$string_output_adapter@_W@__crt_stdio_output@@V?$standard_base@_WV?$string_output_adapter@_W@__crt_stdio_output@@@2@@__crt_stdio_output@@AAE_NXZ 1003f482 f i libucrt:output.obj
 0001:0003e4a0       ?type_case_s@?$output_processor@DV?$stream_output_adapter@D@__crt_stdio_output@@V?$format_validation_base@DV?$stream_output_adapter@D@__crt_stdio_output@@@2@@__crt_stdio_output@@AAE_NXZ 1003f4a0 f i libucrt:output.obj
 0001:0003e52f       ?type_case_s@?$output_processor@DV?$stream_output_adapter@D@__crt_stdio_output@@V?$positional_parameter_base@DV?$stream_output_adapter@D@__crt_stdio_output@@@2@@__crt_stdio_output@@AAE_NXZ 1003f52f f i libucrt:output.obj
 0001:0003e5ca       ?type_case_s@?$output_processor@DV?$stream_output_adapter@D@__crt_stdio_output@@V?$standard_base@DV?$stream_output_adapter@D@__crt_stdio_output@@@2@@__crt_stdio_output@@AAE_NXZ 1003f5ca f i libucrt:output.obj
 0001:0003e659       ?type_case_s@?$output_processor@DV?$string_output_adapter@D@__crt_stdio_output@@V?$format_validation_base@DV?$string_output_adapter@D@__crt_stdio_output@@@2@@__crt_stdio_output@@AAE_NXZ 1003f659 f i libucrt:output.obj
 0001:0003e6e8       ?type_case_s@?$output_processor@DV?$string_output_adapter@D@__crt_stdio_output@@V?$positional_parameter_base@DV?$string_output_adapter@D@__crt_stdio_output@@@2@@__crt_stdio_output@@AAE_NXZ 1003f6e8 f i libucrt:output.obj
 0001:0003e783       ?type_case_s@?$output_processor@DV?$string_output_adapter@D@__crt_stdio_output@@V?$standard_base@DV?$string_output_adapter@D@__crt_stdio_output@@@2@@__crt_stdio_output@@AAE_NXZ 1003f783 f i libucrt:output.obj
 0001:0003e812       ?type_case_s@?$output_processor@_WV?$stream_output_adapter@_W@__crt_stdio_output@@V?$format_validation_base@_WV?$stream_output_adapter@_W@__crt_stdio_output@@@2@@__crt_stdio_output@@AAE_NXZ 1003f812 f i libucrt:output.obj
 0001:0003e8a3       ?type_case_s@?$output_processor@_WV?$stream_output_adapter@_W@__crt_stdio_output@@V?$positional_parameter_base@_WV?$stream_output_adapter@_W@__crt_stdio_output@@@2@@__crt_stdio_output@@AAE_NXZ 1003f8a3 f i libucrt:output.obj
 0001:0003e940       ?type_case_s@?$output_processor@_WV?$stream_output_adapter@_W@__crt_stdio_output@@V?$standard_base@_WV?$stream_output_adapter@_W@__crt_stdio_output@@@2@@__crt_stdio_output@@AAE_NXZ 1003f940 f i libucrt:output.obj
 0001:0003e9d1       ?type_case_s@?$output_processor@_WV?$string_output_adapter@_W@__crt_stdio_output@@V?$format_validation_base@_WV?$string_output_adapter@_W@__crt_stdio_output@@@2@@__crt_stdio_output@@AAE_NXZ 1003f9d1 f i libucrt:output.obj
 0001:0003ea62       ?type_case_s@?$output_processor@_WV?$string_output_adapter@_W@__crt_stdio_output@@V?$positional_parameter_base@_WV?$string_output_adapter@_W@__crt_stdio_output@@@2@@__crt_stdio_output@@AAE_NXZ 1003fa62 f i libucrt:output.obj
 0001:0003eaff       ?type_case_s@?$output_processor@_WV?$string_output_adapter@_W@__crt_stdio_output@@V?$standard_base@_WV?$string_output_adapter@_W@__crt_stdio_output@@@2@@__crt_stdio_output@@AAE_NXZ 1003faff f i libucrt:output.obj
 0001:0003eb90       ?type_case_s_compute_narrow_string_length@?$output_processor@DV?$stream_output_adapter@D@__crt_stdio_output@@V?$format_validation_base@DV?$stream_output_adapter@D@__crt_stdio_output@@@2@@__crt_stdio_output@@ABEHHD@Z 1003fb90 f i libucrt:output.obj
 0001:0003ebab       ?type_case_s_compute_narrow_string_length@?$output_processor@DV?$stream_output_adapter@D@__crt_stdio_output@@V?$positional_parameter_base@DV?$stream_output_adapter@D@__crt_stdio_output@@@2@@__crt_stdio_output@@ABEHHD@Z 1003fbab f i libucrt:output.obj
 0001:0003ebc6       ?type_case_s_compute_narrow_string_length@?$output_processor@DV?$stream_output_adapter@D@__crt_stdio_output@@V?$standard_base@DV?$stream_output_adapter@D@__crt_stdio_output@@@2@@__crt_stdio_output@@ABEHHD@Z 1003fbc6 f i libucrt:output.obj
 0001:0003ebe1       ?type_case_s_compute_narrow_string_length@?$output_processor@DV?$string_output_adapter@D@__crt_stdio_output@@V?$format_validation_base@DV?$string_output_adapter@D@__crt_stdio_output@@@2@@__crt_stdio_output@@ABEHHD@Z 1003fbe1 f i libucrt:output.obj
 0001:0003ebfc       ?type_case_s_compute_narrow_string_length@?$output_processor@DV?$string_output_adapter@D@__crt_stdio_output@@V?$positional_parameter_base@DV?$string_output_adapter@D@__crt_stdio_output@@@2@@__crt_stdio_output@@ABEHHD@Z 1003fbfc f i libucrt:output.obj
 0001:0003ec17       ?type_case_s_compute_narrow_string_length@?$output_processor@DV?$string_output_adapter@D@__crt_stdio_output@@V?$standard_base@DV?$string_output_adapter@D@__crt_stdio_output@@@2@@__crt_stdio_output@@ABEHHD@Z 1003fc17 f i libucrt:output.obj
 0001:0003ec32       ?type_case_s_compute_narrow_string_length@?$output_processor@_WV?$stream_output_adapter@_W@__crt_stdio_output@@V?$format_validation_base@_WV?$stream_output_adapter@_W@__crt_stdio_output@@@2@@__crt_stdio_output@@ABEHH_W@Z 1003fc32 f i libucrt:output.obj
 0001:0003ec82       ?type_case_s_compute_narrow_string_length@?$output_processor@_WV?$stream_output_adapter@_W@__crt_stdio_output@@V?$positional_parameter_base@_WV?$stream_output_adapter@_W@__crt_stdio_output@@@2@@__crt_stdio_output@@ABEHH_W@Z 1003fc82 f i libucrt:output.obj
 0001:0003ecd2       ?type_case_s_compute_narrow_string_length@?$output_processor@_WV?$stream_output_adapter@_W@__crt_stdio_output@@V?$standard_base@_WV?$stream_output_adapter@_W@__crt_stdio_output@@@2@@__crt_stdio_output@@ABEHH_W@Z 1003fcd2 f i libucrt:output.obj
 0001:0003ed22       ?type_case_s_compute_narrow_string_length@?$output_processor@_WV?$string_output_adapter@_W@__crt_stdio_output@@V?$format_validation_base@_WV?$string_output_adapter@_W@__crt_stdio_output@@@2@@__crt_stdio_output@@ABEHH_W@Z 1003fd22 f i libucrt:output.obj
 0001:0003ed72       ?type_case_s_compute_narrow_string_length@?$output_processor@_WV?$string_output_adapter@_W@__crt_stdio_output@@V?$positional_parameter_base@_WV?$string_output_adapter@_W@__crt_stdio_output@@@2@@__crt_stdio_output@@ABEHH_W@Z 1003fd72 f i libucrt:output.obj
 0001:0003edc2       ?type_case_s_compute_narrow_string_length@?$output_processor@_WV?$string_output_adapter@_W@__crt_stdio_output@@V?$standard_base@_WV?$string_output_adapter@_W@__crt_stdio_output@@@2@@__crt_stdio_output@@ABEHH_W@Z 1003fdc2 f i libucrt:output.obj
 0001:0003ee12       ?type_case_u@?$output_processor@DV?$stream_output_adapter@D@__crt_stdio_output@@V?$format_validation_base@DV?$stream_output_adapter@D@__crt_stdio_output@@@2@@__crt_stdio_output@@AAE_NXZ 1003fe12 f i libucrt:output.obj
 0001:0003ee1e       ?type_case_u@?$output_processor@DV?$stream_output_adapter@D@__crt_stdio_output@@V?$positional_parameter_base@DV?$stream_output_adapter@D@__crt_stdio_output@@@2@@__crt_stdio_output@@AAE_NXZ 1003fe1e f i libucrt:output.obj
 0001:0003ee2a       ?type_case_u@?$output_processor@DV?$stream_output_adapter@D@__crt_stdio_output@@V?$standard_base@DV?$stream_output_adapter@D@__crt_stdio_output@@@2@@__crt_stdio_output@@AAE_NXZ 1003fe2a f i libucrt:output.obj
 0001:0003ee36       ?type_case_u@?$output_processor@DV?$string_output_adapter@D@__crt_stdio_output@@V?$format_validation_base@DV?$string_output_adapter@D@__crt_stdio_output@@@2@@__crt_stdio_output@@AAE_NXZ 1003fe36 f i libucrt:output.obj
 0001:0003ee42       ?type_case_u@?$output_processor@DV?$string_output_adapter@D@__crt_stdio_output@@V?$positional_parameter_base@DV?$string_output_adapter@D@__crt_stdio_output@@@2@@__crt_stdio_output@@AAE_NXZ 1003fe42 f i libucrt:output.obj
 0001:0003ee4e       ?type_case_u@?$output_processor@DV?$string_output_adapter@D@__crt_stdio_output@@V?$standard_base@DV?$string_output_adapter@D@__crt_stdio_output@@@2@@__crt_stdio_output@@AAE_NXZ 1003fe4e f i libucrt:output.obj
 0001:0003ee5a       ?type_case_u@?$output_processor@_WV?$stream_output_adapter@_W@__crt_stdio_output@@V?$format_validation_base@_WV?$stream_output_adapter@_W@__crt_stdio_output@@@2@@__crt_stdio_output@@AAE_NXZ 1003fe5a f i libucrt:output.obj
 0001:0003ee66       ?type_case_u@?$output_processor@_WV?$stream_output_adapter@_W@__crt_stdio_output@@V?$positional_parameter_base@_WV?$stream_output_adapter@_W@__crt_stdio_output@@@2@@__crt_stdio_output@@AAE_NXZ 1003fe66 f i libucrt:output.obj
 0001:0003ee72       ?type_case_u@?$output_processor@_WV?$stream_output_adapter@_W@__crt_stdio_output@@V?$standard_base@_WV?$stream_output_adapter@_W@__crt_stdio_output@@@2@@__crt_stdio_output@@AAE_NXZ 1003fe72 f i libucrt:output.obj
 0001:0003ee7e       ?type_case_u@?$output_processor@_WV?$string_output_adapter@_W@__crt_stdio_output@@V?$format_validation_base@_WV?$string_output_adapter@_W@__crt_stdio_output@@@2@@__crt_stdio_output@@AAE_NXZ 1003fe7e f i libucrt:output.obj
 0001:0003ee8a       ?type_case_u@?$output_processor@_WV?$string_output_adapter@_W@__crt_stdio_output@@V?$positional_parameter_base@_WV?$string_output_adapter@_W@__crt_stdio_output@@@2@@__crt_stdio_output@@AAE_NXZ 1003fe8a f i libucrt:output.obj
 0001:0003ee96       ?type_case_u@?$output_processor@_WV?$string_output_adapter@_W@__crt_stdio_output@@V?$standard_base@_WV?$string_output_adapter@_W@__crt_stdio_output@@@2@@__crt_stdio_output@@AAE_NXZ 1003fe96 f i libucrt:output.obj
 0001:0003eea2       ?type_case_x@?$output_processor@DV?$stream_output_adapter@D@__crt_stdio_output@@V?$format_validation_base@DV?$stream_output_adapter@D@__crt_stdio_output@@@2@@__crt_stdio_output@@AAE_NXZ 1003fea2 f i libucrt:output.obj
 0001:0003eeae       ?type_case_x@?$output_processor@DV?$stream_output_adapter@D@__crt_stdio_output@@V?$positional_parameter_base@DV?$stream_output_adapter@D@__crt_stdio_output@@@2@@__crt_stdio_output@@AAE_NXZ 1003feae f i libucrt:output.obj
 0001:0003eeba       ?type_case_x@?$output_processor@DV?$stream_output_adapter@D@__crt_stdio_output@@V?$standard_base@DV?$stream_output_adapter@D@__crt_stdio_output@@@2@@__crt_stdio_output@@AAE_NXZ 1003feba f i libucrt:output.obj
 0001:0003eec6       ?type_case_x@?$output_processor@DV?$string_output_adapter@D@__crt_stdio_output@@V?$format_validation_base@DV?$string_output_adapter@D@__crt_stdio_output@@@2@@__crt_stdio_output@@AAE_NXZ 1003fec6 f i libucrt:output.obj
 0001:0003eed2       ?type_case_x@?$output_processor@DV?$string_output_adapter@D@__crt_stdio_output@@V?$positional_parameter_base@DV?$string_output_adapter@D@__crt_stdio_output@@@2@@__crt_stdio_output@@AAE_NXZ 1003fed2 f i libucrt:output.obj
 0001:0003eede       ?type_case_x@?$output_processor@DV?$string_output_adapter@D@__crt_stdio_output@@V?$standard_base@DV?$string_output_adapter@D@__crt_stdio_output@@@2@@__crt_stdio_output@@AAE_NXZ 1003fede f i libucrt:output.obj
 0001:0003eeea       ?type_case_x@?$output_processor@_WV?$stream_output_adapter@_W@__crt_stdio_output@@V?$format_validation_base@_WV?$stream_output_adapter@_W@__crt_stdio_output@@@2@@__crt_stdio_output@@AAE_NXZ 1003feea f i libucrt:output.obj
 0001:0003eef6       ?type_case_x@?$output_processor@_WV?$stream_output_adapter@_W@__crt_stdio_output@@V?$positional_parameter_base@_WV?$stream_output_adapter@_W@__crt_stdio_output@@@2@@__crt_stdio_output@@AAE_NXZ 1003fef6 f i libucrt:output.obj
 0001:0003ef02       ?type_case_x@?$output_processor@_WV?$stream_output_adapter@_W@__crt_stdio_output@@V?$standard_base@_WV?$stream_output_adapter@_W@__crt_stdio_output@@@2@@__crt_stdio_output@@AAE_NXZ 1003ff02 f i libucrt:output.obj
 0001:0003ef0e       ?type_case_x@?$output_processor@_WV?$string_output_adapter@_W@__crt_stdio_output@@V?$format_validation_base@_WV?$string_output_adapter@_W@__crt_stdio_output@@@2@@__crt_stdio_output@@AAE_NXZ 1003ff0e f i libucrt:output.obj
 0001:0003ef1a       ?type_case_x@?$output_processor@_WV?$string_output_adapter@_W@__crt_stdio_output@@V?$positional_parameter_base@_WV?$string_output_adapter@_W@__crt_stdio_output@@@2@@__crt_stdio_output@@AAE_NXZ 1003ff1a f i libucrt:output.obj
 0001:0003ef26       ?type_case_x@?$output_processor@_WV?$string_output_adapter@_W@__crt_stdio_output@@V?$standard_base@_WV?$string_output_adapter@_W@__crt_stdio_output@@@2@@__crt_stdio_output@@AAE_NXZ 1003ff26 f i libucrt:output.obj
 0001:0003ef32       ?unset_flag@?$output_processor@DV?$stream_output_adapter@D@__crt_stdio_output@@V?$format_validation_base@DV?$stream_output_adapter@D@__crt_stdio_output@@@2@@__crt_stdio_output@@AAEXI@Z 1003ff32 f i libucrt:output.obj
 0001:0003ef47       ?unset_flag@?$output_processor@DV?$stream_output_adapter@D@__crt_stdio_output@@V?$positional_parameter_base@DV?$stream_output_adapter@D@__crt_stdio_output@@@2@@__crt_stdio_output@@AAEXI@Z 1003ff47 f i libucrt:output.obj
 0001:0003ef5c       ?unset_flag@?$output_processor@DV?$stream_output_adapter@D@__crt_stdio_output@@V?$standard_base@DV?$stream_output_adapter@D@__crt_stdio_output@@@2@@__crt_stdio_output@@AAEXI@Z 1003ff5c f i libucrt:output.obj
 0001:0003ef71       ?unset_flag@?$output_processor@DV?$string_output_adapter@D@__crt_stdio_output@@V?$format_validation_base@DV?$string_output_adapter@D@__crt_stdio_output@@@2@@__crt_stdio_output@@AAEXI@Z 1003ff71 f i libucrt:output.obj
 0001:0003ef86       ?unset_flag@?$output_processor@DV?$string_output_adapter@D@__crt_stdio_output@@V?$positional_parameter_base@DV?$string_output_adapter@D@__crt_stdio_output@@@2@@__crt_stdio_output@@AAEXI@Z 1003ff86 f i libucrt:output.obj
 0001:0003ef9b       ?unset_flag@?$output_processor@DV?$string_output_adapter@D@__crt_stdio_output@@V?$standard_base@DV?$string_output_adapter@D@__crt_stdio_output@@@2@@__crt_stdio_output@@AAEXI@Z 1003ff9b f i libucrt:output.obj
 0001:0003efb0       ?unset_flag@?$output_processor@_WV?$stream_output_adapter@_W@__crt_stdio_output@@V?$format_validation_base@_WV?$stream_output_adapter@_W@__crt_stdio_output@@@2@@__crt_stdio_output@@AAEXI@Z 1003ffb0 f i libucrt:output.obj
 0001:0003efc5       ?unset_flag@?$output_processor@_WV?$stream_output_adapter@_W@__crt_stdio_output@@V?$positional_parameter_base@_WV?$stream_output_adapter@_W@__crt_stdio_output@@@2@@__crt_stdio_output@@AAEXI@Z 1003ffc5 f i libucrt:output.obj
 0001:0003efda       ?unset_flag@?$output_processor@_WV?$stream_output_adapter@_W@__crt_stdio_output@@V?$standard_base@_WV?$stream_output_adapter@_W@__crt_stdio_output@@@2@@__crt_stdio_output@@AAEXI@Z 1003ffda f i libucrt:output.obj
 0001:0003efef       ?unset_flag@?$output_processor@_WV?$string_output_adapter@_W@__crt_stdio_output@@V?$format_validation_base@_WV?$string_output_adapter@_W@__crt_stdio_output@@@2@@__crt_stdio_output@@AAEXI@Z 1003ffef f i libucrt:output.obj
 0001:0003f004       ?unset_flag@?$output_processor@_WV?$string_output_adapter@_W@__crt_stdio_output@@V?$positional_parameter_base@_WV?$string_output_adapter@_W@__crt_stdio_output@@@2@@__crt_stdio_output@@AAEXI@Z 10040004 f i libucrt:output.obj
 0001:0003f019       ?unset_flag@?$output_processor@_WV?$string_output_adapter@_W@__crt_stdio_output@@V?$standard_base@_WV?$string_output_adapter@_W@__crt_stdio_output@@@2@@__crt_stdio_output@@AAEXI@Z 10040019 f i libucrt:output.obj
 0001:0003f02e       ?update_field_width@?$positional_parameter_base@DV?$stream_output_adapter@D@__crt_stdio_output@@@__crt_stdio_output@@IAE_NXZ 1004002e f i libucrt:output.obj
 0001:0003f111       ?update_field_width@?$positional_parameter_base@DV?$string_output_adapter@D@__crt_stdio_output@@@__crt_stdio_output@@IAE_NXZ 10040111 f i libucrt:output.obj
 0001:0003f1f4       ?update_field_width@?$positional_parameter_base@_WV?$stream_output_adapter@_W@__crt_stdio_output@@@__crt_stdio_output@@IAE_NXZ 100401f4 f i libucrt:output.obj
 0001:0003f2d8       ?update_field_width@?$positional_parameter_base@_WV?$string_output_adapter@_W@__crt_stdio_output@@@__crt_stdio_output@@IAE_NXZ 100402d8 f i libucrt:output.obj
 0001:0003f3bc       ?update_field_width@?$standard_base@DV?$stream_output_adapter@D@__crt_stdio_output@@@__crt_stdio_output@@IAE_NXZ 100403bc f i libucrt:output.obj
 0001:0003f3d0       ?update_field_width@?$standard_base@DV?$string_output_adapter@D@__crt_stdio_output@@@__crt_stdio_output@@IAE_NXZ 100403d0 f i libucrt:output.obj
 0001:0003f3e4       ?update_field_width@?$standard_base@_WV?$stream_output_adapter@_W@__crt_stdio_output@@@__crt_stdio_output@@IAE_NXZ 100403e4 f i libucrt:output.obj
 0001:0003f3f8       ?update_field_width@?$standard_base@_WV?$string_output_adapter@_W@__crt_stdio_output@@@__crt_stdio_output@@IAE_NXZ 100403f8 f i libucrt:output.obj
 0001:0003f40c       ?update_precision@?$positional_parameter_base@DV?$stream_output_adapter@D@__crt_stdio_output@@@__crt_stdio_output@@IAE_NXZ 1004040c f i libucrt:output.obj
 0001:0003f4ef       ?update_precision@?$positional_parameter_base@DV?$string_output_adapter@D@__crt_stdio_output@@@__crt_stdio_output@@IAE_NXZ 100404ef f i libucrt:output.obj
 0001:0003f5d2       ?update_precision@?$positional_parameter_base@_WV?$stream_output_adapter@_W@__crt_stdio_output@@@__crt_stdio_output@@IAE_NXZ 100405d2 f i libucrt:output.obj
 0001:0003f6b6       ?update_precision@?$positional_parameter_base@_WV?$string_output_adapter@_W@__crt_stdio_output@@@__crt_stdio_output@@IAE_NXZ 100406b6 f i libucrt:output.obj
 0001:0003f79a       ?update_precision@?$standard_base@DV?$stream_output_adapter@D@__crt_stdio_output@@@__crt_stdio_output@@IAE_NXZ 1004079a f i libucrt:output.obj
 0001:0003f7ae       ?update_precision@?$standard_base@DV?$string_output_adapter@D@__crt_stdio_output@@@__crt_stdio_output@@IAE_NXZ 100407ae f i libucrt:output.obj
 0001:0003f7c2       ?update_precision@?$standard_base@_WV?$stream_output_adapter@_W@__crt_stdio_output@@@__crt_stdio_output@@IAE_NXZ 100407c2 f i libucrt:output.obj
 0001:0003f7d6       ?update_precision@?$standard_base@_WV?$string_output_adapter@_W@__crt_stdio_output@@@__crt_stdio_output@@IAE_NXZ 100407d6 f i libucrt:output.obj
 0001:0003f7ea       ?valid@__crt_stdio_stream@@QBE_NXZ 100407ea f i libucrt:output.obj
 0001:0003f7f4       ?validate@?$stream_output_adapter@D@__crt_stdio_output@@QBE_NXZ 100407f4 f i libucrt:output.obj
 0001:0003f81d       ?validate@?$stream_output_adapter@_W@__crt_stdio_output@@QBE_NXZ 1004081d f i libucrt:output.obj
 0001:0003f83e       ?validate@?$string_output_adapter@D@__crt_stdio_output@@QBE_NXZ 1004083e f i libucrt:output.obj
 0001:0003f85f       ?validate@?$string_output_adapter@_W@__crt_stdio_output@@QBE_NXZ 1004085f f i libucrt:output.obj
 0001:0003f880       ?validate_and_store_parameter_data@?$positional_parameter_base@DV?$stream_output_adapter@D@__crt_stdio_output@@@__crt_stdio_output@@AAE_NAAUparameter_data@12@W4parameter_type@12@DW4length_modifier@2@@Z 10040880 f i libucrt:output.obj
 0001:0003f8dd       ?validate_and_store_parameter_data@?$positional_parameter_base@DV?$string_output_adapter@D@__crt_stdio_output@@@__crt_stdio_output@@AAE_NAAUparameter_data@12@W4parameter_type@12@DW4length_modifier@2@@Z 100408dd f i libucrt:output.obj
 0001:0003f93a       ?validate_and_store_parameter_data@?$positional_parameter_base@_WV?$stream_output_adapter@_W@__crt_stdio_output@@@__crt_stdio_output@@AAE_NAAUparameter_data@12@W4parameter_type@12@_WW4length_modifier@2@@Z 1004093a f i libucrt:output.obj
 0001:0003f99a       ?validate_and_store_parameter_data@?$positional_parameter_base@_WV?$string_output_adapter@_W@__crt_stdio_output@@@__crt_stdio_output@@AAE_NAAUparameter_data@12@W4parameter_type@12@_WW4length_modifier@2@@Z 1004099a f i libucrt:output.obj
 0001:0003f9fa       ?validate_and_update_state_at_beginning_of_format_character@?$positional_parameter_base@DV?$stream_output_adapter@D@__crt_stdio_output@@@__crt_stdio_output@@IAE_NXZ 100409fa f i libucrt:output.obj
 0001:0003fb30       ?validate_and_update_state_at_beginning_of_format_character@?$positional_parameter_base@DV?$string_output_adapter@D@__crt_stdio_output@@@__crt_stdio_output@@IAE_NXZ 10040b30 f i libucrt:output.obj
 0001:0003fc66       ?validate_and_update_state_at_beginning_of_format_character@?$positional_parameter_base@_WV?$stream_output_adapter@_W@__crt_stdio_output@@@__crt_stdio_output@@IAE_NXZ 10040c66 f i libucrt:output.obj
 0001:0003fda8       ?validate_and_update_state_at_beginning_of_format_character@?$positional_parameter_base@_WV?$string_output_adapter@_W@__crt_stdio_output@@@__crt_stdio_output@@IAE_NXZ 10040da8 f i libucrt:output.obj
 0001:0003feea       ?validate_and_update_state_at_beginning_of_format_character@?$standard_base@DV?$stream_output_adapter@D@__crt_stdio_output@@@__crt_stdio_output@@IAE_NXZ 10040eea f i libucrt:output.obj
 0001:0003feed       ?validate_and_update_state_at_beginning_of_format_character@?$standard_base@DV?$string_output_adapter@D@__crt_stdio_output@@@__crt_stdio_output@@IAE_NXZ 10040eed f i libucrt:output.obj
 0001:0003fef0       ?validate_and_update_state_at_beginning_of_format_character@?$standard_base@_WV?$stream_output_adapter@_W@__crt_stdio_output@@@__crt_stdio_output@@IAE_NXZ 10040ef0 f i libucrt:output.obj
 0001:0003fef3       ?validate_and_update_state_at_beginning_of_format_character@?$standard_base@_WV?$string_output_adapter@_W@__crt_stdio_output@@@__crt_stdio_output@@IAE_NXZ 10040ef3 f i libucrt:output.obj
 0001:0003fef6       ?validate_and_update_state_at_end_of_format_string@?$format_validation_base@DV?$stream_output_adapter@D@__crt_stdio_output@@@__crt_stdio_output@@IBE_NXZ 10040ef6 f i libucrt:output.obj
 0001:0003ff20       ?validate_and_update_state_at_end_of_format_string@?$format_validation_base@DV?$string_output_adapter@D@__crt_stdio_output@@@__crt_stdio_output@@IBE_NXZ 10040f20 f i libucrt:output.obj
 0001:0003ff4a       ?validate_and_update_state_at_end_of_format_string@?$format_validation_base@_WV?$stream_output_adapter@_W@__crt_stdio_output@@@__crt_stdio_output@@IBE_NXZ 10040f4a f i libucrt:output.obj
 0001:0003ff74       ?validate_and_update_state_at_end_of_format_string@?$format_validation_base@_WV?$string_output_adapter@_W@__crt_stdio_output@@@__crt_stdio_output@@IBE_NXZ 10040f74 f i libucrt:output.obj
 0001:0003ff9e       ?validate_and_update_state_at_end_of_format_string@?$positional_parameter_base@DV?$stream_output_adapter@D@__crt_stdio_output@@@__crt_stdio_output@@IAE_NXZ 10040f9e f i libucrt:output.obj
 0001:0004003e       ?validate_and_update_state_at_end_of_format_string@?$positional_parameter_base@DV?$string_output_adapter@D@__crt_stdio_output@@@__crt_stdio_output@@IAE_NXZ 1004103e f i libucrt:output.obj
 0001:000400de       ?validate_and_update_state_at_end_of_format_string@?$positional_parameter_base@_WV?$stream_output_adapter@_W@__crt_stdio_output@@@__crt_stdio_output@@IAE_NXZ 100410de f i libucrt:output.obj
 0001:0004017e       ?validate_and_update_state_at_end_of_format_string@?$positional_parameter_base@_WV?$string_output_adapter@_W@__crt_stdio_output@@@__crt_stdio_output@@IAE_NXZ 1004117e f i libucrt:output.obj
 0001:0004021e       ?validate_and_update_state_at_end_of_format_string@?$standard_base@DV?$stream_output_adapter@D@__crt_stdio_output@@@__crt_stdio_output@@IBE_NXZ 1004121e f i libucrt:output.obj
 0001:00040221       ?validate_and_update_state_at_end_of_format_string@?$standard_base@DV?$string_output_adapter@D@__crt_stdio_output@@@__crt_stdio_output@@IBE_NXZ 10041221 f i libucrt:output.obj
 0001:00040224       ?validate_and_update_state_at_end_of_format_string@?$standard_base@_WV?$stream_output_adapter@_W@__crt_stdio_output@@@__crt_stdio_output@@IBE_NXZ 10041224 f i libucrt:output.obj
 0001:00040227       ?validate_and_update_state_at_end_of_format_string@?$standard_base@_WV?$string_output_adapter@_W@__crt_stdio_output@@@__crt_stdio_output@@IBE_NXZ 10041227 f i libucrt:output.obj
 0001:0004022a       ?validate_state_for_type_case_a@?$positional_parameter_base@DV?$stream_output_adapter@D@__crt_stdio_output@@@__crt_stdio_output@@IAE_NXZ 1004122a f i libucrt:output.obj
 0001:00040291       ?validate_state_for_type_case_a@?$positional_parameter_base@DV?$string_output_adapter@D@__crt_stdio_output@@@__crt_stdio_output@@IAE_NXZ 10041291 f i libucrt:output.obj
 0001:000402f8       ?validate_state_for_type_case_a@?$positional_parameter_base@_WV?$stream_output_adapter@_W@__crt_stdio_output@@@__crt_stdio_output@@IAE_NXZ 100412f8 f i libucrt:output.obj
 0001:0004035f       ?validate_state_for_type_case_a@?$positional_parameter_base@_WV?$string_output_adapter@_W@__crt_stdio_output@@@__crt_stdio_output@@IAE_NXZ 1004135f f i libucrt:output.obj
 0001:000403c6       ?validate_state_for_type_case_a@?$standard_base@DV?$stream_output_adapter@D@__crt_stdio_output@@@__crt_stdio_output@@IBE_NXZ 100413c6 f i libucrt:output.obj
 0001:000403c9       ?validate_state_for_type_case_a@?$standard_base@DV?$string_output_adapter@D@__crt_stdio_output@@@__crt_stdio_output@@IBE_NXZ 100413c9 f i libucrt:output.obj
 0001:000403cc       ?validate_state_for_type_case_a@?$standard_base@_WV?$stream_output_adapter@_W@__crt_stdio_output@@@__crt_stdio_output@@IBE_NXZ 100413cc f i libucrt:output.obj
 0001:000403cf       ?validate_state_for_type_case_a@?$standard_base@_WV?$string_output_adapter@_W@__crt_stdio_output@@@__crt_stdio_output@@IBE_NXZ 100413cf f i libucrt:output.obj
 0001:000403d2       ?validate_stream_is_ansi_if_required@?$__acrt_stdio_char_traits@D@@SA_NQAU_iobuf@@@Z 100413d2 f i libucrt:output.obj
 0001:00040474       ?validate_stream_is_ansi_if_required@?$__acrt_stdio_char_traits@_W@@SA_NQAU_iobuf@@@Z 10041474 f i libucrt:output.obj
 0001:00040477       ?wide_null_string@?$output_processor@DV?$stream_output_adapter@D@__crt_stdio_output@@V?$format_validation_base@DV?$stream_output_adapter@D@__crt_stdio_output@@@2@@__crt_stdio_output@@CAPA_WXZ 10041477 f i libucrt:output.obj
 0001:0004047d       ?wide_null_string@?$output_processor@DV?$stream_output_adapter@D@__crt_stdio_output@@V?$positional_parameter_base@DV?$stream_output_adapter@D@__crt_stdio_output@@@2@@__crt_stdio_output@@CAPA_WXZ 1004147d f i libucrt:output.obj
 0001:00040483       ?wide_null_string@?$output_processor@DV?$stream_output_adapter@D@__crt_stdio_output@@V?$standard_base@DV?$stream_output_adapter@D@__crt_stdio_output@@@2@@__crt_stdio_output@@CAPA_WXZ 10041483 f i libucrt:output.obj
 0001:00040489       ?wide_null_string@?$output_processor@DV?$string_output_adapter@D@__crt_stdio_output@@V?$format_validation_base@DV?$string_output_adapter@D@__crt_stdio_output@@@2@@__crt_stdio_output@@CAPA_WXZ 10041489 f i libucrt:output.obj
 0001:0004048f       ?wide_null_string@?$output_processor@DV?$string_output_adapter@D@__crt_stdio_output@@V?$positional_parameter_base@DV?$string_output_adapter@D@__crt_stdio_output@@@2@@__crt_stdio_output@@CAPA_WXZ 1004148f f i libucrt:output.obj
 0001:00040495       ?wide_null_string@?$output_processor@DV?$string_output_adapter@D@__crt_stdio_output@@V?$standard_base@DV?$string_output_adapter@D@__crt_stdio_output@@@2@@__crt_stdio_output@@CAPA_WXZ 10041495 f i libucrt:output.obj
 0001:0004049b       ?wide_null_string@?$output_processor@_WV?$stream_output_adapter@_W@__crt_stdio_output@@V?$format_validation_base@_WV?$stream_output_adapter@_W@__crt_stdio_output@@@2@@__crt_stdio_output@@CAPA_WXZ 1004149b f i libucrt:output.obj
 0001:000404a1       ?wide_null_string@?$output_processor@_WV?$stream_output_adapter@_W@__crt_stdio_output@@V?$positional_parameter_base@_WV?$stream_output_adapter@_W@__crt_stdio_output@@@2@@__crt_stdio_output@@CAPA_WXZ 100414a1 f i libucrt:output.obj
 0001:000404a7       ?wide_null_string@?$output_processor@_WV?$stream_output_adapter@_W@__crt_stdio_output@@V?$standard_base@_WV?$stream_output_adapter@_W@__crt_stdio_output@@@2@@__crt_stdio_output@@CAPA_WXZ 100414a7 f i libucrt:output.obj
 0001:000404ad       ?wide_null_string@?$output_processor@_WV?$string_output_adapter@_W@__crt_stdio_output@@V?$format_validation_base@_WV?$string_output_adapter@_W@__crt_stdio_output@@@2@@__crt_stdio_output@@CAPA_WXZ 100414ad f i libucrt:output.obj
 0001:000404b3       ?wide_null_string@?$output_processor@_WV?$string_output_adapter@_W@__crt_stdio_output@@V?$positional_parameter_base@_WV?$string_output_adapter@_W@__crt_stdio_output@@@2@@__crt_stdio_output@@CAPA_WXZ 100414b3 f i libucrt:output.obj
 0001:000404b9       ?wide_null_string@?$output_processor@_WV?$string_output_adapter@_W@__crt_stdio_output@@V?$standard_base@_WV?$string_output_adapter@_W@__crt_stdio_output@@@2@@__crt_stdio_output@@CAPA_WXZ 100414b9 f i libucrt:output.obj
 0001:000404bf       ?write_character@?$stream_output_adapter@D@__crt_stdio_output@@QBEXDQAH@Z 100414bf f i libucrt:output.obj
 0001:0004050b       ?write_character@?$stream_output_adapter@_W@__crt_stdio_output@@QBEX_WQAH@Z 1004150b f i libucrt:output.obj
 0001:0004055b       ?write_character@?$string_output_adapter@D@__crt_stdio_output@@QBE_NDQAH@Z 1004155b f i libucrt:output.obj
 0001:000405ad       ?write_character@?$string_output_adapter@_W@__crt_stdio_output@@QBE_N_WQAH@Z 100415ad f i libucrt:output.obj
 0001:00040603       ?write_stored_string_tchar@?$output_processor@DV?$stream_output_adapter@D@__crt_stdio_output@@V?$format_validation_base@DV?$stream_output_adapter@D@__crt_stdio_output@@@2@@__crt_stdio_output@@AAE_ND@Z 10041603 f i libucrt:output.obj
 0001:000406d3       ?write_stored_string_tchar@?$output_processor@DV?$stream_output_adapter@D@__crt_stdio_output@@V?$positional_parameter_base@DV?$stream_output_adapter@D@__crt_stdio_output@@@2@@__crt_stdio_output@@AAE_ND@Z 100416d3 f i libucrt:output.obj
 0001:000407a3       ?write_stored_string_tchar@?$output_processor@DV?$stream_output_adapter@D@__crt_stdio_output@@V?$standard_base@DV?$stream_output_adapter@D@__crt_stdio_output@@@2@@__crt_stdio_output@@AAE_ND@Z 100417a3 f i libucrt:output.obj
 0001:00040873       ?write_stored_string_tchar@?$output_processor@DV?$string_output_adapter@D@__crt_stdio_output@@V?$format_validation_base@DV?$string_output_adapter@D@__crt_stdio_output@@@2@@__crt_stdio_output@@AAE_ND@Z 10041873 f i libucrt:output.obj
 0001:00040943       ?write_stored_string_tchar@?$output_processor@DV?$string_output_adapter@D@__crt_stdio_output@@V?$positional_parameter_base@DV?$string_output_adapter@D@__crt_stdio_output@@@2@@__crt_stdio_output@@AAE_ND@Z 10041943 f i libucrt:output.obj
 0001:00040a13       ?write_stored_string_tchar@?$output_processor@DV?$string_output_adapter@D@__crt_stdio_output@@V?$standard_base@DV?$string_output_adapter@D@__crt_stdio_output@@@2@@__crt_stdio_output@@AAE_ND@Z 10041a13 f i libucrt:output.obj
 0001:00040ae3       ?write_stored_string_tchar@?$output_processor@_WV?$stream_output_adapter@_W@__crt_stdio_output@@V?$format_validation_base@_WV?$stream_output_adapter@_W@__crt_stdio_output@@@2@@__crt_stdio_output@@AAE_N_W@Z 10041ae3 f i libucrt:output.obj
 0001:00040b90       ?write_stored_string_tchar@?$output_processor@_WV?$stream_output_adapter@_W@__crt_stdio_output@@V?$positional_parameter_base@_WV?$stream_output_adapter@_W@__crt_stdio_output@@@2@@__crt_stdio_output@@AAE_N_W@Z 10041b90 f i libucrt:output.obj
 0001:00040c3d       ?write_stored_string_tchar@?$output_processor@_WV?$stream_output_adapter@_W@__crt_stdio_output@@V?$standard_base@_WV?$stream_output_adapter@_W@__crt_stdio_output@@@2@@__crt_stdio_output@@AAE_N_W@Z 10041c3d f i libucrt:output.obj
 0001:00040cea       ?write_stored_string_tchar@?$output_processor@_WV?$string_output_adapter@_W@__crt_stdio_output@@V?$format_validation_base@_WV?$string_output_adapter@_W@__crt_stdio_output@@@2@@__crt_stdio_output@@AAE_N_W@Z 10041cea f i libucrt:output.obj
 0001:00040d97       ?write_stored_string_tchar@?$output_processor@_WV?$string_output_adapter@_W@__crt_stdio_output@@V?$positional_parameter_base@_WV?$string_output_adapter@_W@__crt_stdio_output@@@2@@__crt_stdio_output@@AAE_N_W@Z 10041d97 f i libucrt:output.obj
 0001:00040e44       ?write_stored_string_tchar@?$output_processor@_WV?$string_output_adapter@_W@__crt_stdio_output@@V?$standard_base@_WV?$string_output_adapter@_W@__crt_stdio_output@@@2@@__crt_stdio_output@@AAE_N_W@Z 10041e44 f i libucrt:output.obj
 0001:00040ef1       ?write_string@?$stream_output_adapter@D@__crt_stdio_output@@QBEXQBDHQAH1@Z 10041ef1 f i libucrt:output.obj
 0001:00040f9d       ?write_string@?$stream_output_adapter@_W@__crt_stdio_output@@QBEXQB_WHQAH1@Z 10041f9d f i libucrt:output.obj
 0001:0004104d       ?write_string@?$string_output_adapter@D@__crt_stdio_output@@QBEXQBDHQAH1@Z 1004204d f i libucrt:output.obj
 0001:00041104       ?write_string@?$string_output_adapter@_W@__crt_stdio_output@@QBEXQB_WHQAH1@Z 10042104 f i libucrt:output.obj
 0001:000411c4       ___acrt_isleadbyte_l_noupdate 100421c4 f i libucrt:output.obj
 0001:000411e5       ___acrt_locale_changed     100421e5 f i libucrt:output.obj
 0001:000411f6       ___stdio_common_vfprintf   100421f6 f   libucrt:output.obj
 0001:0004128a       ___stdio_common_vfprintf_p 1004228a f   libucrt:output.obj
 0001:0004131e       ___stdio_common_vfprintf_s 1004231e f   libucrt:output.obj
 0001:000413b2       ___stdio_common_vfwprintf  100423b2 f   libucrt:output.obj
 0001:00041446       ___stdio_common_vfwprintf_p 10042446 f   libucrt:output.obj
 0001:000414da       ___stdio_common_vfwprintf_s 100424da f   libucrt:output.obj
 0001:0004156e       ___stdio_common_vsnprintf_s 1004256e f   libucrt:output.obj
 0001:0004159e       ___stdio_common_vsnwprintf_s 1004259e f   libucrt:output.obj
 0001:000415ce       ___stdio_common_vsprintf   100425ce f   libucrt:output.obj
 0001:000415fb       ___stdio_common_vsprintf_p 100425fb f   libucrt:output.obj
 0001:00041628       ___stdio_common_vsprintf_s 10042628 f   libucrt:output.obj
 0001:00041655       ___stdio_common_vswprintf  10042655 f   libucrt:output.obj
 0001:00041682       ___stdio_common_vswprintf_p 10042682 f   libucrt:output.obj
 0001:000416af       ___stdio_common_vswprintf_s 100426af f   libucrt:output.obj
 0001:000416e0       _fmod                      100426e0 f   libucrt:87fmod.obj
 0001:000416ea       __CIfmod                   100426ea f   libucrt:87fmod.obj
 0001:0004170a       _calloc                    1004270a f   libucrt:calloc.obj
 0001:00041717       _free                      10042717 f   libucrt:free.obj
 0001:0004171c       _realloc                   1004271c f   libucrt:realloc.obj
 0001:00041729       ??$?B$$A6GXPAXK0@Z@__crt_fast_encoded_nullptr_t@@QBEP6GXPAXK0@ZXZ 10042729 f i libucrt:exit.obj
 0001:00041747       ??$__crt_fast_decode_pointer@P6GXPAXK0@Z@@YAP6GXPAXK0@ZQ6GX0K0@Z@Z 10042747 f i libucrt:exit.obj
 0001:00041762       ??$__crt_fast_encode_pointer@P6GXPAXK0@Z@@YAP6GXPAXK0@ZQ6GX0K0@Z@Z 10042762 f i libucrt:exit.obj
 0001:00041788       ??$__crt_get_proc_address@P6GXI@Z@@YAP6GXI@ZQAUHINSTANCE__@@QBD@Z 10042788 f i libucrt:exit.obj
 0001:0004179f       ??0?$__crt_unique_handle_t@U__crt_hmodule_traits@@@@QAE@QAUHINSTANCE__@@@Z 1004279f f i libucrt:exit.obj
 0001:000417b3       ??1?$__crt_unique_handle_t@U__crt_hmodule_traits@@@@QAE@XZ 100427b3 f i libucrt:exit.obj
 0001:000417e6       ?close@?$__crt_unique_handle_t@U__crt_hmodule_traits@@@@QAEXXZ 100427e6 f i libucrt:exit.obj
 0001:00041802       ?close@__crt_hmodule_traits@@SA_NPAUHINSTANCE__@@@Z 10042802 f i libucrt:exit.obj
 0001:000419cd       ?get@?$__crt_unique_handle_t@U__crt_hmodule_traits@@@@QBEPAUHINSTANCE__@@XZ 100429cd f i libucrt:exit.obj
 0001:000419d0       ?get_address_of@?$__crt_unique_handle_t@U__crt_hmodule_traits@@@@QAEPAPAUHINSTANCE__@@XZ 100429d0 f i libucrt:exit.obj
 0001:000419d3       ?get_invalid_value@__crt_hmodule_traits@@SAPAUHINSTANCE__@@XZ 100429d3 f i libucrt:exit.obj
 0001:00041ad0       __Exit                     10042ad0 f   libucrt:exit.obj
 0001:00041aeb       ___acrt_initialize_thread_local_exit_callback 10042aeb f   libucrt:exit.obj
 0001:00041afd       __c_exit                   10042afd f   libucrt:exit.obj
 0001:00041b0f       __cexit                    10042b0f f   libucrt:exit.obj
 0001:00041b21       __exit                     10042b21 f   libucrt:exit.obj
 0001:00041b3c       __is_c_termination_complete 10042b3c f   libucrt:exit.obj
 0001:00041b42       __register_thread_local_exe_atexit_callback 10042b42 f   libucrt:exit.obj
 0001:00041b88       _exit                      10042b88 f   libucrt:exit.obj
 0001:00041ba3       _quick_exit                10042ba3 f   libucrt:exit.obj
 0001:00041bc0       _strncat                   10042bc0 f   libucrt:strncat.obj
 0001:00041d50       _strncpy                   10042d50 f   libucrt:strncpy.obj
 0001:00041ebd       ?is_in_use@__crt_stdio_stream@@QBE_NXZ 10042ebd f i libucrt:fclose.obj
 0001:00041ecc       __fclose_nolock            10042ecc f   libucrt:fclose.obj
 0001:00041f5f       _fclose                    10042f5f f   libucrt:fclose.obj
 0001:00042291       ??$open_file@ABQBDABQBDABHPAU_iobuf@@@?$__crt_char_traits@D@@SAPAU_iobuf@@ABQBD0ABH$$QAPAU1@@Z 10043291 f i libucrt:fopen.obj
 0001:000422bc       ??$open_file@ABQB_WABQB_WABHPAU_iobuf@@@?$__crt_char_traits@_W@@SAPAU_iobuf@@ABQB_W0ABH$$QAPAU1@@Z 100432bc f i libucrt:fopen.obj
 0001:000422e7       ?unlock@__crt_stdio_stream@@QBEXXZ 100432e7 f i libucrt:fopen.obj
 0001:000422f2       __fsopen                   100432f2 f   libucrt:fopen.obj
 0001:000422ff       __wfopen                   100432ff f   libucrt:fopen.obj
 0001:0004231b       __wfopen_s                 1004331b f   libucrt:fopen.obj
 0001:00042373       __wfsopen                  10043373 f   libucrt:fopen.obj
 0001:00042380       _fopen                     10043380 f   libucrt:fopen.obj
 0001:0004239c       _fopen_s                   1004339c f   libucrt:fopen.obj
 0001:000423f4       ?has_any_buffer@__crt_stdio_stream@@QBE_NXZ 100433f4 f i libucrt:fread.obj
 0001:00042409       ?has_any_of@__crt_stdio_stream@@QBE_NJ@Z 10043409 f i libucrt:fread.obj
 0001:00042425       ?set_flags@__crt_stdio_stream@@QBE_NJ@Z 10043425 f i libucrt:fread.obj
 0001:00042455       __fread_nolock             10043455 f   libucrt:fread.obj
 0001:00042479       __fread_nolock_s           10043479 f   libucrt:fread.obj
 0001:000426b8       _fread                     100436b8 f   libucrt:fread.obj
 0001:000426dc       _fread_s                   100436dc f   libucrt:fread.obj
 0001:00042834       ??$?RV<lambda_11b4f7b0d3157825a5656a18eba1ae27>@@AAV<lambda_b51c0495177f500e782686251704ae76>@@V<lambda_cf89b47920b5017557bfe891e78aca36>@@@?$__crt_seh_guarded_call@I@@QAEI$$QAV<lambda_11b4f7b0d3157825a5656a18eba1ae27>@@AAV<lambda_b51c0495177f500e782686251704ae76>@@$$QAV<lambda_cf89b47920b5017557bfe891e78aca36>@@@Z 10043834 f i libucrt:fwrite.obj
 0001:00042899       ??$__acrt_lock_stream_and_call@V<lambda_b51c0495177f500e782686251704ae76>@@@@YAIQAU_iobuf@@$$QAV<lambda_b51c0495177f500e782686251704ae76>@@@Z 10043899 f i libucrt:fwrite.obj
 0001:0004298e       ?has_big_buffer@__crt_stdio_stream@@QBE_NXZ 1004398e f i libucrt:fwrite.obj
 0001:0004299f       __fwrite_nolock            1004399f f   libucrt:fwrite.obj
 0001:00042b76       _fwrite                    10043b76 f   libucrt:fwrite.obj
 0001:00042be4       ??$?R_W@__crt_internal_free_policy@@QBEXQB_W@Z 10043be4 f i libucrt:unlink.obj
 0001:00042bfa       ??0?$__crt_unique_heap_ptr@_WU__crt_internal_free_policy@@@@QAE@QA_W@Z 10043bfa f i libucrt:unlink.obj
 0001:00042c0e       ??1?$__crt_unique_heap_ptr@_WU__crt_internal_free_policy@@@@QAE@XZ 10043c0e f i libucrt:unlink.obj
 0001:00042c24       ?get@?$__crt_unique_heap_ptr@_WU__crt_internal_free_policy@@@@QBEPA_WXZ 10043c24 f i libucrt:unlink.obj
 0001:00042c27       ?get_address_of@?$__crt_unique_heap_ptr@_WU__crt_internal_free_policy@@@@QAEPAPA_WXZ 10043c27 f i libucrt:unlink.obj
 0001:00042c2a       ?release@?$__crt_unique_heap_ptr@_WU__crt_internal_free_policy@@@@QAEXXZ 10043c2a f i libucrt:unlink.obj
 0001:00042c40       __unlink                   10043c40 f   libucrt:unlink.obj
 0001:00042c4d       _remove                    10043c4d f   libucrt:unlink.obj
 0001:00042cad       ?__acrt_stdio_reset_buffer@@YAXV__crt_stdio_stream@@@Z 10043cad f i libucrt:rewind.obj
 0001:00042cc8       ?has_all_of@__crt_stdio_stream@@QBE_NJ@Z 10043cc8 f i libucrt:rewind.obj
 0001:00042ce7       ?unset_flags@__crt_stdio_stream@@QBE_NJ@Z 10043ce7 f i libucrt:rewind.obj
 0001:00042d1b       _rewind                    10043d1b f   libucrt:rewind.obj
 0001:00042e1c       _ldexp                     10043e1c f   libucrt:ldexp.obj
 0001:0004307c       ??$__vcrt_va_start_verify_argument_type@QB_W@@YAXXZ 1004407c f i libucrt:assert.obj
 0001:00044019       ??$ftprintf@PAU_iobuf@@PBDABQBDABQBDABI@?$__crt_char_traits@D@@SAH$$QAPAU_iobuf@@$$QAPBDABQBD2ABI@Z 10045019 f i libucrt:assert.obj
 0001:0004404b       ??$ftprintf@PAU_iobuf@@PB_WABQB_WABQB_WABI@?$__crt_char_traits@_W@@SAH$$QAPAU_iobuf@@$$QAPB_WABQB_W2ABI@Z 1004504b f i libucrt:assert.obj
 0001:0004407d       ??$get_module_file_name@AAPAUHINSTANCE__@@AAY0BAF@DK@?$__crt_char_traits@D@@SAKAAPAUHINSTANCE__@@AAY0BAF@D$$QAK@Z 1004507d f i libucrt:assert.obj
 0001:0004409d       ??$get_module_file_name@AAPAUHINSTANCE__@@AAY0BAF@_WK@?$__crt_char_traits@_W@@SAKAAPAUHINSTANCE__@@AAY0BAF@_W$$QAK@Z 1004509d f i libucrt:assert.obj
 0001:000440bd       ??$itot_s@ABIQAD$$CBIH@?$__crt_char_traits@D@@SAHABI$$QBQAD$$QBI$$QAH@Z 100450bd f i libucrt:assert.obj
 0001:000440e8       ??$itot_s@ABIQA_W$$CBIH@?$__crt_char_traits@_W@@SAHABI$$QBQA_W$$QBI$$QAH@Z 100450e8 f i libucrt:assert.obj
 0001:00044113       ??$show_message_box@AAY0CEA@DPBDJ@?$__crt_char_traits@D@@SAHAAY0CEA@D$$QAPBD$$QAJ@Z 10045113 f i libucrt:assert.obj
 0001:00044136       ??$show_message_box@AAY0CEA@_WPB_WJ@?$__crt_char_traits@_W@@SAHAAY0CEA@_W$$QAPB_W$$QAJ@Z 10045136 f i libucrt:assert.obj
 0001:00044159       ??$tcscat_s@ABQADABIAAPAD@?$__crt_char_traits@D@@SAHABQADABIAAPAD@Z 10045159 f i libucrt:assert.obj
 0001:0004417e       ??$tcscat_s@ABQADABIABQBD@?$__crt_char_traits@D@@SAHABQADABIABQBD@Z 1004517e f i libucrt:assert.obj
 0001:000441a3       ??$tcscat_s@ABQADABIPBD@?$__crt_char_traits@D@@SAHABQADABI$$QAPBD@Z 100451a3 f i libucrt:assert.obj
 0001:000441c8       ??$tcscat_s@ABQA_WABIAAPA_W@?$__crt_char_traits@_W@@SAHABQA_WABIAAPA_W@Z 100451c8 f i libucrt:assert.obj
 0001:000441ed       ??$tcscat_s@ABQA_WABIABQB_W@?$__crt_char_traits@_W@@SAHABQA_WABIABQB_W@Z 100451ed f i libucrt:assert.obj
 0001:00044212       ??$tcscat_s@ABQA_WABIPB_W@?$__crt_char_traits@_W@@SAHABQA_WABI$$QAPB_W@Z 10045212 f i libucrt:assert.obj
 0001:00044237       ??$tcscpy_s@AAY0BAF@DIPBD@?$__crt_char_traits@D@@SAHAAY0BAF@D$$QAI$$QAPBD@Z 10045237 f i libucrt:assert.obj
 0001:0004425a       ??$tcscpy_s@AAY0BAF@_WIPB_W@?$__crt_char_traits@_W@@SAHAAY0BAF@_W$$QAI$$QAPB_W@Z 1004525a f i libucrt:assert.obj
 0001:0004427d       ??$tcscpy_s@ABQADABIPBD@?$__crt_char_traits@D@@SAHABQADABI$$QAPBD@Z 1004527d f i libucrt:assert.obj
 0001:000442a2       ??$tcscpy_s@ABQA_WABIPB_W@?$__crt_char_traits@_W@@SAHABQA_WABI$$QAPB_W@Z 100452a2 f i libucrt:assert.obj
 0001:000442c7       ??$tcslen@AAY0BAF@D@?$__crt_char_traits@D@@SAIAAY0BAF@D@Z 100452c7 f i libucrt:assert.obj
 0001:000442e2       ??$tcslen@AAY0BAF@_W@?$__crt_char_traits@_W@@SAIAAY0BAF@_W@Z 100452e2 f i libucrt:assert.obj
 0001:00044305       ??$tcslen@ABQAD@?$__crt_char_traits@D@@SAIABQAD@Z 10045305 f i libucrt:assert.obj
 0001:00044323       ??$tcslen@ABQA_W@?$__crt_char_traits@_W@@SAIABQA_W@Z 10045323 f i libucrt:assert.obj
 0001:00044348       ??$tcslen@ABQBD@?$__crt_char_traits@D@@SAIABQBD@Z 10045348 f i libucrt:assert.obj
 0001:00044366       ??$tcslen@ABQB_W@?$__crt_char_traits@_W@@SAIABQB_W@Z 10045366 f i libucrt:assert.obj
 0001:0004438b       ??$tcsncat_s@ABQADABIAAPBD$$CBI@?$__crt_char_traits@D@@SAHABQADABIAAPBD$$QBI@Z 1004538b f i libucrt:assert.obj
 0001:000443b6       ??$tcsncat_s@ABQADABIABQBDABI@?$__crt_char_traits@D@@SAHABQADABIABQBD1@Z 100453b6 f i libucrt:assert.obj
 0001:000443e1       ??$tcsncat_s@ABQADABIPBD$$CBI@?$__crt_char_traits@D@@SAHABQADABI$$QAPBD$$QBI@Z 100453e1 f i libucrt:assert.obj
 0001:0004440c       ??$tcsncat_s@ABQA_WABIAAPB_W$$CBI@?$__crt_char_traits@_W@@SAHABQA_WABIAAPB_W$$QBI@Z 1004540c f i libucrt:assert.obj
 0001:00044437       ??$tcsncat_s@ABQA_WABIABQB_WABI@?$__crt_char_traits@_W@@SAHABQA_WABIABQB_W1@Z 10045437 f i libucrt:assert.obj
 0001:00044462       ??$tcsncat_s@ABQA_WABIPB_W$$CBI@?$__crt_char_traits@_W@@SAHABQA_WABI$$QAPB_W$$QBI@Z 10045462 f i libucrt:assert.obj
 0001:00044607       __assert                   10045607 f   libucrt:assert.obj
 0001:00044661       __invoke_watson_if_error   10045661 f i libucrt:assert.obj
 0001:0004468b       __vfwprintf_l              1004568b f i libucrt:assert.obj
 0001:000446b9       __vswprintf_c_l            100456b9 f i libucrt:assert.obj
 0001:000446f3       __wassert                  100456f3 f   libucrt:assert.obj
 0001:0004474d       _fwprintf                  1004574d f i libucrt:assert.obj
 0001:0004480f       _swprintf                  1004580f f i libucrt:assert.obj
 0001:00044834       __errcode                  10045834 f   libucrt:fpexcept.obj
 0001:00044875       __except1                  10045875 f   libucrt:fpexcept.obj
 0001:00044976       __except2                  10045976 f   libucrt:fpexcept.obj
 0001:00044abf       __handle_exc               10045abf f   libucrt:fpexcept.obj
 0001:00044d17       __handle_qnan2             10045d17 f   libucrt:fpexcept.obj
 0001:00044d27       __raise_exc                10045d27 f   libucrt:fpexcept.obj
 0001:00044d52       __raise_exc_ex             10045d52 f   libucrt:fpexcept.obj
 0001:000450ff       __raise_excf               100460ff f   libucrt:fpexcept.obj
 0001:0004512a       __set_errno_from_matherr   1004612a f   libucrt:fpexcept.obj
 0001:00045164       __umatherr                 10046164 f   libucrt:fpexcept.obj
 0001:0004522e       __initterm                 1004622e f   libucrt:initterm.obj
 0001:000452a1       __initterm_e               100462a1 f   libucrt:initterm.obj
 0001:00045324       __seh_filter_dll           10046324 f   libucrt:exception_filter.obj
 0001:0004534c       __seh_filter_exe           1004634c f   libucrt:exception_filter.obj
 0001:0004551b       ??$?RE@__crt_internal_free_policy@@QBEXQBE@Z 1004651b f i libucrt:argv_parsing.obj
 0001:00045531       ??$?RPAD@__crt_internal_free_policy@@QBEXQBQAD@Z 10046531 f i libucrt:argv_parsing.obj
 0001:00045547       ??$?RPA_W@__crt_internal_free_policy@@QBEXQBQA_W@Z 10046547 f i libucrt:argv_parsing.obj
 0001:00045830       ??$get_module_file_name@$$TAAY0BAF@DH@?$__crt_char_traits@D@@SAK$$QA$$TAAY0BAF@D$$QAH@Z 10046830 f i libucrt:argv_parsing.obj
 0001:00045850       ??$get_module_file_name@$$TAAY0BAF@_WH@?$__crt_char_traits@_W@@SAK$$QA$$TAAY0BAF@_W$$QAH@Z 10046850 f i libucrt:argv_parsing.obj
 0001:00045c29       ??$set_program_name@PAD@?$__crt_char_traits@D@@SAX$$QAPAD@Z 10046c29 f i libucrt:argv_parsing.obj
 0001:00045c3e       ??$set_program_name@PA_W@?$__crt_char_traits@_W@@SAX$$QAPA_W@Z 10046c3e f i libucrt:argv_parsing.obj
 0001:00045c7b       ??0?$__crt_unique_heap_ptr@EU__crt_internal_free_policy@@@@QAE@QAE@Z 10046c7b f i libucrt:argv_parsing.obj
 0001:00045c8f       ??0?$__crt_unique_heap_ptr@PADU__crt_internal_free_policy@@@@QAE@QAPAD@Z 10046c8f f i libucrt:argv_parsing.obj
 0001:00045ca3       ??0?$__crt_unique_heap_ptr@PA_WU__crt_internal_free_policy@@@@QAE@QAPA_W@Z 10046ca3 f i libucrt:argv_parsing.obj
 0001:00045cb7       ??1?$__crt_unique_heap_ptr@EU__crt_internal_free_policy@@@@QAE@XZ 10046cb7 f i libucrt:argv_parsing.obj
 0001:00045ccd       ??1?$__crt_unique_heap_ptr@PADU__crt_internal_free_policy@@@@QAE@XZ 10046ccd f i libucrt:argv_parsing.obj
 0001:00045ce3       ??1?$__crt_unique_heap_ptr@PA_WU__crt_internal_free_policy@@@@QAE@XZ 10046ce3 f i libucrt:argv_parsing.obj
 0001:00045cf9       ??B?$__crt_unique_heap_ptr@EU__crt_internal_free_policy@@@@QBE_NXZ 10046cf9 f i libucrt:argv_parsing.obj
 0001:00045d39       ?detach@?$__crt_unique_heap_ptr@EU__crt_internal_free_policy@@@@QAEPAEXZ 10046d39 f i libucrt:argv_parsing.obj
 0001:00045d3f       ?detach@?$__crt_unique_heap_ptr@PADU__crt_internal_free_policy@@@@QAEPAPADXZ 10046d3f f i libucrt:argv_parsing.obj
 0001:00045d45       ?detach@?$__crt_unique_heap_ptr@PA_WU__crt_internal_free_policy@@@@QAEPAPA_WXZ 10046d45 f i libucrt:argv_parsing.obj
 0001:00045d6b       ?get@?$__crt_unique_heap_ptr@EU__crt_internal_free_policy@@@@QBEPAEXZ 10046d6b f i libucrt:argv_parsing.obj
 0001:00045d6e       ?get@?$__crt_unique_heap_ptr@PADU__crt_internal_free_policy@@@@QBEPAPADXZ 10046d6e f i libucrt:argv_parsing.obj
 0001:00045d71       ?get@?$__crt_unique_heap_ptr@PA_WU__crt_internal_free_policy@@@@QBEPAPA_WXZ 10046d71 f i libucrt:argv_parsing.obj
 0001:00045d74       ?get_address_of@?$__crt_unique_heap_ptr@PADU__crt_internal_free_policy@@@@QAEPAPAPADXZ 10046d74 f i libucrt:argv_parsing.obj
 0001:00045d77       ?get_address_of@?$__crt_unique_heap_ptr@PA_WU__crt_internal_free_policy@@@@QAEPAPAPA_WXZ 10046d77 f i libucrt:argv_parsing.obj
 0001:00045d92       ?is_valid@?$__crt_unique_heap_ptr@EU__crt_internal_free_policy@@@@QBE_NXZ 10046d92 f i libucrt:argv_parsing.obj
 0001:00045d9c       ?release@?$__crt_unique_heap_ptr@EU__crt_internal_free_policy@@@@QAEXXZ 10046d9c f i libucrt:argv_parsing.obj
 0001:00045db2       ?release@?$__crt_unique_heap_ptr@PADU__crt_internal_free_policy@@@@QAEXXZ 10046db2 f i libucrt:argv_parsing.obj
 0001:00045dc8       ?release@?$__crt_unique_heap_ptr@PA_WU__crt_internal_free_policy@@@@QAEXXZ 10046dc8 f i libucrt:argv_parsing.obj
 0001:00045dff       ___acrt_allocate_buffer_for_argv 10046dff f   libucrt:argv_parsing.obj
 0001:00045e69       __configure_narrow_argv    10046e69 f   libucrt:argv_parsing.obj
 0001:00045e76       __configure_wide_argv      10046e76 f   libucrt:argv_parsing.obj
 0001:00045e83       __set_pgmptr               10046e83 f i libucrt:argv_parsing.obj
 0001:00045e95       __set_wpgmptr              10046e95 f i libucrt:argv_parsing.obj
 0001:0004636f       ??$get_environment_from_os@$$$V@?$__crt_char_traits@D@@SAPADXZ 1004736f f i libucrt:environment_initialization.obj
 0001:00046374       ??$get_environment_from_os@$$$V@?$__crt_char_traits@_W@@SAPA_WXZ 10047374 f i libucrt:environment_initialization.obj
 0001:000464ae       ??$set_variable_in_environment_nolock@PADH@?$__crt_char_traits@D@@SAH$$QAPAD$$QAH@Z 100474ae f i libucrt:environment_initialization.obj
 0001:000464cc       ??$set_variable_in_environment_nolock@PA_WH@?$__crt_char_traits@_W@@SAH$$QAPA_W$$QAH@Z 100474cc f i libucrt:environment_initialization.obj
 0001:000464ea       ??$tcscpy_s@PADABIAAPAD@?$__crt_char_traits@D@@SAH$$QAPADABIAAPAD@Z 100474ea f i libucrt:environment_initialization.obj
 0001:0004650f       ??$tcscpy_s@PA_WABIAAPA_W@?$__crt_char_traits@_W@@SAH$$QAPA_WABIAAPA_W@Z 1004750f f i libucrt:environment_initialization.obj
 0001:00046534       ??$tcslen@AAPAD@?$__crt_char_traits@D@@SAIAAPAD@Z 10047534 f i libucrt:environment_initialization.obj
 0001:00046552       ??$tcslen@AAPA_W@?$__crt_char_traits@_W@@SAIAAPA_W@Z 10047552 f i libucrt:environment_initialization.obj
 0001:00046577       ??$uninitialize@A6AXAAPAPAD@Z@?$dual_state_global@PAPAD@__crt_state_management@@QAEXA6AXAAPAPAD@Z@Z 10047577 f i libucrt:environment_initialization.obj
 0001:000465c7       ??$uninitialize@A6AXAAPAPA_W@Z@?$dual_state_global@PAPA_W@__crt_state_management@@QAEXA6AXAAPAPA_W@Z@Z 100475c7 f i libucrt:environment_initialization.obj
 0001:00046659       ??B?$__crt_unique_heap_ptr@PADU__crt_internal_free_policy@@@@QBE_NXZ 10047659 f i libucrt:environment_initialization.obj
 0001:00046663       ??B?$__crt_unique_heap_ptr@PA_WU__crt_internal_free_policy@@@@QBE_NXZ 10047663 f i libucrt:environment_initialization.obj
 0001:0004666d       ??B?$__crt_unique_heap_ptr@_WU__crt_internal_free_policy@@@@QBE_NXZ 1004766d f i libucrt:environment_initialization.obj
 0001:00046677       ?__crt_compute_required_transform_buffer_count@@YAIIQBD@Z 10047677 f i libucrt:environment_initialization.obj
 0001:00046697       ?__crt_compute_required_transform_buffer_count@@YAIIQB_W@Z 10047697 f i libucrt:environment_initialization.obj
 0001:000466ba       ?__crt_transform_string@@YAIIQBDQA_WI@Z 100476ba f i libucrt:environment_initialization.obj
 0001:000466de       ?__crt_transform_string@@YAIIQB_WQADI@Z 100476de f i libucrt:environment_initialization.obj
 0001:00046706       ?detach@?$__crt_unique_heap_ptr@DU__crt_internal_free_policy@@@@QAEPADXZ 10047706 f i libucrt:environment_initialization.obj
 0001:0004670c       ?detach@?$__crt_unique_heap_ptr@_WU__crt_internal_free_policy@@@@QAEPA_WXZ 1004770c f i libucrt:environment_initialization.obj
 0001:00046712       ?get_current_state_index@__crt_state_management@@YAIXZ 10047712 f i libucrt:environment_initialization.obj
 0001:00046739       ?initialize@?$dual_state_global@PAPAD@__crt_state_management@@QAEXQAPAD@Z 10047739 f i libucrt:environment_initialization.obj
 0001:00046776       ?initialize@?$dual_state_global@PAPA_W@__crt_state_management@@QAEXQAPA_W@Z 10047776 f i libucrt:environment_initialization.obj
 0001:000467b3       ?is_valid@?$__crt_unique_heap_ptr@PADU__crt_internal_free_policy@@@@QBE_NXZ 100477b3 f i libucrt:environment_initialization.obj
 0001:000467bd       ?is_valid@?$__crt_unique_heap_ptr@PA_WU__crt_internal_free_policy@@@@QBE_NXZ 100477bd f i libucrt:environment_initialization.obj
 0001:000467c7       ?is_valid@?$__crt_unique_heap_ptr@_WU__crt_internal_free_policy@@@@QBE_NXZ 100477c7 f i libucrt:environment_initialization.obj
 0001:000467d7       ?value@?$dual_state_global@PAPAD@__crt_state_management@@QAEAAPAPADXZ 100477d7 f i libucrt:environment_initialization.obj
 0001:000467da       ?value@?$dual_state_global@PAPA_W@__crt_state_management@@QAEAAPAPA_WXZ 100477da f i libucrt:environment_initialization.obj
 0001:000467dd       ___dcrt_get_or_create_narrow_environment_nolock 100477dd f   libucrt:environment_initialization.obj
 0001:000467e2       ___dcrt_get_or_create_wide_environment_nolock 100477e2 f   libucrt:environment_initialization.obj
 0001:000467e7       ___dcrt_uninitialize_environments_nolock 100477e7 f   libucrt:environment_initialization.obj
 0001:0004682b       ___p__environ              1004782b f   libucrt:environment_initialization.obj
 0001:00046831       ___p__wenviron             10047831 f   libucrt:environment_initialization.obj
 0001:00046837       __get_initial_narrow_environment 10047837 f   libucrt:environment_initialization.obj
 0001:00046850       __get_initial_wide_environment 10047850 f   libucrt:environment_initialization.obj
 0001:00046869       __initialize_narrow_environment 10047869 f   libucrt:environment_initialization.obj
 0001:0004686e       __initialize_wide_environment 1004786e f   libucrt:environment_initialization.obj
 0001:00046873       ??$?BP6AXXZ@__crt_fast_encoded_nullptr_t@@QBEPAP6AXXZXZ 10047873 f i libucrt:onexit.obj
 0001:00046891       ??$?RP6AXXZ@__crt_internal_free_policy@@QBEXQBQ6AXXZ@Z 10047891 f i libucrt:onexit.obj
 0001:000468a7       ??$?RV<lambda_800076c951b434888f4765a74a194fcc>@@AAV<lambda_4e60a939b0d047cfe11ddc22648dfba9>@@V<lambda_6dbb1268764f43b569ce7b67e331d33a>@@@?$__crt_seh_guarded_call@H@@QAEH$$QAV<lambda_800076c951b434888f4765a74a194fcc>@@AAV<lambda_4e60a939b0d047cfe11ddc22648dfba9>@@$$QAV<lambda_6dbb1268764f43b569ce7b67e331d33a>@@@Z 100478a7 f i libucrt:onexit.obj
 0001:0004690c       ??$?RV<lambda_995298e7d72eb4c2aab26c0585b3abe5>@@AAV<lambda_275893d493268fdec8709772e3fcec0e>@@V<lambda_293819299cbf9a7022e18b56a874bb5c>@@@?$__crt_seh_guarded_call@H@@QAEH$$QAV<lambda_995298e7d72eb4c2aab26c0585b3abe5>@@AAV<lambda_275893d493268fdec8709772e3fcec0e>@@$$QAV<lambda_293819299cbf9a7022e18b56a874bb5c>@@@Z 1004790c f i libucrt:onexit.obj
 0001:00046971       ??$__acrt_lock_and_call@V<lambda_275893d493268fdec8709772e3fcec0e>@@@@YAHW4__acrt_lock_id@@$$QAV<lambda_275893d493268fdec8709772e3fcec0e>@@@Z 10047971 f i libucrt:onexit.obj
 0001:000469a3       ??$__acrt_lock_and_call@V<lambda_4e60a939b0d047cfe11ddc22648dfba9>@@@@YAHW4__acrt_lock_id@@$$QAV<lambda_4e60a939b0d047cfe11ddc22648dfba9>@@@Z 100479a3 f i libucrt:onexit.obj
 0001:000469d5       ??$__crt_fast_encode_pointer@P6AHXZ@@YAP6AHXZQ6AHXZ@Z 100479d5 f i libucrt:onexit.obj
 0001:00046a82       ??0?$__crt_unique_heap_ptr@P6AXXZU__crt_internal_free_policy@@@@QAE@QAP6AXXZ@Z 10047a82 f i libucrt:onexit.obj
 0001:00046a96       ??1?$__crt_unique_heap_ptr@P6AXXZU__crt_internal_free_policy@@@@QAE@XZ 10047a96 f i libucrt:onexit.obj
 0001:00046dd1       ?detach@?$__crt_unique_heap_ptr@P6AXXZU__crt_internal_free_policy@@@@QAEPAP6AXXZXZ 10047dd1 f i libucrt:onexit.obj
 0001:00046dd7       ?release@?$__crt_unique_heap_ptr@P6AXXZU__crt_internal_free_policy@@@@QAEXXZ 10047dd7 f i libucrt:onexit.obj
 0001:00046ded       __crt_at_quick_exit        10047ded f   libucrt:onexit.obj
 0001:00046e08       __crt_atexit               10047e08 f   libucrt:onexit.obj
 0001:00046e23       __execute_onexit_table     10047e23 f   libucrt:onexit.obj
 0001:00046e47       __initialize_onexit_table  10047e47 f   libucrt:onexit.obj
 0001:00046e93       __register_onexit_function 10047e93 f   libucrt:onexit.obj
 0001:00046ffa       ?initialize@?$dual_state_global@PAU__crt_locale_data@@@__crt_state_management@@QAEXQAU__crt_locale_data@@@Z 10047ffa f i libucrt:initialization.obj
 0001:00047037       ___acrt_initialize         10048037 f   libucrt:initialization.obj
 0001:0004704d       ___acrt_thread_attach      1004804d f   libucrt:initialization.obj
 0001:0004705a       ___acrt_thread_detach      1004805a f   libucrt:initialization.obj
 0001:00047064       ___acrt_uninitialize       10048064 f   libucrt:initialization.obj
 0001:0004707a       ___acrt_uninitialize_critical 1004807a f   libucrt:initialization.obj
 0001:000470ab       __get_terminate            100480ab f   libucrt:terminate.obj
 0001:000470c1       _set_terminate             100480c1 f   libucrt:terminate.obj
 0001:000470e9       _terminate                 100480e9 f   libucrt:terminate.obj
 0001:00047134       ??$__crt_interlocked_exchange_pointer@X$$T@@YAPAXPDSAX$$T@Z 10048134 f i libucrt:free_base.obj
 0001:0004714c       ___acrt_get_msvcrt_heap_handle 1004814c f   libucrt:free_base.obj
 0001:000471dd       __free_base                100481dd f   libucrt:free_base.obj
 0001:00047225       __malloc_base              10048225 f   libucrt:malloc_base.obj
 0001:000472f6       _strcpy_s                  100482f6 f   libucrt:strcpy_s.obj
 0001:00047366       __set_abort_behavior       10048366 f   libucrt:abort.obj
 0001:0004738f       _abort                     1004838f f   libucrt:abort.obj
 0001:000473e2       __calloc_base              100483e2 f   libucrt:calloc_base.obj
 0001:00047456       ??$is_overflow_condition@K@__crt_strtox@@YA_NIK@Z 10048456 f i libucrt:atox.obj
 0001:00047495       ??$is_overflow_condition@_K@__crt_strtox@@YA_NI_K@Z 10048495 f i libucrt:atox.obj
 0001:000474e8       ??$make_c_string_character_source@D$$T@__crt_strtox@@YA?AV?$c_string_character_source@D@0@QBD$$T@Z 100484e8 f i libucrt:atox.obj
 0001:00047509       ??$make_c_string_character_source@_W$$T@__crt_strtox@@YA?AV?$c_string_character_source@_W@0@QB_W$$T@Z 10048509 f i libucrt:atox.obj
 0001:0004752a       ??$parse_integer@KV?$c_string_character_source@D@__crt_strtox@@@__crt_strtox@@YAKQAU__crt_locale_pointers@@V?$c_string_character_source@D@0@H_N@Z 1004852a f i libucrt:atox.obj
 0001:000477dc       ??$parse_integer@KV?$c_string_character_source@_W@__crt_strtox@@@__crt_strtox@@YAKQAU__crt_locale_pointers@@V?$c_string_character_source@_W@0@H_N@Z 100487dc f i libucrt:atox.obj
 0001:0004807a       ??$parse_integer@_KV?$c_string_character_source@D@__crt_strtox@@@__crt_strtox@@YA_KQAU__crt_locale_pointers@@V?$c_string_character_source@D@0@H_N@Z 1004907a f i libucrt:atox.obj
 0001:000483c9       ??$parse_integer@_KV?$c_string_character_source@_W@__crt_strtox@@@__crt_strtox@@YA_KQAU__crt_locale_pointers@@V?$c_string_character_source@_W@0@H_N@Z 100493c9 f i libucrt:atox.obj
 0001:00048b3b       ??$parse_integer_from_string@JD$$T@__crt_strtox@@YAJQBD$$THQAU__crt_locale_pointers@@@Z 10049b3b f i libucrt:atox.obj
 0001:00048b73       ??$parse_integer_from_string@J_W$$T@__crt_strtox@@YAJQB_W$$THQAU__crt_locale_pointers@@@Z 10049b73 f i libucrt:atox.obj
 0001:00048bab       ??$parse_integer_from_string@_JD$$T@__crt_strtox@@YA_JQBD$$THQAU__crt_locale_pointers@@@Z 10049bab f i libucrt:atox.obj
 0001:00048be3       ??$parse_integer_from_string@_J_W$$T@__crt_strtox@@YA_JQB_W$$THQAU__crt_locale_pointers@@@Z 10049be3 f i libucrt:atox.obj
 0001:00048c1b       ??0?$c_string_character_source@D@__crt_strtox@@QAE@QBDQAPBD@Z 10049c1b f i libucrt:atox.obj
 0001:00048c3e       ??0?$c_string_character_source@_W@__crt_strtox@@QAE@QB_WQAPB_W@Z 10049c3e f i libucrt:atox.obj
 0001:00048c61       ??1?$c_string_character_source@D@__crt_strtox@@QAE@XZ 10049c61 f i libucrt:atox.obj
 0001:00048c70       ??1?$c_string_character_source@_W@__crt_strtox@@QAE@XZ 10049c70 f i libucrt:atox.obj
 0001:00048c7f       ?get@?$c_string_character_source@D@__crt_strtox@@QAEDXZ 10049c7f f i libucrt:atox.obj
 0001:00048c89       ?get@?$c_string_character_source@_W@__crt_strtox@@QAE_WXZ 10049c89 f i libucrt:atox.obj
 0001:00048c96       ?is_space@__crt_strtox@@YA_NDQAU__crt_locale_pointers@@@Z 10049c96 f i libucrt:atox.obj
 0001:00048cbc       ?is_space@__crt_strtox@@YA_N_WPAU__crt_locale_pointers@@@Z 10049cbc f i libucrt:atox.obj
 0001:00048cdb       ?maximum_signed_value@__crt_strtox@@YAJK@Z 10049cdb f i libucrt:atox.obj
 0001:00048ce1       ?maximum_signed_value@__crt_strtox@@YA_J_K@Z 10049ce1 f i libucrt:atox.obj
 0001:00048cec       ?minimum_signed_value@__crt_strtox@@YAJK@Z 10049cec f i libucrt:atox.obj
 0001:00048cf2       ?minimum_signed_value@__crt_strtox@@YA_J_K@Z 10049cf2 f i libucrt:atox.obj
 0001:00048cfc       ?parse_digit@__crt_strtox@@YAID@Z 10049cfc f i libucrt:atox.obj
 0001:00048d44       ?parse_digit@__crt_strtox@@YAI_W@Z 10049d44 f i libucrt:atox.obj
 0001:00048fa1       ?restore_state@?$c_string_character_source@D@__crt_strtox@@QAE_NQBD@Z 10049fa1 f i libucrt:atox.obj
 0001:00048fb5       ?restore_state@?$c_string_character_source@_W@__crt_strtox@@QAE_NQB_W@Z 10049fb5 f i libucrt:atox.obj
 0001:00048fc9       ?save_state@?$c_string_character_source@D@__crt_strtox@@QBEPBDXZ 10049fc9 f i libucrt:atox.obj
 0001:00048fcc       ?save_state@?$c_string_character_source@_W@__crt_strtox@@QBEPB_WXZ 10049fcc f i libucrt:atox.obj
 0001:00048fcf       ?unget@?$c_string_character_source@D@__crt_strtox@@QAEXD@Z 10049fcf f i libucrt:atox.obj
 0001:00049001       ?unget@?$c_string_character_source@_W@__crt_strtox@@QAEX_W@Z 1004a001 f i libucrt:atox.obj
 0001:00049038       ?validate@?$c_string_character_source@D@__crt_strtox@@QBE_NXZ 1004a038 f i libucrt:atox.obj
 0001:00049059       ?validate@?$c_string_character_source@_W@__crt_strtox@@QBE_NXZ 1004a059 f i libucrt:atox.obj
 0001:0004907a       ?wide_character_to_digit@__crt_strtox@@YAH_W@Z 1004a07a f i libucrt:atox.obj
 0001:00049283       ___acrt_get_locale_data_prefix 1004a283 f i libucrt:atox.obj
 0001:00049292       __atoi64                   1004a292 f   libucrt:atox.obj
 0001:000492c6       __atoi64_l                 1004a2c6 f   libucrt:atox.obj
 0001:000492fb       __atoi_l                   1004a2fb f   libucrt:atox.obj
 0001:00049330       __atol_l                   1004a330 f   libucrt:atox.obj
 0001:00049365       __atoll_l                  1004a365 f   libucrt:atox.obj
 0001:0004939a       __chvalidchk_l             1004a39a f i libucrt:atox.obj
 0001:000493ce       __ischartype_l             1004a3ce f i libucrt:atox.obj
 0001:0004940d       __wtoi                     1004a40d f   libucrt:atox.obj
 0001:00049441       __wtoi64                   1004a441 f   libucrt:atox.obj
 0001:00049475       __wtoi64_l                 1004a475 f   libucrt:atox.obj
 0001:000494aa       __wtoi_l                   1004a4aa f   libucrt:atox.obj
 0001:000494df       __wtol                     1004a4df f   libucrt:atox.obj
 0001:00049513       __wtol_l                   1004a513 f   libucrt:atox.obj
 0001:00049548       __wtoll                    1004a548 f   libucrt:atox.obj
 0001:0004957c       __wtoll_l                  1004a57c f   libucrt:atox.obj
 0001:000495b1       _atoi                      1004a5b1 f   libucrt:atox.obj
 0001:000495e5       _atol                      1004a5e5 f   libucrt:atox.obj
 0001:00049619       _atoll                     1004a619 f   libucrt:atox.obj
 0001:0004964d       ??$__crt_fast_decode_pointer@P6AXPB_W00II@Z@@YAP6AXPB_W00II@ZQ6AX000II@Z@Z 1004a64d f i libucrt:invalid_parameter.obj
 0001:00049668       ??$__crt_fast_encode_pointer@P6AXPB_W00II@Z@@YAP6AXPB_W00II@ZQ6AX000II@Z@Z 1004a668 f i libucrt:invalid_parameter.obj
 0001:0004968e       ?initialize@?$dual_state_global@P6AXPB_W00II@Z@__crt_state_management@@QAEXQ6AXPB_W00II@Z@Z 1004a68e f i libucrt:invalid_parameter.obj
 0001:000496cb       ?value@?$dual_state_global@P6AXPB_W00II@Z@__crt_state_management@@QAEAAP6AXPB_W00II@ZXZ 1004a6cb f i libucrt:invalid_parameter.obj
 0001:000496ce       ___acrt_call_reportfault   1004a6ce f   libucrt:invalid_parameter.obj
 0001:00049857       ___acrt_initialize_invalid_parameter_handler 1004a857 f   libucrt:invalid_parameter.obj
 0001:00049870       __get_invalid_parameter_handler 1004a870 f   libucrt:invalid_parameter.obj
 0001:00049887       __get_thread_local_invalid_parameter_handler 1004a887 f   libucrt:invalid_parameter.obj
 0001:0004989c       __invalid_parameter        1004a89c f   libucrt:invalid_parameter.obj
 0001:00049935       __invalid_parameter_noinfo 1004a935 f   libucrt:invalid_parameter.obj
 0001:00049949       __invalid_parameter_noinfo_noreturn 1004a949 f   libucrt:invalid_parameter.obj
 0001:0004996d       __invoke_watson            1004a96d f   libucrt:invalid_parameter.obj
 0001:000499ac       __set_invalid_parameter_handler 1004a9ac f   libucrt:invalid_parameter.obj
 0001:000499e8       __set_thread_local_invalid_parameter_handler 1004a9e8 f   libucrt:invalid_parameter.obj
 0001:00049a0c       ___acrt_errno_from_os_error 1004aa0c f   libucrt:errno.obj
 0001:00049a5f       ___acrt_errno_map_os_error 1004aa5f f   libucrt:errno.obj
 0001:00049a8a       ___doserrno                1004aa8a f   libucrt:errno.obj
 0001:00049aa1       __errno                    1004aaa1 f   libucrt:errno.obj
 0001:00049ab8       __get_doserrno             1004aab8 f   libucrt:errno.obj
 0001:00049ae6       __get_errno                1004aae6 f   libucrt:errno.obj
 0001:00049b14       __set_doserrno             1004ab14 f   libucrt:errno.obj
 0001:00049b3d       __set_errno                1004ab3d f   libucrt:errno.obj
 0001:00049bbd       ??$?B$$A6GHPA_WKJ@Z@__crt_fast_encoded_nullptr_t@@QBEP6GHPA_WKJ@ZXZ 1004abbd f i libucrt:winapi_thunks.obj
 0001:00049bdb       ??$?RV<lambda_9227be29367c048ad7fd93a717dcb1a1>@@AAV<lambda_a463b7b0560cfcaf9b17f27c6ef46564>@@V<lambda_ccea11b5727ccf69be64f5f5d9a08d9f>@@@?$__crt_seh_guarded_call@H@@QAEH$$QAV<lambda_9227be29367c048ad7fd93a717dcb1a1>@@AAV<lambda_a463b7b0560cfcaf9b17f27c6ef46564>@@$$QAV<lambda_ccea11b5727ccf69be64f5f5d9a08d9f>@@@Z 1004abdb f i libucrt:winapi_thunks.obj
 0001:00049c80       ??$__acrt_lock_and_call@V<lambda_a463b7b0560cfcaf9b17f27c6ef46564>@@@@YAHW4__acrt_lock_id@@$$QAV<lambda_a463b7b0560cfcaf9b17f27c6ef46564>@@@Z 1004ac80 f i libucrt:winapi_thunks.obj
 0001:00049cb2       ??$__crt_fast_decode_pointer@P6GHPA_WKJ@Z@@YAP6GHPA_WKJ@ZQ6GH0KJ@Z@Z 1004acb2 f i libucrt:winapi_thunks.obj
 0001:00049ccd       ??$__crt_fast_encode_pointer@P6GHPA_WKJ@Z@@YAP6GHPA_WKJ@ZQ6GH0KJ@Z@Z 1004accd f i libucrt:winapi_thunks.obj
 0001:0004a3fa       ___acrt_AreFileApisANSI@0  1004b3fa f   libucrt:winapi_thunks.obj
 0001:0004a45b       ___acrt_CompareStringEx@36 1004b45b f   libucrt:winapi_thunks.obj
 0001:0004a4ec       ___acrt_EnumSystemLocalesEx@16 1004b4ec f   libucrt:winapi_thunks.obj
 0001:0004a574       ___acrt_FlsAlloc@4         1004b574 f   libucrt:winapi_thunks.obj
 0001:0004a5df       ___acrt_FlsFree@4          1004b5df f   libucrt:winapi_thunks.obj
 0001:0004a64a       ___acrt_FlsGetValue@4      1004b64a f   libucrt:winapi_thunks.obj
 0001:0004a6b5       ___acrt_FlsSetValue@8      1004b6b5 f   libucrt:winapi_thunks.obj
 0001:0004a724       ___acrt_GetDateFormatEx@28 1004b724 f   libucrt:winapi_thunks.obj
 0001:0004a7c6       ___acrt_GetEnabledXStateFeatures@0 1004b7c6 f   libucrt:winapi_thunks.obj
 0001:0004a828       ___acrt_GetFileInformationByHandleEx@16 1004b828 f   libucrt:winapi_thunks.obj
 0001:0004a8a3       ___acrt_GetLocaleInfoEx@16 1004b8a3 f   libucrt:winapi_thunks.obj
 0001:0004a927       ___acrt_GetSystemTimePreciseAsFileTime@4 1004b927 f   libucrt:winapi_thunks.obj
 0001:0004a992       ___acrt_GetTimeFormatEx@24 1004b992 f   libucrt:winapi_thunks.obj
 0001:0004aa1e       ___acrt_GetUserDefaultLocaleName@8 1004ba1e f   libucrt:winapi_thunks.obj
 0001:0004aa9e       ___acrt_GetXStateFeaturesMask@8 1004ba9e f   libucrt:winapi_thunks.obj
 0001:0004ab0a       ___acrt_InitializeCriticalSectionEx@12 1004bb0a f   libucrt:winapi_thunks.obj
 0001:0004ab84       ___acrt_IsValidLocaleName@4 1004bb84 f   libucrt:winapi_thunks.obj
 0001:0004abff       ___acrt_LCIDToLocaleName@16 1004bbff f   libucrt:winapi_thunks.obj
 0001:0004ac83       ___acrt_LCMapStringEx@36   1004bc83 f   libucrt:winapi_thunks.obj
 0001:0004ad2d       ___acrt_LocaleNameToLCID@8 1004bd2d f   libucrt:winapi_thunks.obj
 0001:0004ada0       ___acrt_LocateXStateFeature@12 1004bda0 f   libucrt:winapi_thunks.obj
 0001:0004adf7       ___acrt_MessageBoxA@16     1004bdf7 f   libucrt:winapi_thunks.obj
 0001:0004ae52       ___acrt_MessageBoxW@16     1004be52 f   libucrt:winapi_thunks.obj
 0001:0004aead       ___acrt_RoInitialize@4     1004bead f   libucrt:winapi_thunks.obj
 0001:0004af13       ___acrt_RoUninitialize@0   1004bf13 f   libucrt:winapi_thunks.obj
 0001:0004af6e       ___acrt_RtlGenRandom@8     1004bf6e f   libucrt:winapi_thunks.obj
 0001:0004afda       ___acrt_SetThreadStackGuarantee@4 1004bfda f   libucrt:winapi_thunks.obj
 0001:0004b040       ___acrt_can_show_message_box 1004c040 f   libucrt:winapi_thunks.obj
 0001:0004b05f       ___acrt_can_use_vista_locale_apis 1004c05f f   libucrt:winapi_thunks.obj
 0001:0004b06e       ___acrt_can_use_xstate_apis 1004c06e f   libucrt:winapi_thunks.obj
 0001:0004b07d       ___acrt_get_parent_window  1004c07d f   libucrt:winapi_thunks.obj
 0001:0004b11b       ___acrt_initialize_winapi_thunks 1004c11b f   libucrt:winapi_thunks.obj
 0001:0004b14a       ___acrt_is_interactive     1004c14a f   libucrt:winapi_thunks.obj
 0001:0004b219       ___acrt_is_packaged_app    1004c219 f   libucrt:winapi_thunks.obj
 0001:0004b2c1       ___acrt_uninitialize_winapi_thunks 1004c2c1 f   libucrt:winapi_thunks.obj
 0001:0004b304       ??0__crt_stdio_stream@@QAE@QAU__crt_stdio_stream_data@@@Z 1004c304 f i libucrt:closeall.obj
 0001:0004b318       __fcloseall                1004c318 f   libucrt:closeall.obj
 0001:0004b3e0       ___acrt_stdio_flush_nolock 1004c3e0 f   libucrt:fflush.obj
 0001:0004b45f       __fflush_nolock            1004c45f f   libucrt:fflush.obj
 0001:0004b4b7       __flushall                 1004c4b7 f   libucrt:fflush.obj
 0001:0004b5d0       _fflush                    1004c5d0 f   libucrt:fflush.obj
 0001:0004b63f       ?has_crt_buffer@__crt_stdio_stream@@QBE_NXZ 1004c63f f i libucrt:_freebuf.obj
 0001:0004b64e       ___acrt_stdio_free_buffer_nolock 1004c64e f   libucrt:_freebuf.obj
 0001:0004b88b       ___acrt_initialize_lowio   1004c88b f   libucrt:ioinit.obj
 0001:0004b8f6       ___acrt_uninitialize_lowio 1004c8f6 f   libucrt:ioinit.obj
 0001:0004b948       ___isascii                 1004c948 f i libucrt:_ctype.obj
 0001:0004b95e       ___iscsym                  1004c95e f i libucrt:_ctype.obj
 0001:0004b988       ___iscsymf                 1004c988 f i libucrt:_ctype.obj
 0001:0004b9ae       ___toascii                 1004c9ae f i libucrt:_ctype.obj
 0001:0004b9be       __isalnum_l                1004c9be f i libucrt:_ctype.obj
 0001:0004ba07       __isalpha_l                1004ca07 f i libucrt:_ctype.obj
 0001:0004ba50       __isblank_l                1004ca50 f i libucrt:_ctype.obj
 0001:0004baa3       __iscntrl_l                1004caa3 f i libucrt:_ctype.obj
 0001:0004bae9       __iscsym_l                 1004cae9 f i libucrt:_ctype.obj
 0001:0004bb14       __iscsymf_l                1004cb14 f i libucrt:_ctype.obj
 0001:0004bb3f       __isdigit_l                1004cb3f f i libucrt:_ctype.obj
 0001:0004bb85       __isgraph_l                1004cb85 f i libucrt:_ctype.obj
 0001:0004bbce       __islower_l                1004cbce f i libucrt:_ctype.obj
 0001:0004bc14       __isprint_l                1004cc14 f i libucrt:_ctype.obj
 0001:0004bc5d       __ispunct_l                1004cc5d f i libucrt:_ctype.obj
 0001:0004bca3       __isspace_l                1004cca3 f i libucrt:_ctype.obj
 0001:0004bce9       __isupper_l                1004cce9 f i libucrt:_ctype.obj
 0001:0004bd2f       __isxdigit_l               1004cd2f f i libucrt:_ctype.obj
 0001:0004bd78       _isalnum                   1004cd78 f i libucrt:_ctype.obj
 0001:0004bdb2       _isalpha                   1004cdb2 f i libucrt:_ctype.obj
 0001:0004bdec       _isblank                   1004cdec f i libucrt:_ctype.obj
 0001:0004be30       _iscntrl                   1004ce30 f i libucrt:_ctype.obj
 0001:0004be68       _isdigit                   1004ce68 f i libucrt:_ctype.obj
 0001:0004bea0       _isgraph                   1004cea0 f i libucrt:_ctype.obj
 0001:0004beda       _islower                   1004ceda f i libucrt:_ctype.obj
 0001:0004bf12       _isprint                   1004cf12 f i libucrt:_ctype.obj
 0001:0004bf4c       _ispunct                   1004cf4c f i libucrt:_ctype.obj
 0001:0004bf84       _isspace                   1004cf84 f i libucrt:_ctype.obj
 0001:0004bfbc       _isupper                   1004cfbc f i libucrt:_ctype.obj
 0001:0004bff4       _isxdigit                  1004cff4 f i libucrt:_ctype.obj
 0001:0004c3ec       __tolower                  1004d3ec f   libucrt:tolower_toupper.obj
 0001:0004c3fc       __tolower_l                1004d3fc f   libucrt:tolower_toupper.obj
 0001:0004c41c       __toupper                  1004d41c f   libucrt:tolower_toupper.obj
 0001:0004c42c       __toupper_l                1004d42c f   libucrt:tolower_toupper.obj
 0001:0004c44c       _tolower                   1004d44c f   libucrt:tolower_toupper.obj
 0001:0004c488       _toupper                   1004d488 f   libucrt:tolower_toupper.obj
 0001:0004c4c4       ??$make_c_string_character_source@DPAPAD@__crt_strtox@@YA?AV?$c_string_character_source@D@0@QBDQAPAD@Z 1004d4c4 f i libucrt:strtox.obj
 0001:0004c4e5       ??$make_c_string_character_source@_WPAPA_W@__crt_strtox@@YA?AV?$c_string_character_source@_W@0@QB_WQAPA_W@Z 1004d4e5 f i libucrt:strtox.obj
 0001:0004c506       ??$parse_integer_from_string@JDPAPAD@__crt_strtox@@YAJQBDQAPADHQAU__crt_locale_pointers@@@Z 1004d506 f i libucrt:strtox.obj
 0001:0004c53e       ??$parse_integer_from_string@J_WPAPA_W@__crt_strtox@@YAJQB_WQAPA_WHQAU__crt_locale_pointers@@@Z 1004d53e f i libucrt:strtox.obj
 0001:0004c576       ??$parse_integer_from_string@KDPAPAD@__crt_strtox@@YAKQBDQAPADHQAU__crt_locale_pointers@@@Z 1004d576 f i libucrt:strtox.obj
 0001:0004c5ae       ??$parse_integer_from_string@K_WPAPA_W@__crt_strtox@@YAKQB_WQAPA_WHQAU__crt_locale_pointers@@@Z 1004d5ae f i libucrt:strtox.obj
 0001:0004c5e6       ??$parse_integer_from_string@_JDPAPAD@__crt_strtox@@YA_JQBDQAPADHQAU__crt_locale_pointers@@@Z 1004d5e6 f i libucrt:strtox.obj
 0001:0004c61e       ??$parse_integer_from_string@_J_WPAPA_W@__crt_strtox@@YA_JQB_WQAPA_WHQAU__crt_locale_pointers@@@Z 1004d61e f i libucrt:strtox.obj
 0001:0004c656       ??$parse_integer_from_string@_KDPAPAD@__crt_strtox@@YA_KQBDQAPADHQAU__crt_locale_pointers@@@Z 1004d656 f i libucrt:strtox.obj
 0001:0004c68e       ??$parse_integer_from_string@_K_WPAPA_W@__crt_strtox@@YA_KQB_WQAPA_WHQAU__crt_locale_pointers@@@Z 1004d68e f i libucrt:strtox.obj
 0001:0004c6c6       __strtoi64                 1004d6c6 f   libucrt:strtox.obj
 0001:0004c6fd       __strtoi64_l               1004d6fd f   libucrt:strtox.obj
 0001:0004c735       __strtoimax_l              1004d735 f   libucrt:strtox.obj
 0001:0004c76d       __strtol_l                 1004d76d f   libucrt:strtox.obj
 0001:0004c7a5       __strtoll_l                1004d7a5 f   libucrt:strtox.obj
 0001:0004c7dd       __strtoui64                1004d7dd f   libucrt:strtox.obj
 0001:0004c814       __strtoui64_l              1004d814 f   libucrt:strtox.obj
 0001:0004c84c       __strtoul_l                1004d84c f   libucrt:strtox.obj
 0001:0004c884       __strtoull_l               1004d884 f   libucrt:strtox.obj
 0001:0004c8bc       __strtoumax_l              1004d8bc f   libucrt:strtox.obj
 0001:0004c8f4       __wcstoi64                 1004d8f4 f   libucrt:strtox.obj
 0001:0004c92b       __wcstoi64_l               1004d92b f   libucrt:strtox.obj
 0001:0004c963       __wcstoimax_l              1004d963 f   libucrt:strtox.obj
 0001:0004c99b       __wcstol_l                 1004d99b f   libucrt:strtox.obj
 0001:0004c9d3       __wcstoll_l                1004d9d3 f   libucrt:strtox.obj
 0001:0004ca0b       __wcstoui64                1004da0b f   libucrt:strtox.obj
 0001:0004ca42       __wcstoui64_l              1004da42 f   libucrt:strtox.obj
 0001:0004ca7a       __wcstoul_l                1004da7a f   libucrt:strtox.obj
 0001:0004cab2       __wcstoull_l               1004dab2 f   libucrt:strtox.obj
 0001:0004caea       __wcstoumax_l              1004daea f   libucrt:strtox.obj
 0001:0004cb22       _strtoimax                 1004db22 f   libucrt:strtox.obj
 0001:0004cb59       _strtol                    1004db59 f   libucrt:strtox.obj
 0001:0004cb90       _strtoll                   1004db90 f   libucrt:strtox.obj
 0001:0004cbc7       _strtoul                   1004dbc7 f   libucrt:strtox.obj
 0001:0004cbfe       _strtoull                  1004dbfe f   libucrt:strtox.obj
 0001:0004cc35       _strtoumax                 1004dc35 f   libucrt:strtox.obj
 0001:0004cc6c       _wcstoimax                 1004dc6c f   libucrt:strtox.obj
 0001:0004cca3       _wcstol                    1004dca3 f   libucrt:strtox.obj
 0001:0004ccda       _wcstoll                   1004dcda f   libucrt:strtox.obj
 0001:0004cd11       _wcstoul                   1004dd11 f   libucrt:strtox.obj
 0001:0004cd48       _wcstoull                  1004dd48 f   libucrt:strtox.obj
 0001:0004cd7f       _wcstoumax                 1004dd7f f   libucrt:strtox.obj
 0001:0004cdb6       __mbtowc_l                 1004ddb6 f   libucrt:mbtowc.obj
 0001:0004ceee       _mbtowc                    1004deee f   libucrt:mbtowc.obj
 0001:0004cf0e       __wctomb_l                 1004df0e f   libucrt:wctomb.obj
 0001:0004cf75       __wctomb_s_l               1004df75 f   libucrt:wctomb.obj
 0001:0004d0de       _wctomb                    1004e0de f   libucrt:wctomb.obj
 0001:0004d11f       _wctomb_s                  1004e11f f   libucrt:wctomb.obj
 0001:0004d837       ??1?$__crt_simd_cleanup_guard@$00@@QAE@XZ 1004e837 f i libucrt:strnlen.obj
 0001:0004d83b       ??1?$__crt_simd_cleanup_guard@$0A@@@QAE@XZ 1004e83b f i libucrt:strnlen.obj
 0001:0004d83c       ?compare_equals@?$__crt_simd_traits@$00E@@SA?AT__m256i@@T2@0@Z 1004e83c f i libucrt:strnlen.obj
 0001:0004d841       ?compare_equals@?$__crt_simd_traits@$00G@@SA?AT__m256i@@T2@0@Z 1004e841 f i libucrt:strnlen.obj
 0001:0004d846       ?compare_equals@?$__crt_simd_traits@$0A@E@@SA?AT__m128i@@T2@0@Z 1004e846 f i libucrt:strnlen.obj
 0001:0004d84b       ?compare_equals@?$__crt_simd_traits@$0A@G@@SA?AT__m128i@@T2@0@Z 1004e84b f i libucrt:strnlen.obj
 0001:0004d850       ?compute_byte_mask@?$__crt_simd_pack_traits@$00@@SAHT__m256i@@@Z 1004e850 f i libucrt:strnlen.obj
 0001:0004d855       ?compute_byte_mask@?$__crt_simd_pack_traits@$0A@@@SAHT__m128i@@@Z 1004e855 f i libucrt:strnlen.obj
 0001:0004d85a       ?get_zero_pack@?$__crt_simd_pack_traits@$00@@SA?AT__m256i@@XZ 1004e85a f i libucrt:strnlen.obj
 0001:0004d85f       ?get_zero_pack@?$__crt_simd_pack_traits@$0A@@@SA?AT__m128i@@XZ 1004e85f f i libucrt:strnlen.obj
 0001:0004d864       _strnlen                   1004e864 f   libucrt:strnlen.obj
 0001:0004d9d4       _wcsnlen                   1004e9d4 f   libucrt:strnlen.obj
 0001:0004dbf8       ??$?RU__acrt_ptd@@@__crt_internal_free_policy@@QBEXQBU__acrt_ptd@@@Z 1004ebf8 f i libucrt:per_thread_data.obj
 0001:0004dc0e       ??$?RV<lambda_3518db117f0e7cdb002338c5d3c47b6c>@@AAV<lambda_b2ea41f6bbb362cd97d94c6828d90b61>@@V<lambda_abdedf541bb04549bc734292b4a045d4>@@@?$__crt_seh_guarded_call@X@@QAEX$$QAV<lambda_3518db117f0e7cdb002338c5d3c47b6c>@@AAV<lambda_b2ea41f6bbb362cd97d94c6828d90b61>@@$$QAV<lambda_abdedf541bb04549bc734292b4a045d4>@@@Z 1004ec0e f i libucrt:per_thread_data.obj
 0001:0004dc72       ??$?RV<lambda_51b6e8b1eb166f2a3faf91f424b38130>@@AAV<lambda_6250bd4b2a391816dd638c3bf72b0bcb>@@V<lambda_0b5a4a3e68152e1d9b943535f5f47bed>@@@?$__crt_seh_guarded_call@X@@QAEX$$QAV<lambda_51b6e8b1eb166f2a3faf91f424b38130>@@AAV<lambda_6250bd4b2a391816dd638c3bf72b0bcb>@@$$QAV<lambda_0b5a4a3e68152e1d9b943535f5f47bed>@@@Z 1004ec72 f i libucrt:per_thread_data.obj
 0001:0004dceb       ??$?RV<lambda_5b71d36f03204c0beab531769a5b5694>@@AAV<lambda_be2b3da3f62db62e9dad5dc70221a656>@@V<lambda_8f9ce462984622f9bf76b59e2aaaf805>@@@?$__crt_seh_guarded_call@X@@QAEX$$QAV<lambda_5b71d36f03204c0beab531769a5b5694>@@AAV<lambda_be2b3da3f62db62e9dad5dc70221a656>@@$$QAV<lambda_8f9ce462984622f9bf76b59e2aaaf805>@@@Z 1004eceb f i libucrt:per_thread_data.obj
 0001:0004dd48       ??$?RV<lambda_9df27f884b057bc3edfc946cb5b7cf47>@@AAV<lambda_e69574bed617af4e071282c136b37893>@@V<lambda_cc0d902bcbbeb830f749456577db4721>@@@?$__crt_seh_guarded_call@X@@QAEX$$QAV<lambda_9df27f884b057bc3edfc946cb5b7cf47>@@AAV<lambda_e69574bed617af4e071282c136b37893>@@$$QAV<lambda_cc0d902bcbbeb830f749456577db4721>@@@Z 1004ed48 f i libucrt:per_thread_data.obj
 0001:0004dda2       ??$__acrt_lock_and_call@V<lambda_6250bd4b2a391816dd638c3bf72b0bcb>@@@@YAXW4__acrt_lock_id@@$$QAV<lambda_6250bd4b2a391816dd638c3bf72b0bcb>@@@Z 1004eda2 f i libucrt:per_thread_data.obj
 0001:0004ddd4       ??$__acrt_lock_and_call@V<lambda_b2ea41f6bbb362cd97d94c6828d90b61>@@@@YAXW4__acrt_lock_id@@$$QAV<lambda_b2ea41f6bbb362cd97d94c6828d90b61>@@@Z 1004edd4 f i libucrt:per_thread_data.obj
 0001:0004de06       ??$__acrt_lock_and_call@V<lambda_be2b3da3f62db62e9dad5dc70221a656>@@@@YAXW4__acrt_lock_id@@$$QAV<lambda_be2b3da3f62db62e9dad5dc70221a656>@@@Z 1004ee06 f i libucrt:per_thread_data.obj
 0001:0004de38       ??$__acrt_lock_and_call@V<lambda_e69574bed617af4e071282c136b37893>@@@@YAXW4__acrt_lock_id@@$$QAV<lambda_e69574bed617af4e071282c136b37893>@@@Z 1004ee38 f i libucrt:per_thread_data.obj
 0001:0004df71       ??0?$__crt_unique_heap_ptr@U__acrt_ptd@@U__crt_internal_free_policy@@@@QAE@QAU__acrt_ptd@@@Z 1004ef71 f i libucrt:per_thread_data.obj
 0001:0004df85       ??0__crt_scoped_get_last_error_reset@@QAE@XZ 1004ef85 f i libucrt:per_thread_data.obj
 0001:0004df9a       ??1?$__crt_unique_heap_ptr@U__acrt_ptd@@U__crt_internal_free_policy@@@@QAE@XZ 1004ef9a f i libucrt:per_thread_data.obj
 0001:0004dfb0       ??1__crt_scoped_get_last_error_reset@@QAE@XZ 1004efb0 f i libucrt:per_thread_data.obj
 0001:0004dfbb       ??B?$__crt_unique_heap_ptr@U__acrt_ptd@@U__crt_internal_free_policy@@@@QBE_NXZ 1004efbb f i libucrt:per_thread_data.obj
 0001:0004e131       ?dangerous_get_state_array@?$dual_state_global@PAU__crt_locale_data@@@__crt_state_management@@QAEPAPAU__crt_locale_data@@XZ 1004f131 f i libucrt:per_thread_data.obj
 0001:0004e235       ?detach@?$__crt_unique_heap_ptr@U__acrt_ptd@@U__crt_internal_free_policy@@@@QAEPAU__acrt_ptd@@XZ 1004f235 f i libucrt:per_thread_data.obj
 0001:0004e23b       ?get@?$__crt_unique_heap_ptr@U__acrt_ptd@@U__crt_internal_free_policy@@@@QBEPAU__acrt_ptd@@XZ 1004f23b f i libucrt:per_thread_data.obj
 0001:0004e34a       ?is_valid@?$__crt_unique_heap_ptr@U__acrt_ptd@@U__crt_internal_free_policy@@@@QBE_NXZ 1004f34a f i libucrt:per_thread_data.obj
 0001:0004e354       ?release@?$__crt_unique_heap_ptr@U__acrt_ptd@@U__crt_internal_free_policy@@@@QAEXXZ 1004f354 f i libucrt:per_thread_data.obj
 0001:0004e3e0       ?value@?$dual_state_global@PAU__crt_locale_data@@@__crt_state_management@@QAEAAPAU__crt_locale_data@@XZ 1004f3e0 f i libucrt:per_thread_data.obj
 0001:0004e3e3       ___acrt_freeptd            1004f3e3 f   libucrt:per_thread_data.obj
 0001:0004e41a       ___acrt_getptd             1004f41a f   libucrt:per_thread_data.obj
 0001:0004e4bf       ___acrt_getptd_noexit      1004f4bf f   libucrt:per_thread_data.obj
 0001:0004e565       ___acrt_initialize_ptd     1004f565 f   libucrt:per_thread_data.obj
 0001:0004e59c       ___acrt_uninitialize_ptd   1004f59c f   libucrt:per_thread_data.obj
 0001:0004e5bc       ___threadhandle            1004f5bc f   libucrt:per_thread_data.obj
 0001:0004e5c2       ___threadid                1004f5c2 f   libucrt:per_thread_data.obj
 0001:0004e5c8       ___acrt_update_locale_info 1004f5c8 f   libucrt:locale_update.obj
 0001:0004e600       ___acrt_update_multibyte_info 1004f600 f   libucrt:locale_update.obj
 0001:0004e638       ?__acrt_fp_classify@@YA?AW4__acrt_fp_class@@ABN@Z 1004f638 f i libucrt:cvt.obj
 0001:0004e6bf       ?__acrt_fp_is_negative@@YA_NABN@Z 1004f6bf f i libucrt:cvt.obj
 0001:0004f132       ?strrchr@@YAPADQADH@Z      10050132 f i libucrt:cvt.obj
 0001:0004f13f       ___acrt_fp_format          1005013f f   libucrt:cvt.obj
 0001:0004f319       __fputwc_nolock            10050319 f   libucrt:fputwc.obj
 0001:0004f488       __fputwchar                10050488 f   libucrt:fputwc.obj
 0001:0004f4a8       __putwc_nolock             100504a8 f   libucrt:fputwc.obj
 0001:0004f4b5       _fputwc                    100504b5 f   libucrt:fputwc.obj
 0001:0004f54e       _putwc                     1005054e f   libucrt:fputwc.obj
 0001:0004f55b       _putwchar                  1005055b f   libucrt:fputwc.obj
 0001:0004f568       ?lowio_handle@__crt_stdio_stream@@QBEHXZ 10050568 f i libucrt:fileno.obj
 0001:0004f56e       __fileno                   1005056e f   libucrt:fileno.obj
 0001:0004f59d       __fputc_nolock             1005059d f   libucrt:fputc.obj
 0001:0004f5d0       __fputchar                 100505d0 f   libucrt:fputc.obj
 0001:0004f5f0       __putc_nolock              100505f0 f   libucrt:fputc.obj
 0001:0004f5fd       _fputc                     100505fd f   libucrt:fputc.obj
 0001:0004f742       _putc                      10050742 f   libucrt:fputc.obj
 0001:0004f74f       _putchar                   1005074f f   libucrt:fputc.obj
 0001:0004f75c       __get_printf_count_output  1005075c f   libucrt:printf_count_output.obj
 0001:0004f776       __set_printf_count_output  10050776 f   libucrt:printf_count_output.obj
 0001:0004f7aa       ?has_temporary_buffer@__crt_stdio_stream@@QBE_NXZ 100507aa f i libucrt:_sftbuf.obj
 0001:0004f7b9       ___acrt_stdio_begin_temporary_buffering_nolock 100507b9 f   libucrt:_sftbuf.obj
 0001:0004f89b       ___acrt_stdio_end_temporary_buffering_nolock 1005089b f   libucrt:_sftbuf.obj
 0001:0004f8e5       ??$?RU__crt_locale_data@@@__crt_internal_free_policy@@QBEXQBU__crt_locale_data@@@Z 100508e5 f i libucrt:wsetlocale.obj
 0001:0004f8fb       ??$?RU__crt_locale_pointers@@@__crt_internal_free_policy@@QBEXQBU__crt_locale_pointers@@@Z 100508fb f i libucrt:wsetlocale.obj
 0001:0004f911       ??$?RU__crt_multibyte_data@@@__crt_internal_free_policy@@QBEXQBU__crt_multibyte_data@@@Z 10050911 f i libucrt:wsetlocale.obj
 0001:0004f927       ??$?RV<lambda_70818de7b02deff9841e8b0962a60ed9>@@AAV<lambda_2af78c5f5901b1372d98f9ab3177dfa6>@@AAV<lambda_f51fe5fd7c79a33db34fc9310f277369>@@@?$__crt_seh_guarded_call@X@@QAEX$$QAV<lambda_70818de7b02deff9841e8b0962a60ed9>@@AAV<lambda_2af78c5f5901b1372d98f9ab3177dfa6>@@AAV<lambda_f51fe5fd7c79a33db34fc9310f277369>@@@Z 10050927 f i libucrt:wsetlocale.obj
 0001:0004f970       ??$?RV<lambda_76aaead6e312921abc834cb00a638bdd>@@AAV<lambda_176e34f99554166dd2fac165c457248c>@@V<lambda_998ee1c9f4290b119b936bcd6215875a>@@@?$__crt_seh_guarded_call@X@@QAEX$$QAV<lambda_76aaead6e312921abc834cb00a638bdd>@@AAV<lambda_176e34f99554166dd2fac165c457248c>@@$$QAV<lambda_998ee1c9f4290b119b936bcd6215875a>@@@Z 10050970 f i libucrt:wsetlocale.obj
 0001:0004f9cc       ??$?RV<lambda_c76fdea48760d5f9368b465f31df4405>@@AAV<lambda_e378711a6f6581bf7f0efd7cdf97f5d9>@@V<lambda_e927a58b2a85c081d733e8c6192ae2d2>@@@?$__crt_seh_guarded_call@X@@QAEX$$QAV<lambda_c76fdea48760d5f9368b465f31df4405>@@AAV<lambda_e378711a6f6581bf7f0efd7cdf97f5d9>@@$$QAV<lambda_e927a58b2a85c081d733e8c6192ae2d2>@@@Z 100509cc f i libucrt:wsetlocale.obj
 0001:0004fa1f       ??$?RV<lambda_c9469061b39d205f0f236529d4a41659>@@AAV<lambda_b7fb1a997d3ebc0cc0186c5835178808>@@V<lambda_14b92c79d699846b5cc916cd4cf280e4>@@@?$__crt_seh_guarded_call@X@@QAEX$$QAV<lambda_c9469061b39d205f0f236529d4a41659>@@AAV<lambda_b7fb1a997d3ebc0cc0186c5835178808>@@$$QAV<lambda_14b92c79d699846b5cc916cd4cf280e4>@@@Z 10050a1f f i libucrt:wsetlocale.obj
 0001:0004fa79       ??$__acrt_lock_and_call@V<lambda_176e34f99554166dd2fac165c457248c>@@@@YAXW4__acrt_lock_id@@$$QAV<lambda_176e34f99554166dd2fac165c457248c>@@@Z 10050a79 f i libucrt:wsetlocale.obj
 0001:0004faab       ??$__acrt_lock_and_call@V<lambda_b7fb1a997d3ebc0cc0186c5835178808>@@@@YAXW4__acrt_lock_id@@$$QAV<lambda_b7fb1a997d3ebc0cc0186c5835178808>@@@Z 10050aab f i libucrt:wsetlocale.obj
 0001:0004fadd       ??$__acrt_lock_and_call@V<lambda_e378711a6f6581bf7f0efd7cdf97f5d9>@@@@YAXW4__acrt_lock_id@@$$QAV<lambda_e378711a6f6581bf7f0efd7cdf97f5d9>@@@Z 10050add f i libucrt:wsetlocale.obj
 0001:0004fb0f       ??$__crt_call_and_cleanup@V<lambda_2af78c5f5901b1372d98f9ab3177dfa6>@@V<lambda_f51fe5fd7c79a33db34fc9310f277369>@@@@YAX$$QAV<lambda_2af78c5f5901b1372d98f9ab3177dfa6>@@$$QAV<lambda_f51fe5fd7c79a33db34fc9310f277369>@@@Z 10050b0f f i libucrt:wsetlocale.obj
 0001:0004fb32       ??$__vcrt_va_start_verify_argument_type@H@@YAXXZ 10050b32 f i libucrt:wsetlocale.obj
 0001:0004fc57       ??0?$__crt_unique_heap_ptr@U__crt_locale_data@@U__crt_internal_free_policy@@@@QAE@QAU__crt_locale_data@@@Z 10050c57 f i libucrt:wsetlocale.obj
 0001:0004fc6b       ??0?$__crt_unique_heap_ptr@U__crt_locale_pointers@@U__crt_internal_free_policy@@@@QAE@QAU__crt_locale_pointers@@@Z 10050c6b f i libucrt:wsetlocale.obj
 0001:0004fc7f       ??0?$__crt_unique_heap_ptr@U__crt_multibyte_data@@U__crt_internal_free_policy@@@@QAE@QAU__crt_multibyte_data@@@Z 10050c7f f i libucrt:wsetlocale.obj
 0001:0004fc93       ??1?$__crt_unique_heap_ptr@U__crt_locale_data@@U__crt_internal_free_policy@@@@QAE@XZ 10050c93 f i libucrt:wsetlocale.obj
 0001:0004fca9       ??1?$__crt_unique_heap_ptr@U__crt_locale_pointers@@U__crt_internal_free_policy@@@@QAE@XZ 10050ca9 f i libucrt:wsetlocale.obj
 0001:0004fcbf       ??1?$__crt_unique_heap_ptr@U__crt_multibyte_data@@U__crt_internal_free_policy@@@@QAE@XZ 10050cbf f i libucrt:wsetlocale.obj
 0001:0004fcd5       ??B?$__crt_unique_heap_ptr@U__crt_locale_data@@U__crt_internal_free_policy@@@@QBE_NXZ 10050cd5 f i libucrt:wsetlocale.obj
 0001:0004fcdf       ??B?$__crt_unique_heap_ptr@U__crt_locale_pointers@@U__crt_internal_free_policy@@@@QBE_NXZ 10050cdf f i libucrt:wsetlocale.obj
 0001:0004fce9       ??B?$__crt_unique_heap_ptr@U__crt_multibyte_data@@U__crt_internal_free_policy@@@@QBE_NXZ 10050ce9 f i libucrt:wsetlocale.obj
 0001:0004ff12       ?detach@?$__crt_unique_heap_ptr@U__crt_locale_data@@U__crt_internal_free_policy@@@@QAEPAU__crt_locale_data@@XZ 10050f12 f i libucrt:wsetlocale.obj
 0001:0004ff18       ?detach@?$__crt_unique_heap_ptr@U__crt_locale_pointers@@U__crt_internal_free_policy@@@@QAEPAU__crt_locale_pointers@@XZ 10050f18 f i libucrt:wsetlocale.obj
 0001:0004ff1e       ?detach@?$__crt_unique_heap_ptr@U__crt_multibyte_data@@U__crt_internal_free_policy@@@@QAEPAU__crt_multibyte_data@@XZ 10050f1e f i libucrt:wsetlocale.obj
 0001:0004ff24       ?get@?$__crt_unique_heap_ptr@U__crt_locale_data@@U__crt_internal_free_policy@@@@QBEPAU__crt_locale_data@@XZ 10050f24 f i libucrt:wsetlocale.obj
 0001:0004ff27       ?get@?$__crt_unique_heap_ptr@U__crt_locale_pointers@@U__crt_internal_free_policy@@@@QBEPAU__crt_locale_pointers@@XZ 10050f27 f i libucrt:wsetlocale.obj
 0001:0004ff2a       ?get@?$__crt_unique_heap_ptr@U__crt_multibyte_data@@U__crt_internal_free_policy@@@@QBEPAU__crt_multibyte_data@@XZ 10050f2a f i libucrt:wsetlocale.obj
 0001:0004ff2d       ?is_valid@?$__crt_unique_heap_ptr@U__crt_locale_data@@U__crt_internal_free_policy@@@@QBE_NXZ 10050f2d f i libucrt:wsetlocale.obj
 0001:0004ff37       ?is_valid@?$__crt_unique_heap_ptr@U__crt_locale_pointers@@U__crt_internal_free_policy@@@@QBE_NXZ 10050f37 f i libucrt:wsetlocale.obj
 0001:0004ff41       ?is_valid@?$__crt_unique_heap_ptr@U__crt_multibyte_data@@U__crt_internal_free_policy@@@@QBE_NXZ 10050f41 f i libucrt:wsetlocale.obj
 0001:0004ff4b       ?release@?$__crt_unique_heap_ptr@U__crt_locale_data@@U__crt_internal_free_policy@@@@QAEXXZ 10050f4b f i libucrt:wsetlocale.obj
 0001:0004ff61       ?release@?$__crt_unique_heap_ptr@U__crt_locale_pointers@@U__crt_internal_free_policy@@@@QAEXXZ 10050f61 f i libucrt:wsetlocale.obj
 0001:0004ff77       ?release@?$__crt_unique_heap_ptr@U__crt_multibyte_data@@U__crt_internal_free_policy@@@@QAEXXZ 10050f77 f i libucrt:wsetlocale.obj
 0001:0004ff8d       ___acrt_copy_locale_name   10050f8d f   libucrt:wsetlocale.obj
 0001:0005000c       ___acrt_set_locale_changed 1005100c f   libucrt:wsetlocale.obj
 0001:00050019       ___acrt_uninitialize_locale 10051019 f   libucrt:wsetlocale.obj
 0001:0005007f       ___lc_lctowcs              1005107f f   libucrt:wsetlocale.obj
 0001:0005010b       ___lc_wcstolc              1005110b f   libucrt:wsetlocale.obj
 0001:00050285       __configthreadlocale       10051285 f   libucrt:wsetlocale.obj
 0001:00050339       __create_locale            10051339 f   libucrt:wsetlocale.obj
 0001:000503b6       __expandlocale             100513b6 f   libucrt:wsetlocale.obj
 0001:0005080a       __free_locale              1005180a f   libucrt:wsetlocale.obj
 0001:000508f0       __get_current_locale       100518f0 f   libucrt:wsetlocale.obj
 0001:00050989       __wcreate_locale           10051989 f   libucrt:wsetlocale.obj
 0001:00050ad4       __wcscats                  10051ad4 f   libucrt:wsetlocale.obj
 0001:00050b25       __wsetlocale               10051b25 f   libucrt:wsetlocale.obj
 0001:0005164b       ___p___mb_cur_max          1005264b f   libucrt:nlsdata.obj
 0001:00051680       __cintrindisp2             10052680 f   libucrt:87cdisp.obj
 0001:000516c4       __cintrindisp1             100526c4 f   libucrt:87cdisp.obj
 0001:00051707       __ctrandisp2               10052707 f   libucrt:87cdisp.obj
 0001:00051896       __ctrandisp1               10052896 f   libucrt:87cdisp.obj
 0001:000518c9       __fload                    100528c9 f   libucrt:87cdisp.obj
 0001:000519b0       __trandisp1                100529b0 f   libucrt:87disp.obj
 0001:00051a17       __trandisp2                10052a17 f   libucrt:87disp.obj
 0001:00051aa3       __rttospopde               10052aa3     libucrt:87disp.obj
 0001:00051aa8       __rttospop                 10052aa8     libucrt:87disp.obj
 0001:00051aaa       __rtnospop                 10052aaa     libucrt:87disp.obj
 0001:00051aac       __rttosnpop                10052aac     libucrt:87disp.obj
 0001:00051aad       __rtnospopde               10052aad     libucrt:87disp.obj
 0001:00051ab4       __rtzeropop                10052ab4     libucrt:87disp.obj
 0001:00051ab6       __rtzeronpop               10052ab6     libucrt:87disp.obj
 0001:00051abb       __rtzerospop               10052abb     libucrt:87disp.obj
 0001:00051ac8       __rtonepop                 10052ac8     libucrt:87disp.obj
 0001:00051aca       __rtonenpop                10052aca     libucrt:87disp.obj
 0001:00051acf       __tosnan1                  10052acf     libucrt:87disp.obj
 0001:00051afa       __nosnan2                  10052afa     libucrt:87disp.obj
 0001:00051afc       __tosnan2                  10052afc     libucrt:87disp.obj
 0001:00051b24       __nan2                     10052b24     libucrt:87disp.obj
 0001:00051b63       __rtindfpop                10052b63     libucrt:87disp.obj
 0001:00051b65       __rtindfnpop               10052b65     libucrt:87disp.obj
 0001:00051b76       __rttosnpopde              10052b76     libucrt:87disp.obj
 0001:00051b80       __rtatan2inf               10052b80     libucrt:87disp.obj
 0001:00051b9d       __rtchsifneg               10052b9d     libucrt:87disp.obj
 0001:00051c21       __realloc_base             10052c21 f   libucrt:realloc_base.obj
 0001:00051ca4       ___acrt_initialize_locks   10052ca4 f   libucrt:locks.obj
 0001:00051cf5       ___acrt_lock               10052cf5 f   libucrt:locks.obj
 0001:00051d11       ___acrt_uninitialize_locks 10052d11 f   libucrt:locks.obj
 0001:00051d4e       ___acrt_unlock             10052d4e f   libucrt:locks.obj
 0001:00051d6a       __lock_locales             10052d6a f   libucrt:locks.obj
 0001:00051d75       __unlock_locales           10052d75 f   libucrt:locks.obj
 0001:00051d80       ??$?RV<lambda_123407a5e2ac06da108355a851863b7a>@@AAV<lambda_2fe9b910cf3cbf4a0ab98a02ba45b3ec>@@V<lambda_ae55bdf541ad94d75914d381c370e64d>@@@?$__crt_seh_guarded_call@H@@QAEH$$QAV<lambda_123407a5e2ac06da108355a851863b7a>@@AAV<lambda_2fe9b910cf3cbf4a0ab98a02ba45b3ec>@@$$QAV<lambda_ae55bdf541ad94d75914d381c370e64d>@@@Z 10052d80 f i libucrt:close.obj
 0001:00051e22       ??$__acrt_lowio_lock_fh_and_call@V<lambda_2fe9b910cf3cbf4a0ab98a02ba45b3ec>@@@@YAHH$$QAV<lambda_2fe9b910cf3cbf4a0ab98a02ba45b3ec>@@@Z 10052e22 f i libucrt:close.obj
 0001:00051f75       __close                    10052f75 f   libucrt:close.obj
 0001:00052013       __close_nolock             10053013 f   libucrt:close.obj
 0001:000520d6       ??$?RU__crt_stdio_stream_data@@@__crt_internal_free_policy@@QBEXQBU__crt_stdio_stream_data@@@Z 100530d6 f i libucrt:stream.obj
 0001:000520ec       ??0?$__crt_unique_heap_ptr@U__crt_stdio_stream_data@@U__crt_internal_free_policy@@@@QAE@QAU__crt_stdio_stream_data@@@Z 100530ec f i libucrt:stream.obj
 0001:00052100       ??0__crt_stdio_stream@@QAE@XZ 10053100 f i libucrt:stream.obj
 0001:00052106       ??1?$__crt_unique_heap_ptr@U__crt_stdio_stream_data@@U__crt_internal_free_policy@@@@QAE@XZ 10053106 f i libucrt:stream.obj
 0001:0005211c       ?__acrt_stdio_allocate_stream@@YA?AV__crt_stdio_stream@@XZ 1005311c f   libucrt:stream.obj
 0001:00052192       ?__acrt_stdio_free_stream@@YAXV__crt_stdio_stream@@@Z 10053192 f   libucrt:stream.obj
 0001:000521db       ?deallocate@__crt_stdio_stream@@QAEXXZ 100531db f i libucrt:stream.obj
 0001:000521e7       ?detach@?$__crt_unique_heap_ptr@U__crt_stdio_stream_data@@U__crt_internal_free_policy@@@@QAEPAU__crt_stdio_stream_data@@XZ 100531e7 f i libucrt:stream.obj
 0001:000522e0       ?lock@__crt_stdio_stream@@QBEXXZ 100532e0 f i libucrt:stream.obj
 0001:000522eb       ?release@?$__crt_unique_heap_ptr@U__crt_stdio_stream_data@@U__crt_internal_free_policy@@@@QAEXXZ 100532eb f i libucrt:stream.obj
 0001:00052301       ?try_allocate@__crt_stdio_stream@@QAE_NXZ 10053301 f i libucrt:stream.obj
 0001:0005232a       ??$__acrt_stdio_parse_mode@D@@YA?AU__acrt_stdio_stream_mode@@QBD@Z 1005332a f i libucrt:openfile.obj
 0001:000525e8       ??$__acrt_stdio_parse_mode@_W@@YA?AU__acrt_stdio_stream_mode@@QB_W@Z 100535e8 f i libucrt:openfile.obj
 0001:00052a09       ??$tcsncmp@AAPBDAAY02$$CBDI@?$__crt_char_traits@D@@SAHAAPBDAAY02$$CBD$$QAI@Z 10053a09 f i libucrt:openfile.obj
 0001:00052a2c       ??$tcsncmp@AAPB_WAAY02$$CB_WI@?$__crt_char_traits@_W@@SAHAAPB_WAAY02$$CB_W$$QAI@Z 10053a2c f i libucrt:openfile.obj
 0001:00052a4f       ??$tcsnicmp@AAPBDAAY04$$CBDI@?$__crt_char_traits@D@@SAHAAPBDAAY04$$CBD$$QAI@Z 10053a4f f i libucrt:openfile.obj
 0001:00052a72       ??$tcsnicmp@AAPBDAAY06$$CBDI@?$__crt_char_traits@D@@SAHAAPBDAAY06$$CBD$$QAI@Z 10053a72 f i libucrt:openfile.obj
 0001:00052a95       ??$tcsnicmp@AAPBDAAY07$$CBDI@?$__crt_char_traits@D@@SAHAAPBDAAY07$$CBD$$QAI@Z 10053a95 f i libucrt:openfile.obj
 0001:00052ab8       ??$tcsnicmp@AAPB_WAAY04$$CB_WI@?$__crt_char_traits@_W@@SAHAAPB_WAAY04$$CB_W$$QAI@Z 10053ab8 f i libucrt:openfile.obj
 0001:00052adb       ??$tcsnicmp@AAPB_WAAY06$$CB_WI@?$__crt_char_traits@_W@@SAHAAPB_WAAY06$$CB_W$$QAI@Z 10053adb f i libucrt:openfile.obj
 0001:00052afe       ??$tcsnicmp@AAPB_WAAY07$$CB_WI@?$__crt_char_traits@_W@@SAHAAPB_WAAY07$$CB_W$$QAI@Z 10053afe f i libucrt:openfile.obj
 0001:00052b21       ??$tsopen_s@PAHABQBDABHABHH@?$__crt_char_traits@D@@SAH$$QAPAHABQBDABH2$$QAH@Z 10053b21 f i libucrt:openfile.obj
 0001:00052b53       ??$tsopen_s@PAHABQB_WABHABHH@?$__crt_char_traits@_W@@SAH$$QAPAHABQB_WABH2$$QAH@Z 10053b53 f i libucrt:openfile.obj
 0001:00052b85       ?__acrt_stdio_parse_mode_D@@YA_NAAU__acrt_stdio_stream_mode@@@Z 10053b85 f i libucrt:openfile.obj
 0001:00052ba6       ?__acrt_stdio_parse_mode_N@@YA_NAAU__acrt_stdio_stream_mode@@@Z 10053ba6 f i libucrt:openfile.obj
 0001:00052bbc       ?__acrt_stdio_parse_mode_R@@YA_NAAU__acrt_stdio_stream_mode@@AA_N@Z 10053bbc f i libucrt:openfile.obj
 0001:00052be1       ?__acrt_stdio_parse_mode_S@@YA_NAAU__acrt_stdio_stream_mode@@AA_N@Z 10053be1 f i libucrt:openfile.obj
 0001:00052c06       ?__acrt_stdio_parse_mode_T@@YA_NAAU__acrt_stdio_stream_mode@@@Z 10053c06 f i libucrt:openfile.obj
 0001:00052c2c       ?__acrt_stdio_parse_mode_b@@YA_NAAU__acrt_stdio_stream_mode@@@Z 10053c2c f i libucrt:openfile.obj
 0001:00052c54       ?__acrt_stdio_parse_mode_c@@YA_NAAU__acrt_stdio_stream_mode@@AA_N@Z 10053c54 f i libucrt:openfile.obj
 0001:00052c7e       ?__acrt_stdio_parse_mode_n@@YA_NAAU__acrt_stdio_stream_mode@@AA_N@Z 10053c7e f i libucrt:openfile.obj
 0001:00052ca8       ?__acrt_stdio_parse_mode_plus@@YA_NAAU__acrt_stdio_stream_mode@@AA_N@Z 10053ca8 f i libucrt:openfile.obj
 0001:00052cea       ?__acrt_stdio_parse_mode_t@@YA_NAAU__acrt_stdio_stream_mode@@@Z 10053cea f i libucrt:openfile.obj
 0001:00052d12       __openfile                 10053d12 f   libucrt:openfile.obj
 0001:00052d1f       __wopenfile                10053d1f f   libucrt:openfile.obj
 0001:000533c4       __read                     100543c4 f   libucrt:read.obj
 0001:0005351b       __read_nolock              1005451b f   libucrt:read.obj
 0001:00053eb3       ___acrt_stdio_refill_and_read_narrow_nolock 10054eb3 f   libucrt:_filbuf.obj
 0001:00053ec0       ___acrt_stdio_refill_and_read_wide_nolock 10054ec0 f   libucrt:_filbuf.obj
 0001:0005461f       __write                    1005561f f   libucrt:write.obj
 0001:00054744       __write_nolock             10055744 f   libucrt:write.obj
 0001:00054e8a       ___acrt_stdio_flush_and_write_narrow_nolock 10055e8a f   libucrt:_flsbuf.obj
 0001:00054e97       ___acrt_stdio_flush_and_write_wide_nolock 10055e97 f   libucrt:_flsbuf.obj
 0001:00054ea4       ___acrt_copy_path_to_wide_string 10055ea4 f   libucrt:string_utilities.obj
 0001:00054f9c       ___acrt_copy_to_char       10055f9c f   libucrt:string_utilities.obj
 0001:00055087       __wremove                  10056087 f   libucrt:wunlink.obj
 0001:000550b9       __wunlink                  100560b9 f   libucrt:wunlink.obj
 0001:0005552d       __lseek                    1005652d f   libucrt:lseek.obj
 0001:0005553a       __lseek_nolock             1005653a f   libucrt:lseek.obj
 0001:00055547       __lseeki64                 10056547 f   libucrt:lseek.obj
 0001:00055568       __lseeki64_nolock          10056568 f   libucrt:lseek.obj
 0001:00055589       __chgsign                  10056589 f   libucrt:ieeemisc.obj
 0001:000555c3       __chgsignf                 100565c3 f   libucrt:ieeemisc.obj
 0001:000555ee       __copysign                 100565ee f   libucrt:ieeemisc.obj
 0001:00055622       __copysignf                10056622 f   libucrt:ieeemisc.obj
 0001:00055647       __finite                   10056647 f   libucrt:ieeemisc.obj
 0001:00055667       __fpclass                  10056667 f   libucrt:ieeemisc.obj
 0001:00055734       __isnan                    10056734 f   libucrt:ieeemisc.obj
 0001:00055777       __logb                     10056777 f   libucrt:ieeemisc.obj
 0001:0005587c       __nextafter                1005687c f   libucrt:ieeemisc.obj
 0001:000558a2       __scalb                    100568a2 f   libucrt:ieeemisc.obj
 0001:000558c2       __add_exp                  100568c2 f   libucrt:util.obj
 0001:000558fc       __decomp                   100568fc f   libucrt:util.obj
 0001:00055a05       __get_exp                  10056a05 f   libucrt:util.obj
 0001:00055a24       __set_bexp                 10056a24 f   libucrt:util.obj
 0001:00055a57       __set_exp                  10056a57 f   libucrt:util.obj
 0001:00055a91       __sptype                   10056a91 f   libucrt:util.obj
 0001:00055b06       ___clrfp_sse2              10056b06 f   libucrt:fpctrl.obj
 0001:00055b2f       ___ctrlfp_sse2             10056b2f f   libucrt:fpctrl.obj
 0001:00055b78       ___fclrf_sse2              10056b78 f   libucrt:fpctrl.obj
 0001:00055b9e       ___get_fpsr_sse2           10056b9e f   libucrt:fpctrl.obj
 0001:00055bc3       ___set_fpsr_sse2           10056bc3 f   libucrt:fpctrl.obj
 0001:00055c56       ___set_statfp_sse2         10056c56 f   libucrt:fpctrl.obj
 0001:00055c77       ___statfp_sse2             10056c77 f   libucrt:fpctrl.obj
 0001:00055c91       __clrfp                    10056c91 f   libucrt:fpctrl.obj
 0001:00055ca8       __ctrlfp                   10056ca8 f   libucrt:fpctrl.obj
 0001:00055cdf       __set_statfp               10056cdf f   libucrt:fpctrl.obj
 0001:00055d50       __statfp                   10056d50 f   libucrt:fpctrl.obj
 0001:00055e2d       ___acrt_report_runtime_error 10056e2d f   libucrt:report_runtime_error.obj
 0001:00055f93       __query_app_type           10056f93 f   libucrt:report_runtime_error.obj
 0001:00055f99       __set_app_type             10056f99 f   libucrt:report_runtime_error.obj
 0001:00056485       __i64toa                   10057485 f   libucrt:xtoa.obj
 0001:000564d8       __i64toa_s                 100574d8 f   libucrt:xtoa.obj
 0001:00056529       __i64tow                   10057529 f   libucrt:xtoa.obj
 0001:0005657c       __i64tow_s                 1005757c f   libucrt:xtoa.obj
 0001:000565cd       __itoa                     100575cd f   libucrt:xtoa.obj
 0001:00056611       __itoa_s                   10057611 f   libucrt:xtoa.obj
 0001:00056653       __itow                     10057653 f   libucrt:xtoa.obj
 0001:00056697       __itow_s                   10057697 f   libucrt:xtoa.obj
 0001:000566d9       __ltoa                     100576d9 f   libucrt:xtoa.obj
 0001:0005671d       __ltoa_s                   1005771d f   libucrt:xtoa.obj
 0001:0005675f       __ltow                     1005775f f   libucrt:xtoa.obj
 0001:000567a3       __ltow_s                   100577a3 f   libucrt:xtoa.obj
 0001:000567e5       __ui64toa                  100577e5 f   libucrt:xtoa.obj
 0001:0005680f       __ui64toa_s                1005780f f   libucrt:xtoa.obj
 0001:00056837       __ui64tow                  10057837 f   libucrt:xtoa.obj
 0001:00056861       __ui64tow_s                10057861 f   libucrt:xtoa.obj
 0001:00056889       __ultoa                    10057889 f   libucrt:xtoa.obj
 0001:000568af       __ultoa_s                  100578af f   libucrt:xtoa.obj
 0001:000568d3       __ultow                    100578d3 f   libucrt:xtoa.obj
 0001:000568f9       __ultow_s                  100578f9 f   libucrt:xtoa.obj
 0001:0005691d       __set_error_mode           1005791d f   libucrt:set_error_mode.obj
 0001:000569f9       _wcscat_s                  100579f9 f   libucrt:wcscat_s.obj
 0001:00056b03       _wcscpy_s                  10057b03 f   libucrt:wcscpy_s.obj
 0001:00056ca3       _wcsncat_s                 10057ca3 f   libucrt:wcsncat_s.obj
 0001:00056d33       _strcat_s                  10057d33 f   libucrt:strcat_s.obj
 0001:00056eba       _strncat_s                 10057eba f   libucrt:strncat_s.obj
 0001:000570e5       ??$message_box@$$TAAPBDAAPBDAAI@?$__crt_char_traits@D@@SAH$$QA$$TAAPBD1AAI@Z 100580e5 f i libucrt:crtmbox.obj
 0001:0005710d       ??$message_box@$$TAAPB_WAAPB_WAAI@?$__crt_char_traits@_W@@SAH$$QA$$TAAPB_W1AAI@Z 1005810d f i libucrt:crtmbox.obj
 0001:00057135       ??$message_box@$$TABQBDABQBDK@?$__crt_char_traits@D@@SAH$$QA$$TABQBD1$$QAK@Z 10058135 f i libucrt:crtmbox.obj
 0001:0005715d       ??$message_box@$$TABQB_WABQB_WK@?$__crt_char_traits@_W@@SAH$$QA$$TABQB_W1$$QAK@Z 1005815d f i libucrt:crtmbox.obj
 0001:00057185       ??$message_box@PAUHWND__@@ABQBDABQBDABI@?$__crt_char_traits@D@@SAH$$QAPAUHWND__@@ABQBD1ABI@Z 10058185 f i libucrt:crtmbox.obj
 0001:000571ad       ??$message_box@PAUHWND__@@ABQB_WABQB_WABI@?$__crt_char_traits@_W@@SAH$$QAPAUHWND__@@ABQB_W1ABI@Z 100581ad f i libucrt:crtmbox.obj
 0001:00057229       ??$output_debug_string@ABQBD@?$__crt_char_traits@D@@SAXABQBD@Z 10058229 f i libucrt:crtmbox.obj
 0001:0005723f       ??$output_debug_string@ABQB_W@?$__crt_char_traits@_W@@SAXABQB_W@Z 1005823f f i libucrt:crtmbox.obj
 0001:00057255       ??0?$__crt_unique_handle_t@U__crt_handle_traits@@@@QAE@QAX@Z 10058255 f i libucrt:crtmbox.obj
 0001:00057269       ??1?$__crt_unique_handle_t@U__crt_handle_traits@@@@QAE@XZ 10058269 f i libucrt:crtmbox.obj
 0001:00057285       ??B?$__crt_unique_handle_t@U__crt_handle_traits@@@@QBE_NXZ 10058285 f i libucrt:crtmbox.obj
 0001:00057290       ?close@?$__crt_unique_handle_t@U__crt_handle_traits@@@@QAEXXZ 10058290 f i libucrt:crtmbox.obj
 0001:000572ac       ?close@__crt_handle_traits@@SA_NPAX@Z 100582ac f i libucrt:crtmbox.obj
 0001:000572c7       ?get@?$__crt_unique_handle_t@U__crt_handle_traits@@@@QBEPAXXZ 100582c7 f i libucrt:crtmbox.obj
 0001:000572ca       ?get_invalid_value@__crt_handle_traits@@SAPAXXZ 100582ca f i libucrt:crtmbox.obj
 0001:000572ce       ?is_valid@?$__crt_unique_handle_t@U__crt_handle_traits@@@@QBE_NXZ 100582ce f i libucrt:crtmbox.obj
 0001:000572d9       ___acrt_show_narrow_message_box 100582d9 f   libucrt:crtmbox.obj
 0001:000572e6       ___acrt_show_wide_message_box 100582e6 f   libucrt:crtmbox.obj
 0001:000572f3       ??$?RV<lambda_d92cfe8357b99225085016881b624cb0>@@AAV<lambda_b721fa326cdb32351d23dfa67958c160>@@V<lambda_42d75b0848218ec137fa420c8ba9fdf9>@@@?$__crt_seh_guarded_call@H@@QAEH$$QAV<lambda_d92cfe8357b99225085016881b624cb0>@@AAV<lambda_b721fa326cdb32351d23dfa67958c160>@@$$QAV<lambda_42d75b0848218ec137fa420c8ba9fdf9>@@@Z 100582f3 f i libucrt:setvbuf.obj
 0001:00057358       ??$__acrt_lock_stream_and_call@V<lambda_b721fa326cdb32351d23dfa67958c160>@@@@YAHQAU_iobuf@@$$QAV<lambda_b721fa326cdb32351d23dfa67958c160>@@@Z 10058358 f i libucrt:setvbuf.obj
 0001:000574f5       _setvbuf                   100584f5 f   libucrt:setvbuf.obj
 0001:00057588       ??$?B$$A6AXH@Z@__crt_fast_encoded_nullptr_t@@QBEP6AXH@ZXZ 10058588 f i libucrt:signal.obj
 0001:000575a6       ??$?RV<lambda_a048d3beccc847880fc8490e18b82769>@@AAV<lambda_ec61778202f4f5fc7e7711acc23c3bca>@@V<lambda_f7496a158712204296dd6628a163878e>@@@?$__crt_seh_guarded_call@P6AXH@Z@@QAEP6AXH@Z$$QAV<lambda_a048d3beccc847880fc8490e18b82769>@@AAV<lambda_ec61778202f4f5fc7e7711acc23c3bca>@@$$QAV<lambda_f7496a158712204296dd6628a163878e>@@@Z 100585a6 f i libucrt:signal.obj
 0001:00057616       ??$__acrt_lock_and_call@V<lambda_ec61778202f4f5fc7e7711acc23c3bca>@@@@YAP6AXH@ZW4__acrt_lock_id@@$$QAV<lambda_ec61778202f4f5fc7e7711acc23c3bca>@@@Z 10058616 f i libucrt:signal.obj
 0001:00057648       ??$__crt_fast_decode_pointer@P6AXH@Z@@YAP6AXH@ZQ6AXH@Z@Z 10058648 f i libucrt:signal.obj
 0001:00057663       ??$__crt_fast_encode_pointer@P6AXH@Z@@YAP6AXH@ZQ6AXH@Z@Z 10058663 f i libucrt:signal.obj
 0001:0005780d       ?initialize@?$dual_state_global@P6AXH@Z@__crt_state_management@@QAEXQ6AXH@Z@Z 1005880d f i libucrt:signal.obj
 0001:000578b9       ?value@?$dual_state_global@P6AXH@Z@__crt_state_management@@QAEAAP6AXH@ZXZ 100588b9 f i libucrt:signal.obj
 0001:000578bc       ___acrt_get_sigabrt_handler 100588bc f   libucrt:signal.obj
 0001:000578d8       ___acrt_initialize_signal_handlers 100588d8 f   libucrt:signal.obj
 0001:00057921       ___fpecode                 10058921 f   libucrt:signal.obj
 0001:0005792c       ___pxcptinfoptrs           1005892c f   libucrt:signal.obj
 0001:00057937       _raise                     10058937 f   libucrt:signal.obj
 0001:00057bc1       _signal                    10058bc1 f   libucrt:signal.obj
 0001:00057ddf       ??$__crt_fast_decode_pointer@P6AHPAU_exception@@@Z@@YAP6AHPAU_exception@@@ZQ6AH0@Z@Z 10058ddf f i libucrt:matherr.obj
 0001:00057dfa       ??$__crt_fast_encode_pointer@P6AHPAU_exception@@@Z@@YAP6AHPAU_exception@@@ZQ6AH0@Z@Z 10058dfa f i libucrt:matherr.obj
 0001:00057e20       ?initialize@?$dual_state_global@P6AHPAU_exception@@@Z@__crt_state_management@@QAEXQ6AHPAU_exception@@@Z@Z 10058e20 f i libucrt:matherr.obj
 0001:00057e5d       ?value@?$dual_state_global@P6AHPAU_exception@@@Z@__crt_state_management@@QAEAAP6AHPAU_exception@@@ZXZ 10058e5d f i libucrt:matherr.obj
 0001:00057e60       ___acrt_has_user_matherr   10058e60 f   libucrt:matherr.obj
 0001:00057e7f       ___acrt_initialize_user_matherr 10058e7f f   libucrt:matherr.obj
 0001:00057e98       ___acrt_invoke_user_matherr 10058e98 f   libucrt:matherr.obj
 0001:00057ef3       ___setusermatherr          10058ef3 f   libucrt:matherr.obj
 0001:00058905       ??$find_first_file_ex@ABQADW4_FINDEX_INFO_LEVELS@@PAU_WIN32_FIND_DATAA@@W4_FINDEX_SEARCH_OPS@@$$TH@?$__crt_char_traits@D@@SAPAXABQAD$$QAW4_FINDEX_INFO_LEVELS@@$$QAPAU_WIN32_FIND_DATAA@@$$QAW4_FINDEX_SEARCH_OPS@@$$QA$$T$$QAH@Z 10059905 f i libucrt:argv_wildcards.obj
 0001:0005893a       ??$find_first_file_ex@ABQA_WW4_FINDEX_INFO_LEVELS@@PAU_WIN32_FIND_DATAW@@W4_FINDEX_SEARCH_OPS@@$$TH@?$__crt_char_traits@_W@@SAPAXABQA_W$$QAW4_FINDEX_INFO_LEVELS@@$$QAPAU_WIN32_FIND_DATAW@@$$QAW4_FINDEX_SEARCH_OPS@@$$QA$$T$$QAH@Z 1005993a f i libucrt:argv_wildcards.obj
 0001:0005896f       ??$find_next_file@PAXPAU_WIN32_FIND_DATAA@@@?$__crt_char_traits@D@@SAH$$QAPAX$$QAPAU_WIN32_FIND_DATAA@@@Z 1005996f f i libucrt:argv_wildcards.obj
 0001:0005898b       ??$find_next_file@PAXPAU_WIN32_FIND_DATAW@@@?$__crt_char_traits@_W@@SAH$$QAPAX$$QAPAU_WIN32_FIND_DATAW@@@Z 1005998b f i libucrt:argv_wildcards.obj
 0001:000589a7       ??$tcsncpy_s@AAPADIAAPADABI@?$__crt_char_traits@D@@SAHAAPAD$$QAI0ABI@Z 100599a7 f i libucrt:argv_wildcards.obj
 0001:000589d2       ??$tcsncpy_s@AAPA_WIAAPA_WABI@?$__crt_char_traits@_W@@SAHAAPA_W$$QAI0ABI@Z 100599d2 f i libucrt:argv_wildcards.obj
 0001:000589fd       ??$tcsncpy_s@PAD$$CBIABQBDABI@?$__crt_char_traits@D@@SAH$$QAPAD$$QBIABQBDABI@Z 100599fd f i libucrt:argv_wildcards.obj
 0001:00058a28       ??$tcsncpy_s@PADABIABQBDABI@?$__crt_char_traits@D@@SAH$$QAPADABIABQBD1@Z 10059a28 f i libucrt:argv_wildcards.obj
 0001:00058a53       ??$tcsncpy_s@PA_W$$CBIABQB_WABI@?$__crt_char_traits@_W@@SAH$$QAPA_W$$QBIABQB_WABI@Z 10059a53 f i libucrt:argv_wildcards.obj
 0001:00058a7e       ??$tcsncpy_s@PA_WABIABQB_WABI@?$__crt_char_traits@_W@@SAH$$QAPA_WABIABQB_W1@Z 10059a7e f i libucrt:argv_wildcards.obj
 0001:00058aa9       ??$tcspbrk@AAPADAAY02$$CBD@?$__crt_char_traits@D@@SAPADAAPADAAY02$$CBD@Z 10059aa9 f i libucrt:argv_wildcards.obj
 0001:00058ac4       ??$tcspbrk@AAPA_WAAY02$$CB_W@?$__crt_char_traits@_W@@SAPA_WAAPA_WAAY02$$CB_W@Z 10059ac4 f i libucrt:argv_wildcards.obj
 0001:00058adf       ??0?$__crt_unique_handle_t@U__crt_findfile_traits@@@@QAE@QAX@Z 10059adf f i libucrt:argv_wildcards.obj
 0001:00058af3       ??0?$argument_list@D@?A0xb0e4b824@@QAE@XZ 10059af3 f i libucrt:argv_wildcards.obj
 0001:00058b03       ??0?$argument_list@_W@?A0xb0e4b824@@QAE@XZ 10059b03 f i libucrt:argv_wildcards.obj
 0001:00058b13       ??1?$__crt_unique_handle_t@U__crt_findfile_traits@@@@QAE@XZ 10059b13 f i libucrt:argv_wildcards.obj
 0001:00058b2f       ??1?$argument_list@D@?A0xb0e4b824@@QAE@XZ 10059b2f f i libucrt:argv_wildcards.obj
 0001:00058b5d       ??1?$argument_list@_W@?A0xb0e4b824@@QAE@XZ 10059b5d f i libucrt:argv_wildcards.obj
 0001:00058beb       ?append@?$argument_list@D@?A0xb0e4b824@@QAEHQAD@Z 10059beb f i libucrt:argv_wildcards.obj
 0001:00058c2d       ?append@?$argument_list@_W@?A0xb0e4b824@@QAEHQA_W@Z 10059c2d f i libucrt:argv_wildcards.obj
 0001:00058c6f       ?begin@?$argument_list@D@?A0xb0e4b824@@QBEPAPADXZ 10059c6f f i libucrt:argv_wildcards.obj
 0001:00058c72       ?begin@?$argument_list@_W@?A0xb0e4b824@@QBEPAPA_WXZ 10059c72 f i libucrt:argv_wildcards.obj
 0001:00058c75       ?close@?$__crt_unique_handle_t@U__crt_findfile_traits@@@@QAEXXZ 10059c75 f i libucrt:argv_wildcards.obj
 0001:00058c91       ?close@__crt_findfile_traits@@SA_NPAX@Z 10059c91 f i libucrt:argv_wildcards.obj
 0001:00058cac       ?end@?$argument_list@D@?A0xb0e4b824@@QBEPAPADXZ 10059cac f i libucrt:argv_wildcards.obj
 0001:00058cb0       ?end@?$argument_list@_W@?A0xb0e4b824@@QBEPAPA_WXZ 10059cb0 f i libucrt:argv_wildcards.obj
 0001:00058cb4       ?expand_if_necessary@?$argument_list@D@?A0xb0e4b824@@AAEHXZ 10059cb4 f i libucrt:argv_wildcards.obj
 0001:00058d5c       ?expand_if_necessary@?$argument_list@_W@?A0xb0e4b824@@AAEHXZ 10059d5c f i libucrt:argv_wildcards.obj
 0001:00058e04       ?get@?$__crt_unique_handle_t@U__crt_findfile_traits@@@@QBEPAXXZ 10059e04 f i libucrt:argv_wildcards.obj
 0001:00058e07       ?get_invalid_value@__crt_findfile_traits@@SAPAXXZ 10059e07 f i libucrt:argv_wildcards.obj
 0001:00058e28       ?size@?$argument_list@D@?A0xb0e4b824@@QBEIXZ 10059e28 f i libucrt:argv_wildcards.obj
 0001:00058e33       ?size@?$argument_list@_W@?A0xb0e4b824@@QBEIXZ 10059e33 f i libucrt:argv_wildcards.obj
 0001:00058e3e       ?strpbrk@@YAPADQADQBD@Z    10059e3e f i libucrt:argv_wildcards.obj
 0001:00058e4b       ?wcspbrk@@YAPA_WPA_WPB_W@Z 10059e4b f i libucrt:argv_wildcards.obj
 0001:00058e58       ___acrt_expand_narrow_argv_wildcards 10059e58 f   libucrt:argv_wildcards.obj
 0001:00058e65       ___acrt_expand_wide_argv_wildcards 10059e65 f   libucrt:argv_wildcards.obj
 0001:00058e72       ??$?RV<lambda_978dc153c237d78434369da87b74ff60>@@AAV<lambda_ad1ced32f4ac17aa236e5ef05d6b3b7c>@@V<lambda_4a8533e2866a575feecb8298ce776b0d>@@@?$__crt_seh_guarded_call@X@@QAEX$$QAV<lambda_978dc153c237d78434369da87b74ff60>@@AAV<lambda_ad1ced32f4ac17aa236e5ef05d6b3b7c>@@$$QAV<lambda_4a8533e2866a575feecb8298ce776b0d>@@@Z 10059e72 f i libucrt:mbctype.obj
 0001:00058ec5       ??$__acrt_lock_and_call@V<lambda_ad1ced32f4ac17aa236e5ef05d6b3b7c>@@@@YAXW4__acrt_lock_id@@$$QAV<lambda_ad1ced32f4ac17aa236e5ef05d6b3b7c>@@@Z 10059ec5 f i libucrt:mbctype.obj
 0001:000594d6       ___acrt_initialize_multibyte 1005a4d6 f   libucrt:mbctype.obj
 0001:000594fb       ___acrt_update_thread_multibyte_data 1005a4fb f   libucrt:mbctype.obj
 0001:000595c5       ___p__mbcasemap            1005a5c5 f   libucrt:mbctype.obj
 0001:000595cb       ___p__mbctype              1005a5cb f   libucrt:mbctype.obj
 0001:000595d1       __getmbcp                  1005a5d1 f   libucrt:mbctype.obj
 0001:00059614       __setmbcp                  1005a614 f   libucrt:mbctype.obj
 0001:0005962b       __setmbcp_nolock           1005a62b f   libucrt:mbctype.obj
 0001:000599a8       __ismbbalnum               1005a9a8 f   libucrt:ismbbyte.obj
 0001:000599c9       __ismbbalnum_l             1005a9c9 f   libucrt:ismbbyte.obj
 0001:000599ec       __ismbbalpha               1005a9ec f   libucrt:ismbbyte.obj
 0001:00059a0d       __ismbbalpha_l             1005aa0d f   libucrt:ismbbyte.obj
 0001:00059a30       __ismbbblank               1005aa30 f   libucrt:ismbbyte.obj
 0001:00059a5b       __ismbbblank_l             1005aa5b f   libucrt:ismbbyte.obj
 0001:00059a88       __ismbbgraph               1005aa88 f   libucrt:ismbbyte.obj
 0001:00059aa9       __ismbbgraph_l             1005aaa9 f   libucrt:ismbbyte.obj
 0001:00059acc       __ismbbkalnum              1005aacc f   libucrt:ismbbyte.obj
 0001:00059aea       __ismbbkalnum_l            1005aaea f   libucrt:ismbbyte.obj
 0001:00059b09       __ismbbkana                1005ab09 f   libucrt:ismbbyte.obj
 0001:00059b20       __ismbbkana_l              1005ab20 f   libucrt:ismbbyte.obj
 0001:00059b85       __ismbbkprint              1005ab85 f   libucrt:ismbbyte.obj
 0001:00059ba3       __ismbbkprint_l            1005aba3 f   libucrt:ismbbyte.obj
 0001:00059bc2       __ismbbkpunct              1005abc2 f   libucrt:ismbbyte.obj
 0001:00059be0       __ismbbkpunct_l            1005abe0 f   libucrt:ismbbyte.obj
 0001:00059bff       __ismbblead                1005abff f   libucrt:ismbbyte.obj
 0001:00059c1d       __ismbblead_l              1005ac1d f   libucrt:ismbbyte.obj
 0001:00059c3c       __ismbbprint               1005ac3c f   libucrt:ismbbyte.obj
 0001:00059c5d       __ismbbprint_l             1005ac5d f   libucrt:ismbbyte.obj
 0001:00059c80       __ismbbpunct               1005ac80 f   libucrt:ismbbyte.obj
 0001:00059c9e       __ismbbpunct_l             1005ac9e f   libucrt:ismbbyte.obj
 0001:00059cbd       __ismbbtrail               1005acbd f   libucrt:ismbbyte.obj
 0001:00059cdb       __ismbbtrail_l             1005acdb f   libucrt:ismbbyte.obj
 0001:00059cfa       ___acrt_initialize_command_line 1005acfa f   libucrt:argv_data.obj
 0001:00059d19       ___acrt_uninitialize_command_line 1005ad19 f   libucrt:argv_data.obj
 0001:00059d1c       ___p___argc                1005ad1c f   libucrt:argv_data.obj
 0001:00059d22       ___p___argv                1005ad22 f   libucrt:argv_data.obj
 0001:00059d28       ___p___wargv               1005ad28 f   libucrt:argv_data.obj
 0001:00059d2e       ___p__acmdln               1005ad2e f   libucrt:argv_data.obj
 0001:00059d34       ___p__pgmptr               1005ad34 f   libucrt:argv_data.obj
 0001:00059d3a       ___p__wcmdln               1005ad3a f   libucrt:argv_data.obj
 0001:00059d40       ___p__wpgmptr              1005ad40 f   libucrt:argv_data.obj
 0001:00059d46       __get_pgmptr               1005ad46 f   libucrt:argv_data.obj
 0001:00059d83       __get_wpgmptr              1005ad83 f   libucrt:argv_data.obj
 0001:00059dc0       ??0?$__crt_unique_handle_t@Uenvironment_strings_traits@?A0x588e5281@@@@QAE@QA_W@Z 1005adc0 f i libucrt:get_environment_from_os.obj
 0001:00059dd4       ??1?$__crt_unique_handle_t@Uenvironment_strings_traits@?A0x588e5281@@@@QAE@XZ 1005add4 f i libucrt:get_environment_from_os.obj
 0001:00059df0       ??B?$__crt_unique_handle_t@Uenvironment_strings_traits@?A0x588e5281@@@@QBE_NXZ 1005adf0 f i libucrt:get_environment_from_os.obj
 0001:00059dfa       ?close@?$__crt_unique_handle_t@Uenvironment_strings_traits@?A0x588e5281@@@@QAEXXZ 1005adfa f i libucrt:get_environment_from_os.obj
 0001:00059e16       ?close@environment_strings_traits@?A0x588e5281@@SA_NPA_W@Z 1005ae16 f i libucrt:get_environment_from_os.obj
 0001:00059e70       ?get@?$__crt_unique_handle_t@Uenvironment_strings_traits@?A0x588e5281@@@@QBEPA_WXZ 1005ae70 f i libucrt:get_environment_from_os.obj
 0001:00059e73       ?get_invalid_value@environment_strings_traits@?A0x588e5281@@SAPA_WXZ 1005ae73 f i libucrt:get_environment_from_os.obj
 0001:00059e76       ?is_valid@?$__crt_unique_handle_t@Uenvironment_strings_traits@?A0x588e5281@@@@QBE_NXZ 1005ae76 f i libucrt:get_environment_from_os.obj
 0001:00059e80       ___dcrt_get_narrow_environment_from_os 1005ae80 f   libucrt:get_environment_from_os.obj
 0001:00059f23       ___dcrt_get_wide_environment_from_os 1005af23 f   libucrt:get_environment_from_os.obj
 0001:0005a7bb       ??$get_or_create_environment_nolock@$$$V@?$__crt_char_traits@D@@SAPAPADXZ 1005b7bb f i libucrt:setenv.obj
 0001:0005a7c0       ??$get_or_create_environment_nolock@$$$V@?$__crt_char_traits@_W@@SAPAPA_WXZ 1005b7c0 f i libucrt:setenv.obj
 0001:0005a7c5       ??$set_environment_variable@ABQADQAD@?$__crt_char_traits@D@@SAHABQAD$$QBQAD@Z 1005b7c5 f i libucrt:setenv.obj
 0001:0005a7e1       ??$set_environment_variable@ABQA_WQA_W@?$__crt_char_traits@_W@@SAHABQA_W$$QBQA_W@Z 1005b7e1 f i libucrt:setenv.obj
 0001:0005a7fd       ??$tcschr@ABQADD@?$__crt_char_traits@D@@SAPADABQAD$$QAD@Z 1005b7fd f i libucrt:setenv.obj
 0001:0005a81d       ??$tcschr@ABQA_WD@?$__crt_char_traits@_W@@SAPA_WABQA_W$$QAD@Z 1005b81d f i libucrt:setenv.obj
 0001:0005a842       ??$tcscpy_s@AAPADABIAAPAD@?$__crt_char_traits@D@@SAHAAPADABI0@Z 1005b842 f i libucrt:setenv.obj
 0001:0005a867       ??$tcscpy_s@AAPA_WABIAAPA_W@?$__crt_char_traits@_W@@SAHAAPA_WABI0@Z 1005b867 f i libucrt:setenv.obj
 0001:0005a88c       ??$tcscpy_s@ABQADABIABQAD@?$__crt_char_traits@D@@SAHABQADABI0@Z 1005b88c f i libucrt:setenv.obj
 0001:0005a8b1       ??$tcscpy_s@ABQA_WABIABQA_W@?$__crt_char_traits@_W@@SAHABQA_WABI0@Z 1005b8b1 f i libucrt:setenv.obj
 0001:0005a8d6       ??$tcsnicoll@ABQBDAAPADABI@?$__crt_char_traits@D@@SAHABQBDAAPADABI@Z 1005b8d6 f i libucrt:setenv.obj
 0001:0005a8fb       ??$tcsnicoll@ABQB_WAAPA_WABI@?$__crt_char_traits@_W@@SAHABQB_WAAPA_WABI@Z 1005b8fb f i libucrt:setenv.obj
 0001:0005a944       ?strchr@@YAPADQADH@Z       1005b944 f i libucrt:setenv.obj
 0001:0005a951       ?wcschr@@YAPA_WPA_W_W@Z    1005b951 f i libucrt:setenv.obj
 0001:0005a95e       ___dcrt_set_variable_in_narrow_environment_nolock 1005b95e f   libucrt:setenv.obj
 0001:0005a96b       ___dcrt_set_variable_in_wide_environment_nolock 1005b96b f   libucrt:setenv.obj
 0001:0005a978       __recalloc                 1005b978 f   libucrt:recalloc.obj
 0001:0005a985       __recalloc_base            1005b985 f   libucrt:recalloc.obj
 0001:0005aa0d       ___acrt_getheap            1005ba0d f   libucrt:heap_handle.obj
 0001:0005aa13       ___acrt_initialize_heap    1005ba13 f   libucrt:heap_handle.obj
 0001:0005aa28       ___acrt_uninitialize_heap  1005ba28 f   libucrt:heap_handle.obj
 0001:0005aa34       __get_heap_handle          1005ba34 f   libucrt:heap_handle.obj
 0001:0005aa3a       ___acrt_execute_initializers 1005ba3a f   libucrt:shared_initialization.obj
 0001:0005aadd       ___acrt_execute_uninitializers 1005badd f   libucrt:shared_initialization.obj
 0001:0005ab3d       ??$?B$$A6AHI@Z@__crt_fast_encoded_nullptr_t@@QBEP6AHI@ZXZ 1005bb3d f i libucrt:new_handler.obj
 0001:0005ab5b       ??$__crt_fast_decode_pointer@P6AHI@Z@@YAP6AHI@ZQ6AHI@Z@Z 1005bb5b f i libucrt:new_handler.obj
 0001:0005ab76       ??$__crt_fast_encode_pointer@P6AHI@Z@@YAP6AHI@ZQ6AHI@Z@Z 1005bb76 f i libucrt:new_handler.obj
 0001:0005ab9c       ?_set_new_handler@@YAP6AHI@ZH@Z 1005bb9c f   libucrt:new_handler.obj
 0001:0005abc2       ?initialize@?$dual_state_global@P6AHI@Z@__crt_state_management@@QAEXQ6AHI@Z@Z 1005bbc2 f i libucrt:new_handler.obj
 0001:0005abff       ?value@?$dual_state_global@P6AHI@Z@__crt_state_management@@QAEAAP6AHI@ZXZ 1005bbff f i libucrt:new_handler.obj
 0001:0005ac02       ___acrt_initialize_new_handler 1005bc02 f   libucrt:new_handler.obj
 0001:0005ac1b       __callnewh                 1005bc1b f   libucrt:new_handler.obj
 0001:0005ac70       __query_new_handler        1005bc70 f   libucrt:new_handler.obj
 0001:0005acd6       __set_new_handler          1005bcd6 f   libucrt:new_handler.obj
 0001:0005ad4e       ?value@?$dual_state_global@J@__crt_state_management@@QAEAAJXZ 1005bd4e f i libucrt:new_mode.obj
 0001:0005ad51       __query_new_mode           1005bd51 f   libucrt:new_mode.obj
 0001:0005ad57       __set_new_mode             1005bd57 f   libucrt:new_mode.obj
 0001:0005ad91       ___pctype_func             1005bd91 f   libucrt:ctype.obj
 0001:0005adc0       ___pwctype_func            1005bdc0 f   libucrt:ctype.obj
 0001:0005adc6       __iswctype_l               1005bdc6 f   libucrt:iswctype.obj
 0001:0005addf       _iswctype                  1005bddf f   libucrt:iswctype.obj
 0001:0005ae55       __isctype                  1005be55 f   libucrt:isctype.obj
 0001:0005ae92       __isctype_l                1005be92 f   libucrt:isctype.obj
 0001:0005b159       ___acrt_DownlevelLCIDToLocaleName 1005c159 f   libucrt:lcidtoname_downlevel.obj
 0001:0005b22d       ___acrt_DownlevelLocaleNameToLCID 1005c22d f   libucrt:lcidtoname_downlevel.obj
 0001:0005b264       ??$?RV<lambda_61cee617f5178ae960314fd4d05640a0>@@AAV<lambda_6978c1fb23f02e42e1d9e99668cc68aa>@@V<lambda_9cd88cf8ad10232537feb2133f08c833>@@@?$__crt_seh_guarded_call@H@@QAEH$$QAV<lambda_61cee617f5178ae960314fd4d05640a0>@@AAV<lambda_6978c1fb23f02e42e1d9e99668cc68aa>@@$$QAV<lambda_9cd88cf8ad10232537feb2133f08c833>@@@Z 1005c264 f i libucrt:commit.obj
 0001:0005b322       ??$__acrt_lowio_lock_fh_and_call@V<lambda_6978c1fb23f02e42e1d9e99668cc68aa>@@@@YAHH$$QAV<lambda_6978c1fb23f02e42e1d9e99668cc68aa>@@@Z 1005c322 f i libucrt:commit.obj
 0001:0005b414       __commit                   1005c414 f   libucrt:commit.obj
 0001:0005b49e       ??$?RU__crt_lowio_handle_data@@@__crt_internal_free_policy@@QBEXQBU__crt_lowio_handle_data@@@Z 1005c49e f i libucrt:osfinfo.obj
 0001:0005b4b4       ??0?$__crt_unique_heap_ptr@U__crt_lowio_handle_data@@U__crt_internal_free_policy@@@@QAE@QAU__crt_lowio_handle_data@@@Z 1005c4b4 f i libucrt:osfinfo.obj
 0001:0005b4c8       ??1?$__crt_unique_heap_ptr@U__crt_lowio_handle_data@@U__crt_internal_free_policy@@@@QAE@XZ 1005c4c8 f i libucrt:osfinfo.obj
 0001:0005b4de       ??B?$__crt_unique_heap_ptr@U__crt_lowio_handle_data@@U__crt_internal_free_policy@@@@QBE_NXZ 1005c4de f i libucrt:osfinfo.obj
 0001:0005b4e8       ?detach@?$__crt_unique_heap_ptr@U__crt_lowio_handle_data@@U__crt_internal_free_policy@@@@QAEPAU__crt_lowio_handle_data@@XZ 1005c4e8 f i libucrt:osfinfo.obj
 0001:0005b4ee       ?get@?$__crt_unique_heap_ptr@U__crt_lowio_handle_data@@U__crt_internal_free_policy@@@@QBEPAU__crt_lowio_handle_data@@XZ 1005c4ee f i libucrt:osfinfo.obj
 0001:0005b4f1       ?is_valid@?$__crt_unique_heap_ptr@U__crt_lowio_handle_data@@U__crt_internal_free_policy@@@@QBE_NXZ 1005c4f1 f i libucrt:osfinfo.obj
 0001:0005b4fb       ?release@?$__crt_unique_heap_ptr@U__crt_lowio_handle_data@@U__crt_internal_free_policy@@@@QAEXXZ 1005c4fb f i libucrt:osfinfo.obj
 0001:0005b511       ___acrt_lowio_create_handle_array 1005c511 f   libucrt:osfinfo.obj
 0001:0005b5a9       ___acrt_lowio_destroy_handle_array 1005c5a9 f   libucrt:osfinfo.obj
 0001:0005b5eb       ___acrt_lowio_ensure_fh_exists 1005c5eb f   libucrt:osfinfo.obj
 0001:0005b6a9       ___acrt_lowio_lock_fh      1005c6a9 f   libucrt:osfinfo.obj
 0001:0005b6d4       ___acrt_lowio_set_os_handle 1005c6d4 f   libucrt:osfinfo.obj
 0001:0005b78d       ___acrt_lowio_unlock_fh    1005c78d f   libucrt:osfinfo.obj
 0001:0005b7b8       __alloc_osfhnd             1005c7b8 f   libucrt:osfinfo.obj
 0001:0005b90e       __free_osfhnd              1005c90e f   libucrt:osfinfo.obj
 0001:0005b9c3       __get_osfhandle            1005c9c3 f   libucrt:osfinfo.obj
 0001:0005ba47       __open_osfhandle           1005ca47 f   libucrt:osfinfo.obj
 0001:0005bb98       ___iswcsym                 1005cb98 f i libucrt:_wctype.obj
 0001:0005bbc7       ___iswcsymf                1005cbc7 f i libucrt:_wctype.obj
 0001:0005bbf6       __isleadbyte_l             1005cbf6 f i libucrt:_wctype.obj
 0001:0005bc3d       __iswalnum_l               1005cc3d f i libucrt:_wctype.obj
 0001:0005bc58       __iswalpha_l               1005cc58 f i libucrt:_wctype.obj
 0001:0005bc73       __iswblank_l               1005cc73 f i libucrt:_wctype.obj
 0001:0005bc97       __iswcntrl_l               1005cc97 f i libucrt:_wctype.obj
 0001:0005bcae       __iswcsym_l                1005ccae f i libucrt:_wctype.obj
 0001:0005bcdd       __iswcsymf_l               1005ccdd f i libucrt:_wctype.obj
 0001:0005bd0c       __iswdigit_l               1005cd0c f i libucrt:_wctype.obj
 0001:0005bd23       __iswgraph_l               1005cd23 f i libucrt:_wctype.obj
 0001:0005bd3e       __iswlower_l               1005cd3e f i libucrt:_wctype.obj
 0001:0005bd55       __iswprint_l               1005cd55 f i libucrt:_wctype.obj
 0001:0005bd70       __iswpunct_l               1005cd70 f i libucrt:_wctype.obj
 0001:0005bd87       __iswspace_l               1005cd87 f i libucrt:_wctype.obj
 0001:0005bd9e       __iswupper_l               1005cd9e f i libucrt:_wctype.obj
 0001:0005bdb5       __iswxdigit_l              1005cdb5 f i libucrt:_wctype.obj
 0001:0005bdd0       _isleadbyte                1005cdd0 f i libucrt:_wctype.obj
 0001:0005bde7       _iswalnum                  1005cde7 f i libucrt:_wctype.obj
 0001:0005be02       _iswalpha                  1005ce02 f i libucrt:_wctype.obj
 0001:0005be1d       _iswascii                  1005ce1d f i libucrt:_wctype.obj
 0001:0005be36       _iswblank                  1005ce36 f i libucrt:_wctype.obj
 0001:0005be5a       _iswcntrl                  1005ce5a f i libucrt:_wctype.obj
 0001:0005be71       _iswdigit                  1005ce71 f i libucrt:_wctype.obj
 0001:0005be88       _iswgraph                  1005ce88 f i libucrt:_wctype.obj
 0001:0005bea3       _iswlower                  1005cea3 f i libucrt:_wctype.obj
 0001:0005beba       _iswprint                  1005ceba f i libucrt:_wctype.obj
 0001:0005bed5       _iswpunct                  1005ced5 f i libucrt:_wctype.obj
 0001:0005beec       _iswspace                  1005ceec f i libucrt:_wctype.obj
 0001:0005bf03       _iswupper                  1005cf03 f i libucrt:_wctype.obj
 0001:0005bf1a       _iswxdigit                 1005cf1a f i libucrt:_wctype.obj
 0001:0005bf35       ??0?$__crt_scoped_stack_ptr@_W@@QAE@U?$__crt_scoped_stack_ptr_tag@_W@@@Z 1005cf35 f i libucrt:lcmapstringa.obj
 0001:0005bf49       ??0?$__crt_scoped_stack_ptr_tag@_W@@QAE@QA_W@Z 1005cf49 f i libucrt:lcmapstringa.obj
 0001:0005bf5d       ??1?$__crt_scoped_stack_ptr@_W@@QAE@XZ 1005cf5d f i libucrt:lcmapstringa.obj
 0001:0005bf68       ??B?$__crt_scoped_stack_ptr@_W@@QBE_NXZ 1005cf68 f i libucrt:lcmapstringa.obj
 0001:0005c216       ?get@?$__crt_scoped_stack_ptr@_W@@QBEPA_WXZ 1005d216 f i libucrt:lcmapstringa.obj
 0001:0005c219       __MallocaComputeSize       1005d219 f i libucrt:lcmapstringa.obj
 0001:0005c230       __MarkAllocaS              1005d230 f i libucrt:lcmapstringa.obj
 0001:0005c24b       ___acrt_LCMapStringA       1005d24b f   libucrt:lcmapstringa.obj
 0001:0005c2a8       __freea_crt                1005d2a8 f i libucrt:lcmapstringa.obj
 0001:0005c2d0       ??$?RG@__crt_internal_free_policy@@QBEXQBG@Z 1005d2d0 f i libucrt:initctype.obj
 0001:0005c2e6       ??$?RJ@__crt_internal_free_policy@@QBEXQBJ@Z 1005d2e6 f i libucrt:initctype.obj
 0001:0005c2fc       ??0?$__crt_unique_heap_ptr@GU__crt_internal_free_policy@@@@QAE@QAG@Z 1005d2fc f i libucrt:initctype.obj
 0001:0005c310       ??0?$__crt_unique_heap_ptr@JU__crt_internal_free_policy@@@@QAE@QAJ@Z 1005d310 f i libucrt:initctype.obj
 0001:0005c324       ??1?$__crt_unique_heap_ptr@GU__crt_internal_free_policy@@@@QAE@XZ 1005d324 f i libucrt:initctype.obj
 0001:0005c33a       ??1?$__crt_unique_heap_ptr@JU__crt_internal_free_policy@@@@QAE@XZ 1005d33a f i libucrt:initctype.obj
 0001:0005c350       ?detach@?$__crt_unique_heap_ptr@GU__crt_internal_free_policy@@@@QAEPAGXZ 1005d350 f i libucrt:initctype.obj
 0001:0005c356       ?detach@?$__crt_unique_heap_ptr@JU__crt_internal_free_policy@@@@QAEPAJXZ 1005d356 f i libucrt:initctype.obj
 0001:0005c35c       ?release@?$__crt_unique_heap_ptr@GU__crt_internal_free_policy@@@@QAEXXZ 1005d35c f i libucrt:initctype.obj
 0001:0005c372       ?release@?$__crt_unique_heap_ptr@JU__crt_internal_free_policy@@@@QAEXXZ 1005d372 f i libucrt:initctype.obj
 0001:0005c388       ____lc_codepage_func       1005d388 f   libucrt:initctype.obj
 0001:0005c3b8       ____lc_collate_cp_func     1005d3b8 f   libucrt:initctype.obj
 0001:0005c3e8       ____lc_locale_name_func    1005d3e8 f   libucrt:initctype.obj
 0001:0005c41b       ____mb_cur_max_func        1005d41b f   libucrt:initctype.obj
 0001:0005c44b       ____mb_cur_max_l_func      1005d44b f   libucrt:initctype.obj
 0001:0005c46a       ___acrt_locale_initialize_ctype 1005d46a f   libucrt:initctype.obj
 0001:0005c8ef       ___acrt_add_locale_ref     1005d8ef f   libucrt:locale_refcounting.obj
 0001:0005c98b       ___acrt_free_locale        1005d98b f   libucrt:locale_refcounting.obj
 0001:0005cb27       ___acrt_locale_add_lc_time_reference 1005db27 f   libucrt:locale_refcounting.obj
 0001:0005cb5a       ___acrt_locale_free_lc_time_if_unreferenced 1005db5a f   libucrt:locale_refcounting.obj
 0001:0005cb96       ___acrt_locale_release_lc_time_reference 1005db96 f   libucrt:locale_refcounting.obj
 0001:0005cbc9       ___acrt_release_locale_ref 1005dbc9 f   libucrt:locale_refcounting.obj
 0001:0005cc6a       ___acrt_update_thread_locale_data 1005dc6a f   libucrt:locale_refcounting.obj
 0001:0005ccfe       __updatetlocinfoEx_nolock  1005dcfe f   libucrt:locale_refcounting.obj
 0001:0005cd62       ___acrt_fp_strflt_to_string 1005dd62 f   libucrt:_fptostr.obj
 0001:0005e590       ??0big_integer@__crt_strtox@@QAE@ABU01@@Z 1005f590 f i libucrt:cfout.obj
 0001:0005e5d0       ??0big_integer@__crt_strtox@@QAE@XZ 1005f5d0 f i libucrt:cfout.obj
 0001:0005e5db       ??0scoped_fp_state_reset@?A0x48fbfdd4@@QAE@XZ 1005f5db f i libucrt:cfout.obj
 0001:0005e60f       ??1scoped_fp_state_reset@?A0x48fbfdd4@@QAE@XZ 1005f60f f i libucrt:cfout.obj
 0001:0005e620       ??4big_integer@__crt_strtox@@QAEAAU01@ABU01@@Z 1005f620 f i libucrt:cfout.obj
 0001:0005e660       ??8__crt_strtox@@YA_NABUbig_integer@0@0@Z 1005f660 f i libucrt:cfout.obj
 0001:0005e6b0       ??9__crt_strtox@@YA_NABUbig_integer@0@0@Z 1005f6b0 f i libucrt:cfout.obj
 0001:0005e710       ?add_carry@__crt_strtox@@YAIAAIII@Z 1005f710 f i libucrt:cfout.obj
 0001:0005e740       ?add_multiply_carry@__crt_strtox@@YAIAAIIII@Z 1005f740 f i libucrt:cfout.obj
 0001:0005e770       ?bit_scan_reverse@__crt_strtox@@YAII@Z 1005f770 f i libucrt:cfout.obj
 0001:0005e7a0       ?count_sequential_high_zeroes@__crt_strtox@@YAII@Z 1005f7a0 f i libucrt:cfout.obj
 0001:0005e7d0       ?divide@__crt_strtox@@YA_KAAUbig_integer@1@ABU21@@Z 1005f7d0 f i libucrt:cfout.obj
 0001:0005edb0       ?is_zero@__crt_strtox@@YA_NABUbig_integer@1@@Z 1005fdb0 f i libucrt:cfout.obj
 0001:0005edd0       ?make_big_integer@__crt_strtox@@YA?AUbig_integer@1@_K@Z 1005fdd0 f i libucrt:cfout.obj
 0001:0005ee00       ?make_big_integer_power_of_two@__crt_strtox@@YA?AUbig_integer@1@I@Z 1005fe00 f i libucrt:cfout.obj
 0001:0005ee60       ?multiply@__crt_strtox@@YA_NAAUbig_integer@1@ABU21@@Z 1005fe60 f i libucrt:cfout.obj
 0001:0005f310       ?multiply@__crt_strtox@@YA_NAAUbig_integer@1@I@Z 10060310 f i libucrt:cfout.obj
 0001:0005f410       ?multiply_64_32@__crt_strtox@@YA_K_KI@Z 10060410 f i libucrt:cfout.obj
 0001:0005f430       ?multiply_by_power_of_ten@__crt_strtox@@YA_NAAUbig_integer@1@I@Z 10060430 f i libucrt:cfout.obj
 0001:0005fb30       ?multiply_core@__crt_strtox@@YAIQAIII@Z 10060b30 f i libucrt:cfout.obj
 0001:0005fb80       ?shift_left@__crt_strtox@@YA_NAAUbig_integer@1@I@Z 10060b80 f i libucrt:cfout.obj
 0001:0005fd22       ___acrt_fltout             10060d22 f   libucrt:cfout.obj
 0001:00061646       __isatty                   10062646 f   libucrt:isatty.obj
 0001:000616b1       ??$?RUlconv@@@__crt_internal_free_policy@@QBEXQBUlconv@@@Z 100626b1 f i libucrt:initmon.obj
 0001:000616c7       ??0?$__crt_unique_heap_ptr@Ulconv@@U__crt_internal_free_policy@@@@QAE@QAUlconv@@@Z 100626c7 f i libucrt:initmon.obj
 0001:000616db       ??1?$__crt_unique_heap_ptr@Ulconv@@U__crt_internal_free_policy@@@@QAE@XZ 100626db f i libucrt:initmon.obj
 0001:000616f1       ?detach@?$__crt_unique_heap_ptr@Ulconv@@U__crt_internal_free_policy@@@@QAEPAUlconv@@XZ 100626f1 f i libucrt:initmon.obj
 0001:000616f7       ?release@?$__crt_unique_heap_ptr@Ulconv@@U__crt_internal_free_policy@@@@QAEXXZ 100626f7 f i libucrt:initmon.obj
 0001:0006170d       ___acrt_locale_free_monetary 1006270d f   libucrt:initmon.obj
 0001:0006184a       ___acrt_locale_initialize_monetary 1006284a f   libucrt:initmon.obj
 0001:00061d3d       ___acrt_locale_free_numeric 10062d3d f   libucrt:initnum.obj
 0001:00061dc0       ___acrt_locale_initialize_numeric 10062dc0 f   libucrt:initnum.obj
 0001:000620ab       ??$?RU__crt_lc_time_data@@@__crt_internal_free_policy@@QBEXQBU__crt_lc_time_data@@@Z 100630ab f i libucrt:inittime.obj
 0001:0006214b       ??0?$__crt_unique_heap_ptr@U__crt_lc_time_data@@U__crt_internal_free_policy@@@@QAE@QAU__crt_lc_time_data@@@Z 1006314b f i libucrt:inittime.obj
 0001:0006215f       ??1?$__crt_unique_heap_ptr@U__crt_lc_time_data@@U__crt_internal_free_policy@@@@QAE@XZ 1006315f f i libucrt:inittime.obj
 0001:00062175       ??B?$__crt_unique_heap_ptr@U__crt_lc_time_data@@U__crt_internal_free_policy@@@@QBE_NXZ 10063175 f i libucrt:inittime.obj
 0001:0006217f       ?detach@?$__crt_unique_heap_ptr@U__crt_lc_time_data@@U__crt_internal_free_policy@@@@QAEPAU__crt_lc_time_data@@XZ 1006317f f i libucrt:inittime.obj
 0001:000621d0       ?get@?$__crt_unique_heap_ptr@U__crt_lc_time_data@@U__crt_internal_free_policy@@@@QBEPAU__crt_lc_time_data@@XZ 100631d0 f i libucrt:inittime.obj
 0001:00062568       ?is_valid@?$__crt_unique_heap_ptr@U__crt_lc_time_data@@U__crt_internal_free_policy@@@@QBE_NXZ 10063568 f i libucrt:inittime.obj
 0001:00062572       ?release@?$__crt_unique_heap_ptr@U__crt_lc_time_data@@U__crt_internal_free_policy@@@@QAEXXZ 10063572 f i libucrt:inittime.obj
 0001:00062588       ___acrt_locale_free_time   10063588 f   libucrt:inittime.obj
 0001:000626a5       ___acrt_locale_initialize_time 100636a5 f   libucrt:inittime.obj
 0001:00062843       _wcsncpy_s                 10063843 f   libucrt:wcsncpy_s.obj
 0001:00062850       _wcscspn                   10063850 f   libucrt:wcscspn.obj
 0001:000628b4       _wcsncmp                   100638b4 f   libucrt:wcsncmp.obj
 0001:000628fc       _wcspbrk                   100638fc f   libucrt:wcspbrk.obj
 0001:00062952       ___acrt_GetStringTypeA     10063952 f   libucrt:getstringtypea.obj
 0001:000633c6       ___acrt_get_qualified_locale 100643c6 f   libucrt:get_qualified_locale.obj
 0001:00063f6d       ___acrt_get_qualified_locale_downlevel 10064f6d f   libucrt:getqloc_downlevel.obj
 0001:000641f5       _localeconv                100651f5 f   libucrt:localeconv.obj
 0001:00064229       ___setfflag                10065229 f   libucrt:fp_flags.obj
 0001:00064243       __87except                 10065243 f   libucrt:87except.obj
 0001:00064390       __wcsnicmp                 10065390 f   libucrt:wcsnicmp.obj
 0001:00064476       __wcsnicmp_l               10065476 f   libucrt:wcsnicmp.obj
 0001:000645c0       _strncmp                   100655c0 f   libucrt:strncmp.obj
 0001:00064656       __strnicmp                 10065656 f   libucrt:strnicmp.obj
 0001:000646dd       __strnicmp_l               100656dd f   libucrt:strnicmp.obj
 0001:000647c1       ??$__vcrt_va_start_verify_argument_type@$$CBH@@YAXXZ 100657c1 f i libucrt:open.obj
 0001:00064b78       ??$tsopen_nolock@PAHABQAHABQBDABHABHABHABH@?$__crt_char_traits@D@@SAH$$QAPAHABQAHABQBDABH333@Z 10065b78 f i libucrt:open.obj
 0001:00064bb6       ??$tsopen_nolock@PAHABQAHABQB_WABHABHABHABH@?$__crt_char_traits@_W@@SAH$$QAPAHABQAHABQB_WABH333@Z 10065bb6 f i libucrt:open.obj
 0001:00064bf4       ??$tsopen_nolock@PAHPAHABQBDABHHABHH@?$__crt_char_traits@D@@SAH$$QAPAH0ABQBDABH$$QAH23@Z 10065bf4 f i libucrt:open.obj
 0001:00064c32       ??$tsopen_nolock@PAHPAHABQB_WABHHABHH@?$__crt_char_traits@_W@@SAH$$QAPAH0ABQB_WABH$$QAH23@Z 10065c32 f i libucrt:open.obj
 0001:00065400       __open                     10066400 f   libucrt:open.obj
 0001:0006541e       __sopen                    1006641e f   libucrt:open.obj
 0001:00065460       __sopen_dispatch           10066460 f   libucrt:open.obj
 0001:0006546d       __sopen_nolock             1006646d f   libucrt:open.obj
 0001:000654d2       __sopen_s                  100664d2 f   libucrt:open.obj
 0001:000654fa       __wopen                    100664fa f   libucrt:open.obj
 0001:00065518       __wsopen                   10066518 f   libucrt:open.obj
 0001:0006555a       __wsopen_dispatch          1006655a f   libucrt:open.obj
 0001:00065567       __wsopen_nolock            10066567 f   libucrt:open.obj
 0001:0006595a       __wsopen_s                 1006695a f   libucrt:open.obj
 0001:00065982       ___p__commode              10066982 f   libucrt:ncommode.obj
 0001:00065988       ___acrt_stdio_allocate_buffer_nolock 10066988 f   libucrt:_getbuf.obj
 0001:000659fc       ??$?RV<lambda_4980db0136e49a56f91ef52c46ca659a>@@AAV<lambda_6e3e78bb6855d1e4040e022c1b427e22>@@V<lambda_9c074eaf62197b4fd0274ed9e7824161>@@@?$__crt_seh_guarded_call@G@@QAEG$$QAV<lambda_4980db0136e49a56f91ef52c46ca659a>@@AAV<lambda_6e3e78bb6855d1e4040e022c1b427e22>@@$$QAV<lambda_9c074eaf62197b4fd0274ed9e7824161>@@@Z 100669fc f i libucrt:putwch.obj
 0001:00065a71       ??$__acrt_lock_and_call@V<lambda_6e3e78bb6855d1e4040e022c1b427e22>@@@@YAGW4__acrt_lock_id@@$$QAV<lambda_6e3e78bb6855d1e4040e022c1b427e22>@@@Z 10066a71 f i libucrt:putwch.obj
 0001:00065b09       __putwch                   10066b09 f   libucrt:putwch.obj
 0001:00065b2d       __putwch_nolock            10066b2d f   libucrt:putwch.obj
 0001:00065b83       _nextafter                 10066b83 f   libucrt:nextafter.obj
 0001:00065ba9       ??1scoped_global_state_reset@__crt_state_management@@QAE@XZ 10066ba9 f i libucrt:qsort.obj
 0001:00065cc0       _qsort                     10066cc0 f   libucrt:qsort.obj
 0001:0006621d       _strncpy_s                 1006721d f   libucrt:strncpy_s.obj
 0001:00066230       _strpbrk                   10067230 f   libucrt:strpbrk.obj
 0001:00066280       __mbsdec                   10067280 f   libucrt:mbsdec.obj
 0001:0006629c       __mbsdec_l                 1006729c f   libucrt:mbsdec.obj
 0001:0006635e       __wcsnicoll                1006735e f   libucrt:wcsnicol.obj
 0001:00066462       __wcsnicoll_l              10067462 f   libucrt:wcsnicol.obj
 0001:000665da       __strnicoll                100675da f   libucrt:strnicol.obj
 0001:0006660d       __strnicoll_l              1006760d f   libucrt:strnicol.obj
 0001:00066748       __msize                    10067748 f   libucrt:msize.obj
 0001:00066787       ___strncnt                 10067787 f   libucrt:strncnt.obj
 0001:000668e3       ___acrt_GetLocaleInfoA     100678e3 f   libucrt:getlocaleinfoa.obj
 0001:00066b01       _fegetenv                  10067b01 f   libucrt:fegetenv.obj
 0001:00066b25       _fesetenv                  10067b25 f   libucrt:fesetenv.obj
 0001:00066b80       _feholdexcept              10067b80 f   libucrt:feholdexcept.obj
 0001:00066bf0       _log10                     10067bf0 f   libucrt:log10.obj
 0001:00066c30       __CIlog10                  10067c30 f   libucrt:log10.obj
 0001:00066c6b       __CIlog10_default          10067c6b f   libucrt:log10.obj
 0001:00066c7f       __log10_default            10067c7f     libucrt:log10.obj
 0001:00066da0       _ceil                      10067da0 f   libucrt:ceil_pentium4.obj
 0001:00066de0       __ceil_pentium4            10067de0 f   libucrt:ceil_pentium4.obj
 0001:00066f04       __wcsicmp                  10067f04 f   libucrt:wcsicmp.obj
 0001:00066fbe       __wcsicmp_l                10067fbe f   libucrt:wcsicmp.obj
 0001:000670d6       __towlower_l               100680d6 f   libucrt:towlower.obj
 0001:000671d1       _towlower                  100681d1 f   libucrt:towlower.obj
 0001:000671f0       ___ascii_strnicmp          100681f0 f   libucrt:_strnicm.obj
 0001:00067269       ??$__crt_interlocked_read@H@@YAHPDH@Z 10068269 f i libucrt:setmode.obj
 0001:00067278       __get_fmode                10068278 f   libucrt:setmode.obj
 0001:000672af       __set_fmode                100682af f   libucrt:setmode.obj
 0001:000672fb       __setmode                  100682fb f   libucrt:setmode.obj
 0001:0006744c       __setmode_nolock           1006844c f   libucrt:setmode.obj
 0001:00067551       ??$?RV<lambda_4cfda81533ccf5a03113a1ca40a30445>@@AAV<lambda_1cffa78e445b1da5fba1a2e0e533226f>@@V<lambda_68c952aa1b860373b2109ef12d0bba9d>@@@?$__crt_seh_guarded_call@H@@QAEH$$QAV<lambda_4cfda81533ccf5a03113a1ca40a30445>@@AAV<lambda_1cffa78e445b1da5fba1a2e0e533226f>@@$$QAV<lambda_68c952aa1b860373b2109ef12d0bba9d>@@@Z 10068551 f i libucrt:chsize.obj
 0001:000675fb       ??$__acrt_lowio_lock_fh_and_call@V<lambda_1cffa78e445b1da5fba1a2e0e533226f>@@@@YAHH$$QAV<lambda_1cffa78e445b1da5fba1a2e0e533226f>@@@Z 100685fb f i libucrt:chsize.obj
 0001:000676dd       __chsize                   100686dd f   libucrt:chsize.obj
 0001:00067700       __chsize_nolock            10068700 f   libucrt:chsize.obj
 0001:000678f5       __chsize_s                 100688f5 f   libucrt:chsize.obj
 0001:000679b6       __umask                    100689b6 f   libucrt:umask.obj
 0001:000679e4       __umask_s                  100689e4 f   libucrt:umask.obj
 0001:00067a2d       ___dcrt_lowio_initialize_console_output 10068a2d f   libucrt:initcon.obj
 0001:00067a53       ___dcrt_terminate_console_output 10068a53 f   libucrt:initcon.obj
 0001:00067a6f       _nexttoward                10068a6f f   libucrt:nexttoward.obj
 0001:00067c20       ___acrt_CompareStringW     10068c20 f   libucrt:comparestringw.obj
 0001:00067ff4       ___acrt_CompareStringA     10068ff4 f   libucrt:comparestringa.obj
 0001:0006804e       ___acrt_fenv_get_fp_status_word_from_exception_mask 1006904e f   libucrt:_fenvutils.obj
 0001:00068491       __getfpcontrolword         10069491 f   libucrt:_fenvutils.obj
 0001:000684e4       __getfpstatusword          100694e4 f   libucrt:_fenvutils.obj
 0001:000685b6       __setfpcontrolword         100695b6 f   libucrt:_fenvutils.obj
 0001:00068656       __setfpstatusword          10069656 f   libucrt:_fenvutils.obj
 0001:0006888c       ___control87_2             1006988c f   libucrt:ieee87.obj
 0001:00068e60       ___fpreset_sse2            10069e60 f   libucrt:ieee87.obj
 0001:000690b3       __clearfp                  1006a0b3 f   libucrt:ieee87.obj
 0001:000691c8       __control87                1006a1c8 f   libucrt:ieee87.obj
 0001:0006958a       __controlfp                1006a58a f   libucrt:ieee87.obj
 0001:000695aa       __fpreset                  1006a5aa f   libucrt:ieee87.obj
 0001:000696a7       __set_controlfp            1006a6a7 f   libucrt:ieee87.obj
 0001:0006973d       __statusfp                 1006a73d f   libucrt:ieee87.obj
 0001:00069800       __statusfp2                1006a800 f   libucrt:ieee87.obj
 0001:0006987d       ___acrt_initialize_sse2    1006a87d f   libucrt:mathfcns.obj
 0001:0006988f       __set_SSE2_enable          1006a88f f   libucrt:mathfcns.obj
 0001:000698c0       __CIlog10_pentium4         1006a8c0 f   libucrt:log10_pentium4.obj
 0001:000698d8       __log10_pentium4           1006a8d8     libucrt:log10_pentium4.obj
 0001:00069c11       __fFEXP                    1006ac11     libucrt:87tran.obj
 0001:00069c68       __rtinfpopse               1006ac68     libucrt:87tran.obj
 0001:00069c6a       __rtinfnpopse              1006ac6a     libucrt:87tran.obj
 0001:00069c7a       __fFLN                     1006ac7a     libucrt:87tran.obj
 0001:00069d2f       __rtinfpop                 1006ad2f     libucrt:87tran.obj
 0001:00069d31       __rtinfnpop                1006ad31     libucrt:87tran.obj
 0001:00069d4e       __ffexpm1                  1006ad4e     libucrt:87tran.obj
 0001:00069e80       __twoToTOS                 1006ae80 f   libucrt:common.obj
 0001:00069e95       __load_CW                  1006ae95 f   libucrt:common.obj
 0001:00069eac       __convertTOStoQNaN         1006aeac f   libucrt:common.obj
 0001:00069ec5       __fload_withFB             1006aec5 f   libucrt:common.obj
 0001:00069f08       __checkTOS_withFB          1006af08 f   libucrt:common.obj
 0001:00069f1e       __fast_exit                1006af1e f   libucrt:common.obj
 0001:00069f2b       __math_exit                1006af2b f   libucrt:common.obj
 0001:00069f55       __check_overflow_exit      1006af55 f   libucrt:common.obj
 0001:00069f69       __check_range_exit         1006af69 f   libucrt:common.obj
 0001:0006a070       __startTwoArgErrorHandling 1006b070 f   libucrt:genexcep.obj
 0001:0006a087       __startOneArgErrorHandling 1006b087 f   libucrt:genexcep.obj
 0001:0006a0d7       ___libm_error_support      1006b0d7 f   libucrt:libm_error.obj
 0001:0006a375       ___libm_setusermatherr     1006b375 f   libucrt:libm_error.obj
 0001:0006a3ae       __ceil_default             1006b3ae f   libucrt:ceil.obj
 0001:0006a495       ___acrt_LCMapStringW       1006b495 f   libucrt:lcmapstringw.obj
 0001:0006a4e2       ___p__fmode                1006b4e2 f   libucrt:txtmode.obj
 0001:0006a4e8       __d_int                    1006b4e8 f   libucrt:_test.obj
 0001:0006a630       __dtest                    1006b630 f   libucrt:_test.obj
 0001:0006a6ad       __fd_int                   1006b6ad f   libucrt:_test.obj
 0001:0006a7af       __fdtest                   1006b7af f   libucrt:_test.obj
 0001:0006a810       __fperrraise               1006b810 f   libucrt:_test.obj
 0001:0006a83b       __ld_int                   1006b83b f   libucrt:_test.obj
 0001:0006a848       __ldtest                   1006b848 f   libucrt:_test.obj
 0001:0006a8ed       __controlfp_s              1006b8ed f   libucrt:contrlfp.obj
 0001:0006a963       __d_inttype                1006b963 f   libucrt:powhlp.obj
 0001:0006a9e7       __powhlp                   1006b9e7 f   libucrt:powhlp.obj
 0001:0006ab5c       __frnd                     1006bb5c f   libucrt:frnd.obj
 0001:0006ab77       _fegetexceptflag           1006bb77 f   libucrt:fegetexceptflag.obj
 0001:0006abb4       _fesetexceptflag           1006bbb4 f   libucrt:fesetexceptflag.obj
 0001:0006ac15       _fetestexcept              1006bc15 f   libucrt:fetestexcept.obj
 0001:0006ac40       __FindPESection            1006bc40 f   LIBCMT:pesect.obj
 0001:0006aca0       __IsNonwritableInCurrentImage 1006bca0 f   LIBCMT:pesect.obj
 0001:0006ad90       __ValidateImageBase        1006bd90 f   LIBCMT:pesect.obj
 0001:0006add0       __aulldvrm                 1006bdd0 f   LIBCMT:ulldvrm.obj
 0001:0006ae8a       ??1type_info@@UAE@XZ       1006be8a f   LIBCMT:std_type_info_static.obj
 0001:0006ae91       ??_Etype_info@@UAEPAXI@Z   1006be91 f i LIBCMT:std_type_info_static.obj
 0001:0006ae91       ??_Gtype_info@@UAEPAXI@Z   1006be91 f i LIBCMT:std_type_info_static.obj
 0001:0006aec0       __SEH_prolog4_GS           1006bec0 f   LIBCMT:_sehprolg4gs_.obj
 0001:0006af09       __SEH_epilog4_GS           1006bf09 f   LIBCMT:_sehprolg4gs_.obj
 0001:0006af30       __allmul                   1006bf30 f   LIBCMT:llmul.obj
 0001:0006af80       __alldvrm                  1006bf80 f   LIBCMT:lldvrm.obj
 0001:0006b0a0       __aullshr                  1006c0a0 f   LIBCMT:ullshr.obj
 0001:0006b0d0       __alloca_probe             1006c0d0 f   LIBCMT:chkstk.obj
 0001:0006b0d0       __chkstk                   1006c0d0 f   LIBCMT:chkstk.obj
 0001:0006b110       __alloca_probe_16          1006c110 f   LIBCMT:alloca16.obj
 0001:0006b126       __alloca_probe_8           1006c126     LIBCMT:alloca16.obj
 0001:0006b150       __allshl                   1006c150 f   LIBCMT:llshl.obj
 0001:0006b180       __ftol2_sse                1006c180 f   LIBCMT:_ftol2_.obj
 0001:0006b189       __ftol2_pentium4           1006c189 f   LIBCMT:_ftol2_.obj
 0001:0006b19c       __ftol2_sse_excpt          1006c19c f   LIBCMT:_ftol2_.obj
 0001:0006b1c0       __ftol2                    1006c1c0 f   LIBCMT:_ftol2_.obj
 0001:0006b262       __initialize_default_precision 1006c262 f   LIBCMT:default_precision.obj
 0001:0006b28b       ??3@YAXPAXI@Z              1006c28b f   LIBCMT:delete_scalar_size.obj
 0001:0006b29c       ??3@YAXPAX@Z               1006c29c f   LIBCMT:delete_scalar.obj
 0001:0006b2a2       _InterlockedPushEntrySList@8 1006c2a2 f   kernel32:KERNEL32.dll
 0001:0006b2a8       _InterlockedFlushSList@4   1006c2a8 f   kernel32:KERNEL32.dll
 0001:0006b2ae       _RtlUnwind@16              1006c2ae f   kernel32:KERNEL32.dll
 0001:0006b2b4       _GetLastError@0            1006c2b4 f   kernel32:KERNEL32.dll
 0001:0006b2ba       _SetLastError@4            1006c2ba f   kernel32:KERNEL32.dll
 0001:0006b2c0       _EnterCriticalSection@4    1006c2c0 f   kernel32:KERNEL32.dll
 0001:0006b2c6       _LeaveCriticalSection@4    1006c2c6 f   kernel32:KERNEL32.dll
 0001:0006b2cc       _DeleteCriticalSection@4   1006c2cc f   kernel32:KERNEL32.dll
 0001:0006b2d2       _InitializeCriticalSectionAndSpinCount@8 1006c2d2 f   kernel32:KERNEL32.dll
 0001:0006b2d8       _TlsAlloc@0                1006c2d8 f   kernel32:KERNEL32.dll
 0001:0006b2de       _TlsGetValue@4             1006c2de f   kernel32:KERNEL32.dll
 0001:0006b2e4       _TlsSetValue@8             1006c2e4 f   kernel32:KERNEL32.dll
 0001:0006b2ea       _TlsFree@4                 1006c2ea f   kernel32:KERNEL32.dll
 0001:0006b2f0       _FreeLibrary@4             1006c2f0 f   kernel32:KERNEL32.dll
 0001:0006b2f6       _LoadLibraryExW@12         1006c2f6 f   kernel32:KERNEL32.dll
 0001:0006b2fc       _ExitProcess@4             1006c2fc f   kernel32:KERNEL32.dll
 0001:0006b302       _GetModuleHandleExW@12     1006c302 f   kernel32:KERNEL32.dll
 0001:0006b308       _GetStdHandle@4            1006c308 f   kernel32:KERNEL32.dll
 0001:0006b30e       _GetFileType@4             1006c30e f   kernel32:KERNEL32.dll
 0001:0006b314       _GetModuleFileNameA@12     1006c314 f   kernel32:KERNEL32.dll
 0001:0006b31a       _GetModuleFileNameW@12     1006c31a f   kernel32:KERNEL32.dll
 0001:0006b320       _WriteConsoleW@20          1006c320 f   kernel32:KERNEL32.dll
 0001:0006b326       _RaiseException@16         1006c326 f   kernel32:KERNEL32.dll
 0001:0006b32c       _MultiByteToWideChar@24    1006c32c f   kernel32:KERNEL32.dll
 0001:0006b332       _WideCharToMultiByte@32    1006c332 f   kernel32:KERNEL32.dll
 0001:0006b338       _HeapFree@12               1006c338 f   kernel32:KERNEL32.dll
 0001:0006b33e       _HeapAlloc@12              1006c33e f   kernel32:KERNEL32.dll
 0001:0006b344       _GetDateFormatW@24         1006c344 f   kernel32:KERNEL32.dll
 0001:0006b34a       _GetTimeFormatW@24         1006c34a f   kernel32:KERNEL32.dll
 0001:0006b350       _CompareStringW@24         1006c350 f   kernel32:KERNEL32.dll
 0001:0006b356       _LCMapStringW@24           1006c356 f   kernel32:KERNEL32.dll
 0001:0006b35c       _GetLocaleInfoW@16         1006c35c f   kernel32:KERNEL32.dll
 0001:0006b362       _IsValidLocale@8           1006c362 f   kernel32:KERNEL32.dll
 0001:0006b368       _GetUserDefaultLCID@0      1006c368 f   kernel32:KERNEL32.dll
 0001:0006b36e       _EnumSystemLocalesW@8      1006c36e f   kernel32:KERNEL32.dll
 0001:0006b374       _GetCurrentThread@0        1006c374 f   kernel32:KERNEL32.dll
 0001:0006b37a       _GetACP@0                  1006c37a f   kernel32:KERNEL32.dll
 0001:0006b380       _HeapReAlloc@16            1006c380 f   kernel32:KERNEL32.dll
 0001:0006b386       _ReadFile@20               1006c386 f   kernel32:KERNEL32.dll
 0001:0006b38c       _GetConsoleMode@8          1006c38c f   kernel32:KERNEL32.dll
 0001:0006b392       _ReadConsoleW@20           1006c392 f   kernel32:KERNEL32.dll
 0001:0006b398       _WriteFile@20              1006c398 f   kernel32:KERNEL32.dll
 0001:0006b39e       _GetConsoleCP@0            1006c39e f   kernel32:KERNEL32.dll
 0001:0006b3a4       _DeleteFileW@4             1006c3a4 f   kernel32:KERNEL32.dll
 0001:0006b3aa       _SetFilePointerEx@20       1006c3aa f   kernel32:KERNEL32.dll
 0001:0006b3b0       _OutputDebugStringA@4      1006c3b0 f   kernel32:KERNEL32.dll
 0001:0006b3b6       _OutputDebugStringW@4      1006c3b6 f   kernel32:KERNEL32.dll
 0001:0006b3bc       _WaitForSingleObjectEx@12  1006c3bc f   kernel32:KERNEL32.dll
 0001:0006b3c2       _SetConsoleCtrlHandler@8   1006c3c2 f   kernel32:KERNEL32.dll
 0001:0006b3c8       _FindClose@4               1006c3c8 f   kernel32:KERNEL32.dll
 0001:0006b3ce       _FindFirstFileExA@24       1006c3ce f   kernel32:KERNEL32.dll
 0001:0006b3d4       _FindFirstFileExW@24       1006c3d4 f   kernel32:KERNEL32.dll
 0001:0006b3da       _FindNextFileA@8           1006c3da f   kernel32:KERNEL32.dll
 0001:0006b3e0       _FindNextFileW@8           1006c3e0 f   kernel32:KERNEL32.dll
 0001:0006b3e6       _IsValidCodePage@4         1006c3e6 f   kernel32:KERNEL32.dll
 0001:0006b3ec       _GetOEMCP@0                1006c3ec f   kernel32:KERNEL32.dll
 0001:0006b3f2       _GetCPInfo@8               1006c3f2 f   kernel32:KERNEL32.dll
 0001:0006b3f8       _GetCommandLineA@0         1006c3f8 f   kernel32:KERNEL32.dll
 0001:0006b3fe       _GetCommandLineW@0         1006c3fe f   kernel32:KERNEL32.dll
 0001:0006b404       _GetEnvironmentStringsW@0  1006c404 f   kernel32:KERNEL32.dll
 0001:0006b40a       _FreeEnvironmentStringsW@4 1006c40a f   kernel32:KERNEL32.dll
 0001:0006b410       _SetEnvironmentVariableA@8 1006c410 f   kernel32:KERNEL32.dll
 0001:0006b416       _SetEnvironmentVariableW@8 1006c416 f   kernel32:KERNEL32.dll
 0001:0006b41c       _GetProcessHeap@0          1006c41c f   kernel32:KERNEL32.dll
 0001:0006b422       _GetStringTypeW@16         1006c422 f   kernel32:KERNEL32.dll
 0001:0006b428       _FlushFileBuffers@4        1006c428 f   kernel32:KERNEL32.dll
 0001:0006b42e       _SetStdHandle@8            1006c42e f   kernel32:KERNEL32.dll
 0001:0006b434       _CreateFileW@28            1006c434 f   kernel32:KERNEL32.dll
 0001:0006b43a       _HeapSize@12               1006c43a f   kernel32:KERNEL32.dll
 0001:0006b440       _SetEndOfFile@4            1006c440 f   kernel32:KERNEL32.dll
 0001:0006b446       _EncodePointer@4           1006c446 f   kernel32:KERNEL32.dll
 0001:0006b44c       _DecodePointer@4           1006c44c f   kernel32:KERNEL32.dll
 0001:0006b460       _strrchr                   1006c460 f   libvcruntime:strrchr.obj
 0001:0006b747       _memcmp                    1006c747 f   libvcruntime:_memcmp_.obj
 0001:0006f22f       _wcschr                    1007022f f   libvcruntime:wcschr.obj
 0002:00000000       ___xc_a                    10072000     LIBCMT:initializers.obj
 0002:00000104       ___xc_z                    10072104     LIBCMT:initializers.obj
 0002:00000208       ___xi_a                    10072208     LIBCMT:initializers.obj
 0002:0000030c       ___acrt_stdio_initializer  1007230c     libucrt:stdio_initializer.obj
 0002:00000310       ___acrt_multibyte_initializer 10072310     libucrt:multibyte_initializer.obj
 0002:00000314       ___acrt_tran_sse2_initializer 10072314     libucrt:sse2_initializer.obj
 0002:0000041c       ___xi_z                    1007241c     LIBCMT:initializers.obj
 0002:00000520       ___xp_a                    10072520     LIBCMT:initializers.obj
 0002:00000624       ___acrt_locale_terminator  10072624     libucrt:locale_initializer.obj
 0002:00000628       ___dcrt_console_output_terminator 10072628     libucrt:console_output_initializer.obj
 0002:00000730       ___acrt_stdio_terminator   10072730     libucrt:stdio_initializer.obj
 0002:00000834       ___xp_z                    10072834     LIBCMT:initializers.obj
 0002:00000938       ___xt_a                    10072938     LIBCMT:initializers.obj
 0002:00000a3c       ___xt_z                    10072a3c     LIBCMT:initializers.obj
 0002:00000b40       _gggg_M                    10072b40     gggg.obj
 0002:00000b6c       ??_C@_0BI@PHJEPFFP@Error?5creating?5scope?51?6?$AA@ 10072b6c     gggg.obj
 0002:00000b88       ??_C@_0BA@NDJJMOKL@Subsystem?1Gain6?$AA@ 10072b88     gggg.obj
 0002:00000b9c       ??_C@_0BB@ICMFPCJJ@Subsystem?1Gain11?$AA@ 10072b9c     gggg.obj
 0002:00000bb0       ??_C@_04GDMNHCBG@ode4?$AA@ 10072bb0     gggg.obj
 0002:00000bb8       ??_C@_04EPKDLPPB@tout?$AA@ 10072bb8     gggg.obj
 0002:00000bbe       ??_C@_00CNPNBAHC@?$AA@     10072bbe     gggg.obj
 0002:00000bc0       ??_C@_03HBFGMJOD@rt_?$AA@  10072bc0     gggg.obj
 0002:00000bc4       ??_C@_06LJFBBHBB@Setup?5?$AA@ 10072bc4     gggg.obj
 0002:00000bcc       ??_C@_0BG@LPOHDFNB@gggg?1Subsystem?1Setup?5?$AA@ 10072bcc     gggg.obj
 0002:00000be8       __real@0000000000000000    10072be8     gggg.obj
 0002:00000bf8       __real@3f60624dd2f1a9fc    10072bf8     gggg.obj
 0002:00000c08       __real@3fc5555555555555    10072c08     gggg.obj
 0002:00000c18       __real@3fe0000000000000    10072c18     gggg.obj
 0002:00000c28       __real@3ff0000000000000    10072c28     gggg.obj
 0002:00000c38       __real@4000000000000000    10072c38     gggg.obj
 0002:00000c48       __real@4010000000000000    10072c48     gggg.obj
 0002:00000c58       __real@4020000000000000    10072c58     gggg.obj
 0002:00000c68       __real@4030000000000000    10072c68     gggg.obj
 0002:00000c78       __real@4040000000000000    10072c78     gggg.obj
 0002:00000c88       __real@4050000000000000    10072c88     gggg.obj
 0002:00000c98       __real@4060000000000000    10072c98     gggg.obj
 0002:00000ca8       __real@406f400000000000    10072ca8     gggg.obj
 0002:00000cb8       __real@4070000000000000    10072cb8     gggg.obj
 0002:00000cc8       __real@41efffffffe00000    10072cc8     gggg.obj
 0002:00000cd8       __real@41f0000000000000    10072cd8     gggg.obj
 0002:00000ce8       __real@4330000000000000    10072ce8     gggg.obj
 0002:00000cf8       __real@8000000000000000    10072cf8     gggg.obj
 0002:00000d08       __real@bff0000000000000    10072d08     gggg.obj
 0002:00000d20       __xmm@00000000000000003ff0000000000000 10072d20     gggg.obj
 0002:00000d40       __xmm@000000a700000086000000c400000002 10072d40     gggg.obj
 0002:00000d60       __xmm@30303030303030303030303030303030 10072d60     gggg.obj
 0002:00000d80       __xmm@3f60624dd2f1a9fc0000000000000000 10072d80     gggg.obj
 0002:00000da0       __xmm@3ff00000000000000000000000000000 10072da0     gggg.obj
 0002:00000dc0       __xmm@40000000000000000000000000000000 10072dc0     gggg.obj
 0002:00000de0       __xmm@41f00000000000000000000000000000 10072de0     gggg.obj
 0002:00000e00       __xmm@80000000000000008000000000000000 10072e00     gggg.obj
 0002:00002b20       ??_C@_0BC@JAABHHE@?$CG?$CDx65CB?$DL?$CG?$CDx677E?$DL1?$AA@ 10074b20     gggg_capi.obj
 0002:00002b38       ??_C@_0BC@CLBHIEMI@?$CG?$CDx65CB?$DL?$CG?$CDx7D27?$DL1?$AA@ 10074b38     gggg_capi.obj
 0002:00002b50       ??_C@_0BK@FDBNJBGL@?$CG?$CDx9884?$DL?$CG?$CDx65CB?$DL?$CG?$CDx677E?$DL1?$AA@ 10074b50     gggg_capi.obj
 0002:00002b70       ??_C@_08MNGDOOCF@Product2?$AA@ 10074b70     gggg_capi.obj
 0002:00002b7c       ??_C@_08NEHINPGE@Product3?$AA@ 10074b7c     gggg_capi.obj
 0002:00002b88       ??_C@_08JLDJEJKD@Product4?$AA@ 10074b88     gggg_capi.obj
 0002:00002b94       ??_C@_04EKKECOMC@Add2?$AA@ 10074b94     gggg_capi.obj
 0002:00002b9c       ??_C@_04OLBDEHMI@?$LP?$KK?$LL?$LH?$AA@ 10074b9c     gggg_capi.obj
 0002:00002ba4       ??_C@_0O@KLKAEEDE@Manual?5Switch?$AA@ 10074ba4     gggg_capi.obj
 0002:00002bb4       ??_C@_0BD@EEBBHOHB@Subsystem?1Chart?1p1?$AA@ 10074bb4     gggg_capi.obj
 0002:00002bcc       ??_C@_0BD@GPDMCNLC@Subsystem?1Chart?1p2?$AA@ 10074bcc     gggg_capi.obj
 0002:00002be4       ??_C@_0BE@NMPNIGIG@Subsystem?1Chart1?1p1?$AA@ 10074be4     gggg_capi.obj
 0002:00002bfc       ??_C@_0BE@PHNANFEF@Subsystem?1Chart1?1p2?$AA@ 10074bfc     gggg_capi.obj
 0002:00002c14       ??_C@_0BE@OOMLOEAE@Subsystem?1Chart1?1p3?$AA@ 10074c14     gggg_capi.obj
 0002:00002c2c       ??_C@_0N@BMPOFBKM@Subsystem?1DI?$AA@ 10074c2c     gggg_capi.obj
 0002:00002c3c       ??_C@_0O@BJCBBGCA@Subsystem?1DI1?$AA@ 10074c3c     gggg_capi.obj
 0002:00002c4c       ??_C@_0BD@DJJDFGIB@Subsystem?1V_S_1?1p1?$AA@ 10074c4c     gggg_capi.obj
 0002:00002c64       ??_C@_0BD@BCLOAFEC@Subsystem?1V_S_1?1p2?$AA@ 10074c64     gggg_capi.obj
 0002:00002c7c       ??_C@_0BD@HODDCMFB@Subsystem?1V_S_2?1p1?$AA@ 10074c7c     gggg_capi.obj
 0002:00002c94       ??_C@_0BD@FFBOHPJC@Subsystem?1V_S_2?1p2?$AA@ 10074c94     gggg_capi.obj
 0002:00002cac       ??_C@_0BE@DCHFKKDG@Subsystem?1anti_v?1p1?$AA@ 10074cac     gggg_capi.obj
 0002:00002cc4       ??_C@_0BE@BJFIPJPF@Subsystem?1anti_v?1p2?$AA@ 10074cc4     gggg_capi.obj
 0002:00002cdc       ??_C@_0BE@EDMILE@Subsystem?1anti_v?1p3?$AA@ 10074cdc     gggg_capi.obj
 0002:00002cf4       ??_C@_0BE@EPACFOHD@Subsystem?1anti_v?1p4?$AA@ 10074cf4     gggg_capi.obj
 0002:00002d0c       ??_C@_0BF@DEDDDGGB@Subsystem?1anti_v1?1p1?$AA@ 10074d0c     gggg_capi.obj
 0002:00002d28       ??_C@_0BF@BPBOGFKC@Subsystem?1anti_v1?1p2?$AA@ 10074d28     gggg_capi.obj
 0002:00002d44       ??_C@_0BF@GAFFEOD@Subsystem?1anti_v1?1p3?$AA@ 10074d44     gggg_capi.obj
 0002:00002d60       ??_C@_0BF@EJEEMCCE@Subsystem?1anti_v1?1p4?$AA@ 10074d60     gggg_capi.obj
 0002:00002d7c       ??_C@_0BP@HDIBGFHC@Subsystem?1Data?5Type?5Conversion?$AA@ 10074d7c     gggg_capi.obj
 0002:00002da4       ??_C@_0CA@HICFJGMH@Subsystem?1Data?5Type?5Conversion1?$AA@ 10074da4     gggg_capi.obj
 0002:00002dcc       ??_C@_0CB@NKDOEEHG@Subsystem?1Data?5Type?5Conversion10@ 10074dcc     gggg_capi.obj
 0002:00002df4       ??_C@_0CB@MDCFHFDH@Subsystem?1Data?5Type?5Conversion11@ 10074df4     gggg_capi.obj
 0002:00002e1c       ??_C@_0CB@OIAICGPE@Subsystem?1Data?5Type?5Conversion12@ 10074e1c     gggg_capi.obj
 0002:00002e44       ??_C@_0CB@PBBDBHLF@Subsystem?1Data?5Type?5Conversion13@ 10074e44     gggg_capi.obj
 0002:00002e6c       ??_C@_0CB@LOFCIBHC@Subsystem?1Data?5Type?5Conversion14@ 10074e6c     gggg_capi.obj
 0002:00002e94       ??_C@_0CB@KHEJLADD@Subsystem?1Data?5Type?5Conversion15@ 10074e94     gggg_capi.obj
 0002:00002ebc       ??_C@_0CB@IMGEODPA@Subsystem?1Data?5Type?5Conversion16@ 10074ebc     gggg_capi.obj
 0002:00002ee4       ??_C@_0CB@JFHPNCLB@Subsystem?1Data?5Type?5Conversion17@ 10074ee4     gggg_capi.obj
 0002:00002f0c       ??_C@_0CB@BCOHMOHO@Subsystem?1Data?5Type?5Conversion18@ 10074f0c     gggg_capi.obj
 0002:00002f34       ??_C@_0CB@LPMPPDP@Subsystem?1Data?5Type?5Conversion19@ 10074f34     gggg_capi.obj
 0002:00002f5c       ??_C@_0CA@FDAIMFAE@Subsystem?1Data?5Type?5Conversion2?$AA@ 10074f5c     gggg_capi.obj
 0002:00002f84       ??_C@_0CB@NIHIPKCP@Subsystem?1Data?5Type?5Conversion20@ 10074f84     gggg_capi.obj
 0002:00002fac       ??_C@_0CB@MBGDMLGO@Subsystem?1Data?5Type?5Conversion21@ 10074fac     gggg_capi.obj
 0002:00002fd4       ??_C@_0CB@OKEOJIKN@Subsystem?1Data?5Type?5Conversion22@ 10074fd4     gggg_capi.obj
 0002:00002ffc       ??_C@_0CB@PDFFKJOM@Subsystem?1Data?5Type?5Conversion23@ 10074ffc     gggg_capi.obj
 0002:00003024       ??_C@_0CB@LMBEDPCL@Subsystem?1Data?5Type?5Conversion24@ 10075024     gggg_capi.obj
 0002:0000304c       ??_C@_0CB@KFAPAOGK@Subsystem?1Data?5Type?5Conversion25@ 1007504c     gggg_capi.obj
 0002:00003074       ??_C@_0CB@IOCCFNKJ@Subsystem?1Data?5Type?5Conversion26@ 10075074     gggg_capi.obj
 0002:0000309c       ??_C@_0CB@JHDJGMOI@Subsystem?1Data?5Type?5Conversion27@ 1007509c     gggg_capi.obj
 0002:000030c4       ??_C@_0CB@BAKBHACH@Subsystem?1Data?5Type?5Conversion28@ 100750c4     gggg_capi.obj
 0002:000030ec       ??_C@_0CB@JLKEBGG@Subsystem?1Data?5Type?5Conversion29@ 100750ec     gggg_capi.obj
 0002:00003114       ??_C@_0CA@EKBDPEEF@Subsystem?1Data?5Type?5Conversion3?$AA@ 10075114     gggg_capi.obj
 0002:0000313c       ??_C@_0CB@NJLKJABI@Subsystem?1Data?5Type?5Conversion30@ 1007513c     gggg_capi.obj
 0002:00003164       ??_C@_0CB@MAKBKBFJ@Subsystem?1Data?5Type?5Conversion31@ 10075164     gggg_capi.obj
 0002:0000318c       ??_C@_0CB@OLIMPCJK@Subsystem?1Data?5Type?5Conversion32@ 1007518c     gggg_capi.obj
 0002:000031b4       ??_C@_0CA@FFCGCIC@Subsystem?1Data?5Type?5Conversion4?$AA@ 100751b4     gggg_capi.obj
 0002:000031dc       ??_C@_0CA@BMEJFDMD@Subsystem?1Data?5Type?5Conversion5?$AA@ 100751dc     gggg_capi.obj
 0002:00003204       ??_C@_0CA@DHGEAAAA@Subsystem?1Data?5Type?5Conversion6?$AA@ 10075204     gggg_capi.obj
 0002:0000322c       ??_C@_0CA@COHPDBEB@Subsystem?1Data?5Type?5Conversion7?$AA@ 1007522c     gggg_capi.obj
 0002:00003254       ??_C@_0CA@KJOHCNIO@Subsystem?1Data?5Type?5Conversion8?$AA@ 10075254     gggg_capi.obj
 0002:0000327c       ??_C@_0CA@LAPMBMMP@Subsystem?1Data?5Type?5Conversion9?$AA@ 1007527c     gggg_capi.obj
 0002:000032a4       ??_C@_0P@IAIAMFPO@Subsystem?1Gain?$AA@ 100752a4     gggg_capi.obj
 0002:000032b8       ??_C@_0BA@JMNIFIGM@Subsystem?1Gain1?$AA@ 100752b8     gggg_capi.obj
 0002:000032cc       ??_C@_0BB@JLNOMDNI@Subsystem?1Gain10?$AA@ 100752cc     gggg_capi.obj
 0002:000032e0       ??_C@_04LGCGAGFF@?N?$LL?R?F?$AA@ 100752e0     gggg_capi.obj
 0002:000032e8       ??_C@_0BB@KJOIKBFK@Subsystem?1Gain12?$AA@ 100752e8     gggg_capi.obj
 0002:000032fc       ??_C@_0BB@LAPDJABL@Subsystem?1Gain13?$AA@ 100752fc     gggg_capi.obj
 0002:00003310       ??_C@_0BA@LHPFALKP@Subsystem?1Gain2?$AA@ 10075310     gggg_capi.obj
 0002:00003324       ??_C@_04DOLEPINP@?K?Y?$LG?H?$AA@ 10075324     gggg_capi.obj
 0002:0000332c       ??_C@_0BA@KOOODKOO@Subsystem?1Gain3?$AA@ 1007532c     gggg_capi.obj
 0002:00003340       ??_C@_0BA@OBKPKMCJ@Subsystem?1Gain4?$AA@ 10075340     gggg_capi.obj
 0002:00003354       ??_C@_0BA@PILEJNGI@Subsystem?1Gain5?$AA@ 10075354     gggg_capi.obj
 0002:00003368       ??_C@_0BA@MKICPPOK@Subsystem?1Gain7?$AA@ 10075368     gggg_capi.obj
 0002:0000337c       ??_C@_0BA@ENBKODCF@Subsystem?1Gain8?$AA@ 1007537c     gggg_capi.obj
 0002:00003390       ??_C@_0BA@FEABNCGE@Subsystem?1Gain9?$AA@ 10075390     gggg_capi.obj
 0002:000033a4       ??_C@_0BL@NJGLBJDL@Subsystem?1Logical?5Operator?$AA@ 100753a4     gggg_capi.obj
 0002:000033c4       ??_C@_0BM@HHIPIFIP@Subsystem?1Logical?5Operator1?$AA@ 100753c4     gggg_capi.obj
 0002:000033e8       ??_C@_0BM@FMKCNGEM@Subsystem?1Logical?5Operator2?$AA@ 100753e8     gggg_capi.obj
 0002:0000340c       ??_C@_0BM@EFLJOHAN@Subsystem?1Logical?5Operator3?$AA@ 1007540c     gggg_capi.obj
 0002:00003430       ??_C@_0BM@KPIHBMK@Subsystem?1Logical?5Operator4?$AA@ 10075430     gggg_capi.obj
 0002:00003454       ??_C@_0BM@DIMOBDEI@Subsystem?1Logical?5Operator6?$AA@ 10075454     gggg_capi.obj
 0002:00003478       ??_C@_0BM@PHBCPGPC@Subsystem?1Multiport?5Switch1?$AA@ 10075478     gggg_capi.obj
 0002:0000349c       ??_C@_0BM@IKGFACLH@Subsystem?1Multiport?5Switch4?$AA@ 1007549c     gggg_capi.obj
 0002:000034c0       ??_C@_0BF@CKKGKECE@Subsystem?1Saturation?$AA@ 100754c0     gggg_capi.obj
 0002:000034dc       ??_C@_0BG@PKHEEFMH@Subsystem?1Saturation1?$AA@ 100754dc     gggg_capi.obj
 0002:000034f8       ??_C@_0BM@OENDJGEG@Subsystem?1CAN?5bit?9packing?51?$AA@ 100754f8     gggg_capi.obj
 0002:0000351c       ??_C@_0BM@MPPOMFIF@Subsystem?1CAN?5bit?9packing?52?$AA@ 1007551c     gggg_capi.obj
 0002:00003540       ??_C@_0BM@NGOFPEME@Subsystem?1CAN?5bit?9packing?53?$AA@ 10075540     gggg_capi.obj
 0002:00003564       ??_C@_0BO@ODOEKMJJ@Subsystem?1CAN?5bit?9unpacking?51?$AA@ 10075564     gggg_capi.obj
 0002:00003588       ??_C@_0CB@HKEKPMEC@Subsystem?1CAN?5bit?9unpacking?52?1p1@ 10075588     gggg_capi.obj
 0002:000035b0       ??_C@_0CB@FBGHKPIB@Subsystem?1CAN?5bit?9unpacking?52?1p2@ 100755b0     gggg_capi.obj
 0002:000035d8       ??_C@_0CB@EIHMJOMA@Subsystem?1CAN?5bit?9unpacking?52?1p3@ 100755d8     gggg_capi.obj
 0002:00003600       ??_C@_0CB@HDNAIAH@Subsystem?1CAN?5bit?9unpacking?52?1p4@ 10075600     gggg_capi.obj
 0002:00003628       ??_C@_0CB@BOCGDJEG@Subsystem?1CAN?5bit?9unpacking?52?1p5@ 10075628     gggg_capi.obj
 0002:00003650       ??_C@_0CB@DFALGKIF@Subsystem?1CAN?5bit?9unpacking?52?1p6@ 10075650     gggg_capi.obj
 0002:00003678       ??_C@_0CB@CMBAFLME@Subsystem?1CAN?5bit?9unpacking?52?1p7@ 10075678     gggg_capi.obj
 0002:000036a0       ??_C@_0CB@KLIIEHAL@Subsystem?1CAN?5bit?9unpacking?52?1p8@ 100756a0     gggg_capi.obj
 0002:000036c8       ??_C@_0CB@EHCKNFPC@Subsystem?1CAN?5bit?9unpacking?53?1p1@ 100756c8     gggg_capi.obj
 0002:000036f0       ??_C@_0CB@GMAHIGDB@Subsystem?1CAN?5bit?9unpacking?53?1p2@ 100756f0     gggg_capi.obj
 0002:00003718       ??_C@_0CB@HFBMLHHA@Subsystem?1CAN?5bit?9unpacking?53?1p3@ 10075718     gggg_capi.obj
 0002:00003740       ??_C@_0CB@DKFNCBLH@Subsystem?1CAN?5bit?9unpacking?53?1p4@ 10075740     gggg_capi.obj
 0002:00003768       ??_C@_0CB@CDEGBAPG@Subsystem?1CAN?5bit?9unpacking?53?1p5@ 10075768     gggg_capi.obj
 0002:00003790       ??_C@_0CB@IGLEDDF@Subsystem?1CAN?5bit?9unpacking?53?1p6@ 10075790     gggg_capi.obj
 0002:000037b8       ??_C@_0CB@BBHAHCHE@Subsystem?1CAN?5bit?9unpacking?53?1p7@ 100757b8     gggg_capi.obj
 0002:000037e0       ??_C@_0CB@JGOIGOLL@Subsystem?1CAN?5bit?9unpacking?53?1p8@ 100757e0     gggg_capi.obj
 0002:00003808       ??_C@_0BO@JOJDFINM@Subsystem?1CAN?5bit?9unpacking?54?$AA@ 10075808     gggg_capi.obj
 0002:0000382c       ??_C@_0BC@FJOKGIF@Subsystem?1receive?$AA@ 1007582c     gggg_capi.obj
 0002:00003844       ??_C@_0BD@FLIKOOLL@Subsystem?1receive1?$AA@ 10075844     gggg_capi.obj
 0002:0000385c       ??_C@_0BD@HAKHLNHI@Subsystem?1receive2?$AA@ 1007585c     gggg_capi.obj
 0002:00003874       ??_C@_0BD@GJLMIMDJ@Subsystem?1receive3?$AA@ 10075874     gggg_capi.obj
 0002:0000388c       ??_C@_0N@NKDMFBEH@Subsystem?1s1?$AA@ 1007588c     gggg_capi.obj
 0002:0000389c       ??_C@_0N@OIAKDDMF@Subsystem?1s3?$AA@ 1007589c     gggg_capi.obj
 0002:000038ac       ??_C@_0N@KHELKFAC@Subsystem?1s4?$AA@ 100758ac     gggg_capi.obj
 0002:000038bc       ??_C@_0N@LOFAJEED@Subsystem?1s5?$AA@ 100758bc     gggg_capi.obj
 0002:000038cc       ??_C@_0P@NOFBCKE@Subsystem?1Add1?$AA@ 100758cc     gggg_capi.obj
 0002:000038e0       ??_C@_0P@CGMIEBGH@Subsystem?1Add2?$AA@ 100758e0     gggg_capi.obj
 0002:000038f4       ??_C@_0BB@PPDOAAPK@Subsystem?1Switch?$AA@ 100758f4     gggg_capi.obj
 0002:00003908       ??_C@_0BC@JLMKCCLA@Subsystem?1Switch1?$AA@ 10075908     gggg_capi.obj
 0002:00003920       ??_C@_0BC@LAOHHBHD@Subsystem?1Switch2?$AA@ 10075920     gggg_capi.obj
 0002:00003938       ??_C@_0BI@DPHINIDA@Subsystem?1Manual?5Switch?$AA@ 10075938     gggg_capi.obj
 0002:00003954       ??_C@_0BJ@OALLEPMG@Subsystem?1Manual?5Switch1?$AA@ 10075954     gggg_capi.obj
 0002:00003974       ??_C@_0BJ@NCINCNEE@Subsystem?1Manual?5Switch3?$AA@ 10075974     gggg_capi.obj
 0002:00003994       ??_C@_0BA@OLOOPOAA@Subsystem?1Delay?$AA@ 10075994     gggg_capi.obj
 0002:000039a8       ??_C@_0BB@MGLGOJEM@Subsystem?1Delay1?$AA@ 100759a8     gggg_capi.obj
 0002:000039bc       ??_C@_0BH@KDFJMCNK@husuo?1Logical?5Operator?$AA@ 100759bc     gggg_capi.obj
 0002:000039d8       ??_C@_0BI@KAPIGFLK@husuo?1Logical?5Operator1?$AA@ 100759d8     gggg_capi.obj
 0002:000039f4       ??_C@_0BI@ILNFDGHJ@husuo?1Logical?5Operator2?$AA@ 100759f4     gggg_capi.obj
 0002:00003a10       ??_C@_0N@BKDEKCHD@husuo?1Memory?$AA@ 10075a10     gggg_capi.obj
 0002:00003a20       ??_C@_0O@PELBDJG@husuo?1Memory1?$AA@ 10075a20     gggg_capi.obj
 0002:00003a30       ??_C@_0O@CEGGEAFF@husuo?1Memory2?$AA@ 10075a30     gggg_capi.obj
 0002:00003a40       ??_C@_0N@FPGOHKHJ@husuo?1Switch?$AA@ 10075a40     gggg_capi.obj
 0002:00003a50       ??_C@_0O@OPNLKAFA@husuo?1Switch1?$AA@ 10075a50     gggg_capi.obj
 0002:00003a60       ??_C@_0O@MEPGPDJD@husuo?1Switch2?$AA@ 10075a60     gggg_capi.obj
 0002:00003a70       ??_C@_0BJ@EFOCFCPL@Subsystem?1Subsystem1?1Add?$AA@ 10075a70     gggg_capi.obj
 0002:00003a90       ??_C@_0BJ@MDHGCAFF@Subsystem?1Subsystem2?1Add?$AA@ 10075a90     gggg_capi.obj
 0002:00003ab0       ??_C@_09PFAJLPAB@Constant4?$AA@ 10075ab0     gggg_capi.obj
 0002:00003abc       ??_C@_05LPIJGKJ@Value?$AA@ 10075abc     gggg_capi.obj
 0002:00003ac4       ??_C@_09OMBCIOEA@Constant5?$AA@ 10075ac4     gggg_capi.obj
 0002:00003ad0       ??_C@_09MHDPNNID@Constant6?$AA@ 10075ad0     gggg_capi.obj
 0002:00003adc       ??_C@_09NOCEOMMC@Constant7?$AA@ 10075adc     gggg_capi.obj
 0002:00003ae8       ??_C@_0BB@CADCPHPM@?$CG?$CDx590D?$DL?$CG?$CDx4F4D?$DL?$AA@ 10075ae8     gggg_capi.obj
 0002:00003afc       ??_C@_0P@HMEAEHIM@CurrentSetting?$AA@ 10075afc     gggg_capi.obj
 0002:00003b10       ??_C@_0BE@NLHJKKBI@Subsystem?1Constant1?$AA@ 10075b10     gggg_capi.obj
 0002:00003b28       ??_C@_0BF@MMPBNHAP@Subsystem?1Constant10?$AA@ 10075b28     gggg_capi.obj
 0002:00003b44       ??_C@_0BF@NFOKOGEO@Subsystem?1Constant11?$AA@ 10075b44     gggg_capi.obj
 0002:00003b60       ??_C@_0BF@POMHLFIN@Subsystem?1Constant12?$AA@ 10075b60     gggg_capi.obj
 0002:00003b7c       ??_C@_0BF@OHNMIEMM@Subsystem?1Constant13?$AA@ 10075b7c     gggg_capi.obj
 0002:00003b98       ??_C@_0BF@KIJNBCAL@Subsystem?1Constant14?$AA@ 10075b98     gggg_capi.obj
 0002:00003bb4       ??_C@_0BF@LBIGCDEK@Subsystem?1Constant15?$AA@ 10075bb4     gggg_capi.obj
 0002:00003bd0       ??_C@_0BF@JKKLHAIJ@Subsystem?1Constant16?$AA@ 10075bd0     gggg_capi.obj
 0002:00003bec       ??_C@_0BF@IDLAEBMI@Subsystem?1Constant17?$AA@ 10075bec     gggg_capi.obj
 0002:00003c08       ??_C@_0BF@ECIFNAH@Subsystem?1Constant18?$AA@ 10075c08     gggg_capi.obj
 0002:00003c24       ??_C@_0BF@BNDDGMEG@Subsystem?1Constant19?$AA@ 10075c24     gggg_capi.obj
 0002:00003c40       ??_C@_0BE@PAFEPJNL@Subsystem?1Constant2?$AA@ 10075c40     gggg_capi.obj
 0002:00003c58       ??_C@_0BF@NHKMFIBH@Subsystem?1Constant21?$AA@ 10075c58     gggg_capi.obj
 0002:00003c74       ??_C@_0BF@PMIBALNE@Subsystem?1Constant22?$AA@ 10075c74     gggg_capi.obj
 0002:00003c90       ??_C@_0BF@OFJKDKJF@Subsystem?1Constant23?$AA@ 10075c90     gggg_capi.obj
 0002:00003cac       ??_C@_0BF@KKNLKMFC@Subsystem?1Constant24?$AA@ 10075cac     gggg_capi.obj
 0002:00003cc8       ??_C@_0BF@LDMAJNBD@Subsystem?1Constant25?$AA@ 10075cc8     gggg_capi.obj
 0002:00003ce4       ??_C@_0BF@JIONMONA@Subsystem?1Constant26?$AA@ 10075ce4     gggg_capi.obj
 0002:00003d00       ??_C@_0BF@IBPGPPJB@Subsystem?1Constant27?$AA@ 10075d00     gggg_capi.obj
 0002:00003d1c       ??_C@_0BF@GGOODFO@Subsystem?1Constant28?$AA@ 10075d1c     gggg_capi.obj
 0002:00003d38       ??_C@_0BF@BPHFNCBP@Subsystem?1Constant29?$AA@ 10075d38     gggg_capi.obj
 0002:00003d54       ??_C@_0BE@OJEPMIJK@Subsystem?1Constant3?$AA@ 10075d54     gggg_capi.obj
 0002:00003d6c       ??_C@_0BF@NGGODCCA@Subsystem?1Constant31?$AA@ 10075d6c     gggg_capi.obj
 0002:00003d88       ??_C@_0BE@KGAOFOFN@Subsystem?1Constant4?$AA@ 10075d88     gggg_capi.obj
 0002:00003da0       ??_C@_0BE@LPBFGPBM@Subsystem?1Constant5?$AA@ 10075da0     gggg_capi.obj
 0002:00003db8       ??_C@_0BE@JEDIDMNP@Subsystem?1Constant6?$AA@ 10075db8     gggg_capi.obj
 0002:00003dd0       ??_C@_0BE@INCDANJO@Subsystem?1Constant7?$AA@ 10075dd0     gggg_capi.obj
 0002:00003de8       ??_C@_0BE@KLLBBFB@Subsystem?1Constant8?$AA@ 10075de8     gggg_capi.obj
 0002:00003e00       ??_C@_0BE@BDKACABA@Subsystem?1Constant9?$AA@ 10075e00     gggg_capi.obj
 0002:00003e18       ??_C@_04OMOMKKFL@Gain?$AA@ 10075e18     gggg_capi.obj
 0002:00003e20       ??_C@_0L@FBCGKKEN@UpperLimit?$AA@ 10075e20     gggg_capi.obj
 0002:00003e30       ??_C@_0L@DGFJOHKP@LowerLimit?$AA@ 10075e30     gggg_capi.obj
 0002:00003e40       ??_C@_0BB@LHCMEPBI@Subsystem?1Setup?5?$AA@ 10075e40     gggg_capi.obj
 0002:00003e54       ??_C@_02KKFPAPOP@P1?$AA@   10075e54     gggg_capi.obj
 0002:00003e58       ??_C@_02IBHCFMCM@P2?$AA@   10075e58     gggg_capi.obj
 0002:00003e5c       ??_C@_02MODDMKOL@P5?$AA@   10075e5c     gggg_capi.obj
 0002:00003e60       ??_C@_02OFBOJJCI@P6?$AA@   10075e60     gggg_capi.obj
 0002:00003e64       ??_C@_03MEHEMFNG@P13?$AA@  10075e64     gggg_capi.obj
 0002:00003e68       ??_C@_03JCCOGCFA@P15?$AA@  10075e68     gggg_capi.obj
 0002:00003e6c       ??_C@_03LJADDBJD@P16?$AA@  10075e6c     gggg_capi.obj
 0002:00003e70       ??_C@_03KABIAANC@P17?$AA@  10075e70     gggg_capi.obj
 0002:00003e74       ??_C@_03CHIABMBN@P18?$AA@  10075e74     gggg_capi.obj
 0002:00003e78       ??_C@_03DOJLCNFM@P19?$AA@  10075e78     gggg_capi.obj
 0002:00003e7c       ??_C@_03ONBPCIEM@P20?$AA@  10075e7c     gggg_capi.obj
 0002:00003e80       ??_C@_03PEAEBJAN@P21?$AA@  10075e80     gggg_capi.obj
 0002:00003e84       ??_C@_03NPCJEKMO@P22?$AA@  10075e84     gggg_capi.obj
 0002:00003e88       ??_C@_03MGDCHLIP@P23?$AA@  10075e88     gggg_capi.obj
 0002:00003e8c       ??_C@_03IJHDONEI@P24?$AA@  10075e8c     gggg_capi.obj
 0002:00003e90       ??_C@_01FHEEJDEE@A?$AA@    10075e90     gggg_capi.obj
 0002:00003e94       ??_C@_01HMGJMAIH@B?$AA@    10075e94     gggg_capi.obj
 0002:00003e98       ??_C@_01GFHCPBMG@C?$AA@    10075e98     gggg_capi.obj
 0002:00003e9c       ??_C@_02LNFHGPBG@X0?$AA@   10075e9c     gggg_capi.obj
 0002:00003ea0       ??_C@_09HLCHFPPJ@Threshold?$AA@ 10075ea0     gggg_capi.obj
 0002:00003eac       ??_C@_0M@KNNCJG@DelayLength?$AA@ 10075eac     gggg_capi.obj
 0002:00003ebc       ??_C@_0BB@CFEOEMDC@InitialCondition?$AA@ 10075ebc     gggg_capi.obj
 0002:00003ed0       ??_C@_0P@DDMDDNOK@husuo?1Constant?$AA@ 10075ed0     gggg_capi.obj
 0002:00003ee4       ??_C@_0BA@IGLBMPOJ@husuo?1Constant1?$AA@ 10075ee4     gggg_capi.obj
 0002:00003ef8       ??_C@_0BA@KNJMJMCK@husuo?1Constant2?$AA@ 10075ef8     gggg_capi.obj
 0002:00003f0c       ??_C@_0BK@KHMEODJP@Subsystem?1Subsystem1?1Out1?$AA@ 10075f0c     gggg_capi.obj
 0002:00003f2c       ??_C@_0O@LILIEJBO@InitialOutput?$AA@ 10075f2c     gggg_capi.obj
 0002:00003f3c       ??_C@_0BO@KFAAIBKL@Subsystem?1Subsystem1?1Constant?$AA@ 10075f3c     gggg_capi.obj
 0002:00003f60       ??_C@_0BK@JGCMPJAC@Subsystem?1Subsystem2?1Out1?$AA@ 10075f60     gggg_capi.obj
 0002:00003f80       ??_C@_0BO@DMOCOHKK@Subsystem?1Subsystem2?1Constant?$AA@ 10075f80     gggg_capi.obj
 0002:00003fa4       ??_C@_06BNJCAIGJ@double?$AA@ 10075fa4     gggg_capi.obj
 0002:00003fac       ??_C@_06CNMIJIPB@real_T?$AA@ 10075fac     gggg_capi.obj
 0002:00003fb4       ??_C@_0O@PPAIJIHF@unsigned?5char?$AA@ 10075fb4     gggg_capi.obj
 0002:00003fc4       ??_C@_07NCEHLPOC@uint8_T?$AA@ 10075fc4     gggg_capi.obj
 0002:00003fd0       ??_C@_09JBMFCIMO@boolean_T?$AA@ 10075fd0     gggg_capi.obj
 0002:00003fdc       ??_C@_0N@OFHMGPAL@unsigned?5int?$AA@ 10075fdc     gggg_capi.obj
 0002:00003fec       ??_C@_08CCMIKNJF@uint32_T?$AA@ 10075fec     gggg_capi.obj
 0002:00003ff8       ??_C@_05KNFBNCOH@float?$AA@ 10075ff8     gggg_capi.obj
 0002:00004860       ??_C@_0DJ@FHKINPLE@Unexpected?5itemKind?5?$DN?5DATA_ITEM?5@ 10076860     rt_logging.obj
 0002:000048a4       ??_C@_0DA@IEHFPFCJ@Unexpected?5itemKind?$DN?$CFd?5in?5rt_Pro@ 100768a4     rt_logging.obj
 0002:000048e0       ??_C@_0DA@IFLHJPBO@Unexpected?5itemKind?$DN?$CFd?5in?5rt_Pro@ 100768e0     rt_logging.obj
 0002:0000491c       ??_C@_0DA@IAPIIJJL@Unexpected?5itemKind?$DN?$CFd?5in?5rt_Pro@ 1007691c     rt_logging.obj
 0002:00004958       ??_C@_0BE@LCIGPJIG@MATLAB?55?40?5MAT?9file?$AA@ 10076958     rt_logging.obj
 0002:00004970       ??_C@_0FB@PCJEAJIB@?$CK?$CK?$CK?5Log?5variable?5?$CFs?5has?5wrapped?5@ 10076970     rt_logging.obj
 0002:000049d8       ??_C@_0MG@NKMLMOGF@?$CK?$CK?$CK?5To?5avoid?5wrapping?0?5explicitl@ 100769d8     rt_logging.obj
 0002:00004ac8       ??_C@_0N@IPAEOLLP@_rtw_tmw?4tmw?$AA@ 10076ac8     rt_logging.obj
 0002:00004ad8       ??_C@_04HDOCAJNK@?$CFs?$CFs?$AA@ 10076ad8     rt_logging.obj
 0002:00004ae0       ??_C@_03ELIABIOC@w?$CLb?$AA@ 10076ae0     rt_logging.obj
 0002:00004ae4       ??_C@_0BF@JPILDDFA@?$CK?$CK?$CK?5Error?5opening?5?$CFs?$AA@ 10076ae4     rt_logging.obj
 0002:00004b00       ??_C@_0BK@EEMDELA@unable?5to?5open?5data?5file?6?$AA@ 10076b00     rt_logging.obj
 0002:00004b20       ??_C@_04CGFJFPFD@none?$AA@ 10076b20     rt_logging.obj
 0002:00004b28       ??_C@_0EE@LCGFPNON@?$CK?$CK?$CK?5Error?5creating?5signals?5struc@ 10076b28     rt_logging.obj
 0002:00004b7c       ??_C@_0CE@NHECEDMK@?$CK?$CK?$CK?5Error?5creating?5log?5variable?5@ 10076b7c     rt_logging.obj
 0002:00004ba8       ??_C@_0DB@IOCGKAGH@?$CK?$CK?$CK?5Errors?5occurred?5when?5startin@ 10076ba8     rt_logging.obj
 0002:00004be4       ??_C@_0BO@BBLOGEBK@?$CK?$CK?$CK?5Memory?5allocation?5error?4?6?$AA@ 10076be4     rt_logging.obj
 0002:00004c08       ??_C@_0N@LGFBAGEL@?5?$CIreal?5part?$CJ?$AA@ 10076c08     rt_logging.obj
 0002:00004c18       ??_C@_0KH@CGNMHNFE@?5?5?5?5varName?5?5?5?5?5?5?5?5?5?5?$DN?5?$CFs?$CFs?6?5?5?5?5@ 10076c18     rt_logging.obj
 0002:00004ce0       ??_C@_0LE@OALKKEFM@?5?5?5?5varName?5?5?5?5?5?5?5?5?5?5?$DN?5?$CFs?5?$CIcompl@ 10076ce0     rt_logging.obj
 0002:00004db8       ??_C@_0KF@JDDLEOKO@?5?5?5?5varName?5?5?5?5?5?5?5?5?5?5?$DN?5?$CFs?6?5?5?5?5nR@ 10076db8     rt_logging.obj
 0002:00004e80       ??_C@_0DP@HPDMIOFM@?$CK?$CK?$CK?5Using?5a?5default?5buffer?5of?5si@ 10076e80     rt_logging.obj
 0002:00004ed0       ??_C@_0KE@JEFOLKNF@?6?$CK?$CK?$CK?5Memory?5required?5to?5log?5vari@ 10076ed0     rt_logging.obj
 0002:00004f98       ??_C@_0JP@DKLMHCBI@?$CK?$CK?$CK?5Details?3?6?5?5?5?5?5?5?5varName?5?5?5?5?5@ 10076f98     rt_logging.obj
 0002:00005058       ??_C@_0CM@CAMILBED@?$CK?$CK?$CK?5Error?5allocating?5memory?5for?5@ 10077058     rt_logging.obj
 0002:0000508c       ??_C@_0DF@BBCNMOPM@?$CK?$CK?$CK?5Error?5allocating?5memory?5for?5@ 1007708c     rt_logging.obj
 0002:000050d0       ??_C@_0JP@DBCLPCCI@?$CK?$CK?$CK?5Details?3?6?5?5?5?5?5?5?5varName?5?5?5?5?5@ 100770d0     rt_logging.obj
 0002:00005190       ??_C@_0FK@DPGAOBGA@?$CK?$CK?$CK?5Error?5allocating?5memory?5for?5@ 10077190     rt_logging.obj
 0002:000051fc       ??_C@_0BI@GGDNPHLJ@?$CK?$CK?$CK?5Error?5writing?5to?5?$CFs?$AA@ 100771fc     rt_logging.obj
 0002:00005218       ??_C@_0CB@IBGJGELG@?$CK?$CK?$CK?5Error?5writing?5?$CFs?5due?5to?3?5?$CFs?6@ 10077218     rt_logging.obj
 0002:00005240       ??_C@_0CN@FLMCHCPB@?$CK?$CK?$CK?5Error?5writing?5log?5variable?5?$CF@ 10077240     rt_logging.obj
 0002:00005278       ??_C@_0DH@GAJCNOJP@?$CK?$CK?$CK?5Error?5writing?5structure?5log?5@ 10077278     rt_logging.obj
 0002:000052bc       ??_C@_0BD@POEALECL@?$CK?$CK?5created?5?$CFs?5?$CK?$CK?6?6?$AA@ 100772bc     rt_logging.obj
 0002:000052d8       __real@41dfffffffc00000    100772d8     rt_logging.obj
 0002:000052e8       __real@bfbf9add3afd2773    100772e8     rt_logging.obj
 0002:000052f8       __real@c000000000000000    100772f8     rt_logging.obj
 0002:00005310       __xmm@20202020202020202020202020202020 10077310     rt_logging.obj
 0002:00005340       __real@3cb0000000000000    10077340     rt_matrx.obj
 0002:0000534c       ??_C@_0BI@INNPNFJN@Memory?5Allocation?5Error?$AA@ 1007734c     rtw_modelmap_utils.obj
 0002:00005368       ??_C@_1GI@JMAMOIHM@?$AAD?$AA?3?$AA?2?$AAM?$AAA?$AAT?$AAL?$AAA?$AAB?$AA?$HO?$AA3?$AA?2?$AAM?$AAA?$AAT?$AAL?$AAA?$AAB?$AA?$HO?$AA2?$AA?2?$AAr?$AAt?$AAw?$AA?2?$AAc?$AA?2?$AAs?$AAr?$AAc?$AA?2?$AAr@ 10077368     rtw_modelmap_utils.obj
 0002:000053e4       ??_C@_1CI@OEAJCJND@?$AAj?$AA?5?$AA?$DN?$AA?$DN?$AA?5?$AAe?$AAn?$AAc?$AAo?$AAd?$AAe?$AAd?$AAP?$AAa?$AAt?$AAh?$AAL?$AAe?$AAn?$AA?$AA@ 100773e4     rtw_modelmap_utils.obj
 0002:00005414       ??_C@_1DC@NFAOIFKB@?$AAe?$AAn?$AAc?$AAo?$AAd?$AAe?$AAd?$AAP?$AAa?$AAt?$AAh?$AA?$FL?$AAj?$AA?9?$AA1?$AA?$FN?$AA?5?$AA?$DN?$AA?$DN?$AA?5?$AA?8?$AA?2?$AA0?$AA?8?$AA?$AA@ 10077414     rtw_modelmap_utils.obj
 0002:00005450       ??_C@_1DI@FLNJGPEE@?$AAs?$AAi?$AAg?$AAC?$AAo?$AAm?$AAp?$AAl?$AAe?$AAx?$AAi?$AAt?$AAy?$AA?$FL?$AA?$CK?$AAs?$AAi?$AAg?$AAI?$AAd?$AAx?$AA?$FN?$AA?5?$AA?$CB?$AA?$DN?$AA?5?$AA1?$AA?$AA@ 10077450     rtw_modelmap_utils.obj
 0002:00005498       ??_C@_1KI@OFELMGBG@?$AA?$CI?$AA?$CI?$AA?$CI?$AAd?$AAa?$AAt?$AAa?$AAT?$AAy?$AAp?$AAe?$AAM?$AAa?$AAp?$AA?$CJ?$AA?$FL?$AA?$CI?$AA?$CI?$AA?$CI?$AAs?$AAt?$AAa?$AAt?$AAe?$AAs?$AA?$CJ?$AA?$FL?$AA?$CI?$AAi?$AA?$CJ?$AA?$FN?$AA?4@ 10077498     rtw_modelmap_utils.obj
 0002:00005564       ??_C@_1DA@ILCMPHNE@?$AAf?$AAu?$AAl?$AAl?$AAP?$AAa?$AAt?$AAh?$AA?5?$AA?$CB?$AA?$DN?$AA?5?$AA?$CI?$AA?$CI?$AAv?$AAo?$AAi?$AAd?$AA?5?$AA?$CK?$AA?$CJ?$AA0?$AA?$CJ?$AA?$AA@ 10077564     rtw_modelmap_utils.obj
 0002:000055a0       ??_C@_1CI@OEPPFCCA@?$AAp?$AAa?$AAt?$AAh?$AA?5?$AA?$CB?$AA?$DN?$AA?5?$AA?$CI?$AA?$CI?$AAv?$AAo?$AAi?$AAd?$AA?5?$AA?$CK?$AA?$CJ?$AA0?$AA?$CJ?$AA?$AA@ 100775a0     rtw_modelmap_utils.obj
 0002:000055d0       ??_C@_1FK@GLJIMFHB@?$AA?$CI?$AA?$CI?$AAm?$AAm?$AAi?$AA?$CJ?$AA?9?$AA?$DO?$AAI?$AAn?$AAs?$AAt?$AAa?$AAn?$AAc?$AAe?$AAM?$AAa?$AAp?$AA?4?$AAf?$AAu?$AAl?$AAl?$AAP?$AAa?$AAt?$AAh?$AA?$CJ?$AA?5?$AA?$DN?$AA?$DN@ 100775d0     rtw_modelmap_utils.obj
 0002:0000563c       ??_C@_1DG@HPCJGNCE@?$AAm?$AAm?$AAi?$AAP?$AAa?$AAt?$AAh?$AA?$FL?$AAp?$AAa?$AAt?$AAh?$AAL?$AAe?$AAn?$AA?9?$AA1?$AA?$FN?$AA?5?$AA?$DN?$AA?$DN?$AA?5?$AA?8?$AA?2?$AA0?$AA?8?$AA?$AA@ 1007763c     rtw_modelmap_utils.obj
 0002:0000567c       ??_C@_1DM@DBAOGGOO@?$AAm?$AAm?$AAi?$AAP?$AAa?$AAt?$AAh?$AA?$FL?$AAm?$AAm?$AAi?$AAP?$AAa?$AAt?$AAh?$AAL?$AAe?$AAn?$AA?9?$AA1?$AA?$FN?$AA?5?$AA?$DN?$AA?$DN?$AA?5?$AA?8?$AA?2?$AA0?$AA?8?$AA?$AA@ 1007767c     rtw_modelmap_utils.obj
 0002:000056c4       ??_C@_1DC@LHIAKAFE@?$AAb?$AAl?$AAo?$AAc?$AAk?$AAP?$AAa?$AAt?$AAh?$AA?5?$AA?$CB?$AA?$DN?$AA?5?$AA?$CI?$AA?$CI?$AAv?$AAo?$AAi?$AAd?$AA?5?$AA?$CK?$AA?$CJ?$AA0?$AA?$CJ?$AA?$AA@ 100776c4     rtw_modelmap_utils.obj
 0002:00005700       ??_C@_1GI@KIEJKPGC@?$AAf?$AAu?$AAl?$AAl?$AAS?$AAt?$AAa?$AAt?$AAe?$AAB?$AAl?$AAo?$AAc?$AAk?$AAP?$AAa?$AAt?$AAh?$AA?$FL?$AAf?$AAu?$AAl?$AAl?$AAS?$AAt?$AAa?$AAt?$AAe?$AAB?$AAl?$AAo?$AAc@ 10077700     rtw_modelmap_utils.obj
 0002:00005780       ??_C@_1EE@DNPIBJHC@?$AA?$CI?$AA?$CI?$AAd?$AAi?$AAm?$AAM?$AAa?$AAp?$AA?$CJ?$AA?$FL?$AA?$CI?$AAm?$AAa?$AAp?$AAI?$AAd?$AAx?$AA?$CJ?$AA?$FN?$AA?4?$AAn?$AAu?$AAm?$AAD?$AAi?$AAm?$AAs?$AA?$CJ?$AA?5?$AA?$DN?$AA?$DN?$AA?5@ 10077780     rtw_modelmap_utils.obj
 0002:000057d4       ??_C@_06JFOKFOED@CSTATE?$AA@ 100777d4     rtw_modelmap_utils.obj
 0002:000057dc       ??_C@_06FAENGAMN@DSTATE?$AA@ 100777dc     rtw_modelmap_utils.obj
 0002:000057e4       ??_C@_1BI@LEBJNOGG@?$AAc?$AAs?$AAv?$AAI?$AAd?$AAx?$AA?5?$AA?$DO?$AA?$DN?$AA?5?$AA0?$AA?$AA@ 100777e4     rtw_modelmap_utils.obj
 0002:00005800       ??_C@_1BA@KDMGHCHP@?$AAT?$AAI?$AAD?$AA?$DN?$AA?$DN?$AA?9?$AA1?$AA?$AA@ 10077800     rtw_modelmap_utils.obj
 0002:00005814       ??_C@_1DM@DHGKBPCE@?$AAs?$AAi?$AAg?$AAP?$AAa?$AAt?$AAh?$AA?$FL?$AAs?$AAi?$AAg?$AAP?$AAa?$AAt?$AAh?$AAL?$AAe?$AAn?$AA?9?$AA1?$AA?$FN?$AA?5?$AA?$DN?$AA?$DN?$AA?5?$AA?8?$AA?2?$AA0?$AA?8?$AA?$AA@ 10077814     rtw_modelmap_utils.obj
 0002:0000585c       _serialfifoground          1007785c     xpc_datatype_ground.obj
 0002:00005868       _bcmsg1553ground           10077868     xpc_datatype_ground.obj
 0002:00005878       _bcstatground              10077878     xpc_datatype_ground.obj
 0002:00005890       _bmmsg1553ground           10077890     xpc_datatype_ground.obj
 0002:000058b0       ??_C@_04NDBKEMMA@gggg?$AA@ 100778b0     xpctarget.obj
 0002:000058b8       _ptsetfilename             100778b8     xpctarget.obj
 0002:000058bc       _xmlfile                   100778bc     xpctarget.obj
 0002:000058c4       ??_C@_0L@CHBJKKFC@xpceSetVar?$AA@ 100778c4     xpctarget.obj
 0002:000058d4       ??_C@_03JLBJCOMC@6?45?$AA@ 100778d4     xpctarget.obj
 0002:000058d8       __real@3fb999999999999a    100778d8     xpctarget.obj
 0002:000058e8       __real@407f400000000000    100778e8     xpctarget.obj
 0002:000058f8       _gggg_BIOMAP               100778f8     appmappingData.obj
 0002:00005f50       _gggg_LBLMAP               10077f50     appmappingData.obj
 0002:000065a8       _gggg_SIDMAP               100785a8     appmappingData.obj
 0002:00006c00       _gggg_SBIO                 10078c00     appmappingData.obj
 0002:00006e20       _gggg_SLBL                 10078e20     appmappingData.obj
 0002:00007040       _gggg_PTIDSMAP             10079040     appmappingData.obj
 0002:00007390       _gggg_PTNAMESMAP           10079390     appmappingData.obj
 0002:000076e0       _gggg_SPTMAP               100796e0     appmappingData.obj
 0002:00007888       _gggg_dtmap                10079888     appmappingData.obj
 0002:000078b8       _appInfo                   100798b8     appmappingData.obj
 0002:00007f6c       ??_C@_0BK@LNMFPOJE@ErrorCode?$DN?$CFd?5?5Error?5Text?3?$AA@ 10079f6c     canac2pcisetupx.obj
 0002:00007f8c       ??_C@_0BL@LBDCLEE@?5can?8t?5open?5IniFile?5?5?5?5?5?5?5?$AA@ 10079f8c     canac2pcisetupx.obj
 0002:00007fac       ??_C@_0BL@GMCJFMGA@?5format?5error?5in?5INI?9file?5?$AA@ 10079fac     canac2pcisetupx.obj
 0002:00007fcc       ??_C@_0BL@EIFEICM@?5error?5opening?5binary?9file?$AA@ 10079fcc     canac2pcisetupx.obj
 0002:00007fec       ??_C@_0BL@EGFOFLEL@?5error?5reading?5binary?9file?$AA@ 10079fec     canac2pcisetupx.obj
 0002:0000800c       ??_C@_0BL@JCLHGCOK@?5binary?9file?5too?5long?5?5?5?5?5?$AA@ 1007a00c     canac2pcisetupx.obj
 0002:0000802c       ??_C@_0BL@DKMABEA@?5binary?9data?5format?5error?5?$AA@ 1007a02c     canac2pcisetupx.obj
 0002:0000804c       ??_C@_0CC@NKNABABE@?5binary?9data?5checksum?5error?5?5?5?5?5@ 1007a04c     canac2pcisetupx.obj
 0002:00008074       ??_C@_0BL@IANOGCDJ@?5no?5card?5present?5?5?5?5?5?5?5?5?5?5?$AA@ 1007a074     canac2pcisetupx.obj
 0002:00008094       ??_C@_0BL@DEPHJBMB@?5no?5physical?5memory?5?5?5?5?5?5?5?$AA@ 1007a094     canac2pcisetupx.obj
 0002:000080b4       ??_C@_0BL@NKJKAOEG@?5invalid?5IRQ?9number?5?5?5?5?5?5?5?$AA@ 1007a0b4     canac2pcisetupx.obj
 0002:000080d4       ??_C@_0BL@DHOAIMOD@?5error?5accessing?5dpram?5?5?5?5?$AA@ 1007a0d4     canac2pcisetupx.obj
 0002:000080f4       ??_C@_0BL@BHDCLMIJ@?5bad?5response?5from?5card?5?5?5?$AA@ 1007a0f4     canac2pcisetupx.obj
 0002:00008114       ??_C@_0BL@HECAOICO@?5sram?5seems?5to?5be?5damaged?5?$AA@ 1007a114     canac2pcisetupx.obj
 0002:00008134       ??_C@_0CC@BLEKLLPB@?5invalid?5program?5start?5address?5?5@ 1007a134     canac2pcisetupx.obj
 0002:0000815c       ??_C@_0BL@OGENALEB@?5invalid?5record?5type?5?5?5?5?5?5?$AA@ 1007a15c     canac2pcisetupx.obj
 0002:0000817c       ??_C@_0CC@LLIEHGNJ@?5no?5response?5after?5program?5start@ 1007a17c     canac2pcisetupx.obj
 0002:000081a4       ??_C@_0CC@EHIDOFAK@?5bad?5response?5after?5program?5star@ 1007a1a4     canac2pcisetupx.obj
 0002:000081cc       ??_C@_0BL@JLDDBAKE@?5pcmcia?5chip?5not?5supported?$AA@ 1007a1cc     canac2pcisetupx.obj
 0002:000081ec       ??_C@_0CC@MLFENEO@?5error?5reading?5ocmcia?5parameters@ 1007a1ec     canac2pcisetupx.obj
 0002:00008214       ??_C@_0BL@LGEMKKDE@?5error?5initializing?5chip?5?5?$AA@ 1007a214     canac2pcisetupx.obj
 0002:00008234       ??_C@_0O@JGGAGPAH@return?5value?5?$AA@ 1007a234     canac2pcisetupx.obj
 0002:00008244       ??_C@_01EEMJAFIK@?6?$AA@   1007a244     canac2pcisetupx.obj
 0002:00008248       ??_C@_0CL@LLBFOOA@?9?9?$DOError?5in?5CANPC_start_chip_mbx@ 1007a248     canac2pcisetupx.obj
 0002:0000827c       ??_C@_0DE@GGIMIOBE@?9?9?$DOError?5in?5CANPC_enable_dyn_obj@ 1007a27c     canac2pcisetupx.obj
 0002:000082bc       ??_C@_0DG@JCBGLGDJ@?9?9?$DOError?5in?5CANPC_initialize_int@ 1007a2bc     canac2pcisetupx.obj
 0002:00008300       ??_C@_0EF@CKEKFKJF@?9?9?$DOError?5in?5CANPC_define_object_@ 1007a300     canac2pcisetupx.obj
 0002:00008354       ??_C@_0BL@LJLMJMND@indexing?5assumption?5failed?$AA@ 1007a354     canac2pcisetupx.obj
 0002:00008374       ??_C@_0DP@KBMGJHFI@?9?9?$DOError?5in?5CANPC_define_object_@ 1007a374     canac2pcisetupx.obj
 0002:000083c0       ??_C@_0DN@MLCNOCPB@?9?9?$DOError?5in?5CANPC_define_object2@ 1007a3c0     canac2pcisetupx.obj
 0002:00008410       ??_C@_0EA@MEKOONNL@?9?9?$DOError?5in?5CANPC_define_object2@ 1007a410     canac2pcisetupx.obj
 0002:0000845c       ??_C@_0CN@FHALBPDL@?9?9?$DOError?5in?5CANPC_reset_chip_mbx@ 1007a45c     canac2pcisetupx.obj
 0002:00008494       ??_C@_0CP@JPNCEBFF@?9?9?$DOError?5in?5CANPC_init_signals_m@ 1007a494     canac2pcisetupx.obj
 0002:000084cc       ??_C@_0DA@CNNNEDOA@?9?9?$DOError?5in?5CANPC_read_signals1_@ 1007a4cc     canac2pcisetupx.obj
 0002:00008508       ??_C@_0DA@MHFLJOIC@?9?9?$DOError?5in?5CANPC_read_signals2_@ 1007a508     canac2pcisetupx.obj
 0002:00008544       ??_C@_0DB@EGCEMPCG@?9?9?$DOError?5in?5CANPC_write_signals1@ 1007a544     canac2pcisetupx.obj
 0002:00008580       ??_C@_0DB@FBLNJFFM@?5?5?5?5?5?5?5?5CAN?51?3?5Physical?5bus?5chan@ 1007a580     canac2pcisetupx.obj
 0002:000085bc       ??_C@_0CM@BFGEKPCM@?5?5?5?5?5?5?5?5CAN?51?3?5Lowspeed?5module?5n@ 1007a5bc     canac2pcisetupx.obj
 0002:000085f0       ??_C@_0DB@KMKCBCEE@?9?9?$DOError?5in?5CANPC_write_signals2@ 1007a5f0     canac2pcisetupx.obj
 0002:0000862c       ??_C@_0DB@LNMKKDM@?5?5?5?5?5?5?5?5CAN?52?3?5Physical?5bus?5chan@ 1007a62c     canac2pcisetupx.obj
 0002:00008668       ??_C@_0CM@NMHLKHJD@?5?5?5?5?5?5?5?5CAN?52?3?5Lowspeed?5module?5n@ 1007a668     canac2pcisetupx.obj
 0002:0000869c       ??_C@_0DC@FADAOIKF@?9?9?$DOError?5in?5CANPC_initialize_chi@ 1007a69c     canac2pcisetupx.obj
 0002:000086d8       ??_C@_0DD@COBNGEFP@?9?9?$DOError?5in?5CANPC_initialize_chi@ 1007a6d8     canac2pcisetupx.obj
 0002:00008718       ??_C@_0DB@EKIEPFNP@?9?9?$DOError?5in?5CANPC_set_acceptance@ 1007a718     canac2pcisetupx.obj
 0002:00008754       ??_C@_0DC@JONHEIGA@?9?9?$DOError?5in?5CANPC_set_acceptance@ 1007a754     canac2pcisetupx.obj
 0002:00008790       ??_C@_0CL@DEKLAPHL@?9?9?$DOError?5in?5CANPC_set_mode_mbx?0?5@ 1007a790     canac2pcisetupx.obj
 0002:000087c4       ??_C@_0CM@EPBCAAGL@?9?9?$DOError?5in?5CANPC_set_mode2_mbx?0@ 1007a7c4     canac2pcisetupx.obj
 0002:000087f8       ??_C@_0DF@HHJLLCJD@?9?9?$DOError?5in?5CANPC_set_output_con@ 1007a7f8     canac2pcisetupx.obj
 0002:00008838       ??_C@_0DG@OBIAFKJM@?9?9?$DOError?5in?5CANPC_set_output_con@ 1007a838     canac2pcisetupx.obj
 0002:00008878       ??_C@_0ED@LKHIFFLC@Wrong?5number?5of?5input?5arguments?5@ 1007a878     canac2pcisetupx.obj
 0002:000088c8       ??_C@_0BE@EGCKDKDM@init?5ret?5code?50x?$CFx?6?$AA@ 1007a8c8     canac2pcisetupx.obj
 0002:000088e0       ??_C@_0CM@DJALBMJK@CAN?9AC2?9PCI?5Board?5?$CFd?3?5Initializa@ 1007a8e0     canac2pcisetupx.obj
 0002:00008914       ??_C@_0DG@IKMIDPHG@?5?5?5?5?5?5?5?5downloading?5CAN?9AC2?9PCI?5@ 1007a914     canac2pcisetupx.obj
 0002:00008954       ??_C@_0CE@MOOIFDOM@?9?9?$DOError?5in?5CANPC_reset_board_mb@ 1007a954     canac2pcisetupx.obj
 0002:00008980       ??_C@_0DD@EAPAOCNE@?5?5?5?5?5?5?5?5downloading?5CAN?9AC2?9PCI?5@ 1007a980     canac2pcisetupx.obj
 0002:000089c0       ??_C@_0CF@IJHBPDBG@?9?9?$DOInitialize_can_parameter?5fail@ 1007a9c0     canac2pcisetupx.obj
 0002:000089ec       ??_C@_0CA@PAJEMEGP@?9?9?$DOInitialize_DOB_mode?5failed?5?6?$AA@ 1007a9ec     canac2pcisetupx.obj
 0002:00008a14       ??_C@_0BH@DGCALJLI@?9?9?$DOStart_chip?5failed?5?6?$AA@ 1007aa14     canac2pcisetupx.obj
 0002:00008a30       ??_C@_0CK@CFMOHDPD@ERROR?3?5?5CANPC_write_object_mbx?5C@ 1007aa30     canac2pcisetupx.obj
 0002:00008a64       ??_C@_0CK@BECGGJGO@ERROR?3?5?5CANPC_write_object_mbx?5C@ 1007aa64     canac2pcisetupx.obj
 0002:00008a98       ??_C@_0O@KDNHLNEN@canac2_sem_?$CFd?$AA@ 1007aa98     canac2pcisetupx.obj
 0002:00008aa8       ??_C@_0CP@OANLNPFC@?9?9?$DOError?5in?5CANPC_reinitialize_m@ 1007aaa8     canac2pcisetupx.obj
 0002:00008ae0       __real@4008000000000000    1007aae0     canac2pcisetupx.obj
 0002:00008aec       ??_C@_0O@CHBECCKN@?2LOADCARD?4INI?$AA@ 1007aaec     xpccanac2pci_vc:card_can_mbx.obj
 0002:00008afc       ??_C@_02CEGDFPFP@?4?2?$AA@ 1007aafc     xpccanac2pci_vc:card_can_mbx.obj
 0002:00008b00       __real@408f400000000000    1007ab00     xpccanac2pci_vc:card_can_mbx.obj
 0002:00008b10       __real@4132342800000000    1007ab10     xpccanac2pci_vc:card_can_mbx.obj
 0002:00008b1c       ??_C@_07JJGBLIAE@PCI?2VEN?$AA@ 1007ab1c     xpccanac2pci_vc:devacc32_mbx.obj
 0002:00008b28       ??_C@_0CC@KFAPHHGD@SOFTING?5GmbH?5CAN?9AC?5PCI?5Interfac@ 1007ab28     xpccanac2pci_vc:devacc32_mbx.obj
 0002:00008b50       ??_C@_0M@EKFABCAE@LDBOARD?4INI?$AA@ 1007ab50     xpccanac2pci_vc:devacc32_mbx.obj
 0002:00008b60       ??_C@_0M@BCALDNPE@BOOT_CP?4SBN?$AA@ 1007ab60     xpccanac2pci_vc:devacc32_mbx.obj
 0002:00008b70       ??_C@_0M@DDKPMKFM@LDBOARD?4SBN?$AA@ 1007ab70     xpccanac2pci_vc:devacc32_mbx.obj
 0002:00008b80       ??_C@_0L@OMFEIHM@CANPCI?4SBN?$AA@ 1007ab80     xpccanac2pci_vc:devacc32_mbx.obj
 0002:00008b90       ??_C@_08DCGOAHCE@VCANPCID?$AA@ 1007ab90     xpccanac2pci_vc:devacc32_mbx.obj
 0002:00008b9c       ??_C@_0M@IANJNLEG@enable?5IRQ?6?$AA@ 1007ab9c     xpccanac2pci_vc:devacc32_mbx.obj
 0002:00008bb0       ??_C@_0EK@HKKPIPEA@?6ERROR?5in?5a?5CAN?9AC2?9PCI?5driver?3?5@ 1007abb0     xpccanac2pci_vc:devacc32_mbx.obj
 0002:00008c08       ??_C@_0FF@COKCEECK@?6ERROR?5in?5?5CAN?9AC2?9PCI?5driver?3?5C@ 1007ac08     xpccanac2pci_vc:devacc32_mbx.obj
 0002:00008c70       ??_C@_07KAJBENLI@Error?3?5?$AA@ 1007ac70     xpccanac2pci_vc:loadcard_mbx.obj
 0002:00008c7c       ??_C@_09CKCJCCOK@Warning?3?5?$AA@ 1007ac7c     xpccanac2pci_vc:loadcard_mbx.obj
 0002:00008c88       ??_C@_0CH@GIHNHFPH@Structured?5Binary?5Format?0?5Softin@ 1007ac88     xpccanac2pci_vc:loadcard_mbx.obj
 0002:00008cb8       ??_C@_0CK@OALHOBHI@?$CFscard?5DPRAM?5cannot?5be?5accessed?5@ 1007acb8     xpccanac2pci_vc:loadcard_mbx.obj
 0002:00008cec       ??_C@_0BL@DNJKJNDF@?$CFscan?8t?5open?5BootFile?5?8?$CFs?8?$AA@ 1007acec     xpccanac2pci_vc:loadcard_mbx.obj
 0002:00008d0c       ??_C@_0BL@FEBBJGBM@?$CFscan?8t?5read?5BootFile?5?8?$CFs?8?$AA@ 1007ad0c     xpccanac2pci_vc:loadcard_mbx.obj
 0002:00008d2c       ??_C@_0CH@LHLLKLCM@?$CFsBootFile?5size?5exceeds?5DPRAM?5si@ 1007ad2c     xpccanac2pci_vc:loadcard_mbx.obj
 0002:00008d5c       ??_C@_0DA@JPMOGDAF@?$CFsBootFile?5?8?$CFs?8?5has?5no?5Structure@ 1007ad5c     xpccanac2pci_vc:loadcard_mbx.obj
 0002:00008d98       ??_C@_0CC@IGEBFOHK@?$CFswrong?5checksum?5in?5BootFile?5?8?$CFs@ 1007ad98     xpccanac2pci_vc:loadcard_mbx.obj
 0002:00008dc0       ??_C@_0BL@LBMGNPGA@?$CFscan?8t?5open?5LoadFile?5?8?$CFs?8?$AA@ 1007adc0     xpccanac2pci_vc:loadcard_mbx.obj
 0002:00008de0       ??_C@_0BL@NIENNEEJ@?$CFscan?8t?5read?5LoadFile?5?8?$CFs?8?$AA@ 1007ade0     xpccanac2pci_vc:loadcard_mbx.obj
 0002:00008e00       ??_C@_0CH@PMPLLKEH@?$CFsLoadFile?5size?5exceeds?5DPRAM?5si@ 1007ae00     xpccanac2pci_vc:loadcard_mbx.obj
 0002:00008e30       ??_C@_0DA@NAHNMCBP@?$CFsLoadFile?5?8?$CFs?8?5has?5no?5Structure@ 1007ae30     xpccanac2pci_vc:loadcard_mbx.obj
 0002:00008e6c       ??_C@_0CC@KBNBMCP@?$CFswrong?5checksum?5in?5LoadFile?5?8?$CFs@ 1007ae6c     xpccanac2pci_vc:loadcard_mbx.obj
 0002:00008e94       ??_C@_0CG@DEOKDKBE@?$CFsno?5response?5from?5card?5after?5bo@ 1007ae94     xpccanac2pci_vc:loadcard_mbx.obj
 0002:00008ec4       ??_C@_0CG@DDJEONLI@?$CFsno?5response?5from?5card?5while?5lo@ 1007aec4     xpccanac2pci_vc:loadcard_mbx.obj
 0002:00008ef4       ??_C@_0CN@MNKDHG@?$CFsbad?5response?5from?5card?5after?5b@ 1007aef4     xpccanac2pci_vc:loadcard_mbx.obj
 0002:00008f2c       ??_C@_0CH@PJFOINGG@?$CFsbad?5response?5from?5card?5while?5l@ 1007af2c     xpccanac2pci_vc:loadcard_mbx.obj
 0002:00008f5c       ??_C@_0CA@NFABAKKG@?$CFscard?5SRAM?5seems?5to?5be?5damaged?$AA@ 1007af5c     xpccanac2pci_vc:loadcard_mbx.obj
 0002:00008f84       ??_C@_0CM@OKEHKJEF@?$CFsno?5response?5from?5card?5after?5pr@ 1007af84     xpccanac2pci_vc:loadcard_mbx.obj
 0002:00008fb8       ??_C@_0CN@NOIJLOKD@?$CFsbad?5response?5from?5card?5after?5p@ 1007afb8     xpccanac2pci_vc:loadcard_mbx.obj
 0002:00008ff0       ??_C@_0BB@NFIGKIIA@card?5not?5booted?6?$AA@ 1007aff0     xpccanac2pci_vc:loadcard_mbx.obj
 0002:00009008       __real@3e112e0be826d695    1007b008     xpcruntime:xpcPCFunctions.obj
 0002:00009018       __real@3f538bcdfefbf402    1007b018     xpcruntime:xpcPCFunctions.obj
 0002:00009028       __real@40112e0be826d695    1007b028     xpcruntime:xpcPCFunctions.obj
 0002:00009034       ??_C@_0CC@DMFKNLL@VendorId?5?$DN?50x?$CFx?0?5DeviceId?5?$DN?50x?$CFx@ 1007b034     xpcruntime:xpcimports.obj
 0002:0000905c       ??_C@_0DH@OHCBLNMG@Subsystem?5Device?5ID?5?$DN?50x?$CFx?6Subsy@ 1007b05c     xpcruntime:xpcimports.obj
 0002:000090a0       ??_C@_0BD@MMMMEFCM@Class?5Code?5?$DN?50x?$CFx?6?$AA@ 1007b0a0     xpcruntime:xpcimports.obj
 0002:000090b8       ??_C@_0BE@OLDDDNHM@InterruptLine?5?$DN?5?$CFd?6?$AA@ 1007b0b8     xpcruntime:xpcimports.obj
 0002:000090d0       ??_C@_0BF@OLKLEKBD@bus?5?$DN?5?$CFd?0?5slot?5?$DN?5?$CFd?6?$AA@ 1007b0d0     xpcruntime:xpcimports.obj
 0002:000090ec       ??_C@_0CE@DGLLGDFH@?5?5?5?5Phys?5?5?5Virtual?5?5?5Length?5IO?1M@ 1007b0ec     xpcruntime:xpcimports.obj
 0002:00009118       ??_C@_0BI@FEOPLEMG@?$CF08x?5?$CF08x?5?$CF08x?5?5?5?5?5?5?$CFc?6?$AA@ 1007b118     xpcruntime:xpcimports.obj
 0002:00009134       ??_C@_0BB@BNNCEDPC@rl32eScopeExists?$AA@ 1007b134     xpcruntime:xpcimports.obj
 0002:00009148       ??_C@_0BM@FJBFEGFG@rl32eScopeExists?5not?5found?6?$AA@ 1007b148     xpcruntime:xpcimports.obj
 0002:0000916c       ??_C@_0O@BNNGKJEA@rl32eDefScope?$AA@ 1007b16c     xpcruntime:xpcimports.obj
 0002:0000917c       ??_C@_0BJ@CDNOENKA@rl32eDefScope?5not?5found?6?$AA@ 1007b17c     xpcruntime:xpcimports.obj
 0002:0000919c       ??_C@_0P@CKNKILDP@rl32eAddSignal?$AA@ 1007b19c     xpcruntime:xpcimports.obj
 0002:000091b0       ??_C@_0BK@GMJAJBAI@rl32eAddSignal?5not?5found?6?$AA@ 1007b1b0     xpcruntime:xpcimports.obj
 0002:000091d0       ??_C@_0BB@LDMIHGCE@rl32eGetSignalNo?$AA@ 1007b1d0     xpcruntime:xpcimports.obj
 0002:000091e4       ??_C@_0BM@LGAMBAID@rl32eGetSignalNo?5not?5found?6?$AA@ 1007b1e4     xpcruntime:xpcimports.obj
 0002:00009208       ??_C@_0O@CFDGALBP@rl32eSetScope?$AA@ 1007b208     xpcruntime:xpcimports.obj
 0002:00009218       ??_C@_0BJ@JCLHHIN@rl32eSetScope?5not?5found?6?$AA@ 1007b218     xpcruntime:xpcimports.obj
 0002:00009238       ??_C@_0P@IKMCBMHH@xpceFSScopeSet?$AA@ 1007b238     xpcruntime:xpcimports.obj
 0002:0000924c       ??_C@_0BK@JODJPNNH@xpceFSScopeSet?5not?5found?6?$AA@ 1007b24c     xpcruntime:xpcimports.obj
 0002:0000926c       ??_C@_0BE@DLACEEJM@rl32eSetTargetScope?$AA@ 1007b26c     xpcruntime:xpcimports.obj
 0002:00009284       ??_C@_0BP@JCHFMKPJ@rl32eSetTargetScope?5not?5found?6?$AA@ 1007b284     xpcruntime:xpcimports.obj
 0002:000092ac       ??_C@_0BJ@LIDLNDHC@rl32eSetTargetScopeSigFt?$AA@ 1007b2ac     xpcruntime:xpcimports.obj
 0002:000092cc       ??_C@_0CE@JLGHCFHI@rl32eSetTargetScopeSigFt?5not?5fou@ 1007b2cc     xpcruntime:xpcimports.obj
 0002:000092f8       ??_C@_0BI@JAPOIDNG@rl32eRestartAcquisition?$AA@ 1007b2f8     xpcruntime:xpcimports.obj
 0002:00009314       ??_C@_0CD@LLBEFFBO@rl32eRestartAcquisition?5not?5foun@ 1007b314     xpcruntime:xpcimports.obj
 0002:00009340       ??_C@_0P@IEIIADJB@xpceScopeAcqOK?$AA@ 1007b340     xpcruntime:xpcimports.obj
 0002:00009354       ??_C@_0BK@NJCKNFPN@xpceScopeAcqOK?5not?5found?6?$AA@ 1007b354     xpcruntime:xpcimports.obj
 0002:00009374       ??_C@_0BA@IJINKAHF@xpceRegisterISR?$AA@ 1007b374     xpcruntime:xpcimports.obj
 0002:00009388       ??_C@_0BL@NNDLOEJE@xpceRegisterISR?5not?5found?6?$AA@ 1007b388     xpcruntime:xpcimports.obj
 0002:000093a8       ??_C@_0BC@NLBADGKF@xpceDeRegisterISR?$AA@ 1007b3a8     xpcruntime:xpcimports.obj
 0002:000093c0       ??_C@_0BN@DCAIKFFD@xpceDeRegisterISR?5not?5found?6?$AA@ 1007b3c0     xpcruntime:xpcimports.obj
 0002:000093e4       ??_C@_07JPMEPILD@xpcInpB?$AA@ 1007b3e4     xpcruntime:xpcimports.obj
 0002:000093f0       ??_C@_0BD@PGABEJOL@xpcInpB?5not?5found?6?$AA@ 1007b3f0     xpcruntime:xpcimports.obj
 0002:00009408       ??_C@_07KIHBBOKH@xpcInpW?$AA@ 1007b408     xpcruntime:xpcimports.obj
 0002:00009414       ??_C@_0BD@FPCJFMCC@xpcInpW?5not?5found?6?$AA@ 1007b414     xpcruntime:xpcimports.obj
 0002:0000942c       ??_C@_08KDIAJBOP@xpcInpDW?$AA@ 1007b42c     xpcruntime:xpcimports.obj
 0002:00009438       ??_C@_0BE@PIELDNIL@xpcInpDW?5not?5found?6?$AA@ 1007b438     xpcruntime:xpcimports.obj
 0002:00009450       ??_C@_08PJFMOIGO@xpcOutpB?$AA@ 1007b450     xpcruntime:xpcimports.obj
 0002:0000945c       ??_C@_0BE@HCKNCEKF@xpcOutpB?5not?5found?6?$AA@ 1007b45c     xpcruntime:xpcimports.obj
 0002:00009474       ??_C@_08MOOJAOHK@xpcOutpW?$AA@ 1007b474     xpcruntime:xpcimports.obj
 0002:00009480       ??_C@_0BE@NLIFDBGM@xpcOutpW?5not?5found?6?$AA@ 1007b480     xpcruntime:xpcimports.obj
 0002:00009498       ??_C@_09FLIEKHJG@xpcOutpDW?$AA@ 1007b498     xpcruntime:xpcimports.obj
 0002:000094a4       ??_C@_0BF@GJKLPNHB@xpcOutpDW?5not?5found?6?$AA@ 1007b4a4     xpcruntime:xpcimports.obj
 0002:000094c0       ??_C@_0BH@EHOLELHH@xpcReserveMemoryRegion?$AA@ 1007b4c0     xpcruntime:xpcimports.obj
 0002:000094dc       ??_C@_0CC@KAAAGPI@xpcReserveMemoryRegion?5not?5found@ 1007b4dc     xpcruntime:xpcimports.obj
 0002:00009504       ??_C@_0BA@JGPMHGAF@rl32eShowPCIDev?$AA@ 1007b504     xpcruntime:xpcimports.obj
 0002:00009518       ??_C@_0BL@DDFFLNHI@rl32eShowPCIDev?5not?5found?6?$AA@ 1007b518     xpcruntime:xpcimports.obj
 0002:00009538       ??_C@_0BB@KBCOJPFB@rl32eShowPCIInfo?$AA@ 1007b538     xpcruntime:xpcimports.obj
 0002:0000954c       ??_C@_0BM@IFDMAGLO@rl32eShowPCIInfo?5not?5found?6?$AA@ 1007b54c     xpcruntime:xpcimports.obj
 0002:00009570       ??_C@_0BA@BGPAADB@rl32eGetPCIInfo?$AA@ 1007b570     xpcruntime:xpcimports.obj
 0002:00009584       ??_C@_0BL@IGOMLDCK@rl32eGetPCIInfo?5not?5found?6?$AA@ 1007b584     xpcruntime:xpcimports.obj
 0002:000095a4       ??_C@_0BG@NJPFKFDP@rl32eGetPCIInfoAtSlot?$AA@ 1007b5a4     xpcruntime:xpcimports.obj
 0002:000095c0       ??_C@_0CB@BBKIPMLA@rl32eGetPCIInfoAtSlot?5not?5found?6@ 1007b5c0     xpcruntime:xpcimports.obj
 0002:000095e8       ??_C@_0BH@OKBOPNFG@xpceAssignPCIInterrupt?$AA@ 1007b5e8     xpcruntime:xpcimports.obj
 0002:00009604       ??_C@_0CC@CDNDNJBJ@xpceAssignPCIInterrupt?5not?5found@ 1007b604     xpcruntime:xpcimports.obj
 0002:0000962c       ??_C@_0BD@PCKOKHO@xpceGetSignalValue?$AA@ 1007b62c     xpcruntime:xpcimports.obj
 0002:00009644       ??_C@_0BO@GCBDJHMB@xpceGetSignalValue?5not?5found?6?$AA@ 1007b644     xpcruntime:xpcimports.obj
 0002:00009668       ??_C@_0BB@BJONJAGA@xpceSetParameter?$AA@ 1007b668     xpcruntime:xpcimports.obj
 0002:0000967c       ??_C@_0BM@BJIKDLHA@xpceSetParameter?5not?5found?6?$AA@ 1007b67c     xpcruntime:xpcimports.obj
 0002:000096a0       ??_C@_0BB@GNFDFMCM@xpceGetParameter?$AA@ 1007b6a0     xpcruntime:xpcimports.obj
 0002:000096b4       ??_C@_0BM@POHNKBC@xpceGetParameter?5not?5found?6?$AA@ 1007b6b4     xpcruntime:xpcimports.obj
 0002:000096d8       ??_C@_0BB@CEIJLFCD@xpceGetParamDims?$AA@ 1007b6d8     xpcruntime:xpcimports.obj
 0002:000096ec       ??_C@_0BM@OABDBKAO@xpceGetParamDims?5not?5found?6?$AA@ 1007b6ec     xpcruntime:xpcimports.obj
 0002:00009710       ??_C@_0L@OCBLLHBM@xpceGetTET?$AA@ 1007b710     xpcruntime:xpcimports.obj
 0002:00009720       ??_C@_0BG@HNOFBOB@xpceGetTET?5not?5found?6?$AA@ 1007b720     xpcruntime:xpcimports.obj
 0002:0000973c       ??_C@_0P@OKGNGAGH@xpcIsModelInit?$AA@ 1007b73c     xpcruntime:xpcimports.obj
 0002:00009750       ??_C@_0BK@DHEMLBIM@xpcIsModelInit?5not?5found?6?$AA@ 1007b750     xpcruntime:xpcimports.obj
 0002:00009770       ??_C@_0BH@KJJLCAOJ@xpcAllocPhysicalMemory?$AA@ 1007b770     xpcruntime:xpcimports.obj
 0002:0000978c       ??_C@_0CC@MOJPNHKL@xpcAllocPhysicalMemory?5not?5found@ 1007b78c     xpcruntime:xpcimports.obj
 0002:000097b4       ??_C@_0BG@CBNPGAEL@xpcFreePhysicalMemory?$AA@ 1007b7b4     xpcruntime:xpcimports.obj
 0002:000097d0       ??_C@_0CB@PKJEBPOG@xpcFreePhysicalMemory?5not?5found?6@ 1007b7d0     xpcruntime:xpcimports.obj
 0002:000097f8       ??_C@_0BC@JGKNLICL@xpcGetElapsedTime?$AA@ 1007b7f8     xpcruntime:xpcimports.obj
 0002:00009810       ??_C@_0BN@OEOAHCIO@xpcGetElapsedTime?5not?5found?6?$AA@ 1007b810     xpcruntime:xpcimports.obj
 0002:00009834       ??_C@_0M@ICBLMODA@xpcBusyWait?$AA@ 1007b834     xpcruntime:xpcimports.obj
 0002:00009844       ??_C@_0BH@FBOPECBI@xpcBusyWait?5not?5found?6?$AA@ 1007b844     xpcruntime:xpcimports.obj
 0002:00009860       ??_C@_0N@LKKJEKKA@TBCreateSpin?$AA@ 1007b860     xpcruntime:xpcimports.obj
 0002:00009870       ??_C@_0BI@FHKMLKOE@TBCreateSpin?5not?5found?6?$AA@ 1007b870     xpcruntime:xpcimports.obj
 0002:0000988c       ??_C@_0N@HOAJHNBD@TBDeleteSpin?$AA@ 1007b88c     xpcruntime:xpcimports.obj
 0002:0000989c       ??_C@_0BI@BKCPAAG@TBDeleteSpin?5not?5found?6?$AA@ 1007b89c     xpcruntime:xpcimports.obj
 0002:000098b8       ??_C@_0P@DAHDDBJG@TBTakeSpinFast?$AA@ 1007b8b8     xpcruntime:xpcimports.obj
 0002:000098cc       ??_C@_0BK@NKAIBHGB@TBTakeSpinFast?5not?5found?6?$AA@ 1007b8cc     xpcruntime:xpcimports.obj
 0002:000098ec       ??_C@_0P@FKNAAELA@TBGiveSpinFast?$AA@ 1007b8ec     xpcruntime:xpcimports.obj
 0002:00009900       ??_C@_0BK@KGPJBJND@TBGiveSpinFast?5not?5found?6?$AA@ 1007b900     xpcruntime:xpcimports.obj
 0002:00009920       ??_C@_0BE@IIGBFDHK@xpceCreateSemaphore?$AA@ 1007b920     xpcruntime:xpcimports.obj
 0002:00009938       ??_C@_0BP@KFBAFFKJ@xpceCreateSemaphore?5not?5found?6?$AA@ 1007b938     xpcruntime:xpcimports.obj
 0002:00009960       ??_C@_0BC@IFNIONKJ@xpceWaitSemaphore?$AA@ 1007b960     xpcruntime:xpcimports.obj
 0002:00009978       ??_C@_0BN@NMFAADIO@xpceWaitSemaphore?5not?5found?6?$AA@ 1007b978     xpcruntime:xpcimports.obj
 0002:0000999c       ??_C@_0BE@NNDIOBKE@xpceSignalSemaphore?$AA@ 1007b99c     xpcruntime:xpcimports.obj
 0002:000099b4       ??_C@_0BP@LBANMHJP@xpceSignalSemaphore?5not?5found?6?$AA@ 1007b9b4     xpcruntime:xpcimports.obj
 0002:000099dc       ??_C@_0BE@MEBEKOIM@xpceDeleteSemaphore?$AA@ 1007b9dc     xpcruntime:xpcimports.obj
 0002:000099f4       ??_C@_0BP@OFNCKOJH@xpceDeleteSemaphore?5not?5found?6?$AA@ 1007b9f4     xpcruntime:xpcimports.obj
 0002:00009a1c       ??_C@_0BD@MFNDMBOF@FindUsbVideoDevice?$AA@ 1007ba1c     xpcruntime:xpcimports.obj
 0002:00009a34       ??_C@_0BO@POKLDHMI@FindUsbVideoDevice?5not?5found?6?$AA@ 1007ba34     xpcruntime:xpcimports.obj
 0002:00009a58       ??_C@_0BA@PLPAPNAB@GetVideoConfigs?$AA@ 1007ba58     xpcruntime:xpcimports.obj
 0002:00009a6c       ??_C@_0BL@DALDHKHC@GetVideoConfigs?5not?5found?6?$AA@ 1007ba6c     xpcruntime:xpcimports.obj
 0002:00009a8c       ??_C@_0L@GBAEMHMH@StartVideo?$AA@ 1007ba8c     xpcruntime:xpcimports.obj
 0002:00009a9c       ??_C@_0BG@HDCELEBP@StartVideo?5not?5found?6?$AA@ 1007ba9c     xpcruntime:xpcimports.obj
 0002:00009ab8       ??_C@_0BA@FDNPOCLN@ReadFrameBuffer?$AA@ 1007bab8     xpcruntime:xpcimports.obj
 0002:00009acc       ??_C@_0BL@JHGHPNBI@ReadFrameBuffer?5not?5found?6?$AA@ 1007bacc     xpcruntime:xpcimports.obj
 0002:00009aec       ??_C@_09FAHCLKAG@StopVideo?$AA@ 1007baec     xpcruntime:xpcimports.obj
 0002:00009af8       ??_C@_0BF@NKGKKADL@StopVideo?5not?5found?6?$AA@ 1007baf8     xpcruntime:xpcimports.obj
 0002:00009b14       ??_C@_0O@MCPKDLLL@ConvertUImage?$AA@ 1007bb14     xpcruntime:xpcimports.obj
 0002:00009b24       ??_C@_0BJ@PHJKOAFL@ConvertUImage?5not?5found?6?$AA@ 1007bb24     xpcruntime:xpcimports.obj
 0002:00009b44       ??_C@_0BD@NKCBPBJJ@CreateVideoDisplay?$AA@ 1007bb44     xpcruntime:xpcimports.obj
 0002:00009b5c       ??_C@_0BO@HPPLLNFP@CreateVideoDisplay?5not?5found?6?$AA@ 1007bb5c     xpcruntime:xpcimports.obj
 0002:00009b80       ??_C@_0BE@KJCKGPHA@DestroyVideoDisplay?$AA@ 1007bb80     xpcruntime:xpcimports.obj
 0002:00009b98       ??_C@_0BP@FMGLJAIJ@DestroyVideoDisplay?5not?5found?6?$AA@ 1007bb98     xpcruntime:xpcimports.obj
 0002:00009bc0       ??_C@_0BC@HCMIMIDN@StartVideoDisplay?$AA@ 1007bbc0     xpcruntime:xpcimports.obj
 0002:00009bd8       ??_C@_0BN@EFIEBGOO@StartVideoDisplay?5not?5found?6?$AA@ 1007bbd8     xpcruntime:xpcimports.obj
 0002:00009bfc       ??_C@_0BB@JBBLMILG@StopVideoDisplay?$AA@ 1007bbfc     xpcruntime:xpcimports.obj
 0002:00009c10       ??_C@_0BM@DBJBPLEL@StopVideoDisplay?5not?5found?6?$AA@ 1007bc10     xpcruntime:xpcimports.obj
 0002:00009c34       ??_C@_0M@MFJEGMHC@StreamVideo?$AA@ 1007bc34     xpcruntime:xpcimports.obj
 0002:00009c44       ??_C@_0BH@OINCDMLA@StreamVideo?5not?5found?6?$AA@ 1007bc44     xpcruntime:xpcimports.obj
 0002:00009c60       ??_C@_0N@IGGLCIGE@xpceaddEvent?$AA@ 1007bc60     xpcruntime:xpcimports.obj
 0002:00009c70       ??_C@_0BI@NHJNFMKH@xpceaddEvent?5not?5found?6?$AA@ 1007bc70     xpcruntime:xpcimports.obj
 0002:00009c8c       ??_C@_0BB@LCMHHHFN@getMemoryService?$AA@ 1007bc8c     xpcruntime:xpcimports.obj
 0002:00009ca0       ??_C@_0BM@MPLCNIIE@getMemoryService?5not?5found?6?$AA@ 1007bca0     xpcruntime:xpcimports.obj
 0002:00009cc4       ??_C@_0P@KIKONDKK@getCommService?$AA@ 1007bcc4     xpcruntime:xpcimports.obj
 0002:00009cd8       ??_C@_0BK@NCECBKNM@getCommService?5not?5found?6?$AA@ 1007bcd8     xpcruntime:xpcimports.obj
 0002:00009cf8       ??_C@_0P@GDLHFECE@getStatusFlags?$AA@ 1007bcf8     xpcruntime:xpcimports.obj
 0002:00009d0c       ??_C@_0BK@NEKDLJHG@getStatusFlags?5not?5found?6?$AA@ 1007bd0c     xpcruntime:xpcimports.obj
 0002:00009d2c       ??_C@_0BL@CDFCLKOL@startToAsyncQueueTgtAppSvc?$AA@ 1007bd2c     xpcruntime:xpcimports.obj
 0002:00009d4c       ??_C@_0CG@JGOFFKEL@startToAsyncQueueTgtAppSvc?5not?5f@ 1007bd4c     xpcruntime:xpcimports.obj
 0002:00009d7c       ??_C@_0BP@IJNGPPPE@terminateToAsyncQueueTgtAppSvc?$AA@ 1007bd7c     xpcruntime:xpcimports.obj
 0002:00009da4       ??_C@_0CK@NDEMAMKF@terminateToAsyncQueueTgtAppSvc?5n@ 1007bda4     xpcruntime:xpcimports.obj
 0002:00009dd8       ??_C@_0BK@IDACEHAO@sendToAsyncQueueTgtAppSvc?$AA@ 1007bdd8     xpcruntime:xpcimports.obj
 0002:00009df8       ??_C@_0CF@PNCKPEHN@sendToAsyncQueueTgtAppSvc?5not?5fo@ 1007bdf8     xpcruntime:xpcimports.obj
 0002:00009e24       ??_C@_0BN@HJOHIFOM@xpceGetIntTimerGranularityNS?$AA@ 1007be24     xpcruntime:xpcimports.obj
 0002:00009e48       ??_C@_0CI@OADDPMKB@xpceGetIntTimerGranularityNS?5not@ 1007be48     xpcruntime:xpcimports.obj
 0002:00009e78       ??_C@_0BG@CCHICKPN@slrteSetStepSizeDelta?$AA@ 1007be78     xpcruntime:xpcimports.obj
 0002:00009e94       ??_C@_0CB@MKHINEIJ@slrteSetStepSizeDelta?5not?5found?6@ 1007be94     xpcruntime:xpcimports.obj
 0002:00009ebc       ??_C@_0BI@CLNBLDKJ@slrteGetCurrentStepSize?$AA@ 1007bebc     xpcruntime:xpcimports.obj
 0002:00009ed8       ??_C@_0CD@GIOJPGJA@slrteGetCurrentStepSize?5not?5foun@ 1007bed8     xpcruntime:xpcimports.obj
 0002:00009f04       ??_C@_0BE@FCLCBOC@registerPTPTimeRead?$AA@ 1007bf04     xpcruntime:xpcimports.obj
 0002:00009f1c       ??_C@_0BP@LHPKAJIP@registerPTPTimeRead?5not?5found?6?$AA@ 1007bf1c     xpcruntime:xpcimports.obj
 0002:00009f44       ??_C@_0BG@KIGCDDJI@unRegisterPTPTimeRead?$AA@ 1007bf44     xpcruntime:xpcimports.obj
 0002:00009f60       ??_C@_0CB@MLFFBFCM@unRegisterPTPTimeRead?5not?5found?6@ 1007bf60     xpcruntime:xpcimports.obj
 0002:00009f88       ??_C@_0BB@IPMDDBHK@slTestInitialize?$AA@ 1007bf88     xpcruntime:xpcimports.obj
 0002:00009f9c       ??_C@_0BM@LAJFCCJH@slTestInitialize?5not?5found?6?$AA@ 1007bf9c     xpcruntime:xpcimports.obj
 0002:00009fc0       ??_C@_0BF@OOMPMEBC@slTestLogAssessments?$AA@ 1007bfc0     xpcruntime:xpcimports.obj
 0002:00009fdc       ??_C@_0CA@FGJCEBAG@slTestLogAssessments?5not?5found?6?$AA@ 1007bfdc     xpcruntime:xpcimports.obj
 0002:0000a004       ??_C@_0BB@HJHKONHO@slTestEvalOnFail?$AA@ 1007c004     xpcruntime:xpcimports.obj
 0002:0000a018       ??_C@_0BM@JIKCFFNJ@slTestEvalOnFail?5not?5found?6?$AA@ 1007c018     xpcruntime:xpcimports.obj
 0002:0000a03c       ??_C@_0BA@LBHLABFP@slTestTerminate?$AA@ 1007c03c     xpcruntime:xpcimports.obj
 0002:0000a050       ??_C@_0BL@EMFGKAPA@slTestTerminate?5not?5found?6?$AA@ 1007c050     xpcruntime:xpcimports.obj
 0002:0000a070       ??_C@_0BE@JPNPBBEO@slTestRegAssessment?$AA@ 1007c070     xpcruntime:xpcimports.obj
 0002:0000a088       ??_C@_0BP@FBDEJJJH@slTestRegAssessment?5not?5found?6?$AA@ 1007c088     xpcruntime:xpcimports.obj
 0002:0000a0b0       ??_C@_0O@NCLGDNIB@slrteSetupMSI?$AA@ 1007c0b0     xpcruntime:xpcimports.obj
 0002:0000a0c0       ??_C@_0BJ@HEFMECLM@slrteSetupMSI?5not?5found?6?$AA@ 1007c0c0     xpcruntime:xpcimports.obj
 0002:0000a0e0       ??_C@_0BH@BPOLALHD@slrtGetCRBScratchSpace?$AA@ 1007c0e0     xpcruntime:xpcimports.obj
 0002:0000a0fc       ??_C@_0CC@KCKAJKKJ@slrtGetCRBScratchSpace?5not?5found@ 1007c0fc     xpcruntime:xpcimports.obj
 0002:0000a124       ??_C@_0BC@MKFDAKOL@slrtGetSgCRBSpace?$AA@ 1007c124     xpcruntime:xpcimports.obj
 0002:0000a13c       ??_C@_0BN@JDPHPLHL@slrtGetSgCRBSpace?5not?5found?6?$AA@ 1007c13c     xpcruntime:xpcimports.obj
 0002:0000a160       ??_C@_0P@EPAPKLIF@slrtfsOpenFile?$AA@ 1007c160     xpcruntime:xpcimports.obj
 0002:0000a174       ??_C@_0BK@FIHCBOHG@slrtfsOpenFile?5not?5found?6?$AA@ 1007c174     xpcruntime:xpcimports.obj
 0002:0000a194       ??_C@_0BA@LILAFDDL@slrtfsCloseFile?$AA@ 1007c194     xpcruntime:xpcimports.obj
 0002:0000a1a8       ??_C@_0BL@DEGHJFIB@slrtfsCloseFile?5not?5found?6?$AA@ 1007c1a8     xpcruntime:xpcimports.obj
 0002:0000a1c8       ??_C@_0BC@OKMJDIEH@slrtfsWriteToFile?$AA@ 1007c1c8     xpcruntime:xpcimports.obj
 0002:0000a1e0       ??_C@_0BN@KCFLCLAH@slrtfsWriteToFile?5not?5found?6?$AA@ 1007c1e0     xpcruntime:xpcimports.obj
 0002:0000a204       ??_C@_0BK@GIPNFFFF@slrtfsGetFileErrorMessage?$AA@ 1007c204     xpcruntime:xpcimports.obj
 0002:0000a224       ??_C@_0CF@BCBLMKLE@slrtfsGetFileErrorMessage?5not?5fo@ 1007c224     xpcruntime:xpcimports.obj
 0002:0000a250       ??_C@_0BD@ICBOKMK@slrtfsGetFileError?$AA@ 1007c250     xpcruntime:xpcimports.obj
 0002:0000a268       ??_C@_0BO@FNBANAE@slrtfsGetFileError?5not?5found?6?$AA@ 1007c268     xpcruntime:xpcimports.obj
 0002:0000a28c       ??_C@_0BE@PPAJMHJP@slrtfsOpenFileAsync?$AA@ 1007c28c     xpcruntime:xpcimports.obj
 0002:0000a2a4       ??_C@_0BP@HKBMMJOK@slrtfsOpenFileAsync?5not?5found?6?$AA@ 1007c2a4     xpcruntime:xpcimports.obj
 0002:0000a2cc       ??_C@_0BF@IGNDIBPF@slrtfsCloseFileAsync?$AA@ 1007c2cc     xpcruntime:xpcimports.obj
 0002:0000a2e8       ??_C@_0CA@GJPFDBKN@slrtfsCloseFileAsync?5not?5found?6?$AA@ 1007c2e8     xpcruntime:xpcimports.obj
 0002:0000a310       ??_C@_0BE@IOLEBNB@slrtfsGetFileStatus?$AA@ 1007c310     xpcruntime:xpcimports.obj
 0002:0000a328       ??_C@_0BP@PEFHDGHL@slrtfsGetFileStatus?5not?5found?6?$AA@ 1007c328     xpcruntime:xpcimports.obj
 0002:0000a350       ??_C@_0N@IDKFJOHI@getlasterror?$AA@ 1007c350     xpcruntime:xpcimports.obj
 0002:0000a360       ??_C@_0BI@MIHMCHGL@getlasterror?5not?5found?6?$AA@ 1007c360     xpcruntime:xpcimports.obj
 0002:0000a37c       ??_C@_0N@EAAOMIIE@isUsedByRTIP?$AA@ 1007c37c     xpcruntime:xpcimports.obj
 0002:0000a38c       ??_C@_0BI@GNHHHICK@isUsedByRTIP?5not?5found?6?$AA@ 1007c38c     xpcruntime:xpcimports.obj
 0002:0000a3a8       ??_C@_0BC@HLDKJAG@SetIPTASKPriority?$AA@ 1007c3a8     xpcruntime:xpcimports.obj
 0002:0000a3c0       ??_C@_0BN@OGKMHHAE@SetIPTASKPriority?5not?5found?6?$AA@ 1007c3c0     xpcruntime:xpcimports.obj
 0002:0000a3e4       ??_C@_0O@LHENMBDD@OpenInterface?$AA@ 1007c3e4     xpcruntime:xpcimports.obj
 0002:0000a3f4       ??_C@_0BJ@PFGDBKHB@OpenInterface?5not?5found?6?$AA@ 1007c3f4     xpcruntime:xpcimports.obj
 0002:0000a414       ??_C@_0P@IINFELKD@CloseInterface?$AA@ 1007c414     xpcruntime:xpcimports.obj
 0002:0000a428       ??_C@_0BK@PAPDNDBK@CloseInterface?5not?5found?6?$AA@ 1007c428     xpcruntime:xpcimports.obj
 0002:0000a448       ??_C@_05LEFIAAOI@SetIP?$AA@ 1007c448     xpcruntime:xpcimports.obj
 0002:0000a450       ??_C@_0BB@CGLIBAMM@SetIP?5not?5found?6?$AA@ 1007c450     xpcruntime:xpcimports.obj
 0002:0000a464       ??_C@_0BA@HIJJHHMD@AddGatewayRoute?$AA@ 1007c464     xpcruntime:xpcimports.obj
 0002:0000a478       ??_C@_0BL@BFCFMDMN@AddGatewayRoute?5not?5found?6?$AA@ 1007c478     xpcruntime:xpcimports.obj
 0002:0000a498       ??_C@_0M@PHMABFPI@DeleteRoute?$AA@ 1007c498     xpcruntime:xpcimports.obj
 0002:0000a4a8       ??_C@_0BH@JPJGLLID@DeleteRoute?5not?5found?6?$AA@ 1007c4a8     xpcruntime:xpcimports.obj
 0002:0000a4c4       ??_C@_0BA@FCDIMKIJ@GetHostTarIPAdd?$AA@ 1007c4c4     xpcruntime:xpcimports.obj
 0002:0000a4d8       ??_C@_0BL@MBKDGKBO@GetHostTarIPAdd?5not?5found?6?$AA@ 1007c4d8     xpcruntime:xpcimports.obj
 0002:0000a4f8       ??_C@_0M@HPMIPIBI@GetDCUUsage?$AA@ 1007c4f8     xpcruntime:xpcimports.obj
 0002:0000a508       ??_C@_0BH@EBLJKCJC@GetDCUUsage?5not?5found?6?$AA@ 1007c508     xpcruntime:xpcimports.obj
 0002:0000a524       ??_C@_06MPKMECK@accept?$AA@ 1007c524     xpcruntime:xpcimports.obj
 0002:0000a52c       ??_C@_0BC@GBGIEMNO@accept?5not?5found?6?$AA@ 1007c52c     xpcruntime:xpcimports.obj
 0002:0000a544       ??_C@_04NPNJNMMP@bind?$AA@ 1007c544     xpcruntime:xpcimports.obj
 0002:0000a54c       ??_C@_0BA@DAJNENLO@bind?5not?5found?6?$AA@ 1007c54c     xpcruntime:xpcimports.obj
 0002:0000a560       ??_C@_0L@CKHNIFCM@setsockopt?$AA@ 1007c560     xpcruntime:xpcimports.obj
 0002:0000a570       ??_C@_0BG@MFIIOMFE@setsockopt?5not?5found?6?$AA@ 1007c570     xpcruntime:xpcimports.obj
 0002:0000a58c       ??_C@_0M@ODDJDCDK@closesocket?$AA@ 1007c58c     xpcruntime:xpcimports.obj
 0002:0000a59c       ??_C@_0BH@JHGHMIL@closesocket?5not?5found?6?$AA@ 1007c59c     xpcruntime:xpcimports.obj
 0002:0000a5b8       ??_C@_07KAIBNCHO@connect?$AA@ 1007c5b8     xpcruntime:xpcimports.obj
 0002:0000a5c4       ??_C@_0BD@MKLLMBM@connect?5not?5found?6?$AA@ 1007c5c4     xpcruntime:xpcimports.obj
 0002:0000a5dc       ??_C@_0M@PBPOCKDG@ioctlsocket?$AA@ 1007c5dc     xpcruntime:xpcimports.obj
 0002:0000a5ec       ??_C@_0BH@NFCNHHIH@ioctlsocket?5not?5found?6?$AA@ 1007c5ec     xpcruntime:xpcimports.obj
 0002:0000a608       ??_C@_06OODDLKLE@listen?$AA@ 1007c608     xpcruntime:xpcimports.obj
 0002:0000a610       ??_C@_0BC@NHBILEKI@listen?5not?5found?6?$AA@ 1007c610     xpcruntime:xpcimports.obj
 0002:0000a628       ??_C@_08HMBBGFHE@recvfrom?$AA@ 1007c628     xpcruntime:xpcimports.obj
 0002:0000a634       ??_C@_0BE@BJAJFFLF@recvfrom?5not?5found?6?$AA@ 1007c634     xpcruntime:xpcimports.obj
 0002:0000a64c       ??_C@_06MEPBGKEC@sendto?$AA@ 1007c64c     xpcruntime:xpcimports.obj
 0002:0000a654       ??_C@_0BC@BHPIMDJO@sendto?5not?5found?6?$AA@ 1007c654     xpcruntime:xpcimports.obj
 0002:0000a66c       ??_C@_09JKBDEEOB@inet_addr?$AA@ 1007c66c     xpcruntime:xpcimports.obj
 0002:0000a678       ??_C@_0BF@HKJPGECN@inet_addr?5not?5found?6?$AA@ 1007c678     xpcruntime:xpcimports.obj
 0002:0000a694       ??_C@_06HBELJPBO@socket?$AA@ 1007c694     xpcruntime:xpcimports.obj
 0002:0000a69c       ??_C@_0BC@NAGFFJGA@socket?5not?5found?6?$AA@ 1007c69c     xpcruntime:xpcimports.obj
 0002:0000a75c       __pDefaultRawDllMain       1007c75c     LIBCMT:dll_dllmain.obj
 0002:0000a75c       __pRawDllMain              1007c75c     LIBCMT:dll_dllmain.obj
 0002:0000a774       ??_C@_1BC@DNHGCMLG@?$AAa?$AAd?$AAv?$AAa?$AAp?$AAi?$AA3?$AA2?$AA?$AA@ 1007c774     libvcruntime:winapi_downlevel.obj
 0002:0000a78c       ??_C@_1DM@KHCHBNEB@?$AAa?$AAp?$AAi?$AA?9?$AAm?$AAs?$AA?9?$AAw?$AAi?$AAn?$AA?9?$AAc?$AAo?$AAr?$AAe?$AA?9?$AAf?$AAi?$AAb?$AAe?$AAr?$AAs?$AA?9?$AAl?$AA1?$AA?9?$AA1?$AA?9?$AA1?$AA?$AA@ 1007c78c     libvcruntime:winapi_downlevel.obj
 0002:0000a7d4       ??_C@_1DK@LPPGFMPP@?$AAa?$AAp?$AAi?$AA?9?$AAm?$AAs?$AA?9?$AAw?$AAi?$AAn?$AA?9?$AAc?$AAo?$AAr?$AAe?$AA?9?$AAs?$AAy?$AAn?$AAc?$AAh?$AA?9?$AAl?$AA1?$AA?9?$AA2?$AA?9?$AA0?$AA?$AA@ 1007c7d4     libvcruntime:winapi_downlevel.obj
 0002:0000a81c       ??_C@_1BC@GDMECMAK@?$AAk?$AAe?$AAr?$AAn?$AAe?$AAl?$AA3?$AA2?$AA?$AA@ 1007c81c     libvcruntime:winapi_downlevel.obj
 0002:0000a838       ??_C@_0O@BAMBGLIE@EventRegister?$AA@ 1007c838     libvcruntime:winapi_downlevel.obj
 0002:0000a84c       ??_C@_0BE@BJEEGHGK@EventSetInformation?$AA@ 1007c84c     libvcruntime:winapi_downlevel.obj
 0002:0000a868       ??_C@_0BA@FAKLIPIC@EventUnregister?$AA@ 1007c868     libvcruntime:winapi_downlevel.obj
 0002:0000a880       ??_C@_0BD@PKLHJPHD@EventWriteTransfer?$AA@ 1007c880     libvcruntime:winapi_downlevel.obj
 0002:0000a8a4       ??_C@_08KNHFBNJ@FlsAlloc?$AA@ 1007c8a4     libvcruntime:winapi_downlevel.obj
 0002:0000a8bc       ??_C@_07PEJMOBNF@FlsFree?$AA@ 1007c8bc     libvcruntime:winapi_downlevel.obj
 0002:0000a8d4       ??_C@_0M@GDNOONDI@FlsGetValue?$AA@ 1007c8d4     libvcruntime:winapi_downlevel.obj
 0002:0000a8f0       ??_C@_0M@JCPCPOEF@FlsSetValue?$AA@ 1007c8f0     libvcruntime:winapi_downlevel.obj
 0002:0000a90c       ??_C@_0BM@HCFOFFN@InitializeCriticalSectionEx?$AA@ 1007c90c     libvcruntime:winapi_downlevel.obj
 0002:0000ab10       ??_C@_08EHJDFFNH@__based?$CI?$AA@ 1007cb10     libvcruntime:undname.obj
 0002:0000ab1c       ??_C@_07KOLFKCDI@__cdecl?$AA@ 1007cb1c     libvcruntime:undname.obj
 0002:0000ab28       ??_C@_08GHMPAG@__pascal?$AA@ 1007cb28     libvcruntime:undname.obj
 0002:0000ab34       ??_C@_09IFJBGAPI@__stdcall?$AA@ 1007cb34     libvcruntime:undname.obj
 0002:0000ab40       ??_C@_0L@NPHFGOKO@__thiscall?$AA@ 1007cb40     libvcruntime:undname.obj
 0002:0000ab50       ??_C@_0L@JMKHOMEK@__fastcall?$AA@ 1007cb50     libvcruntime:undname.obj
 0002:0000ab60       ??_C@_0N@BCKKPABJ@__vectorcall?$AA@ 1007cb60     libvcruntime:undname.obj
 0002:0000ab70       ??_C@_09HIJEGCPM@__clrcall?$AA@ 1007cb70     libvcruntime:undname.obj
 0002:0000ab7c       ??_C@_06GHPCKEAG@__eabi?$AA@ 1007cb7c     libvcruntime:undname.obj
 0002:0000ab84       ??_C@_07JOMMBBKO@__ptr64?$AA@ 1007cb84     libvcruntime:undname.obj
 0002:0000ab90       ??_C@_0L@PILCLIHE@__restrict?$AA@ 1007cb90     libvcruntime:undname.obj
 0002:0000aba0       ??_C@_0M@GFIIJFMG@__unaligned?$AA@ 1007cba0     libvcruntime:undname.obj
 0002:0000abb0       ??_C@_09DHDLOLLB@restrict?$CI?$AA@ 1007cbb0     libvcruntime:undname.obj
 0002:0000abbc       ??_C@_04NIHEBCM@?5new?$AA@ 1007cbbc     libvcruntime:undname.obj
 0002:0000abc4       ??_C@_07FPCDHGMM@?5delete?$AA@ 1007cbc4     libvcruntime:undname.obj
 0002:0000abd0       ??_C@_01NEMOKFLO@?$DN?$AA@ 1007cbd0     libvcruntime:undname.obj
 0002:0000abd4       ??_C@_02GPIOPFAK@?$DO?$DO?$AA@ 1007cbd4     libvcruntime:undname.obj
 0002:0000abd8       ??_C@_02FODMEDOG@?$DM?$DM?$AA@ 1007cbd8     libvcruntime:undname.obj
 0002:0000abdc       ??_C@_01DCLJPIOD@?$CB?$AA@ 1007cbdc     libvcruntime:undname.obj
 0002:0000abe0       ??_C@_02EGOFBIJA@?$DN?$DN?$AA@ 1007cbe0     libvcruntime:undname.obj
 0002:0000abe4       ??_C@_02FDNJECIE@?$CB?$DN?$AA@ 1007cbe4     libvcruntime:undname.obj
 0002:0000abe8       ??_C@_02GPECMEKF@?$FL?$FN?$AA@ 1007cbe8     libvcruntime:undname.obj
 0002:0000abec       ??_C@_08LHJFAFGD@operator?$AA@ 1007cbec     libvcruntime:undname.obj
 0002:0000abf8       ??_C@_02HBOOOICD@?9?$DO?$AA@ 1007cbf8     libvcruntime:undname.obj
 0002:0000abfc       ??_C@_01NBENCBCI@?$CK?$AA@ 1007cbfc     libvcruntime:undname.obj
 0002:0000ac00       ??_C@_02ECNGHCIF@?$CL?$CL?$AA@ 1007cc00     libvcruntime:undname.obj
 0002:0000ac04       ??_C@_02BAABKJLB@?9?9?$AA@ 1007cc04     libvcruntime:undname.obj
 0002:0000ac08       ??_C@_01JOAMLHOP@?9?$AA@   1007cc08     libvcruntime:undname.obj
 0002:0000ac0c       ??_C@_01MIFGBAGJ@?$CL?$AA@ 1007cc0c     libvcruntime:undname.obj
 0002:0000ac10       ??_C@_01HNPIGOCE@?$CG?$AA@ 1007cc10     libvcruntime:undname.obj
 0002:0000ac14       ??_C@_03MNHNFDLC@?9?$DO?$CK?$AA@ 1007cc14     libvcruntime:undname.obj
 0002:0000ac18       ??_C@_01KMDKNFGN@?1?$AA@   1007cc18     libvcruntime:undname.obj
 0002:0000ac1c       ??_C@_01FGNFDNOH@?$CF?$AA@ 1007cc1c     libvcruntime:undname.obj
 0002:0000ac20       ??_C@_01MNNFJEPP@?$DM?$AA@ 1007cc20     libvcruntime:undname.obj
 0002:0000ac24       ??_C@_02EHCHHCKH@?$DM?$DN?$AA@ 1007cc24     libvcruntime:undname.obj
 0002:0000ac28       ??_C@_01PPODPGHN@?$DO?$AA@ 1007cc28     libvcruntime:undname.obj
 0002:0000ac2c       ??_C@_02EEKDKGMJ@?$DO?$DN?$AA@ 1007cc2c     libvcruntime:undname.obj
 0002:0000ac30       ??_C@_01IHBHIGKO@?0?$AA@   1007cc30     libvcruntime:undname.obj
 0002:0000ac34       ??_C@_02HCKGKOFO@?$CI?$CJ?$AA@ 1007cc34     libvcruntime:undname.obj
 0002:0000ac38       ??_C@_01PJKLJHI@?$HO?$AA@  1007cc38     libvcruntime:undname.obj
 0002:0000ac3c       ??_C@_01JKBOJNNK@?$FO?$AA@ 1007cc3c     libvcruntime:undname.obj
 0002:0000ac40       ??_C@_01DNKMNLPK@?$HM?$AA@ 1007cc40     libvcruntime:undname.obj
 0002:0000ac44       ??_C@_02PPKAJPJL@?$CG?$CG?$AA@ 1007cc44     libvcruntime:undname.obj
 0002:0000ac48       ??_C@_02NONPIBCD@?$HM?$HM?$AA@ 1007cc48     libvcruntime:undname.obj
 0002:0000ac4c       ??_C@_02FPIMKNGF@?$CK?$DN?$AA@ 1007cc4c     libvcruntime:undname.obj
 0002:0000ac50       ??_C@_02FOEOMHFC@?$CL?$DN?$AA@ 1007cc50     libvcruntime:undname.obj
 0002:0000ac54       ??_C@_02FKMDLLOA@?9?$DN?$AA@ 1007cc54     libvcruntime:undname.obj
 0002:0000ac58       ??_C@_02FJEHGPIO@?1?$DN?$AA@ 1007cc58     libvcruntime:undname.obj
 0002:0000ac5c       ??_C@_02FENAOKFI@?$CF?$DN?$AA@ 1007cc5c     libvcruntime:undname.obj
 0002:0000ac60       ??_C@_03IKFCCPFF@?$DO?$DO?$DN?$AA@ 1007cc60     libvcruntime:undname.obj
 0002:0000ac64       ??_C@_03CDNPDDLA@?$DM?$DM?$DN?$AA@ 1007cc64     libvcruntime:undname.obj
 0002:0000ac68       ??_C@_02FGJGFEAB@?$CG?$DN?$AA@ 1007cc68     libvcruntime:undname.obj
 0002:0000ac6c       ??_C@_02DHLNPPGH@?$HM?$DN?$AA@ 1007cc6c     libvcruntime:undname.obj
 0002:0000ac70       ??_C@_02MHEGNOJ@?$FO?$DN?$AA@ 1007cc70     libvcruntime:undname.obj
 0002:0000ac74       ??_C@_09IFPLHPGF@?$GAvftable?8?$AA@ 1007cc74     libvcruntime:undname.obj
 0002:0000ac80       ??_C@_09BLBHBJP@?$GAvbtable?8?$AA@ 1007cc80     libvcruntime:undname.obj
 0002:0000ac8c       ??_C@_07FEEIOKP@?$GAvcall?8?$AA@ 1007cc8c     libvcruntime:undname.obj
 0002:0000ac98       ??_C@_08LLFFHHDJ@?$GAtypeof?8?$AA@ 1007cc98     libvcruntime:undname.obj
 0002:0000aca4       ??_C@_0BF@KDPPACIK@?$GAlocal?5static?5guard?8?$AA@ 1007cca4     libvcruntime:undname.obj
 0002:0000acc0       ??_C@_08OBABFOLI@?$GAstring?8?$AA@ 1007ccc0     libvcruntime:undname.obj
 0002:0000accc       ??_C@_0BD@JDLKDPAB@?$GAvbase?5destructor?8?$AA@ 1007cccc     libvcruntime:undname.obj
 0002:0000ace4       ??_C@_0BN@DEGPLNFK@?$GAvector?5deleting?5destructor?8?$AA@ 1007cce4     libvcruntime:undname.obj
 0002:0000ad08       ??_C@_0BO@OBMKPJIG@?$GAdefault?5constructor?5closure?8?$AA@ 1007cd08     libvcruntime:undname.obj
 0002:0000ad2c       ??_C@_0BN@IMDCHIKM@?$GAscalar?5deleting?5destructor?8?$AA@ 1007cd2c     libvcruntime:undname.obj
 0002:0000ad50       ??_C@_0BO@PFGOCPJJ@?$GAvector?5constructor?5iterator?8?$AA@ 1007cd50     libvcruntime:undname.obj
 0002:0000ad74       ??_C@_0BN@LFPFMEDL@?$GAvector?5destructor?5iterator?8?$AA@ 1007cd74     libvcruntime:undname.obj
 0002:0000ad98       ??_C@_0CE@IKBNEHA@?$GAvector?5vbase?5constructor?5iterat@ 1007cd98     libvcruntime:undname.obj
 0002:0000adc4       ??_C@_0BL@NILFHHPC@?$GAvirtual?5displacement?5map?8?$AA@ 1007cdc4     libvcruntime:undname.obj
 0002:0000ade4       ??_C@_0CB@JONCMFFK@?$GAeh?5vector?5constructor?5iterator?8@ 1007cde4     libvcruntime:undname.obj
 0002:0000ae0c       ??_C@_0CA@GCEOPDGL@?$GAeh?5vector?5destructor?5iterator?8?$AA@ 1007ce0c     libvcruntime:undname.obj
 0002:0000ae34       ??_C@_0CH@OOJPLCPH@?$GAeh?5vector?5vbase?5constructor?5ite@ 1007ce34     libvcruntime:undname.obj
 0002:0000ae64       ??_C@_0BL@LLKPOHJI@?$GAcopy?5constructor?5closure?8?$AA@ 1007ce64     libvcruntime:undname.obj
 0002:0000ae84       ??_C@_0BA@KBCDOMBN@?$GAudt?5returning?8?$AA@ 1007ce84     libvcruntime:undname.obj
 0002:0000ae98       ??_C@_03KLGMFNMG@?$GAEH?$AA@ 1007ce98     libvcruntime:undname.obj
 0002:0000ae9c       ??_C@_05KHLCHHI@?$GARTTI?$AA@ 1007ce9c     libvcruntime:undname.obj
 0002:0000aea4       ??_C@_0BA@KKLDJDLB@?$GAlocal?5vftable?8?$AA@ 1007cea4     libvcruntime:undname.obj
 0002:0000aeb8       ??_C@_0CE@IIHCMGGL@?$GAlocal?5vftable?5constructor?5closu@ 1007ceb8     libvcruntime:undname.obj
 0002:0000aee4       ??_C@_06FHBGPFGH@?5new?$FL?$FN?$AA@ 1007cee4     libvcruntime:undname.obj
 0002:0000aeec       ??_C@_09LBNFPBCA@?5delete?$FL?$FN?$AA@ 1007ceec     libvcruntime:undname.obj
 0002:0000aef8       ??_C@_0P@HJKNJFNN@?$GAomni?5callsig?8?$AA@ 1007cef8     libvcruntime:undname.obj
 0002:0000af0c       ??_C@_0BL@CNOONJFP@?$GAplacement?5delete?5closure?8?$AA@ 1007cf0c     libvcruntime:undname.obj
 0002:0000af2c       ??_C@_0BN@CKNJLHMB@?$GAplacement?5delete?$FL?$FN?5closure?8?$AA@ 1007cf2c     libvcruntime:undname.obj
 0002:0000af50       ??_C@_0CG@CFDHKGGD@?$GAmanaged?5vector?5constructor?5iter@ 1007cf50     libvcruntime:undname.obj
 0002:0000af80       ??_C@_0CF@IMGKMJNO@?$GAmanaged?5vector?5destructor?5itera@ 1007cf80     libvcruntime:undname.obj
 0002:0000afac       ??_C@_0CG@HLDDJMAG@?$GAeh?5vector?5copy?5constructor?5iter@ 1007cfac     libvcruntime:undname.obj
 0002:0000afdc       ??_C@_0CM@FCBBDIGB@?$GAeh?5vector?5vbase?5copy?5constructo@ 1007cfdc     libvcruntime:undname.obj
 0002:0000b010       ??_C@_0BL@CLIPGLGB@?$GAdynamic?5initializer?5for?5?8?$AA@ 1007d010     libvcruntime:undname.obj
 0002:0000b030       ??_C@_0CB@PDBIFEP@?$GAdynamic?5atexit?5destructor?5for?5?8@ 1007d030     libvcruntime:undname.obj
 0002:0000b058       ??_C@_0CD@CGAJBKEJ@?$GAvector?5copy?5constructor?5iterato@ 1007d058     libvcruntime:undname.obj
 0002:0000b084       ??_C@_0CJ@GJELGAMM@?$GAvector?5vbase?5copy?5constructor?5i@ 1007d084     libvcruntime:undname.obj
 0002:0000b0b8       ??_C@_0CL@FGIJHLCE@?$GAmanaged?5vector?5copy?5constructor@ 1007d0b8     libvcruntime:undname.obj
 0002:0000b0ec       ??_C@_0BM@PMGGMLDN@?$GAlocal?5static?5thread?5guard?8?$AA@ 1007d0ec     libvcruntime:undname.obj
 0002:0000b110       ??_C@_0N@BDNMDMOL@operator?5?$CC?$CC?5?$AA@ 1007d110     libvcruntime:undname.obj
 0002:0000b120       ??_C@_0BC@DAFEJGAK@?5Type?5Descriptor?8?$AA@ 1007d120     libvcruntime:undname.obj
 0002:0000b138       ??_C@_0BM@LDKODKLH@?5Base?5Class?5Descriptor?5at?5?$CI?$AA@ 1007d138     libvcruntime:undname.obj
 0002:0000b15c       ??_C@_0BD@LGICGFMM@?5Base?5Class?5Array?8?$AA@ 1007d15c     libvcruntime:undname.obj
 0002:0000b174       ??_C@_0BN@MECKDCOJ@?5Class?5Hierarchy?5Descriptor?8?$AA@ 1007d174     libvcruntime:undname.obj
 0002:0000b198       ??_C@_0BK@CFCOFLF@?5Complete?5Object?5Locator?8?$AA@ 1007d198     libvcruntime:undname.obj
 0002:0000b1b8       ??_C@_04HEJADOOB@CV?3?5?$AA@ 1007d1b8     libvcruntime:undname.obj
 0002:0000b1c0       ??_C@_02MOLJINC@?3?3?$AA@  1007d1c0     libvcruntime:undname.obj
 0002:0000b1c4       ??_C@_0BE@JAEOCHPE@template?9parameter?9?$AA@ 1007d1c4     libvcruntime:undname.obj
 0002:0000b1dc       ??_C@_0O@KHGCOMHP@generic?9type?9?$AA@ 1007d1dc     libvcruntime:undname.obj
 0002:0000b1ec       ??_C@_01NLNLIGKH@?$GA?$AA@ 1007d1ec     libvcruntime:undname.obj
 0002:0000b1f0       ??_C@_01GEODFPGF@?8?$AA@   1007d1f0     libvcruntime:undname.obj
 0002:0000b1f4       ??_C@_0BG@JNJLAMPM@?$GAanonymous?5namespace?8?$AA@ 1007d1f4     libvcruntime:undname.obj
 0002:0000b210       ??_C@_02OHHJMEON@?8?8?$AA@ 1007d210     libvcruntime:undname.obj
 0002:0000b214       ??_C@_0BN@IBLMMFAP@?$GAnon?9type?9template?9parameter?$AA@ 1007d214     libvcruntime:undname.obj
 0002:0000b238       ??_C@_04GKJNKENE@void?$AA@ 1007d238     libvcruntime:undname.obj
 0002:0000b240       ??_C@_0BE@EODMJLIF@?$GAtemplate?9parameter?$AA@ 1007d240     libvcruntime:undname.obj
 0002:0000b258       ??_C@_03KHICJKCI@?4?4?4?$AA@ 1007d258     libvcruntime:undname.obj
 0002:0000b25c       ??_C@_04HIBGFPH@NULL?$AA@  1007d25c     libvcruntime:undname.obj
 0002:0000b264       ??_C@_02DPKJAMEF@?$CFd?$AA@ 1007d264     libvcruntime:undname.obj
 0002:0000b268       ??_C@_0BK@IHCCFNEL@?$GAtemplate?9type?9parameter?9?$AA@ 1007d268     libvcruntime:undname.obj
 0002:0000b288       ??_C@_0BK@OFCNNNKO@?$GAgeneric?9class?9parameter?9?$AA@ 1007d288     libvcruntime:undname.obj
 0002:0000b2a8       ??_C@_0BL@NGJBLFIL@?$GAgeneric?9method?9parameter?9?$AA@ 1007d2a8     libvcruntime:undname.obj
 0002:0000b2c8       ??_C@_03OPGICMGF@?$HN?8?5?$AA@ 1007d2c8     libvcruntime:undname.obj
 0002:0000b2cc       ??_C@_02IGFCGPIL@?$HN?8?$AA@ 1007d2cc     libvcruntime:undname.obj
 0002:0000b2d0       ??_C@_01CLKCMJKC@?5?$AA@   1007d2d0     libvcruntime:undname.obj
 0002:0000b2d4       ??_C@_0N@CBHHHENL@?$GAvtordispex?$HL?$AA@ 1007d2d4     libvcruntime:undname.obj
 0002:0000b2e4       ??_C@_0L@GHPFDFH@?$GAvtordisp?$HL?$AA@ 1007d2e4     libvcruntime:undname.obj
 0002:0000b2f4       ??_C@_0L@HNGCOGAE@?$GAadjustor?$HL?$AA@ 1007d2f4     libvcruntime:undname.obj
 0002:0000b304       ??_C@_0CB@KJDOOODE@?$GAlocal?5static?5destructor?5helper?8@ 1007d304     libvcruntime:undname.obj
 0002:0000b32c       ??_C@_0DB@ILEFOCIJ@?$GAtemplate?5static?5data?5member?5con@ 1007d32c     libvcruntime:undname.obj
 0002:0000b368       ??_C@_0DA@HGFJFBBE@?$GAtemplate?5static?5data?5member?5des@ 1007d368     libvcruntime:undname.obj
 0002:0000b3a4       ??_C@_07PGOEDBHP@static?5?$AA@ 1007d3a4     libvcruntime:undname.obj
 0002:0000b3b0       ??_C@_08NIEOINHE@virtual?5?$AA@ 1007d3b0     libvcruntime:undname.obj
 0002:0000b3bc       ??_C@_09LAPHOOG@private?3?5?$AA@ 1007d3bc     libvcruntime:undname.obj
 0002:0000b3c8       ??_C@_0M@GAIFPFIP@protected?3?5?$AA@ 1007d3c8     libvcruntime:undname.obj
 0002:0000b3d8       ??_C@_08GPDDCMKI@public?3?5?$AA@ 1007d3d8     libvcruntime:undname.obj
 0002:0000b3e4       ??_C@_08KJLFOPNE@?$FLthunk?$FN?3?$AA@ 1007d3e4     libvcruntime:undname.obj
 0002:0000b3f0       ??_C@_0M@DHNBOJMP@extern?5?$CCC?$CC?5?$AA@ 1007d3f0     libvcruntime:undname.obj
 0002:0000b400       ??_C@_02KCKGHPCA@?$CJ?5?$AA@ 1007d400     libvcruntime:undname.obj
 0002:0000b404       ??_C@_05CIHEBHNO@char?5?$AA@ 1007d404     libvcruntime:undname.obj
 0002:0000b40c       ??_C@_06EHJMALKF@short?5?$AA@ 1007d40c     libvcruntime:undname.obj
 0002:0000b414       ??_C@_04LAHKHJMA@int?5?$AA@ 1007d414     libvcruntime:undname.obj
 0002:0000b41c       ??_C@_05CJIMAING@long?5?$AA@ 1007d41c     libvcruntime:undname.obj
 0002:0000b424       ??_C@_09EBBEKKIH@unsigned?5?$AA@ 1007d424     libvcruntime:undname.obj
 0002:0000b430       ??_C@_05BEFAKPML@void?5?$AA@ 1007d430     libvcruntime:undname.obj
 0002:0000b438       ??_C@_08PABEKFH@volatile?$AA@ 1007d438     libvcruntime:undname.obj
 0002:0000b444       ??_C@_0BA@LKIJLKPP@std?3?3nullptr_t?5?$AA@ 1007d444     libvcruntime:undname.obj
 0002:0000b458       ??_C@_0P@GCOCNKDM@std?3?3nullptr_t?$AA@ 1007d458     libvcruntime:undname.obj
 0002:0000b46c       ??_C@_0L@EGPHHEKN@?$DMellipsis?$DO?$AA@ 1007d46c     libvcruntime:undname.obj
 0002:0000b47c       ??_C@_04EENFHACM@?0?4?4?4?$AA@ 1007d47c     libvcruntime:undname.obj
 0002:0000b484       ??_C@_0M@ELJOJFFH@?0?$DMellipsis?$DO?$AA@ 1007d484     libvcruntime:undname.obj
 0002:0000b494       ??_C@_07HDJPLPEK@?5throw?$CI?$AA@ 1007d494     libvcruntime:undname.obj
 0002:0000b4a0       ??_C@_03PBJBJNON@cpu?$AA@  1007d4a0     libvcruntime:undname.obj
 0002:0000b4a4       ??_C@_03DCBBJBAA@amp?$AA@  1007d4a4     libvcruntime:undname.obj
 0002:0000b4a8       ??_C@_02KEGNLNML@?0?5?$AA@ 1007d4a8     libvcruntime:undname.obj
 0002:0000b4ac       ??_C@_04ENMBGAPA@char?$AA@ 1007d4ac     libvcruntime:undname.obj
 0002:0000b4b4       ??_C@_05BFKKPKCG@short?$AA@ 1007d4b4     libvcruntime:undname.obj
 0002:0000b4bc       ??_C@_03JBIPMCLC@int?$AA@  1007d4bc     libvcruntime:undname.obj
 0002:0000b4c0       ??_C@_04GOKPGOLB@long?$AA@ 1007d4c0     libvcruntime:undname.obj
 0002:0000b4c8       ??_C@_04DDKJGDCM@bool?$AA@ 1007d4c8     libvcruntime:undname.obj
 0002:0000b4d0       ??_C@_06EBGKOKIG@__int8?$AA@ 1007d4d0     libvcruntime:undname.obj
 0002:0000b4d8       ??_C@_07ICFHOGAF@__int16?$AA@ 1007d4d8     libvcruntime:undname.obj
 0002:0000b4e4       ??_C@_07OFLPPHGP@__int32?$AA@ 1007d4e4     libvcruntime:undname.obj
 0002:0000b4f0       ??_C@_07LFCOJCAC@__int64?$AA@ 1007d4f0     libvcruntime:undname.obj
 0002:0000b4fc       ??_C@_08GAHOLHEO@__int128?$AA@ 1007d4fc     libvcruntime:undname.obj
 0002:0000b508       ??_C@_09EEKGDCPH@?$DMunknown?$DO?$AA@ 1007d508     libvcruntime:undname.obj
 0002:0000b514       ??_C@_08HBIPOFJB@char16_t?$AA@ 1007d514     libvcruntime:undname.obj
 0002:0000b520       ??_C@_08IECNCBKG@char32_t?$AA@ 1007d520     libvcruntime:undname.obj
 0002:0000b52c       ??_C@_07CLGGIAMF@wchar_t?$AA@ 1007d52c     libvcruntime:undname.obj
 0002:0000b538       ??_C@_06GCICPBLB@__w64?5?$AA@ 1007d538     libvcruntime:undname.obj
 0002:0000b540       ??_C@_07NFANNNEC@UNKNOWN?$AA@ 1007d540     libvcruntime:undname.obj
 0002:0000b54c       ??_C@_07EDHNAJHC@signed?5?$AA@ 1007d54c     libvcruntime:undname.obj
 0002:0000b558       ??_C@_05BNCCCJPP@const?$AA@ 1007d558     libvcruntime:undname.obj
 0002:0000b560       ??_C@_09EFNPDFFP@?5volatile?$AA@ 1007d560     libvcruntime:undname.obj
 0002:0000b56c       ??_C@_0P@GCIFDJCJ@?$GAunknown?5ecsu?8?$AA@ 1007d56c     libvcruntime:undname.obj
 0002:0000b580       ??_C@_06MOJHIBMG@union?5?$AA@ 1007d580     libvcruntime:undname.obj
 0002:0000b588       ??_C@_07DIBCDNGL@struct?5?$AA@ 1007d588     libvcruntime:undname.obj
 0002:0000b594       ??_C@_06LJBABKPM@class?5?$AA@ 1007d594     libvcruntime:undname.obj
 0002:0000b59c       ??_C@_08KOFANOFK@coclass?5?$AA@ 1007d59c     libvcruntime:undname.obj
 0002:0000b5a8       ??_C@_0N@DLIEFKNA@cointerface?5?$AA@ 1007d5a8     libvcruntime:undname.obj
 0002:0000b5b8       ??_C@_05LJGMCFOG@enum?5?$AA@ 1007d5b8     libvcruntime:undname.obj
 0002:0000b5c0       ??_C@_09GAIEOBLP@volatile?5?$AA@ 1007d5c0     libvcruntime:undname.obj
 0002:0000b5cc       ??_C@_06LIJLOJAG@const?5?$AA@ 1007d5cc     libvcruntime:undname.obj
 0002:0000b5d4       ??_C@_02KJPKDIBN@?$CG?5?$AA@ 1007d5d4     libvcruntime:undname.obj
 0002:0000b5d8       ??_C@_03PCKGMOPB@?$CG?$CG?5?$AA@ 1007d5d8     libvcruntime:undname.obj
 0002:0000b5dc       ??_C@_0M@EALIELKG@cli?3?3array?$DM?$AA@ 1007d5dc     libvcruntime:undname.obj
 0002:0000b5ec       ??_C@_0O@GKABPPIF@cli?3?3pin_ptr?$DM?$AA@ 1007d5ec     libvcruntime:undname.obj
 0002:0000b5fc       ??_C@_02GOGNNPBN@?$CJ?$FL?$AA@ 1007d5fc     libvcruntime:undname.obj
 0002:0000b600       ??_C@_06EEGAIFAK@?$HLflat?$HN?$AA@ 1007d600     libvcruntime:undname.obj
 0002:0000b608       ??_C@_05JIBOFOHK@?$HLfor?5?$AA@ 1007d608     libvcruntime:undname.obj
 0002:0000b610       ??_C@_02MDINNEEG@s?5?$AA@  1007d610     libvcruntime:undname.obj
 0002:0000b618       ??_7DNameNode@@6B@         1007d618     libvcruntime:undname.obj
 0002:0000b62c       ??_7charNode@@6B@          1007d62c     libvcruntime:undname.obj
 0002:0000b640       ??_7pcharNode@@6B@         1007d640     libvcruntime:undname.obj
 0002:0000b654       ??_7pDNameNode@@6B@        1007d654     libvcruntime:undname.obj
 0002:0000b668       ??_7DNameStatusNode@@6B@   1007d668     libvcruntime:undname.obj
 0002:0000b67c       ??_7pairNode@@6B@          1007d67c     libvcruntime:undname.obj
 0002:0000b68c       ??_C@_04OKOHEJBO@?5?$DP?$DP?5?$AA@ 1007d68c     libvcruntime:undname.obj
 0002:0000b698       _standard_lookup_table     1007d698     libucrt:output.obj
 0002:0000b708       _format_validation_lookup_table 1007d708     libucrt:output.obj
 0002:0000b778       ??_C@_06OJHGLDPL@?$CInull?$CJ?$AA@ 1007d778     libucrt:output.obj
 0002:0000b780       ??_C@_1O@CEDCILHN@?$AA?$CI?$AAn?$AAu?$AAl?$AAl?$AA?$CJ?$AA?$AA@ 1007d780     libucrt:output.obj
 0002:0000b790       __OP_FMODjmptab            1007d790     libucrt:87fmod.obj
 0002:0000b7f0       _RtlNtPathSeperatorString  1007d7f0     libucrt:exit.obj
 0002:0000b7fc       ??_C@_13FPGAJAPJ@?$AA?2?$AA?$AA@ 1007d7fc     libucrt:exit.obj
 0002:0000b800       _RtlDosPathSeperatorsString 1007d800     libucrt:exit.obj
 0002:0000b80c       ??_C@_15MNCACJLI@?$AA?2?$AA?1?$AA?$AA@ 1007d80c     libucrt:exit.obj
 0002:0000b814       _RtlAlternateDosPathSeperatorString 1007d814     libucrt:exit.obj
 0002:0000b820       ??_C@_13CGOKJPIL@?$AA?1?$AA?$AA@ 1007d820     libucrt:exit.obj
 0002:0000b824       ??_C@_1BI@BGOHAHKC@?$AAm?$AAs?$AAc?$AAo?$AAr?$AAe?$AAe?$AA?4?$AAd?$AAl?$AAl?$AA?$AA@ 1007d824     libucrt:exit.obj
 0002:0000b840       ??_C@_0P@MIGLKIOC@CorExitProcess?$AA@ 1007d840     libucrt:exit.obj
 0002:0000b854       ??_C@_0CF@GOGNBNAK@Microsoft?5Visual?5C?$CL?$CL?5Runtime?5Lib@ 1007d854     libucrt:assert.obj
 0002:0000b880       ??_C@_1EK@MBDPDCGA@?$AAM?$AAi?$AAc?$AAr?$AAo?$AAs?$AAo?$AAf?$AAt?$AA?5?$AAV?$AAi?$AAs?$AAu?$AAa?$AAl?$AA?5?$AAC?$AA?$CL?$AA?$CL?$AA?5?$AAR?$AAu?$AAn?$AAt?$AAi?$AAm?$AAe?$AA?5?$AAL?$AAi?$AAb@ 1007d880     libucrt:assert.obj
 0002:0000b8d8       ??_C@_0CK@CFPGFGGO@Assertion?5failed?3?5?$CFTs?0?5file?5?$CFTs?0@ 1007d8d8     libucrt:assert.obj
 0002:0000b910       ??_C@_1FE@LHBLIKM@?$AAA?$AAs?$AAs?$AAe?$AAr?$AAt?$AAi?$AAo?$AAn?$AA?5?$AAf?$AAa?$AAi?$AAl?$AAe?$AAd?$AA?3?$AA?5?$AA?$CF?$AAT?$AAs?$AA?0?$AA?5?$AAf?$AAi?$AAl?$AAe?$AA?5?$AA?$CF?$AAT?$AAs?$AA?0@ 1007d910     libucrt:assert.obj
 0002:0000b974       ??_C@_0BC@LAIDCHCH@Assertion?5failed?$CB?$AA@ 1007d974     libucrt:assert.obj
 0002:0000b98c       ??_C@_1CE@OJBNHDMO@?$AAA?$AAs?$AAs?$AAe?$AAr?$AAt?$AAi?$AAo?$AAn?$AA?5?$AAf?$AAa?$AAi?$AAl?$AAe?$AAd?$AA?$CB?$AA?$AA@ 1007d98c     libucrt:assert.obj
 0002:0000b9b8       ??_C@_09KLGCKDOD@Program?3?5?$AA@ 1007d9b8     libucrt:assert.obj
 0002:0000b9c4       ??_C@_1BE@PHKBBGE@?$AAP?$AAr?$AAo?$AAg?$AAr?$AAa?$AAm?$AA?3?$AA?5?$AA?$AA@ 1007d9c4     libucrt:assert.obj
 0002:0000b9dc       ??_C@_06IGPBOHMJ@File?3?5?$AA@ 1007d9dc     libucrt:assert.obj
 0002:0000b9e4       ??_C@_1O@HEMHKNDC@?$AAF?$AAi?$AAl?$AAe?$AA?3?$AA?5?$AA?$AA@ 1007d9e4     libucrt:assert.obj
 0002:0000b9f4       ??_C@_06FIEBOLOH@Line?3?5?$AA@ 1007d9f4     libucrt:assert.obj
 0002:0000b9fc       ??_C@_1O@KCAFKHJE@?$AAL?$AAi?$AAn?$AAe?$AA?3?$AA?5?$AA?$AA@ 1007d9fc     libucrt:assert.obj
 0002:0000ba0c       ??_C@_0N@MEECIJGN@Expression?3?5?$AA@ 1007da0c     libucrt:assert.obj
 0002:0000ba1c       ??_C@_1BK@PEDCIPMA@?$AAE?$AAx?$AAp?$AAr?$AAe?$AAs?$AAs?$AAi?$AAo?$AAn?$AA?3?$AA?5?$AA?$AA@ 1007da1c     libucrt:assert.obj
 0002:0000ba40       ??_C@_0HA@OJHAGA@For?5information?5on?5how?5your?5prog@ 1007da40     libucrt:assert.obj
 0002:0000bac8       ??_C@_1OA@EGMLFBHJ@?$AAF?$AAo?$AAr?$AA?5?$AAi?$AAn?$AAf?$AAo?$AAr?$AAm?$AAa?$AAt?$AAi?$AAo?$AAn?$AA?5?$AAo?$AAn?$AA?5?$AAh?$AAo?$AAw?$AA?5?$AAy?$AAo?$AAu?$AAr?$AA?5?$AAp?$AAr?$AAo?$AAg@ 1007dac8     libucrt:assert.obj
 0002:0000bbd4       ??_C@_0DN@EBBNMLME@?$CIPress?5Retry?5to?5debug?5the?5applic@ 1007dbd4     libucrt:assert.obj
 0002:0000bc20       ??_C@_1HK@POCJMFGK@?$AA?$CI?$AAP?$AAr?$AAe?$AAs?$AAs?$AA?5?$AAR?$AAe?$AAt?$AAr?$AAy?$AA?5?$AAt?$AAo?$AA?5?$AAd?$AAe?$AAb?$AAu?$AAg?$AA?5?$AAt?$AAh?$AAe?$AA?5?$AAa?$AAp?$AAp?$AAl?$AAi?$AAc@ 1007dc20     libucrt:assert.obj
 0002:0000bcb4       ??_C@_17LGKOMLJ@?$AA?4?$AA?4?$AA?4?$AA?$AA@ 1007dcb4     libucrt:assert.obj
 0002:0000bcc0       ??_C@_13LBAGMAIH@?$AA?6?$AA?$AA@ 1007dcc0     libucrt:assert.obj
 0002:0000bcc4       ??_C@_02PHMGELLB@?6?6?$AA@ 1007dcc4     libucrt:assert.obj
 0002:0000bcc8       ??_C@_15IABLJNFO@?$AA?6?$AA?6?$AA?$AA@ 1007dcc8     libucrt:assert.obj
 0002:0000bcd0       ??_C@_0BH@DNAGHKFM@?$DMprogram?5name?5unknown?$DO?$AA@ 1007dcd0     libucrt:assert.obj
 0002:0000bcec       ??_C@_1CO@EAEJAADC@?$AA?$DM?$AAp?$AAr?$AAo?$AAg?$AAr?$AAa?$AAm?$AA?5?$AAn?$AAa?$AAm?$AAe?$AA?5?$AAu?$AAn?$AAk?$AAn?$AAo?$AAw?$AAn?$AA?$DO?$AA?$AA@ 1007dcec     libucrt:assert.obj
 0002:0000bd24       ??_C@_04FJHINJAO@tanh?$AA@ 1007dd24     libucrt:fpexcept.obj
 0002:0000bd2c       ??_C@_04FIHNOPOL@asin?$AA@ 1007dd2c     libucrt:fpexcept.obj
 0002:0000bd34       ??_C@_04PDIFKINK@acos?$AA@ 1007dd34     libucrt:fpexcept.obj
 0002:0000bd3c       ??_C@_04MLLJIGOK@atan?$AA@ 1007dd3c     libucrt:fpexcept.obj
 0002:0000bd44       ??_C@_05KNGEOGJB@atan2?$AA@ 1007dd44     libucrt:fpexcept.obj
 0002:0000bd4c       ??_C@_04EIAKFFMI@sqrt?$AA@ 1007dd4c     libucrt:fpexcept.obj
 0002:0000bd54       ??_C@_03BLEJJJBH@sin?$AA@  1007dd54     libucrt:fpexcept.obj
 0002:0000bd58       ??_C@_03LALBNOCG@cos?$AA@  1007dd58     libucrt:fpexcept.obj
 0002:0000bd5c       ??_C@_03IIINPABG@tan?$AA@  1007dd5c     libucrt:fpexcept.obj
 0002:0000bd60       ??_C@_04GFPJNGEK@ceil?$AA@ 1007dd60     libucrt:fpexcept.obj
 0002:0000bd68       ??_C@_05PBJFFIGL@floor?$AA@ 1007dd68     libucrt:fpexcept.obj
 0002:0000bd70       ??_C@_04ODHECPBC@fabs?$AA@ 1007dd70     libucrt:fpexcept.obj
 0002:0000bd78       ??_C@_04EHEDPDJG@modf?$AA@ 1007dd78     libucrt:fpexcept.obj
 0002:0000bd80       ??_C@_05CEJMAHNP@ldexp?$AA@ 1007dd80     libucrt:fpexcept.obj
 0002:0000bd88       ??_C@_05KBKMEMPO@_cabs?$AA@ 1007dd88     libucrt:fpexcept.obj
 0002:0000bd90       ??_C@_06MEIMCGCF@_hypot?$AA@ 1007dd90     libucrt:fpexcept.obj
 0002:0000bd98       ??_C@_04KEPJIHGP@fmod?$AA@ 1007dd98     libucrt:fpexcept.obj
 0002:0000bda0       ??_C@_05GKKHEGJL@frexp?$AA@ 1007dda0     libucrt:fpexcept.obj
 0002:0000bda8       ??_C@_03MJLDFKDL@_y0?$AA@  1007dda8     libucrt:fpexcept.obj
 0002:0000bdac       ??_C@_03NAKIGLHK@_y1?$AA@  1007ddac     libucrt:fpexcept.obj
 0002:0000bdb0       ??_C@_03ONILCKOB@_yn?$AA@  1007ddb0     libucrt:fpexcept.obj
 0002:0000bdb4       ??_C@_05JGDBENOH@_logb?$AA@ 1007ddb4     libucrt:fpexcept.obj
 0002:0000bdbc       ??_C@_0L@KDOEJCKC@_nextafter?$AA@ 1007ddbc     libucrt:fpexcept.obj
 0002:0000bee8       ??_C@_03KHJOGHMM@exp?$AA@  1007dee8     libucrt:fpexcept.obj
 0002:0000beec       ??_C@_03JGHBODFD@pow?$AA@  1007deec     libucrt:fpexcept.obj
 0002:0000bef0       ??_C@_03MGHMBJCF@log?$AA@  1007def0     libucrt:fpexcept.obj
 0002:0000bef4       ??_C@_05HGHHAHAP@log10?$AA@ 1007def4     libucrt:fpexcept.obj
 0002:0000befc       ??_C@_04COOMCNPB@sinh?$AA@ 1007defc     libucrt:fpexcept.obj
 0002:0000bf04       ??_C@_04HPJJNFIM@cosh?$AA@ 1007df04     libucrt:fpexcept.obj
 0002:0000bf10       ___acrt_exception_action_table 1007df10     libucrt:exception_filter.obj
 0002:0000bfbc       ___acrt_signal_action_table_count 1007dfbc     libucrt:exception_filter.obj
 0002:0000bfc0       ___acrt_signal_action_table_size 1007dfc0     libucrt:exception_filter.obj
 0002:0000bfc4       ___acrt_signal_action_first_fpe_index 1007dfc4     libucrt:exception_filter.obj
 0002:0000bfc8       ___acrt_signal_action_fpe_count 1007dfc8     libucrt:exception_filter.obj
 0002:0000c060       ??_C@_1BG@HHIFPOEK@?$AAm?$AAs?$AAv?$AAc?$AAr?$AAt?$AA?4?$AAd?$AAl?$AAl?$AA?$AA@ 1007e060     libucrt:free_base.obj
 0002:0000c07c       __Fenv0                    1007e07c     libucrt:atox.obj
 0002:0000c298       ??_C@_1EG@CNNIPFIM@?$AAa?$AAp?$AAi?$AA?9?$AAm?$AAs?$AA?9?$AAw?$AAi?$AAn?$AA?9?$AAa?$AAp?$AAp?$AAm?$AAo?$AAd?$AAe?$AAl?$AA?9?$AAr?$AAu?$AAn?$AAt?$AAi?$AAm?$AAe?$AA?9?$AAl?$AA1?$AA?9?$AA1@ 1007e298     libucrt:winapi_thunks.obj
 0002:0000c2f0       ??_C@_1EA@JGEFHKEI@?$AAa?$AAp?$AAi?$AA?9?$AAm?$AAs?$AA?9?$AAw?$AAi?$AAn?$AA?9?$AAc?$AAo?$AAr?$AAe?$AA?9?$AAd?$AAa?$AAt?$AAe?$AAt?$AAi?$AAm?$AAe?$AA?9?$AAl?$AA1?$AA?9?$AA1?$AA?9?$AA1?$AA?$AA@ 1007e2f0     libucrt:winapi_thunks.obj
 0002:0000c33c       ??_C@_1DI@GCIAAENM@?$AAa?$AAp?$AAi?$AA?9?$AAm?$AAs?$AA?9?$AAw?$AAi?$AAn?$AA?9?$AAc?$AAo?$AAr?$AAe?$AA?9?$AAf?$AAi?$AAl?$AAe?$AA?9?$AAl?$AA2?$AA?9?$AA1?$AA?9?$AA1?$AA?$AA@ 1007e33c     libucrt:winapi_thunks.obj
 0002:0000c380       ??_C@_1EI@MPIAOHOC@?$AAa?$AAp?$AAi?$AA?9?$AAm?$AAs?$AA?9?$AAw?$AAi?$AAn?$AA?9?$AAc?$AAo?$AAr?$AAe?$AA?9?$AAl?$AAo?$AAc?$AAa?$AAl?$AAi?$AAz?$AAa?$AAt?$AAi?$AAo?$AAn?$AA?9?$AAl?$AA1?$AA?9@ 1007e380     libucrt:winapi_thunks.obj
 0002:0000c3d8       ??_C@_1FK@FPHCKFIE@?$AAa?$AAp?$AAi?$AA?9?$AAm?$AAs?$AA?9?$AAw?$AAi?$AAn?$AA?9?$AAc?$AAo?$AAr?$AAe?$AA?9?$AAl?$AAo?$AAc?$AAa?$AAl?$AAi?$AAz?$AAa?$AAt?$AAi?$AAo?$AAn?$AA?9?$AAo?$AAb?$AAs@ 1007e3d8     libucrt:winapi_thunks.obj
 0002:0000c448       ??_C@_1EM@DILCGIIO@?$AAa?$AAp?$AAi?$AA?9?$AAm?$AAs?$AA?9?$AAw?$AAi?$AAn?$AA?9?$AAc?$AAo?$AAr?$AAe?$AA?9?$AAp?$AAr?$AAo?$AAc?$AAe?$AAs?$AAs?$AAt?$AAh?$AAr?$AAe?$AAa?$AAd?$AAs?$AA?9?$AAl@ 1007e448     libucrt:winapi_thunks.obj
 0002:0000c4a4       ??_C@_1DM@LNCGDDPN@?$AAa?$AAp?$AAi?$AA?9?$AAm?$AAs?$AA?9?$AAw?$AAi?$AAn?$AA?9?$AAc?$AAo?$AAr?$AAe?$AA?9?$AAs?$AAt?$AAr?$AAi?$AAn?$AAg?$AA?9?$AAl?$AA1?$AA?9?$AA1?$AA?9?$AA0?$AA?$AA@ 1007e4a4     libucrt:winapi_thunks.obj
 0002:0000c4ec       ??_C@_1DO@FPAPJEMD@?$AAa?$AAp?$AAi?$AA?9?$AAm?$AAs?$AA?9?$AAw?$AAi?$AAn?$AA?9?$AAc?$AAo?$AAr?$AAe?$AA?9?$AAs?$AAy?$AAs?$AAi?$AAn?$AAf?$AAo?$AA?9?$AAl?$AA1?$AA?9?$AA2?$AA?9?$AA1?$AA?$AA@ 1007e4ec     libucrt:winapi_thunks.obj
 0002:0000c538       ??_C@_1DK@NDHNAHIO@?$AAa?$AAp?$AAi?$AA?9?$AAm?$AAs?$AA?9?$AAw?$AAi?$AAn?$AA?9?$AAc?$AAo?$AAr?$AAe?$AA?9?$AAw?$AAi?$AAn?$AAr?$AAt?$AA?9?$AAl?$AA1?$AA?9?$AA1?$AA?9?$AA0?$AA?$AA@ 1007e538     libucrt:winapi_thunks.obj
 0002:0000c580       ??_C@_1DM@KGHDGBCM@?$AAa?$AAp?$AAi?$AA?9?$AAm?$AAs?$AA?9?$AAw?$AAi?$AAn?$AA?9?$AAc?$AAo?$AAr?$AAe?$AA?9?$AAx?$AAs?$AAt?$AAa?$AAt?$AAe?$AA?9?$AAl?$AA2?$AA?9?$AA1?$AA?9?$AA0?$AA?$AA@ 1007e580     libucrt:winapi_thunks.obj
 0002:0000c5c8       ??_C@_1EO@IJIOEFOH@?$AAa?$AAp?$AAi?$AA?9?$AAm?$AAs?$AA?9?$AAw?$AAi?$AAn?$AA?9?$AAr?$AAt?$AAc?$AAo?$AAr?$AAe?$AA?9?$AAn?$AAt?$AAu?$AAs?$AAe?$AAr?$AA?9?$AAw?$AAi?$AAn?$AAd?$AAo?$AAw?$AA?9@ 1007e5c8     libucrt:winapi_thunks.obj
 0002:0000c628       ??_C@_1FG@HHGEKANL@?$AAa?$AAp?$AAi?$AA?9?$AAm?$AAs?$AA?9?$AAw?$AAi?$AAn?$AA?9?$AAs?$AAe?$AAc?$AAu?$AAr?$AAi?$AAt?$AAy?$AA?9?$AAs?$AAy?$AAs?$AAt?$AAe?$AAm?$AAf?$AAu?$AAn?$AAc?$AAt?$AAi@ 1007e628     libucrt:winapi_thunks.obj
 0002:0000c690       ??_C@_1FG@NCKKOLKO@?$AAe?$AAx?$AAt?$AA?9?$AAm?$AAs?$AA?9?$AAw?$AAi?$AAn?$AA?9?$AAk?$AAe?$AAr?$AAn?$AAe?$AAl?$AA3?$AA2?$AA?9?$AAp?$AAa?$AAc?$AAk?$AAa?$AAg?$AAe?$AA?9?$AAc?$AAu?$AAr?$AAr@ 1007e690     libucrt:winapi_thunks.obj
 0002:0000c6f8       ??_C@_1EG@DBIOJECG@?$AAe?$AAx?$AAt?$AA?9?$AAm?$AAs?$AA?9?$AAw?$AAi?$AAn?$AA?9?$AAn?$AAt?$AAu?$AAs?$AAe?$AAr?$AA?9?$AAd?$AAi?$AAa?$AAl?$AAo?$AAg?$AAb?$AAo?$AAx?$AA?9?$AAl?$AA1?$AA?9?$AA1@ 1007e6f8     libucrt:winapi_thunks.obj
 0002:0000c750       ??_C@_1EO@FIHMJCLF@?$AAe?$AAx?$AAt?$AA?9?$AAm?$AAs?$AA?9?$AAw?$AAi?$AAn?$AA?9?$AAn?$AAt?$AAu?$AAs?$AAe?$AAr?$AA?9?$AAw?$AAi?$AAn?$AAd?$AAo?$AAw?$AAs?$AAt?$AAa?$AAt?$AAi?$AAo?$AAn?$AA?9@ 1007e750     libucrt:winapi_thunks.obj
 0002:0000c7b0       ??_C@_1O@BCCLBEOE@?$AAu?$AAs?$AAe?$AAr?$AA3?$AA2?$AA?$AA@ 1007e7b0     libucrt:winapi_thunks.obj
 0002:0000c7c4       ??_C@_0BA@FHFNEAED@AreFileApisANSI?$AA@ 1007e7c4     libucrt:winapi_thunks.obj
 0002:0000c7e4       ??_C@_0BA@IHGNDAEB@CompareStringEx?$AA@ 1007e7e4     libucrt:winapi_thunks.obj
 0002:0000c804       ??_C@_0BE@LJANKFHF@EnumSystemLocalesEx?$AA@ 1007e804     libucrt:winapi_thunks.obj
 0002:0000c858       ??_C@_0BA@HNOPNCHB@GetActiveWindow?$AA@ 1007e858     libucrt:winapi_thunks.obj
 0002:0000c878       ??_C@_0BE@JOGNEJCI@GetCurrentPackageId?$AA@ 1007e878     libucrt:winapi_thunks.obj
 0002:0000c89c       ??_C@_0BA@EPCJIIPD@GetDateFormatEx?$AA@ 1007e89c     libucrt:winapi_thunks.obj
 0002:0000c8bc       ??_C@_0BJ@DIBIJBHA@GetEnabledXStateFeatures?$AA@ 1007e8bc     libucrt:winapi_thunks.obj
 0002:0000c8e8       ??_C@_0BN@NEEHBBPO@GetFileInformationByHandleEx?$AA@ 1007e8e8     libucrt:winapi_thunks.obj
 0002:0000c918       ??_C@_0BD@HHGDFDBJ@GetLastActivePopup?$AA@ 1007e918     libucrt:winapi_thunks.obj
 0002:0000c93c       ??_C@_0BA@ONOKGCMP@GetLocaleInfoEx?$AA@ 1007e93c     libucrt:winapi_thunks.obj
 0002:0000c95c       ??_C@_0BI@DFKBFLJE@GetProcessWindowStation?$AA@ 1007e95c     libucrt:winapi_thunks.obj
 0002:0000c97c       ??_C@_0BP@FPNJPEJC@GetSystemTimePreciseAsFileTime?$AA@ 1007e97c     libucrt:winapi_thunks.obj
 0002:0000c9b0       ??_C@_0BA@CIJJKCJJ@GetTimeFormatEx?$AA@ 1007e9b0     libucrt:winapi_thunks.obj
 0002:0000c9d0       ??_C@_0BJ@PBCCBIPI@GetUserDefaultLocaleName?$AA@ 1007e9d0     libucrt:winapi_thunks.obj
 0002:0000c9fc       ??_C@_0BK@DEKFELLI@GetUserObjectInformationW?$AA@ 1007e9fc     libucrt:winapi_thunks.obj
 0002:0000ca28       ??_C@_0BG@IKLDMBLM@GetXStateFeaturesMask?$AA@ 1007ea28     libucrt:winapi_thunks.obj
 0002:0000ca5c       ??_C@_0BC@CELBKLLA@IsValidLocaleName?$AA@ 1007ea5c     libucrt:winapi_thunks.obj
 0002:0000ca80       ??_C@_0O@KKBNKAPF@LCMapStringEx?$AA@ 1007ea80     libucrt:winapi_thunks.obj
 0002:0000ca9c       ??_C@_0BB@CDHDDLLP@LCIDToLocaleName?$AA@ 1007ea9c     libucrt:winapi_thunks.obj
 0002:0000cabc       ??_C@_0BB@HBDEELFH@LocaleNameToLCID?$AA@ 1007eabc     libucrt:winapi_thunks.obj
 0002:0000cadc       ??_C@_0BE@KINNKFDA@LocateXStateFeature?$AA@ 1007eadc     libucrt:winapi_thunks.obj
 0002:0000cb00       ??_C@_0M@CHKKJDAI@MessageBoxA?$AA@ 1007eb00     libucrt:winapi_thunks.obj
 0002:0000cb1c       ??_C@_0M@DLDCCGNP@MessageBoxW?$AA@ 1007eb1c     libucrt:winapi_thunks.obj
 0002:0000cb30       ??_C@_0N@PPOMPGGK@RoInitialize?$AA@ 1007eb30     libucrt:winapi_thunks.obj
 0002:0000cb44       ??_C@_0P@LLFHBIJD@RoUninitialize?$AA@ 1007eb44     libucrt:winapi_thunks.obj
 0002:0000cb64       ??_C@_0BI@BKLFFAPO@SetThreadStackGuarantee?$AA@ 1007eb64     libucrt:winapi_thunks.obj
 0002:0000cb8c       ??_C@_0BC@JEAENNKH@SystemFunction036?$AA@ 1007eb8c     libucrt:winapi_thunks.obj
 0002:0000cba4       ??_C@_03OEIAHPBN@INF?$AA@  1007eba4     libucrt:cvt.obj
 0002:0000cba8       ??_C@_03OJHLLCGB@inf?$AA@  1007eba8     libucrt:cvt.obj
 0002:0000cbac       ??_C@_03LKNCIKJB@NAN?$AA@  1007ebac     libucrt:cvt.obj
 0002:0000cbb0       ??_C@_03LHCJEHON@nan?$AA@  1007ebb0     libucrt:cvt.obj
 0002:0000cbb4       ??_C@_09OFJJIMPC@NAN?$CISNAN?$CJ?$AA@ 1007ebb4     libucrt:cvt.obj
 0002:0000cbc0       ??_C@_09IPFBKMDL@nan?$CIsnan?$CJ?$AA@ 1007ebc0     libucrt:cvt.obj
 0002:0000cbcc       ??_C@_08IKHNHAJ@NAN?$CIIND?$CJ?$AA@ 1007ebcc     libucrt:cvt.obj
 0002:0000cbd8       ??_C@_08OFCDMILK@nan?$CIind?$CJ?$AA@ 1007ebd8     libucrt:cvt.obj
 0002:0000cbe4       ??_C@_05KLBDPFGC@e?$CL000?$AA@ 1007ebe4     libucrt:cvt.obj
 0002:0000cbf0       ___lc_category             1007ebf0     libucrt:wsetlocale.obj
 0002:0000cc48       ??_C@_1O@GIFLHMA@?$AAL?$AAC?$AA_?$AAA?$AAL?$AAL?$AA?$AA@ 1007ec48     libucrt:wsetlocale.obj
 0002:0000cc58       ??_C@_1BG@PPOMIBNJ@?$AAL?$AAC?$AA_?$AAC?$AAO?$AAL?$AAL?$AAA?$AAT?$AAE?$AA?$AA@ 1007ec58     libucrt:wsetlocale.obj
 0002:0000cc74       ??_C@_1BC@FFJGAPJM@?$AAL?$AAC?$AA_?$AAC?$AAT?$AAY?$AAP?$AAE?$AA?$AA@ 1007ec74     libucrt:wsetlocale.obj
 0002:0000cc8c       ??_C@_1BI@PCKFNJFB@?$AAL?$AAC?$AA_?$AAM?$AAO?$AAN?$AAE?$AAT?$AAA?$AAR?$AAY?$AA?$AA@ 1007ec8c     libucrt:wsetlocale.obj
 0002:0000cca8       ??_C@_1BG@ENIEDKID@?$AAL?$AAC?$AA_?$AAN?$AAU?$AAM?$AAE?$AAR?$AAI?$AAC?$AA?$AA@ 1007eca8     libucrt:wsetlocale.obj
 0002:0000ccc4       ??_C@_1BA@HAAOMIIG@?$AAL?$AAC?$AA_?$AAT?$AAI?$AAM?$AAE?$AA?$AA@ 1007ecc4     libucrt:wsetlocale.obj
 0002:0000cd70       ??_C@_15NBPDDFIP@?$AA?$DN?$AA?$DL?$AA?$AA@ 1007ed70     libucrt:wsetlocale.obj
 0002:0000cd78       ??_C@_13PJJBFPED@?$AA?$DL?$AA?$AA@ 1007ed78     libucrt:wsetlocale.obj
 0002:0000cd7c       ??_C@_13NMPKAAJP@?$AA?$DN?$AA?$AA@ 1007ed7c     libucrt:wsetlocale.obj
 0002:0000cd80       ??_C@_13FHBKNHDA@?$AAC?$AA?$AA@ 1007ed80     libucrt:wsetlocale.obj
 0002:0000cd84       ??_C@_17MBJJLFDM@?$AA_?$AA?4?$AA?0?$AA?$AA@ 1007ed84     libucrt:wsetlocale.obj
 0002:0000cd90       ??_C@_13ENNFDPBH@?$AA_?$AA?$AA@ 1007ed90     libucrt:wsetlocale.obj
 0002:0000cd94       ??_C@_13JOFGPIOO@?$AA?4?$AA?$AA@ 1007ed94     libucrt:wsetlocale.obj
 0002:0000cd98       ??_C@_03KOEHGMDN@Sun?$AA@  1007ed98     libucrt:nlsdata.obj
 0002:0000cd9c       ??_C@_03PDAGKDH@Mon?$AA@   1007ed9c     libucrt:nlsdata.obj
 0002:0000cda0       ??_C@_03NAGEINEP@Tue?$AA@  1007eda0     libucrt:nlsdata.obj
 0002:0000cda4       ??_C@_03MHOMLAJA@Wed?$AA@  1007eda4     libucrt:nlsdata.obj
 0002:0000cda8       ??_C@_03IOFIKPDN@Thu?$AA@  1007eda8     libucrt:nlsdata.obj
 0002:0000cdac       ??_C@_03IDIOELNC@Fri?$AA@  1007edac     libucrt:nlsdata.obj
 0002:0000cdb0       ??_C@_03FEFJNEK@Sat?$AA@   1007edb0     libucrt:nlsdata.obj
 0002:0000cdb4       ??_C@_06OOPIFAJ@Sunday?$AA@ 1007edb4     libucrt:nlsdata.obj
 0002:0000cdbc       ??_C@_06JLEDEDGH@Monday?$AA@ 1007edbc     libucrt:nlsdata.obj
 0002:0000cdc4       ??_C@_07BAAGCFCM@Tuesday?$AA@ 1007edc4     libucrt:nlsdata.obj
 0002:0000cdd0       ??_C@_09DLIGFAKA@Wednesday?$AA@ 1007edd0     libucrt:nlsdata.obj
 0002:0000cddc       ??_C@_08HACCIKIA@Thursday?$AA@ 1007eddc     libucrt:nlsdata.obj
 0002:0000cde8       ??_C@_06JECMNKMI@Friday?$AA@ 1007ede8     libucrt:nlsdata.obj
 0002:0000cdf0       ??_C@_08INBOOONO@Saturday?$AA@ 1007edf0     libucrt:nlsdata.obj
 0002:0000cdfc       ??_C@_03JIHJHPIE@Jan?$AA@  1007edfc     libucrt:nlsdata.obj
 0002:0000ce00       ??_C@_03HJBDCHOM@Feb?$AA@  1007ee00     libucrt:nlsdata.obj
 0002:0000ce04       ??_C@_03ODNJBKGA@Mar?$AA@  1007ee04     libucrt:nlsdata.obj
 0002:0000ce08       ??_C@_03LEOLGMJP@Apr?$AA@  1007ee08     libucrt:nlsdata.obj
 0002:0000ce0c       ??_C@_03CNMDKL@May?$AA@    1007ee0c     libucrt:nlsdata.obj
 0002:0000ce10       ??_C@_03IDFGHECI@Jun?$AA@  1007ee10     libucrt:nlsdata.obj
 0002:0000ce14       ??_C@_03LBGABGKK@Jul?$AA@  1007ee14     libucrt:nlsdata.obj
 0002:0000ce18       ??_C@_03IFJFEIGA@Aug?$AA@  1007ee18     libucrt:nlsdata.obj
 0002:0000ce1c       ??_C@_03GGCAPAJC@Sep?$AA@  1007ee1c     libucrt:nlsdata.obj
 0002:0000ce20       ??_C@_03BMAOKBAD@Oct?$AA@  1007ee20     libucrt:nlsdata.obj
 0002:0000ce24       ??_C@_03JPJOFNIA@Nov?$AA@  1007ee24     libucrt:nlsdata.obj
 0002:0000ce28       ??_C@_03MKABNOCG@Dec?$AA@  1007ee28     libucrt:nlsdata.obj
 0002:0000ce2c       ??_C@_07CGJPFGJA@January?$AA@ 1007ee2c     libucrt:nlsdata.obj
 0002:0000ce38       ??_C@_08GNJGEPFN@February?$AA@ 1007ee38     libucrt:nlsdata.obj
 0002:0000ce44       ??_C@_05HPCKOFNC@March?$AA@ 1007ee44     libucrt:nlsdata.obj
 0002:0000ce4c       ??_C@_05DMJDNLEJ@April?$AA@ 1007ee4c     libucrt:nlsdata.obj
 0002:0000ce54       ??_C@_04CNLMGBGM@June?$AA@ 1007ee54     libucrt:nlsdata.obj
 0002:0000ce5c       ??_C@_04MIEPOIFP@July?$AA@ 1007ee5c     libucrt:nlsdata.obj
 0002:0000ce64       ??_C@_06LBBHFDDG@August?$AA@ 1007ee64     libucrt:nlsdata.obj
 0002:0000ce6c       ??_C@_09BHHEALKD@September?$AA@ 1007ee6c     libucrt:nlsdata.obj
 0002:0000ce78       ??_C@_07JJNFCEND@October?$AA@ 1007ee78     libucrt:nlsdata.obj
 0002:0000ce84       ??_C@_08HCHEGEOA@November?$AA@ 1007ee84     libucrt:nlsdata.obj
 0002:0000ce90       ??_C@_08EDHMEBNP@December?$AA@ 1007ee90     libucrt:nlsdata.obj
 0002:0000ce9c       ??_C@_02DEDBPAFC@AM?$AA@   1007ee9c     libucrt:nlsdata.obj
 0002:0000cea0       ??_C@_02CJNFDJBF@PM?$AA@   1007eea0     libucrt:nlsdata.obj
 0002:0000cea4       ??_C@_08BPBNCDIB@MM?1dd?1yy?$AA@ 1007eea4     libucrt:nlsdata.obj
 0002:0000ceb0       ??_C@_0BE@CKGJFCPC@dddd?0?5MMMM?5dd?0?5yyyy?$AA@ 1007eeb0     libucrt:nlsdata.obj
 0002:0000cec8       ??_C@_08JCCMCCIL@HH?3mm?3ss?$AA@ 1007eec8     libucrt:nlsdata.obj
 0002:0000ced4       ??_C@_17MBGCMIPB@?$AAS?$AAu?$AAn?$AA?$AA@ 1007eed4     libucrt:nlsdata.obj
 0002:0000cee0       ??_C@_17KBOMKBF@?$AAM?$AAo?$AAn?$AA?$AA@ 1007eee0     libucrt:nlsdata.obj
 0002:0000ceec       ??_C@_17BMKGEGOJ@?$AAT?$AAu?$AAe?$AA?$AA@ 1007eeec     libucrt:nlsdata.obj
 0002:0000cef8       ??_C@_17CJEDCEPE@?$AAW?$AAe?$AAd?$AA?$AA@ 1007eef8     libucrt:nlsdata.obj
 0002:0000cf04       ??_C@_17PDPHAADD@?$AAT?$AAh?$AAu?$AA?$AA@ 1007ef04     libucrt:nlsdata.obj
 0002:0000cf10       ??_C@_17HFOLPPLP@?$AAF?$AAr?$AAi?$AA?$AA@ 1007ef10     libucrt:nlsdata.obj
 0002:0000cf1c       ??_C@_17GGIBDPIH@?$AAS?$AAa?$AAt?$AA?$AA@ 1007ef1c     libucrt:nlsdata.obj
 0002:0000cf28       ??_C@_1O@IHNHDHPB@?$AAS?$AAu?$AAn?$AAd?$AAa?$AAy?$AA?$AA@ 1007ef28     libucrt:nlsdata.obj
 0002:0000cf38       ??_C@_1O@MMNBFLIA@?$AAM?$AAo?$AAn?$AAd?$AAa?$AAy?$AA?$AA@ 1007ef38     libucrt:nlsdata.obj
 0002:0000cf48       ??_C@_1BA@ENFBFFEK@?$AAT?$AAu?$AAe?$AAs?$AAd?$AAa?$AAy?$AA?$AA@ 1007ef48     libucrt:nlsdata.obj
 0002:0000cf5c       ??_C@_1BE@EBOGMDOH@?$AAW?$AAe?$AAd?$AAn?$AAe?$AAs?$AAd?$AAa?$AAy?$AA?$AA@ 1007ef5c     libucrt:nlsdata.obj
 0002:0000cf74       ??_C@_1BC@HHMNLIHE@?$AAT?$AAh?$AAu?$AAr?$AAs?$AAd?$AAa?$AAy?$AA?$AA@ 1007ef74     libucrt:nlsdata.obj
 0002:0000cf8c       ??_C@_1O@PDICJHAG@?$AAF?$AAr?$AAi?$AAd?$AAa?$AAy?$AA?$AA@ 1007ef8c     libucrt:nlsdata.obj
 0002:0000cf9c       ??_C@_1BC@ENMNNPAJ@?$AAS?$AAa?$AAt?$AAu?$AAr?$AAd?$AAa?$AAy?$AA?$AA@ 1007ef9c     libucrt:nlsdata.obj
 0002:0000cfb4       ??_C@_17DKNBKCHM@?$AAJ?$AAa?$AAn?$AA?$AA@ 1007efb4     libucrt:nlsdata.obj
 0002:0000cfc0       ??_C@_17LMDJEKJN@?$AAF?$AAe?$AAb?$AA?$AA@ 1007efc0     libucrt:nlsdata.obj
 0002:0000cfcc       ??_C@_17CKNLEDEC@?$AAM?$AAa?$AAr?$AA?$AA@ 1007efcc     libucrt:nlsdata.obj
 0002:0000cfd8       ??_C@_17LFPOIHDD@?$AAA?$AAp?$AAr?$AA?$AA@ 1007efd8     libucrt:nlsdata.obj
 0002:0000cfe4       ??_C@_17PNNKMEED@?$AAM?$AAa?$AAy?$AA?$AA@ 1007efe4     libucrt:nlsdata.obj
 0002:0000cff0       ??_C@_17KCJGOCPB@?$AAJ?$AAu?$AAn?$AA?$AA@ 1007eff0     libucrt:nlsdata.obj
 0002:0000cffc       ??_C@_17IJPCKHK@?$AAJ?$AAu?$AAl?$AA?$AA@ 1007effc     libucrt:nlsdata.obj
 0002:0000d008       ??_C@_17ICPELBCN@?$AAA?$AAu?$AAg?$AA?$AA@ 1007f008     libucrt:nlsdata.obj
 0002:0000d014       ??_C@_17HCHCOKMG@?$AAS?$AAe?$AAp?$AA?$AA@ 1007f014     libucrt:nlsdata.obj
 0002:0000d020       ??_C@_17FNLKOI@?$AAO?$AAc?$AAt?$AA?$AA@ 1007f020     libucrt:nlsdata.obj
 0002:0000d02c       ??_C@_17BBDMLCIG@?$AAN?$AAo?$AAv?$AA?$AA@ 1007f02c     libucrt:nlsdata.obj
 0002:0000d038       ??_C@_17EGKACKIF@?$AAD?$AAe?$AAc?$AA?$AA@ 1007f038     libucrt:nlsdata.obj
 0002:0000d044       ??_C@_1BA@EFMEIEBA@?$AAJ?$AAa?$AAn?$AAu?$AAa?$AAr?$AAy?$AA?$AA@ 1007f044     libucrt:nlsdata.obj
 0002:0000d058       ??_C@_1BC@JGDDFFAM@?$AAF?$AAe?$AAb?$AAr?$AAu?$AAa?$AAr?$AAy?$AA?$AA@ 1007f058     libucrt:nlsdata.obj
 0002:0000d070       ??_C@_1M@IKEENEDF@?$AAM?$AAa?$AAr?$AAc?$AAh?$AA?$AA@ 1007f070     libucrt:nlsdata.obj
 0002:0000d080       ??_C@_1M@GJNLMHFD@?$AAA?$AAp?$AAr?$AAi?$AAl?$AA?$AA@ 1007f080     libucrt:nlsdata.obj
 0002:0000d090       ??_C@_19EPFLPGAP@?$AAJ?$AAu?$AAn?$AAe?$AA?$AA@ 1007f090     libucrt:nlsdata.obj
 0002:0000d09c       ??_C@_19BIFMLPCD@?$AAJ?$AAu?$AAl?$AAy?$AA?$AA@ 1007f09c     libucrt:nlsdata.obj
 0002:0000d0a8       ??_C@_1O@PAHLKOAC@?$AAA?$AAu?$AAg?$AAu?$AAs?$AAt?$AA?$AA@ 1007f0a8     libucrt:nlsdata.obj
 0002:0000d0b8       ??_C@_1BE@DKAAMBJL@?$AAS?$AAe?$AAp?$AAt?$AAe?$AAm?$AAb?$AAe?$AAr?$AA?$AA@ 1007f0b8     libucrt:nlsdata.obj
