 untitled_xpc

 Timestamp is 5f1e8521 (Mon Jul 27 15:41:21 2020)

 Preferred load address is 10000000

 Start         Length     Name                   Class
 0001:00000000 00032a79H .text                   CODE
 0002:00000000 00000104H .CRT$XCA                DATA
 0002:00000104 00000104H .CRT$XCZ                DATA
 0002:00000208 00000104H .CRT$XIA                DATA
 0002:0000030c 00000113H .CRT$XIC                DATA
 0002:00000420 00000104H .CRT$XIZ                DATA
 0002:00000524 00000104H .CRT$XPA                DATA
 0002:00000628 00000104H .CRT$XPX                DATA
 0002:0000072c 00000104H .CRT$XPXA               DATA
 0002:00000830 00000104H .CRT$XPZ                DATA
 0002:00000934 00000104H .CRT$XTA                DATA
 0002:00000a38 00000104H .CRT$XTZ                DATA
 0002:00000b40 00005d36H .rdata                  DATA
 0002:00006878 00000175H .rdata$debug            DATA
 0002:000069f0 0000010eH .rdata$sxdata           DATA
 0002:00006b00 00000104H .rtc$IAA                DATA
 0002:00006c04 00000104H .rtc$IZZ                DATA
 0002:00006d08 00000104H .rtc$TAA                DATA
 0002:00006e0c 00000104H .rtc$TZZ                DATA
 0002:00006f10 000008f8H .xdata$x                DATA
 0002:00007810 00000215H .edata                  DATA
 0003:00000000 00001a29H .data                   DATA
 0003:00001a40 00013a64H .bss                    DATA
 0004:00000000 00000014H .idata$2                DATA
 0004:00000014 00000014H .idata$3                DATA
 0004:00000028 000001acH .idata$4                DATA
 0004:000001d4 000001acH .idata$5                DATA
 0004:00000380 00000751H .idata$6                DATA

  Address         Publics by Value              Rva+Base       Lib:Object

 0000:00000000       __except_list              00000000     <absolute>
 0000:00000003       ___safe_se_handler_count   00000003     <absolute>
 0000:00000000       ___ImageBase               10000000     <linker-defined>
 0001:00000510       _MdlOutputs                10001510 f   untitled.obj
 0001:00000540       _MdlUpdate                 10001540 f   untitled.obj
 0001:00000550       _MdlInitializeSizes        10001550 f   untitled.obj
 0001:00000560       _MdlInitializeSampleTimes  10001560 f   untitled.obj
 0001:00000570       _MdlInitialize             10001570 f   untitled.obj
 0001:00000580       _MdlStart                  10001580 f   untitled.obj
 0001:00000590       _MdlTerminate              10001590 f   untitled.obj
 0001:000005a0       _untitled                  100015a0 f   untitled.obj
 0001:000007a0       _rtGetInfF                 100017a0 f   rtGetInf.obj
 0001:000007c0       _rtGetMinusInfF            100017c0 f   rtGetInf.obj
 0001:000007e0       _rtGetInf                  100017e0 f   rtGetInf.obj
 0001:00000810       _rtGetMinusInf             10001810 f   rtGetInf.obj
 0001:00000840       _rtGetNaNF                 10001840 f   rtGetNaN.obj
 0001:00000860       _rtGetNaN                  10001860 f   rtGetNaN.obj
 0001:00000e10       _rt_GetMxIdFromDTypeIdForRSim 10001e10 f   rt_logging.obj
 0001:00000eb0       _rt_GetMxIdFromDTypeId     10001eb0 f   rt_logging.obj
 0001:00003010       _rt_CreateLogVarWithConvert 10004010 f   rt_logging.obj
 0001:00003960       _rt_CreateLogVar           10004960 f   rt_logging.obj
 0001:00003a00       _rt_UpdateLogVar           10004a00 f   rt_logging.obj
 0001:000049a0       _rt_UpdateStructLogVar     100059a0 f   rt_logging.obj
 0001:00004a30       _rt_UpdateTXXFYLogVars     10005a30 f   rt_logging.obj
 0001:00004d70       _rt_StopDataLoggingImpl    10005d70 f   rt_logging.obj
 0001:00005060       _rt_StopDataLogging        10006060 f   rt_logging.obj
 0001:00006dd0       _rt_CreateStructLogVar     10007dd0 f   rt_logging.obj
 0001:00006e50       _rt_StartDataLoggingWithStartTime 10007e50 f   rt_logging.obj
 0001:00007760       _rt_StartDataLogging       10008760 f   rt_logging.obj
 0001:000077b0       _rt_UpdateTXYLogVars       100087b0 f   rt_logging.obj
 0001:000077d0       _rt_FillStateSigInfoFromMMI 100087d0 f   rt_logging_mmi.obj
 0001:00007b70       _rt_CleanUpForStateLogWithMMI 10008b70 f   rt_logging_mmi.obj
 0001:00007c80       _rt_InitInfAndNaN          10008c80 f   rt_nonfinite.obj
 0001:00007ce0       _rtIsInf                   10008ce0 f   rt_nonfinite.obj
 0001:00007d20       _rtIsInfF                  10008d20 f   rt_nonfinite.obj
 0001:00007d60       _rtIsNaN                   10008d60 f   rt_nonfinite.obj
 0001:00007d90       _rtIsNaNF                  10008d90 f   rt_nonfinite.obj
 0001:00007dc0       _rtwCAPI_EncodePath        10008dc0 f   rtw_modelmap_utils.obj
 0001:00007eb0       _rtwCAPI_GetSigAddrFromMap 10008eb0 f   rtw_modelmap_utils.obj
 0001:00007f90       _rtwCAPI_HasStates         10008f90 f   rtw_modelmap_utils.obj
 0001:00008000       _rtwCAPI_GetNumStateRecords 10009000 f   rtw_modelmap_utils.obj
 0001:00008060       _rtwCAPI_GetNumStateRecordsForRTWLogging 10009060 f   rtw_modelmap_utils.obj
 0001:000080f0       _rtwCAPI_GetNumContStateRecords 100090f0 f   rtw_modelmap_utils.obj
 0001:000081b0       _rtwCAPI_FreeFullPaths     100091b0 f   rtw_modelmap_utils.obj
 0001:00008230       _rtwCAPI_UpdateFullPaths   10009230 f   rtw_modelmap_utils.obj
 0001:00008410       _rtwCAPI_GetFullStateBlockPath 10009410 f   rtw_modelmap_utils.obj
 0001:000085b0       _rtwCAPI_GetStateWidth     100095b0 f   rtw_modelmap_utils.obj
 0001:00008610       _rtwCAPI_GetStateRecordInfo 10009610 f   rtw_modelmap_utils.obj
 0001:00008ae0       _rtwCAPI_GetNumSigLogRecords 10009ae0 f   rtw_modelmap_utils.obj
 0001:00008b40       _rtwCAPI_GetNumSigLogRecordsForRTWLogging 10009b40 f   rtw_modelmap_utils.obj
 0001:00008bd0       _rtwCAPI_GetSigLogRecordInfo 10009bd0 f   rtw_modelmap_utils.obj
 0001:00009020       _rtwCAPI_CountSysRan       1000a020 f   rtw_modelmap_utils.obj
 0001:000090c0       _rtwCAPI_FillSysRan        1000a0c0 f   rtw_modelmap_utils.obj
 0001:000091b0       _untitled_GetCAPIStaticMap 1000a1b0 f   untitled_capi.obj
 0001:000091c0       _untitled_InitializeDataMapInfo 1000a1c0 f   untitled_capi.obj
 0001:00009240       _TgtConnBackgroundTask     1000a240 f   untitled_tgtconn.obj
 0001:00009250       _TgtConnInit               1000a250 f   untitled_tgtconn.obj
 0001:00009270       _TgtConnTerm               1000a270 f   untitled_tgtconn.obj
 0001:00009280       _TgtConnPreStep            1000a280 f   untitled_tgtconn.obj
 0001:00009290       _TgtConnPostStep           1000a290 f   untitled_tgtconn.obj
 0001:000092a0       _untitled_ChangeStepSize   1000a2a0 f   xpctarget.obj
 0001:000092f0       _changeStepSize            1000a2f0 f   xpctarget.obj
 0001:00009340       _SLRTSetErrorStatus        1000a340 f   xpctarget.obj
 0001:00009360       _updateDiscreteEvents      1000a360 f   xpctarget.obj
 0001:00009370       _DllMain@12                1000a370 f   xpctarget.obj
 0001:00009380       _getrlmdlinfo              1000a380 f   xpctarget.obj
 0001:00009570       _getDLMVersion             1000a570 f   xpctarget.obj
 0001:00009580       _getRefMdlPath             1000a580 f   xpctarget.obj
 0001:00009600       _getRefMdlSignalNumber     1000a600 f   xpctarget.obj
 0001:000096b0       _getNumRef                 1000a6b0 f   appmappingData.obj
 0001:00009990       _xpcGetPciConfigAtSlot     1000a990 f   xpcruntime:xpcimports.obj
 0001:00009c10       _ShowPCIDevice             1000ac10 f   xpcruntime:xpcimports.obj
 0001:00009cd0       _xpcInitProcs              1000acd0 f   xpcruntime:xpcimports.obj
 0001:0000a830       _xpceuploadevent           1000b830 f   xpcruntime:xpcimports.obj
 0001:0000ab30       _GetPCIDeviceFull          1000bb30 f   xpcruntime:xpcimports.obj
 0001:0000ab78       __heap_alloc               1000bb78 f i LIBCMT:malloc.obj
 0001:0000abb7       _malloc                    1000bbb7 f   LIBCMT:malloc.obj
 0001:0000ac4b       __cfltcvt_init             1000bc4b f   LIBCMT:_fpinit_.obj
 0001:0000acab       ___setfflag                1000bcab f   LIBCMT:_fpinit_.obj
 0001:0000acc0       __fpmath                   1000bcc0 f   LIBCMT:_fpinit_.obj
 0001:0000acd9       _printf                    1000bcd9 f   LIBCMT:printf.obj
 0001:0000ad80       __printf_l                 1000bd80 f   LIBCMT:printf.obj
 0001:0000ad99       __printf_s_l               1000bd99 f   LIBCMT:printf.obj
 0001:0000adb2       _printf_s                  1000bdb2 f   LIBCMT:printf.obj
 0001:0000adca       __printf_p_l               1000bdca f   LIBCMT:printf.obj
 0001:0000ade3       __printf_p                 1000bde3 f   LIBCMT:printf.obj
 0001:0000adfb       __set_printf_count_output  1000bdfb f   LIBCMT:printf.obj
 0001:0000ae25       __get_printf_count_output  1000be25 f   LIBCMT:printf.obj
 0001:0000ae40       _memset                    1000be40 f   LIBCMT:memset.obj
 0001:0000aeba       _free                      1000beba f   LIBCMT:free.obj
 0001:0000aef4       _ldexp                     1000bef4 f   LIBCMT:_ldexp_.obj
 0001:0000b0a6       _calloc                    1000c0a6 f   LIBCMT:calloc.obj
 0001:0000b0e6       _fprintf                   1000c0e6 f   LIBCMT:fprintf.obj
 0001:0000b1f2       __fprintf_l                1000c1f2 f   LIBCMT:fprintf.obj
 0001:0000b20e       __fprintf_s_l              1000c20e f   LIBCMT:fprintf.obj
 0001:0000b22a       _fprintf_s                 1000c22a f   LIBCMT:fprintf.obj
 0001:0000b245       __fprintf_p_l              1000c245 f   LIBCMT:fprintf.obj
 0001:0000b261       __fprintf_p                1000c261 f   LIBCMT:fprintf.obj
 0001:0000b27c       ___iob_func                1000c27c f   LIBCMT:_file.obj
 0001:0000b282       ___initstdio               1000c282 f   LIBCMT:_file.obj
 0001:0000b333       ___endstdio                1000c333 f   LIBCMT:_file.obj
 0001:0000b353       __lock_file                1000c353 f   LIBCMT:_file.obj
 0001:0000b394       __lock_file2               1000c394 f   LIBCMT:_file.obj
 0001:0000b3c6       __unlock_file              1000c3c6 f   LIBCMT:_file.obj
 0001:0000b402       __unlock_file2             1000c402 f   LIBCMT:_file.obj
 0001:0000b431       @__security_check_cookie@4 1000c431 f   LIBCMT:secchk.obj
 0001:0000b440       __fwrite_nolock            1000c440 f   LIBCMT:fwrite.obj
 0001:0000b597       _fwrite                    1000c597 f   LIBCMT:fwrite.obj
 0001:0000b620       _memcpy                    1000c620 f   LIBCMT:memcpy.obj
 0001:0000b990       _memmove                   1000c990 f   LIBCMT:memmove.obj
 0001:0000bcf1       _remove                    1000ccf1 f   LIBCMT:unlink.obj
 0001:0000bd21       __unlink                   1000cd21 f   LIBCMT:unlink.obj
 0001:0000bd2c       __fclose_nolock            1000cd2c f   LIBCMT:fclose.obj
 0001:0000bd99       _fclose                    1000cd99 f   LIBCMT:fclose.obj
 0001:0000be0d       __fread_nolock_s           1000ce0d f   LIBCMT:fread.obj
 0001:0000bfc9       __fread_nolock             1000cfc9 f   LIBCMT:fread.obj
 0001:0000bfe6       _fread_s                   1000cfe6 f   LIBCMT:fread.obj
 0001:0000c074       _fread                     1000d074 f   LIBCMT:fread.obj
 0001:0000c091       _rewind                    1000d091 f   LIBCMT:rewind.obj
 0001:0000c14f       __fsopen                   1000d14f f   LIBCMT:fopen.obj
 0001:0000c20b       _fopen                     1000d20b f   LIBCMT:fopen.obj
 0001:0000c222       _fopen_s                   1000d222 f   LIBCMT:fopen.obj
 0001:0000c269       _sprintf                   1000d269 f   LIBCMT:sprintf.obj
 0001:0000c2ed       __sprintf_l                1000d2ed f   LIBCMT:sprintf.obj
 0001:0000c309       _sprintf_s                 1000d309 f   LIBCMT:sprintf.obj
 0001:0000c327       __sprintf_s_l              1000d327 f   LIBCMT:sprintf.obj
 0001:0000c346       __snprintf_s               1000d346 f   LIBCMT:sprintf.obj
 0001:0000c367       __snprintf_s_l             1000d367 f   LIBCMT:sprintf.obj
 0001:0000c389       __sprintf_p                1000d389 f   LIBCMT:sprintf.obj
 0001:0000c3a7       __sprintf_p_l              1000d3a7 f   LIBCMT:sprintf.obj
 0001:0000c3c6       __scprintf                 1000d3c6 f   LIBCMT:sprintf.obj
 0001:0000c3db       __scprintf_p               1000d3db f   LIBCMT:sprintf.obj
 0001:0000c3f0       __scprintf_l               1000d3f0 f   LIBCMT:sprintf.obj
 0001:0000c409       __scprintf_p_l             1000d409 f   LIBCMT:sprintf.obj
 0001:0000c430       _strncat                   1000d430 f   LIBCMT:strncat.obj
 0001:0000c570       _strncpy                   1000d570 f   LIBCMT:strncpy.obj
 0001:0000c694       ___crtCorExitProcess       1000d694 f   LIBCMT:crt0dat.obj
 0001:0000c6bf       ___crtExitProcess          1000d6bf f   LIBCMT:crt0dat.obj
 0001:0000c6d7       __lockexit                 1000d6d7 f   LIBCMT:crt0dat.obj
 0001:0000c6e0       __unlockexit               1000d6e0 f   LIBCMT:crt0dat.obj
 0001:0000c6e9       __init_pointers            1000d6e9 f   LIBCMT:crt0dat.obj
 0001:0000c739       __initterm_e               1000d739 f   LIBCMT:crt0dat.obj
 0001:0000c75d       __get_wpgmptr              1000d75d f   LIBCMT:crt0dat.obj
 0001:0000c78d       __get_pgmptr               1000d78d f   LIBCMT:crt0dat.obj
 0001:0000c7bd       __cinit                    1000d7bd f   LIBCMT:crt0dat.obj
 0001:0000c994       _exit                      1000d994 f   LIBCMT:crt0dat.obj
 0001:0000c9aa       __exit                     1000d9aa f   LIBCMT:crt0dat.obj
 0001:0000c9c0       __cexit                    1000d9c0 f   LIBCMT:crt0dat.obj
 0001:0000c9cf       __c_exit                   1000d9cf f   LIBCMT:crt0dat.obj
 0001:0000c9de       __amsg_exit                1000d9de f   LIBCMT:crt0dat.obj
 0001:0000c9fc       _realloc                   1000d9fc f   LIBCMT:realloc.obj
 0001:0000cac0       _strchr                    1000dac0 f   LIBCMT:strchr.obj
 0001:0000cac6       ___from_strstr_to_strchr   1000dac6     LIBCMT:strchr.obj
 0001:0000cb7e       __invoke_watson_if_error   1000db7e f i LIBCMT:wassert.obj
 0001:0000cbbd       __wassert                  1000dbbd f   LIBCMT:wassert.obj
 0001:0000d222       __CRT_INIT@12              1000e222 f   LIBCMT:dllcrt0.obj
 0001:0000d47c       __DllMainCRTStartup@12     1000e47c f   LIBCMT:dllcrt0.obj
 0001:0000d49f       __GET_RTERRMSG             1000e49f f   LIBCMT:crt0msg.obj
 0001:0000d4c5       __NMSG_WRITE               1000e4c5 f   LIBCMT:crt0msg.obj
 0001:0000d674       __FF_MSGBANNER             1000e674 f   LIBCMT:crt0msg.obj
 0001:0000d6ad       __heap_init                1000e6ad f   LIBCMT:heapinit.obj
 0001:0000d6cb       __heap_term                1000e6cb f   LIBCMT:heapinit.obj
 0001:0000d6df       __get_heap_handle          1000e6df f   LIBCMT:heapinit.obj
 0001:0000d6e5       __get_errno_from_oserr     1000e6e5 f   LIBCMT:dosmap.obj
 0001:0000d727       __errno                    1000e727 f   LIBCMT:dosmap.obj
 0001:0000d73a       ___doserrno                1000e73a f   LIBCMT:dosmap.obj
 0001:0000d74d       __dosmaperr                1000e74d f   LIBCMT:dosmap.obj
 0001:0000d770       __set_errno                1000e770 f   LIBCMT:dosmap.obj
 0001:0000d791       __get_errno                1000e791 f   LIBCMT:dosmap.obj
 0001:0000d7b6       __set_doserrno             1000e7b6 f   LIBCMT:dosmap.obj
 0001:0000d7d7       __get_doserrno             1000e7d7 f   LIBCMT:dosmap.obj
 0001:0000d7fc       __initp_heap_handler       1000e7fc f   LIBCMT:handler.obj
 0001:0000d80b       ?_set_new_handler@@YAP6AHI@ZP6AHI@Z@Z 1000e80b f   LIBCMT:handler.obj
 0001:0000d842       ?_set_new_handler@@YAP6AHI@ZH@Z 1000e842 f   LIBCMT:handler.obj
 0001:0000d84b       ?_query_new_handler@@YAP6AHI@ZXZ 1000e84b f   LIBCMT:handler.obj
 0001:0000d858       __callnewh                 1000e858 f   LIBCMT:handler.obj
 0001:0000d880       ?strrchr@@YAPADPADH@Z      1000e880 f i LIBCMT:cvt.obj
 0001:0000d88b       ??0_LocaleUpdate@@QAE@PAUlocaleinfo_struct@@@Z 1000e88b f i LIBCMT:cvt.obj
 0001:0000d912       ??1_LocaleUpdate@@QAE@XZ   1000e912 f i LIBCMT:cvt.obj
 0001:0000d920       ?GetLocaleT@_LocaleUpdate@@QAEPAUlocaleinfo_struct@@XZ 1000e920 f i LIBCMT:cvt.obj
 0001:0000d923       __forcdecpt_l              1000e923 f   LIBCMT:cvt.obj
 0001:0000d997       __cropzeros_l              1000e997 f   LIBCMT:cvt.obj
 0001:0000da19       __positive                 1000ea19 f   LIBCMT:cvt.obj
 0001:0000da35       __fassign_l                1000ea35 f   LIBCMT:cvt.obj
 0001:0000da77       __fassign                  1000ea77 f   LIBCMT:cvt.obj
 0001:0000dab0       __forcdecpt                1000eab0 f   LIBCMT:cvt.obj
 0001:0000dac3       __cropzeros                1000eac3 f   LIBCMT:cvt.obj
 0001:0000dc37       __cftoe_l                  1000ec37 f   LIBCMT:cvt.obj
 0001:0000dcfe       __cftoe                    1000ecfe f   LIBCMT:cvt.obj
 0001:0000dd1e       __cftoa_l                  1000ed1e f   LIBCMT:cvt.obj
 0001:0000e094       __cftoa                    1000f094 f   LIBCMT:cvt.obj
 0001:0000e1b7       __cftof_l                  1000f1b7 f   LIBCMT:cvt.obj
 0001:0000e278       __cftof                    1000f278 f   LIBCMT:cvt.obj
 0001:0000e295       __cftog_l                  1000f295 f   LIBCMT:cvt.obj
 0001:0000e382       __cftog                    1000f382 f   LIBCMT:cvt.obj
 0001:0000e3a2       __cfltcvt_l                1000f3a2 f   LIBCMT:cvt.obj
 0001:0000e42a       __cfltcvt                  1000f42a f   LIBCMT:cvt.obj
 0001:0000e44d       __initp_misc_cfltcvt_tab   1000f44d f   LIBCMT:cmiscdat.obj
 0001:0000e470       __setdefaultprecision      1000f470 f   LIBCMT:fp8.obj
 0001:0000e498       __stbuf                    1000f498 f   LIBCMT:_sftbuf.obj
 0001:0000e534       __ftbuf                    1000f534 f   LIBCMT:_sftbuf.obj
 0001:0000e635       _get_int_arg               1000f635 f i LIBCMT:output.obj
 0001:0000e647       _get_int64_arg             1000f647 f i LIBCMT:output.obj
 0001:0000e65c       _get_short_arg             1000f65c f i LIBCMT:output.obj
 0001:0000e66f       __output_l                 1000f66f f   LIBCMT:output.obj
 0001:0000f21b       __initp_misc_invarg        1001021b f   LIBCMT:invarg.obj
 0001:0000f22a       __call_reportfault         1001022a f   LIBCMT:invarg.obj
 0001:0000f353       __set_invalid_parameter_handler 10010353 f   LIBCMT:invarg.obj
 0001:0000f37a       __get_invalid_parameter_handler 1001037a f   LIBCMT:invarg.obj
 0001:0000f387       __invoke_watson            10010387 f   LIBCMT:invarg.obj
 0001:0000f3ac       ?_invoke_watson@@YAXPBG00II@Z 100103ac f   LIBCMT:invarg.obj
 0001:0000f3c6       __invalid_parameter        100103c6 f   LIBCMT:invarg.obj
 0001:0000f3f3       __invalid_parameter_noinfo 100103f3 f   LIBCMT:invarg.obj
 0001:0000f403       __invalid_parameter_noinfo_noreturn 10010403 f   LIBCMT:invarg.obj
 0001:0000f431       ?_invalid_parameter@@YAXPBG00II@Z 10010431 f   LIBCMT:invarg.obj
 0001:0000f440       __SEH_prolog4              10010440 f   LIBCMT:sehprolg4.obj
 0001:0000f485       __SEH_epilog4              10010485 f   LIBCMT:sehprolg4.obj
 0001:0000f4d0       __except_handler4          100104d0 f   LIBCMT:chandler4.obj
 0001:0000f65f       _vprintf_helper            1001065f f   LIBCMT:vprintf.obj
 0001:0000f6e4       __vprintf_l                100106e4 f   LIBCMT:vprintf.obj
 0001:0000f701       __vprintf_s_l              10010701 f   LIBCMT:vprintf.obj
 0001:0000f71e       __vprintf_p_l              1001071e f   LIBCMT:vprintf.obj
 0001:0000f73b       _vprintf                   1001073b f   LIBCMT:vprintf.obj
 0001:0000f757       _vprintf_s                 10010757 f   LIBCMT:vprintf.obj
 0001:0000f773       __vprintf_p                10010773 f   LIBCMT:vprintf.obj
 0001:0000f78f       __VEC_memzero              1001078f f   LIBCMT:p4_memset.obj
 0001:0000f849       ___sse2_available_init     10010849 f   LIBCMT:cpu_disp.obj
 0001:0000f859       __set_exp                  10010859 f   LIBCMT:_util_.obj
 0001:0000f886       __get_exp                  10010886 f   LIBCMT:_util_.obj
 0001:0000f89f       __add_exp                  1001089f f   LIBCMT:_util_.obj
 0001:0000f8cd       __set_bexp                 100108cd f   LIBCMT:_util_.obj
 0001:0000f8f5       __sptype                   100108f5 f   LIBCMT:_util_.obj
 0001:0000f95b       __decomp                   1001095b f   LIBCMT:_util_.obj
 0001:0000fa1e       __copysign                 10010a1e f   LIBCMT:_ieeemisc_.obj
 0001:0000fa46       __chgsign                  10010a46 f   LIBCMT:_ieeemisc_.obj
 0001:0000fa73       __scalb                    10010a73 f   LIBCMT:_ieeemisc_.obj
 0001:0000fa8d       __logb                     10010a8d f   LIBCMT:_ieeemisc_.obj
 0001:0000fb76       __nextafter                10010b76 f   LIBCMT:_ieeemisc_.obj
 0001:0000fe28       __finite                   10010e28 f   LIBCMT:_ieeemisc_.obj
 0001:0000fe44       __isnan                    10010e44 f   LIBCMT:_ieeemisc_.obj
 0001:0000fe7c       __fpclass                  10010e7c f   LIBCMT:_ieeemisc_.obj
 0001:0000ff19       __raise_exc_ex             10010f19 f   LIBCMT:_fpexcept_.obj
 0001:000101f5       __raise_exc                100111f5 f   LIBCMT:_fpexcept_.obj
 0001:00010218       __raise_excf               10011218 f   LIBCMT:_fpexcept_.obj
 0001:0001023b       __handle_exc               1001123b f   LIBCMT:_fpexcept_.obj
 0001:0001041f       __set_errno_from_matherr   1001141f f   LIBCMT:_fpexcept_.obj
 0001:00010472       __errcode                  10011472 f   LIBCMT:_fpexcept_.obj
 0001:000104a6       __umatherr                 100114a6 f   LIBCMT:_fpexcept_.obj
 0001:00010546       __handle_qnan1             10011546 f   LIBCMT:_fpexcept_.obj
 0001:0001059b       __handle_qnan2             1001159b f   LIBCMT:_fpexcept_.obj
 0001:000105fc       __except1                  100115fc f   LIBCMT:_fpexcept_.obj
 0001:000106c6       __except2                  100116c6 f   LIBCMT:_fpexcept_.obj
 0001:000107a0       __statfp                   100117a0 f   LIBCMT:_fpctrl_.obj
 0001:000107b0       __clrfp                    100117b0 f   LIBCMT:_fpctrl_.obj
 0001:000107c1       __ctrlfp                   100117c1 f   LIBCMT:_fpctrl_.obj
 0001:000107ec       __set_statfp               100117ec f   LIBCMT:_fpctrl_.obj
 0001:00010844       ___get_fpsr_sse2           10011844 f   LIBCMT:_fpctrl_.obj
 0001:00010862       ___set_fpsr_sse2           10011862 f   LIBCMT:_fpctrl_.obj
 0001:000108d4       ___fclrf_sse2              100118d4 f   LIBCMT:_fpctrl_.obj
 0001:000108f1       ___statfp_sse2             100118f1 f   LIBCMT:_fpctrl_.obj
 0001:00010904       ___clrfp_sse2              10011904 f   LIBCMT:_fpctrl_.obj
 0001:0001091c       ___ctrlfp_sse2             1001191c f   LIBCMT:_fpctrl_.obj
 0001:00010953       ___set_statfp_sse2         10011953 f   LIBCMT:_fpctrl_.obj
 0001:0001096e       __calloc_impl              1001196e f   LIBCMT:calloc_impl.obj
 0001:000109f0       __ioinit                   100119f0 f   LIBCMT:ioinit.obj
 0001:00010c35       __ioterm                   10011c35 f   LIBCMT:ioinit.obj
 0001:00010c88       __fileno                   10011c88 f   LIBCMT:fileno.obj
 0001:00010cae       _vfprintf_helper           10011cae f   LIBCMT:vfprintf.obj
 0001:00010db9       __vfprintf_l               10011db9 f   LIBCMT:vfprintf.obj
 0001:00010dd9       __vfprintf_s_l             10011dd9 f   LIBCMT:vfprintf.obj
 0001:00010df9       __vfprintf_p_l             10011df9 f   LIBCMT:vfprintf.obj
 0001:00010e19       _vfprintf                  10011e19 f   LIBCMT:vfprintf.obj
 0001:00010e38       _vfprintf_s                10011e38 f   LIBCMT:vfprintf.obj
 0001:00010e57       __vfprintf_p               10011e57 f   LIBCMT:vfprintf.obj
 0001:00010e76       _wait_a_bit                10011e76 f i LIBCMT:crtheap.obj
 0001:00010e9c       __set_malloc_crt_max_wait  10011e9c f   LIBCMT:crtheap.obj
 0001:00010eb1       __malloc_crt               10011eb1 f   LIBCMT:crtheap.obj
 0001:00010ef6       __calloc_crt               10011ef6 f   LIBCMT:crtheap.obj
 0001:00010f42       __realloc_crt              10011f42 f   LIBCMT:crtheap.obj
 0001:00010f90       __recalloc_crt             10011f90 f   LIBCMT:crtheap.obj
 0001:00010fe2       __fcloseall                10011fe2 f   LIBCMT:closeall.obj
 0001:0001107e       __flush                    1001207e f   LIBCMT:fflush.obj
 0001:000110e6       __fflush_nolock            100120e6 f   LIBCMT:fflush.obj
 0001:00011208       _fflush                    10012208 f   LIBCMT:fflush.obj
 0001:0001125b       __flushall                 1001225b f   LIBCMT:fflush.obj
 0001:00011264       __mtinitlocks              10012264 f   LIBCMT:mlock.obj
 0001:000112ae       __mtdeletelocks            100122ae f   LIBCMT:mlock.obj
 0001:00011305       __unlock                   10012305 f   LIBCMT:mlock.obj
 0001:0001131c       __lockerr_exit             1001231c f   LIBCMT:mlock.obj
 0001:00011334       __mtinitlocknum            10012334 f   LIBCMT:mlock.obj
 0001:000113f6       __lock                     100123f6 f   LIBCMT:mlock.obj
 0001:00011429       ___report_gsfailure        10012429 f   LIBCMT:gs_report.obj
 0001:0001152f       __flsbuf                   1001252f f   LIBCMT:_flsbuf.obj
 0001:00011693       __write_nolock             10012693 f   LIBCMT:write.obj
 0001:00011d90       __write                    10012d90 f   LIBCMT:write.obj
 0001:00011e64       __VEC_memcpy               10012e64 f   LIBCMT:p4_memcpy.obj
 0001:00011f67       __close_nolock             10012f67 f   LIBCMT:close.obj
 0001:00012003       __close                    10013003 f   LIBCMT:close.obj
 0001:000120c7       __freebuf                  100130c7 f   LIBCMT:_freebuf.obj
 0001:000120f8       __filbuf                   100130f8 f   LIBCMT:_filbuf.obj
 0001:0001221a       __read_nolock              1001321a f   LIBCMT:read.obj
 0001:000127d1       __read                     100137d1 f   LIBCMT:read.obj
 0001:000128c7       _memcpy_s                  100138c7 f   LIBCMT:memcpy_s.obj
 0001:0001293c       __lseek_nolock             1001393c f   LIBCMT:lseek.obj
 0001:000129b1       __lseek                    100139b1 f   LIBCMT:lseek.obj
 0001:00012a85       __openfile                 10013a85 f   LIBCMT:_open.obj
 0001:00012d1c       __getstream                10013d1c f   LIBCMT:stream.obj
 0001:00012e50       __local_unwind4            10013e50 f   LIBCMT:exsup4.obj
 0001:00012f26       __seh_longjmp_unwind4@4    10013f26 f   LIBCMT:exsup4.obj
 0001:00012f42       @_EH4_CallFilterFunc@8     10013f42 f   LIBCMT:exsup4.obj
 0001:00012f59       @_EH4_TransferToHandler@8  10013f59 f   LIBCMT:exsup4.obj
 0001:00012f72       @_EH4_GlobalUnwind2@8      10013f72 f   LIBCMT:exsup4.obj
 0001:00012f8b       @_EH4_LocalUnwind@16       10013f8b f   LIBCMT:exsup4.obj
 0001:00012fa2       __vsprintf_l               10013fa2 f   LIBCMT:vsprintf.obj
 0001:00013026       _vsprintf                  10014026 f   LIBCMT:vsprintf.obj
 0001:00013040       __vscprintf_helper         10014040 f   LIBCMT:vsprintf.obj
 0001:0001309c       __vscprintf                1001409c f   LIBCMT:vsprintf.obj
 0001:000130b8       __vscprintf_l              100140b8 f   LIBCMT:vsprintf.obj
 0001:000130d5       __vscprintf_p              100140d5 f   LIBCMT:vsprintf.obj
 0001:000130f1       __vscprintf_p_l            100140f1 f   LIBCMT:vsprintf.obj
 0001:0001310e       __vsnprintf_helper         1001410e f   LIBCMT:vsnprnc.obj
 0001:000131d8       __vsnprintf_c              100141d8 f   LIBCMT:vsnprnc.obj
 0001:00013201       __vsnprintf_c_l            10014201 f   LIBCMT:vsnprnc.obj
 0001:0001322b       __vsprintf_s_l             1001422b f   LIBCMT:vsnprnc.obj
 0001:000132a2       _vsprintf_s                100142a2 f   LIBCMT:vsnprnc.obj
 0001:000132bf       __vsnprintf_s_l            100142bf f   LIBCMT:vsnprnc.obj
 0001:000133ab       __vsnprintf_s              100143ab f   LIBCMT:vsnprnc.obj
 0001:000133cb       __vsprintf_p               100143cb f   LIBCMT:vsnprnc.obj
 0001:000133f4       __vsprintf_p_l             100143f4 f   LIBCMT:vsnprnc.obj
 0001:0001341e       ?terminate@@YAXXZ          1001441e f   LIBCMT:hooks.obj
 0001:00013457       ?unexpected@@YAXXZ         10014457 f   LIBCMT:hooks.obj
 0001:0001346a       ?_inconsistency@@YAXXZ     1001446a f   LIBCMT:hooks.obj
 0001:000134a2       __initp_eh_hooks           100144a2 f   LIBCMT:hooks.obj
 0001:000134b3       __initp_misc_winsig        100144b3 f   LIBCMT:winsig.obj
 0001:000135a4       ___get_sigabrt             100145a4 f   LIBCMT:winsig.obj
 0001:000135b1       ___fpecode                 100145b1 f   LIBCMT:winsig.obj
 0001:000135ba       ___pxcptinfoptrs           100145ba f   LIBCMT:winsig.obj
 0001:000135c3       _signal                    100145c3 f   LIBCMT:winsig.obj
 0001:00013803       _raise                     10014803 f   LIBCMT:winsig.obj
 0001:000139a6       __initp_misc_rand_s        100149a6 f   LIBCMT:rand_s.obj
 0001:000139b5       _rand_s                    100149b5 f   LIBCMT:rand_s.obj
 0001:00013aa5       ___getlocaleinfo           10014aa5 f   LIBCMT:inithelp.obj
 0001:00013c51       __initp_misc_purevirt      10014c51 f   LIBCMT:inithelp.obj
 0001:00013c60       __encoded_null             10014c60 f   LIBCMT:tidtable.obj
 0001:00013c69       ___crtTlsAlloc@4           10014c69 f   LIBCMT:tidtable.obj
 0001:00013c72       ___fls_getvalue@4          10014c72 f   LIBCMT:tidtable.obj
 0001:00013c8c       ___get_flsindex            10014c8c f   LIBCMT:tidtable.obj
 0001:00013c92       ___set_flsgetvalue         10014c92 f   LIBCMT:tidtable.obj
 0001:00013cc6       ___fls_setvalue@8          10014cc6 f   LIBCMT:tidtable.obj
 0001:00013ce3       __mtterm                   10014ce3 f   LIBCMT:tidtable.obj
 0001:00013d20       __initptd                  10014d20 f   LIBCMT:tidtable.obj
 0001:00013dd4       __getptd_noexit            10014dd4 f   LIBCMT:tidtable.obj
 0001:00013e4d       __getptd                   10014e4d f   LIBCMT:tidtable.obj
 0001:00013e67       __freefls@4                10014e67 f   LIBCMT:tidtable.obj
 0001:00013f96       __freeptd                  10014f96 f   LIBCMT:tidtable.obj
 0001:00014004       ___threadid                10015004 f   LIBCMT:tidtable.obj
 0001:0001400a       ___threadhandle            1001500a f   LIBCMT:tidtable.obj
 0001:00014010       __mtinit                   10015010 f   LIBCMT:tidtable.obj
 0001:00014241       ___onexitinit              10015241 f   LIBCMT:onexit.obj
 0001:00014272       __onexit                   10015272 f   LIBCMT:onexit.obj
 0001:000142ae       _atexit                    100152ae f   LIBCMT:onexit.obj
 0001:000142c5       __RTC_Initialize           100152c5 f   LIBCMT:_initsect_.obj
 0001:000142eb       __RTC_Terminate            100152eb f   LIBCMT:_initsect_.obj
 0001:00014320       __ValidateImageBase        10015320 f   LIBCMT:pesect.obj
 0001:00014360       __FindPESection            10015360 f   LIBCMT:pesect.obj
 0001:000143b0       __IsNonwritableInCurrentImage 100153b0 f   LIBCMT:pesect.obj
 0001:0001446c       __vswprintf_helper         1001546c f   LIBCMT:vswprnc.obj
 0001:00014562       __vswprintf_c              10015562 f   LIBCMT:vswprnc.obj
 0001:0001458b       __vswprintf_c_l            1001558b f   LIBCMT:vswprnc.obj
 0001:000145b5       __vswprintf_s_l            100155b5 f   LIBCMT:vswprnc.obj
 0001:0001462e       _vswprintf_s               1001562e f   LIBCMT:vswprnc.obj
 0001:0001464b       __vsnwprintf_s_l           1001564b f   LIBCMT:vswprnc.obj
 0001:0001473b       __vsnwprintf_s             1001573b f   LIBCMT:vswprnc.obj
 0001:0001475b       __vswprintf_p              1001575b f   LIBCMT:vswprnc.obj
 0001:00014784       __vswprintf_p_l            10015784 f   LIBCMT:vswprnc.obj
 0001:000147ae       _fwprintf                  100157ae f   LIBCMT:fwprintf.obj
 0001:0001483a       __fwprintf_l               1001583a f   LIBCMT:fwprintf.obj
 0001:00014856       __fwprintf_s_l             10015856 f   LIBCMT:fwprintf.obj
 0001:00014872       _fwprintf_s                10015872 f   LIBCMT:fwprintf.obj
 0001:0001488d       __fwprintf_p_l             1001588d f   LIBCMT:fwprintf.obj
 0001:000148a9       __fwprintf_p               100158a9 f   LIBCMT:fwprintf.obj
 0001:000148c4       _setvbuf                   100158c4 f   LIBCMT:setvbuf.obj
 0001:000149ba       _abort                     100159ba f   LIBCMT:abort.obj
 0001:000149ed       __set_abort_behavior       100159ed f   LIBCMT:abort.obj
 0001:00014a0e       ___crtMessageBoxW          10015a0e f   LIBCMT:crtmboxw.obj
 0001:00014c59       __itow_s                   10015c59 f   LIBCMT:xtows.obj
 0001:00014c83       __ltow_s                   10015c83 f   LIBCMT:xtows.obj
 0001:00014caa       __ultow_s                  10015caa f   LIBCMT:xtows.obj
 0001:00014dc3       __i64tow_s                 10015dc3 f   LIBCMT:xtows.obj
 0001:00014df8       __ui64tow_s                10015df8 f   LIBCMT:xtows.obj
 0001:00014e17       _wcsncat_s                 10015e17 f   LIBCMT:wcsncat_s.obj
 0001:00014eed       _wcsncpy_s                 10015eed f   LIBCMT:wcsncpy_s.obj
 0001:00014fba       _wcslen                    10015fba f   LIBCMT:wcslen.obj
 0001:00014fd5       _wcscat_s                  10015fd5 f   LIBCMT:wcscat_s.obj
 0001:0001504a       _wcscpy_s                  1001604a f   LIBCMT:wcscpy_s.obj
 0001:000150ad       __set_error_mode           100160ad f   LIBCMT:errmode.obj
 0001:000150ec       ___set_app_type            100160ec f   LIBCMT:errmode.obj
 0001:000150fb       __setenvp                  100160fb f   LIBCMT:stdenvp.obj
 0001:000151d7       __set_pgmptr               100161d7 f i LIBCMT:stdargv.obj
 0001:00015380       __setargv                  10016380 f   LIBCMT:stdargv.obj
 0001:0001543b       ___crtGetEnvironmentStringsA 1001643b f   LIBCMT:a_env.obj
 0001:000154f8       __XcptFilter               100164f8 f   LIBCMT:winxfltr.obj
 0001:00015642       ___CppXcptFilter           10016642 f   LIBCMT:winxfltr.obj
 0001:00015662       ___security_init_cookie    10016662 f   LIBCMT:gs_support.obj
 0001:00015700       _strlen                    10016700 f   LIBCMT:strlen.obj
 0001:00015790       _strrchr                   10016790 f   LIBCMT:strrchr.obj
 0001:000159e0       ___updatetmbcinfo          100169e0 f   LIBCMT:mbctype.obj
 0001:00015b00       __setmbcp_nolock           10016b00 f   LIBCMT:mbctype.obj
 0001:00015ce9       __getmbcp                  10016ce9 f   LIBCMT:mbctype.obj
 0001:00015d27       __setmbcp                  10016d27 f   LIBCMT:mbctype.obj
 0001:00015ec1       ___initmbctable            10016ec1 f   LIBCMT:mbctype.obj
 0001:00015edf       ___addlocaleref            10016edf f   LIBCMT:localref.obj
 0001:00015f6e       ___removelocaleref         10016f6e f   LIBCMT:localref.obj
 0001:00016007       ___freetlocinfo            10017007 f   LIBCMT:localref.obj
 0001:00016152       __updatetlocinfoEx_nolock  10017152 f   LIBCMT:localref.obj
 0001:0001619f       ___updatetlocinfo          1001719f f   LIBCMT:localref.obj
 0001:00016218       __isalpha_l                10017218 f i LIBCMT:_ctype.obj
 0001:0001626e       _isalpha                   1001726e f i LIBCMT:_ctype.obj
 0001:0001629e       __isupper_l                1001729e f i LIBCMT:_ctype.obj
 0001:000162ef       _isupper                   100172ef f i LIBCMT:_ctype.obj
 0001:0001631d       __islower_l                1001731d f i LIBCMT:_ctype.obj
 0001:0001636e       _islower                   1001736e f i LIBCMT:_ctype.obj
 0001:0001639c       __isdigit_l                1001739c f i LIBCMT:_ctype.obj
 0001:000163ed       _isdigit                   100173ed f i LIBCMT:_ctype.obj
 0001:0001641b       __isxdigit_l               1001741b f i LIBCMT:_ctype.obj
 0001:00016471       _isxdigit                  10017471 f i LIBCMT:_ctype.obj
 0001:000164a1       __isspace_l                100174a1 f i LIBCMT:_ctype.obj
 0001:000164f2       _isspace                   100174f2 f i LIBCMT:_ctype.obj
 0001:00016520       __ispunct_l                10017520 f i LIBCMT:_ctype.obj
 0001:00016571       _ispunct                   10017571 f i LIBCMT:_ctype.obj
 0001:0001659f       __isalnum_l                1001759f f i LIBCMT:_ctype.obj
 0001:000165f5       _isalnum                   100175f5 f i LIBCMT:_ctype.obj
 0001:00016625       __isprint_l                10017625 f i LIBCMT:_ctype.obj
 0001:0001667b       _isprint                   1001767b f i LIBCMT:_ctype.obj
 0001:000166ab       __isgraph_l                100176ab f i LIBCMT:_ctype.obj
 0001:00016701       _isgraph                   10017701 f i LIBCMT:_ctype.obj
 0001:00016731       __iscntrl_l                10017731 f i LIBCMT:_ctype.obj
 0001:00016782       _iscntrl                   10017782 f i LIBCMT:_ctype.obj
 0001:000167b0       ___isascii                 100177b0 f i LIBCMT:_ctype.obj
 0001:000167c2       ___toascii                 100177c2 f i LIBCMT:_ctype.obj
 0001:000167cf       __iscsymf_l                100177cf f i LIBCMT:_ctype.obj
 0001:000167f2       ___iscsymf                 100177f2 f i LIBCMT:_ctype.obj
 0001:00016811       __iscsym_l                 10017811 f i LIBCMT:_ctype.obj
 0001:00016834       ___iscsym                  10017834 f i LIBCMT:_ctype.obj
 0001:00016855       __tolower                  10017855 f   LIBCMT:tolower.obj
 0001:00016862       __tolower_l                10017862 f   LIBCMT:tolower.obj
 0001:00016977       _tolower                   10017977 f   LIBCMT:tolower.obj
 0001:000169a3       __atodbl_l                 100179a3 f   LIBCMT:atodbl.obj
 0001:00016a4b       __atodbl                   10017a4b f   LIBCMT:atodbl.obj
 0001:00016a62       __atoldbl_l                10017a62 f   LIBCMT:atodbl.obj
 0001:00016b0b       __atoldbl                  10017b0b f   LIBCMT:atodbl.obj
 0001:00016b22       __atoflt_l                 10017b22 f   LIBCMT:atodbl.obj
 0001:00016bca       __atoflt                   10017bca f   LIBCMT:atodbl.obj
 0001:00016be1       __set_output_format        10017be1 f   LIBCMT:outputformat.obj
 0001:00016c13       __get_output_format        10017c13 f   LIBCMT:outputformat.obj
 0001:00016c19       _strcpy_s                  10017c19 f   LIBCMT:strcpy_s.obj
 0001:00016c78       __fptostr                  10017c78 f   LIBCMT:_fptostr.obj
 0001:00016d2b       ___dtold                   10017d2b f   LIBCMT:_cfout_.obj
 0001:00016dde       __fltout2                  10017dde f   LIBCMT:_cfout_.obj
 0001:00016e70       __alldvrm                  10017e70 f   LIBCMT:lldvrm.obj
 0001:00016f50       __aullshr                  10017f50 f   LIBCMT:ullshr.obj
 0001:00016f6f       __fptrap                   10017f6f f   LIBCMT:crt0fp.obj
 0001:00016f78       __controlfp_s              10017f78 f   LIBCMT:_contrlfp_.obj
 0001:00016fd7       __isatty                   10017fd7 f   LIBCMT:isatty.obj
 0001:0001702d       __wctomb_s_l               1001802d f   LIBCMT:wctomb.obj
 0001:00017182       _wctomb_s                  10018182 f   LIBCMT:wctomb.obj
 0001:0001719f       __wctomb_l                 1001819f f   LIBCMT:wctomb.obj
 0001:000171f0       _wctomb                    100181f0 f   LIBCMT:wctomb.obj
 0001:00017222       __isleadbyte_l             10018222 f i LIBCMT:_wctype.obj
 0001:0001725a       _isleadbyte                1001825a f i LIBCMT:_wctype.obj
 0001:0001726d       __iswalpha_l               1001826d f i LIBCMT:_wctype.obj
 0001:00017283       _iswalpha                  10018283 f i LIBCMT:_wctype.obj
 0001:00017299       __iswupper_l               10018299 f i LIBCMT:_wctype.obj
 0001:000172ac       _iswupper                  100182ac f i LIBCMT:_wctype.obj
 0001:000172bf       __iswlower_l               100182bf f i LIBCMT:_wctype.obj
 0001:000172d2       _iswlower                  100182d2 f i LIBCMT:_wctype.obj
 0001:000172e5       __iswdigit_l               100182e5 f i LIBCMT:_wctype.obj
 0001:000172f8       _iswdigit                  100182f8 f i LIBCMT:_wctype.obj
 0001:0001730b       __iswxdigit_l              1001830b f i LIBCMT:_wctype.obj
 0001:00017321       _iswxdigit                 10018321 f i LIBCMT:_wctype.obj
 0001:00017337       __iswspace_l               10018337 f i LIBCMT:_wctype.obj
 0001:0001734a       _iswspace                  1001834a f i LIBCMT:_wctype.obj
 0001:0001735d       __iswpunct_l               1001835d f i LIBCMT:_wctype.obj
 0001:00017370       _iswpunct                  10018370 f i LIBCMT:_wctype.obj
 0001:00017383       __iswalnum_l               10018383 f i LIBCMT:_wctype.obj
 0001:00017399       _iswalnum                  10018399 f i LIBCMT:_wctype.obj
 0001:000173af       __iswprint_l               100183af f i LIBCMT:_wctype.obj
 0001:000173c5       _iswprint                  100183c5 f i LIBCMT:_wctype.obj
 0001:000173db       __iswgraph_l               100183db f i LIBCMT:_wctype.obj
 0001:000173f1       _iswgraph                  100183f1 f i LIBCMT:_wctype.obj
 0001:00017407       __iswcntrl_l               10018407 f i LIBCMT:_wctype.obj
 0001:0001741a       _iswcntrl                  1001841a f i LIBCMT:_wctype.obj
 0001:0001742d       _iswascii                  1001842d f i LIBCMT:_wctype.obj
 0001:00017441       __iswcsym_l                10018441 f i LIBCMT:_wctype.obj
 0001:00017467       ___iswcsym                 10018467 f i LIBCMT:_wctype.obj
 0001:0001748d       __iswcsymf_l               1001848d f i LIBCMT:_wctype.obj
 0001:000174b3       ___iswcsymf                100184b3 f i LIBCMT:_wctype.obj
 0001:000174e0       __aulldvrm                 100184e0 f   LIBCMT:ulldvrm.obj
 0001:00017575       __crt_debugger_hook        10018575 f   LIBCMT:dbghook.obj
 0001:0001764a       __output_s_l               1001864a f   LIBCMT:outputs.obj
 0001:0001821a       __validate_param_reuseA    1001921a f   LIBCMT:outputp.obj
 0001:00018412       _get_crtdouble_arg         10019412 f i LIBCMT:outputp.obj
 0001:00018427       __output_p_l               10019427 f   LIBCMT:outputp.obj
 0001:00019713       __matherr                  1001a713 f   LIBCMT:_matherr_.obj
 0001:00019716       __recalloc                 1001a716 f   LIBCMT:recalloc.obj
 0001:00019784       __commit                   1001a784 f   LIBCMT:commit.obj
 0001:0001985d       __lseeki64_nolock          1001a85d f   LIBCMT:lseeki64.obj
 0001:000198e2       __lseeki64                 1001a8e2 f   LIBCMT:lseeki64.obj
 0001:000199cc       __getbuf                   1001a9cc f   LIBCMT:_getbuf.obj
 0001:00019a15       __putwch_nolock            1001aa15 f   LIBCMT:putwch.obj
 0001:00019a57       __putwch                   1001aa57 f   LIBCMT:putwch.obj
 0001:00019a9d       __mbtowc_l                 1001aa9d f   LIBCMT:mbtowc.obj
 0001:00019bb3       _mbtowc                    1001abb3 f   LIBCMT:mbtowc.obj
 0001:00019bd0       __chkstk                   1001abd0 f   LIBCMT:chkstk.obj
 0001:00019bd0       __alloca_probe             1001abd0     LIBCMT:chkstk.obj
 0001:00019bfb       __set_osfhnd               1001abfb f   LIBCMT:osfinfo.obj
 0001:00019c7c       __free_osfhnd              1001ac7c f   LIBCMT:osfinfo.obj
 0001:00019d02       __get_osfhandle            1001ad02 f   LIBCMT:osfinfo.obj
 0001:00019d6b       ___lock_fhandle            1001ad6b f   LIBCMT:osfinfo.obj
 0001:00019e0a       __unlock_fhandle           1001ae0a f   LIBCMT:osfinfo.obj
 0001:00019e31       __alloc_osfhnd             1001ae31 f   LIBCMT:osfinfo.obj
 0001:00019fca       __open_osfhandle           1001afca f   LIBCMT:osfinfo.obj
 0001:0001a814       __open                     1001b814 f   LIBCMT:open.obj
 0001:0001a8c2       __sopen_helper             1001b8c2 f   LIBCMT:open.obj
 0001:0001a986       __sopen                    1001b986 f   LIBCMT:open.obj
 0001:0001a9b8       __sopen_s                  1001b9b8 f   LIBCMT:open.obj
 0001:0001a9d8       __mbsnbicmp_l              1001b9d8 f   LIBCMT:mbsnbicm.obj
 0001:0001abdc       __mbsnbicmp                1001bbdc f   LIBCMT:mbsnbicm.obj
 0001:0001abf6       __mbsnbcmp_l               1001bbf6 f   LIBCMT:mbsnbcmp.obj
 0001:0001ad42       __mbsnbcmp                 1001bd42 f   LIBCMT:mbsnbcmp.obj
 0001:0001ad60       __global_unwind2           1001bd60 f   LIBCMT:exsup.obj
 0001:0001adc5       __local_unwind2            1001bdc5 f   LIBCMT:exsup.obj
 0001:0001ae49       __abnormal_termination     1001be49 f   LIBCMT:exsup.obj
 0001:0001ae6c       __NLG_Notify1              1001be6c f   LIBCMT:exsup.obj
 0001:0001ae75       __NLG_Notify               1001be75 f   LIBCMT:exsup.obj
 0001:0001ae8c       __NLG_Dispatch2            1001be8c     LIBCMT:exsup.obj
 0001:0001ae8c       __NLG_Dispatch             1001be8c     LIBCMT:exsup.obj
 0001:0001ae94       __NLG_Call                 1001be94 f   LIBCMT:exsup.obj
 0001:0001ae96       __NLG_Return2              1001be96     LIBCMT:exsup.obj
 0001:0001ae97       _strncpy_s                 1001be97 f   LIBCMT:strncpy_s.obj
 0001:0001af4c       __MarkAllocaS              1001bf4c f i LIBCMT:a_loc.obj
 0001:0001af62       __freea                    1001bf62 f i LIBCMT:a_loc.obj
 0001:0001b05c       ___crtGetLocaleInfoA       1001c05c f   LIBCMT:a_loc.obj
 0001:0001b096       __msize                    1001c096 f   LIBCMT:msize.obj
 0001:0001b198       __woutput_l                1001c198 f   LIBCMT:woutput.obj
 0001:0001be2b       __woutput_s_l              1001ce2b f   LIBCMT:woutputs.obj
 0001:0001c9df       __validate_param_reuseW    1001d9df f   LIBCMT:woutputp.obj
 0001:0001cbf9       __woutput_p_l              1001dbf9 f   LIBCMT:woutputp.obj
 0001:0001de99       _vfwprintf_helper          1001ee99 f   LIBCMT:vfwprint.obj
 0001:0001df23       __vfwprintf_l              1001ef23 f   LIBCMT:vfwprint.obj
 0001:0001df43       __vfwprintf_s_l            1001ef43 f   LIBCMT:vfwprint.obj
 0001:0001df63       __vfwprintf_p_l            1001ef63 f   LIBCMT:vfwprint.obj
 0001:0001df83       _vfwprintf                 1001ef83 f   LIBCMT:vfwprint.obj
 0001:0001dfa2       _vfwprintf_s               1001efa2 f   LIBCMT:vfwprint.obj
 0001:0001dfc1       __vfwprintf_p              1001efc1 f   LIBCMT:vfwprint.obj
 0001:0001e033       __ismbbkalnum_l            1001f033 f   LIBCMT:ismbbyte.obj
 0001:0001e04c       __ismbbkalnum              1001f04c f   LIBCMT:ismbbyte.obj
 0001:0001e064       __ismbbkprint_l            1001f064 f   LIBCMT:ismbbyte.obj
 0001:0001e07d       __ismbbkprint              1001f07d f   LIBCMT:ismbbyte.obj
 0001:0001e095       __ismbbkpunct_l            1001f095 f   LIBCMT:ismbbyte.obj
 0001:0001e0ae       __ismbbkpunct              1001f0ae f   LIBCMT:ismbbyte.obj
 0001:0001e0c6       __ismbbalnum_l             1001f0c6 f   LIBCMT:ismbbyte.obj
 0001:0001e0e2       __ismbbalnum               1001f0e2 f   LIBCMT:ismbbyte.obj
 0001:0001e0fd       __ismbbalpha_l             1001f0fd f   LIBCMT:ismbbyte.obj
 0001:0001e119       __ismbbalpha               1001f119 f   LIBCMT:ismbbyte.obj
 0001:0001e134       __ismbbgraph_l             1001f134 f   LIBCMT:ismbbyte.obj
 0001:0001e150       __ismbbgraph               1001f150 f   LIBCMT:ismbbyte.obj
 0001:0001e16b       __ismbbprint_l             1001f16b f   LIBCMT:ismbbyte.obj
 0001:0001e187       __ismbbprint               1001f187 f   LIBCMT:ismbbyte.obj
 0001:0001e1a2       __ismbbpunct_l             1001f1a2 f   LIBCMT:ismbbyte.obj
 0001:0001e1bb       __ismbbpunct               1001f1bb f   LIBCMT:ismbbyte.obj
 0001:0001e1d3       __ismbblead_l              1001f1d3 f   LIBCMT:ismbbyte.obj
 0001:0001e1ec       __ismbblead                1001f1ec f   LIBCMT:ismbbyte.obj
 0001:0001e204       __ismbbtrail_l             1001f204 f   LIBCMT:ismbbyte.obj
 0001:0001e21d       __ismbbtrail               1001f21d f   LIBCMT:ismbbyte.obj
 0001:0001e235       __ismbbkana_l              1001f235 f   LIBCMT:ismbbyte.obj
 0001:0001e28a       __ismbbkana                1001f28a f   LIBCMT:ismbbyte.obj
 0001:0001e4a2       ___crtLCMapStringA         1001f4a2 f   LIBCMT:a_map.obj
 0001:0001e5cf       ___crtGetStringTypeA       1001f5cf f   LIBCMT:a_str.obj
 0001:0001ee0e       ___free_lc_time            1001fe0e f   LIBCMT:inittime.obj
 0001:0001f185       ___init_time               10020185 f   LIBCMT:inittime.obj
 0001:0001f232       ___free_lconv_num          10020232 f   LIBCMT:initnum.obj
 0001:0001f29b       ___init_numeric            1002029b f   LIBCMT:initnum.obj
 0001:0001f4bb       ___free_lconv_mon          100204bb f   LIBCMT:initmon.obj
 0001:0001f5b9       ___init_monetary           100205b9 f   LIBCMT:initmon.obj
 0001:0001f919       _localeconv                10020919 f   LIBCMT:lconv.obj
 0001:0001f93f       ___pwctype_func            1002093f f   LIBCMT:ctype.obj
 0001:0001f945       ___pctype_func             10020945 f   LIBCMT:ctype.obj
 0001:0001f96e       __isctype_l                1002096e f   LIBCMT:isctype.obj
 0001:0001fa26       __isctype                  10020a26 f   LIBCMT:isctype.obj
 0001:0001fa58       ____setlc_active_func      10020a58 f   LIBCMT:setlocal.obj
 0001:0001fa5e       ____unguarded_readlc_active_add_func 10020a5e f   LIBCMT:setlocal.obj
 0001:0001fa8a       __configthreadlocale       10020a8a f   LIBCMT:setlocal.obj
 0001:0001fb11       __free_locale              10020b11 f   LIBCMT:setlocal.obj
 0001:0001fbd3       ___free_locale             10020bd3 f   LIBCMT:setlocal.obj
 0001:0001fbde       __get_current_locale       10020bde f   LIBCMT:setlocal.obj
 0001:0001fc8d       ___get_current_locale      10020c8d f   LIBCMT:setlocal.obj
 0001:0001fc92       ___init_dummy              10020c92 f   LIBCMT:setlocal.obj
 0001:0001fc95       __strcats                  10020c95 f   LIBCMT:setlocal.obj
 0001:0001fcd6       ___lc_strtolc              10020cd6 f   LIBCMT:setlocal.obj
 0001:0001fdf5       ___lc_lctostr              10020df5 f   LIBCMT:setlocal.obj
 0001:0001ffc5       __expandlocale             10020fc5 f   LIBCMT:setlocal.obj
 0001:0002073c       __create_locale            1002173c f   LIBCMT:setlocal.obj
 0001:00020831       ___create_locale           10021831 f   LIBCMT:setlocal.obj
 0001:0002083c       _setlocale                 1002183c f   LIBCMT:setlocal.obj
 0001:000209b0       ___addl                    100219b0 f i LIBCMT:_intrncvt_.obj
 0001:000209d4       __ZeroTail                 100219d4 f i LIBCMT:_intrncvt_.obj
 0001:00020a1d       __IncMan                   10021a1d f i LIBCMT:_intrncvt_.obj
 0001:00020a8a       __RoundMan                 10021a8a f i LIBCMT:_intrncvt_.obj
 0001:00020b76       __CopyMan                  10021b76 f i LIBCMT:_intrncvt_.obj
 0001:00020b95       __FillZeroMan              10021b95 f i LIBCMT:_intrncvt_.obj
 0001:00020ba6       __IsZeroMan                10021ba6 f i LIBCMT:_intrncvt_.obj
 0001:00020bc5       __ShrMan                   10021bc5 f i LIBCMT:_intrncvt_.obj
 0001:00020c5d       __ld12cvt                  10021c5d f i LIBCMT:_intrncvt_.obj
 0001:000211ac       __ld12tod                  100221ac f   LIBCMT:_intrncvt_.obj
 0001:000216fd       __ld12tof                  100226fd f   LIBCMT:_intrncvt_.obj
 0001:00021c4e       __ld12told                 10022c4e f   LIBCMT:_intrncvt_.obj
 0001:00021d2b       ___shl_12                  10022d2b f i LIBCMT:_strgtold_.obj
 0001:00021d5e       ___shr_12                  10022d5e f i LIBCMT:_strgtold_.obj
 0001:00021d90       ___ld12mul                 10022d90 f i LIBCMT:_strgtold_.obj
 0001:0002200b       ___multtenpow12            1002300b f i LIBCMT:_strgtold_.obj
 0001:0002230a       ___strgtold12_l            1002330a f   LIBCMT:_strgtold_.obj
 0001:000229e6       ___STRINGTOLD_L            100239e6 f   LIBCMT:_strgtold_.obj
 0001:00022a41       ___add_12                  10023a41 f i LIBCMT:_x10fout_.obj
 0001:00022ab2       _$I10_OUTPUT               10023ab2 f   LIBCMT:_x10fout_.obj
 0001:000233aa       __set_controlfp            100243aa f   LIBCMT:_ieee87_.obj
 0001:0002371c       __statusfp                 1002471c f   LIBCMT:_ieee87_.obj
 0001:000237ae       __fpreset                  100247ae f   LIBCMT:_ieee87_.obj
 0001:000239e7       __statusfp2                100249e7 f   LIBCMT:_ieee87_.obj
 0001:00023a41       __clearfp                  10024a41 f   LIBCMT:_ieee87_.obj
 0001:00023b1a       ___control87_2             10024b1a f   LIBCMT:_ieee87_.obj
 0001:00023e31       __control87                10024e31 f i LIBCMT:_ieee87_.obj
 0001:00024143       __controlfp                10025143 f   LIBCMT:_ieee87_.obj
 0001:00024458       ___init_ctype              10025458 f   LIBCMT:initctyp.obj
 0001:000247ff       ____mb_cur_max_func        100257ff f   LIBCMT:initctyp.obj
 0001:00024828       ____mb_cur_max_l_func      10025828 f   LIBCMT:initctyp.obj
 0001:00024844       ____lc_codepage_func       10025844 f   LIBCMT:initctyp.obj
 0001:0002486a       ____lc_collate_cp_func     1002586a f   LIBCMT:initctyp.obj
 0001:00024890       ____lc_handle_func         10025890 f   LIBCMT:initctyp.obj
 0001:000248b6       _iswctype                  100258b6 f   LIBCMT:iswctype.obj
 0001:0002490b       _is_wctype                 1002590b f   LIBCMT:iswctype.obj
 0001:00024916       __iswctype_l               10025916 f   LIBCMT:iswctype.obj
 0001:00024b55       _strtol                    10025b55 f   LIBCMT:strtol.obj
 0001:00024b80       __strtol_l                 10025b80 f   LIBCMT:strtol.obj
 0001:00024b9d       _strtoul                   10025b9d f   LIBCMT:strtol.obj
 0001:00024bc9       __strtoul_l                10025bc9 f   LIBCMT:strtol.obj
 0001:00024be6       ___initconout              10025be6 f   LIBCMT:initcon.obj
 0001:00024c05       ___termconout              10025c05 f   LIBCMT:initcon.obj
 0001:00024c1c       __chsize_nolock            10025c1c f   LIBCMT:chsize.obj
 0001:00024dd2       __chsize_s                 10025dd2 f   LIBCMT:chsize.obj
 0001:00024eb9       __chsize                   10025eb9 f   LIBCMT:chsize.obj
 0001:00024ed5       __setmode_nolock           10025ed5 f   LIBCMT:setmode.obj
 0001:00024f90       __set_fmode                10025f90 f   LIBCMT:setmode.obj
 0001:00024fd2       __get_fmode                10025fd2 f   LIBCMT:setmode.obj
 0001:00024fff       __setmode                  10025fff f   LIBCMT:setmode.obj
 0001:000250ea       __strnicmp_l               100260ea f   LIBCMT:strnicmp.obj
 0001:000251cc       __strnicmp                 100261cc f   LIBCMT:strnicmp.obj
 0001:0002521f       _strncmp                   1002621f f   LIBCMT:strncmp.obj
 0001:000252e0       __alloca_probe_16          100262e0 f   LIBCMT:alloca16.obj
 0001:000252f6       __alloca_probe_8           100262f6     LIBCMT:alloca16.obj
 0001:0002530c       __fputwc_nolock            1002630c f   LIBCMT:fputwc.obj
 0001:00025493       _fputwc                    10026493 f   LIBCMT:fputwc.obj
 0001:00025503       _putwc                     10026503 f   LIBCMT:fputwc.obj
 0001:000256d0       _wcstol                    100266d0 f   LIBCMT:wcstol.obj
 0001:000256ea       __wcstol_l                 100266ea f   LIBCMT:wcstol.obj
 0001:00025704       _wcstoul                   10026704 f   LIBCMT:wcstol.obj
 0001:0002571e       __wcstoul_l                1002671e f   LIBCMT:wcstol.obj
 0001:00025738       ___init_collate            10026738 f   LIBCMT:initcoll.obj
 0001:0002573b       _strcat_s                  1002673b f   LIBCMT:strcat_s.obj
 0001:000257b0       _strcspn                   100267b0 f   LIBCMT:strcspn.obj
 0001:00025800       _strcmp                    10026800 f   LIBCMT:strcmp.obj
 0001:00025e55       ___get_qualified_locale    10026e55 f   LIBCMT:getqloc.obj
 0001:00027560       _memcmp                    10028560 f   LIBCMT:memcmp.obj
 0001:00028ac0       _strpbrk                   10029ac0 f   LIBCMT:strpbrk.obj
 0001:00028b00       ___mtold12                 10029b00 f   LIBCMT:_mantold_.obj
 0001:00028cf0       ___ascii_strnicmp          10029cf0 f   LIBCMT:_strnicm.obj
 0001:00028d51       __flswbuf                  10029d51 f   LIBCMT:_flswbuf.obj
 0001:00028ec5       __wchartodigit             10029ec5 f   LIBCMT:wchtodig.obj
 0001:00029065       ___ascii_stricmp           1002a065 f   LIBCMT:stricmp.obj
 0001:0002909e       __stricmp_l                1002a09e f   LIBCMT:stricmp.obj
 0001:0002915e       __stricmp                  1002a15e f   LIBCMT:stricmp.obj
 0001:000291a5       _atol                      1002a1a5 f   LIBCMT:atox.obj
 0001:000291bb       __atol_l                   1002a1bb f   LIBCMT:atox.obj
 0001:000291d4       _atoi                      1002a1d4 f   LIBCMT:atox.obj
 0001:000291df       __atoi_l                   1002a1df f   LIBCMT:atox.obj
 0001:000291ea       __atoi64                   1002a1ea f   LIBCMT:atox.obj
 0001:00029200       __atoi64_l                 1002a200 f   LIBCMT:atox.obj
 0001:000292d3       __itoa_s                   1002a2d3 f   LIBCMT:xtoas.obj
 0001:000292fd       __ltoa_s                   1002a2fd f   LIBCMT:xtoas.obj
 0001:00029324       __ultoa_s                  1002a324 f   LIBCMT:xtoas.obj
 0001:0002942a       __i64toa_s                 1002a42a f   LIBCMT:xtoas.obj
 0001:0002945f       __ui64toa_s                1002a45f f   LIBCMT:xtoas.obj
 0001:0002971b       __strtoi64                 1002a71b f   LIBCMT:strtoq.obj
 0001:00029746       __strtoi64_l               1002a746 f   LIBCMT:strtoq.obj
 0001:00029763       __strtoui64                1002a763 f   LIBCMT:strtoq.obj
 0001:0002978f       __strtoui64_l              1002a78f f   LIBCMT:strtoq.obj
 0001:000297b0       __allmul                   1002a7b0 f   LIBCMT:llmul.obj
 0001:000297e4       _GetProcAddress@8          1002a7e4 f   kernel32:KERNEL32.dll
 0001:000297ea       _GetModuleHandleA@4        1002a7ea f   kernel32:KERNEL32.dll
 0001:000297f0       _HeapAlloc@12              1002a7f0 f   kernel32:KERNEL32.dll
 0001:000297f6       _GetLastError@0            1002a7f6 f   kernel32:KERNEL32.dll
 0001:000297fc       _HeapFree@12               1002a7fc f   kernel32:KERNEL32.dll
 0001:00029802       _EnterCriticalSection@4    1002a802 f   kernel32:KERNEL32.dll
 0001:00029808       _LeaveCriticalSection@4    1002a808 f   kernel32:KERNEL32.dll
 0001:0002980e       _DeleteFileA@4             1002a80e f   kernel32:KERNEL32.dll
 0001:00029814       _GetModuleHandleW@4        1002a814 f   kernel32:KERNEL32.dll
 0001:0002981a       _ExitProcess@4             1002a81a f   kernel32:KERNEL32.dll
 0001:00029820       _DecodePointer@4           1002a820 f   kernel32:KERNEL32.dll
 0001:00029826       _HeapReAlloc@16            1002a826 f   kernel32:KERNEL32.dll
 0001:0002982c       _WriteConsoleW@20          1002a82c f   kernel32:KERNEL32.dll
 0001:00029832       _GetFileType@4             1002a832 f   kernel32:KERNEL32.dll
 0001:00029838       _GetStdHandle@4            1002a838 f   kernel32:KERNEL32.dll
 0001:0002983e       _GetModuleFileNameW@12     1002a83e f   kernel32:KERNEL32.dll
 0001:00029844       _GetCurrentThreadId@0      1002a844 f   kernel32:KERNEL32.dll
 0001:0002984a       _GetCommandLineA@0         1002a84a f   kernel32:KERNEL32.dll
 0001:00029850       _WriteFile@20              1002a850 f   kernel32:KERNEL32.dll
 0001:00029856       _HeapCreate@12             1002a856 f   kernel32:KERNEL32.dll
 0001:0002985c       _HeapDestroy@4             1002a85c f   kernel32:KERNEL32.dll
 0001:00029862       _EncodePointer@4           1002a862 f   kernel32:KERNEL32.dll
 0001:00029868       _UnhandledExceptionFilter@4 1002a868 f   kernel32:KERNEL32.dll
 0001:0002986e       _SetUnhandledExceptionFilter@4 1002a86e f   kernel32:KERNEL32.dll
 0001:00029874       _IsDebuggerPresent@0       1002a874 f   kernel32:KERNEL32.dll
 0001:0002987a       _TerminateProcess@8        1002a87a f   kernel32:KERNEL32.dll
 0001:00029880       _GetCurrentProcess@0       1002a880 f   kernel32:KERNEL32.dll
 0001:00029886       _IsProcessorFeaturePresent@4 1002a886 f   kernel32:KERNEL32.dll
 0001:0002988c       _RaiseException@16         1002a88c f   kernel32:KERNEL32.dll
 0001:00029892       _SetHandleCount@4          1002a892 f   kernel32:KERNEL32.dll
 0001:00029898       _InitializeCriticalSectionAndSpinCount@8 1002a898 f   kernel32:KERNEL32.dll
 0001:0002989e       _GetStartupInfoW@4         1002a89e f   kernel32:KERNEL32.dll
 0001:000298a4       _DeleteCriticalSection@4   1002a8a4 f   kernel32:KERNEL32.dll
 0001:000298aa       _Sleep@4                   1002a8aa f   kernel32:KERNEL32.dll
 0001:000298b0       _FatalAppExitA@8           1002a8b0 f   kernel32:KERNEL32.dll
 0001:000298b6       _WideCharToMultiByte@32    1002a8b6 f   kernel32:KERNEL32.dll
 0001:000298bc       _GetConsoleCP@0            1002a8bc f   kernel32:KERNEL32.dll
 0001:000298c2       _GetConsoleMode@8          1002a8c2 f   kernel32:KERNEL32.dll
 0001:000298c8       _CloseHandle@4             1002a8c8 f   kernel32:KERNEL32.dll
 0001:000298ce       _MultiByteToWideChar@24    1002a8ce f   kernel32:KERNEL32.dll
 0001:000298d4       _ReadFile@20               1002a8d4 f   kernel32:KERNEL32.dll
 0001:000298da       _SetFilePointer@16         1002a8da f   kernel32:KERNEL32.dll
 0001:000298e0       _RtlUnwind@16              1002a8e0 f   kernel32:KERNEL32.dll
 0001:000298e6       _SetConsoleCtrlHandler@8   1002a8e6 f   kernel32:KERNEL32.dll
 0001:000298ec       _FreeLibrary@4             1002a8ec f   kernel32:KERNEL32.dll
 0001:000298f2       _InterlockedExchange@8     1002a8f2 f   kernel32:KERNEL32.dll
 0001:000298f8       _LoadLibraryW@4            1002a8f8 f   kernel32:KERNEL32.dll
 0001:000298fe       _GetLocaleInfoW@16         1002a8fe f   kernel32:KERNEL32.dll
 0001:00029904       _TlsAlloc@0                1002a904 f   kernel32:KERNEL32.dll
 0001:0002990a       _TlsGetValue@4             1002a90a f   kernel32:KERNEL32.dll
 0001:00029910       _TlsSetValue@8             1002a910 f   kernel32:KERNEL32.dll
 0001:00029916       _TlsFree@4                 1002a916 f   kernel32:KERNEL32.dll
 0001:0002991c       _InterlockedIncrement@4    1002a91c f   kernel32:KERNEL32.dll
 0001:00029922       _SetLastError@4            1002a922 f   kernel32:KERNEL32.dll
 0001:00029928       _InterlockedDecrement@4    1002a928 f   kernel32:KERNEL32.dll
 0001:0002992e       _GetCurrentThread@0        1002a92e f   kernel32:KERNEL32.dll
 0001:00029934       _GetModuleFileNameA@12     1002a934 f   kernel32:KERNEL32.dll
 0001:0002993a       _FreeEnvironmentStringsW@4 1002a93a f   kernel32:KERNEL32.dll
 0001:00029940       _GetEnvironmentStringsW@0  1002a940 f   kernel32:KERNEL32.dll
 0001:00029946       _QueryPerformanceCounter@4 1002a946 f   kernel32:KERNEL32.dll
 0001:0002994c       _GetTickCount@0            1002a94c f   kernel32:KERNEL32.dll
 0001:00029952       _GetCurrentProcessId@0     1002a952 f   kernel32:KERNEL32.dll
 0001:00029958       _GetSystemTimeAsFileTime@4 1002a958 f   kernel32:KERNEL32.dll
 0001:0002995e       _GetCPInfo@8               1002a95e f   kernel32:KERNEL32.dll
 0001:00029964       _GetACP@0                  1002a964 f   kernel32:KERNEL32.dll
 0001:0002996a       _GetOEMCP@0                1002a96a f   kernel32:KERNEL32.dll
 0001:00029970       _IsValidCodePage@4         1002a970 f   kernel32:KERNEL32.dll
 0001:00029976       _FlushFileBuffers@4        1002a976 f   kernel32:KERNEL32.dll
 0001:0002997c       _SetStdHandle@8            1002a97c f   kernel32:KERNEL32.dll
 0001:00029982       _CreateFileA@28            1002a982 f   kernel32:KERNEL32.dll
 0001:00029988       _HeapSize@12               1002a988 f   kernel32:KERNEL32.dll
 0001:0002998e       _LCMapStringW@24           1002a98e f   kernel32:KERNEL32.dll
 0001:00029994       _GetStringTypeW@16         1002a994 f   kernel32:KERNEL32.dll
 0001:0002999a       _CreateFileW@28            1002a99a f   kernel32:KERNEL32.dll
 0001:000299a0       _SetEndOfFile@4            1002a9a0 f   kernel32:KERNEL32.dll
 0001:000299a6       _GetProcessHeap@0          1002a9a6 f   kernel32:KERNEL32.dll
 0001:000299ac       _GetUserDefaultLCID@0      1002a9ac f   kernel32:KERNEL32.dll
 0001:000299b2       _GetLocaleInfoA@16         1002a9b2 f   kernel32:KERNEL32.dll
 0001:000299b8       _EnumSystemLocalesA@8      1002a9b8 f   kernel32:KERNEL32.dll
 0001:000299be       _IsValidLocale@8           1002a9be f   kernel32:KERNEL32.dll
 0002:00000000       ___xc_a                    10034000     LIBCMT:crt0init.obj
 0002:00000104       ___xc_z                    10034104     LIBCMT:crt0init.obj
 0002:00000208       ___xi_a                    10034208     LIBCMT:crt0init.obj
 0002:00000420       ___xi_z                    10034420     LIBCMT:crt0init.obj
 0002:00000524       ___xp_a                    10034524     LIBCMT:crt0init.obj
 0002:00000830       ___xp_z                    10034830     LIBCMT:crt0init.obj
 0002:00000934       ___xt_a                    10034934     LIBCMT:crt0init.obj
 0002:00000a38       ___xt_z                    10034a38     LIBCMT:crt0init.obj
 0002:00000b5c       _untitled_M                10034b5c     untitled.obj
 0002:00000b60       __real@41f0000000000000    10034b60     untitled.obj
 0002:00000b70       __real@3ff0000000000000    10034b70     untitled.obj
 0002:00000b80       __real@406f400000000000    10034b80     untitled.obj
 0002:00000b8c       ??_C@_0BF@GGMNNFDC@Data?5Type?5Conversion?$AA@ 10034b8c     untitled.obj
 0002:00000ba8       ??_C@_0BI@PHJEPFFP@Error?5creating?5scope?51?6?$AA@ 10034ba8     untitled.obj
 0002:00000bc4       ??_C@_03HBFGMJOD@rt_?$AA@  10034bc4     untitled.obj
 0002:00000bc8       ??_C@_04EPKDLPPB@tout?$AA@ 10034bc8     untitled.obj
 0002:00000bd0       __real@bff0000000000000    10034bd0     untitled.obj
 0002:00000bd9       ??_C@_00CNPNBAHC@?$AA@     10034bd9     untitled.obj
 0002:00000be0       __real@3fc999999999999a    10034be0     untitled.obj
 0002:00001450       ??_C@_0DA@IEHFPFCJ@Unexpected?5itemKind?$DN?$CFd?5in?5rt_Pro@ 10035450     rt_logging.obj
 0002:0000148c       ??_C@_0DA@IAPIIJJL@Unexpected?5itemKind?$DN?$CFd?5in?5rt_Pro@ 1003548c     rt_logging.obj
 0002:000014c8       ??_C@_0DA@IFLHJPBO@Unexpected?5itemKind?$DN?$CFd?5in?5rt_Pro@ 100354c8     rt_logging.obj
 0002:00001504       ??_C@_0DJ@FHKINPLE@Unexpected?5itemKind?5?$DN?5DATA_ITEM?5@ 10035504     rt_logging.obj
 0002:00001548       ??_C@_0BE@LCIGPJIG@MATLAB?55?40?5MAT?9file?$AA@ 10035548     rt_logging.obj
 0002:00001560       ??_C@_0BK@EEMDELA@unable?5to?5open?5data?5file?6?$AA@ 10035560     rt_logging.obj
 0002:00001580       ??_C@_0BF@JPILDDFA@?$CK?$CK?$CK?5Error?5opening?5?$CFs?$AA@ 10035580     rt_logging.obj
 0002:0000159c       ??_C@_03ELIABIOC@w?$CLb?$AA@ 1003559c     rt_logging.obj
 0002:000015a0       ??_C@_04HDOCAJNK@?$CFs?$CFs?$AA@ 100355a0     rt_logging.obj
 0002:000015a8       ??_C@_0N@IPAEOLLP@_rtw_tmw?4tmw?$AA@ 100355a8     rt_logging.obj
 0002:000015b8       ??_C@_0MG@NKMLMOGF@?$CK?$CK?$CK?5To?5avoid?5wrapping?0?5explicitl@ 100355b8     rt_logging.obj
 0002:000016a8       ??_C@_0FB@PCJEAJIB@?$CK?$CK?$CK?5Log?5variable?5?$CFs?5has?5wrapped?5@ 100356a8     rt_logging.obj
 0002:0000170c       ??_C@_04CGFJFPFD@none?$AA@ 1003570c     rt_logging.obj
 0002:00001718       ??_C@_0KF@JDDLEOKO@?5?5?5?5varName?5?5?5?5?5?5?5?5?5?5?$DN?5?$CFs?6?5?5?5?5nR@ 10035718     rt_logging.obj
 0002:000017e0       __real@4020000000000000    100357e0     rt_logging.obj
 0002:000017f0       ??_C@_0LE@OALKKEFM@?5?5?5?5varName?5?5?5?5?5?5?5?5?5?5?$DN?5?$CFs?5?$CIcompl@ 100357f0     rt_logging.obj
 0002:000018c8       ??_C@_0KH@CGNMHNFE@?5?5?5?5varName?5?5?5?5?5?5?5?5?5?5?$DN?5?$CFs?$CFs?6?5?5?5?5@ 100358c8     rt_logging.obj
 0002:00001990       ??_C@_0N@LGFBAGEL@?5?$CIreal?5part?$CJ?$AA@ 10035990     rt_logging.obj
 0002:000019a0       ??_C@_0BO@BBLOGEBK@?$CK?$CK?$CK?5Memory?5allocation?5error?4?6?$AA@ 100359a0     rt_logging.obj
 0002:000019c8       ??_C@_0FK@DPGAOBGA@?$CK?$CK?$CK?5Error?5allocating?5memory?5for?5@ 100359c8     rt_logging.obj
 0002:00001a38       ??_C@_0JP@DBCLPCCI@?$CK?$CK?$CK?5Details?3?6?5?5?5?5?5?5?5varName?5?5?5?5?5@ 10035a38     rt_logging.obj
 0002:00001af8       ??_C@_0DF@BBCNMOPM@?$CK?$CK?$CK?5Error?5allocating?5memory?5for?5@ 10035af8     rt_logging.obj
 0002:00001b38       ??_C@_0CM@CAMILBED@?$CK?$CK?$CK?5Error?5allocating?5memory?5for?5@ 10035b38     rt_logging.obj
 0002:00001b70       ??_C@_0JP@DKLMHCBI@?$CK?$CK?$CK?5Details?3?6?5?5?5?5?5?5?5varName?5?5?5?5?5@ 10035b70     rt_logging.obj
 0002:00001c30       ??_C@_0KE@JEFOLKNF@?6?$CK?$CK?$CK?5Memory?5required?5to?5log?5vari@ 10035c30     rt_logging.obj
 0002:00001cf8       __real@41efffffffe00000    10035cf8     rt_logging.obj
 0002:00001d04       ??_C@_0DP@HPDMIOFM@?$CK?$CK?$CK?5Using?5a?5default?5buffer?5of?5si@ 10035d04     rt_logging.obj
 0002:00001d50       __real@0000000000000000    10035d50     rt_logging.obj
 0002:00001d60       __real@41dfffffffc00000    10035d60     rt_logging.obj
 0002:00001d70       __real@8000000000000000    10035d70     rt_logging.obj
 0002:00001d80       __real@4330000000000000    10035d80     rt_logging.obj
 0002:00001d90       __real@c000000000000000    10035d90     rt_logging.obj
 0002:00001da0       __real@bfbf9add3afd2773    10035da0     rt_logging.obj
 0002:00001dac       ??_C@_0DH@GAJCNOJP@?$CK?$CK?$CK?5Error?5writing?5structure?5log?5@ 10035dac     rt_logging.obj
 0002:00001df0       ??_C@_0BD@POEALECL@?$CK?$CK?5created?5?$CFs?5?$CK?$CK?6?6?$AA@ 10035df0     rt_logging.obj
 0002:00001e08       ??_C@_0CN@FLMCHCPB@?$CK?$CK?$CK?5Error?5writing?5log?5variable?5?$CF@ 10035e08     rt_logging.obj
 0002:00001e40       ??_C@_0CB@IBGJGELG@?$CK?$CK?$CK?5Error?5writing?5?$CFs?5due?5to?3?5?$CFs?6@ 10035e40     rt_logging.obj
 0002:00001e68       ??_C@_0BI@GGDNPHLJ@?$CK?$CK?$CK?5Error?5writing?5to?5?$CFs?$AA@ 10035e68     rt_logging.obj
 0002:00001e88       ??_C@_0EE@LCGFPNON@?$CK?$CK?$CK?5Error?5creating?5signals?5struc@ 10035e88     rt_logging.obj
 0002:00001edc       ??_C@_0CE@NHECEDMK@?$CK?$CK?$CK?5Error?5creating?5log?5variable?5@ 10035edc     rt_logging.obj
 0002:00001f08       ??_C@_0DB@IOCGKAGH@?$CK?$CK?$CK?5Errors?5occurred?5when?5startin@ 10035f08     rt_logging.obj
 0002:00001f60       ??_C@_0BI@INNPNFJN@Memory?5Allocation?5Error?$AA@ 10035f60     rtw_modelmap_utils.obj
 0002:00001f7c       ??_C@_1DC@NFAOIFKB@?$AAe?$AAn?$AAc?$AAo?$AAd?$AAe?$AAd?$AAP?$AAa?$AAt?$AAh?$AA?$FL?$AAj?$AA?9?$AA1?$AA?$FN?$AA?5?$AA?$DN?$AA?$DN?$AA?5?$AA?8?$AA?2?$AA0?$AA?8?$AA?$AA@ 10035f7c     rtw_modelmap_utils.obj
 0002:00001fb8       ??_C@_1CI@OEAJCJND@?$AAj?$AA?5?$AA?$DN?$AA?$DN?$AA?5?$AAe?$AAn?$AAc?$AAo?$AAd?$AAe?$AAd?$AAP?$AAa?$AAt?$AAh?$AAL?$AAe?$AAn?$AA?$AA@ 10035fb8     rtw_modelmap_utils.obj
 0002:00001fe8       ??_C@_1FC@NGMHMBMI@?$AAD?$AA?3?$AA?2?$AAR?$AA2?$AA0?$AA1?$AA6?$AAa?$AA?2?$AAr?$AAt?$AAw?$AA?2?$AAc?$AA?2?$AAs?$AAr?$AAc?$AA?2?$AAr?$AAt?$AAw?$AA_?$AAm?$AAo?$AAd?$AAe?$AAl?$AAm?$AAa?$AAp@ 10035fe8     rtw_modelmap_utils.obj
 0002:0000204c       ??_C@_1DI@FLNJGPEE@?$AAs?$AAi?$AAg?$AAC?$AAo?$AAm?$AAp?$AAl?$AAe?$AAx?$AAi?$AAt?$AAy?$AA?$FL?$AA?$CK?$AAs?$AAi?$AAg?$AAI?$AAd?$AAx?$AA?$FN?$AA?5?$AA?$CB?$AA?$DN?$AA?5?$AA1?$AA?$AA@ 1003604c     rtw_modelmap_utils.obj
 0002:00002090       ??_C@_1KI@OFELMGBG@?$AA?$CI?$AA?$CI?$AA?$CI?$AAd?$AAa?$AAt?$AAa?$AAT?$AAy?$AAp?$AAe?$AAM?$AAa?$AAp?$AA?$CJ?$AA?$FL?$AA?$CI?$AA?$CI?$AA?$CI?$AAs?$AAt?$AAa?$AAt?$AAe?$AAs?$AA?$CJ?$AA?$FL?$AA?$CI?$AAi?$AA?$CJ?$AA?$FN?$AA?4@ 10036090     rtw_modelmap_utils.obj
 0002:0000215c       ??_C@_1DA@ILCMPHNE@?$AAf?$AAu?$AAl?$AAl?$AAP?$AAa?$AAt?$AAh?$AA?5?$AA?$CB?$AA?$DN?$AA?5?$AA?$CI?$AA?$CI?$AAv?$AAo?$AAi?$AAd?$AA?5?$AA?$CK?$AA?$CJ?$AA0?$AA?$CJ?$AA?$AA@ 1003615c     rtw_modelmap_utils.obj
 0002:00002198       ??_C@_1DM@DBAOGGOO@?$AAm?$AAm?$AAi?$AAP?$AAa?$AAt?$AAh?$AA?$FL?$AAm?$AAm?$AAi?$AAP?$AAa?$AAt?$AAh?$AAL?$AAe?$AAn?$AA?9?$AA1?$AA?$FN?$AA?5?$AA?$DN?$AA?$DN?$AA?5?$AA?8?$AA?2?$AA0?$AA?8?$AA?$AA@ 10036198     rtw_modelmap_utils.obj
 0002:000021e0       ??_C@_1DG@HPCJGNCE@?$AAm?$AAm?$AAi?$AAP?$AAa?$AAt?$AAh?$AA?$FL?$AAp?$AAa?$AAt?$AAh?$AAL?$AAe?$AAn?$AA?9?$AA1?$AA?$FN?$AA?5?$AA?$DN?$AA?$DN?$AA?5?$AA?8?$AA?2?$AA0?$AA?8?$AA?$AA@ 100361e0     rtw_modelmap_utils.obj
 0002:00002220       ??_C@_1FK@GLJIMFHB@?$AA?$CI?$AA?$CI?$AAm?$AAm?$AAi?$AA?$CJ?$AA?9?$AA?$DO?$AAI?$AAn?$AAs?$AAt?$AAa?$AAn?$AAc?$AAe?$AAM?$AAa?$AAp?$AA?4?$AAf?$AAu?$AAl?$AAl?$AAP?$AAa?$AAt?$AAh?$AA?$CJ?$AA?5?$AA?$DN?$AA?$DN@ 10036220     rtw_modelmap_utils.obj
 0002:0000228c       ??_C@_1CI@OEPPFCCA@?$AAp?$AAa?$AAt?$AAh?$AA?5?$AA?$CB?$AA?$DN?$AA?5?$AA?$CI?$AA?$CI?$AAv?$AAo?$AAi?$AAd?$AA?5?$AA?$CK?$AA?$CJ?$AA0?$AA?$CJ?$AA?$AA@ 1003628c     rtw_modelmap_utils.obj
 0002:000022c0       ??_C@_1GI@KIEJKPGC@?$AAf?$AAu?$AAl?$AAl?$AAS?$AAt?$AAa?$AAt?$AAe?$AAB?$AAl?$AAo?$AAc?$AAk?$AAP?$AAa?$AAt?$AAh?$AA?$FL?$AAf?$AAu?$AAl?$AAl?$AAS?$AAt?$AAa?$AAt?$AAe?$AAB?$AAl?$AAo?$AAc@ 100362c0     rtw_modelmap_utils.obj
 0002:00002340       ??_C@_1EE@DNPIBJHC@?$AA?$CI?$AA?$CI?$AAd?$AAi?$AAm?$AAM?$AAa?$AAp?$AA?$CJ?$AA?$FL?$AA?$CI?$AAm?$AAa?$AAp?$AAI?$AAd?$AAx?$AA?$CJ?$AA?$FN?$AA?4?$AAn?$AAu?$AAm?$AAD?$AAi?$AAm?$AAs?$AA?$CJ?$AA?5?$AA?$DN?$AA?$DN?$AA?5@ 10036340     rtw_modelmap_utils.obj
 0002:00002394       ??_C@_1BA@KDMGHCHP@?$AAT?$AAI?$AAD?$AA?$DN?$AA?$DN?$AA?9?$AA1?$AA?$AA@ 10036394     rtw_modelmap_utils.obj
 0002:000023a8       ??_C@_1BI@LEBJNOGG@?$AAc?$AAs?$AAv?$AAI?$AAd?$AAx?$AA?5?$AA?$DO?$AA?$DN?$AA?5?$AA0?$AA?$AA@ 100363a8     rtw_modelmap_utils.obj
 0002:000023c4       ??_C@_06FAENGAMN@DSTATE?$AA@ 100363c4     rtw_modelmap_utils.obj
 0002:000023cc       ??_C@_06JFOKFOED@CSTATE?$AA@ 100363cc     rtw_modelmap_utils.obj
 0002:000023d4       ??_C@_1DM@DHGKBPCE@?$AAs?$AAi?$AAg?$AAP?$AAa?$AAt?$AAh?$AA?$FL?$AAs?$AAi?$AAg?$AAP?$AAa?$AAt?$AAh?$AAL?$AAe?$AAn?$AA?9?$AA1?$AA?$FN?$AA?5?$AA?$DN?$AA?$DN?$AA?5?$AA?8?$AA?2?$AA0?$AA?8?$AA?$AA@ 100363d4     rtw_modelmap_utils.obj
 0002:0000241c       ??_C@_1DC@LHIAKAFE@?$AAb?$AAl?$AAo?$AAc?$AAk?$AAP?$AAa?$AAt?$AAh?$AA?5?$AA?$CB?$AA?$DN?$AA?5?$AA?$CI?$AA?$CI?$AAv?$AAo?$AAi?$AAd?$AA?5?$AA?$CK?$AA?$CJ?$AA0?$AA?$CJ?$AA?$AA@ 1003641c     rtw_modelmap_utils.obj
 0002:00002458       ??_C@_05KNFBNCOH@float?$AA@ 10036458     untitled_capi.obj
 0002:00002460       ??_C@_06CNMIJIPB@real_T?$AA@ 10036460     untitled_capi.obj
 0002:00002468       ??_C@_06BNJCAIGJ@double?$AA@ 10036468     untitled_capi.obj
 0002:00002470       ??_C@_05LPIJGKJ@Value?$AA@ 10036470     untitled_capi.obj
 0002:00002478       ??_C@_08CHMPKCOC@Constant?$AA@ 10036478     untitled_capi.obj
 0002:00002588       ??_C@_0CJ@GGPBKPNK@Could?5not?5start?5ToAsyncQueue?5app@ 10036588     untitled_tgtconn.obj
 0002:000025bc       _serialfifoground          100365bc     xpc_datatype_ground.obj
 0002:000025c8       _bcmsg1553ground           100365c8     xpc_datatype_ground.obj
 0002:000025d8       _bcstatground              100365d8     xpc_datatype_ground.obj
 0002:000025f0       _bmmsg1553ground           100365f0     xpc_datatype_ground.obj
 0002:00002610       ??_C@_08GDFANMDE@untitled?$AA@ 10036610     xpctarget.obj
 0002:0000261c       _ptsetfilename             1003661c     xpctarget.obj
 0002:00002620       _xmlfile                   10036620     xpctarget.obj
 0002:00002628       __real@4014000000000000    10036628     xpctarget.obj
 0002:00002634       ??_C@_0L@CHBJKKFC@xpceSetVar?$AA@ 10036634     xpctarget.obj
 0002:00002648       __real@3fb999999999999a    10036648     xpctarget.obj
 0002:00002654       ??_C@_03ICACBPID@6?44?$AA@ 10036654     xpctarget.obj
 0002:00002658       _untitled_BIOMAP           10036658     appmappingData.obj
 0002:00002670       _untitled_LBLMAP           10036670     appmappingData.obj
 0002:00002688       _untitled_SIDMAP           10036688     appmappingData.obj
 0002:000026a0       _untitled_SBIO             100366a0     appmappingData.obj
 0002:000026a8       _untitled_SLBL             100366a8     appmappingData.obj
 0002:000026b0       _untitled_PTIDSMAP         100366b0     appmappingData.obj
 0002:000026c0       _untitled_PTNAMESMAP       100366c0     appmappingData.obj
 0002:000026d0       _untitled_SPTMAP           100366d0     appmappingData.obj
 0002:000026d8       _untitled_dtmap            100366d8     appmappingData.obj
 0002:000026e8       _appInfo                   100366e8     appmappingData.obj
 0002:00002760       ??_C@_0BI@FEOPLEMG@?$CF08x?5?$CF08x?5?$CF08x?5?5?5?5?5?5?$CFc?6?$AA@ 10036760     xpcruntime:xpcimports.obj
 0002:00002778       ??_C@_0CE@DGLLGDFH@?5?5?5?5Phys?5?5?5Virtual?5?5?5Length?5IO?1M@ 10036778     xpcruntime:xpcimports.obj
 0002:0000279c       ??_C@_0BF@OLKLEKBD@bus?5?$DN?5?$CFd?0?5slot?5?$DN?5?$CFd?6?$AA@ 1003679c     xpcruntime:xpcimports.obj
 0002:000027b4       ??_C@_0BE@OLDDDNHM@InterruptLine?5?$DN?5?$CFd?6?$AA@ 100367b4     xpcruntime:xpcimports.obj
 0002:000027c8       ??_C@_0BD@MMMMEFCM@Class?5Code?5?$DN?50x?$CFx?6?$AA@ 100367c8     xpcruntime:xpcimports.obj
 0002:000027dc       ??_C@_0DH@OHCBLNMG@Subsystem?5Device?5ID?5?$DN?50x?$CFx?6Subsy@ 100367dc     xpcruntime:xpcimports.obj
 0002:00002814       ??_C@_0CC@DMFKNLL@VendorId?5?$DN?50x?$CFx?0?5DeviceId?5?$DN?50x?$CFx@ 10036814     xpcruntime:xpcimports.obj
 0002:00002838       ??_C@_0BP@FBDEJJJH@slTestRegAssessment?5not?5found?6?$AA@ 10036838     xpcruntime:xpcimports.obj
 0002:00002858       ??_C@_0BE@JPNPBBEO@slTestRegAssessment?$AA@ 10036858     xpcruntime:xpcimports.obj
 0002:0000286c       ??_C@_0BL@EMFGKAPA@slTestTerminate?5not?5found?6?$AA@ 1003686c     xpcruntime:xpcimports.obj
 0002:00002888       ??_C@_0BA@LBHLABFP@slTestTerminate?$AA@ 10036888     xpcruntime:xpcimports.obj
 0002:00002898       ??_C@_0BM@JIKCFFNJ@slTestEvalOnFail?5not?5found?6?$AA@ 10036898     xpcruntime:xpcimports.obj
 0002:000028b4       ??_C@_0BB@HJHKONHO@slTestEvalOnFail?$AA@ 100368b4     xpcruntime:xpcimports.obj
 0002:000028c8       ??_C@_0CA@FGJCEBAG@slTestLogAssessments?5not?5found?6?$AA@ 100368c8     xpcruntime:xpcimports.obj
 0002:000028e8       ??_C@_0BF@OOMPMEBC@slTestLogAssessments?$AA@ 100368e8     xpcruntime:xpcimports.obj
 0002:00002900       ??_C@_0BM@LAJFCCJH@slTestInitialize?5not?5found?6?$AA@ 10036900     xpcruntime:xpcimports.obj
 0002:0000291c       ??_C@_0BB@IPMDDBHK@slTestInitialize?$AA@ 1003691c     xpcruntime:xpcimports.obj
 0002:00002930       ??_C@_0CB@MLFFBFCM@unRegisterPTPTimeRead?5not?5found?6@ 10036930     xpcruntime:xpcimports.obj
 0002:00002954       ??_C@_0BG@KIGCDDJI@unRegisterPTPTimeRead?$AA@ 10036954     xpcruntime:xpcimports.obj
 0002:0000296c       ??_C@_0BP@LHPKAJIP@registerPTPTimeRead?5not?5found?6?$AA@ 1003696c     xpcruntime:xpcimports.obj
 0002:0000298c       ??_C@_0BE@FCLCBOC@registerPTPTimeRead?$AA@ 1003698c     xpcruntime:xpcimports.obj
 0002:000029a0       ??_C@_0CD@GIOJPGJA@slrteGetCurrentStepSize?5not?5foun@ 100369a0     xpcruntime:xpcimports.obj
 0002:000029c4       ??_C@_0BI@CLNBLDKJ@slrteGetCurrentStepSize?$AA@ 100369c4     xpcruntime:xpcimports.obj
 0002:000029dc       ??_C@_0CB@MKHINEIJ@slrteSetStepSizeDelta?5not?5found?6@ 100369dc     xpcruntime:xpcimports.obj
 0002:00002a00       ??_C@_0BG@CCHICKPN@slrteSetStepSizeDelta?$AA@ 10036a00     xpcruntime:xpcimports.obj
 0002:00002a18       ??_C@_0CI@OADDPMKB@xpceGetIntTimerGranularityNS?5not@ 10036a18     xpcruntime:xpcimports.obj
 0002:00002a40       ??_C@_0BN@HJOHIFOM@xpceGetIntTimerGranularityNS?$AA@ 10036a40     xpcruntime:xpcimports.obj
 0002:00002a60       ??_C@_0CF@PNCKPEHN@sendToAsyncQueueTgtAppSvc?5not?5fo@ 10036a60     xpcruntime:xpcimports.obj
 0002:00002a88       ??_C@_0BK@IDACEHAO@sendToAsyncQueueTgtAppSvc?$AA@ 10036a88     xpcruntime:xpcimports.obj
 0002:00002aa4       ??_C@_0CK@NDEMAMKF@terminateToAsyncQueueTgtAppSvc?5n@ 10036aa4     xpcruntime:xpcimports.obj
 0002:00002ad0       ??_C@_0BP@IJNGPPPE@terminateToAsyncQueueTgtAppSvc?$AA@ 10036ad0     xpcruntime:xpcimports.obj
 0002:00002af0       ??_C@_0CG@JGOFFKEL@startToAsyncQueueTgtAppSvc?5not?5f@ 10036af0     xpcruntime:xpcimports.obj
 0002:00002b18       ??_C@_0BL@CDFCLKOL@startToAsyncQueueTgtAppSvc?$AA@ 10036b18     xpcruntime:xpcimports.obj
 0002:00002b34       ??_C@_0BK@NEKDLJHG@getStatusFlags?5not?5found?6?$AA@ 10036b34     xpcruntime:xpcimports.obj
 0002:00002b50       ??_C@_0P@GDLHFECE@getStatusFlags?$AA@ 10036b50     xpcruntime:xpcimports.obj
 0002:00002b60       ??_C@_0BK@NCECBKNM@getCommService?5not?5found?6?$AA@ 10036b60     xpcruntime:xpcimports.obj
 0002:00002b7c       ??_C@_0P@KIKONDKK@getCommService?$AA@ 10036b7c     xpcruntime:xpcimports.obj
 0002:00002b8c       ??_C@_0BM@MPLCNIIE@getMemoryService?5not?5found?6?$AA@ 10036b8c     xpcruntime:xpcimports.obj
 0002:00002ba8       ??_C@_0BB@LCMHHHFN@getMemoryService?$AA@ 10036ba8     xpcruntime:xpcimports.obj
 0002:00002bbc       ??_C@_0BI@NHJNFMKH@xpceaddEvent?5not?5found?6?$AA@ 10036bbc     xpcruntime:xpcimports.obj
 0002:00002bd4       ??_C@_0N@IGGLCIGE@xpceaddEvent?$AA@ 10036bd4     xpcruntime:xpcimports.obj
 0002:00002be4       ??_C@_0BH@OINCDMLA@StreamVideo?5not?5found?6?$AA@ 10036be4     xpcruntime:xpcimports.obj
 0002:00002bfc       ??_C@_0M@MFJEGMHC@StreamVideo?$AA@ 10036bfc     xpcruntime:xpcimports.obj
 0002:00002c08       ??_C@_0BM@DBJBPLEL@StopVideoDisplay?5not?5found?6?$AA@ 10036c08     xpcruntime:xpcimports.obj
 0002:00002c24       ??_C@_0BB@JBBLMILG@StopVideoDisplay?$AA@ 10036c24     xpcruntime:xpcimports.obj
 0002:00002c38       ??_C@_0BN@EFIEBGOO@StartVideoDisplay?5not?5found?6?$AA@ 10036c38     xpcruntime:xpcimports.obj
 0002:00002c58       ??_C@_0BC@HCMIMIDN@StartVideoDisplay?$AA@ 10036c58     xpcruntime:xpcimports.obj
 0002:00002c6c       ??_C@_0BP@FMGLJAIJ@DestroyVideoDisplay?5not?5found?6?$AA@ 10036c6c     xpcruntime:xpcimports.obj
 0002:00002c8c       ??_C@_0BE@KJCKGPHA@DestroyVideoDisplay?$AA@ 10036c8c     xpcruntime:xpcimports.obj
 0002:00002ca0       ??_C@_0BO@HPPLLNFP@CreateVideoDisplay?5not?5found?6?$AA@ 10036ca0     xpcruntime:xpcimports.obj
 0002:00002cc0       ??_C@_0BD@NKCBPBJJ@CreateVideoDisplay?$AA@ 10036cc0     xpcruntime:xpcimports.obj
 0002:00002cd4       ??_C@_0BJ@PHJKOAFL@ConvertUImage?5not?5found?6?$AA@ 10036cd4     xpcruntime:xpcimports.obj
 0002:00002cf0       ??_C@_0O@MCPKDLLL@ConvertUImage?$AA@ 10036cf0     xpcruntime:xpcimports.obj
 0002:00002d00       ??_C@_0BF@NKGKKADL@StopVideo?5not?5found?6?$AA@ 10036d00     xpcruntime:xpcimports.obj
 0002:00002d18       ??_C@_09FAHCLKAG@StopVideo?$AA@ 10036d18     xpcruntime:xpcimports.obj
 0002:00002d24       ??_C@_0BL@JHGHPNBI@ReadFrameBuffer?5not?5found?6?$AA@ 10036d24     xpcruntime:xpcimports.obj
 0002:00002d40       ??_C@_0BA@FDNPOCLN@ReadFrameBuffer?$AA@ 10036d40     xpcruntime:xpcimports.obj
 0002:00002d50       ??_C@_0BG@HDCELEBP@StartVideo?5not?5found?6?$AA@ 10036d50     xpcruntime:xpcimports.obj
 0002:00002d68       ??_C@_0L@GBAEMHMH@StartVideo?$AA@ 10036d68     xpcruntime:xpcimports.obj
 0002:00002d74       ??_C@_0BL@DALDHKHC@GetVideoConfigs?5not?5found?6?$AA@ 10036d74     xpcruntime:xpcimports.obj
 0002:00002d90       ??_C@_0BA@PLPAPNAB@GetVideoConfigs?$AA@ 10036d90     xpcruntime:xpcimports.obj
 0002:00002da0       ??_C@_0BO@POKLDHMI@FindUsbVideoDevice?5not?5found?6?$AA@ 10036da0     xpcruntime:xpcimports.obj
 0002:00002dc0       ??_C@_0BD@MFNDMBOF@FindUsbVideoDevice?$AA@ 10036dc0     xpcruntime:xpcimports.obj
 0002:00002dd4       ??_C@_0BP@OFNCKOJH@xpceDeleteSemaphore?5not?5found?6?$AA@ 10036dd4     xpcruntime:xpcimports.obj
 0002:00002df4       ??_C@_0BE@MEBEKOIM@xpceDeleteSemaphore?$AA@ 10036df4     xpcruntime:xpcimports.obj
 0002:00002e08       ??_C@_0BP@LBANMHJP@xpceSignalSemaphore?5not?5found?6?$AA@ 10036e08     xpcruntime:xpcimports.obj
 0002:00002e28       ??_C@_0BE@NNDIOBKE@xpceSignalSemaphore?$AA@ 10036e28     xpcruntime:xpcimports.obj
 0002:00002e3c       ??_C@_0BN@NMFAADIO@xpceWaitSemaphore?5not?5found?6?$AA@ 10036e3c     xpcruntime:xpcimports.obj
 0002:00002e5c       ??_C@_0BC@IFNIONKJ@xpceWaitSemaphore?$AA@ 10036e5c     xpcruntime:xpcimports.obj
 0002:00002e70       ??_C@_0BP@KFBAFFKJ@xpceCreateSemaphore?5not?5found?6?$AA@ 10036e70     xpcruntime:xpcimports.obj
 0002:00002e90       ??_C@_0BE@IIGBFDHK@xpceCreateSemaphore?$AA@ 10036e90     xpcruntime:xpcimports.obj
 0002:00002ea4       ??_C@_0BK@KGPJBJND@TBGiveSpinFast?5not?5found?6?$AA@ 10036ea4     xpcruntime:xpcimports.obj
 0002:00002ec0       ??_C@_0P@FKNAAELA@TBGiveSpinFast?$AA@ 10036ec0     xpcruntime:xpcimports.obj
 0002:00002ed0       ??_C@_0BK@NKAIBHGB@TBTakeSpinFast?5not?5found?6?$AA@ 10036ed0     xpcruntime:xpcimports.obj
 0002:00002eec       ??_C@_0P@DAHDDBJG@TBTakeSpinFast?$AA@ 10036eec     xpcruntime:xpcimports.obj
 0002:00002efc       ??_C@_0BI@BKCPAAG@TBDeleteSpin?5not?5found?6?$AA@ 10036efc     xpcruntime:xpcimports.obj
 0002:00002f14       ??_C@_0N@HOAJHNBD@TBDeleteSpin?$AA@ 10036f14     xpcruntime:xpcimports.obj
 0002:00002f24       ??_C@_0BI@FHKMLKOE@TBCreateSpin?5not?5found?6?$AA@ 10036f24     xpcruntime:xpcimports.obj
 0002:00002f3c       ??_C@_0N@LKKJEKKA@TBCreateSpin?$AA@ 10036f3c     xpcruntime:xpcimports.obj
 0002:00002f4c       ??_C@_0BH@FBOPECBI@xpcBusyWait?5not?5found?6?$AA@ 10036f4c     xpcruntime:xpcimports.obj
 0002:00002f64       ??_C@_0M@ICBLMODA@xpcBusyWait?$AA@ 10036f64     xpcruntime:xpcimports.obj
 0002:00002f70       ??_C@_0BN@OEOAHCIO@xpcGetElapsedTime?5not?5found?6?$AA@ 10036f70     xpcruntime:xpcimports.obj
 0002:00002f90       ??_C@_0BC@JGKNLICL@xpcGetElapsedTime?$AA@ 10036f90     xpcruntime:xpcimports.obj
 0002:00002fa4       ??_C@_0CB@PKJEBPOG@xpcFreePhysicalMemory?5not?5found?6@ 10036fa4     xpcruntime:xpcimports.obj
 0002:00002fc8       ??_C@_0BG@CBNPGAEL@xpcFreePhysicalMemory?$AA@ 10036fc8     xpcruntime:xpcimports.obj
 0002:00002fe0       ??_C@_0CC@MOJPNHKL@xpcAllocPhysicalMemory?5not?5found@ 10036fe0     xpcruntime:xpcimports.obj
 0002:00003004       ??_C@_0BH@KJJLCAOJ@xpcAllocPhysicalMemory?$AA@ 10037004     xpcruntime:xpcimports.obj
 0002:0000301c       ??_C@_0BK@DHEMLBIM@xpcIsModelInit?5not?5found?6?$AA@ 1003701c     xpcruntime:xpcimports.obj
 0002:00003038       ??_C@_0P@OKGNGAGH@xpcIsModelInit?$AA@ 10037038     xpcruntime:xpcimports.obj
 0002:00003048       ??_C@_0BI@FHPFHECO@xpceUDPClose?5not?5found?6?$AA@ 10037048     xpcruntime:xpcimports.obj
 0002:00003060       ??_C@_0N@IEHPMFME@xpceUDPClose?$AA@ 10037060     xpcruntime:xpcimports.obj
 0002:00003070       ??_C@_0BK@OPJMLDLH@xpceUDPReceive?5not?5found?6?$AA@ 10037070     xpcruntime:xpcimports.obj
 0002:0000308c       ??_C@_0P@PLFDECIN@xpceUDPReceive?$AA@ 1003708c     xpcruntime:xpcimports.obj
 0002:0000309c       ??_C@_0BH@NOIKLPAB@xpceUDPSend?5not?5found?6?$AA@ 1003709c     xpcruntime:xpcimports.obj
 0002:000030b4       ??_C@_0M@OFPFLJGN@xpceUDPSend?$AA@ 100370b4     xpcruntime:xpcimports.obj
 0002:000030c0       ??_C@_0BO@IFKJBHKC@xpceUDPOpenReceive?5not?5found?6?$AA@ 100370c0     xpcruntime:xpcimports.obj
 0002:000030e0       ??_C@_0BD@BCELJJJL@xpceUDPOpenReceive?$AA@ 100370e0     xpcruntime:xpcimports.obj
 0002:000030f4       ??_C@_0BL@HNLPFEK@xpceUDPOpenSend?5not?5found?6?$AA@ 100370f4     xpcruntime:xpcimports.obj
 0002:00003110       ??_C@_0BA@FHMIOKFL@xpceUDPOpenSend?$AA@ 10037110     xpcruntime:xpcimports.obj
 0002:00003120       ??_C@_0BG@HNOFBOB@xpceGetTET?5not?5found?6?$AA@ 10037120     xpcruntime:xpcimports.obj
 0002:00003138       ??_C@_0L@OCBLLHBM@xpceGetTET?$AA@ 10037138     xpcruntime:xpcimports.obj
 0002:00003144       ??_C@_0BM@OABDBKAO@xpceGetParamDims?5not?5found?6?$AA@ 10037144     xpcruntime:xpcimports.obj
 0002:00003160       ??_C@_0BB@CEIJLFCD@xpceGetParamDims?$AA@ 10037160     xpcruntime:xpcimports.obj
 0002:00003174       ??_C@_0BM@POHNKBC@xpceGetParameter?5not?5found?6?$AA@ 10037174     xpcruntime:xpcimports.obj
 0002:00003190       ??_C@_0BB@GNFDFMCM@xpceGetParameter?$AA@ 10037190     xpcruntime:xpcimports.obj
 0002:000031a4       ??_C@_0BM@BJIKDLHA@xpceSetParameter?5not?5found?6?$AA@ 100371a4     xpcruntime:xpcimports.obj
 0002:000031c0       ??_C@_0BB@BJONJAGA@xpceSetParameter?$AA@ 100371c0     xpcruntime:xpcimports.obj
 0002:000031d4       ??_C@_0BO@GCBDJHMB@xpceGetSignalValue?5not?5found?6?$AA@ 100371d4     xpcruntime:xpcimports.obj
 0002:000031f4       ??_C@_0BD@PCKOKHO@xpceGetSignalValue?$AA@ 100371f4     xpcruntime:xpcimports.obj
 0002:00003208       ??_C@_0BK@KNBNFIKH@rl32eSendBlock?5not?5found?6?$AA@ 10037208     xpcruntime:xpcimports.obj
 0002:00003224       ??_C@_0P@MDMKIJF@rl32eSendBlock?$AA@ 10037224     xpcruntime:xpcimports.obj
 0002:00003234       ??_C@_0BL@PLIDKKGI@rl32eLineStatus?5not?5found?6?$AA@ 10037234     xpcruntime:xpcimports.obj
 0002:00003250       ??_C@_0BA@CFIJOJPK@rl32eLineStatus?$AA@ 10037250     xpcruntime:xpcimports.obj
 0002:00003260       ??_C@_0CD@LNMOFLAH@rl32eReceiveBufferCount?5not?5foun@ 10037260     xpcruntime:xpcimports.obj
 0002:00003284       ??_C@_0BI@PKEJFHMJ@rl32eReceiveBufferCount?$AA@ 10037284     xpcruntime:xpcimports.obj
 0002:0000329c       ??_C@_0BM@HGAIOAND@rl32eReceiveChar?5not?5found?6?$AA@ 1003729c     xpcruntime:xpcimports.obj
 0002:000032b8       ??_C@_0BB@OMFKCOEK@rl32eReceiveChar?$AA@ 100372b8     xpcruntime:xpcimports.obj
 0002:000032cc       ??_C@_0BJ@JCJKDACJ@rl32eSendChar?5not?5found?6?$AA@ 100372cc     xpcruntime:xpcimports.obj
 0002:000032e8       ??_C@_0O@LLJGKFOG@rl32eSendChar?$AA@ 100372e8     xpcruntime:xpcimports.obj
 0002:000032f8       ??_C@_0BN@KCOFELEM@rl32eCloseCOMPort?5not?5found?6?$AA@ 100372f8     xpcruntime:xpcimports.obj
 0002:00003318       ??_C@_0BC@CHEEFCP@rl32eCloseCOMPort?$AA@ 10037318     xpcruntime:xpcimports.obj
 0002:0000332c       ??_C@_0BM@DDJGKAHB@rl32eInitCOMPort?5not?5found?6?$AA@ 1003732c     xpcruntime:xpcimports.obj
 0002:00003348       ??_C@_0BB@FCHHFAAH@rl32eInitCOMPort?$AA@ 10037348     xpcruntime:xpcimports.obj
 0002:0000335c       ??_C@_0CC@CDNDNJBJ@xpceAssignPCIInterrupt?5not?5found@ 1003735c     xpcruntime:xpcimports.obj
 0002:00003380       ??_C@_0BH@OKBOPNFG@xpceAssignPCIInterrupt?$AA@ 10037380     xpcruntime:xpcimports.obj
 0002:00003398       ??_C@_0CB@BBKIPMLA@rl32eGetPCIInfoAtSlot?5not?5found?6@ 10037398     xpcruntime:xpcimports.obj
 0002:000033bc       ??_C@_0BG@NJPFKFDP@rl32eGetPCIInfoAtSlot?$AA@ 100373bc     xpcruntime:xpcimports.obj
 0002:000033d4       ??_C@_0BL@IGOMLDCK@rl32eGetPCIInfo?5not?5found?6?$AA@ 100373d4     xpcruntime:xpcimports.obj
 0002:000033f0       ??_C@_0BA@BGPAADB@rl32eGetPCIInfo?$AA@ 100373f0     xpcruntime:xpcimports.obj
 0002:00003400       ??_C@_0BM@IFDMAGLO@rl32eShowPCIInfo?5not?5found?6?$AA@ 10037400     xpcruntime:xpcimports.obj
 0002:0000341c       ??_C@_0BB@KBCOJPFB@rl32eShowPCIInfo?$AA@ 1003741c     xpcruntime:xpcimports.obj
 0002:00003430       ??_C@_0BL@DDFFLNHI@rl32eShowPCIDev?5not?5found?6?$AA@ 10037430     xpcruntime:xpcimports.obj
 0002:0000344c       ??_C@_0BA@JGPMHGAF@rl32eShowPCIDev?$AA@ 1003744c     xpcruntime:xpcimports.obj
 0002:0000345c       ??_C@_0CC@KAAAGPI@xpcReserveMemoryRegion?5not?5found@ 1003745c     xpcruntime:xpcimports.obj
 0002:00003480       ??_C@_0BH@EHOLELHH@xpcReserveMemoryRegion?$AA@ 10037480     xpcruntime:xpcimports.obj
 0002:00003498       ??_C@_0BF@GJKLPNHB@xpcOutpDW?5not?5found?6?$AA@ 10037498     xpcruntime:xpcimports.obj
 0002:000034b0       ??_C@_09FLIEKHJG@xpcOutpDW?$AA@ 100374b0     xpcruntime:xpcimports.obj
 0002:000034bc       ??_C@_0BE@NLIFDBGM@xpcOutpW?5not?5found?6?$AA@ 100374bc     xpcruntime:xpcimports.obj
 0002:000034d0       ??_C@_08MOOJAOHK@xpcOutpW?$AA@ 100374d0     xpcruntime:xpcimports.obj
 0002:000034dc       ??_C@_0BE@HCKNCEKF@xpcOutpB?5not?5found?6?$AA@ 100374dc     xpcruntime:xpcimports.obj
 0002:000034f0       ??_C@_08PJFMOIGO@xpcOutpB?$AA@ 100374f0     xpcruntime:xpcimports.obj
 0002:000034fc       ??_C@_0BE@PIELDNIL@xpcInpDW?5not?5found?6?$AA@ 100374fc     xpcruntime:xpcimports.obj
 0002:00003510       ??_C@_08KDIAJBOP@xpcInpDW?$AA@ 10037510     xpcruntime:xpcimports.obj
 0002:0000351c       ??_C@_0BD@FPCJFMCC@xpcInpW?5not?5found?6?$AA@ 1003751c     xpcruntime:xpcimports.obj
 0002:00003530       ??_C@_07KIHBBOKH@xpcInpW?$AA@ 10037530     xpcruntime:xpcimports.obj
 0002:00003538       ??_C@_0BD@PGABEJOL@xpcInpB?5not?5found?6?$AA@ 10037538     xpcruntime:xpcimports.obj
 0002:0000354c       ??_C@_07JPMEPILD@xpcInpB?$AA@ 1003754c     xpcruntime:xpcimports.obj
 0002:00003554       ??_C@_0BK@HONODOKP@xpceFTSubtract?5not?5found?6?$AA@ 10037554     xpcruntime:xpcimports.obj
 0002:00003570       ??_C@_0P@KEODBLHO@xpceFTSubtract?$AA@ 10037570     xpcruntime:xpcimports.obj
 0002:00003580       ??_C@_0BF@FJLEIILA@xpceFTAdd?5not?5found?6?$AA@ 10037580     xpcruntime:xpcimports.obj
 0002:00003598       ??_C@_09PHNHCHFH@xpceFTAdd?$AA@ 10037598     xpcruntime:xpcimports.obj
 0002:000035a4       ??_C@_0BK@NMABIODN@xpceFTReadTime?5not?5found?6?$AA@ 100375a4     xpcruntime:xpcimports.obj
 0002:000035c0       ??_C@_0P@CPGPNKEB@xpceFTReadTime?$AA@ 100375c0     xpcruntime:xpcimports.obj
 0002:000035d0       ??_C@_0BN@DCAIKFFD@xpceDeRegisterISR?5not?5found?6?$AA@ 100375d0     xpcruntime:xpcimports.obj
 0002:000035f0       ??_C@_0BC@NLBADGKF@xpceDeRegisterISR?$AA@ 100375f0     xpcruntime:xpcimports.obj
 0002:00003604       ??_C@_0BL@NNDLOEJE@xpceRegisterISR?5not?5found?6?$AA@ 10037604     xpcruntime:xpcimports.obj
 0002:00003620       ??_C@_0BA@IJINKAHF@xpceRegisterISR?$AA@ 10037620     xpcruntime:xpcimports.obj
 0002:00003630       ??_C@_0BK@NJCKNFPN@xpceScopeAcqOK?5not?5found?6?$AA@ 10037630     xpcruntime:xpcimports.obj
 0002:0000364c       ??_C@_0P@IEIIADJB@xpceScopeAcqOK?$AA@ 1003764c     xpcruntime:xpcimports.obj
 0002:0000365c       ??_C@_0CD@LLBEFFBO@rl32eRestartAcquisition?5not?5foun@ 1003765c     xpcruntime:xpcimports.obj
 0002:00003680       ??_C@_0BI@JAPOIDNG@rl32eRestartAcquisition?$AA@ 10037680     xpcruntime:xpcimports.obj
 0002:00003698       ??_C@_0CE@JLGHCFHI@rl32eSetTargetScopeSigFt?5not?5fou@ 10037698     xpcruntime:xpcimports.obj
 0002:000036bc       ??_C@_0BJ@LIDLNDHC@rl32eSetTargetScopeSigFt?$AA@ 100376bc     xpcruntime:xpcimports.obj
 0002:000036d8       ??_C@_0BP@JCHFMKPJ@rl32eSetTargetScope?5not?5found?6?$AA@ 100376d8     xpcruntime:xpcimports.obj
 0002:000036f8       ??_C@_0BE@DLACEEJM@rl32eSetTargetScope?$AA@ 100376f8     xpcruntime:xpcimports.obj
 0002:0000370c       ??_C@_0BK@JODJPNNH@xpceFSScopeSet?5not?5found?6?$AA@ 1003770c     xpcruntime:xpcimports.obj
 0002:00003728       ??_C@_0P@IKMCBMHH@xpceFSScopeSet?$AA@ 10037728     xpcruntime:xpcimports.obj
 0002:00003738       ??_C@_0BJ@JCLHHIN@rl32eSetScope?5not?5found?6?$AA@ 10037738     xpcruntime:xpcimports.obj
 0002:00003754       ??_C@_0O@CFDGALBP@rl32eSetScope?$AA@ 10037754     xpcruntime:xpcimports.obj
 0002:00003764       ??_C@_0BM@LGAMBAID@rl32eGetSignalNo?5not?5found?6?$AA@ 10037764     xpcruntime:xpcimports.obj
 0002:00003780       ??_C@_0BB@LDMIHGCE@rl32eGetSignalNo?$AA@ 10037780     xpcruntime:xpcimports.obj
 0002:00003794       ??_C@_0BK@GMJAJBAI@rl32eAddSignal?5not?5found?6?$AA@ 10037794     xpcruntime:xpcimports.obj
 0002:000037b0       ??_C@_0P@CKNKILDP@rl32eAddSignal?$AA@ 100377b0     xpcruntime:xpcimports.obj
 0002:000037c0       ??_C@_0BJ@CDNOENKA@rl32eDefScope?5not?5found?6?$AA@ 100377c0     xpcruntime:xpcimports.obj
 0002:000037dc       ??_C@_0O@BNNGKJEA@rl32eDefScope?$AA@ 100377dc     xpcruntime:xpcimports.obj
 0002:000037ec       ??_C@_0BM@FJBFEGFG@rl32eScopeExists?5not?5found?6?$AA@ 100377ec     xpcruntime:xpcimports.obj
 0002:00003808       ??_C@_0BB@BNNCEDPC@rl32eScopeExists?$AA@ 10037808     xpcruntime:xpcimports.obj
 0002:0000381c       __FPinit                   1003781c     LIBCMT:_fpinit_.obj
 0002:00003820       ??_C@_0P@MIGLKIOC@CorExitProcess?$AA@ 10037820     LIBCMT:crt0dat.obj
 0002:00003830       ??_C@_1BI@BGOHAHKC@?$AAm?$AAs?$AAc?$AAo?$AAr?$AAe?$AAe?$AA?4?$AAd?$AAl?$AAl?$AA?$AA@ 10037830     LIBCMT:crt0dat.obj
 0002:00003848       ??_C@_15IABLJNFO@?$AA?6?$AA?6?$AA?$AA@ 10037848     LIBCMT:wassert.obj
 0002:00003850       ??_C@_13LBAGMAIH@?$AA?6?$AA?$AA@ 10037850     LIBCMT:wassert.obj
 0002:00003854       ??_C@_17LGKOMLJ@?$AA?4?$AA?4?$AA?4?$AA?$AA@ 10037854     LIBCMT:wassert.obj
 0002:00003860       ??_C@_1EK@MBDPDCGA@?$AAM?$AAi?$AAc?$AAr?$AAo?$AAs?$AAo?$AAf?$AAt?$AA?5?$AAV?$AAi?$AAs?$AAu?$AAa?$AAl?$AA?5?$AAC?$AA?$CL?$AA?$CL?$AA?5?$AAR?$AAu?$AAn?$AAt?$AAi?$AAm?$AAe?$AA?5?$AAL?$AAi?$AAb@ 10037860     LIBCMT:wassert.obj
 0002:000038b0       ??_C@_1HK@POCJMFGK@?$AA?$CI?$AAP?$AAr?$AAe?$AAs?$AAs?$AA?5?$AAR?$AAe?$AAt?$AAr?$AAy?$AA?5?$AAt?$AAo?$AA?5?$AAd?$AAe?$AAb?$AAu?$AAg?$AA?5?$AAt?$AAh?$AAe?$AA?5?$AAa?$AAp?$AAp?$AAl?$AAi?$AAc@ 100378b0     LIBCMT:wassert.obj
 0002:00003930       ??_C@_1OA@EGMLFBHJ@?$AAF?$AAo?$AAr?$AA?5?$AAi?$AAn?$AAf?$AAo?$AAr?$AAm?$AAa?$AAt?$AAi?$AAo?$AAn?$AA?5?$AAo?$AAn?$AA?5?$AAh?$AAo?$AAw?$AA?5?$AAy?$AAo?$AAu?$AAr?$AA?5?$AAp?$AAr?$AAo?$AAg@ 10037930     LIBCMT:wassert.obj
 0002:00003a10       ??_C@_1BK@PEDCIPMA@?$AAE?$AAx?$AAp?$AAr?$AAe?$AAs?$AAs?$AAi?$AAo?$AAn?$AA?3?$AA?5?$AA?$AA@ 10037a10     LIBCMT:wassert.obj
 0002:00003a2c       ??_C@_1O@KCAFKHJE@?$AAL?$AAi?$AAn?$AAe?$AA?3?$AA?5?$AA?$AA@ 10037a2c     LIBCMT:wassert.obj
 0002:00003a3c       ??_C@_1O@HEMHKNDC@?$AAF?$AAi?$AAl?$AAe?$AA?3?$AA?5?$AA?$AA@ 10037a3c     LIBCMT:wassert.obj
 0002:00003a4c       ??_C@_1CO@EAEJAADC@?$AA?$DM?$AAp?$AAr?$AAo?$AAg?$AAr?$AAa?$AAm?$AA?5?$AAn?$AAa?$AAm?$AAe?$AA?5?$AAu?$AAn?$AAk?$AAn?$AAo?$AAw?$AAn?$AA?$DO?$AA?$AA@ 10037a4c     LIBCMT:wassert.obj
 0002:00003a7c       ??_C@_1BE@PHKBBGE@?$AAP?$AAr?$AAo?$AAg?$AAr?$AAa?$AAm?$AA?3?$AA?5?$AA?$AA@ 10037a7c     LIBCMT:wassert.obj
 0002:00003a90       ??_C@_1CE@OJBNHDMO@?$AAA?$AAs?$AAs?$AAe?$AAr?$AAt?$AAi?$AAo?$AAn?$AA?5?$AAf?$AAa?$AAi?$AAl?$AAe?$AAd?$AA?$CB?$AA?$AA@ 10037a90     LIBCMT:wassert.obj
 0002:00003ab4       __pRawDllMain              10037ab4     LIBCMT:dllcrt0.obj
 0002:00003ab4       __pDefaultRawDllMain       10037ab4     LIBCMT:dllcrt0.obj
 0002:00003ab8       ??_C@_1BO@BKOMIGKJ@?$AAr?$AAu?$AAn?$AAt?$AAi?$AAm?$AAe?$AA?5?$AAe?$AAr?$AAr?$AAo?$AAr?$AA?5?$AA?$AA@ 10037ab8     LIBCMT:crt0msg.obj
 0002:00003ad8       ??_C@_15JNBOKNOG@?$AA?$AN?$AA?6?$AA?$AA@ 10037ad8     LIBCMT:crt0msg.obj
 0002:00003ae0       ??_C@_1BM@JBBEPPHI@?$AAT?$AAL?$AAO?$AAS?$AAS?$AA?5?$AAe?$AAr?$AAr?$AAo?$AAr?$AA?$AN?$AA?6?$AA?$AA@ 10037ae0     LIBCMT:crt0msg.obj
 0002:00003afc       ??_C@_1BK@KMOMNAAI@?$AAS?$AAI?$AAN?$AAG?$AA?5?$AAe?$AAr?$AAr?$AAo?$AAr?$AA?$AN?$AA?6?$AA?$AA@ 10037afc     LIBCMT:crt0msg.obj
 0002:00003b18       ??_C@_1BO@BFCDCGC@?$AAD?$AAO?$AAM?$AAA?$AAI?$AAN?$AA?5?$AAe?$AAr?$AAr?$AAo?$AAr?$AA?$AN?$AA?6?$AA?$AA@ 10037b18     LIBCMT:crt0msg.obj
 0002:00003b38       ??_C@_1BOO@KGEDBGAJ@?$AAR?$AA6?$AA0?$AA3?$AA3?$AA?$AN?$AA?6?$AA?9?$AA?5?$AAA?$AAt?$AAt?$AAe?$AAm?$AAp?$AAt?$AA?5?$AAt?$AAo?$AA?5?$AAu?$AAs?$AAe?$AA?5?$AAM?$AAS?$AAI?$AAL?$AA?5?$AAc?$AAo?$AAd@ 10037b38     LIBCMT:crt0msg.obj
 0002:00003d28       ??_C@_1GG@GOPILAJP@?$AAR?$AA6?$AA0?$AA3?$AA2?$AA?$AN?$AA?6?$AA?9?$AA?5?$AAn?$AAo?$AAt?$AA?5?$AAe?$AAn?$AAo?$AAu?$AAg?$AAh?$AA?5?$AAs?$AAp?$AAa?$AAc?$AAe?$AA?5?$AAf?$AAo?$AAr?$AA?5?$AAl?$AAo@ 10037d28     LIBCMT:crt0msg.obj
 0002:00003d90       ??_C@_1MG@ENCOOIDF@?$AAR?$AA6?$AA0?$AA3?$AA1?$AA?$AN?$AA?6?$AA?9?$AA?5?$AAA?$AAt?$AAt?$AAe?$AAm?$AAp?$AAt?$AA?5?$AAt?$AAo?$AA?5?$AAi?$AAn?$AAi?$AAt?$AAi?$AAa?$AAl?$AAi?$AAz?$AAe?$AA?5?$AAt@ 10037d90     LIBCMT:crt0msg.obj
 0002:00003e58       ??_C@_1DO@BMFCDCD@?$AAR?$AA6?$AA0?$AA3?$AA0?$AA?$AN?$AA?6?$AA?9?$AA?5?$AAC?$AAR?$AAT?$AA?5?$AAn?$AAo?$AAt?$AA?5?$AAi?$AAn?$AAi?$AAt?$AAi?$AAa?$AAl?$AAi?$AAz?$AAe?$AAd?$AA?$AN?$AA?6?$AA?$AA@ 10037e58     LIBCMT:crt0msg.obj
 0002:00003e98       ??_C@_1EK@HHFLMAOL@?$AAR?$AA6?$AA0?$AA2?$AA8?$AA?$AN?$AA?6?$AA?9?$AA?5?$AAu?$AAn?$AAa?$AAb?$AAl?$AAe?$AA?5?$AAt?$AAo?$AA?5?$AAi?$AAn?$AAi?$AAt?$AAi?$AAa?$AAl?$AAi?$AAz?$AAe?$AA?5?$AAh?$AAe@ 10037e98     LIBCMT:crt0msg.obj
 0002:00003ee8       ??_C@_1GK@MFGOKLAG@?$AAR?$AA6?$AA0?$AA2?$AA7?$AA?$AN?$AA?6?$AA?9?$AA?5?$AAn?$AAo?$AAt?$AA?5?$AAe?$AAn?$AAo?$AAu?$AAg?$AAh?$AA?5?$AAs?$AAp?$AAa?$AAc?$AAe?$AA?5?$AAf?$AAo?$AAr?$AA?5?$AAl?$AAo@ 10037ee8     LIBCMT:crt0msg.obj
 0002:00003f58       ??_C@_1GK@MCAAGJMO@?$AAR?$AA6?$AA0?$AA2?$AA6?$AA?$AN?$AA?6?$AA?9?$AA?5?$AAn?$AAo?$AAt?$AA?5?$AAe?$AAn?$AAo?$AAu?$AAg?$AAh?$AA?5?$AAs?$AAp?$AAa?$AAc?$AAe?$AA?5?$AAf?$AAo?$AAr?$AA?5?$AAs?$AAt@ 10037f58     LIBCMT:crt0msg.obj
 0002:00003fc8       ??_C@_1EM@MAADIHMB@?$AAR?$AA6?$AA0?$AA2?$AA5?$AA?$AN?$AA?6?$AA?9?$AA?5?$AAp?$AAu?$AAr?$AAe?$AA?5?$AAv?$AAi?$AAr?$AAt?$AAu?$AAa?$AAl?$AA?5?$AAf?$AAu?$AAn?$AAc?$AAt?$AAi?$AAo?$AAn?$AA?5?$AAc@ 10037fc8     LIBCMT:crt0msg.obj
 0002:00004018       ??_C@_1GK@FHCKBEFA@?$AAR?$AA6?$AA0?$AA2?$AA4?$AA?$AN?$AA?6?$AA?9?$AA?5?$AAn?$AAo?$AAt?$AA?5?$AAe?$AAn?$AAo?$AAu?$AAg?$AAh?$AA?5?$AAs?$AAp?$AAa?$AAc?$AAe?$AA?5?$AAf?$AAo?$AAr?$AA?5?$AA_?$AAo@ 10038018     LIBCMT:crt0msg.obj
 0002:00004088       ??_C@_1FC@ECHBIFBC@?$AAR?$AA6?$AA0?$AA1?$AA9?$AA?$AN?$AA?6?$AA?9?$AA?5?$AAu?$AAn?$AAa?$AAb?$AAl?$AAe?$AA?5?$AAt?$AAo?$AA?5?$AAo?$AAp?$AAe?$AAn?$AA?5?$AAc?$AAo?$AAn?$AAs?$AAo?$AAl?$AAe?$AA?5@ 10038088     LIBCMT:crt0msg.obj
 0002:000040e0       ??_C@_1EC@JIBHAOPH@?$AAR?$AA6?$AA0?$AA1?$AA8?$AA?$AN?$AA?6?$AA?9?$AA?5?$AAu?$AAn?$AAe?$AAx?$AAp?$AAe?$AAc?$AAt?$AAe?$AAd?$AA?5?$AAh?$AAe?$AAa?$AAp?$AA?5?$AAe?$AAr?$AAr?$AAo?$AAr?$AA?$AN?$AA?6@ 100380e0     LIBCMT:crt0msg.obj
 0002:00004128       ??_C@_1FK@BEOGODMC@?$AAR?$AA6?$AA0?$AA1?$AA7?$AA?$AN?$AA?6?$AA?9?$AA?5?$AAu?$AAn?$AAe?$AAx?$AAp?$AAe?$AAc?$AAt?$AAe?$AAd?$AA?5?$AAm?$AAu?$AAl?$AAt?$AAi?$AAt?$AAh?$AAr?$AAe?$AAa?$AAd?$AA?5@ 10038128     LIBCMT:crt0msg.obj
 0002:00004188       ??_C@_1FI@LOGNIKDM@?$AAR?$AA6?$AA0?$AA1?$AA6?$AA?$AN?$AA?6?$AA?9?$AA?5?$AAn?$AAo?$AAt?$AA?5?$AAe?$AAn?$AAo?$AAu?$AAg?$AAh?$AA?5?$AAs?$AAp?$AAa?$AAc?$AAe?$AA?5?$AAf?$AAo?$AAr?$AA?5?$AAt?$AAh@ 10038188     LIBCMT:crt0msg.obj
 0002:000041e0       ??_C@_1EG@BEHAGFJD@?$AAR?$AA6?$AA0?$AA1?$AA0?$AA?$AN?$AA?6?$AA?9?$AA?5?$AAa?$AAb?$AAo?$AAr?$AAt?$AA?$CI?$AA?$CJ?$AA?5?$AAh?$AAa?$AAs?$AA?5?$AAb?$AAe?$AAe?$AAn?$AA?5?$AAc?$AAa?$AAl?$AAl?$AAe?$AAd@ 100381e0     LIBCMT:crt0msg.obj
 0002:00004228       ??_C@_1FI@HONFMGBI@?$AAR?$AA6?$AA0?$AA0?$AA9?$AA?$AN?$AA?6?$AA?9?$AA?5?$AAn?$AAo?$AAt?$AA?5?$AAe?$AAn?$AAo?$AAu?$AAg?$AAh?$AA?5?$AAs?$AAp?$AAa?$AAc?$AAe?$AA?5?$AAf?$AAo?$AAr?$AA?5?$AAe?$AAn@ 10038228     LIBCMT:crt0msg.obj
 0002:00004280       ??_C@_1FE@LLNEDJMD@?$AAR?$AA6?$AA0?$AA0?$AA8?$AA?$AN?$AA?6?$AA?9?$AA?5?$AAn?$AAo?$AAt?$AA?5?$AAe?$AAn?$AAo?$AAu?$AAg?$AAh?$AA?5?$AAs?$AAp?$AAa?$AAc?$AAe?$AA?5?$AAf?$AAo?$AAr?$AA?5?$AAa?$AAr@ 10038280     LIBCMT:crt0msg.obj
 0002:000042d8       ??_C@_1FK@PGACCAFB@?$AAR?$AA6?$AA0?$AA0?$AA2?$AA?$AN?$AA?6?$AA?9?$AA?5?$AAf?$AAl?$AAo?$AAa?$AAt?$AAi?$AAn?$AAg?$AA?5?$AAp?$AAo?$AAi?$AAn?$AAt?$AA?5?$AAs?$AAu?$AAp?$AAp?$AAo?$AAr?$AAt?$AA?5@ 100382d8     LIBCMT:crt0msg.obj
 0002:000043e8       ??_C@_1DE@JNGNBFGO@?$AAR?$AAu?$AAn?$AAt?$AAi?$AAm?$AAe?$AA?5?$AAE?$AAr?$AAr?$AAo?$AAr?$AA?$CB?$AA?6?$AA?6?$AAP?$AAr?$AAo?$AAg?$AAr?$AAa?$AAm?$AA?3?$AA?5?$AA?$AA@ 100383e8     LIBCMT:crt0msg.obj
 0002:0000441c       ?ProcessDetach@NativeDll@<CrtImplementationDetails>@@0IB 1003841c     LIBCMT:handler.obj
 0002:00004420       ?ProcessAttach@NativeDll@<CrtImplementationDetails>@@0IB 10038420     LIBCMT:handler.obj
 0002:00004424       ?ThreadAttach@NativeDll@<CrtImplementationDetails>@@0IB 10038424     LIBCMT:handler.obj
 0002:00004428       ?ThreadDetach@NativeDll@<CrtImplementationDetails>@@0IB 10038428     LIBCMT:handler.obj
 0002:0000442c       ?ProcessVerifier@NativeDll@<CrtImplementationDetails>@@0IB 1003842c     LIBCMT:handler.obj
 0002:00004430       ??_C@_05KLBDPFGC@e?$CL000?$AA@ 10038430     LIBCMT:cvt.obj
 0002:00004438       ??_C@_1O@CEDCILHN@?$AA?$CI?$AAn?$AAu?$AAl?$AAl?$AA?$CJ?$AA?$AA@ 10038438     LIBCMT:output.obj
 0002:00004448       ??_C@_06OJHGLDPL@?$CInull?$CJ?$AA@ 10038448     LIBCMT:output.obj
 0002:00004450       ___lookuptable             10038450     LIBCMT:output.obj
 0002:000044ac       ??_C@_0L@KDOEJCKC@_nextafter?$AA@ 100384ac     LIBCMT:_fpexcept_.obj
 0002:000044b8       ??_C@_05JGDBENOH@_logb?$AA@ 100384b8     LIBCMT:_fpexcept_.obj
 0002:000044c0       ??_C@_03ONILCKOB@_yn?$AA@  100384c0     LIBCMT:_fpexcept_.obj
 0002:000044c4       ??_C@_03NAKIGLHK@_y1?$AA@  100384c4     LIBCMT:_fpexcept_.obj
 0002:000044c8       ??_C@_03MJLDFKDL@_y0?$AA@  100384c8     LIBCMT:_fpexcept_.obj
 0002:000044cc       ??_C@_05GKKHEGJL@frexp?$AA@ 100384cc     LIBCMT:_fpexcept_.obj
 0002:000044d4       ??_C@_04KEPJIHGP@fmod?$AA@ 100384d4     LIBCMT:_fpexcept_.obj
 0002:000044dc       ??_C@_06MEIMCGCF@_hypot?$AA@ 100384dc     LIBCMT:_fpexcept_.obj
 0002:000044e4       ??_C@_05KBKMEMPO@_cabs?$AA@ 100384e4     LIBCMT:_fpexcept_.obj
 0002:000044ec       ??_C@_05CEJMAHNP@ldexp?$AA@ 100384ec     LIBCMT:_fpexcept_.obj
 0002:000044f4       ??_C@_04EHEDPDJG@modf?$AA@ 100384f4     LIBCMT:_fpexcept_.obj
 0002:000044fc       ??_C@_04ODHECPBC@fabs?$AA@ 100384fc     LIBCMT:_fpexcept_.obj
 0002:00004504       ??_C@_05PBJFFIGL@floor?$AA@ 10038504     LIBCMT:_fpexcept_.obj
 0002:0000450c       ??_C@_04GFPJNGEK@ceil?$AA@ 1003850c     LIBCMT:_fpexcept_.obj
 0002:00004514       ??_C@_03IIINPABG@tan?$AA@  10038514     LIBCMT:_fpexcept_.obj
 0002:00004518       ??_C@_03LALBNOCG@cos?$AA@  10038518     LIBCMT:_fpexcept_.obj
 0002:0000451c       ??_C@_03BLEJJJBH@sin?$AA@  1003851c     LIBCMT:_fpexcept_.obj
 0002:00004520       ??_C@_04EIAKFFMI@sqrt?$AA@ 10038520     LIBCMT:_fpexcept_.obj
 0002:00004528       ??_C@_05KNGEOGJB@atan2?$AA@ 10038528     LIBCMT:_fpexcept_.obj
 0002:00004530       ??_C@_04MLLJIGOK@atan?$AA@ 10038530     LIBCMT:_fpexcept_.obj
 0002:00004538       ??_C@_04PDIFKINK@acos?$AA@ 10038538     LIBCMT:_fpexcept_.obj
 0002:00004540       ??_C@_04FIHNOPOL@asin?$AA@ 10038540     LIBCMT:_fpexcept_.obj
 0002:00004548       ??_C@_04FJHINJAO@tanh?$AA@ 10038548     LIBCMT:_fpexcept_.obj
 0002:00004550       ??_C@_04HPJJNFIM@cosh?$AA@ 10038550     LIBCMT:_fpexcept_.obj
 0002:00004558       ??_C@_04COOMCNPB@sinh?$AA@ 10038558     LIBCMT:_fpexcept_.obj
 0002:00004560       ??_C@_05HGHHAHAP@log10?$AA@ 10038560     LIBCMT:_fpexcept_.obj
 0002:00004568       ??_C@_03MGHMBJCF@log?$AA@  10038568     LIBCMT:_fpexcept_.obj
 0002:0000456c       ??_C@_03JGHBODFD@pow?$AA@  1003856c     LIBCMT:_fpexcept_.obj
 0002:00004570       ??_C@_03KHJOGHMM@exp?$AA@  10038570     LIBCMT:_fpexcept_.obj
 0002:0000459c       ??_C@_0BC@JEAENNKH@SystemFunction036?$AA@ 1003859c     LIBCMT:rand_s.obj
 0002:000045b0       ??_C@_1BK@GAEMIDIL@?$AAA?$AAD?$AAV?$AAA?$AAP?$AAI?$AA3?$AA2?$AA?4?$AAD?$AAL?$AAL?$AA?$AA@ 100385b0     LIBCMT:rand_s.obj
 0002:000045cc       ??_C@_1BK@DBDEIDLH@?$AAK?$AAE?$AAR?$AAN?$AAE?$AAL?$AA3?$AA2?$AA?4?$AAD?$AAL?$AAL?$AA?$AA@ 100385cc     LIBCMT:tidtable.obj
 0002:000045e8       ??_C@_07PEJMOBNF@FlsFree?$AA@ 100385e8     LIBCMT:tidtable.obj
 0002:000045f0       ??_C@_0M@JCPCPOEF@FlsSetValue?$AA@ 100385f0     LIBCMT:tidtable.obj
 0002:000045fc       ??_C@_0M@GDNOONDI@FlsGetValue?$AA@ 100385fc     LIBCMT:tidtable.obj
 0002:00004608       ??_C@_08KNHFBNJ@FlsAlloc?$AA@ 10038608     LIBCMT:tidtable.obj
 0002:00004614       ??_C@_0BI@DFKBFLJE@GetProcessWindowStation?$AA@ 10038614     LIBCMT:crtmboxw.obj
 0002:0000462c       ??_C@_0BK@DEKFELLI@GetUserObjectInformationW?$AA@ 1003862c     LIBCMT:crtmboxw.obj
 0002:00004648       ??_C@_0BD@HHGDFDBJ@GetLastActivePopup?$AA@ 10038648     LIBCMT:crtmboxw.obj
 0002:0000465c       ??_C@_0BA@HNOPNCHB@GetActiveWindow?$AA@ 1003865c     LIBCMT:crtmboxw.obj
 0002:0000466c       ??_C@_0M@DLDCCGNP@MessageBoxW?$AA@ 1003866c     LIBCMT:crtmboxw.obj
 0002:00004678       ??_C@_1BG@GOEBHBDC@?$AAU?$AAS?$AAE?$AAR?$AA3?$AA2?$AA?4?$AAD?$AAL?$AAL?$AA?$AA@ 10038678     LIBCMT:crtmboxw.obj
 0002:00004690       __XcptActTab               10038690     LIBCMT:winxfltr.obj
 0002:00004720       __First_FPE_Indx           10038720     LIBCMT:winxfltr.obj
 0002:00004724       __Num_FPE                  10038724     LIBCMT:winxfltr.obj
 0002:00004728       __XcptActTabSize           10038728     LIBCMT:winxfltr.obj
 0002:0000472c       __XcptActTabCount          1003872c     LIBCMT:winxfltr.obj
 0002:00004730       ??_C@_1BC@GDGBMEMK@?$AAH?$AAH?$AA?3?$AAm?$AAm?$AA?3?$AAs?$AAs?$AA?$AA@ 10038730     LIBCMT:nlsdata2.obj
 0002:00004744       ??_C@_1CI@KNAKOEBC@?$AAd?$AAd?$AAd?$AAd?$AA?0?$AA?5?$AAM?$AAM?$AAM?$AAM?$AA?5?$AAd?$AAd?$AA?0?$AA?5?$AAy?$AAy?$AAy?$AAy?$AA?$AA@ 10038744     LIBCMT:nlsdata2.obj
 0002:0000476c       ??_C@_1BC@IEBCMHCM@?$AAM?$AAM?$AA?1?$AAd?$AAd?$AA?1?$AAy?$AAy?$AA?$AA@ 1003876c     LIBCMT:nlsdata2.obj
 0002:00004780       ??_C@_15CLMNNGEL@?$AAP?$AAM?$AA?$AA@ 10038780     LIBCMT:nlsdata2.obj
 0002:00004788       ??_C@_15ODEHAHHF@?$AAA?$AAM?$AA?$AA@ 10038788     LIBCMT:nlsdata2.obj
 0002:00004790       ??_C@_1BC@FEMKIFH@?$AAD?$AAe?$AAc?$AAe?$AAm?$AAb?$AAe?$AAr?$AA?$AA@ 10038790     LIBCMT:nlsdata2.obj
 0002:000047a4       ??_C@_1BC@BGLIFPF@?$AAN?$AAo?$AAv?$AAe?$AAm?$AAb?$AAe?$AAr?$AA?$AA@ 100387a4     LIBCMT:nlsdata2.obj
 0002:000047b8       ??_C@_1BA@EPANDLNG@?$AAO?$AAc?$AAt?$AAo?$AAb?$AAe?$AAr?$AA?$AA@ 100387b8     LIBCMT:nlsdata2.obj
 0002:000047c8       ??_C@_1BE@DKAAMBJL@?$AAS?$AAe?$AAp?$AAt?$AAe?$AAm?$AAb?$AAe?$AAr?$AA?$AA@ 100387c8     LIBCMT:nlsdata2.obj
 0002:000047dc       ??_C@_1O@PAHLKOAC@?$AAA?$AAu?$AAg?$AAu?$AAs?$AAt?$AA?$AA@ 100387dc     LIBCMT:nlsdata2.obj
 0002:000047ec       ??_C@_19BIFMLPCD@?$AAJ?$AAu?$AAl?$AAy?$AA?$AA@ 100387ec     LIBCMT:nlsdata2.obj
 0002:000047f8       ??_C@_19EPFLPGAP@?$AAJ?$AAu?$AAn?$AAe?$AA?$AA@ 100387f8     LIBCMT:nlsdata2.obj
 0002:00004804       ??_C@_1M@GJNLMHFD@?$AAA?$AAp?$AAr?$AAi?$AAl?$AA?$AA@ 10038804     LIBCMT:nlsdata2.obj
 0002:00004810       ??_C@_1M@IKEENEDF@?$AAM?$AAa?$AAr?$AAc?$AAh?$AA?$AA@ 10038810     LIBCMT:nlsdata2.obj
 0002:0000481c       ??_C@_1BC@JGDDFFAM@?$AAF?$AAe?$AAb?$AAr?$AAu?$AAa?$AAr?$AAy?$AA?$AA@ 1003881c     LIBCMT:nlsdata2.obj
 0002:00004830       ??_C@_1BA@EFMEIEBA@?$AAJ?$AAa?$AAn?$AAu?$AAa?$AAr?$AAy?$AA?$AA@ 10038830     LIBCMT:nlsdata2.obj
 0002:00004840       ??_C@_17EGKACKIF@?$AAD?$AAe?$AAc?$AA?$AA@ 10038840     LIBCMT:nlsdata2.obj
 0002:00004848       ??_C@_17BBDMLCIG@?$AAN?$AAo?$AAv?$AA?$AA@ 10038848     LIBCMT:nlsdata2.obj
 0002:00004850       ??_C@_17FNLKOI@?$AAO?$AAc?$AAt?$AA?$AA@ 10038850     LIBCMT:nlsdata2.obj
 0002:00004858       ??_C@_17HCHCOKMG@?$AAS?$AAe?$AAp?$AA?$AA@ 10038858     LIBCMT:nlsdata2.obj
 0002:00004860       ??_C@_17ICPELBCN@?$AAA?$AAu?$AAg?$AA?$AA@ 10038860     LIBCMT:nlsdata2.obj
 0002:00004868       ??_C@_17IJPCKHK@?$AAJ?$AAu?$AAl?$AA?$AA@ 10038868     LIBCMT:nlsdata2.obj
 0002:00004870       ??_C@_17KCJGOCPB@?$AAJ?$AAu?$AAn?$AA?$AA@ 10038870     LIBCMT:nlsdata2.obj
 0002:00004878       ??_C@_17PNNKMEED@?$AAM?$AAa?$AAy?$AA?$AA@ 10038878     LIBCMT:nlsdata2.obj
 0002:00004880       ??_C@_17LFPOIHDD@?$AAA?$AAp?$AAr?$AA?$AA@ 10038880     LIBCMT:nlsdata2.obj
 0002:00004888       ??_C@_17CKNLEDEC@?$AAM?$AAa?$AAr?$AA?$AA@ 10038888     LIBCMT:nlsdata2.obj
 0002:00004890       ??_C@_17LMDJEKJN@?$AAF?$AAe?$AAb?$AA?$AA@ 10038890     LIBCMT:nlsdata2.obj
 0002:00004898       ??_C@_17DKNBKCHM@?$AAJ?$AAa?$AAn?$AA?$AA@ 10038898     LIBCMT:nlsdata2.obj
 0002:000048a0       ??_C@_1BC@ENMNNPAJ@?$AAS?$AAa?$AAt?$AAu?$AAr?$AAd?$AAa?$AAy?$AA?$AA@ 100388a0     LIBCMT:nlsdata2.obj
 0002:000048b4       ??_C@_1O@PDICJHAG@?$AAF?$AAr?$AAi?$AAd?$AAa?$AAy?$AA?$AA@ 100388b4     LIBCMT:nlsdata2.obj
 0002:000048c4       ??_C@_1BC@HHMNLIHE@?$AAT?$AAh?$AAu?$AAr?$AAs?$AAd?$AAa?$AAy?$AA?$AA@ 100388c4     LIBCMT:nlsdata2.obj
 0002:000048d8       ??_C@_1BE@EBOGMDOH@?$AAW?$AAe?$AAd?$AAn?$AAe?$AAs?$AAd?$AAa?$AAy?$AA?$AA@ 100388d8     LIBCMT:nlsdata2.obj
 0002:000048ec       ??_C@_1BA@ENFBFFEK@?$AAT?$AAu?$AAe?$AAs?$AAd?$AAa?$AAy?$AA?$AA@ 100388ec     LIBCMT:nlsdata2.obj
 0002:000048fc       ??_C@_1O@MMNBFLIA@?$AAM?$AAo?$AAn?$AAd?$AAa?$AAy?$AA?$AA@ 100388fc     LIBCMT:nlsdata2.obj
 0002:0000490c       ??_C@_1O@IHNHDHPB@?$AAS?$AAu?$AAn?$AAd?$AAa?$AAy?$AA?$AA@ 1003890c     LIBCMT:nlsdata2.obj
 0002:0000491c       ??_C@_17GGIBDPIH@?$AAS?$AAa?$AAt?$AA?$AA@ 1003891c     LIBCMT:nlsdata2.obj
 0002:00004924       ??_C@_17HFOLPPLP@?$AAF?$AAr?$AAi?$AA?$AA@ 10038924     LIBCMT:nlsdata2.obj
 0002:0000492c       ??_C@_17PDPHAADD@?$AAT?$AAh?$AAu?$AA?$AA@ 1003892c     LIBCMT:nlsdata2.obj
 0002:00004934       ??_C@_17CJEDCEPE@?$AAW?$AAe?$AAd?$AA?$AA@ 10038934     LIBCMT:nlsdata2.obj
 0002:0000493c       ??_C@_17BMKGEGOJ@?$AAT?$AAu?$AAe?$AA?$AA@ 1003893c     LIBCMT:nlsdata2.obj
 0002:00004944       ??_C@_17KBOMKBF@?$AAM?$AAo?$AAn?$AA?$AA@ 10038944     LIBCMT:nlsdata2.obj
 0002:0000494c       ??_C@_17MBGCMIPB@?$AAS?$AAu?$AAn?$AA?$AA@ 1003894c     LIBCMT:nlsdata2.obj
 0002:00004954       ??_C@_08JCCMCCIL@HH?3mm?3ss?$AA@ 10038954     LIBCMT:nlsdata2.obj
 0002:00004960       ??_C@_0BE@CKGJFCPC@dddd?0?5MMMM?5dd?0?5yyyy?$AA@ 10038960     LIBCMT:nlsdata2.obj
 0002:00004974       ??_C@_08BPBNCDIB@MM?1dd?1yy?$AA@ 10038974     LIBCMT:nlsdata2.obj
 0002:00004980       ??_C@_02CJNFDJBF@PM?$AA@   10038980     LIBCMT:nlsdata2.obj
 0002:00004984       ??_C@_02DEDBPAFC@AM?$AA@   10038984     LIBCMT:nlsdata2.obj
 0002:00004988       ??_C@_08EDHMEBNP@December?$AA@ 10038988     LIBCMT:nlsdata2.obj
 0002:00004994       ??_C@_08HCHEGEOA@November?$AA@ 10038994     LIBCMT:nlsdata2.obj
 0002:000049a0       ??_C@_07JJNFCEND@October?$AA@ 100389a0     LIBCMT:nlsdata2.obj
 0002:000049a8       ??_C@_09BHHEALKD@September?$AA@ 100389a8     LIBCMT:nlsdata2.obj
 0002:000049b4       ??_C@_06LBBHFDDG@August?$AA@ 100389b4     LIBCMT:nlsdata2.obj
 0002:000049bc       ??_C@_04MIEPOIFP@July?$AA@ 100389bc     LIBCMT:nlsdata2.obj
 0002:000049c4       ??_C@_04CNLMGBGM@June?$AA@ 100389c4     LIBCMT:nlsdata2.obj
 0002:000049cc       ??_C@_05DMJDNLEJ@April?$AA@ 100389cc     LIBCMT:nlsdata2.obj
 0002:000049d4       ??_C@_05HPCKOFNC@March?$AA@ 100389d4     LIBCMT:nlsdata2.obj
 0002:000049dc       ??_C@_08GNJGEPFN@February?$AA@ 100389dc     LIBCMT:nlsdata2.obj
 0002:000049e8       ??_C@_07CGJPFGJA@January?$AA@ 100389e8     LIBCMT:nlsdata2.obj
 0002:000049f0       ??_C@_03MKABNOCG@Dec?$AA@  100389f0     LIBCMT:nlsdata2.obj
 0002:000049f4       ??_C@_03JPJOFNIA@Nov?$AA@  100389f4     LIBCMT:nlsdata2.obj
 0002:000049f8       ??_C@_03BMAOKBAD@Oct?$AA@  100389f8     LIBCMT:nlsdata2.obj
 0002:000049fc       ??_C@_03GGCAPAJC@Sep?$AA@  100389fc     LIBCMT:nlsdata2.obj
 0002:00004a00       ??_C@_03IFJFEIGA@Aug?$AA@  10038a00     LIBCMT:nlsdata2.obj
 0002:00004a04       ??_C@_03LBGABGKK@Jul?$AA@  10038a04     LIBCMT:nlsdata2.obj
 0002:00004a08       ??_C@_03IDFGHECI@Jun?$AA@  10038a08     LIBCMT:nlsdata2.obj
 0002:00004a0c       ??_C@_03CNMDKL@May?$AA@    10038a0c     LIBCMT:nlsdata2.obj
 0002:00004a10       ??_C@_03LEOLGMJP@Apr?$AA@  10038a10     LIBCMT:nlsdata2.obj
 0002:00004a14       ??_C@_03ODNJBKGA@Mar?$AA@  10038a14     LIBCMT:nlsdata2.obj
 0002:00004a18       ??_C@_03HJBDCHOM@Feb?$AA@  10038a18     LIBCMT:nlsdata2.obj
 0002:00004a1c       ??_C@_03JIHJHPIE@Jan?$AA@  10038a1c     LIBCMT:nlsdata2.obj
 0002:00004a20       ??_C@_08INBOOONO@Saturday?$AA@ 10038a20     LIBCMT:nlsdata2.obj
 0002:00004a2c       ??_C@_06JECMNKMI@Friday?$AA@ 10038a2c     LIBCMT:nlsdata2.obj
 0002:00004a34       ??_C@_08HACCIKIA@Thursday?$AA@ 10038a34     LIBCMT:nlsdata2.obj
 0002:00004a40       ??_C@_09DLIGFAKA@Wednesday?$AA@ 10038a40     LIBCMT:nlsdata2.obj
 0002:00004a4c       ??_C@_07BAAGCFCM@Tuesday?$AA@ 10038a4c     LIBCMT:nlsdata2.obj
 0002:00004a54       ??_C@_06JLEDEDGH@Monday?$AA@ 10038a54     LIBCMT:nlsdata2.obj
 0002:00004a5c       ??_C@_06OOPIFAJ@Sunday?$AA@ 10038a5c     LIBCMT:nlsdata2.obj
 0002:00004a64       ??_C@_03FEFJNEK@Sat?$AA@   10038a64     LIBCMT:nlsdata2.obj
 0002:00004a68       ??_C@_03IDIOELNC@Fri?$AA@  10038a68     LIBCMT:nlsdata2.obj
 0002:00004a6c       ??_C@_03IOFIKPDN@Thu?$AA@  10038a6c     LIBCMT:nlsdata2.obj
 0002:00004a70       ??_C@_03MHOMLAJA@Wed?$AA@  10038a70     LIBCMT:nlsdata2.obj
 0002:00004a74       ??_C@_03NAGEINEP@Tue?$AA@  10038a74     LIBCMT:nlsdata2.obj
 0002:00004a78       ??_C@_03PDAGKDH@Mon?$AA@   10038a78     LIBCMT:nlsdata2.obj
 0002:00004a7c       ??_C@_03KOEHGMDN@Sun?$AA@  10038a7c     LIBCMT:nlsdata2.obj
 0002:00004a80       ___lookuptable_s           10038a80     LIBCMT:outputs.obj
 0002:00004ae0       ___newctype                10038ae0     LIBCMT:ctype.obj
 0002:00004de0       __wctype                   10038de0     LIBCMT:ctype.obj
 0002:00004fe8       ___newclmap                10038fe8     LIBCMT:ctype.obj
 0002:00005168       ___newcumap                10039168     LIBCMT:ctype.obj
 0002:000052e8       ??_C@_07LCBHPJJN@LC_TIME?$AA@ 100392e8     LIBCMT:setlocal.obj
 0002:000052f0       ??_C@_0L@DLHIECNL@LC_NUMERIC?$AA@ 100392f0     LIBCMT:setlocal.obj
 0002:000052fc       ??_C@_0M@MIENIKLA@LC_MONETARY?$AA@ 100392fc     LIBCMT:setlocal.obj
 0002:00005308       ??_C@_08EADHIDAD@LC_CTYPE?$AA@ 10039308     LIBCMT:setlocal.obj
 0002:00005314       ??_C@_0L@KFJHEKIK@LC_COLLATE?$AA@ 10039314     LIBCMT:setlocal.obj
 0002:00005320       ??_C@_06NEFDFEKB@LC_ALL?$AA@ 10039320     LIBCMT:setlocal.obj
 0002:00005328       ___lc_category             10039328     LIBCMT:setlocal.obj
 0002:000053f0       ??_C@_03EGDHDPFD@_?4?0?$AA@ 100393f0     LIBCMT:setlocal.obj
 0002:000053f4       ??_C@_01LFCBOECM@?4?$AA@   100393f4     LIBCMT:setlocal.obj
 0002:000053f8       ??_C@_01IDAFKMJL@_?$AA@    100393f8     LIBCMT:setlocal.obj
 0002:000053fc       ??_C@_01ICJEACDI@?$DL?$AA@ 100393fc     LIBCMT:setlocal.obj
 0002:00005400       ??_C@_01NEMOKFLO@?$DN?$AA@ 10039400     LIBCMT:setlocal.obj
 0002:00005404       ??_C@_01GFHCPBMG@C?$AA@    10039404     LIBCMT:setlocal.obj
 0002:00005408       ??_C@_02BALPLPBG@?$DN?$DL?$AA@ 10039408     LIBCMT:setlocal.obj
 0002:0000540c       ??_C@_06IMKFLFPG@1?$CDQNAN?$AA@ 1003940c     LIBCMT:_x10fout_.obj
 0002:00005414       ??_C@_05DNEBIAHO@1?$CDINF?$AA@ 10039414     LIBCMT:_x10fout_.obj
 0002:0000541c       ??_C@_05PHHOCPM@1?$CDIND?$AA@ 1003941c     LIBCMT:_x10fout_.obj
 0002:00005424       ??_C@_06PGGFOGJG@1?$CDSNAN?$AA@ 10039424     LIBCMT:_x10fout_.obj
 0002:0000542c       ??_C@_1BA@BALFACEM@?$AAC?$AAO?$AAN?$AAO?$AAU?$AAT?$AA$?$AA?$AA@ 1003942c     LIBCMT:initcon.obj
 0002:0000543c       ??_C@_0O@FMJNFNKE@united?9states?$AA@ 1003943c     LIBCMT:getqloc.obj
 0002:0000544c       ??_C@_0P@NDHFFKCA@united?9kingdom?$AA@ 1003944c     LIBCMT:getqloc.obj
 0002:0000545c       ??_C@_0BC@HHDADLGF@trinidad?5?$CG?5tobago?$AA@ 1003945c     LIBCMT:getqloc.obj
 0002:00005470       ??_C@_0M@IOAEBDAC@south?9korea?$AA@ 10039470     LIBCMT:getqloc.obj
 0002:0000547c       ??_C@_0N@FIELFKIJ@south?9africa?$AA@ 1003947c     LIBCMT:getqloc.obj
 0002:0000548c       ??_C@_0M@OPNDHCMC@south?5korea?$AA@ 1003948c     LIBCMT:getqloc.obj
 0002:00005498       ??_C@_0N@MDEOEPFI@south?5africa?$AA@ 10039498     LIBCMT:getqloc.obj
 0002:000054a8       ??_C@_06FKAPCJLB@slovak?$AA@ 100394a8     LIBCMT:getqloc.obj
 0002:000054b0       ??_C@_0M@EFJANOAL@puerto?9rico?$AA@ 100394b0     LIBCMT:getqloc.obj
 0002:000054bc       ??_C@_08PGOJKDAI@pr?9china?$AA@ 100394bc     LIBCMT:getqloc.obj
 0002:000054c8       ??_C@_08JHDOMCMI@pr?5china?$AA@ 100394c8     LIBCMT:getqloc.obj
 0002:000054d4       ??_C@_02JHCHFBLL@nz?$AA@   100394d4     LIBCMT:getqloc.obj
 0002:000054d8       ??_C@_0M@LINHDHKP@new?9zealand?$AA@ 100394d8     LIBCMT:getqloc.obj
 0002:000054e4       ??_C@_09IIIPPBDB@hong?9kong?$AA@ 100394e4     LIBCMT:getqloc.obj
 0002:000054f0       ??_C@_07HJLCKBG@holland?$AA@ 100394f0     LIBCMT:getqloc.obj
 0002:000054f8       ??_C@_0O@LEHGMHAG@great?5britain?$AA@ 100394f8     LIBCMT:getqloc.obj
 0002:00005508       ??_C@_07FACOMELA@england?$AA@ 10039508     LIBCMT:getqloc.obj
 0002:00005510       ??_C@_05JIHCEICB@czech?$AA@ 10039510     LIBCMT:getqloc.obj
 0002:00005518       ??_C@_05BBJOBLGB@china?$AA@ 10039518     LIBCMT:getqloc.obj
 0002:00005520       ??_C@_07GPKPHICP@britain?$AA@ 10039520     LIBCMT:getqloc.obj
 0002:00005528       ??_C@_07MHIPBHMG@america?$AA@ 10039528     LIBCMT:getqloc.obj
 0002:00005530       ??_C@_03KIALPMKC@usa?$AA@  10039530     LIBCMT:getqloc.obj
 0002:00005534       ??_C@_02FGJGKGGD@us?$AA@   10039534     LIBCMT:getqloc.obj
 0002:00005538       ??_C@_02NEINDODK@uk?$AA@   10039538     LIBCMT:getqloc.obj
 0002:0000553c       ??_C@_05JMPCFJFJ@swiss?$AA@ 1003953c     LIBCMT:getqloc.obj
 0002:00005544       ??_C@_0BA@HLOCPIOD@swedish?9finland?$AA@ 10039544     LIBCMT:getqloc.obj
 0002:00005554       ??_C@_0BC@PKCNIABK@spanish?9venezuela?$AA@ 10039554     LIBCMT:getqloc.obj
 0002:00005568       ??_C@_0BA@GBHHMIJI@spanish?9uruguay?$AA@ 10039568     LIBCMT:getqloc.obj
 0002:00005578       ??_C@_0BE@BHDOHPMC@spanish?9puerto?5rico?$AA@ 10039578     LIBCMT:getqloc.obj
 0002:0000558c       ??_C@_0N@KMOIDGGN@spanish?9peru?$AA@ 1003958c     LIBCMT:getqloc.obj
 0002:0000559c       ??_C@_0BB@HMHLPGPH@spanish?9paraguay?$AA@ 1003959c     LIBCMT:getqloc.obj
 0002:000055b0       ??_C@_0P@MCPKNGFD@spanish?9panama?$AA@ 100395b0     LIBCMT:getqloc.obj
 0002:000055c0       ??_C@_0BC@IHOHGAIL@spanish?9nicaragua?$AA@ 100395c0     LIBCMT:getqloc.obj
 0002:000055d4       ??_C@_0P@KLMJDNFJ@spanish?9modern?$AA@ 100395d4     LIBCMT:getqloc.obj
 0002:000055e4       ??_C@_0BA@BPAPGBCM@spanish?9mexican?$AA@ 100395e4     LIBCMT:getqloc.obj
 0002:000055f4       ??_C@_0BB@PDECHHHE@spanish?9honduras?$AA@ 100395f4     LIBCMT:getqloc.obj
 0002:00005608       ??_C@_0BC@KLHKFGDB@spanish?9guatemala?$AA@ 10039608     LIBCMT:getqloc.obj
 0002:0000561c       ??_C@_0BE@MFOOKJAI@spanish?9el?5salvador?$AA@ 1003961c     LIBCMT:getqloc.obj
 0002:00005630       ??_C@_0BA@FCOKFPFC@spanish?9ecuador?$AA@ 10039630     LIBCMT:getqloc.obj
 0002:00005640       ??_C@_0BL@PLMGIMOO@spanish?9dominican?5republic?$AA@ 10039640     LIBCMT:getqloc.obj
 0002:0000565c       ??_C@_0BD@HLGDNMHB@spanish?9costa?5rica?$AA@ 1003965c     LIBCMT:getqloc.obj
 0002:00005670       ??_C@_0BB@PKCBKCPE@spanish?9colombia?$AA@ 10039670     LIBCMT:getqloc.obj
 0002:00005684       ??_C@_0O@MCBIJGNE@spanish?9chile?$AA@ 10039684     LIBCMT:getqloc.obj
 0002:00005694       ??_C@_0BA@BEFEIGJJ@spanish?9bolivia?$AA@ 10039694     LIBCMT:getqloc.obj
 0002:000056a4       ??_C@_0BC@EMECMPD@spanish?9argentina?$AA@ 100396a4     LIBCMT:getqloc.obj
 0002:000056b8       ??_C@_0BF@EALFLENP@portuguese?9brazilian?$AA@ 100396b8     LIBCMT:getqloc.obj
 0002:000056d0       ??_C@_0BC@HBLEBLNN@norwegian?9nynorsk?$AA@ 100396d0     LIBCMT:getqloc.obj
 0002:000056e4       ??_C@_0BB@HMACDDCK@norwegian?9bokmal?$AA@ 100396e4     LIBCMT:getqloc.obj
 0002:000056f8       ??_C@_09BAFFPPHE@norwegian?$AA@ 100396f8     LIBCMT:getqloc.obj
 0002:00005704       ??_C@_0O@EAJFJDFG@italian?9swiss?$AA@ 10039704     LIBCMT:getqloc.obj
 0002:00005714       ??_C@_0O@CNOMPGD@irish?9english?$AA@ 10039714     LIBCMT:getqloc.obj
 0002:00005724       ??_C@_0N@EDHBGCKG@german?9swiss?$AA@ 10039724     LIBCMT:getqloc.obj
 0002:00005734       ??_C@_0BC@JACMHNBP@german?9luxembourg?$AA@ 10039734     LIBCMT:getqloc.obj
 0002:00005748       ??_C@_0BE@HBGMGFEG@german?9lichtenstein?$AA@ 10039748     LIBCMT:getqloc.obj
 0002:0000575c       ??_C@_0BA@HKKBIBKL@german?9austrian?$AA@ 1003975c     LIBCMT:getqloc.obj
 0002:0000576c       ??_C@_0N@GCAEPEBK@french?9swiss?$AA@ 1003976c     LIBCMT:getqloc.obj
 0002:0000577c       ??_C@_0BC@DJFJJCK@french?9luxembourg?$AA@ 1003977c     LIBCMT:getqloc.obj
 0002:00005790       ??_C@_0BA@NNCEDFIC@french?9canadian?$AA@ 10039790     LIBCMT:getqloc.obj
 0002:000057a0       ??_C@_0P@CMPOCLM@french?9belgian?$AA@ 100397a0     LIBCMT:getqloc.obj
 0002:000057b0       ??_C@_0M@GHHDJOK@english?9usa?$AA@ 100397b0     LIBCMT:getqloc.obj
 0002:000057bc       ??_C@_0L@PLDJKEIL@english?9us?$AA@ 100397bc     LIBCMT:getqloc.obj
 0002:000057c8       ??_C@_0L@HJCCDMNC@english?9uk?$AA@ 100397c8     LIBCMT:getqloc.obj
 0002:000057d4       ??_C@_0BK@CKLIAGJB@english?9trinidad?5y?5tobago?$AA@ 100397d4     LIBCMT:getqloc.obj
 0002:000057f0       ??_C@_0BF@JMJMGNNF@english?9south?5africa?$AA@ 100397f0     LIBCMT:getqloc.obj
 0002:00005808       ??_C@_0L@DKIIFDFD@english?9nz?$AA@ 10039808     LIBCMT:getqloc.obj
 0002:00005814       ??_C@_0BA@ONHGJCLH@english?9jamaica?$AA@ 10039814     LIBCMT:getqloc.obj
 0002:00005824       ??_C@_0M@HJBGHOPO@english?9ire?$AA@ 10039824     LIBCMT:getqloc.obj
 0002:00005830       ??_C@_0BC@LFEKMIFB@english?9caribbean?$AA@ 10039830     LIBCMT:getqloc.obj
 0002:00005844       ??_C@_0M@OLDPFKHI@english?9can?$AA@ 10039844     LIBCMT:getqloc.obj
 0002:00005850       ??_C@_0P@OMDEHBMP@english?9belize?$AA@ 10039850     LIBCMT:getqloc.obj
 0002:00005860       ??_C@_0M@KFHFPFED@english?9aus?$AA@ 10039860     LIBCMT:getqloc.obj
 0002:0000586c       ??_C@_0BB@MNMBKDFE@english?9american?$AA@ 1003986c     LIBCMT:getqloc.obj
 0002:00005880       ??_C@_0O@KIDLNNBA@dutch?9belgian?$AA@ 10039880     LIBCMT:getqloc.obj
 0002:00005890       ??_C@_0BE@JBKABBMH@chinese?9traditional?$AA@ 10039890     LIBCMT:getqloc.obj
 0002:000058a4       ??_C@_0BC@MJJMPKCG@chinese?9singapore?$AA@ 100398a4     LIBCMT:getqloc.obj
 0002:000058b8       ??_C@_0BD@FDKADDCP@chinese?9simplified?$AA@ 100398b8     LIBCMT:getqloc.obj
 0002:000058cc       ??_C@_0BB@DBEFDDME@chinese?9hongkong?$AA@ 100398cc     LIBCMT:getqloc.obj
 0002:000058e0       ??_C@_07DHNMFMCI@chinese?$AA@ 100398e0     LIBCMT:getqloc.obj
 0002:000058e8       ??_C@_03FNDDCHI@chi?$AA@   100398e8     LIBCMT:getqloc.obj
 0002:000058ec       ??_C@_03BMMIADDJ@chh?$AA@  100398ec     LIBCMT:getqloc.obj
 0002:000058f0       ??_C@_08OAIPJDGI@canadian?$AA@ 100398f0     LIBCMT:getqloc.obj
 0002:000058fc       ??_C@_07HBPMNPNJ@belgian?$AA@ 100398fc     LIBCMT:getqloc.obj
 0002:00005904       ??_C@_0L@OEKOPBEL@australian?$AA@ 10039904     LIBCMT:getqloc.obj
 0002:00005910       ??_C@_0BB@MEIMBEDG@american?9english?$AA@ 10039910     LIBCMT:getqloc.obj
 0002:00005924       ??_C@_0BB@DFMDPDGB@american?5english?$AA@ 10039924     LIBCMT:getqloc.obj
 0002:00005938       ??_C@_08IJLOKOLL@american?$AA@ 10039938     LIBCMT:getqloc.obj
 0002:00005948       ___rg_language             10039948     LIBCMT:getqloc.obj
 0002:00005b50       ___rg_country              10039b50     LIBCMT:getqloc.obj
 0002:00005c08       ___rglangidNotDefault      10039c08     LIBCMT:getqloc.obj
 0002:00005c1c       ??_C@_03NFKLAGEF@OCP?$AA@  10039c1c     LIBCMT:getqloc.obj
 0002:00005c20       ??_C@_03DFHEHBHG@ACP?$AA@  10039c20     LIBCMT:getqloc.obj
 0002:00005c24       ??_C@_0BC@NFIEMBLL@Norwegian?9Nynorsk?$AA@ 10039c24     LIBCMT:getqloc.obj
 0002:00005c38       __load_config_used         10039c38     LIBCMT:loadcfg.obj
 0002:000069f0       ___safe_se_handler_table   1003a9f0     <linker-defined>
 0002:00006b00       ___rtc_iaa                 1003ab00     LIBCMT:_initsect_.obj
 0002:00006c04       ___rtc_izz                 1003ac04     LIBCMT:_initsect_.obj
 0002:00006d08       ___rtc_taa                 1003ad08     LIBCMT:_initsect_.obj
 0002:00006e0c       ___rtc_tzz                 1003ae0c     LIBCMT:_initsect_.obj
 0003:00000090       _untitled_P                1003c090     untitled_data.obj
 0003:000000a0       _pci20041digout            1003c0a0     xpctarget.obj
 0003:000000a4       _nipcdio24cnfg             1003c0a4     xpctarget.obj
 0003:000000a8       _rtddm6604cnfg             1003c0a8     xpctarget.obj
 0003:000001cc       _DefaultCOMIOBase          1003c1cc     xpcruntime:xpcimports.obj
 0003:000001dc       _DefaultCOMIRQ             1003c1dc     xpcruntime:xpcimports.obj
 0003:000001ec       __fltused                  1003c1ec     LIBCMT:_fpinit_.obj
 0003:000001f0       __ldused                   1003c1f0     LIBCMT:_fpinit_.obj
 0003:00000200       __iob                      1003c200     LIBCMT:_file.obj
 0003:00000480       ___security_cookie         1003c480     LIBCMT:gs_cookie.obj
 0003:00000484       ___security_cookie_complement 1003c484     LIBCMT:gs_cookie.obj
 0003:00000660       __cfltcvt_tab              1003c660     LIBCMT:cmiscdat.obj
 0003:00000688       ___nullstring              1003c688     LIBCMT:output.obj
 0003:0000068c       ___wnullstring             1003c68c     LIBCMT:output.obj
 0003:00000690       __d_inf                    1003c690     LIBCMT:_util_.obj
 0003:00000698       __d_ind                    1003c698     LIBCMT:_util_.obj
 0003:000006a0       __d_max                    1003c6a0     LIBCMT:_util_.obj
 0003:000006a8       __d_min                    1003c6a8     LIBCMT:_util_.obj
 0003:000006b0       __d_mzero                  1003c6b0     LIBCMT:_util_.obj
 0003:000007c0       ___badioinfo               1003c7c0     LIBCMT:ioinit.obj
 0003:00000920       __lookuptrailbytes         1003c920     LIBCMT:read.obj
 0003:00000a20       ___flsindex                1003ca20     LIBCMT:tidtable.obj
 0003:00000a24       ___getvalueindex           1003ca24     LIBCMT:tidtable.obj
 0003:00000a28       ___abort_behavior          1003ca28     LIBCMT:abort.obj
 0003:00000a30       ___initialmbcinfo          1003ca30     LIBCMT:mbctype.obj
 0003:00000c50       __mbctype                  1003cc50     LIBCMT:mbctype.obj
 0003:00000d58       __mbcasemap                1003cd58     LIBCMT:mbctype.obj
 0003:00000e58       ___ptmbcinfo               1003ce58     LIBCMT:mbctype.obj
 0003:00000f50       ___globallocalestatus      1003cf50     LIBCMT:glstatus.obj
 0003:00000f54       ___clocalestr              1003cf54     LIBCMT:nlsdata2.obj
 0003:00000f58       ___lc_time_c               1003cf58     LIBCMT:nlsdata2.obj
 0003:000010c0       ___initiallocinfo          1003d0c0     LIBCMT:nlsdata2.obj
 0003:00001198       ___ptlocinfo               1003d198     LIBCMT:nlsdata2.obj
 0003:0000119c       ___initiallocalestructinfo 1003d19c     LIBCMT:nlsdata2.obj
 0003:000011b0       __matherr_flag             1003d1b0     LIBCMT:_matherr_.obj
 0003:000011c0       __NLG_Destination          1003d1c0     LIBCMT:exsup.obj
 0003:000011d0       ___lconv_static_decimal    1003d1d0     LIBCMT:lconv.obj
 0003:000011d4       ___lconv_static_W_decimal  1003d1d4     LIBCMT:lconv.obj
 0003:000011d8       ___lconv_c                 1003d1d8     LIBCMT:lconv.obj
 0003:00001228       ___lconv                   1003d228     LIBCMT:lconv.obj
 0003:0000122c       __pctype                   1003d22c     LIBCMT:ctype.obj
 0003:00001230       __pwctype                  1003d230     LIBCMT:ctype.obj
 0003:00001268       __confh                    1003d268     LIBCMT:initcon.obj
 0003:00001270       ___mb_cur_max              1003d270     LIBCMT:nlsdata1.obj
 0003:00001274       ___decimal_point           1003d274     LIBCMT:nlsdata1.obj
 0003:00001278       ___decimal_point_length    1003d278     LIBCMT:nlsdata1.obj
 0003:00001280       __pow10pos                 1003d280     LIBCMT:_constpow_.obj
 0003:000013e0       __pow10neg                 1003d3e0     LIBCMT:_constpow_.obj
 0003:00001aa0       _pci20098PortA             1003daa0     xpctarget.obj
 0003:00001aa4       _pci20098PortB             1003daa4     xpctarget.obj
 0003:00001aa8       _siepowercan_firmware_initialized 1003daa8     xpctarget.obj
 0003:00001aac       _siepowercan_port1_configured 1003daac     xpctarget.obj
 0003:00001ab0       _siepowercan_port2_configured 1003dab0     xpctarget.obj
 0003:00001ab4       _CANAC2_FIRMWARE_LOADED    1003dab4     xpctarget.obj
 0003:00001ab8       _rs232ports                1003dab8     xpctarget.obj
 0003:00001ac8       _NI_AT_MIO_16F_5_commreg2  1003dac8     xpctarget.obj
 0003:00001acc       _RTD_DM6430_init           1003dacc     xpctarget.obj
 0003:00001ad0       _RTD_DM6420_init           1003dad0     xpctarget.obj
 0003:00001ad4       _CANAC2_FIRMWARE_LOADED_mb1 1003dad4     xpctarget.obj
 0003:00001ad8       _CANAC2_FIRMWARE_LOADED_mb2 1003dad8     xpctarget.obj
 0003:00001adc       _CANAC2_FIRMWARE_LOADED_mb3 1003dadc     xpctarget.obj
 0003:00001ae0       _xmlsize                   1003dae0     xpctarget.obj
 0003:00001af4       ___fastflag                1003daf4     LIBCMT:_fpinit_.obj
 0003:00001afc       __cflush                   1003dafc     LIBCMT:_file.obj
 0003:00001b00       __umaskval                 1003db00     LIBCMT:crt0dat.obj
 0003:00001b04       ___argc                    1003db04     LIBCMT:crt0dat.obj
 0003:00001b08       ___argv                    1003db08     LIBCMT:crt0dat.obj
 0003:00001b0c       ___wargv                   1003db0c     LIBCMT:crt0dat.obj
 0003:00001b10       __environ                  1003db10     LIBCMT:crt0dat.obj
 0003:00001b14       ___initenv                 1003db14     LIBCMT:crt0dat.obj
 0003:00001b18       __wenviron                 1003db18     LIBCMT:crt0dat.obj
 0003:00001b1c       ___winitenv                1003db1c     LIBCMT:crt0dat.obj
 0003:00001b20       __pgmptr                   1003db20     LIBCMT:crt0dat.obj
 0003:00001b24       __wpgmptr                  1003db24     LIBCMT:crt0dat.obj
 0003:00001b28       __exitflag                 1003db28     LIBCMT:crt0dat.obj
 0003:00001b2c       __C_Termination_Done       1003db2c     LIBCMT:crt0dat.obj
 0003:00001b30       __C_Exit_Done              1003db30     LIBCMT:crt0dat.obj
 0003:00001b38       __aenvptr                  1003db38     LIBCMT:dllcrt0.obj
 0003:00001b3c       __wenvptr                  1003db3c     LIBCMT:dllcrt0.obj
 0003:00001b40       ___error_mode              1003db40     LIBCMT:dllcrt0.obj
 0003:00001b44       ___app_type                1003db44     LIBCMT:dllcrt0.obj
 0003:00002170       __crtheap                  1003e170     LIBCMT:heapinit.obj
 0003:00002174       ?_pnhHeap@@3P6AHI@ZA       1003e174     LIBCMT:handler.obj
 0003:00002178       __newmode                  1003e178     LIBCMT:_newmode.obj
 0003:0000217c       __stdbuf                   1003e17c     LIBCMT:_sftbuf.obj
 0003:00002184       ___pInvalidArgHandler      1003e184     LIBCMT:invarg.obj
 0003:00002188       __maxwait                  1003e188     LIBCMT:crtheap.obj
 0003:00002604       ?__pInconsistency@@3P6AXXZA 1003e604     LIBCMT:hooks.obj
 0003:00002620       ___pPurecall               1003e620     LIBCMT:inithelp.obj
 0003:00002624       _gpFlsAlloc                1003e624     LIBCMT:tidtable.obj
 0003:00002628       _gpFlsGetValue             1003e628     LIBCMT:tidtable.obj
 0003:0000262c       _gpFlsSetValue             1003e62c     LIBCMT:tidtable.obj
 0003:00002630       _gpFlsFree                 1003e630     LIBCMT:tidtable.obj
 0003:00002754       ___mbulinfo                1003e754     LIBCMT:mbctype.obj
 0003:00002760       ___mbcodepage              1003e760     LIBCMT:mbctype.obj
 0003:00002764       ___ismbcodepage            1003e764     LIBCMT:mbctype.obj
 0003:00002768       ___mblcid                  1003e768     LIBCMT:mbctype.obj
 0003:0000276c       __outputformat             1003e76c     LIBCMT:outputformat.obj
 0003:00002770       __commode                  1003e770     LIBCMT:ncommode.obj
 0003:00002774       ___lconv_static_null       1003e774     LIBCMT:lconv.obj
 0003:00002778       ___lconv_static_W_null     1003e778     LIBCMT:lconv.obj
 0003:0000277c       ___locale_changed          1003e77c     LIBCMT:setlocal.obj
 0003:00002780       __fmode                    1003e780     LIBCMT:txtmode.obj
 0003:00002784       _CANAC2_2_sendmaxindex_mb2 1003e784     <common>
 0003:00005540       _CANAC2_2_receiveindex_mb2 10041540     <common>
 0003:00005860       _CANAC2_1_sendmaxindex_mb3 10041860     <common>
 0003:00005880       _CANAC2_2_receiveindex     10041880     <common>
 0003:00005ba0       _CANAC2_2_sendmaxindex     10041ba0     <common>
 0003:00005bc0       _CANAC2_2_sendindex        10041bc0     <common>
 0003:00005ee0       _CANAC2_2_receive_mb3      10041ee0     <common>
 0003:00006200       _CANAC2_2_receive_mb1      10042200     <common>
 0003:00006520       _CANAC2_1_sendindex_mb3    10042520     <common>
 0003:00006840       _CANAC2_1_receive_mb1      10042840     <common>
 0003:00006b60       _CANAC2_2_receiveindex_mb1 10042b60     <common>
 0003:00006e80       _CANAC2_2_sendindex_mb3    10042e80     <common>
 0003:000071a0       _siepowercan_can_object_buffer_port2 100431a0     <common>
 0003:0000b1c0       _siepowercan_can_object_buffer_port1 100471c0     <common>
 0003:0000f1c0       _CANAC2_2_sendmaxindex_mb3 1004b1c0     <common>
 0003:0000f1e0       _CANAC2_2_sendindex_mb1    1004b1e0     <common>
 0003:0000f500       _CANAC2_1_receivemaxindex_mb3 1004b500     <common>
 0003:0000f504       _CANAC2_1_receivemaxindex_mb2 1004b504     <common>
 0003:0000f520       _CANAC2_1_receiveindex_mb1 1004b520     <common>
 0003:0000f840       _CANAC2_1_sendmaxindex     1004b840     <common>
 0003:0000f860       _CANAC2_1_send_mb3         1004b860     <common>
 0003:0000fb80       _CANAC2_2_send_mb2         1004bb80     <common>
 0003:0000fea0       _CANAC2_2_sendmaxindex_mb1 1004bea0     <common>
 0003:0000fec0       _CANAC2_1_receiveindex_mb3 1004bec0     <common>
 0003:000101e0       _CANAC2_1_sendmaxindex_mb1 1004c1e0     <common>
 0003:00010200       _CANAC2_1_receiveindex     1004c200     <common>
 0003:00010520       _CANAC2_2_receive_mb2      1004c520     <common>
 0003:00010840       _CANAC2_1_sendindex_mb2    1004c840     <common>
 0003:00010b60       _CANAC2_2_receivemaxindex_mb3 1004cb60     <common>
 0003:00010b80       _CANAC2_1_send_mb2         1004cb80     <common>
 0003:00010ea0       _CANAC2_1_sendindex_mb1    1004cea0     <common>
 0003:000111c0       _CANAC2_1_send_mb1         1004d1c0     <common>
 0003:000114e0       _CANAC2_1_send             1004d4e0     <common>
 0003:00011800       _CANAC2_2_send_mb1         1004d800     <common>
 0003:00011b20       _CANAC2_2_send             1004db20     <common>
 0003:00011e40       _CANAC2_2_receivemaxindex_mb1 1004de40     <common>
 0003:00011e44       _CANAC2_1_receivemaxindex_mb1 1004de44     <common>
 0003:00011e48       _CANAC2_2_receivemaxindex_mb2 1004de48     <common>
 0003:00011e60       _CANAC2_2_receiveindex_mb3 1004de60     <common>
 0003:00012180       _CANAC2_1_receive          1004e180     <common>
 0003:000124a0       _CANAC2_1_sendmaxindex_mb2 1004e4a0     <common>
 0003:000124c0       _CANAC2_2_send_mb3         1004e4c0     <common>
 0003:000127e0       _CANAC2_1_receiveindex_mb2 1004e7e0     <common>
 0003:00012b00       _CANAC2_1_receive_mb2      1004eb00     <common>
 0003:00012e20       _CANAC2_1_receive_mb3      1004ee20     <common>
 0003:00013140       _CANAC2_2_receive          1004f140     <common>
 0003:00013460       _CANAC2_1_sendindex        1004f460     <common>
 0003:00013780       _CANAC2_2_receivemaxindex  1004f780     <common>
 0003:000137a0       _CANAC2_2_sendindex_mb2    1004f7a0     <common>
 0003:00013ac0       _CANAC2_1_receivemaxindex  1004fac0     <common>
 0003:00013ac8       _rtInf                     1004fac8     <common>
 0003:00013ae0       _rtMinusInfF               1004fae0     <common>
 0003:00013ae4       _rtInfF                    1004fae4     <common>
 0003:00013ae8       _rtMinusInf                1004fae8     <common>
 0003:00013af0       _rtNaN                     1004faf0     <common>
 0003:00013af8       _rtNaNF                    1004faf8     <common>
 0003:00013afc       _untitled_DW               1004fafc     <common>
 0003:00013b88       _untitled_B                1004fb88     <common>
 0003:00013ba0       _untitled_M_               1004fba0     <common>
 0003:00013e00       _xpcInpB                   1004fe00     <common>
 0003:00013e50       _rl32eReceiveChar          1004fe50     <common>
 0003:00013e54       _xpceUDPClose              1004fe54     <common>
 0003:00013e58       _rl32eScopeExists          1004fe58     <common>
 0003:00013e5c       _CreateVideoDisplay        1004fe5c     <common>
 0003:00013e60       _xpceCreateSemaphore       1004fe60     <common>
 0003:00013e64       _xpceSetParameter          1004fe64     <common>
 0003:00013e68       _TBTakeSpinFast            1004fe68     <common>
 0003:00013e6c       _xpcGetElapsedTime         1004fe6c     <common>
 0003:00013e70       _xpceUDPSend               1004fe70     <common>
 0003:00013e74       _rl32eSetTargetScope       1004fe74     <common>
 0003:00013e78       _rl32eAddSignal            1004fe78     <common>
 0003:00013e7c       _xpceAssignPCIInterrupt    1004fe7c     <common>
 0003:00013e80       _xpceSignalSemaphore       1004fe80     <common>
 0003:00013e84       _StartVideo                1004fe84     <common>
 0003:00013e88       _startToAsyncQueueTgtAppSvc 1004fe88     <common>
 0003:00013e8c       _rl32eSetTargetScopeSigFt  1004fe8c     <common>
 0003:00013e90       _slrteGetCurrentStepSize   1004fe90     <common>
 0003:00013e94       _rl32eSetScope             1004fe94     <common>
 0003:00013e98       _xpceUDPOpenReceive        1004fe98     <common>
 0003:00013e9c       _xpcReserveMemoryRegion    1004fe9c     <common>
 0003:00013ea0       _getCommService            1004fea0     <common>
 0003:00013ea4       _rl32eGetPCIInfoAtSlot     1004fea4     <common>
 0003:00013ea8       _GetVideoConfigs           1004fea8     <common>
 0003:00013eac       _rl32eReceiveBufferCount   1004feac     <common>
 0003:00013eb0       _rl32eSendBlock            1004feb0     <common>
 0003:00013eb4       _xpceGetIntTimerGranularityNS 1004feb4     <common>
 0003:00013eb8       _StartVideoDisplay         1004feb8     <common>
 0003:00013ebc       _ReadFrameBuffer           1004febc     <common>
 0003:00013ec0       _xpceDeRegisterISR         1004fec0     <common>
 0003:00013ec4       _xpceFSScopeSet            1004fec4     <common>
 0003:00013ec8       _rl32eCloseCOMPort         1004fec8     <common>
 0003:00013ecc       _TBDeleteSpin              1004fecc     <common>
 0003:00013ed0       _rl32eRestartAcquisition   1004fed0     <common>
 0003:00013ed4       _rl32eDefScope             1004fed4     <common>
 0003:00013ed8       _rl32eShowPCIInfo          1004fed8     <common>
 0003:00013edc       _xpcOutpB                  1004fedc     <common>
 0003:00013ee0       _xpceWaitSemaphore         1004fee0     <common>
 0003:00013ee4       _rl32eSendChar             1004fee4     <common>
 0003:00013ee8       _sendToAsyncQueueTgtAppSvc 1004fee8     <common>
 0003:00013eec       _xpceDeleteSemaphore       1004feec     <common>
 0003:00013ef0       _getStatusFlags            1004fef0     <common>
 0003:00013ef4       _rl32eGetSignalNo          1004fef4     <common>
 0003:00013ef8       _xpceGetTET                1004fef8     <common>
 0003:00013efc       _xpceGetParameter          1004fefc     <common>
 0003:00013f00       _StopVideo                 1004ff00     <common>
 0003:00013f04       _slTestTerminate           1004ff04     <common>
 0003:00013f08       _getMemoryService          1004ff08     <common>
 0003:00013f0c       _terminateToAsyncQueueTgtAppSvc 1004ff0c     <common>
 0003:00013f10       _xpcBusyWait               1004ff10     <common>
 0003:00013f14       _FindUsbVideoDevice        1004ff14     <common>
 0003:00013f18       _xpceaddEvent              1004ff18     <common>
 0003:00013f1c       _rl32eLineStatus           1004ff1c     <common>
 0003:00013f20       _ConvertUImage             1004ff20     <common>
 0003:00013f24       _registerPTPTimeRead       1004ff24     <common>
 0003:00013f28       _xpceGetParamDims          1004ff28     <common>
 0003:00013f2c       _xpcIsModelInit            1004ff2c     <common>
 0003:00013f30       _slTestEvalOnFail          1004ff30     <common>
 0003:00013f34       _xpceFTReadTime            1004ff34     <common>
 0003:00013f38       _rl32eGetPCIInfo           1004ff38     <common>
 0003:00013f3c       _DestroyVideoDisplay       1004ff3c     <common>
 0003:00013f40       _xpceUDPReceive            1004ff40     <common>
 0003:00013f44       _slrteSetStepSizeDelta     1004ff44     <common>
 0003:00013f48       _xpceFTSubtract            1004ff48     <common>
 0003:00013f4c       _slTestLogAssessments      1004ff4c     <common>
 0003:00013f50       _TBCreateSpin              1004ff50     <common>
 0003:00013f54       _unRegisterPTPTimeRead     1004ff54     <common>
 0003:00013f58       _rl32eShowPCIDev           1004ff58     <common>
 0003:00013f5c       _xpceFTAdd                 1004ff5c     <common>
 0003:00013f60       _slTestInitialize          1004ff60     <common>
 0003:00013f64       _xpcFreePhysicalMemory     1004ff64     <common>
 0003:00013f68       _xpcAllocPhysicalMemory    1004ff68     <common>
 0003:00013f6c       _StreamVideo               1004ff6c     <common>
 0003:00013f70       _xpceScopeAcqOK            1004ff70     <common>
 0003:00013f74       _xpcInpDW                  1004ff74     <common>
 0003:00013f78       _xpcOutpDW                 1004ff78     <common>
 0003:00013f7c       _slTestRegAssessment       1004ff7c     <common>
 0003:00013f80       _rl32eInitCOMPort          1004ff80     <common>
 0003:00013f84       _StopVideoDisplay          1004ff84     <common>
 0003:00013f88       _xpcOutpW                  1004ff88     <common>
 0003:00013f8c       _xpceGetSignalValue        1004ff8c     <common>
 0003:00013f90       _xpceUDPOpenSend           1004ff90     <common>
 0003:00013f94       _xpcInpW                   1004ff94     <common>
 0003:00013f98       _TBGiveSpinFast            1004ff98     <common>
 0003:00013f9c       _xpceRegisterISR           1004ff9c     <common>
 0003:00013fa0       ___setlc_active            1004ffa0     <common>
 0003:00013fb0       ___unguarded_readlc_active 1004ffb0     <common>
 0003:00013fb4       __debugger_hook_dummy      1004ffb4     <common>
 0003:00013fc0       __nhandle                  1004ffc0     <common>
 0003:00014000       ___pioinfo                 10050000     <common>
 0003:00014100       ___sse2_available          10050100     <common>
 0003:0001410c       __pDestructExceptionObject 1005010c     <common>
 0003:00014118       __acmdln                   10050118     <common>
 0003:00014124       ___env_initialized         10050124     <common>
 0003:00014134       ___onexitend               10050134     <common>
 0003:00014138       ___onexitbegin             10050138     <common>
 0003:0001413c       ___mbctype_initialized     1005013c     <common>
 0003:00014140       ___dyn_tls_init_callback   10050140     <common>
 0003:00014144       ___piob                    10050144     <common>
 0003:000144a0       __bufin                    100504a0     <common>
 0003:000154a0       __nstream                  100514a0     <common>
 0004:00000000       __IMPORT_DESCRIPTOR_KERNEL32 10052000     kernel32:KERNEL32.dll
 0004:00000014       __NULL_IMPORT_DESCRIPTOR   10052014     kernel32:KERNEL32.dll
 0004:000001d4       __imp__GetProcAddress@8    100521d4     kernel32:KERNEL32.dll
 0004:000001d8       __imp__GetModuleHandleA@4  100521d8     kernel32:KERNEL32.dll
 0004:000001dc       __imp__HeapAlloc@12        100521dc     kernel32:KERNEL32.dll
 0004:000001e0       __imp__GetLastError@0      100521e0     kernel32:KERNEL32.dll
 0004:000001e4       __imp__HeapFree@12         100521e4     kernel32:KERNEL32.dll
 0004:000001e8       __imp__EnterCriticalSection@4 100521e8     kernel32:KERNEL32.dll
 0004:000001ec       __imp__LeaveCriticalSection@4 100521ec     kernel32:KERNEL32.dll
 0004:000001f0       __imp__DeleteFileA@4       100521f0     kernel32:KERNEL32.dll
 0004:000001f4       __imp__GetModuleHandleW@4  100521f4     kernel32:KERNEL32.dll
 0004:000001f8       __imp__ExitProcess@4       100521f8     kernel32:KERNEL32.dll
 0004:000001fc       __imp__DecodePointer@4     100521fc     kernel32:KERNEL32.dll
 0004:00000200       __imp__HeapReAlloc@16      10052200     kernel32:KERNEL32.dll
 0004:00000204       __imp__WriteConsoleW@20    10052204     kernel32:KERNEL32.dll
 0004:00000208       __imp__GetFileType@4       10052208     kernel32:KERNEL32.dll
 0004:0000020c       __imp__GetStdHandle@4      1005220c     kernel32:KERNEL32.dll
 0004:00000210       __imp__GetModuleFileNameW@12 10052210     kernel32:KERNEL32.dll
 0004:00000214       __imp__GetCurrentThreadId@0 10052214     kernel32:KERNEL32.dll
 0004:00000218       __imp__GetCommandLineA@0   10052218     kernel32:KERNEL32.dll
 0004:0000021c       __imp__WriteFile@20        1005221c     kernel32:KERNEL32.dll
 0004:00000220       __imp__HeapCreate@12       10052220     kernel32:KERNEL32.dll
 0004:00000224       __imp__HeapDestroy@4       10052224     kernel32:KERNEL32.dll
 0004:00000228       __imp__EncodePointer@4     10052228     kernel32:KERNEL32.dll
 0004:0000022c       __imp__UnhandledExceptionFilter@4 1005222c     kernel32:KERNEL32.dll
 0004:00000230       __imp__SetUnhandledExceptionFilter@4 10052230     kernel32:KERNEL32.dll
 0004:00000234       __imp__IsDebuggerPresent@0 10052234     kernel32:KERNEL32.dll
 0004:00000238       __imp__TerminateProcess@8  10052238     kernel32:KERNEL32.dll
 0004:0000023c       __imp__GetCurrentProcess@0 1005223c     kernel32:KERNEL32.dll
 0004:00000240       __imp__IsProcessorFeaturePresent@4 10052240     kernel32:KERNEL32.dll
 0004:00000244       __imp__RaiseException@16   10052244     kernel32:KERNEL32.dll
 0004:00000248       __imp__SetHandleCount@4    10052248     kernel32:KERNEL32.dll
 0004:0000024c       __imp__InitializeCriticalSectionAndSpinCount@8 1005224c     kernel32:KERNEL32.dll
 0004:00000250       __imp__GetStartupInfoW@4   10052250     kernel32:KERNEL32.dll
 0004:00000254       __imp__DeleteCriticalSection@4 10052254     kernel32:KERNEL32.dll
 0004:00000258       __imp__Sleep@4             10052258     kernel32:KERNEL32.dll
 0004:0000025c       __imp__FatalAppExitA@8     1005225c     kernel32:KERNEL32.dll
 0004:00000260       __imp__WideCharToMultiByte@32 10052260     kernel32:KERNEL32.dll
 0004:00000264       __imp__GetConsoleCP@0      10052264     kernel32:KERNEL32.dll
 0004:00000268       __imp__GetConsoleMode@8    10052268     kernel32:KERNEL32.dll
 0004:0000026c       __imp__CloseHandle@4       1005226c     kernel32:KERNEL32.dll
 0004:00000270       __imp__MultiByteToWideChar@24 10052270     kernel32:KERNEL32.dll
 0004:00000274       __imp__ReadFile@20         10052274     kernel32:KERNEL32.dll
 0004:00000278       __imp__SetFilePointer@16   10052278     kernel32:KERNEL32.dll
 0004:0000027c       __imp__RtlUnwind@16        1005227c     kernel32:KERNEL32.dll
 0004:00000280       __imp__SetConsoleCtrlHandler@8 10052280     kernel32:KERNEL32.dll
 0004:00000284       __imp__FreeLibrary@4       10052284     kernel32:KERNEL32.dll
 0004:00000288       __imp__InterlockedExchange@8 10052288     kernel32:KERNEL32.dll
 0004:0000028c       __imp__LoadLibraryW@4      1005228c     kernel32:KERNEL32.dll
 0004:00000290       __imp__GetLocaleInfoW@16   10052290     kernel32:KERNEL32.dll
 0004:00000294       __imp__TlsAlloc@0          10052294     kernel32:KERNEL32.dll
 0004:00000298       __imp__TlsGetValue@4       10052298     kernel32:KERNEL32.dll
 0004:0000029c       __imp__TlsSetValue@8       1005229c     kernel32:KERNEL32.dll
 0004:000002a0       __imp__TlsFree@4           100522a0     kernel32:KERNEL32.dll
 0004:000002a4       __imp__InterlockedIncrement@4 100522a4     kernel32:KERNEL32.dll
 0004:000002a8       __imp__SetLastError@4      100522a8     kernel32:KERNEL32.dll
 0004:000002ac       __imp__InterlockedDecrement@4 100522ac     kernel32:KERNEL32.dll
 0004:000002b0       __imp__GetCurrentThread@0  100522b0     kernel32:KERNEL32.dll
 0004:000002b4       __imp__GetModuleFileNameA@12 100522b4     kernel32:KERNEL32.dll
 0004:000002b8       __imp__FreeEnvironmentStringsW@4 100522b8     kernel32:KERNEL32.dll
 0004:000002bc       __imp__GetEnvironmentStringsW@0 100522bc     kernel32:KERNEL32.dll
 0004:000002c0       __imp__QueryPerformanceCounter@4 100522c0     kernel32:KERNEL32.dll
 0004:000002c4       __imp__GetTickCount@0      100522c4     kernel32:KERNEL32.dll
 0004:000002c8       __imp__GetCurrentProcessId@0 100522c8     kernel32:KERNEL32.dll
 0004:000002cc       __imp__GetSystemTimeAsFileTime@4 100522cc     kernel32:KERNEL32.dll
 0004:000002d0       __imp__GetCPInfo@8         100522d0     kernel32:KERNEL32.dll
 0004:000002d4       __imp__GetACP@0            100522d4     kernel32:KERNEL32.dll
 0004:000002d8       __imp__GetOEMCP@0          100522d8     kernel32:KERNEL32.dll
 0004:000002dc       __imp__IsValidCodePage@4   100522dc     kernel32:KERNEL32.dll
 0004:000002e0       __imp__FlushFileBuffers@4  100522e0     kernel32:KERNEL32.dll
 0004:000002e4       __imp__SetStdHandle@8      100522e4     kernel32:KERNEL32.dll
 0004:000002e8       __imp__CreateFileA@28      100522e8     kernel32:KERNEL32.dll
 0004:000002ec       __imp__HeapSize@12         100522ec     kernel32:KERNEL32.dll
 0004:000002f0       __imp__LCMapStringW@24     100522f0     kernel32:KERNEL32.dll
 0004:000002f4       __imp__GetStringTypeW@16   100522f4     kernel32:KERNEL32.dll
 0004:000002f8       __imp__CreateFileW@28      100522f8     kernel32:KERNEL32.dll
 0004:000002fc       __imp__SetEndOfFile@4      100522fc     kernel32:KERNEL32.dll
 0004:00000300       __imp__GetProcessHeap@0    10052300     kernel32:KERNEL32.dll
 0004:00000304       __imp__GetUserDefaultLCID@0 10052304     kernel32:KERNEL32.dll
 0004:00000308       __imp__GetLocaleInfoA@16   10052308     kernel32:KERNEL32.dll
 0004:0000030c       __imp__EnumSystemLocalesA@8 1005230c     kernel32:KERNEL32.dll
 0004:00000310       __imp__IsValidLocale@8     10052310     kernel32:KERNEL32.dll
 0004:00000314       \177KERNEL32_NULL_THUNK_DATA 10052314     kernel32:KERNEL32.dll

 entry point at        0001:0000d47c

