 pci1756_xpc

 Timestamp is 6111cc69 (Tue Aug 10 08:46:33 2021)

 Preferred load address is 10000000

 Start         Length     Name                   Class
 0001:00000000 000381e5H .text                   CODE
 0002:00000000 00000104H .CRT$XCA                DATA
 0002:00000104 00000104H .CRT$XCZ                DATA
 0002:00000208 00000104H .CRT$XIA                DATA
 0002:0000030c 00000113H .CRT$XIC                DATA
 0002:00000420 00000104H .CRT$XIZ                DATA
 0002:00000524 00000104H .CRT$XPA                DATA
 0002:00000628 00000109H .CRT$XPX                DATA
 0002:00000734 00000104H .CRT$XPXA               DATA
 0002:00000838 00000104H .CRT$XPZ                DATA
 0002:0000093c 00000104H .CRT$XTA                DATA
 0002:00000a40 00000104H .CRT$XTZ                DATA
 0002:00000b50 00007ca8H .rdata                  DATA
 0002:000087f8 000001a3H .rdata$debug            DATA
 0002:000089a0 0000010eH .rdata$sxdata           DATA
 0002:00008ab0 00000104H .rtc$IAA                DATA
 0002:00008bb4 00000104H .rtc$IZZ                DATA
 0002:00008cb8 00000104H .rtc$TAA                DATA
 0002:00008dbc 00000104H .rtc$TZZ                DATA
 0002:00008ec0 00000991H .xdata$x                DATA
 0002:00009860 000001dfH .edata                  DATA
 0003:00000000 00001c9fH .data                   DATA
 0003:00001ca0 00014ee0H .bss                    DATA
 0004:00000000 00000014H .idata$2                DATA
 0004:00000014 00000014H .idata$3                DATA
 0004:00000028 000001bcH .idata$4                DATA
 0004:000001e4 000001bcH .idata$5                DATA
 0004:000003a0 000007c3H .idata$6                DATA

  Address         Publics by Value              Rva+Base       Lib:Object

 0000:00000000       __except_list              00000000     <absolute>
 0000:00000003       ___safe_se_handler_count   00000003     <absolute>
 0000:00000000       ___ImageBase               10000000     <linker-defined>
 0001:000002e0       _MdlInitialize             100012e0 f   pci1756.obj
 0001:000002f0       _MdlInitializeSampleTimes  100012f0 f   pci1756.obj
 0001:00000300       _MdlInitializeSizes        10001300 f   pci1756.obj
 0001:00000310       _MdlOutputs                10001310 f   pci1756.obj
 0001:00000320       _MdlStart                  10001320 f   pci1756.obj
 0001:00000330       _MdlTerminate              10001330 f   pci1756.obj
 0001:00000350       _MdlUpdate                 10001350 f   pci1756.obj
 0001:000003e0       _pci1756                   100013e0 f   pci1756.obj
 0001:00001c70       _pci1756_GetCAPIStaticMap  10002c70 f   pci1756_capi.obj
 0001:00001c80       _pci1756_InitializeDataMapInfo 10002c80 f   pci1756_capi.obj
 0001:00001d10       _rtGetInf                  10002d10 f   rtGetInf.obj
 0001:00001d40       _rtGetInfF                 10002d40 f   rtGetInf.obj
 0001:00001d60       _rtGetMinusInf             10002d60 f   rtGetInf.obj
 0001:00001d90       _rtGetMinusInfF            10002d90 f   rtGetInf.obj
 0001:00001db0       _rtGetNaN                  10002db0 f   rtGetNaN.obj
 0001:00001de0       _rtGetNaNF                 10002de0 f   rtGetNaN.obj
 0001:000026c0       _rt_CreateLogVar           100036c0 f   rt_logging.obj
 0001:00002750       _rt_CreateLogVarWithConvert 10003750 f   rt_logging.obj
 0001:00003120       _rt_CreateStructLogVar     10004120 f   rt_logging.obj
 0001:00003f30       _rt_GetMxIdFromDTypeId     10004f30 f   rt_logging.obj
 0001:00003f60       _rt_GetMxIdFromDTypeIdForRSim 10004f60 f   rt_logging.obj
 0001:00006850       _rt_StartDataLogging       10007850 f   rt_logging.obj
 0001:00006d10       _rt_StartDataLoggingWithStartTime 10007d10 f   rt_logging.obj
 0001:00007690       _rt_StopDataLogging        10008690 f   rt_logging.obj
 0001:000076b0       _rt_StopDataLoggingImpl    100086b0 f   rt_logging.obj
 0001:000079d0       _rt_UpdateLogVar           100089d0 f   rt_logging.obj
 0001:00008dd0       _rt_UpdateStructLogVar     10009dd0 f   rt_logging.obj
 0001:00008e60       _rt_UpdateTXXFYLogVars     10009e60 f   rt_logging.obj
 0001:000091a0       _rt_UpdateTXYLogVars       1000a1a0 f   rt_logging.obj
 0001:00009400       _rt_CleanUpForStateLogWithMMI 1000a400 f   rt_logging_mmi.obj
 0001:00009510       _rt_FillStateSigInfoFromMMI 1000a510 f   rt_logging_mmi.obj
 0001:000098c0       _rt_mxCreateCharMatrixFromStrings 1000a8c0 f   rt_matrx.obj
 0001:00009a10       _rt_mxCreateDoubleMatrix   1000aa10 f   rt_matrx.obj
 0001:00009a70       _rt_mxCreateNumericArray   1000aa70 f   rt_matrx.obj
 0001:00009af0       _rt_mxCreateString         1000aaf0 f   rt_matrx.obj
 0001:00009b80       _rt_mxDuplicateArray       1000ab80 f   rt_matrx.obj
 0001:00009c10       _rt_mxGetDimensions        1000ac10 f   rt_matrx.obj
 0001:00009c80       _rt_mxGetEps               1000ac80 f   rt_matrx.obj
 0001:00009c90       _rt_mxGetString            1000ac90 f   rt_matrx.obj
 0001:00009d50       _rtIsInf                   1000ad50 f   rt_nonfinite.obj
 0001:00009d90       _rtIsInfF                  1000ad90 f   rt_nonfinite.obj
 0001:00009dd0       _rtIsNaN                   1000add0 f   rt_nonfinite.obj
 0001:00009df0       _rtIsNaNF                  1000adf0 f   rt_nonfinite.obj
 0001:00009e10       _rt_InitInfAndNaN          1000ae10 f   rt_nonfinite.obj
 0001:00009e70       _rtPrintfNoOp              1000ae70 f   rt_printf.obj
 0001:00009e80       _rtwCAPI_CountSysRan       1000ae80 f   rtw_modelmap_utils.obj
 0001:00009f20       _rtwCAPI_EncodePath        1000af20 f   rtw_modelmap_utils.obj
 0001:0000a010       _rtwCAPI_FillSysRan        1000b010 f   rtw_modelmap_utils.obj
 0001:0000a100       _rtwCAPI_FreeFullPaths     1000b100 f   rtw_modelmap_utils.obj
 0001:0000a190       _rtwCAPI_GetFullStateBlockPath 1000b190 f   rtw_modelmap_utils.obj
 0001:0000a340       _rtwCAPI_GetNumContStateRecords 1000b340 f   rtw_modelmap_utils.obj
 0001:0000a400       _rtwCAPI_GetNumSigLogRecords 1000b400 f   rtw_modelmap_utils.obj
 0001:0000a450       _rtwCAPI_GetNumSigLogRecordsForRTWLogging 1000b450 f   rtw_modelmap_utils.obj
 0001:0000a4e0       _rtwCAPI_GetNumStateRecords 1000b4e0 f   rtw_modelmap_utils.obj
 0001:0000a530       _rtwCAPI_GetNumStateRecordsForRTWLogging 1000b530 f   rtw_modelmap_utils.obj
 0001:0000a5c0       _rtwCAPI_GetSigAddrFromMap 1000b5c0 f   rtw_modelmap_utils.obj
 0001:0000a680       _rtwCAPI_GetSigLogRecordInfo 1000b680 f   rtw_modelmap_utils.obj
 0001:0000aab0       _rtwCAPI_GetStateRecordInfo 1000bab0 f   rtw_modelmap_utils.obj
 0001:0000af60       _rtwCAPI_GetStateWidth     1000bf60 f   rtw_modelmap_utils.obj
 0001:0000afc0       _rtwCAPI_HasStates         1000bfc0 f   rtw_modelmap_utils.obj
 0001:0000b030       _rtwCAPI_UpdateFullPaths   1000c030 f   rtw_modelmap_utils.obj
 0001:0000b210       _DllMain@12                1000c210 f   xpctarget.obj
 0001:0000b220       _SLRTSetErrorStatus        1000c220 f   xpctarget.obj
 0001:0000b240       _changeStepSize            1000c240 f   xpctarget.obj
 0001:0000b290       _getDLMVersion             1000c290 f   xpctarget.obj
 0001:0000b2a0       _getRefMdlPath             1000c2a0 f   xpctarget.obj
 0001:0000b320       _getRefMdlSignalNumber     1000c320 f   xpctarget.obj
 0001:0000b3d0       _getrlmdlinfo              1000c3d0 f   xpctarget.obj
 0001:0000b5b0       _pci1756_ChangeStepSize    1000c5b0 f   xpctarget.obj
 0001:0000b600       _updateDiscreteEvents      1000c600 f   xpctarget.obj
 0001:0000b610       _getNumRef                 1000c610 f   appmappingData.obj
 0001:0000c3a0       _pci1756IO                 1000d3a0 f   pci1756IO.obj
 0001:0000c400       _GetPCIDeviceFull          1000d400 f   xpcruntime:xpcimports.obj
 0001:0000c430       _ShowPCIDevice             1000d430 f   xpcruntime:xpcimports.obj
 0001:0000caa0       _xpcGetPciConfigAtSlot     1000daa0 f   xpcruntime:xpcimports.obj
 0001:0000cd30       _xpcInitProcs              1000dd30 f   xpcruntime:xpcimports.obj
 0001:0000dad0       _xpceuploadevent           1000ead0 f   xpcruntime:xpcimports.obj
 0001:0000dad1       __heap_alloc               1000ead1 f i LIBCMT:malloc.obj
 0001:0000db0e       _malloc                    1000eb0e f   LIBCMT:malloc.obj
 0001:0000dba0       _memset                    1000eba0 f   LIBCMT:memset.obj
 0001:0000dc30       __fpmath                   1000ec30 f   LIBCMT:fpinit.obj
 0001:0000dc47       ___setfflag                1000ec47 f   LIBCMT:fpinit.obj
 0001:0000dc5a       __cfltcvt_init             1000ec5a f   LIBCMT:fpinit.obj
 0001:0000dcba       ___raise_securityfailure   1000ecba f   LIBCMT:gs_report.obj
 0001:0000dcf7       ___report_gsfailure        1000ecf7 f   LIBCMT:gs_report.obj
 0001:0000ddf0       ___report_rangecheckfailure 1000edf0 f   LIBCMT:gs_report.obj
 0001:0000ddfc       ___report_securityfailure  1000edfc f   LIBCMT:gs_report.obj
 0001:0000deca       ___report_securityfailureEx 1000eeca f   LIBCMT:gs_report.obj
 0001:0000dfde       ___copy_path_to_wide_string 1000efde f   LIBCMT:crt0dat.obj
 0001:0000e08e       ___crtCorExitProcess       1000f08e f   LIBCMT:crt0dat.obj
 0001:0000e0c0       ___crtExitProcess          1000f0c0 f   LIBCMT:crt0dat.obj
 0001:0000e0d6       ___freeCrtMemory           1000f0d6 f   LIBCMT:crt0dat.obj
 0001:0000e1dd       __amsg_exit                1000f1dd f   LIBCMT:crt0dat.obj
 0001:0000e1f9       __c_exit                   1000f1f9 f   LIBCMT:crt0dat.obj
 0001:0000e208       __cexit                    1000f208 f   LIBCMT:crt0dat.obj
 0001:0000e217       __cinit                    1000f217 f   LIBCMT:crt0dat.obj
 0001:0000e2a8       __exit                     1000f2a8 f   LIBCMT:crt0dat.obj
 0001:0000e2bc       __get_pgmptr               1000f2bc f   LIBCMT:crt0dat.obj
 0001:0000e2eb       __get_wpgmptr              1000f2eb f   LIBCMT:crt0dat.obj
 0001:0000e31a       __init_pointers            1000f31a f   LIBCMT:crt0dat.obj
 0001:0000e36a       __initterm_e               1000f36a f   LIBCMT:crt0dat.obj
 0001:0000e38c       __lockexit                 1000f38c f   LIBCMT:crt0dat.obj
 0001:0000e395       __unlockexit               1000f395 f   LIBCMT:crt0dat.obj
 0001:0000e4cd       _exit                      1000f4cd f   LIBCMT:crt0dat.obj
 0001:0000e4e1       _calloc                    1000f4e1 f   LIBCMT:calloc.obj
 0001:0000e51f       _free                      1000f51f f   LIBCMT:free.obj
 0001:0000e557       _realloc                   1000f557 f   LIBCMT:realloc.obj
 0001:0000e610       _memmove                   1000f610 f   LIBCMT:memmove.obj
 0001:0000ec60       _strchr                    1000fc60 f   LIBCMT:strchr.obj
 0001:0000ecce       ___from_strstr_to_strchr   1000fcce     LIBCMT:strchr.obj
 0001:0000ed90       _strncat                   1000fd90 f   LIBCMT:strncat.obj
 0001:0000eed0       _strncpy                   1000fed0 f   LIBCMT:strncpy.obj
 0001:0000eff4       ___initstdio               1000fff4 f   LIBCMT:_file.obj
 0001:0000f067       ___endstdio                10010067 f   LIBCMT:_file.obj
 0001:0000f08e       ___iob_func                1001008e f   LIBCMT:_file.obj
 0001:0000f094       __lock_file                10010094 f   LIBCMT:_file.obj
 0001:0000f0d3       __lock_file2               100100d3 f   LIBCMT:_file.obj
 0001:0000f103       __unlock_file              10010103 f   LIBCMT:_file.obj
 0001:0000f13d       __unlock_file2             1001013d f   LIBCMT:_file.obj
 0001:0000f16a       __fclose_nolock            1001016a f   LIBCMT:fclose.obj
 0001:0000f1d6       _fclose                    100101d6 f   LIBCMT:fclose.obj
 0001:0000f24d       __fsopen                   1001024d f   LIBCMT:fopen.obj
 0001:0000f311       _fopen                     10010311 f   LIBCMT:fopen.obj
 0001:0000f326       _fopen_s                   10010326 f   LIBCMT:fopen.obj
 0001:0000f36b       __fprintf_l                1001036b f   LIBCMT:fprintf.obj
 0001:0000f385       __fprintf_p                10010385 f   LIBCMT:fprintf.obj
 0001:0000f39e       __fprintf_p_l              1001039e f   LIBCMT:fprintf.obj
 0001:0000f3b8       __fprintf_s_l              100103b8 f   LIBCMT:fprintf.obj
 0001:0000f3d2       _fprintf                   100103d2 f   LIBCMT:fprintf.obj
 0001:0000f4ed       _fprintf_s                 100104ed f   LIBCMT:fprintf.obj
 0001:0000f506       __fread_nolock             10010506 f   LIBCMT:fread.obj
 0001:0000f521       __fread_nolock_s           10010521 f   LIBCMT:fread.obj
 0001:0000f6e4       _fread                     100106e4 f   LIBCMT:fread.obj
 0001:0000f6ff       _fread_s                   100106ff f   LIBCMT:fread.obj
 0001:0000f790       __fwrite_nolock            10010790 f   LIBCMT:fwrite.obj
 0001:0000f8e7       _fwrite                    100108e7 f   LIBCMT:fwrite.obj
 0001:0000f965       __get_printf_count_output  10010965 f   LIBCMT:printf.obj
 0001:0000f97a       __printf_l                 1001097a f   LIBCMT:printf.obj
 0001:0000f991       __printf_p                 10010991 f   LIBCMT:printf.obj
 0001:0000f9a7       __printf_p_l               100109a7 f   LIBCMT:printf.obj
 0001:0000f9be       __printf_s_l               100109be f   LIBCMT:printf.obj
 0001:0000f9d5       __set_printf_count_output  100109d5 f   LIBCMT:printf.obj
 0001:0000f9fd       _printf                    100109fd f   LIBCMT:printf.obj
 0001:0000faa9       _printf_s                  10010aa9 f   LIBCMT:printf.obj
 0001:0000fabf       __unlink                   10010abf f   LIBCMT:unlink.obj
 0001:0000fac8       _remove                    10010ac8 f   LIBCMT:unlink.obj
 0001:0000fb08       _rewind                    10010b08 f   LIBCMT:rewind.obj
 0001:0000fbd0       __scprintf                 10010bd0 f   LIBCMT:sprintf.obj
 0001:0000fbe3       __scprintf_l               10010be3 f   LIBCMT:sprintf.obj
 0001:0000fbfa       __scprintf_p               10010bfa f   LIBCMT:sprintf.obj
 0001:0000fc0d       __scprintf_p_l             10010c0d f   LIBCMT:sprintf.obj
 0001:0000fc24       __snprintf_s               10010c24 f   LIBCMT:sprintf.obj
 0001:0000fc43       __snprintf_s_l             10010c43 f   LIBCMT:sprintf.obj
 0001:0000fc63       __sprintf_l                10010c63 f   LIBCMT:sprintf.obj
 0001:0000fc7d       __sprintf_p                10010c7d f   LIBCMT:sprintf.obj
 0001:0000fc99       __sprintf_p_l              10010c99 f   LIBCMT:sprintf.obj
 0001:0000fcb6       __sprintf_s_l              10010cb6 f   LIBCMT:sprintf.obj
 0001:0000fcd3       _sprintf                   10010cd3 f   LIBCMT:sprintf.obj
 0001:0000fd55       _sprintf_s                 10010d55 f   LIBCMT:sprintf.obj
 0001:0000fd71       _ldexp                     10010d71 f   LIBCMT:ldexp.obj
 0001:0000ff59       @__security_check_cookie@4 10010f59 f   LIBCMT:secchk.obj
 0001:0000ff70       _memcpy                    10010f70 f   LIBCMT:memcpy.obj
 0001:000105b4       ___isa_available_init      100115b4 f   LIBCMT:cpu_disp.obj
 0001:000106ed       __invoke_watson_if_error   100116ed f i LIBCMT:wassert.obj
 0001:0001070d       __wassert                  1001170d f   LIBCMT:wassert.obj
 0001:00010daf       __CRT_INIT@12              10011daf f   LIBCMT:dllcrt0.obj
 0001:00010f1b       __DllMainCRTStartup@12     10011f1b f   LIBCMT:dllcrt0.obj
 0001:0001104c       ___DllXcptFilter           1001204c f   LIBCMT:dllcrt0.obj
 0001:00011071       ?_query_new_handler@@YAP6AHI@ZXZ 10012071 f   LIBCMT:handler.obj
 0001:0001107e       ?_set_new_handler@@YAP6AHI@ZH@Z 1001207e f   LIBCMT:handler.obj
 0001:00011087       ?_set_new_handler@@YAP6AHI@ZP6AHI@Z@Z 10012087 f   LIBCMT:handler.obj
 0001:000110bc       __callnewh                 100120bc f   LIBCMT:handler.obj
 0001:000110e2       __initp_heap_handler       100120e2 f   LIBCMT:handler.obj
 0001:000110ef       __FF_MSGBANNER             100120ef f   LIBCMT:crt0msg.obj
 0001:00011128       __GET_RTERRMSG             10012128 f   LIBCMT:crt0msg.obj
 0001:0001114c       __NMSG_WRITE               1001214c f   LIBCMT:crt0msg.obj
 0001:00011307       ___doserrno                10012307 f   LIBCMT:dosmap.obj
 0001:0001131a       __dosmaperr                1001231a f   LIBCMT:dosmap.obj
 0001:0001133b       __errno                    1001233b f   LIBCMT:dosmap.obj
 0001:0001134e       __get_doserrno             1001234e f   LIBCMT:dosmap.obj
 0001:00011371       __get_errno                10012371 f   LIBCMT:dosmap.obj
 0001:00011394       __get_errno_from_oserr     10012394 f   LIBCMT:dosmap.obj
 0001:000113d5       __set_doserrno             100123d5 f   LIBCMT:dosmap.obj
 0001:000113f4       __set_errno                100123f4 f   LIBCMT:dosmap.obj
 0001:00011413       __get_heap_handle          10012413 f   LIBCMT:heapinit.obj
 0001:00011419       __heap_init                10012419 f   LIBCMT:heapinit.obj
 0001:0001142e       __heap_term                1001242e f   LIBCMT:heapinit.obj
 0001:00011436       __VEC_memset               10012436 f   LIBCMT:p4_memset.obj
 0001:000114fe       ??0_LocaleUpdate@@QAE@PAUlocaleinfo_struct@@@Z 100124fe f i LIBCMT:cvt.obj
 0001:00011586       ??1_LocaleUpdate@@QAE@XZ   10012586 f i LIBCMT:cvt.obj
 0001:00011594       ?GetLocaleT@_LocaleUpdate@@QAEPAUlocaleinfo_struct@@XZ 10012594 f i LIBCMT:cvt.obj
 0001:00011597       ?strrchr@@YAPADPADH@Z      10012597 f i LIBCMT:cvt.obj
 0001:000115a0       __cfltcvt                  100125a0 f   LIBCMT:cvt.obj
 0001:000115c1       __cfltcvt_l                100125c1 f   LIBCMT:cvt.obj
 0001:00011647       __cftoa                    10012647 f   LIBCMT:cvt.obj
 0001:00011665       __cftoa_l                  10012665 f   LIBCMT:cvt.obj
 0001:000119bf       __cftoe                    100129bf f   LIBCMT:cvt.obj
 0001:00011b2c       __cftoe_l                  10012b2c f   LIBCMT:cvt.obj
 0001:00011bf8       __cftof                    10012bf8 f   LIBCMT:cvt.obj
 0001:00011cfd       __cftof_l                  10012cfd f   LIBCMT:cvt.obj
 0001:00011dbc       __cftog                    10012dbc f   LIBCMT:cvt.obj
 0001:00011dda       __cftog_l                  10012dda f   LIBCMT:cvt.obj
 0001:00011ed7       __cropzeros                10012ed7 f   LIBCMT:cvt.obj
 0001:00011ee8       __cropzeros_l              10012ee8 f   LIBCMT:cvt.obj
 0001:00011f66       __fassign                  10012f66 f   LIBCMT:cvt.obj
 0001:00011f7e       __fassign_l                10012f7e f   LIBCMT:cvt.obj
 0001:00011fbe       __forcdecpt                10012fbe f   LIBCMT:cvt.obj
 0001:00011fcf       __forcdecpt_l              10012fcf f   LIBCMT:cvt.obj
 0001:00012041       __positive                 10013041 f   LIBCMT:cvt.obj
 0001:00012083       __setdefaultprecision      10013083 f   LIBCMT:fp8.obj
 0001:000120aa       __initp_misc_cfltcvt_tab   100130aa f   LIBCMT:cmiscdat.obj
 0001:000120c9       __crt_debugger_hook        100130c9 f   LIBCMT:dbghook.obj
 0001:0001210a       ___crtFlsAlloc             1001310a f   LIBCMT:winapisupp.obj
 0001:00012118       ___crtFlsFree              10013118 f   LIBCMT:winapisupp.obj
 0001:00012126       ___crtFlsGetValue          10013126 f   LIBCMT:winapisupp.obj
 0001:00012134       ___crtFlsSetValue          10013134 f   LIBCMT:winapisupp.obj
 0001:00012145       ___crtGetShowWindowMode    10013145 f   LIBCMT:winapisupp.obj
 0001:00012166       ___crtIsPackagedApp        10013166 f   LIBCMT:winapisupp.obj
 0001:000121b2       ___crtSetUnhandledExceptionFilter 100131b2 f   LIBCMT:winapisupp.obj
 0001:000121c0       ___crtTerminateProcess     100131c0 f   LIBCMT:winapisupp.obj
 0001:000121d5       ___crtUnhandledException   100131d5 f   LIBCMT:winapisupp.obj
 0001:000121eb       ?_invalid_parameter@@YAXPBG00II@Z 100131eb f   LIBCMT:invarg.obj
 0001:000121f0       ?_invoke_watson@@YAXPBG00II@Z 100131f0 f   LIBCMT:invarg.obj
 0001:00012208       __call_reportfault         10013208 f   LIBCMT:invarg.obj
 0001:0001232b       __get_invalid_parameter_handler 1001332b f   LIBCMT:invarg.obj
 0001:00012338       __initp_misc_invarg        10013338 f   LIBCMT:invarg.obj
 0001:00012345       __invalid_parameter        10013345 f   LIBCMT:invarg.obj
 0001:00012370       __invalid_parameter_noinfo 10013370 f   LIBCMT:invarg.obj
 0001:00012380       __invalid_parameter_noinfo_noreturn 10013380 f   LIBCMT:invarg.obj
 0001:0001239b       __invoke_watson            1001339b f   LIBCMT:invarg.obj
 0001:000123c6       __set_invalid_parameter_handler 100133c6 f   LIBCMT:invarg.obj
 0001:000123eb       __RTC_Initialize           100133eb f   LIBCMT:initsect.obj
 0001:0001240b       __RTC_Terminate            1001340b f   LIBCMT:initsect.obj
 0001:0001242b       __lock                     1001342b f   LIBCMT:mlock.obj
 0001:0001245f       __lockerr_exit             1001345f f   LIBCMT:mlock.obj
 0001:0001247f       __mtdeletelocks            1001347f f   LIBCMT:mlock.obj
 0001:000124d3       __mtinitlocknum            100134d3 f   LIBCMT:mlock.obj
 0001:0001257a       __mtinitlocks              1001357a f   LIBCMT:mlock.obj
 0001:000125af       __unlock                   100135af f   LIBCMT:mlock.obj
 0001:000125d0       __FindPESection            100135d0 f   LIBCMT:pesect.obj
 0001:00012620       __IsNonwritableInCurrentImage 10013620 f   LIBCMT:pesect.obj
 0001:000126e0       __ValidateImageBase        100136e0 f   LIBCMT:pesect.obj
 0001:00012711       ___onexitinit              10013711 f   LIBCMT:onexit.obj
 0001:00012740       __onexit                   10013740 f   LIBCMT:onexit.obj
 0001:00012836       _atexit                    10013836 f   LIBCMT:onexit.obj
 0001:0001284b       __calloc_crt               1001384b f   LIBCMT:crtheap.obj
 0001:00012895       __malloc_crt               10013895 f   LIBCMT:crtheap.obj
 0001:000128de       __realloc_crt              100138de f   LIBCMT:crtheap.obj
 0001:0001292a       __recalloc_crt             1001392a f   LIBCMT:crtheap.obj
 0001:0001297a       __set_malloc_crt_max_wait  1001397a f   LIBCMT:crtheap.obj
 0001:0001298d       _wait_a_bit                1001398d f i LIBCMT:crtheap.obj
 0001:000129b1       ?_inconsistency@@YAXXZ     100139b1 f   LIBCMT:hooks.obj
 0001:000129e9       ?terminate@@YAXXZ          100139e9 f   LIBCMT:hooks.obj
 0001:00012a1d       ?unexpected@@YAXXZ         10013a1d f   LIBCMT:hooks.obj
 0001:00012a30       __initp_eh_hooks           10013a30 f   LIBCMT:hooks.obj
 0001:00012a41       ___getlocaleinfo           10013a41 f   LIBCMT:inithelp.obj
 0001:00012c18       __initp_misc_purevirt      10013c18 f   LIBCMT:inithelp.obj
 0001:00012c25       __initp_misc_rand_s        10013c25 f   LIBCMT:rand_s.obj
 0001:00012c32       _rand_s                    10013c32 f   LIBCMT:rand_s.obj
 0001:00012d40       ___fpecode                 10013d40 f   LIBCMT:winsig.obj
 0001:00012d49       ___get_sigabrt             10013d49 f   LIBCMT:winsig.obj
 0001:00012d56       ___pxcptinfoptrs           10013d56 f   LIBCMT:winsig.obj
 0001:00012d5f       __initp_misc_winsig        10013d5f f   LIBCMT:winsig.obj
 0001:00012e14       _raise                     10013e14 f   LIBCMT:winsig.obj
 0001:00013005       _signal                    10014005 f   LIBCMT:winsig.obj
 0001:00013260       __SEH_prolog4              10014260 f   LIBCMT:sehprolg4.obj
 0001:000132a5       __SEH_epilog4              100142a5 f   LIBCMT:sehprolg4.obj
 0001:00013300       __except_handler4          10014300 f   LIBCMT:chandler4.obj
 0001:00013495       ___initmbctable            10014495 f   LIBCMT:mbctype.obj
 0001:00013750       ___updatetmbcinfo          10014750 f   LIBCMT:mbctype.obj
 0001:000137f5       __getmbcp                  100147f5 f   LIBCMT:mbctype.obj
 0001:00013824       __setmbcp                  10014824 f   LIBCMT:mbctype.obj
 0001:000139d2       __setmbcp_nolock           100149d2 f   LIBCMT:mbctype.obj
 0001:00013bc7       __ftbuf                    10014bc7 f   LIBCMT:_sftbuf.obj
 0001:00013bf8       __stbuf                    10014bf8 f   LIBCMT:_sftbuf.obj
 0001:00013c9e       __calloc_impl              10014c9e f   LIBCMT:calloc_impl.obj
 0001:00013d18       __fcloseall                10014d18 f   LIBCMT:closeall.obj
 0001:00013db5       __fflush_nolock            10014db5 f   LIBCMT:fflush.obj
 0001:00013dfb       __flush                    10014dfb f   LIBCMT:fflush.obj
 0001:00013e5f       __flushall                 10014e5f f   LIBCMT:fflush.obj
 0001:00013e68       _fflush                    10014e68 f   LIBCMT:fflush.obj
 0001:00013fa1       __fileno                   10014fa1 f   LIBCMT:fileno.obj
 0001:00013fc5       __close                    10014fc5 f   LIBCMT:close.obj
 0001:0001409c       __close_nolock             1001509c f   LIBCMT:close.obj
 0001:00014144       __freebuf                  10015144 f   LIBCMT:_freebuf.obj
 0001:00014174       __getstream                10015174 f   LIBCMT:stream.obj
 0001:0001428c       __openfile                 1001528c f   LIBCMT:_open.obj
 0001:00014510       __local_unwind4            10015510 f   LIBCMT:exsup4.obj
 0001:000145e6       __seh_longjmp_unwind4@4    100155e6 f   LIBCMT:exsup4.obj
 0001:00014602       @_EH4_CallFilterFunc@8     10015602 f   LIBCMT:exsup4.obj
 0001:00014619       @_EH4_TransferToHandler@8  10015619 f   LIBCMT:exsup4.obj
 0001:00014632       @_EH4_GlobalUnwind2@8      10015632 f   LIBCMT:exsup4.obj
 0001:0001464b       @_EH4_LocalUnwind@16       1001564b f   LIBCMT:exsup4.obj
 0001:00014662       __vfprintf_l               10015662 f   LIBCMT:vfprintf.obj
 0001:00014680       __vfprintf_p               10015680 f   LIBCMT:vfprintf.obj
 0001:0001469d       __vfprintf_p_l             1001569d f   LIBCMT:vfprintf.obj
 0001:000146bb       __vfprintf_s_l             100156bb f   LIBCMT:vfprintf.obj
 0001:000146d9       _vfprintf                  100156d9 f   LIBCMT:vfprintf.obj
 0001:000146f6       _vfprintf_helper           100156f6 f   LIBCMT:vfprintf.obj
 0001:00014810       _vfprintf_s                10015810 f   LIBCMT:vfprintf.obj
 0001:0001482d       __output_l                 1001582d f   LIBCMT:output.obj
 0001:000153d1       _get_int64_arg             100163d1 f i LIBCMT:output.obj
 0001:000153e4       _get_int_arg               100163e4 f i LIBCMT:output.obj
 0001:000153f4       _get_short_arg             100163f4 f i LIBCMT:output.obj
 0001:000154ef       __ioinit                   100164ef f   LIBCMT:ioinit.obj
 0001:0001550b       __ioinit0                  1001650b f   LIBCMT:ioinit.obj
 0001:0001552a       __ioinitCallback@12        1001652a f   LIBCMT:ioinit.obj
 0001:000157f7       __ioterm                   100167f7 f   LIBCMT:ioinit.obj
 0001:00015849       __filbuf                   10016849 f   LIBCMT:_filbuf.obj
 0001:00015977       _memcpy_s                  10016977 f   LIBCMT:memcpy_s.obj
 0001:000159f6       __read                     100169f6 f   LIBCMT:read.obj
 0001:00015b0b       __read_nolock              10016b0b f   LIBCMT:read.obj
 0001:000162a5       __flsbuf                   100172a5 f   LIBCMT:_flsbuf.obj
 0001:00016401       __write                    10017401 f   LIBCMT:write.obj
 0001:000164f0       __write_nolock             100174f0 f   LIBCMT:write.obj
 0001:00016d6c       __vprintf_l                10017d6c f   LIBCMT:vprintf.obj
 0001:00016d87       __vprintf_p                10017d87 f   LIBCMT:vprintf.obj
 0001:00016da1       __vprintf_p_l              10017da1 f   LIBCMT:vprintf.obj
 0001:00016dbc       __vprintf_s_l              10017dbc f   LIBCMT:vprintf.obj
 0001:00016dd7       _vprintf                   10017dd7 f   LIBCMT:vprintf.obj
 0001:00016df1       _vprintf_helper            10017df1 f   LIBCMT:vprintf.obj
 0001:00016e7a       _vprintf_s                 10017e7a f   LIBCMT:vprintf.obj
 0001:00016e94       __wremove                  10017e94 f   LIBCMT:wunlink.obj
 0001:00016ec2       __wunlink                  10017ec2 f   LIBCMT:wunlink.obj
 0001:00016ecb       __lseek                    10017ecb f   LIBCMT:lseek.obj
 0001:00016fba       __lseek_nolock             10017fba f   LIBCMT:lseek.obj
 0001:0001702c       __vscprintf                1001802c f   LIBCMT:vsprintf.obj
 0001:00017046       __vscprintf_helper         10018046 f   LIBCMT:vsprintf.obj
 0001:000170a0       __vscprintf_l              100180a0 f   LIBCMT:vsprintf.obj
 0001:000170bb       __vscprintf_p              100180bb f   LIBCMT:vsprintf.obj
 0001:000170d5       __vscprintf_p_l            100180d5 f   LIBCMT:vsprintf.obj
 0001:000170f0       __vsprintf_l               100180f0 f   LIBCMT:vsprintf.obj
 0001:00017172       _vsprintf                  10018172 f   LIBCMT:vsprintf.obj
 0001:0001718a       __vsnprintf_c              1001818a f   LIBCMT:vsnprnc.obj
 0001:000171b1       __vsnprintf_c_l            100181b1 f   LIBCMT:vsnprnc.obj
 0001:000171d9       __vsnprintf_helper         100181d9 f   LIBCMT:vsnprnc.obj
 0001:000172a1       __vsnprintf_s              100182a1 f   LIBCMT:vsnprnc.obj
 0001:000172bf       __vsnprintf_s_l            100182bf f   LIBCMT:vsnprnc.obj
 0001:000173ba       __vsprintf_p               100183ba f   LIBCMT:vsnprnc.obj
 0001:000173e1       __vsprintf_p_l             100183e1 f   LIBCMT:vsnprnc.obj
 0001:00017409       __vsprintf_s_l             10018409 f   LIBCMT:vsnprnc.obj
 0001:0001747e       _vsprintf_s                1001847e f   LIBCMT:vsnprnc.obj
 0001:00017499       __chgsign                  10018499 f   LIBCMT:ieeemisc.obj
 0001:000174c4       __copysign                 100184c4 f   LIBCMT:ieeemisc.obj
 0001:000174ea       __finite                   100184ea f   LIBCMT:ieeemisc.obj
 0001:00017502       __fpclass                  10018502 f   LIBCMT:ieeemisc.obj
 0001:0001759e       __isnan                    1001859e f   LIBCMT:ieeemisc.obj
 0001:000175d2       __logb                     100185d2 f   LIBCMT:ieeemisc.obj
 0001:000176af       __nextafter                100186af f   LIBCMT:ieeemisc.obj
 0001:0001794d       __scalb                    1001894d f   LIBCMT:ieeemisc.obj
 0001:00017965       __add_exp                  10018965 f   LIBCMT:util.obj
 0001:00017992       __decomp                   10018992 f   LIBCMT:util.obj
 0001:00017a64       __get_exp                  10018a64 f   LIBCMT:util.obj
 0001:00017a7b       __set_bexp                 10018a7b f   LIBCMT:util.obj
 0001:00017aa0       __set_exp                  10018aa0 f   LIBCMT:util.obj
 0001:00017acb       __sptype                   10018acb f   LIBCMT:util.obj
 0001:00017b27       __errcode                  10018b27 f   LIBCMT:fpexcept.obj
 0001:00017b59       __except1                  10018b59 f   LIBCMT:fpexcept.obj
 0001:00017c21       __except2                  10018c21 f   LIBCMT:fpexcept.obj
 0001:00017d21       __handle_exc               10018d21 f   LIBCMT:fpexcept.obj
 0001:00017efd       __handle_qnan1             10018efd f   LIBCMT:fpexcept.obj
 0001:00017f4d       __handle_qnan2             10018f4d f   LIBCMT:fpexcept.obj
 0001:00017fad       __raise_exc                10018fad f   LIBCMT:fpexcept.obj
 0001:00017fce       __raise_exc_ex             10018fce f   LIBCMT:fpexcept.obj
 0001:000182b3       __raise_excf               100192b3 f   LIBCMT:fpexcept.obj
 0001:000182d4       __set_errno_from_matherr   100192d4 f   LIBCMT:fpexcept.obj
 0001:00018301       __umatherr                 10019301 f   LIBCMT:fpexcept.obj
 0001:0001839f       ___clrfp_sse2              1001939f f   LIBCMT:fpctrl.obj
 0001:000183c0       ___ctrlfp_sse2             100193c0 f   LIBCMT:fpctrl.obj
 0001:000183f9       ___fclrf_sse2              100193f9 f   LIBCMT:fpctrl.obj
 0001:00018414       ___get_fpsr_sse2           10019414 f   LIBCMT:fpctrl.obj
 0001:0001842e       ___set_fpsr_sse2           1001942e f   LIBCMT:fpctrl.obj
 0001:000184a4       ___set_statfp_sse2         100194a4 f   LIBCMT:fpctrl.obj
 0001:000184bd       ___statfp_sse2             100194bd f   LIBCMT:fpctrl.obj
 0001:000184d2       __clrfp                    100194d2 f   LIBCMT:fpctrl.obj
 0001:000184e1       __ctrlfp                   100194e1 f   LIBCMT:fpctrl.obj
 0001:0001850a       __set_statfp               1001950a f   LIBCMT:fpctrl.obj
 0001:00018560       __statfp                   10019560 f   LIBCMT:fpctrl.obj
 0001:0001856e       _wcscat_s                  1001956e f   LIBCMT:wcscat_s.obj
 0001:000185da       _wcscpy_s                  100195da f   LIBCMT:wcscpy_s.obj
 0001:00018636       _wcslen                    10019636 f   LIBCMT:wcslen.obj
 0001:0001864f       _wcsncat_s                 1001964f f   LIBCMT:wcsncat_s.obj
 0001:0001871d       __set_abort_behavior       1001971d f   LIBCMT:abort.obj
 0001:0001873c       _abort                     1001973c f   LIBCMT:abort.obj
 0001:0001877f       ___set_app_type            1001977f f   LIBCMT:errmode.obj
 0001:0001878c       __set_error_mode           1001978c f   LIBCMT:errmode.obj
 0001:000188e6       __i64tow_s                 100198e6 f   LIBCMT:xtows.obj
 0001:00018917       __itow_s                   10019917 f   LIBCMT:xtows.obj
 0001:00018940       __ltow_s                   10019940 f   LIBCMT:xtows.obj
 0001:0001896a       __ui64tow_s                1001996a f   LIBCMT:xtows.obj
 0001:00018985       __ultow_s                  10019985 f   LIBCMT:xtows.obj
 0001:00018a90       _setvbuf                   10019a90 f   LIBCMT:setvbuf.obj
 0001:00018b96       __fwprintf_l               10019b96 f   LIBCMT:fwprintf.obj
 0001:00018bb0       __fwprintf_p               10019bb0 f   LIBCMT:fwprintf.obj
 0001:00018bc9       __fwprintf_p_l             10019bc9 f   LIBCMT:fwprintf.obj
 0001:00018be3       __fwprintf_s_l             10019be3 f   LIBCMT:fwprintf.obj
 0001:00018bfd       _fwprintf                  10019bfd f   LIBCMT:fwprintf.obj
 0001:00018c8e       _fwprintf_s                10019c8e f   LIBCMT:fwprintf.obj
 0001:00018ca7       __vsnwprintf_s             10019ca7 f   LIBCMT:vswprnc.obj
 0001:00018cc5       __vsnwprintf_s_l           10019cc5 f   LIBCMT:vswprnc.obj
 0001:00018dc4       __vswprintf_c              10019dc4 f   LIBCMT:vswprnc.obj
 0001:00018deb       __vswprintf_c_l            10019deb f   LIBCMT:vswprnc.obj
 0001:00018e13       __vswprintf_helper         10019e13 f   LIBCMT:vswprnc.obj
 0001:00018f0c       __vswprintf_p              10019f0c f   LIBCMT:vswprnc.obj
 0001:00018f33       __vswprintf_p_l            10019f33 f   LIBCMT:vswprnc.obj
 0001:00018f5b       __vswprintf_s_l            10019f5b f   LIBCMT:vswprnc.obj
 0001:00018fd2       _vswprintf_s               10019fd2 f   LIBCMT:vswprnc.obj
 0001:00018fed       ___crtMessageBoxW          10019fed f   LIBCMT:crtmboxw.obj
 0001:000191cf       ___crtMessageBoxWaitThreadW@4 1001a1cf f   LIBCMT:crtmboxw.obj
 0001:000191ed       __XcptFilter               1001a1ed f   LIBCMT:winxfltr.obj
 0001:00019348       ___CppXcptFilter           1001a348 f   LIBCMT:winxfltr.obj
 0001:0001939a       ___get_flsindex            1001a39a f   LIBCMT:tidtable.obj
 0001:000193a0       ___threadhandle            1001a3a0 f   LIBCMT:tidtable.obj
 0001:000193a6       ___threadid                1001a3a6 f   LIBCMT:tidtable.obj
 0001:000193ac       __freefls@4                1001a3ac f   LIBCMT:tidtable.obj
 0001:000194e3       __freeptd                  1001a4e3 f   LIBCMT:tidtable.obj
 0001:00019519       __getptd                   1001a519 f   LIBCMT:tidtable.obj
 0001:00019531       __getptd_noexit            1001a531 f   LIBCMT:tidtable.obj
 0001:000195a0       __initptd                  1001a5a0 f   LIBCMT:tidtable.obj
 0001:0001964c       __mtinit                   1001a64c f   LIBCMT:tidtable.obj
 0001:000196c2       __mtterm                   1001a6c2 f   LIBCMT:tidtable.obj
 0001:000196df       __set_pgmptr               1001a6df f i LIBCMT:stdargv.obj
 0001:000196ec       __setargv                  1001a6ec f   LIBCMT:stdargv.obj
 0001:00019919       __setenvp                  1001a919 f   LIBCMT:stdenvp.obj
 0001:000199fa       ___security_init_cookie    1001a9fa f   LIBCMT:gs_support.obj
 0001:00019a94       ___crtGetEnvironmentStringsA 1001aa94 f   LIBCMT:a_env.obj
 0001:00019b20       _strlen                    1001ab20 f   LIBCMT:strlen.obj
 0001:00019bab       _wcsncpy_s                 1001abab f   LIBCMT:wcsncpy_s.obj
 0001:00019c69       ___addlocaleref            1001ac69 f   LIBCMT:localref.obj
 0001:00019cf9       ___freetlocinfo            1001acf9 f   LIBCMT:localref.obj
 0001:00019e53       ___removelocaleref         1001ae53 f   LIBCMT:localref.obj
 0001:00019eee       ___updatetlocinfo          1001aeee f   LIBCMT:localref.obj
 0001:00019f6a       __updatetlocinfoEx_nolock  1001af6a f   LIBCMT:localref.obj
 0001:00019fb5       ___isascii                 1001afb5 f i LIBCMT:_ctype.obj
 0001:00019fc5       ___iscsym                  1001afc5 f i LIBCMT:_ctype.obj
 0001:00019fe5       ___iscsymf                 1001afe5 f i LIBCMT:_ctype.obj
 0001:0001a002       ___toascii                 1001b002 f i LIBCMT:_ctype.obj
 0001:0001a00d       __isalnum_l                1001b00d f i LIBCMT:_ctype.obj
 0001:0001a063       __isalpha_l                1001b063 f i LIBCMT:_ctype.obj
 0001:0001a0b9       __iscntrl_l                1001b0b9 f i LIBCMT:_ctype.obj
 0001:0001a109       __iscsym_l                 1001b109 f i LIBCMT:_ctype.obj
 0001:0001a12a       __iscsymf_l                1001b12a f i LIBCMT:_ctype.obj
 0001:0001a14b       __isdigit_l                1001b14b f i LIBCMT:_ctype.obj
 0001:0001a19b       __isgraph_l                1001b19b f i LIBCMT:_ctype.obj
 0001:0001a1f1       __islower_l                1001b1f1 f i LIBCMT:_ctype.obj
 0001:0001a241       __isprint_l                1001b241 f i LIBCMT:_ctype.obj
 0001:0001a297       __ispunct_l                1001b297 f i LIBCMT:_ctype.obj
 0001:0001a2e7       __isspace_l                1001b2e7 f i LIBCMT:_ctype.obj
 0001:0001a337       __isupper_l                1001b337 f i LIBCMT:_ctype.obj
 0001:0001a387       __isxdigit_l               1001b387 f i LIBCMT:_ctype.obj
 0001:0001a3dd       _isalnum                   1001b3dd f i LIBCMT:_ctype.obj
 0001:0001a40a       _isalpha                   1001b40a f i LIBCMT:_ctype.obj
 0001:0001a437       _iscntrl                   1001b437 f i LIBCMT:_ctype.obj
 0001:0001a462       _isdigit                   1001b462 f i LIBCMT:_ctype.obj
 0001:0001a48d       _isgraph                   1001b48d f i LIBCMT:_ctype.obj
 0001:0001a4ba       _islower                   1001b4ba f i LIBCMT:_ctype.obj
 0001:0001a4e5       _isprint                   1001b4e5 f i LIBCMT:_ctype.obj
 0001:0001a512       _ispunct                   1001b512 f i LIBCMT:_ctype.obj
 0001:0001a53d       _isspace                   1001b53d f i LIBCMT:_ctype.obj
 0001:0001a568       _isupper                   1001b568 f i LIBCMT:_ctype.obj
 0001:0001a593       _isxdigit                  1001b593 f i LIBCMT:_ctype.obj
 0001:0001a5c0       __tolower                  1001b5c0 f   LIBCMT:tolower.obj
 0001:0001a5cb       __tolower_l                1001b5cb f   LIBCMT:tolower.obj
 0001:0001a70c       _tolower                   1001b70c f   LIBCMT:tolower.obj
 0001:0001a738       _strcpy_s                  1001b738 f   LIBCMT:strcpy_s.obj
 0001:0001a790       _strrchr                   1001b790 f   LIBCMT:strrchr.obj
 0001:0001a8c7       __fptostr                  1001b8c7 f   LIBCMT:_fptostr.obj
 0001:0001a977       __atodbl                   1001b977 f   LIBCMT:atodbl.obj
 0001:0001a98c       __atodbl_l                 1001b98c f   LIBCMT:atodbl.obj
 0001:0001aa18       __atoflt                   1001ba18 f   LIBCMT:atodbl.obj
 0001:0001aa2d       __atoflt_l                 1001ba2d f   LIBCMT:atodbl.obj
 0001:0001aab9       __atoldbl                  1001bab9 f   LIBCMT:atodbl.obj
 0001:0001aace       __atoldbl_l                1001bace f   LIBCMT:atodbl.obj
 0001:0001ab5b       ___dtold                   1001bb5b f   LIBCMT:cfout.obj
 0001:0001ac21       __fltout2                  1001bc21 f   LIBCMT:cfout.obj
 0001:0001acb0       __alldvrm                  1001bcb0 f   LIBCMT:lldvrm.obj
 0001:0001ad90       __aullshr                  1001bd90 f   LIBCMT:ullshr.obj
 0001:0001adaf       __get_output_format        1001bdaf f   LIBCMT:outputformat.obj
 0001:0001adb5       __set_output_format        1001bdb5 f   LIBCMT:outputformat.obj
 0001:0001ade7       __controlfp_s              1001bde7 f   LIBCMT:contrlfp.obj
 0001:0001ae44       __fptrap                   1001be44 f   LIBCMT:crt0fp.obj
 0001:0001ae4d       __msize                    1001be4d f   LIBCMT:msize.obj
 0001:0001ae7e       __recalloc                 1001be7e f   LIBCMT:recalloc.obj
 0001:0001aee7       _strncpy_s                 1001bee7 f   LIBCMT:strncpy_s.obj
 0001:0001b063       __MarkAllocaS              1001c063 f i LIBCMT:a_loc.obj
 0001:0001b077       ___crtGetLocaleInfoA       1001c077 f   LIBCMT:a_loc.obj
 0001:0001b0af       __freea                    1001c0af f i LIBCMT:a_loc.obj
 0001:0001b0cd       ___crtCompareStringEx      1001c0cd f   LIBCMT:winapinls.obj
 0001:0001b0ef       ___crtEnumSystemLocalesEx  1001c0ef f   LIBCMT:winapinls.obj
 0001:0001b105       ___crtGetDateFormatEx      1001c105 f   LIBCMT:winapinls.obj
 0001:0001b124       ___crtGetLocaleInfoEx      1001c124 f   LIBCMT:winapinls.obj
 0001:0001b13b       ___crtGetTimeFormatEx      1001c13b f   LIBCMT:winapinls.obj
 0001:0001b158       ___crtGetUserDefaultLocaleName 1001c158 f   LIBCMT:winapinls.obj
 0001:0001b169       ___crtIsValidLocaleName    1001c169 f   LIBCMT:winapinls.obj
 0001:0001b177       ___crtLCMapStringEx        1001c177 f   LIBCMT:winapinls.obj
 0001:0001b3a2       ___crtLCMapStringA         1001c3a2 f   LIBCMT:a_map.obj
 0001:0001b4d2       ___crtGetStringTypeA       1001c4d2 f   LIBCMT:a_str.obj
 0001:0001b510       __isatty                   1001c510 f   LIBCMT:isatty.obj
 0001:0001b574       __commit                   1001c574 f   LIBCMT:commit.obj
 0001:0001b66b       ___lock_fhandle            1001c66b f   LIBCMT:osfinfo.obj
 0001:0001b6f7       __alloc_osfhnd             1001c6f7 f   LIBCMT:osfinfo.obj
 0001:0001b8a6       __free_osfhnd              1001c8a6 f   LIBCMT:osfinfo.obj
 0001:0001b92c       __get_osfhandle            1001c92c f   LIBCMT:osfinfo.obj
 0001:0001b99e       __open_osfhandle           1001c99e f   LIBCMT:osfinfo.obj
 0001:0001bab4       __set_osfhnd               1001cab4 f   LIBCMT:osfinfo.obj
 0001:0001bb36       __unlock_fhandle           1001cb36 f   LIBCMT:osfinfo.obj
 0001:0001bb5c       __open                     1001cb5c f   LIBCMT:open.obj
 0001:0001bc09       __sopen                    1001cc09 f   LIBCMT:open.obj
 0001:0001bc3a       __sopen_helper             1001cc3a f   LIBCMT:open.obj
 0001:0001bd01       __sopen_nolock             1001cd01 f   LIBCMT:open.obj
 0001:0001bd4d       __sopen_s                  1001cd4d f   LIBCMT:open.obj
 0001:0001bd6b       __mbsnbcmp                 1001cd6b f   LIBCMT:mbsnbcmp.obj
 0001:0001bd83       __mbsnbcmp_l               1001cd83 f   LIBCMT:mbsnbcmp.obj
 0001:0001be98       __mbsnbicmp                1001ce98 f   LIBCMT:mbsnbicm.obj
 0001:0001beb0       __mbsnbicmp_l              1001ceb0 f   LIBCMT:mbsnbicm.obj
 0001:0001c070       __global_unwind2           1001d070 f   LIBCMT:exsup.obj
 0001:0001c0d5       __local_unwind2            1001d0d5 f   LIBCMT:exsup.obj
 0001:0001c159       __abnormal_termination     1001d159 f   LIBCMT:exsup.obj
 0001:0001c17c       __NLG_Notify1              1001d17c f   LIBCMT:exsup.obj
 0001:0001c185       __NLG_Notify               1001d185 f   LIBCMT:exsup.obj
 0001:0001c19c       __NLG_Dispatch             1001d19c     LIBCMT:exsup.obj
 0001:0001c19c       __NLG_Dispatch2            1001d19c     LIBCMT:exsup.obj
 0001:0001c1a4       __NLG_Call                 1001d1a4 f   LIBCMT:exsup.obj
 0001:0001c1a6       __NLG_Return2              1001d1a6     LIBCMT:exsup.obj
 0001:0001c1a7       __output_s_l               1001d1a7 f   LIBCMT:outputs.obj
 0001:0001ce4d       __output_p_l               1001de4d f   LIBCMT:outputp.obj
 0001:0001e1c1       __validate_param_reuseA    1001f1c1 f   LIBCMT:outputp.obj
 0001:0001e2f7       _get_crtdouble_arg         1001f2f7 f i LIBCMT:outputp.obj
 0001:0001e3f4       ___iswcsym                 1001f3f4 f i LIBCMT:_wctype.obj
 0001:0001e418       ___iswcsymf                1001f418 f i LIBCMT:_wctype.obj
 0001:0001e43c       __isleadbyte_l             1001f43c f i LIBCMT:_wctype.obj
 0001:0001e472       __iswalnum_l               1001f472 f i LIBCMT:_wctype.obj
 0001:0001e486       __iswalpha_l               1001f486 f i LIBCMT:_wctype.obj
 0001:0001e49a       __iswcntrl_l               1001f49a f i LIBCMT:_wctype.obj
 0001:0001e4ab       __iswcsym_l                1001f4ab f i LIBCMT:_wctype.obj
 0001:0001e4cf       __iswcsymf_l               1001f4cf f i LIBCMT:_wctype.obj
 0001:0001e4f3       __iswdigit_l               1001f4f3 f i LIBCMT:_wctype.obj
 0001:0001e504       __iswgraph_l               1001f504 f i LIBCMT:_wctype.obj
 0001:0001e518       __iswlower_l               1001f518 f i LIBCMT:_wctype.obj
 0001:0001e529       __iswprint_l               1001f529 f i LIBCMT:_wctype.obj
 0001:0001e53d       __iswpunct_l               1001f53d f i LIBCMT:_wctype.obj
 0001:0001e54e       __iswspace_l               1001f54e f i LIBCMT:_wctype.obj
 0001:0001e55f       __iswupper_l               1001f55f f i LIBCMT:_wctype.obj
 0001:0001e570       __iswxdigit_l              1001f570 f i LIBCMT:_wctype.obj
 0001:0001e584       _isleadbyte                1001f584 f i LIBCMT:_wctype.obj
 0001:0001e595       _iswalnum                  1001f595 f i LIBCMT:_wctype.obj
 0001:0001e5a9       _iswalpha                  1001f5a9 f i LIBCMT:_wctype.obj
 0001:0001e5bd       _iswascii                  1001f5bd f i LIBCMT:_wctype.obj
 0001:0001e5cf       _iswcntrl                  1001f5cf f i LIBCMT:_wctype.obj
 0001:0001e5e0       _iswdigit                  1001f5e0 f i LIBCMT:_wctype.obj
 0001:0001e5f1       _iswgraph                  1001f5f1 f i LIBCMT:_wctype.obj
 0001:0001e605       _iswlower                  1001f605 f i LIBCMT:_wctype.obj
 0001:0001e616       _iswprint                  1001f616 f i LIBCMT:_wctype.obj
 0001:0001e62a       _iswpunct                  1001f62a f i LIBCMT:_wctype.obj
 0001:0001e63b       _iswspace                  1001f63b f i LIBCMT:_wctype.obj
 0001:0001e64c       _iswupper                  1001f64c f i LIBCMT:_wctype.obj
 0001:0001e65d       _iswxdigit                 1001f65d f i LIBCMT:_wctype.obj
 0001:0001e671       __wctomb_l                 1001f671 f   LIBCMT:wctomb.obj
 0001:0001e6be       __wctomb_s_l               1001f6be f   LIBCMT:wctomb.obj
 0001:0001e7e0       _wctomb                    1001f7e0 f   LIBCMT:wctomb.obj
 0001:0001e811       _wctomb_s                  1001f811 f   LIBCMT:wctomb.obj
 0001:0001e830       __aulldvrm                 1001f830 f   LIBCMT:ulldvrm.obj
 0001:0001e8c5       __getbuf                   1001f8c5 f   LIBCMT:_getbuf.obj
 0001:0001e90b       __lseeki64                 1001f90b f   LIBCMT:lseeki64.obj
 0001:0001ea14       __lseeki64_nolock          1001fa14 f   LIBCMT:lseeki64.obj
 0001:0001ea85       __mbtowc_l                 1001fa85 f   LIBCMT:mbtowc.obj
 0001:0001eb78       _mbtowc                    1001fb78 f   LIBCMT:mbtowc.obj
 0001:0001eb90       __putwch                   1001fb90 f   LIBCMT:putwch.obj
 0001:0001ebd8       __putwch_nolock            1001fbd8 f   LIBCMT:putwch.obj
 0001:0001ec20       __alloca_probe             1001fc20     LIBCMT:chkstk.obj
 0001:0001ec20       __chkstk                   1001fc20 f   LIBCMT:chkstk.obj
 0001:0001ec4b       __matherr                  1001fc4b f   LIBCMT:matherr.obj
 0001:0001ec4e       __vfwprintf_l              1001fc4e f   LIBCMT:vfwprint.obj
 0001:0001ec6c       __vfwprintf_p              1001fc6c f   LIBCMT:vfwprint.obj
 0001:0001ec89       __vfwprintf_p_l            1001fc89 f   LIBCMT:vfwprint.obj
 0001:0001eca7       __vfwprintf_s_l            1001fca7 f   LIBCMT:vfwprint.obj
 0001:0001ecc5       _vfwprintf                 1001fcc5 f   LIBCMT:vfwprint.obj
 0001:0001ece2       _vfwprintf_helper          1001fce2 f   LIBCMT:vfwprint.obj
 0001:0001ed71       _vfwprintf_s               1001fd71 f   LIBCMT:vfwprint.obj
 0001:0001ed8e       __woutput_l                1001fd8e f   LIBCMT:woutput.obj
 0001:0001fa91       __woutput_s_l              10020a91 f   LIBCMT:woutputs.obj
 0001:000207c8       __validate_param_reuseW    100217c8 f   LIBCMT:woutputp.obj
 0001:0002093e       __woutput_p_l              1002193e f   LIBCMT:woutputp.obj
 0001:00021d73       __ismbbalnum               10022d73 f   LIBCMT:ismbbyte.obj
 0001:00021d8c       __ismbbalnum_l             10022d8c f   LIBCMT:ismbbyte.obj
 0001:00021da6       __ismbbalpha               10022da6 f   LIBCMT:ismbbyte.obj
 0001:00021dbf       __ismbbalpha_l             10022dbf f   LIBCMT:ismbbyte.obj
 0001:00021dd9       __ismbbgraph               10022dd9 f   LIBCMT:ismbbyte.obj
 0001:00021df2       __ismbbgraph_l             10022df2 f   LIBCMT:ismbbyte.obj
 0001:00021e0c       __ismbbkalnum              10022e0c f   LIBCMT:ismbbyte.obj
 0001:00021e22       __ismbbkalnum_l            10022e22 f   LIBCMT:ismbbyte.obj
 0001:00021e39       __ismbbkana                10022e39 f   LIBCMT:ismbbyte.obj
 0001:00021e4a       __ismbbkana_l              10022e4a f   LIBCMT:ismbbyte.obj
 0001:00021e94       __ismbbkprint              10022e94 f   LIBCMT:ismbbyte.obj
 0001:00021eaa       __ismbbkprint_l            10022eaa f   LIBCMT:ismbbyte.obj
 0001:00021ec1       __ismbbkpunct              10022ec1 f   LIBCMT:ismbbyte.obj
 0001:00021ed7       __ismbbkpunct_l            10022ed7 f   LIBCMT:ismbbyte.obj
 0001:00021eee       __ismbblead                10022eee f   LIBCMT:ismbbyte.obj
 0001:00021f04       __ismbblead_l              10022f04 f   LIBCMT:ismbbyte.obj
 0001:00021f1b       __ismbbprint               10022f1b f   LIBCMT:ismbbyte.obj
 0001:00021f34       __ismbbprint_l             10022f34 f   LIBCMT:ismbbyte.obj
 0001:00021f4e       __ismbbpunct               10022f4e f   LIBCMT:ismbbyte.obj
 0001:00021f64       __ismbbpunct_l             10022f64 f   LIBCMT:ismbbyte.obj
 0001:00021f7b       __ismbbtrail               10022f7b f   LIBCMT:ismbbyte.obj
 0001:00021f91       __ismbbtrail_l             10022f91 f   LIBCMT:ismbbyte.obj
 0001:00021fa8       ___free_lconv_mon          10022fa8 f   LIBCMT:initmon.obj
 0001:000220a4       ___init_monetary           100230a4 f   LIBCMT:initmon.obj
 0001:0002247e       ___free_lconv_num          1002347e f   LIBCMT:initnum.obj
 0001:000224e5       ___init_numeric            100234e5 f   LIBCMT:initnum.obj
 0001:00022725       ___free_lc_time            10023725 f   LIBCMT:inittime.obj
 0001:00022aa5       ___init_time               10023aa5 f   LIBCMT:inittime.obj
 0001:00023312       _localeconv                10024312 f   LIBCMT:lconv.obj
 0001:00023338       __isctype                  10024338 f   LIBCMT:isctype.obj
 0001:00023367       __isctype_l                10024367 f   LIBCMT:isctype.obj
 0001:00023416       __locterm                  10024416 f   LIBCMT:wsetloca.obj
 0001:00023468       ___init_dummy              10024468 f   LIBCMT:wsetloca.obj
 0001:0002346b       ____setlc_active_func      1002446b f   LIBCMT:wsetloca.obj
 0001:00023471       ____unguarded_readlc_active_add_func 10024471 f   LIBCMT:wsetloca.obj
 0001:00023477       ___copy_locale_name        10024477 f   LIBCMT:wsetloca.obj
 0001:000234db       ___create_locale           100244db f   LIBCMT:wsetloca.obj
 0001:000234e4       ___free_locale             100244e4 f   LIBCMT:wsetloca.obj
 0001:000234e9       ___get_current_locale      100244e9 f   LIBCMT:wsetloca.obj
 0001:000234ee       ___lc_lctowcs              100244ee f   LIBCMT:wsetloca.obj
 0001:0002355c       ___lc_wcstolc              1002455c f   LIBCMT:wsetloca.obj
 0001:00023686       __configthreadlocale       10024686 f   LIBCMT:wsetloca.obj
 0001:0002370c       __create_locale            1002470c f   LIBCMT:wsetloca.obj
 0001:0002376c       __expandlocale             1002476c f   LIBCMT:wsetloca.obj
 0001:00023a4f       __free_locale              10024a4f f   LIBCMT:wsetloca.obj
 0001:00023b09       __get_current_locale       10024b09 f   LIBCMT:wsetloca.obj
 0001:00023bb8       __wcreate_locale           10024bb8 f   LIBCMT:wsetloca.obj
 0001:00023ca8       __wcscats                  10024ca8 f   LIBCMT:wsetloca.obj
 0001:00023ce7       __wsetlocale               10024ce7 f   LIBCMT:wsetloca.obj
 0001:0002461c       __CopyMan                  1002561c f i LIBCMT:intrncvt.obj
 0001:00024639       __FillZeroMan              10025639 f i LIBCMT:intrncvt.obj
 0001:00024648       __IncMan                   10025648 f i LIBCMT:intrncvt.obj
 0001:000246aa       __IsZeroMan                100256aa f i LIBCMT:intrncvt.obj
 0001:000246c7       __RoundMan                 100256c7 f i LIBCMT:intrncvt.obj
 0001:000247c6       __ShrMan                   100257c6 f i LIBCMT:intrncvt.obj
 0001:00024852       __ZeroTail                 10025852 f i LIBCMT:intrncvt.obj
 0001:0002489a       ___addl                    1002589a f i LIBCMT:intrncvt.obj
 0001:000248be       __ld12cvt                  100258be f i LIBCMT:intrncvt.obj
 0001:00024e27       __ld12tod                  10025e27 f   LIBCMT:intrncvt.obj
 0001:00025397       __ld12tof                  10026397 f   LIBCMT:intrncvt.obj
 0001:00025907       __ld12told                 10026907 f   LIBCMT:intrncvt.obj
 0001:000259d4       ___STRINGTOLD_L            100269d4 f   LIBCMT:strgtold.obj
 0001:00025a2d       ___ld12mul                 10026a2d f i LIBCMT:strgtold.obj
 0001:00025cf6       ___multtenpow12            10026cf6 f i LIBCMT:strgtold.obj
 0001:00026054       ___shl_12                  10027054 f i LIBCMT:strgtold.obj
 0001:00026085       ___shr_12                  10027085 f i LIBCMT:strgtold.obj
 0001:000260b5       ___strgtold12_l            100270b5 f   LIBCMT:strgtold.obj
 0001:00026831       _$I10_OUTPUT               10027831 f   LIBCMT:x10fout.obj
 0001:000271f5       ___add_12                  100281f5 f i LIBCMT:x10fout.obj
 0001:00027267       ___pctype_func             10028267 f   LIBCMT:ctype.obj
 0001:00027290       ___pwctype_func            10028290 f   LIBCMT:ctype.obj
 0001:000273ce       ___control87_2             100283ce f   LIBCMT:ieee87.obj
 0001:00027a3e       __clearfp                  10028a3e f   LIBCMT:ieee87.obj
 0001:00027b1c       __control87                10028b1c f i LIBCMT:ieee87.obj
 0001:00027e1c       __controlfp                10028e1c f   LIBCMT:ieee87.obj
 0001:00028125       __fpreset                  10029125 f   LIBCMT:ieee87.obj
 0001:000281f2       __set_controlfp            100291f2 f   LIBCMT:ieee87.obj
 0001:00028263       __statusfp                 10029263 f   LIBCMT:ieee87.obj
 0001:000282fb       __statusfp2                100292fb f   LIBCMT:ieee87.obj
 0001:00028360       __alloca_probe_16          10029360 f   LIBCMT:alloca16.obj
 0001:00028376       __alloca_probe_8           10029376     LIBCMT:alloca16.obj
 0001:0002841d       __wopen                    1002941d f   LIBCMT:wopen.obj
 0001:000284ca       __wsopen                   100294ca f   LIBCMT:wopen.obj
 0001:000284fb       __wsopen_helper            100294fb f   LIBCMT:wopen.obj
 0001:000285c2       __wsopen_nolock            100295c2 f   LIBCMT:wopen.obj
 0001:00028d3b       __wsopen_s                 10029d3b f   LIBCMT:wopen.obj
 0001:00028d60       _strncmp                   10029d60 f   LIBCMT:strncmp.obj
 0001:00028dd8       __strnicmp                 10029dd8 f   LIBCMT:strnicmp.obj
 0001:00028e43       __strnicmp_l               10029e43 f   LIBCMT:strnicmp.obj
 0001:00029116       __strtol_l                 1002a116 f   LIBCMT:strtol.obj
 0001:00029131       __strtoul_l                1002a131 f   LIBCMT:strtol.obj
 0001:0002914c       _strtol                    1002a14c f   LIBCMT:strtol.obj
 0001:00029176       _strtoul                   1002a176 f   LIBCMT:strtol.obj
 0001:000291a0       __iswctype_l               1002a1a0 f   LIBCMT:iswctype.obj
 0001:000291b2       _is_wctype                 1002a1b2 f   LIBCMT:iswctype.obj
 0001:000291bb       _iswctype                  1002a1bb f   LIBCMT:iswctype.obj
 0001:0002920d       ____lc_codepage_func       1002a20d f   LIBCMT:initctyp.obj
 0001:00029233       ____lc_collate_cp_func     1002a233 f   LIBCMT:initctyp.obj
 0001:00029259       ____lc_locale_name_func    1002a259 f   LIBCMT:initctyp.obj
 0001:00029281       ____mb_cur_max_func        1002a281 f   LIBCMT:initctyp.obj
 0001:000292a7       ____mb_cur_max_l_func      1002a2a7 f   LIBCMT:initctyp.obj
 0001:000292be       ___init_ctype              1002a2be f   LIBCMT:initctyp.obj
 0001:00029656       ___termconout              1002a656 f   LIBCMT:initcon.obj
 0001:0002966d       ___initconout              1002a66d f   LIBCMT:initcon.obj
 0001:0002968c       __fputwc_nolock            1002a68c f   LIBCMT:fputwc.obj
 0001:00029811       _fputwc                    1002a811 f   LIBCMT:fputwc.obj
 0001:00029892       _putwc                     1002a892 f   LIBCMT:fputwc.obj
 0001:00029a77       __wcstol_l                 1002aa77 f   LIBCMT:wcstol.obj
 0001:00029a8f       __wcstoul_l                1002aa8f f   LIBCMT:wcstol.obj
 0001:00029aa7       _wcstol                    1002aaa7 f   LIBCMT:wcstol.obj
 0001:00029abf       _wcstoul                   1002aabf f   LIBCMT:wcstol.obj
 0001:00029ad7       ___init_collate            1002aad7 f   LIBCMT:initcoll.obj
 0001:00029bf7       _memcmp                    1002abf7 f   LIBCMT:memcmp.obj
 0001:0002cb0b       _wcscmp                    1002db0b f   LIBCMT:wcscmp.obj
 0001:0002cb49       _wcscspn                   1002db49 f   LIBCMT:wcscspn.obj
 0001:0002cb98       _wcsnlen                   1002db98 f   LIBCMT:wcslen_s.obj
 0001:0002cbb7       _wcsncmp                   1002dbb7 f   LIBCMT:wcsncmp.obj
 0001:0002cbed       _wcspbrk                   1002dbed f   LIBCMT:wcspbrk.obj
 0001:0002d1e9       ___get_qualified_locale    1002e1e9 f   LIBCMT:getqloc.obj
 0001:0002d3ab       ___mtold12                 1002e3ab f   LIBCMT:mantold.obj
 0001:0002d58d       __chsize                   1002e58d f   LIBCMT:chsize.obj
 0001:0002d5a7       __chsize_nolock            1002e5a7 f   LIBCMT:chsize.obj
 0001:0002d75b       __chsize_s                 1002e75b f   LIBCMT:chsize.obj
 0001:0002d84f       __get_fmode                1002e84f f   LIBCMT:setmode.obj
 0001:0002d879       __set_fmode                1002e879 f   LIBCMT:setmode.obj
 0001:0002d8b9       __setmode                  1002e8b9 f   LIBCMT:setmode.obj
 0001:0002d9c7       __setmode_nolock           1002e9c7 f   LIBCMT:setmode.obj
 0001:0002daa0       ___ascii_strnicmp          1002eaa0 f   LIBCMT:_strnicm.obj
 0001:0002db01       __flswbuf                  1002eb01 f   LIBCMT:_flswbuf.obj
 0001:0002dc70       __wchartodigit             1002ec70 f   LIBCMT:wchtodig.obj
 0001:0002de0f       __wtoi                     1002ee0f f   LIBCMT:wtox.obj
 0001:0002de18       __wtoi64                   1002ee18 f   LIBCMT:wtox.obj
 0001:0002de2c       __wtoi64_l                 1002ee2c f   LIBCMT:wtox.obj
 0001:0002de43       __wtoi_l                   1002ee43 f   LIBCMT:wtox.obj
 0001:0002de4c       __wtol                     1002ee4c f   LIBCMT:wtox.obj
 0001:0002de60       __wtol_l                   1002ee60 f   LIBCMT:wtox.obj
 0001:0002de77       _wcschr                    1002ee77 f   LIBCMT:wcschr.obj
 0001:0002df25       __wcsicmp                  1002ef25 f   LIBCMT:wcsicmp.obj
 0001:0002dfb8       __wcsicmp_l                1002efb8 f   LIBCMT:wcsicmp.obj
 0001:0002e091       __wcsnicmp                 1002f091 f   LIBCMT:wcsnicmp.obj
 0001:0002e145       __wcsnicmp_l               1002f145 f   LIBCMT:wcsnicmp.obj
 0001:0002e50a       __wcstoi64                 1002f50a f   LIBCMT:wcstoq.obj
 0001:0002e534       __wcstoi64_l               1002f534 f   LIBCMT:wcstoq.obj
 0001:0002e54f       __wcstoui64                1002f54f f   LIBCMT:wcstoq.obj
 0001:0002e579       __wcstoui64_l              1002f579 f   LIBCMT:wcstoq.obj
 0001:0002e594       __towlower_l               1002f594 f   LIBCMT:towlower.obj
 0001:0002e646       _towlower                  1002f646 f   LIBCMT:towlower.obj
 0001:0002e660       __allmul                   1002f660 f   LIBCMT:llmul.obj
 0001:0002e694       ___crtLCMapStringW         1002f694 f   LIBCMT:w_map.obj
 0001:0002e6c4       _GetModuleHandleA@4        1002f6c4 f   kernel32:KERNEL32.dll
 0001:0002e6ca       _GetProcAddress@8          1002f6ca f   kernel32:KERNEL32.dll
 0001:0002e6d0       _HeapAlloc@12              1002f6d0 f   kernel32:KERNEL32.dll
 0001:0002e6d6       _IsDebuggerPresent@0       1002f6d6 f   kernel32:KERNEL32.dll
 0001:0002e6dc       _IsProcessorFeaturePresent@4 1002f6dc f   kernel32:KERNEL32.dll
 0001:0002e6e2       _EncodePointer@4           1002f6e2 f   kernel32:KERNEL32.dll
 0001:0002e6e8       _DecodePointer@4           1002f6e8 f   kernel32:KERNEL32.dll
 0001:0002e6ee       _GetLastError@0            1002f6ee f   kernel32:KERNEL32.dll
 0001:0002e6f4       _InterlockedDecrement@4    1002f6f4 f   kernel32:KERNEL32.dll
 0001:0002e6fa       _ExitProcess@4             1002f6fa f   kernel32:KERNEL32.dll
 0001:0002e700       _GetModuleHandleExW@12     1002f700 f   kernel32:KERNEL32.dll
 0001:0002e706       _AreFileApisANSI@0         1002f706 f   kernel32:KERNEL32.dll
 0001:0002e70c       _MultiByteToWideChar@24    1002f70c f   kernel32:KERNEL32.dll
 0001:0002e712       _HeapFree@12               1002f712 f   kernel32:KERNEL32.dll
 0001:0002e718       _HeapReAlloc@16            1002f718 f   kernel32:KERNEL32.dll
 0001:0002e71e       _EnterCriticalSection@4    1002f71e f   kernel32:KERNEL32.dll
 0001:0002e724       _LeaveCriticalSection@4    1002f724 f   kernel32:KERNEL32.dll
 0001:0002e72a       _GetStdHandle@4            1002f72a f   kernel32:KERNEL32.dll
 0001:0002e730       _GetFileType@4             1002f730 f   kernel32:KERNEL32.dll
 0001:0002e736       _GetModuleFileNameW@12     1002f736 f   kernel32:KERNEL32.dll
 0001:0002e73c       _WriteConsoleW@20          1002f73c f   kernel32:KERNEL32.dll
 0001:0002e742       _GetCommandLineA@0         1002f742 f   kernel32:KERNEL32.dll
 0001:0002e748       _GetCurrentThreadId@0      1002f748 f   kernel32:KERNEL32.dll
 0001:0002e74e       _WriteFile@20              1002f74e f   kernel32:KERNEL32.dll
 0001:0002e754       _GetProcessHeap@0          1002f754 f   kernel32:KERNEL32.dll
 0001:0002e75a       _UnhandledExceptionFilter@4 1002f75a f   kernel32:KERNEL32.dll
 0001:0002e760       _SetUnhandledExceptionFilter@4 1002f760 f   kernel32:KERNEL32.dll
 0001:0002e766       _FlsAlloc@4                1002f766 f   kernel32:KERNEL32.dll
 0001:0002e76c       _FlsGetValue@4             1002f76c f   kernel32:KERNEL32.dll
 0001:0002e772       _FlsSetValue@8             1002f772 f   kernel32:KERNEL32.dll
 0001:0002e778       _FlsFree@4                 1002f778 f   kernel32:KERNEL32.dll
 0001:0002e77e       _GetCurrentProcess@0       1002f77e f   kernel32:KERNEL32.dll
 0001:0002e784       _TerminateProcess@8        1002f784 f   kernel32:KERNEL32.dll
 0001:0002e78a       _GetStartupInfoW@4         1002f78a f   kernel32:KERNEL32.dll
 0001:0002e790       _GetModuleHandleW@4        1002f790 f   kernel32:KERNEL32.dll
 0001:0002e796       _InitializeCriticalSectionAndSpinCount@8 1002f796 f   kernel32:KERNEL32.dll
 0001:0002e79c       _DeleteCriticalSection@4   1002f79c f   kernel32:KERNEL32.dll
 0001:0002e7a2       _FatalAppExitA@8           1002f7a2 f   kernel32:KERNEL32.dll
 0001:0002e7a8       _Sleep@4                   1002f7a8 f   kernel32:KERNEL32.dll
 0001:0002e7ae       _InterlockedExchange@8     1002f7ae f   kernel32:KERNEL32.dll
 0001:0002e7b4       _FreeLibrary@4             1002f7b4 f   kernel32:KERNEL32.dll
 0001:0002e7ba       _LoadLibraryExW@12         1002f7ba f   kernel32:KERNEL32.dll
 0001:0002e7c0       _SetConsoleCtrlHandler@8   1002f7c0 f   kernel32:KERNEL32.dll
 0001:0002e7c6       _InterlockedIncrement@4    1002f7c6 f   kernel32:KERNEL32.dll
 0001:0002e7cc       _IsValidCodePage@4         1002f7cc f   kernel32:KERNEL32.dll
 0001:0002e7d2       _GetACP@0                  1002f7d2 f   kernel32:KERNEL32.dll
 0001:0002e7d8       _GetOEMCP@0                1002f7d8 f   kernel32:KERNEL32.dll
 0001:0002e7de       _GetCPInfo@8               1002f7de f   kernel32:KERNEL32.dll
 0001:0002e7e4       _CloseHandle@4             1002f7e4 f   kernel32:KERNEL32.dll
 0001:0002e7ea       _RtlUnwind@16              1002f7ea f   kernel32:KERNEL32.dll
 0001:0002e7f0       _InitOnceExecuteOnce@16    1002f7f0 f   kernel32:KERNEL32.dll
 0001:0002e7f6       _ReadFile@20               1002f7f6 f   kernel32:KERNEL32.dll
 0001:0002e7fc       _GetConsoleMode@8          1002f7fc f   kernel32:KERNEL32.dll
 0001:0002e802       _ReadConsoleW@20           1002f802 f   kernel32:KERNEL32.dll
 0001:0002e808       _WideCharToMultiByte@32    1002f808 f   kernel32:KERNEL32.dll
 0001:0002e80e       _GetConsoleCP@0            1002f80e f   kernel32:KERNEL32.dll
 0001:0002e814       _DeleteFileW@4             1002f814 f   kernel32:KERNEL32.dll
 0001:0002e81a       _SetFilePointer@16         1002f81a f   kernel32:KERNEL32.dll
 0001:0002e820       _RaiseException@16         1002f820 f   kernel32:KERNEL32.dll
 0001:0002e826       _OutputDebugStringW@4      1002f826 f   kernel32:KERNEL32.dll
 0001:0002e82c       _LoadLibraryW@4            1002f82c f   kernel32:KERNEL32.dll
 0001:0002e832       _SetLastError@4            1002f832 f   kernel32:KERNEL32.dll
 0001:0002e838       _GetCurrentThread@0        1002f838 f   kernel32:KERNEL32.dll
 0001:0002e83e       _GetModuleFileNameA@12     1002f83e f   kernel32:KERNEL32.dll
 0001:0002e844       _QueryPerformanceCounter@4 1002f844 f   kernel32:KERNEL32.dll
 0001:0002e84a       _GetSystemTimeAsFileTime@4 1002f84a f   kernel32:KERNEL32.dll
 0001:0002e850       _GetTickCount64@0          1002f850 f   kernel32:KERNEL32.dll
 0001:0002e856       _GetEnvironmentStringsW@0  1002f856 f   kernel32:KERNEL32.dll
 0001:0002e85c       _FreeEnvironmentStringsW@4 1002f85c f   kernel32:KERNEL32.dll
 0001:0002e862       _HeapSize@12               1002f862 f   kernel32:KERNEL32.dll
 0001:0002e868       _GetTimeFormatEx@24        1002f868 f   kernel32:KERNEL32.dll
 0001:0002e86e       _GetDateFormatEx@28        1002f86e f   kernel32:KERNEL32.dll
 0001:0002e874       _CompareStringEx@36        1002f874 f   kernel32:KERNEL32.dll
 0001:0002e87a       _GetLocaleInfoEx@16        1002f87a f   kernel32:KERNEL32.dll
 0001:0002e880       _GetUserDefaultLocaleName@8 1002f880 f   kernel32:KERNEL32.dll
 0001:0002e886       _LCMapStringEx@36          1002f886 f   kernel32:KERNEL32.dll
 0001:0002e88c       _IsValidLocaleName@4       1002f88c f   kernel32:KERNEL32.dll
 0001:0002e892       _EnumSystemLocalesEx@16    1002f892 f   kernel32:KERNEL32.dll
 0001:0002e898       _GetStringTypeW@16         1002f898 f   kernel32:KERNEL32.dll
 0001:0002e89e       _FlushFileBuffers@4        1002f89e f   kernel32:KERNEL32.dll
 0001:0002e8a4       _SetStdHandle@8            1002f8a4 f   kernel32:KERNEL32.dll
 0001:0002e8aa       _SetFilePointerEx@20       1002f8aa f   kernel32:KERNEL32.dll
 0001:0002e8b0       _CreateFileW@28            1002f8b0 f   kernel32:KERNEL32.dll
 0001:0002e8b6       _SetEndOfFile@4            1002f8b6 f   kernel32:KERNEL32.dll
 0002:00000000       ___xc_a                    1003a000     LIBCMT:crt0init.obj
 0002:00000104       ___xc_z                    1003a104     LIBCMT:crt0init.obj
 0002:00000208       ___xi_a                    1003a208     LIBCMT:crt0init.obj
 0002:00000420       ___xi_z                    1003a420     LIBCMT:crt0init.obj
 0002:00000524       ___xp_a                    1003a524     LIBCMT:crt0init.obj
 0002:00000838       ___xp_z                    1003a838     LIBCMT:crt0init.obj
 0002:0000093c       ___xt_a                    1003a93c     LIBCMT:crt0init.obj
 0002:00000a40       ___xt_z                    1003aa40     LIBCMT:crt0init.obj
 0002:00000b88       _pci1756_M                 1003ab88     pci1756.obj
 0002:00000b8c       ??_C@_0BC@OJJPBDHH@FixedStepDiscrete?$AA@ 1003ab8c     pci1756.obj
 0002:00000ba4       ??_C@_04EPKDLPPB@tout?$AA@ 1003aba4     pci1756.obj
 0002:00000baa       ??_C@_00CNPNBAHC@?$AA@     1003abaa     pci1756.obj
 0002:00000bac       ??_C@_03HBFGMJOD@rt_?$AA@  1003abac     pci1756.obj
 0002:00000bb0       ??_C@_04DBHJIBAH@PCI1?$AA@ 1003abb0     pci1756.obj
 0002:00000bb8       ??_C@_0N@LILGENG@pci1756?1PCI1?$AA@ 1003abb8     pci1756.obj
 0002:00000bc8       __real@3f60624dd2f1a9fc    1003abc8     pci1756.obj
 0002:00000bd8       __real@41f0000000000000    1003abd8     pci1756.obj
 0002:00000be8       __real@bff0000000000000    1003abe8     pci1756.obj
 0002:00000c00       __xmm@41f00000000000000000000000000000 1003ac00     pci1756.obj
 0002:000014c4       ??_C@_09MHCDEIJE@constant1?$AA@ 1003b4c4     pci1756_capi.obj
 0002:000014d0       ??_C@_0L@CIODECOG@constant10?$AA@ 1003b4d0     pci1756_capi.obj
 0002:000014e0       ??_C@_0L@DBPIHDKH@constant11?$AA@ 1003b4e0     pci1756_capi.obj
 0002:000014f0       ??_C@_0L@BKNFCAGE@constant12?$AA@ 1003b4f0     pci1756_capi.obj
 0002:00001500       ??_C@_0L@DMOBBCF@constant13?$AA@ 1003b500     pci1756_capi.obj
 0002:00001510       ??_C@_0L@EMIPIHOC@constant14?$AA@ 1003b510     pci1756_capi.obj
 0002:00001520       ??_C@_0L@FFJELGKD@constant15?$AA@ 1003b520     pci1756_capi.obj
 0002:00001530       ??_C@_0L@HOLJOFGA@constant16?$AA@ 1003b530     pci1756_capi.obj
 0002:00001540       ??_C@_0L@GHKCNECB@constant17?$AA@ 1003b540     pci1756_capi.obj
 0002:00001550       ??_C@_0L@OADKMIOO@constant18?$AA@ 1003b550     pci1756_capi.obj
 0002:00001560       ??_C@_0L@PJCBPJKP@constant19?$AA@ 1003b560     pci1756_capi.obj
 0002:00001570       ??_C@_09OMAOBLFH@constant2?$AA@ 1003b570     pci1756_capi.obj
 0002:0000157c       ??_C@_0L@CKKFPMLP@constant20?$AA@ 1003b57c     pci1756_capi.obj
 0002:0000158c       ??_C@_0L@DDLOMNPO@constant21?$AA@ 1003b58c     pci1756_capi.obj
 0002:0000159c       ??_C@_0L@BIJDJODN@constant22?$AA@ 1003b59c     pci1756_capi.obj
 0002:000015ac       ??_C@_0L@BIIKPHM@constant23?$AA@ 1003b5ac     pci1756_capi.obj
 0002:000015bc       ??_C@_0L@EOMJDJLL@constant24?$AA@ 1003b5bc     pci1756_capi.obj
 0002:000015cc       ??_C@_0L@FHNCAIPK@constant25?$AA@ 1003b5cc     pci1756_capi.obj
 0002:000015dc       ??_C@_0L@HMPPFLDJ@constant26?$AA@ 1003b5dc     pci1756_capi.obj
 0002:000015ec       ??_C@_0L@GFOEGKHI@constant27?$AA@ 1003b5ec     pci1756_capi.obj
 0002:000015fc       ??_C@_0L@OCHMHGLH@constant28?$AA@ 1003b5fc     pci1756_capi.obj
 0002:0000160c       ??_C@_0L@PLGHEHPG@constant29?$AA@ 1003b60c     pci1756_capi.obj
 0002:0000161c       ??_C@_09PFBFCKBG@constant3?$AA@ 1003b61c     pci1756_capi.obj
 0002:00001628       ??_C@_0L@CLGHJGII@constant30?$AA@ 1003b628     pci1756_capi.obj
 0002:00001638       ??_C@_0L@DCHMKHMJ@constant31?$AA@ 1003b638     pci1756_capi.obj
 0002:00001648       ??_C@_0L@BJFBPEAK@constant32?$AA@ 1003b648     pci1756_capi.obj
 0002:00001658       ??_C@_09LKFELMNB@constant4?$AA@ 1003b658     pci1756_capi.obj
 0002:00001664       ??_C@_09KDEPINJA@constant5?$AA@ 1003b664     pci1756_capi.obj
 0002:00001670       ??_C@_09IIGCNOFD@constant6?$AA@ 1003b670     pci1756_capi.obj
 0002:0000167c       ??_C@_09JBHJOPBC@constant7?$AA@ 1003b67c     pci1756_capi.obj
 0002:00001688       ??_C@_09BGOBPDNN@constant8?$AA@ 1003b688     pci1756_capi.obj
 0002:00001694       ??_C@_09PPKMCJM@constant9?$AA@ 1003b694     pci1756_capi.obj
 0002:000016a0       ??_C@_07GEPDKGKM@PCI1?1p1?$AA@ 1003b6a0     pci1756_capi.obj
 0002:000016ac       ??_C@_07EPNOPFGP@PCI1?1p2?$AA@ 1003b6ac     pci1756_capi.obj
 0002:000016b8       ??_C@_05LPIJGKJ@Value?$AA@ 1003b6b8     pci1756_capi.obj
 0002:000016c0       ??_C@_02KKFPAPOP@P1?$AA@   1003b6c0     pci1756_capi.obj
 0002:000016c4       ??_C@_02IBHCFMCM@P2?$AA@   1003b6c4     pci1756_capi.obj
 0002:000016c8       ??_C@_06BNJCAIGJ@double?$AA@ 1003b6c8     pci1756_capi.obj
 0002:000016d0       ??_C@_06CNMIJIPB@real_T?$AA@ 1003b6d0     pci1756_capi.obj
 0002:000016d8       ??_C@_05KNFBNCOH@float?$AA@ 1003b6d8     pci1756_capi.obj
 0002:00001f40       ??_C@_0DJ@FHKINPLE@Unexpected?5itemKind?5?$DN?5DATA_ITEM?5@ 1003bf40     rt_logging.obj
 0002:00001f84       ??_C@_0DA@IEHFPFCJ@Unexpected?5itemKind?$DN?$CFd?5in?5rt_Pro@ 1003bf84     rt_logging.obj
 0002:00001fc0       ??_C@_0DA@IFLHJPBO@Unexpected?5itemKind?$DN?$CFd?5in?5rt_Pro@ 1003bfc0     rt_logging.obj
 0002:00001ffc       ??_C@_0DA@IAPIIJJL@Unexpected?5itemKind?$DN?$CFd?5in?5rt_Pro@ 1003bffc     rt_logging.obj
 0002:00002038       ??_C@_0BE@LCIGPJIG@MATLAB?55?40?5MAT?9file?$AA@ 1003c038     rt_logging.obj
 0002:00002050       ??_C@_0FB@PCJEAJIB@?$CK?$CK?$CK?5Log?5variable?5?$CFs?5has?5wrapped?5@ 1003c050     rt_logging.obj
 0002:000020b8       ??_C@_0MG@NKMLMOGF@?$CK?$CK?$CK?5To?5avoid?5wrapping?0?5explicitl@ 1003c0b8     rt_logging.obj
 0002:000021a8       ??_C@_0N@IPAEOLLP@_rtw_tmw?4tmw?$AA@ 1003c1a8     rt_logging.obj
 0002:000021b8       ??_C@_04HDOCAJNK@?$CFs?$CFs?$AA@ 1003c1b8     rt_logging.obj
 0002:000021c0       ??_C@_03ELIABIOC@w?$CLb?$AA@ 1003c1c0     rt_logging.obj
 0002:000021c4       ??_C@_0BF@JPILDDFA@?$CK?$CK?$CK?5Error?5opening?5?$CFs?$AA@ 1003c1c4     rt_logging.obj
 0002:000021e0       ??_C@_0BK@EEMDELA@unable?5to?5open?5data?5file?6?$AA@ 1003c1e0     rt_logging.obj
 0002:00002200       ??_C@_04CGFJFPFD@none?$AA@ 1003c200     rt_logging.obj
 0002:00002208       ??_C@_0EE@LCGFPNON@?$CK?$CK?$CK?5Error?5creating?5signals?5struc@ 1003c208     rt_logging.obj
 0002:0000225c       ??_C@_0CE@NHECEDMK@?$CK?$CK?$CK?5Error?5creating?5log?5variable?5@ 1003c25c     rt_logging.obj
 0002:00002288       ??_C@_0DB@IOCGKAGH@?$CK?$CK?$CK?5Errors?5occurred?5when?5startin@ 1003c288     rt_logging.obj
 0002:000022c4       ??_C@_0BO@BBLOGEBK@?$CK?$CK?$CK?5Memory?5allocation?5error?4?6?$AA@ 1003c2c4     rt_logging.obj
 0002:000022e8       ??_C@_0N@LGFBAGEL@?5?$CIreal?5part?$CJ?$AA@ 1003c2e8     rt_logging.obj
 0002:000022f8       ??_C@_0KH@CGNMHNFE@?5?5?5?5varName?5?5?5?5?5?5?5?5?5?5?$DN?5?$CFs?$CFs?6?5?5?5?5@ 1003c2f8     rt_logging.obj
 0002:000023c0       ??_C@_0LE@OALKKEFM@?5?5?5?5varName?5?5?5?5?5?5?5?5?5?5?$DN?5?$CFs?5?$CIcompl@ 1003c3c0     rt_logging.obj
 0002:00002498       ??_C@_0KF@JDDLEOKO@?5?5?5?5varName?5?5?5?5?5?5?5?5?5?5?$DN?5?$CFs?6?5?5?5?5nR@ 1003c498     rt_logging.obj
 0002:00002560       ??_C@_0DP@HPDMIOFM@?$CK?$CK?$CK?5Using?5a?5default?5buffer?5of?5si@ 1003c560     rt_logging.obj
 0002:000025b0       ??_C@_0KE@JEFOLKNF@?6?$CK?$CK?$CK?5Memory?5required?5to?5log?5vari@ 1003c5b0     rt_logging.obj
 0002:00002678       ??_C@_0JP@DKLMHCBI@?$CK?$CK?$CK?5Details?3?6?5?5?5?5?5?5?5varName?5?5?5?5?5@ 1003c678     rt_logging.obj
 0002:00002738       ??_C@_0CM@CAMILBED@?$CK?$CK?$CK?5Error?5allocating?5memory?5for?5@ 1003c738     rt_logging.obj
 0002:0000276c       ??_C@_0DF@BBCNMOPM@?$CK?$CK?$CK?5Error?5allocating?5memory?5for?5@ 1003c76c     rt_logging.obj
 0002:000027b0       ??_C@_0JP@DBCLPCCI@?$CK?$CK?$CK?5Details?3?6?5?5?5?5?5?5?5varName?5?5?5?5?5@ 1003c7b0     rt_logging.obj
 0002:00002870       ??_C@_0FK@DPGAOBGA@?$CK?$CK?$CK?5Error?5allocating?5memory?5for?5@ 1003c870     rt_logging.obj
 0002:000028dc       ??_C@_0BI@GGDNPHLJ@?$CK?$CK?$CK?5Error?5writing?5to?5?$CFs?$AA@ 1003c8dc     rt_logging.obj
 0002:000028f8       ??_C@_0CB@IBGJGELG@?$CK?$CK?$CK?5Error?5writing?5?$CFs?5due?5to?3?5?$CFs?6@ 1003c8f8     rt_logging.obj
 0002:00002920       ??_C@_0CN@FLMCHCPB@?$CK?$CK?$CK?5Error?5writing?5log?5variable?5?$CF@ 1003c920     rt_logging.obj
 0002:00002958       ??_C@_0DH@GAJCNOJP@?$CK?$CK?$CK?5Error?5writing?5structure?5log?5@ 1003c958     rt_logging.obj
 0002:0000299c       ??_C@_0BD@POEALECL@?$CK?$CK?5created?5?$CFs?5?$CK?$CK?6?6?$AA@ 1003c99c     rt_logging.obj
 0002:000029b8       __real@0000000000000000    1003c9b8     rt_logging.obj
 0002:000029c8       __real@3ff0000000000000    1003c9c8     rt_logging.obj
 0002:000029d8       __real@4020000000000000    1003c9d8     rt_logging.obj
 0002:000029e8       __real@41dfffffffc00000    1003c9e8     rt_logging.obj
 0002:000029f8       __real@41efffffffe00000    1003c9f8     rt_logging.obj
 0002:00002a08       __real@4330000000000000    1003ca08     rt_logging.obj
 0002:00002a18       __real@8000000000000000    1003ca18     rt_logging.obj
 0002:00002a28       __real@bfbf9add3afd2773    1003ca28     rt_logging.obj
 0002:00002a38       __real@c000000000000000    1003ca38     rt_logging.obj
 0002:00002a60       __real@3cb0000000000000    1003ca60     rt_matrx.obj
 0002:00002a70       __real@3fe0000000000000    1003ca70     rt_matrx.obj
 0002:00002a7c       ??_C@_0BI@INNPNFJN@Memory?5Allocation?5Error?$AA@ 1003ca7c     rtw_modelmap_utils.obj
 0002:00002a98       ??_C@_1FC@GCCCKKBC@?$AAH?$AA?3?$AA?2?$AAR?$AA2?$AA0?$AA1?$AA6?$AAb?$AA?2?$AAr?$AAt?$AAw?$AA?2?$AAc?$AA?2?$AAs?$AAr?$AAc?$AA?2?$AAr?$AAt?$AAw?$AA_?$AAm?$AAo?$AAd?$AAe?$AAl?$AAm?$AAa?$AAp@ 1003ca98     rtw_modelmap_utils.obj
 0002:00002afc       ??_C@_1CI@OEAJCJND@?$AAj?$AA?5?$AA?$DN?$AA?$DN?$AA?5?$AAe?$AAn?$AAc?$AAo?$AAd?$AAe?$AAd?$AAP?$AAa?$AAt?$AAh?$AAL?$AAe?$AAn?$AA?$AA@ 1003cafc     rtw_modelmap_utils.obj
 0002:00002b2c       ??_C@_1DC@NFAOIFKB@?$AAe?$AAn?$AAc?$AAo?$AAd?$AAe?$AAd?$AAP?$AAa?$AAt?$AAh?$AA?$FL?$AAj?$AA?9?$AA1?$AA?$FN?$AA?5?$AA?$DN?$AA?$DN?$AA?5?$AA?8?$AA?2?$AA0?$AA?8?$AA?$AA@ 1003cb2c     rtw_modelmap_utils.obj
 0002:00002b68       ??_C@_1DI@FLNJGPEE@?$AAs?$AAi?$AAg?$AAC?$AAo?$AAm?$AAp?$AAl?$AAe?$AAx?$AAi?$AAt?$AAy?$AA?$FL?$AA?$CK?$AAs?$AAi?$AAg?$AAI?$AAd?$AAx?$AA?$FN?$AA?5?$AA?$CB?$AA?$DN?$AA?5?$AA1?$AA?$AA@ 1003cb68     rtw_modelmap_utils.obj
 0002:00002bb0       ??_C@_1KI@OFELMGBG@?$AA?$CI?$AA?$CI?$AA?$CI?$AAd?$AAa?$AAt?$AAa?$AAT?$AAy?$AAp?$AAe?$AAM?$AAa?$AAp?$AA?$CJ?$AA?$FL?$AA?$CI?$AA?$CI?$AA?$CI?$AAs?$AAt?$AAa?$AAt?$AAe?$AAs?$AA?$CJ?$AA?$FL?$AA?$CI?$AAi?$AA?$CJ?$AA?$FN?$AA?4@ 1003cbb0     rtw_modelmap_utils.obj
 0002:00002c7c       ??_C@_1DA@ILCMPHNE@?$AAf?$AAu?$AAl?$AAl?$AAP?$AAa?$AAt?$AAh?$AA?5?$AA?$CB?$AA?$DN?$AA?5?$AA?$CI?$AA?$CI?$AAv?$AAo?$AAi?$AAd?$AA?5?$AA?$CK?$AA?$CJ?$AA0?$AA?$CJ?$AA?$AA@ 1003cc7c     rtw_modelmap_utils.obj
 0002:00002cb8       ??_C@_1CI@OEPPFCCA@?$AAp?$AAa?$AAt?$AAh?$AA?5?$AA?$CB?$AA?$DN?$AA?5?$AA?$CI?$AA?$CI?$AAv?$AAo?$AAi?$AAd?$AA?5?$AA?$CK?$AA?$CJ?$AA0?$AA?$CJ?$AA?$AA@ 1003ccb8     rtw_modelmap_utils.obj
 0002:00002ce8       ??_C@_1FK@GLJIMFHB@?$AA?$CI?$AA?$CI?$AAm?$AAm?$AAi?$AA?$CJ?$AA?9?$AA?$DO?$AAI?$AAn?$AAs?$AAt?$AAa?$AAn?$AAc?$AAe?$AAM?$AAa?$AAp?$AA?4?$AAf?$AAu?$AAl?$AAl?$AAP?$AAa?$AAt?$AAh?$AA?$CJ?$AA?5?$AA?$DN?$AA?$DN@ 1003cce8     rtw_modelmap_utils.obj
 0002:00002d54       ??_C@_1DG@HPCJGNCE@?$AAm?$AAm?$AAi?$AAP?$AAa?$AAt?$AAh?$AA?$FL?$AAp?$AAa?$AAt?$AAh?$AAL?$AAe?$AAn?$AA?9?$AA1?$AA?$FN?$AA?5?$AA?$DN?$AA?$DN?$AA?5?$AA?8?$AA?2?$AA0?$AA?8?$AA?$AA@ 1003cd54     rtw_modelmap_utils.obj
 0002:00002d94       ??_C@_1DM@DBAOGGOO@?$AAm?$AAm?$AAi?$AAP?$AAa?$AAt?$AAh?$AA?$FL?$AAm?$AAm?$AAi?$AAP?$AAa?$AAt?$AAh?$AAL?$AAe?$AAn?$AA?9?$AA1?$AA?$FN?$AA?5?$AA?$DN?$AA?$DN?$AA?5?$AA?8?$AA?2?$AA0?$AA?8?$AA?$AA@ 1003cd94     rtw_modelmap_utils.obj
 0002:00002ddc       ??_C@_1DC@LHIAKAFE@?$AAb?$AAl?$AAo?$AAc?$AAk?$AAP?$AAa?$AAt?$AAh?$AA?5?$AA?$CB?$AA?$DN?$AA?5?$AA?$CI?$AA?$CI?$AAv?$AAo?$AAi?$AAd?$AA?5?$AA?$CK?$AA?$CJ?$AA0?$AA?$CJ?$AA?$AA@ 1003cddc     rtw_modelmap_utils.obj
 0002:00002e18       ??_C@_1GI@KIEJKPGC@?$AAf?$AAu?$AAl?$AAl?$AAS?$AAt?$AAa?$AAt?$AAe?$AAB?$AAl?$AAo?$AAc?$AAk?$AAP?$AAa?$AAt?$AAh?$AA?$FL?$AAf?$AAu?$AAl?$AAl?$AAS?$AAt?$AAa?$AAt?$AAe?$AAB?$AAl?$AAo?$AAc@ 1003ce18     rtw_modelmap_utils.obj
 0002:00002e98       ??_C@_1EE@DNPIBJHC@?$AA?$CI?$AA?$CI?$AAd?$AAi?$AAm?$AAM?$AAa?$AAp?$AA?$CJ?$AA?$FL?$AA?$CI?$AAm?$AAa?$AAp?$AAI?$AAd?$AAx?$AA?$CJ?$AA?$FN?$AA?4?$AAn?$AAu?$AAm?$AAD?$AAi?$AAm?$AAs?$AA?$CJ?$AA?5?$AA?$DN?$AA?$DN?$AA?5@ 1003ce98     rtw_modelmap_utils.obj
 0002:00002eec       ??_C@_06JFOKFOED@CSTATE?$AA@ 1003ceec     rtw_modelmap_utils.obj
 0002:00002ef4       ??_C@_06FAENGAMN@DSTATE?$AA@ 1003cef4     rtw_modelmap_utils.obj
 0002:00002efc       ??_C@_1BI@LEBJNOGG@?$AAc?$AAs?$AAv?$AAI?$AAd?$AAx?$AA?5?$AA?$DO?$AA?$DN?$AA?5?$AA0?$AA?$AA@ 1003cefc     rtw_modelmap_utils.obj
 0002:00002f18       ??_C@_1BA@KDMGHCHP@?$AAT?$AAI?$AAD?$AA?$DN?$AA?$DN?$AA?9?$AA1?$AA?$AA@ 1003cf18     rtw_modelmap_utils.obj
 0002:00002f2c       ??_C@_1DM@DHGKBPCE@?$AAs?$AAi?$AAg?$AAP?$AAa?$AAt?$AAh?$AA?$FL?$AAs?$AAi?$AAg?$AAP?$AAa?$AAt?$AAh?$AAL?$AAe?$AAn?$AA?9?$AA1?$AA?$FN?$AA?5?$AA?$DN?$AA?$DN?$AA?5?$AA?8?$AA?2?$AA0?$AA?8?$AA?$AA@ 1003cf2c     rtw_modelmap_utils.obj
 0002:00002f74       _serialfifoground          1003cf74     xpc_datatype_ground.obj
 0002:00002f80       _bcmsg1553ground           1003cf80     xpc_datatype_ground.obj
 0002:00002f90       _bcstatground              1003cf90     xpc_datatype_ground.obj
 0002:00002fa8       _bmmsg1553ground           1003cfa8     xpc_datatype_ground.obj
 0002:00002fc8       ??_C@_07PJCJFOMM@pci1756?$AA@ 1003cfc8     xpctarget.obj
 0002:00002fd4       _ptsetfilename             1003cfd4     xpctarget.obj
 0002:00002fd8       _xmlfile                   1003cfd8     xpctarget.obj
 0002:00002fe0       ??_C@_0L@CHBJKKFC@xpceSetVar?$AA@ 1003cfe0     xpctarget.obj
 0002:00002ff0       ??_C@_03JLBJCOMC@6?45?$AA@ 1003cff0     xpctarget.obj
 0002:00002ff8       __real@3fb999999999999a    1003cff8     xpctarget.obj
 0002:00003008       __real@407f400000000000    1003d008     xpctarget.obj
 0002:00003018       _pci1756_BIOMAP            1003d018     appmappingData.obj
 0002:000031bc       _pci1756_dtmap             1003d1bc     appmappingData.obj
 0002:000031c8       _pci1756_LBLMAP            1003d1c8     appmappingData.obj
 0002:00003370       _pci1756_SIDMAP            1003d370     appmappingData.obj
 0002:00003518       _pci1756_SBIO              1003d518     appmappingData.obj
 0002:000035a8       _pci1756_SLBL              1003d5a8     appmappingData.obj
 0002:00003638       _pci1756_PTIDSMAP          1003d638     appmappingData.obj
 0002:00003750       _pci1756_PTNAMESMAP        1003d750     appmappingData.obj
 0002:00003868       _pci1756_SPTMAP            1003d868     appmappingData.obj
 0002:000038f8       _appInfo                   1003d8f8     appmappingData.obj
 0002:00003b20       ??_C@_0ED@LKHIFFLC@Wrong?5number?5of?5input?5arguments?5@ 1003db20     pci1756IO.obj
 0002:00003b70       ??_C@_0BG@EPCOHGPO@?$CFs?3?5board?5not?5present?$AA@ 1003db70     pci1756IO.obj
 0002:00003b8c       ??_C@_0CI@NFFNBHJA@?$CFs?5?$CIbus?5?$CFd?0?5slot?5?$CFd?$CJ?3?5board?5not?5@ 1003db8c     pci1756IO.obj
 0002:00003bbc       ??_C@_0CC@DMFKNLL@VendorId?5?$DN?50x?$CFx?0?5DeviceId?5?$DN?50x?$CFx@ 1003dbbc     xpcruntime:xpcimports.obj
 0002:00003be0       ??_C@_0DH@OHCBLNMG@Subsystem?5Device?5ID?5?$DN?50x?$CFx?6Subsy@ 1003dbe0     xpcruntime:xpcimports.obj
 0002:00003c18       ??_C@_0BD@MMMMEFCM@Class?5Code?5?$DN?50x?$CFx?6?$AA@ 1003dc18     xpcruntime:xpcimports.obj
 0002:00003c2c       ??_C@_0BE@OLDDDNHM@InterruptLine?5?$DN?5?$CFd?6?$AA@ 1003dc2c     xpcruntime:xpcimports.obj
 0002:00003c40       ??_C@_0BF@OLKLEKBD@bus?5?$DN?5?$CFd?0?5slot?5?$DN?5?$CFd?6?$AA@ 1003dc40     xpcruntime:xpcimports.obj
 0002:00003c58       ??_C@_0CE@DGLLGDFH@?5?5?5?5Phys?5?5?5Virtual?5?5?5Length?5IO?1M@ 1003dc58     xpcruntime:xpcimports.obj
 0002:00003c7c       ??_C@_0BI@FEOPLEMG@?$CF08x?5?$CF08x?5?$CF08x?5?5?5?5?5?5?$CFc?6?$AA@ 1003dc7c     xpcruntime:xpcimports.obj
 0002:00003c94       ??_C@_0BB@BNNCEDPC@rl32eScopeExists?$AA@ 1003dc94     xpcruntime:xpcimports.obj
 0002:00003ca8       ??_C@_0BM@FJBFEGFG@rl32eScopeExists?5not?5found?6?$AA@ 1003dca8     xpcruntime:xpcimports.obj
 0002:00003cc4       ??_C@_0O@BNNGKJEA@rl32eDefScope?$AA@ 1003dcc4     xpcruntime:xpcimports.obj
 0002:00003cd4       ??_C@_0BJ@CDNOENKA@rl32eDefScope?5not?5found?6?$AA@ 1003dcd4     xpcruntime:xpcimports.obj
 0002:00003cf0       ??_C@_0P@CKNKILDP@rl32eAddSignal?$AA@ 1003dcf0     xpcruntime:xpcimports.obj
 0002:00003d00       ??_C@_0BK@GMJAJBAI@rl32eAddSignal?5not?5found?6?$AA@ 1003dd00     xpcruntime:xpcimports.obj
 0002:00003d1c       ??_C@_0BB@LDMIHGCE@rl32eGetSignalNo?$AA@ 1003dd1c     xpcruntime:xpcimports.obj
 0002:00003d30       ??_C@_0BM@LGAMBAID@rl32eGetSignalNo?5not?5found?6?$AA@ 1003dd30     xpcruntime:xpcimports.obj
 0002:00003d4c       ??_C@_0O@CFDGALBP@rl32eSetScope?$AA@ 1003dd4c     xpcruntime:xpcimports.obj
 0002:00003d5c       ??_C@_0BJ@JCLHHIN@rl32eSetScope?5not?5found?6?$AA@ 1003dd5c     xpcruntime:xpcimports.obj
 0002:00003d78       ??_C@_0P@IKMCBMHH@xpceFSScopeSet?$AA@ 1003dd78     xpcruntime:xpcimports.obj
 0002:00003d88       ??_C@_0BK@JODJPNNH@xpceFSScopeSet?5not?5found?6?$AA@ 1003dd88     xpcruntime:xpcimports.obj
 0002:00003da4       ??_C@_0BE@DLACEEJM@rl32eSetTargetScope?$AA@ 1003dda4     xpcruntime:xpcimports.obj
 0002:00003db8       ??_C@_0BP@JCHFMKPJ@rl32eSetTargetScope?5not?5found?6?$AA@ 1003ddb8     xpcruntime:xpcimports.obj
 0002:00003dd8       ??_C@_0BJ@LIDLNDHC@rl32eSetTargetScopeSigFt?$AA@ 1003ddd8     xpcruntime:xpcimports.obj
 0002:00003df4       ??_C@_0CE@JLGHCFHI@rl32eSetTargetScopeSigFt?5not?5fou@ 1003ddf4     xpcruntime:xpcimports.obj
 0002:00003e18       ??_C@_0BI@JAPOIDNG@rl32eRestartAcquisition?$AA@ 1003de18     xpcruntime:xpcimports.obj
 0002:00003e30       ??_C@_0CD@LLBEFFBO@rl32eRestartAcquisition?5not?5foun@ 1003de30     xpcruntime:xpcimports.obj
 0002:00003e54       ??_C@_0P@IEIIADJB@xpceScopeAcqOK?$AA@ 1003de54     xpcruntime:xpcimports.obj
 0002:00003e64       ??_C@_0BK@NJCKNFPN@xpceScopeAcqOK?5not?5found?6?$AA@ 1003de64     xpcruntime:xpcimports.obj
 0002:00003e80       ??_C@_0BA@IJINKAHF@xpceRegisterISR?$AA@ 1003de80     xpcruntime:xpcimports.obj
 0002:00003e90       ??_C@_0BL@NNDLOEJE@xpceRegisterISR?5not?5found?6?$AA@ 1003de90     xpcruntime:xpcimports.obj
 0002:00003eac       ??_C@_0BC@NLBADGKF@xpceDeRegisterISR?$AA@ 1003deac     xpcruntime:xpcimports.obj
 0002:00003ec0       ??_C@_0BN@DCAIKFFD@xpceDeRegisterISR?5not?5found?6?$AA@ 1003dec0     xpcruntime:xpcimports.obj
 0002:00003ee0       ??_C@_07JPMEPILD@xpcInpB?$AA@ 1003dee0     xpcruntime:xpcimports.obj
 0002:00003ee8       ??_C@_0BD@PGABEJOL@xpcInpB?5not?5found?6?$AA@ 1003dee8     xpcruntime:xpcimports.obj
 0002:00003efc       ??_C@_07KIHBBOKH@xpcInpW?$AA@ 1003defc     xpcruntime:xpcimports.obj
 0002:00003f04       ??_C@_0BD@FPCJFMCC@xpcInpW?5not?5found?6?$AA@ 1003df04     xpcruntime:xpcimports.obj
 0002:00003f18       ??_C@_08KDIAJBOP@xpcInpDW?$AA@ 1003df18     xpcruntime:xpcimports.obj
 0002:00003f24       ??_C@_0BE@PIELDNIL@xpcInpDW?5not?5found?6?$AA@ 1003df24     xpcruntime:xpcimports.obj
 0002:00003f38       ??_C@_08PJFMOIGO@xpcOutpB?$AA@ 1003df38     xpcruntime:xpcimports.obj
 0002:00003f44       ??_C@_0BE@HCKNCEKF@xpcOutpB?5not?5found?6?$AA@ 1003df44     xpcruntime:xpcimports.obj
 0002:00003f58       ??_C@_08MOOJAOHK@xpcOutpW?$AA@ 1003df58     xpcruntime:xpcimports.obj
 0002:00003f64       ??_C@_0BE@NLIFDBGM@xpcOutpW?5not?5found?6?$AA@ 1003df64     xpcruntime:xpcimports.obj
 0002:00003f78       ??_C@_09FLIEKHJG@xpcOutpDW?$AA@ 1003df78     xpcruntime:xpcimports.obj
 0002:00003f84       ??_C@_0BF@GJKLPNHB@xpcOutpDW?5not?5found?6?$AA@ 1003df84     xpcruntime:xpcimports.obj
 0002:00003f9c       ??_C@_0BH@EHOLELHH@xpcReserveMemoryRegion?$AA@ 1003df9c     xpcruntime:xpcimports.obj
 0002:00003fb4       ??_C@_0CC@KAAAGPI@xpcReserveMemoryRegion?5not?5found@ 1003dfb4     xpcruntime:xpcimports.obj
 0002:00003fd8       ??_C@_0BA@JGPMHGAF@rl32eShowPCIDev?$AA@ 1003dfd8     xpcruntime:xpcimports.obj
 0002:00003fe8       ??_C@_0BL@DDFFLNHI@rl32eShowPCIDev?5not?5found?6?$AA@ 1003dfe8     xpcruntime:xpcimports.obj
 0002:00004004       ??_C@_0BB@KBCOJPFB@rl32eShowPCIInfo?$AA@ 1003e004     xpcruntime:xpcimports.obj
 0002:00004018       ??_C@_0BM@IFDMAGLO@rl32eShowPCIInfo?5not?5found?6?$AA@ 1003e018     xpcruntime:xpcimports.obj
 0002:00004034       ??_C@_0BA@BGPAADB@rl32eGetPCIInfo?$AA@ 1003e034     xpcruntime:xpcimports.obj
 0002:00004044       ??_C@_0BL@IGOMLDCK@rl32eGetPCIInfo?5not?5found?6?$AA@ 1003e044     xpcruntime:xpcimports.obj
 0002:00004060       ??_C@_0BG@NJPFKFDP@rl32eGetPCIInfoAtSlot?$AA@ 1003e060     xpcruntime:xpcimports.obj
 0002:00004078       ??_C@_0CB@BBKIPMLA@rl32eGetPCIInfoAtSlot?5not?5found?6@ 1003e078     xpcruntime:xpcimports.obj
 0002:0000409c       ??_C@_0BH@OKBOPNFG@xpceAssignPCIInterrupt?$AA@ 1003e09c     xpcruntime:xpcimports.obj
 0002:000040b4       ??_C@_0CC@CDNDNJBJ@xpceAssignPCIInterrupt?5not?5found@ 1003e0b4     xpcruntime:xpcimports.obj
 0002:000040d8       ??_C@_0BD@PCKOKHO@xpceGetSignalValue?$AA@ 1003e0d8     xpcruntime:xpcimports.obj
 0002:000040ec       ??_C@_0BO@GCBDJHMB@xpceGetSignalValue?5not?5found?6?$AA@ 1003e0ec     xpcruntime:xpcimports.obj
 0002:0000410c       ??_C@_0BB@BJONJAGA@xpceSetParameter?$AA@ 1003e10c     xpcruntime:xpcimports.obj
 0002:00004120       ??_C@_0BM@BJIKDLHA@xpceSetParameter?5not?5found?6?$AA@ 1003e120     xpcruntime:xpcimports.obj
 0002:0000413c       ??_C@_0BB@GNFDFMCM@xpceGetParameter?$AA@ 1003e13c     xpcruntime:xpcimports.obj
 0002:00004150       ??_C@_0BM@POHNKBC@xpceGetParameter?5not?5found?6?$AA@ 1003e150     xpcruntime:xpcimports.obj
 0002:0000416c       ??_C@_0BB@CEIJLFCD@xpceGetParamDims?$AA@ 1003e16c     xpcruntime:xpcimports.obj
 0002:00004180       ??_C@_0BM@OABDBKAO@xpceGetParamDims?5not?5found?6?$AA@ 1003e180     xpcruntime:xpcimports.obj
 0002:0000419c       ??_C@_0L@OCBLLHBM@xpceGetTET?$AA@ 1003e19c     xpcruntime:xpcimports.obj
 0002:000041a8       ??_C@_0BG@HNOFBOB@xpceGetTET?5not?5found?6?$AA@ 1003e1a8     xpcruntime:xpcimports.obj
 0002:000041c0       ??_C@_0P@OKGNGAGH@xpcIsModelInit?$AA@ 1003e1c0     xpcruntime:xpcimports.obj
 0002:000041d0       ??_C@_0BK@DHEMLBIM@xpcIsModelInit?5not?5found?6?$AA@ 1003e1d0     xpcruntime:xpcimports.obj
 0002:000041ec       ??_C@_0BH@KJJLCAOJ@xpcAllocPhysicalMemory?$AA@ 1003e1ec     xpcruntime:xpcimports.obj
 0002:00004204       ??_C@_0CC@MOJPNHKL@xpcAllocPhysicalMemory?5not?5found@ 1003e204     xpcruntime:xpcimports.obj
 0002:00004228       ??_C@_0BG@CBNPGAEL@xpcFreePhysicalMemory?$AA@ 1003e228     xpcruntime:xpcimports.obj
 0002:00004240       ??_C@_0CB@PKJEBPOG@xpcFreePhysicalMemory?5not?5found?6@ 1003e240     xpcruntime:xpcimports.obj
 0002:00004264       ??_C@_0BC@JGKNLICL@xpcGetElapsedTime?$AA@ 1003e264     xpcruntime:xpcimports.obj
 0002:00004278       ??_C@_0BN@OEOAHCIO@xpcGetElapsedTime?5not?5found?6?$AA@ 1003e278     xpcruntime:xpcimports.obj
 0002:00004298       ??_C@_0M@ICBLMODA@xpcBusyWait?$AA@ 1003e298     xpcruntime:xpcimports.obj
 0002:000042a4       ??_C@_0BH@FBOPECBI@xpcBusyWait?5not?5found?6?$AA@ 1003e2a4     xpcruntime:xpcimports.obj
 0002:000042bc       ??_C@_0N@LKKJEKKA@TBCreateSpin?$AA@ 1003e2bc     xpcruntime:xpcimports.obj
 0002:000042cc       ??_C@_0BI@FHKMLKOE@TBCreateSpin?5not?5found?6?$AA@ 1003e2cc     xpcruntime:xpcimports.obj
 0002:000042e4       ??_C@_0N@HOAJHNBD@TBDeleteSpin?$AA@ 1003e2e4     xpcruntime:xpcimports.obj
 0002:000042f4       ??_C@_0BI@BKCPAAG@TBDeleteSpin?5not?5found?6?$AA@ 1003e2f4     xpcruntime:xpcimports.obj
 0002:0000430c       ??_C@_0P@DAHDDBJG@TBTakeSpinFast?$AA@ 1003e30c     xpcruntime:xpcimports.obj
 0002:0000431c       ??_C@_0BK@NKAIBHGB@TBTakeSpinFast?5not?5found?6?$AA@ 1003e31c     xpcruntime:xpcimports.obj
 0002:00004338       ??_C@_0P@FKNAAELA@TBGiveSpinFast?$AA@ 1003e338     xpcruntime:xpcimports.obj
 0002:00004348       ??_C@_0BK@KGPJBJND@TBGiveSpinFast?5not?5found?6?$AA@ 1003e348     xpcruntime:xpcimports.obj
 0002:00004364       ??_C@_0BE@IIGBFDHK@xpceCreateSemaphore?$AA@ 1003e364     xpcruntime:xpcimports.obj
 0002:00004378       ??_C@_0BP@KFBAFFKJ@xpceCreateSemaphore?5not?5found?6?$AA@ 1003e378     xpcruntime:xpcimports.obj
 0002:00004398       ??_C@_0BC@IFNIONKJ@xpceWaitSemaphore?$AA@ 1003e398     xpcruntime:xpcimports.obj
 0002:000043ac       ??_C@_0BN@NMFAADIO@xpceWaitSemaphore?5not?5found?6?$AA@ 1003e3ac     xpcruntime:xpcimports.obj
 0002:000043cc       ??_C@_0BE@NNDIOBKE@xpceSignalSemaphore?$AA@ 1003e3cc     xpcruntime:xpcimports.obj
 0002:000043e0       ??_C@_0BP@LBANMHJP@xpceSignalSemaphore?5not?5found?6?$AA@ 1003e3e0     xpcruntime:xpcimports.obj
 0002:00004400       ??_C@_0BE@MEBEKOIM@xpceDeleteSemaphore?$AA@ 1003e400     xpcruntime:xpcimports.obj
 0002:00004414       ??_C@_0BP@OFNCKOJH@xpceDeleteSemaphore?5not?5found?6?$AA@ 1003e414     xpcruntime:xpcimports.obj
 0002:00004434       ??_C@_0BD@MFNDMBOF@FindUsbVideoDevice?$AA@ 1003e434     xpcruntime:xpcimports.obj
 0002:00004448       ??_C@_0BO@POKLDHMI@FindUsbVideoDevice?5not?5found?6?$AA@ 1003e448     xpcruntime:xpcimports.obj
 0002:00004468       ??_C@_0BA@PLPAPNAB@GetVideoConfigs?$AA@ 1003e468     xpcruntime:xpcimports.obj
 0002:00004478       ??_C@_0BL@DALDHKHC@GetVideoConfigs?5not?5found?6?$AA@ 1003e478     xpcruntime:xpcimports.obj
 0002:00004494       ??_C@_0L@GBAEMHMH@StartVideo?$AA@ 1003e494     xpcruntime:xpcimports.obj
 0002:000044a0       ??_C@_0BG@HDCELEBP@StartVideo?5not?5found?6?$AA@ 1003e4a0     xpcruntime:xpcimports.obj
 0002:000044b8       ??_C@_0BA@FDNPOCLN@ReadFrameBuffer?$AA@ 1003e4b8     xpcruntime:xpcimports.obj
 0002:000044c8       ??_C@_0BL@JHGHPNBI@ReadFrameBuffer?5not?5found?6?$AA@ 1003e4c8     xpcruntime:xpcimports.obj
 0002:000044e4       ??_C@_09FAHCLKAG@StopVideo?$AA@ 1003e4e4     xpcruntime:xpcimports.obj
 0002:000044f0       ??_C@_0BF@NKGKKADL@StopVideo?5not?5found?6?$AA@ 1003e4f0     xpcruntime:xpcimports.obj
 0002:00004508       ??_C@_0O@MCPKDLLL@ConvertUImage?$AA@ 1003e508     xpcruntime:xpcimports.obj
 0002:00004518       ??_C@_0BJ@PHJKOAFL@ConvertUImage?5not?5found?6?$AA@ 1003e518     xpcruntime:xpcimports.obj
 0002:00004534       ??_C@_0BD@NKCBPBJJ@CreateVideoDisplay?$AA@ 1003e534     xpcruntime:xpcimports.obj
 0002:00004548       ??_C@_0BO@HPPLLNFP@CreateVideoDisplay?5not?5found?6?$AA@ 1003e548     xpcruntime:xpcimports.obj
 0002:00004568       ??_C@_0BE@KJCKGPHA@DestroyVideoDisplay?$AA@ 1003e568     xpcruntime:xpcimports.obj
 0002:0000457c       ??_C@_0BP@FMGLJAIJ@DestroyVideoDisplay?5not?5found?6?$AA@ 1003e57c     xpcruntime:xpcimports.obj
 0002:0000459c       ??_C@_0BC@HCMIMIDN@StartVideoDisplay?$AA@ 1003e59c     xpcruntime:xpcimports.obj
 0002:000045b0       ??_C@_0BN@EFIEBGOO@StartVideoDisplay?5not?5found?6?$AA@ 1003e5b0     xpcruntime:xpcimports.obj
 0002:000045d0       ??_C@_0BB@JBBLMILG@StopVideoDisplay?$AA@ 1003e5d0     xpcruntime:xpcimports.obj
 0002:000045e4       ??_C@_0BM@DBJBPLEL@StopVideoDisplay?5not?5found?6?$AA@ 1003e5e4     xpcruntime:xpcimports.obj
 0002:00004600       ??_C@_0M@MFJEGMHC@StreamVideo?$AA@ 1003e600     xpcruntime:xpcimports.obj
 0002:0000460c       ??_C@_0BH@OINCDMLA@StreamVideo?5not?5found?6?$AA@ 1003e60c     xpcruntime:xpcimports.obj
 0002:00004624       ??_C@_0N@IGGLCIGE@xpceaddEvent?$AA@ 1003e624     xpcruntime:xpcimports.obj
 0002:00004634       ??_C@_0BI@NHJNFMKH@xpceaddEvent?5not?5found?6?$AA@ 1003e634     xpcruntime:xpcimports.obj
 0002:0000464c       ??_C@_0BB@LCMHHHFN@getMemoryService?$AA@ 1003e64c     xpcruntime:xpcimports.obj
 0002:00004660       ??_C@_0BM@MPLCNIIE@getMemoryService?5not?5found?6?$AA@ 1003e660     xpcruntime:xpcimports.obj
 0002:0000467c       ??_C@_0P@KIKONDKK@getCommService?$AA@ 1003e67c     xpcruntime:xpcimports.obj
 0002:0000468c       ??_C@_0BK@NCECBKNM@getCommService?5not?5found?6?$AA@ 1003e68c     xpcruntime:xpcimports.obj
 0002:000046a8       ??_C@_0P@GDLHFECE@getStatusFlags?$AA@ 1003e6a8     xpcruntime:xpcimports.obj
 0002:000046b8       ??_C@_0BK@NEKDLJHG@getStatusFlags?5not?5found?6?$AA@ 1003e6b8     xpcruntime:xpcimports.obj
 0002:000046d4       ??_C@_0BL@CDFCLKOL@startToAsyncQueueTgtAppSvc?$AA@ 1003e6d4     xpcruntime:xpcimports.obj
 0002:000046f0       ??_C@_0CG@JGOFFKEL@startToAsyncQueueTgtAppSvc?5not?5f@ 1003e6f0     xpcruntime:xpcimports.obj
 0002:00004718       ??_C@_0BP@IJNGPPPE@terminateToAsyncQueueTgtAppSvc?$AA@ 1003e718     xpcruntime:xpcimports.obj
 0002:00004738       ??_C@_0CK@NDEMAMKF@terminateToAsyncQueueTgtAppSvc?5n@ 1003e738     xpcruntime:xpcimports.obj
 0002:00004764       ??_C@_0BK@IDACEHAO@sendToAsyncQueueTgtAppSvc?$AA@ 1003e764     xpcruntime:xpcimports.obj
 0002:00004780       ??_C@_0CF@PNCKPEHN@sendToAsyncQueueTgtAppSvc?5not?5fo@ 1003e780     xpcruntime:xpcimports.obj
 0002:000047a8       ??_C@_0BN@HJOHIFOM@xpceGetIntTimerGranularityNS?$AA@ 1003e7a8     xpcruntime:xpcimports.obj
 0002:000047c8       ??_C@_0CI@OADDPMKB@xpceGetIntTimerGranularityNS?5not@ 1003e7c8     xpcruntime:xpcimports.obj
 0002:000047f0       ??_C@_0BG@CCHICKPN@slrteSetStepSizeDelta?$AA@ 1003e7f0     xpcruntime:xpcimports.obj
 0002:00004808       ??_C@_0CB@MKHINEIJ@slrteSetStepSizeDelta?5not?5found?6@ 1003e808     xpcruntime:xpcimports.obj
 0002:0000482c       ??_C@_0BI@CLNBLDKJ@slrteGetCurrentStepSize?$AA@ 1003e82c     xpcruntime:xpcimports.obj
 0002:00004844       ??_C@_0CD@GIOJPGJA@slrteGetCurrentStepSize?5not?5foun@ 1003e844     xpcruntime:xpcimports.obj
 0002:00004868       ??_C@_0BE@FCLCBOC@registerPTPTimeRead?$AA@ 1003e868     xpcruntime:xpcimports.obj
 0002:0000487c       ??_C@_0BP@LHPKAJIP@registerPTPTimeRead?5not?5found?6?$AA@ 1003e87c     xpcruntime:xpcimports.obj
 0002:0000489c       ??_C@_0BG@KIGCDDJI@unRegisterPTPTimeRead?$AA@ 1003e89c     xpcruntime:xpcimports.obj
 0002:000048b4       ??_C@_0CB@MLFFBFCM@unRegisterPTPTimeRead?5not?5found?6@ 1003e8b4     xpcruntime:xpcimports.obj
 0002:000048d8       ??_C@_0BB@IPMDDBHK@slTestInitialize?$AA@ 1003e8d8     xpcruntime:xpcimports.obj
 0002:000048ec       ??_C@_0BM@LAJFCCJH@slTestInitialize?5not?5found?6?$AA@ 1003e8ec     xpcruntime:xpcimports.obj
 0002:00004908       ??_C@_0BF@OOMPMEBC@slTestLogAssessments?$AA@ 1003e908     xpcruntime:xpcimports.obj
 0002:00004920       ??_C@_0CA@FGJCEBAG@slTestLogAssessments?5not?5found?6?$AA@ 1003e920     xpcruntime:xpcimports.obj
 0002:00004940       ??_C@_0BB@HJHKONHO@slTestEvalOnFail?$AA@ 1003e940     xpcruntime:xpcimports.obj
 0002:00004954       ??_C@_0BM@JIKCFFNJ@slTestEvalOnFail?5not?5found?6?$AA@ 1003e954     xpcruntime:xpcimports.obj
 0002:00004970       ??_C@_0BA@LBHLABFP@slTestTerminate?$AA@ 1003e970     xpcruntime:xpcimports.obj
 0002:00004980       ??_C@_0BL@EMFGKAPA@slTestTerminate?5not?5found?6?$AA@ 1003e980     xpcruntime:xpcimports.obj
 0002:0000499c       ??_C@_0BE@JPNPBBEO@slTestRegAssessment?$AA@ 1003e99c     xpcruntime:xpcimports.obj
 0002:000049b0       ??_C@_0BP@FBDEJJJH@slTestRegAssessment?5not?5found?6?$AA@ 1003e9b0     xpcruntime:xpcimports.obj
 0002:000049d0       ??_C@_0O@NCLGDNIB@slrteSetupMSI?$AA@ 1003e9d0     xpcruntime:xpcimports.obj
 0002:000049e0       ??_C@_0BJ@HEFMECLM@slrteSetupMSI?5not?5found?6?$AA@ 1003e9e0     xpcruntime:xpcimports.obj
 0002:000049fc       ??_C@_0BH@BPOLALHD@slrtGetCRBScratchSpace?$AA@ 1003e9fc     xpcruntime:xpcimports.obj
 0002:00004a14       ??_C@_0CC@KCKAJKKJ@slrtGetCRBScratchSpace?5not?5found@ 1003ea14     xpcruntime:xpcimports.obj
 0002:00004a38       ??_C@_0BC@MKFDAKOL@slrtGetSgCRBSpace?$AA@ 1003ea38     xpcruntime:xpcimports.obj
 0002:00004a4c       ??_C@_0BN@JDPHPLHL@slrtGetSgCRBSpace?5not?5found?6?$AA@ 1003ea4c     xpcruntime:xpcimports.obj
 0002:00004a6c       ??_C@_0P@EPAPKLIF@slrtfsOpenFile?$AA@ 1003ea6c     xpcruntime:xpcimports.obj
 0002:00004a7c       ??_C@_0BK@FIHCBOHG@slrtfsOpenFile?5not?5found?6?$AA@ 1003ea7c     xpcruntime:xpcimports.obj
 0002:00004a98       ??_C@_0BA@LILAFDDL@slrtfsCloseFile?$AA@ 1003ea98     xpcruntime:xpcimports.obj
 0002:00004aa8       ??_C@_0BL@DEGHJFIB@slrtfsCloseFile?5not?5found?6?$AA@ 1003eaa8     xpcruntime:xpcimports.obj
 0002:00004ac4       ??_C@_0BC@OKMJDIEH@slrtfsWriteToFile?$AA@ 1003eac4     xpcruntime:xpcimports.obj
 0002:00004ad8       ??_C@_0BN@KCFLCLAH@slrtfsWriteToFile?5not?5found?6?$AA@ 1003ead8     xpcruntime:xpcimports.obj
 0002:00004af8       ??_C@_0BK@GIPNFFFF@slrtfsGetFileErrorMessage?$AA@ 1003eaf8     xpcruntime:xpcimports.obj
 0002:00004b14       ??_C@_0CF@BCBLMKLE@slrtfsGetFileErrorMessage?5not?5fo@ 1003eb14     xpcruntime:xpcimports.obj
 0002:00004b3c       ??_C@_0BD@ICBOKMK@slrtfsGetFileError?$AA@ 1003eb3c     xpcruntime:xpcimports.obj
 0002:00004b50       ??_C@_0BO@FNBANAE@slrtfsGetFileError?5not?5found?6?$AA@ 1003eb50     xpcruntime:xpcimports.obj
 0002:00004b70       ??_C@_0BE@PPAJMHJP@slrtfsOpenFileAsync?$AA@ 1003eb70     xpcruntime:xpcimports.obj
 0002:00004b84       ??_C@_0BP@HKBMMJOK@slrtfsOpenFileAsync?5not?5found?6?$AA@ 1003eb84     xpcruntime:xpcimports.obj
 0002:00004ba4       ??_C@_0BF@IGNDIBPF@slrtfsCloseFileAsync?$AA@ 1003eba4     xpcruntime:xpcimports.obj
 0002:00004bbc       ??_C@_0CA@GJPFDBKN@slrtfsCloseFileAsync?5not?5found?6?$AA@ 1003ebbc     xpcruntime:xpcimports.obj
 0002:00004bdc       ??_C@_0BE@IOLEBNB@slrtfsGetFileStatus?$AA@ 1003ebdc     xpcruntime:xpcimports.obj
 0002:00004bf0       ??_C@_0BP@PEFHDGHL@slrtfsGetFileStatus?5not?5found?6?$AA@ 1003ebf0     xpcruntime:xpcimports.obj
 0002:00004c10       ??_C@_0N@IDKFJOHI@getlasterror?$AA@ 1003ec10     xpcruntime:xpcimports.obj
 0002:00004c20       ??_C@_0BI@MIHMCHGL@getlasterror?5not?5found?6?$AA@ 1003ec20     xpcruntime:xpcimports.obj
 0002:00004c38       ??_C@_0N@EAAOMIIE@isUsedByRTIP?$AA@ 1003ec38     xpcruntime:xpcimports.obj
 0002:00004c48       ??_C@_0BI@GNHHHICK@isUsedByRTIP?5not?5found?6?$AA@ 1003ec48     xpcruntime:xpcimports.obj
 0002:00004c60       ??_C@_0BC@HLDKJAG@SetIPTASKPriority?$AA@ 1003ec60     xpcruntime:xpcimports.obj
 0002:00004c74       ??_C@_0BN@OGKMHHAE@SetIPTASKPriority?5not?5found?6?$AA@ 1003ec74     xpcruntime:xpcimports.obj
 0002:00004c94       ??_C@_0O@LHENMBDD@OpenInterface?$AA@ 1003ec94     xpcruntime:xpcimports.obj
 0002:00004ca4       ??_C@_0BJ@PFGDBKHB@OpenInterface?5not?5found?6?$AA@ 1003eca4     xpcruntime:xpcimports.obj
 0002:00004cc0       ??_C@_0P@IINFELKD@CloseInterface?$AA@ 1003ecc0     xpcruntime:xpcimports.obj
 0002:00004cd0       ??_C@_0BK@PAPDNDBK@CloseInterface?5not?5found?6?$AA@ 1003ecd0     xpcruntime:xpcimports.obj
 0002:00004cec       ??_C@_05LEFIAAOI@SetIP?$AA@ 1003ecec     xpcruntime:xpcimports.obj
 0002:00004cf4       ??_C@_0BB@CGLIBAMM@SetIP?5not?5found?6?$AA@ 1003ecf4     xpcruntime:xpcimports.obj
 0002:00004d08       ??_C@_0BA@HIJJHHMD@AddGatewayRoute?$AA@ 1003ed08     xpcruntime:xpcimports.obj
 0002:00004d18       ??_C@_0BL@BFCFMDMN@AddGatewayRoute?5not?5found?6?$AA@ 1003ed18     xpcruntime:xpcimports.obj
 0002:00004d34       ??_C@_0M@PHMABFPI@DeleteRoute?$AA@ 1003ed34     xpcruntime:xpcimports.obj
 0002:00004d40       ??_C@_0BH@JPJGLLID@DeleteRoute?5not?5found?6?$AA@ 1003ed40     xpcruntime:xpcimports.obj
 0002:00004d58       ??_C@_0BA@FCDIMKIJ@GetHostTarIPAdd?$AA@ 1003ed58     xpcruntime:xpcimports.obj
 0002:00004d68       ??_C@_0BL@MBKDGKBO@GetHostTarIPAdd?5not?5found?6?$AA@ 1003ed68     xpcruntime:xpcimports.obj
 0002:00004d84       ??_C@_0M@HPMIPIBI@GetDCUUsage?$AA@ 1003ed84     xpcruntime:xpcimports.obj
 0002:00004d90       ??_C@_0BH@EBLJKCJC@GetDCUUsage?5not?5found?6?$AA@ 1003ed90     xpcruntime:xpcimports.obj
 0002:00004da8       ??_C@_06MPKMECK@accept?$AA@ 1003eda8     xpcruntime:xpcimports.obj
 0002:00004db0       ??_C@_0BC@GBGIEMNO@accept?5not?5found?6?$AA@ 1003edb0     xpcruntime:xpcimports.obj
 0002:00004dc4       ??_C@_04NPNJNMMP@bind?$AA@ 1003edc4     xpcruntime:xpcimports.obj
 0002:00004dcc       ??_C@_0BA@DAJNENLO@bind?5not?5found?6?$AA@ 1003edcc     xpcruntime:xpcimports.obj
 0002:00004ddc       ??_C@_0L@CKHNIFCM@setsockopt?$AA@ 1003eddc     xpcruntime:xpcimports.obj
 0002:00004de8       ??_C@_0BG@MFIIOMFE@setsockopt?5not?5found?6?$AA@ 1003ede8     xpcruntime:xpcimports.obj
 0002:00004e00       ??_C@_0M@ODDJDCDK@closesocket?$AA@ 1003ee00     xpcruntime:xpcimports.obj
 0002:00004e0c       ??_C@_0BH@JHGHMIL@closesocket?5not?5found?6?$AA@ 1003ee0c     xpcruntime:xpcimports.obj
 0002:00004e24       ??_C@_07KAIBNCHO@connect?$AA@ 1003ee24     xpcruntime:xpcimports.obj
 0002:00004e2c       ??_C@_0BD@MKLLMBM@connect?5not?5found?6?$AA@ 1003ee2c     xpcruntime:xpcimports.obj
 0002:00004e40       ??_C@_0M@PBPOCKDG@ioctlsocket?$AA@ 1003ee40     xpcruntime:xpcimports.obj
 0002:00004e4c       ??_C@_0BH@NFCNHHIH@ioctlsocket?5not?5found?6?$AA@ 1003ee4c     xpcruntime:xpcimports.obj
 0002:00004e64       ??_C@_06OODDLKLE@listen?$AA@ 1003ee64     xpcruntime:xpcimports.obj
 0002:00004e6c       ??_C@_0BC@NHBILEKI@listen?5not?5found?6?$AA@ 1003ee6c     xpcruntime:xpcimports.obj
 0002:00004e80       ??_C@_08HMBBGFHE@recvfrom?$AA@ 1003ee80     xpcruntime:xpcimports.obj
 0002:00004e8c       ??_C@_0BE@BJAJFFLF@recvfrom?5not?5found?6?$AA@ 1003ee8c     xpcruntime:xpcimports.obj
 0002:00004ea0       ??_C@_06MEPBGKEC@sendto?$AA@ 1003eea0     xpcruntime:xpcimports.obj
 0002:00004ea8       ??_C@_0BC@BHPIMDJO@sendto?5not?5found?6?$AA@ 1003eea8     xpcruntime:xpcimports.obj
 0002:00004ebc       ??_C@_09JKBDEEOB@inet_addr?$AA@ 1003eebc     xpcruntime:xpcimports.obj
 0002:00004ec8       ??_C@_0BF@HKJPGECN@inet_addr?5not?5found?6?$AA@ 1003eec8     xpcruntime:xpcimports.obj
 0002:00004ee0       ??_C@_06HBELJPBO@socket?$AA@ 1003eee0     xpcruntime:xpcimports.obj
 0002:00004ee8       ??_C@_0BC@NAGFFJGA@socket?5not?5found?6?$AA@ 1003eee8     xpcruntime:xpcimports.obj
 0002:00004efc       __FPinit                   1003eefc     LIBCMT:fpinit.obj
 0002:00004f08       ??_C@_1BI@BGOHAHKC@?$AAm?$AAs?$AAc?$AAo?$AAr?$AAe?$AAe?$AA?4?$AAd?$AAl?$AAl?$AA?$AA@ 1003ef08     LIBCMT:crt0dat.obj
 0002:00004f20       ??_C@_0P@MIGLKIOC@CorExitProcess?$AA@ 1003ef20     LIBCMT:crt0dat.obj
 0002:00004f30       ??_C@_17LGKOMLJ@?$AA?4?$AA?4?$AA?4?$AA?$AA@ 1003ef30     LIBCMT:wassert.obj
 0002:00004f38       ??_C@_13LBAGMAIH@?$AA?6?$AA?$AA@ 1003ef38     LIBCMT:wassert.obj
 0002:00004f3c       ??_C@_15IABLJNFO@?$AA?6?$AA?6?$AA?$AA@ 1003ef3c     LIBCMT:wassert.obj
 0002:00004f44       ??_C@_1CE@OJBNHDMO@?$AAA?$AAs?$AAs?$AAe?$AAr?$AAt?$AAi?$AAo?$AAn?$AA?5?$AAf?$AAa?$AAi?$AAl?$AAe?$AAd?$AA?$CB?$AA?$AA@ 1003ef44     LIBCMT:wassert.obj
 0002:00004f68       ??_C@_1BE@PHKBBGE@?$AAP?$AAr?$AAo?$AAg?$AAr?$AAa?$AAm?$AA?3?$AA?5?$AA?$AA@ 1003ef68     LIBCMT:wassert.obj
 0002:00004f7c       ??_C@_1CO@EAEJAADC@?$AA?$DM?$AAp?$AAr?$AAo?$AAg?$AAr?$AAa?$AAm?$AA?5?$AAn?$AAa?$AAm?$AAe?$AA?5?$AAu?$AAn?$AAk?$AAn?$AAo?$AAw?$AAn?$AA?$DO?$AA?$AA@ 1003ef7c     LIBCMT:wassert.obj
 0002:00004fac       ??_C@_1O@HEMHKNDC@?$AAF?$AAi?$AAl?$AAe?$AA?3?$AA?5?$AA?$AA@ 1003efac     LIBCMT:wassert.obj
 0002:00004fbc       ??_C@_1O@KCAFKHJE@?$AAL?$AAi?$AAn?$AAe?$AA?3?$AA?5?$AA?$AA@ 1003efbc     LIBCMT:wassert.obj
 0002:00004fcc       ??_C@_1BK@PEDCIPMA@?$AAE?$AAx?$AAp?$AAr?$AAe?$AAs?$AAs?$AAi?$AAo?$AAn?$AA?3?$AA?5?$AA?$AA@ 1003efcc     LIBCMT:wassert.obj
 0002:00004fe8       ??_C@_1OA@EGMLFBHJ@?$AAF?$AAo?$AAr?$AA?5?$AAi?$AAn?$AAf?$AAo?$AAr?$AAm?$AAa?$AAt?$AAi?$AAo?$AAn?$AA?5?$AAo?$AAn?$AA?5?$AAh?$AAo?$AAw?$AA?5?$AAy?$AAo?$AAu?$AAr?$AA?5?$AAp?$AAr?$AAo?$AAg@ 1003efe8     LIBCMT:wassert.obj
 0002:000050c8       ??_C@_1HK@POCJMFGK@?$AA?$CI?$AAP?$AAr?$AAe?$AAs?$AAs?$AA?5?$AAR?$AAe?$AAt?$AAr?$AAy?$AA?5?$AAt?$AAo?$AA?5?$AAd?$AAe?$AAb?$AAu?$AAg?$AA?5?$AAt?$AAh?$AAe?$AA?5?$AAa?$AAp?$AAp?$AAl?$AAi?$AAc@ 1003f0c8     LIBCMT:wassert.obj
 0002:00005148       ??_C@_1EK@MBDPDCGA@?$AAM?$AAi?$AAc?$AAr?$AAo?$AAs?$AAo?$AAf?$AAt?$AA?5?$AAV?$AAi?$AAs?$AAu?$AAa?$AAl?$AA?5?$AAC?$AA?$CL?$AA?$CL?$AA?5?$AAR?$AAu?$AAn?$AAt?$AAi?$AAm?$AAe?$AA?5?$AAL?$AAi?$AAb@ 1003f148     LIBCMT:wassert.obj
 0002:00005194       __pDefaultRawDllMain       1003f194     LIBCMT:dllcrt0.obj
 0002:00005194       __pRawDllMain              1003f194     LIBCMT:dllcrt0.obj
 0002:00005198       ?ProcessDetach@NativeDll@<CrtImplementationDetails>@@0IB 1003f198     LIBCMT:handler.obj
 0002:0000519c       ?ProcessAttach@NativeDll@<CrtImplementationDetails>@@0IB 1003f19c     LIBCMT:handler.obj
 0002:000051a0       ?ThreadAttach@NativeDll@<CrtImplementationDetails>@@0IB 1003f1a0     LIBCMT:handler.obj
 0002:000051a4       ?ThreadDetach@NativeDll@<CrtImplementationDetails>@@0IB 1003f1a4     LIBCMT:handler.obj
 0002:000051a8       ?ProcessVerifier@NativeDll@<CrtImplementationDetails>@@0IB 1003f1a8     LIBCMT:handler.obj
 0002:00005268       ??_C@_1FK@PGACCAFB@?$AAR?$AA6?$AA0?$AA0?$AA2?$AA?$AN?$AA?6?$AA?9?$AA?5?$AAf?$AAl?$AAo?$AAa?$AAt?$AAi?$AAn?$AAg?$AA?5?$AAp?$AAo?$AAi?$AAn?$AAt?$AA?5?$AAs?$AAu?$AAp?$AAp?$AAo?$AAr?$AAt?$AA?5@ 1003f268     LIBCMT:crt0msg.obj
 0002:000052c8       ??_C@_1FE@LLNEDJMD@?$AAR?$AA6?$AA0?$AA0?$AA8?$AA?$AN?$AA?6?$AA?9?$AA?5?$AAn?$AAo?$AAt?$AA?5?$AAe?$AAn?$AAo?$AAu?$AAg?$AAh?$AA?5?$AAs?$AAp?$AAa?$AAc?$AAe?$AA?5?$AAf?$AAo?$AAr?$AA?5?$AAa?$AAr@ 1003f2c8     LIBCMT:crt0msg.obj
 0002:00005320       ??_C@_1FI@HONFMGBI@?$AAR?$AA6?$AA0?$AA0?$AA9?$AA?$AN?$AA?6?$AA?9?$AA?5?$AAn?$AAo?$AAt?$AA?5?$AAe?$AAn?$AAo?$AAu?$AAg?$AAh?$AA?5?$AAs?$AAp?$AAa?$AAc?$AAe?$AA?5?$AAf?$AAo?$AAr?$AA?5?$AAe?$AAn@ 1003f320     LIBCMT:crt0msg.obj
 0002:00005378       ??_C@_1EG@BEHAGFJD@?$AAR?$AA6?$AA0?$AA1?$AA0?$AA?$AN?$AA?6?$AA?9?$AA?5?$AAa?$AAb?$AAo?$AAr?$AAt?$AA?$CI?$AA?$CJ?$AA?5?$AAh?$AAa?$AAs?$AA?5?$AAb?$AAe?$AAe?$AAn?$AA?5?$AAc?$AAa?$AAl?$AAl?$AAe?$AAd@ 1003f378     LIBCMT:crt0msg.obj
 0002:000053c0       ??_C@_1FI@LOGNIKDM@?$AAR?$AA6?$AA0?$AA1?$AA6?$AA?$AN?$AA?6?$AA?9?$AA?5?$AAn?$AAo?$AAt?$AA?5?$AAe?$AAn?$AAo?$AAu?$AAg?$AAh?$AA?5?$AAs?$AAp?$AAa?$AAc?$AAe?$AA?5?$AAf?$AAo?$AAr?$AA?5?$AAt?$AAh@ 1003f3c0     LIBCMT:crt0msg.obj
 0002:00005418       ??_C@_1FK@BEOGODMC@?$AAR?$AA6?$AA0?$AA1?$AA7?$AA?$AN?$AA?6?$AA?9?$AA?5?$AAu?$AAn?$AAe?$AAx?$AAp?$AAe?$AAc?$AAt?$AAe?$AAd?$AA?5?$AAm?$AAu?$AAl?$AAt?$AAi?$AAt?$AAh?$AAr?$AAe?$AAa?$AAd?$AA?5@ 1003f418     LIBCMT:crt0msg.obj
 0002:00005478       ??_C@_1EC@JIBHAOPH@?$AAR?$AA6?$AA0?$AA1?$AA8?$AA?$AN?$AA?6?$AA?9?$AA?5?$AAu?$AAn?$AAe?$AAx?$AAp?$AAe?$AAc?$AAt?$AAe?$AAd?$AA?5?$AAh?$AAe?$AAa?$AAp?$AA?5?$AAe?$AAr?$AAr?$AAo?$AAr?$AA?$AN?$AA?6@ 1003f478     LIBCMT:crt0msg.obj
 0002:000054c0       ??_C@_1FC@ECHBIFBC@?$AAR?$AA6?$AA0?$AA1?$AA9?$AA?$AN?$AA?6?$AA?9?$AA?5?$AAu?$AAn?$AAa?$AAb?$AAl?$AAe?$AA?5?$AAt?$AAo?$AA?5?$AAo?$AAp?$AAe?$AAn?$AA?5?$AAc?$AAo?$AAn?$AAs?$AAo?$AAl?$AAe?$AA?5@ 1003f4c0     LIBCMT:crt0msg.obj
 0002:00005518       ??_C@_1GK@FHCKBEFA@?$AAR?$AA6?$AA0?$AA2?$AA4?$AA?$AN?$AA?6?$AA?9?$AA?5?$AAn?$AAo?$AAt?$AA?5?$AAe?$AAn?$AAo?$AAu?$AAg?$AAh?$AA?5?$AAs?$AAp?$AAa?$AAc?$AAe?$AA?5?$AAf?$AAo?$AAr?$AA?5?$AA_?$AAo@ 1003f518     LIBCMT:crt0msg.obj
 0002:00005588       ??_C@_1EM@MAADIHMB@?$AAR?$AA6?$AA0?$AA2?$AA5?$AA?$AN?$AA?6?$AA?9?$AA?5?$AAp?$AAu?$AAr?$AAe?$AA?5?$AAv?$AAi?$AAr?$AAt?$AAu?$AAa?$AAl?$AA?5?$AAf?$AAu?$AAn?$AAc?$AAt?$AAi?$AAo?$AAn?$AA?5?$AAc@ 1003f588     LIBCMT:crt0msg.obj
 0002:000055d8       ??_C@_1GK@MCAAGJMO@?$AAR?$AA6?$AA0?$AA2?$AA6?$AA?$AN?$AA?6?$AA?9?$AA?5?$AAn?$AAo?$AAt?$AA?5?$AAe?$AAn?$AAo?$AAu?$AAg?$AAh?$AA?5?$AAs?$AAp?$AAa?$AAc?$AAe?$AA?5?$AAf?$AAo?$AAr?$AA?5?$AAs?$AAt@ 1003f5d8     LIBCMT:crt0msg.obj
 0002:00005648       ??_C@_1GK@MFGOKLAG@?$AAR?$AA6?$AA0?$AA2?$AA7?$AA?$AN?$AA?6?$AA?9?$AA?5?$AAn?$AAo?$AAt?$AA?5?$AAe?$AAn?$AAo?$AAu?$AAg?$AAh?$AA?5?$AAs?$AAp?$AAa?$AAc?$AAe?$AA?5?$AAf?$AAo?$AAr?$AA?5?$AAl?$AAo@ 1003f648     LIBCMT:crt0msg.obj
 0002:000056b8       ??_C@_1EK@HHFLMAOL@?$AAR?$AA6?$AA0?$AA2?$AA8?$AA?$AN?$AA?6?$AA?9?$AA?5?$AAu?$AAn?$AAa?$AAb?$AAl?$AAe?$AA?5?$AAt?$AAo?$AA?5?$AAi?$AAn?$AAi?$AAt?$AAi?$AAa?$AAl?$AAi?$AAz?$AAe?$AA?5?$AAh?$AAe@ 1003f6b8     LIBCMT:crt0msg.obj
 0002:00005704       ??_C@_1DO@BMFCDCD@?$AAR?$AA6?$AA0?$AA3?$AA0?$AA?$AN?$AA?6?$AA?9?$AA?5?$AAC?$AAR?$AAT?$AA?5?$AAn?$AAo?$AAt?$AA?5?$AAi?$AAn?$AAi?$AAt?$AAi?$AAa?$AAl?$AAi?$AAz?$AAe?$AAd?$AA?$AN?$AA?6?$AA?$AA@ 1003f704     LIBCMT:crt0msg.obj
 0002:00005748       ??_C@_1MG@ENCOOIDF@?$AAR?$AA6?$AA0?$AA3?$AA1?$AA?$AN?$AA?6?$AA?9?$AA?5?$AAA?$AAt?$AAt?$AAe?$AAm?$AAp?$AAt?$AA?5?$AAt?$AAo?$AA?5?$AAi?$AAn?$AAi?$AAt?$AAi?$AAa?$AAl?$AAi?$AAz?$AAe?$AA?5?$AAt@ 1003f748     LIBCMT:crt0msg.obj
 0002:00005810       ??_C@_1GG@GOPILAJP@?$AAR?$AA6?$AA0?$AA3?$AA2?$AA?$AN?$AA?6?$AA?9?$AA?5?$AAn?$AAo?$AAt?$AA?5?$AAe?$AAn?$AAo?$AAu?$AAg?$AAh?$AA?5?$AAs?$AAp?$AAa?$AAc?$AAe?$AA?5?$AAf?$AAo?$AAr?$AA?5?$AAl?$AAo@ 1003f810     LIBCMT:crt0msg.obj
 0002:00005878       ??_C@_1BOO@KGEDBGAJ@?$AAR?$AA6?$AA0?$AA3?$AA3?$AA?$AN?$AA?6?$AA?9?$AA?5?$AAA?$AAt?$AAt?$AAe?$AAm?$AAp?$AAt?$AA?5?$AAt?$AAo?$AA?5?$AAu?$AAs?$AAe?$AA?5?$AAM?$AAS?$AAI?$AAL?$AA?5?$AAc?$AAo?$AAd@ 1003f878     LIBCMT:crt0msg.obj
 0002:00005a68       ??_C@_1GG@MKFPEKFO@?$AAR?$AA6?$AA0?$AA3?$AA4?$AA?$AN?$AA?6?$AA?9?$AA?5?$AAi?$AAn?$AAc?$AAo?$AAn?$AAs?$AAi?$AAs?$AAt?$AAe?$AAn?$AAt?$AA?5?$AAo?$AAn?$AAe?$AAx?$AAi?$AAt?$AA?5?$AAb?$AAe?$AAg@ 1003fa68     LIBCMT:crt0msg.obj
 0002:00005ad0       ??_C@_1BO@BFCDCGC@?$AAD?$AAO?$AAM?$AAA?$AAI?$AAN?$AA?5?$AAe?$AAr?$AAr?$AAo?$AAr?$AA?$AN?$AA?6?$AA?$AA@ 1003fad0     LIBCMT:crt0msg.obj
 0002:00005af0       ??_C@_1BK@KMOMNAAI@?$AAS?$AAI?$AAN?$AAG?$AA?5?$AAe?$AAr?$AAr?$AAo?$AAr?$AA?$AN?$AA?6?$AA?$AA@ 1003faf0     LIBCMT:crt0msg.obj
 0002:00005b0c       ??_C@_1BM@JBBEPPHI@?$AAT?$AAL?$AAO?$AAS?$AAS?$AA?5?$AAe?$AAr?$AAr?$AAo?$AAr?$AA?$AN?$AA?6?$AA?$AA@ 1003fb0c     LIBCMT:crt0msg.obj
 0002:00005b28       ??_C@_15JNBOKNOG@?$AA?$AN?$AA?6?$AA?$AA@ 1003fb28     LIBCMT:crt0msg.obj
 0002:00005b30       ??_C@_1BO@BKOMIGKJ@?$AAr?$AAu?$AAn?$AAt?$AAi?$AAm?$AAe?$AA?5?$AAe?$AAr?$AAr?$AAo?$AAr?$AA?5?$AA?$AA@ 1003fb30     LIBCMT:crt0msg.obj
 0002:00005b50       ??_C@_1DE@JNGNBFGO@?$AAR?$AAu?$AAn?$AAt?$AAi?$AAm?$AAe?$AA?5?$AAE?$AAr?$AAr?$AAo?$AAr?$AA?$CB?$AA?6?$AA?6?$AAP?$AAr?$AAo?$AAg?$AAr?$AAa?$AAm?$AA?3?$AA?5?$AA?$AA@ 1003fb50     LIBCMT:crt0msg.obj
 0002:00005b84       ??_C@_05KLBDPFGC@e?$CL000?$AA@ 1003fb84     LIBCMT:cvt.obj
 0002:00005b8c       ??_C@_0BE@JOGNEJCI@GetCurrentPackageId?$AA@ 1003fb8c     LIBCMT:winapisupp.obj
 0002:00005ba0       ??_C@_1BK@MGMFAEKH@?$AAk?$AAe?$AAr?$AAn?$AAe?$AAl?$AA3?$AA2?$AA?4?$AAd?$AAl?$AAl?$AA?$AA@ 1003fba0     LIBCMT:winapisupp.obj
 0002:00005bbc       ??_C@_1BK@GAEMIDIL@?$AAA?$AAD?$AAV?$AAA?$AAP?$AAI?$AA3?$AA2?$AA?4?$AAD?$AAL?$AAL?$AA?$AA@ 1003fbbc     LIBCMT:rand_s.obj
 0002:00005bd8       ??_C@_0BC@JEAENNKH@SystemFunction036?$AA@ 1003fbd8     LIBCMT:rand_s.obj
 0002:00005bfc       ??_C@_1M@HPNHIDJI@?$AAj?$AAa?$AA?9?$AAJ?$AAP?$AA?$AA@ 1003fbfc     LIBCMT:mbctype.obj
 0002:00005c08       ??_C@_1M@BIBDDEMK@?$AAz?$AAh?$AA?9?$AAC?$AAN?$AA?$AA@ 1003fc08     LIBCMT:mbctype.obj
 0002:00005c14       ??_C@_1M@JLOOOEGK@?$AAk?$AAo?$AA?9?$AAK?$AAR?$AA?$AA@ 1003fc14     LIBCMT:mbctype.obj
 0002:00005c20       ??_C@_1M@CLNBBOPM@?$AAz?$AAh?$AA?9?$AAT?$AAW?$AA?$AA@ 1003fc20     LIBCMT:mbctype.obj
 0002:00005c4c       ??_C@_06OJHGLDPL@?$CInull?$CJ?$AA@ 1003fc4c     LIBCMT:output.obj
 0002:00005c54       ??_C@_1O@CEDCILHN@?$AA?$CI?$AAn?$AAu?$AAl?$AAl?$AA?$CJ?$AA?$AA@ 1003fc54     LIBCMT:output.obj
 0002:00005c68       ___lookuptable             1003fc68     LIBCMT:output.obj
 0002:00005cc4       ??_C@_03KHJOGHMM@exp?$AA@  1003fcc4     LIBCMT:fpexcept.obj
 0002:00005cc8       ??_C@_03JGHBODFD@pow?$AA@  1003fcc8     LIBCMT:fpexcept.obj
 0002:00005ccc       ??_C@_03MGHMBJCF@log?$AA@  1003fccc     LIBCMT:fpexcept.obj
 0002:00005cd0       ??_C@_05HGHHAHAP@log10?$AA@ 1003fcd0     LIBCMT:fpexcept.obj
 0002:00005cd8       ??_C@_04COOMCNPB@sinh?$AA@ 1003fcd8     LIBCMT:fpexcept.obj
 0002:00005ce0       ??_C@_04HPJJNFIM@cosh?$AA@ 1003fce0     LIBCMT:fpexcept.obj
 0002:00005ce8       ??_C@_04FJHINJAO@tanh?$AA@ 1003fce8     LIBCMT:fpexcept.obj
 0002:00005cf0       ??_C@_04FIHNOPOL@asin?$AA@ 1003fcf0     LIBCMT:fpexcept.obj
 0002:00005cf8       ??_C@_04PDIFKINK@acos?$AA@ 1003fcf8     LIBCMT:fpexcept.obj
 0002:00005d00       ??_C@_04MLLJIGOK@atan?$AA@ 1003fd00     LIBCMT:fpexcept.obj
 0002:00005d08       ??_C@_05KNGEOGJB@atan2?$AA@ 1003fd08     LIBCMT:fpexcept.obj
 0002:00005d10       ??_C@_04EIAKFFMI@sqrt?$AA@ 1003fd10     LIBCMT:fpexcept.obj
 0002:00005d18       ??_C@_03BLEJJJBH@sin?$AA@  1003fd18     LIBCMT:fpexcept.obj
 0002:00005d1c       ??_C@_03LALBNOCG@cos?$AA@  1003fd1c     LIBCMT:fpexcept.obj
 0002:00005d20       ??_C@_03IIINPABG@tan?$AA@  1003fd20     LIBCMT:fpexcept.obj
 0002:00005d24       ??_C@_04GFPJNGEK@ceil?$AA@ 1003fd24     LIBCMT:fpexcept.obj
 0002:00005d2c       ??_C@_05PBJFFIGL@floor?$AA@ 1003fd2c     LIBCMT:fpexcept.obj
 0002:00005d34       ??_C@_04ODHECPBC@fabs?$AA@ 1003fd34     LIBCMT:fpexcept.obj
 0002:00005d3c       ??_C@_04EHEDPDJG@modf?$AA@ 1003fd3c     LIBCMT:fpexcept.obj
 0002:00005d44       ??_C@_05CEJMAHNP@ldexp?$AA@ 1003fd44     LIBCMT:fpexcept.obj
 0002:00005d4c       ??_C@_05KBKMEMPO@_cabs?$AA@ 1003fd4c     LIBCMT:fpexcept.obj
 0002:00005d54       ??_C@_06MEIMCGCF@_hypot?$AA@ 1003fd54     LIBCMT:fpexcept.obj
 0002:00005d5c       ??_C@_04KEPJIHGP@fmod?$AA@ 1003fd5c     LIBCMT:fpexcept.obj
 0002:00005d64       ??_C@_05GKKHEGJL@frexp?$AA@ 1003fd64     LIBCMT:fpexcept.obj
 0002:00005d6c       ??_C@_03MJLDFKDL@_y0?$AA@  1003fd6c     LIBCMT:fpexcept.obj
 0002:00005d70       ??_C@_03NAKIGLHK@_y1?$AA@  1003fd70     LIBCMT:fpexcept.obj
 0002:00005d74       ??_C@_03ONILCKOB@_yn?$AA@  1003fd74     LIBCMT:fpexcept.obj
 0002:00005d78       ??_C@_05JGDBENOH@_logb?$AA@ 1003fd78     LIBCMT:fpexcept.obj
 0002:00005d80       ??_C@_0L@KDOEJCKC@_nextafter?$AA@ 1003fd80     LIBCMT:fpexcept.obj
 0002:00005d8c       ??_C@_1BG@GOEBHBDC@?$AAU?$AAS?$AAE?$AAR?$AA3?$AA2?$AA?4?$AAD?$AAL?$AAL?$AA?$AA@ 1003fd8c     LIBCMT:crtmboxw.obj
 0002:00005da4       ??_C@_0M@DLDCCGNP@MessageBoxW?$AA@ 1003fda4     LIBCMT:crtmboxw.obj
 0002:00005db0       ??_C@_0BA@HNOPNCHB@GetActiveWindow?$AA@ 1003fdb0     LIBCMT:crtmboxw.obj
 0002:00005dc0       ??_C@_0BD@HHGDFDBJ@GetLastActivePopup?$AA@ 1003fdc0     LIBCMT:crtmboxw.obj
 0002:00005dd4       ??_C@_0BK@DEKFELLI@GetUserObjectInformationW?$AA@ 1003fdd4     LIBCMT:crtmboxw.obj
 0002:00005df0       ??_C@_0BI@DFKBFLJE@GetProcessWindowStation?$AA@ 1003fdf0     LIBCMT:crtmboxw.obj
 0002:00005e08       __XcptActTab               1003fe08     LIBCMT:winxfltr.obj
 0002:00005e98       __XcptActTabCount          1003fe98     LIBCMT:winxfltr.obj
 0002:00005e9c       __XcptActTabSize           1003fe9c     LIBCMT:winxfltr.obj
 0002:00005ea0       __First_FPE_Indx           1003fea0     LIBCMT:winxfltr.obj
 0002:00005ea4       __Num_FPE                  1003fea4     LIBCMT:winxfltr.obj
 0002:00005ea8       ??_C@_03KOEHGMDN@Sun?$AA@  1003fea8     LIBCMT:nlsdata.obj
 0002:00005eac       ??_C@_03PDAGKDH@Mon?$AA@   1003feac     LIBCMT:nlsdata.obj
 0002:00005eb0       ??_C@_03NAGEINEP@Tue?$AA@  1003feb0     LIBCMT:nlsdata.obj
 0002:00005eb4       ??_C@_03MHOMLAJA@Wed?$AA@  1003feb4     LIBCMT:nlsdata.obj
 0002:00005eb8       ??_C@_03IOFIKPDN@Thu?$AA@  1003feb8     LIBCMT:nlsdata.obj
 0002:00005ebc       ??_C@_03IDIOELNC@Fri?$AA@  1003febc     LIBCMT:nlsdata.obj
 0002:00005ec0       ??_C@_03FEFJNEK@Sat?$AA@   1003fec0     LIBCMT:nlsdata.obj
 0002:00005ec4       ??_C@_06OOPIFAJ@Sunday?$AA@ 1003fec4     LIBCMT:nlsdata.obj
 0002:00005ecc       ??_C@_06JLEDEDGH@Monday?$AA@ 1003fecc     LIBCMT:nlsdata.obj
 0002:00005ed4       ??_C@_07BAAGCFCM@Tuesday?$AA@ 1003fed4     LIBCMT:nlsdata.obj
 0002:00005edc       ??_C@_09DLIGFAKA@Wednesday?$AA@ 1003fedc     LIBCMT:nlsdata.obj
 0002:00005ee8       ??_C@_08HACCIKIA@Thursday?$AA@ 1003fee8     LIBCMT:nlsdata.obj
 0002:00005ef4       ??_C@_06JECMNKMI@Friday?$AA@ 1003fef4     LIBCMT:nlsdata.obj
 0002:00005efc       ??_C@_08INBOOONO@Saturday?$AA@ 1003fefc     LIBCMT:nlsdata.obj
 0002:00005f08       ??_C@_03JIHJHPIE@Jan?$AA@  1003ff08     LIBCMT:nlsdata.obj
 0002:00005f0c       ??_C@_03HJBDCHOM@Feb?$AA@  1003ff0c     LIBCMT:nlsdata.obj
 0002:00005f10       ??_C@_03ODNJBKGA@Mar?$AA@  1003ff10     LIBCMT:nlsdata.obj
 0002:00005f14       ??_C@_03LEOLGMJP@Apr?$AA@  1003ff14     LIBCMT:nlsdata.obj
 0002:00005f18       ??_C@_03CNMDKL@May?$AA@    1003ff18     LIBCMT:nlsdata.obj
 0002:00005f1c       ??_C@_03IDFGHECI@Jun?$AA@  1003ff1c     LIBCMT:nlsdata.obj
 0002:00005f20       ??_C@_03LBGABGKK@Jul?$AA@  1003ff20     LIBCMT:nlsdata.obj
 0002:00005f24       ??_C@_03IFJFEIGA@Aug?$AA@  1003ff24     LIBCMT:nlsdata.obj
 0002:00005f28       ??_C@_03GGCAPAJC@Sep?$AA@  1003ff28     LIBCMT:nlsdata.obj
 0002:00005f2c       ??_C@_03BMAOKBAD@Oct?$AA@  1003ff2c     LIBCMT:nlsdata.obj
 0002:00005f30       ??_C@_03JPJOFNIA@Nov?$AA@  1003ff30     LIBCMT:nlsdata.obj
 0002:00005f34       ??_C@_03MKABNOCG@Dec?$AA@  1003ff34     LIBCMT:nlsdata.obj
 0002:00005f38       ??_C@_07CGJPFGJA@January?$AA@ 1003ff38     LIBCMT:nlsdata.obj
 0002:00005f40       ??_C@_08GNJGEPFN@February?$AA@ 1003ff40     LIBCMT:nlsdata.obj
 0002:00005f4c       ??_C@_05HPCKOFNC@March?$AA@ 1003ff4c     LIBCMT:nlsdata.obj
 0002:00005f54       ??_C@_05DMJDNLEJ@April?$AA@ 1003ff54     LIBCMT:nlsdata.obj
 0002:00005f5c       ??_C@_04CNLMGBGM@June?$AA@ 1003ff5c     LIBCMT:nlsdata.obj
 0002:00005f64       ??_C@_04MIEPOIFP@July?$AA@ 1003ff64     LIBCMT:nlsdata.obj
 0002:00005f6c       ??_C@_06LBBHFDDG@August?$AA@ 1003ff6c     LIBCMT:nlsdata.obj
 0002:00005f74       ??_C@_09BHHEALKD@September?$AA@ 1003ff74     LIBCMT:nlsdata.obj
 0002:00005f80       ??_C@_07JJNFCEND@October?$AA@ 1003ff80     LIBCMT:nlsdata.obj
 0002:00005f88       ??_C@_08HCHEGEOA@November?$AA@ 1003ff88     LIBCMT:nlsdata.obj
 0002:00005f94       ??_C@_08EDHMEBNP@December?$AA@ 1003ff94     LIBCMT:nlsdata.obj
 0002:00005fa0       ??_C@_02DEDBPAFC@AM?$AA@   1003ffa0     LIBCMT:nlsdata.obj
 0002:00005fa4       ??_C@_02CJNFDJBF@PM?$AA@   1003ffa4     LIBCMT:nlsdata.obj
 0002:00005fa8       ??_C@_08BPBNCDIB@MM?1dd?1yy?$AA@ 1003ffa8     LIBCMT:nlsdata.obj
 0002:00005fb4       ??_C@_0BE@CKGJFCPC@dddd?0?5MMMM?5dd?0?5yyyy?$AA@ 1003ffb4     LIBCMT:nlsdata.obj
 0002:00005fc8       ??_C@_08JCCMCCIL@HH?3mm?3ss?$AA@ 1003ffc8     LIBCMT:nlsdata.obj
 0002:00005fd4       ??_C@_17MBGCMIPB@?$AAS?$AAu?$AAn?$AA?$AA@ 1003ffd4     LIBCMT:nlsdata.obj
 0002:00005fdc       ??_C@_17KBOMKBF@?$AAM?$AAo?$AAn?$AA?$AA@ 1003ffdc     LIBCMT:nlsdata.obj
 0002:00005fe4       ??_C@_17BMKGEGOJ@?$AAT?$AAu?$AAe?$AA?$AA@ 1003ffe4     LIBCMT:nlsdata.obj
 0002:00005fec       ??_C@_17CJEDCEPE@?$AAW?$AAe?$AAd?$AA?$AA@ 1003ffec     LIBCMT:nlsdata.obj
 0002:00005ff4       ??_C@_17PDPHAADD@?$AAT?$AAh?$AAu?$AA?$AA@ 1003fff4     LIBCMT:nlsdata.obj
 0002:00005ffc       ??_C@_17HFOLPPLP@?$AAF?$AAr?$AAi?$AA?$AA@ 1003fffc     LIBCMT:nlsdata.obj
 0002:00006004       ??_C@_17GGIBDPIH@?$AAS?$AAa?$AAt?$AA?$AA@ 10040004     LIBCMT:nlsdata.obj
 0002:0000600c       ??_C@_1O@IHNHDHPB@?$AAS?$AAu?$AAn?$AAd?$AAa?$AAy?$AA?$AA@ 1004000c     LIBCMT:nlsdata.obj
 0002:0000601c       ??_C@_1O@MMNBFLIA@?$AAM?$AAo?$AAn?$AAd?$AAa?$AAy?$AA?$AA@ 1004001c     LIBCMT:nlsdata.obj
 0002:0000602c       ??_C@_1BA@ENFBFFEK@?$AAT?$AAu?$AAe?$AAs?$AAd?$AAa?$AAy?$AA?$AA@ 1004002c     LIBCMT:nlsdata.obj
 0002:0000603c       ??_C@_1BE@EBOGMDOH@?$AAW?$AAe?$AAd?$AAn?$AAe?$AAs?$AAd?$AAa?$AAy?$AA?$AA@ 1004003c     LIBCMT:nlsdata.obj
 0002:00006050       ??_C@_1BC@HHMNLIHE@?$AAT?$AAh?$AAu?$AAr?$AAs?$AAd?$AAa?$AAy?$AA?$AA@ 10040050     LIBCMT:nlsdata.obj
 0002:00006064       ??_C@_1O@PDICJHAG@?$AAF?$AAr?$AAi?$AAd?$AAa?$AAy?$AA?$AA@ 10040064     LIBCMT:nlsdata.obj
 0002:00006074       ??_C@_1BC@ENMNNPAJ@?$AAS?$AAa?$AAt?$AAu?$AAr?$AAd?$AAa?$AAy?$AA?$AA@ 10040074     LIBCMT:nlsdata.obj
 0002:00006088       ??_C@_17DKNBKCHM@?$AAJ?$AAa?$AAn?$AA?$AA@ 10040088     LIBCMT:nlsdata.obj
 0002:00006090       ??_C@_17LMDJEKJN@?$AAF?$AAe?$AAb?$AA?$AA@ 10040090     LIBCMT:nlsdata.obj
 0002:00006098       ??_C@_17CKNLEDEC@?$AAM?$AAa?$AAr?$AA?$AA@ 10040098     LIBCMT:nlsdata.obj
 0002:000060a0       ??_C@_17LFPOIHDD@?$AAA?$AAp?$AAr?$AA?$AA@ 100400a0     LIBCMT:nlsdata.obj
 0002:000060a8       ??_C@_17PNNKMEED@?$AAM?$AAa?$AAy?$AA?$AA@ 100400a8     LIBCMT:nlsdata.obj
 0002:000060b0       ??_C@_17KCJGOCPB@?$AAJ?$AAu?$AAn?$AA?$AA@ 100400b0     LIBCMT:nlsdata.obj
 0002:000060b8       ??_C@_17IJPCKHK@?$AAJ?$AAu?$AAl?$AA?$AA@ 100400b8     LIBCMT:nlsdata.obj
 0002:000060c0       ??_C@_17ICPELBCN@?$AAA?$AAu?$AAg?$AA?$AA@ 100400c0     LIBCMT:nlsdata.obj
 0002:000060c8       ??_C@_17HCHCOKMG@?$AAS?$AAe?$AAp?$AA?$AA@ 100400c8     LIBCMT:nlsdata.obj
 0002:000060d0       ??_C@_17FNLKOI@?$AAO?$AAc?$AAt?$AA?$AA@ 100400d0     LIBCMT:nlsdata.obj
 0002:000060d8       ??_C@_17BBDMLCIG@?$AAN?$AAo?$AAv?$AA?$AA@ 100400d8     LIBCMT:nlsdata.obj
 0002:000060e0       ??_C@_17EGKACKIF@?$AAD?$AAe?$AAc?$AA?$AA@ 100400e0     LIBCMT:nlsdata.obj
 0002:000060e8       ??_C@_1BA@EFMEIEBA@?$AAJ?$AAa?$AAn?$AAu?$AAa?$AAr?$AAy?$AA?$AA@ 100400e8     LIBCMT:nlsdata.obj
 0002:000060f8       ??_C@_1BC@JGDDFFAM@?$AAF?$AAe?$AAb?$AAr?$AAu?$AAa?$AAr?$AAy?$AA?$AA@ 100400f8     LIBCMT:nlsdata.obj
 0002:0000610c       ??_C@_1M@IKEENEDF@?$AAM?$AAa?$AAr?$AAc?$AAh?$AA?$AA@ 1004010c     LIBCMT:nlsdata.obj
 0002:00006118       ??_C@_1M@GJNLMHFD@?$AAA?$AAp?$AAr?$AAi?$AAl?$AA?$AA@ 10040118     LIBCMT:nlsdata.obj
 0002:00006124       ??_C@_19EPFLPGAP@?$AAJ?$AAu?$AAn?$AAe?$AA?$AA@ 10040124     LIBCMT:nlsdata.obj
 0002:00006130       ??_C@_19BIFMLPCD@?$AAJ?$AAu?$AAl?$AAy?$AA?$AA@ 10040130     LIBCMT:nlsdata.obj
 0002:0000613c       ??_C@_1O@PAHLKOAC@?$AAA?$AAu?$AAg?$AAu?$AAs?$AAt?$AA?$AA@ 1004013c     LIBCMT:nlsdata.obj
 0002:0000614c       ??_C@_1BE@DKAAMBJL@?$AAS?$AAe?$AAp?$AAt?$AAe?$AAm?$AAb?$AAe?$AAr?$AA?$AA@ 1004014c     LIBCMT:nlsdata.obj
 0002:00006160       ??_C@_1BA@EPANDLNG@?$AAO?$AAc?$AAt?$AAo?$AAb?$AAe?$AAr?$AA?$AA@ 10040160     LIBCMT:nlsdata.obj
 0002:00006170       ??_C@_1BC@BGLIFPF@?$AAN?$AAo?$AAv?$AAe?$AAm?$AAb?$AAe?$AAr?$AA?$AA@ 10040170     LIBCMT:nlsdata.obj
 0002:00006184       ??_C@_1BC@FEMKIFH@?$AAD?$AAe?$AAc?$AAe?$AAm?$AAb?$AAe?$AAr?$AA?$AA@ 10040184     LIBCMT:nlsdata.obj
 0002:00006198       ??_C@_15ODEHAHHF@?$AAA?$AAM?$AA?$AA@ 10040198     LIBCMT:nlsdata.obj
 0002:000061a0       ??_C@_15CLMNNGEL@?$AAP?$AAM?$AA?$AA@ 100401a0     LIBCMT:nlsdata.obj
 0002:000061a8       ??_C@_1BC@IEBCMHCM@?$AAM?$AAM?$AA?1?$AAd?$AAd?$AA?1?$AAy?$AAy?$AA?$AA@ 100401a8     LIBCMT:nlsdata.obj
 0002:000061bc       ??_C@_1CI@KNAKOEBC@?$AAd?$AAd?$AAd?$AAd?$AA?0?$AA?5?$AAM?$AAM?$AAM?$AAM?$AA?5?$AAd?$AAd?$AA?0?$AA?5?$AAy?$AAy?$AAy?$AAy?$AA?$AA@ 100401bc     LIBCMT:nlsdata.obj
 0002:000061e4       ??_C@_1BC@GDGBMEMK@?$AAH?$AAH?$AA?3?$AAm?$AAm?$AA?3?$AAs?$AAs?$AA?$AA@ 100401e4     LIBCMT:nlsdata.obj
 0002:000061f8       ??_C@_1M@BMHNFIME@?$AAe?$AAn?$AA?9?$AAU?$AAS?$AA?$AA@ 100401f8     LIBCMT:nlsdata.obj
 0002:00006208       ___lookuptable_s           10040208     LIBCMT:outputs.obj
 0002:00006268       ___lc_category             10040268     LIBCMT:wsetloca.obj
 0002:000062b0       ??_C@_1O@GIFLHMA@?$AAL?$AAC?$AA_?$AAA?$AAL?$AAL?$AA?$AA@ 100402b0     LIBCMT:wsetloca.obj
 0002:000062c0       ??_C@_1BG@PPOMIBNJ@?$AAL?$AAC?$AA_?$AAC?$AAO?$AAL?$AAL?$AAA?$AAT?$AAE?$AA?$AA@ 100402c0     LIBCMT:wsetloca.obj
 0002:000062d8       ??_C@_1BC@FFJGAPJM@?$AAL?$AAC?$AA_?$AAC?$AAT?$AAY?$AAP?$AAE?$AA?$AA@ 100402d8     LIBCMT:wsetloca.obj
 0002:000062ec       ??_C@_1BI@PCKFNJFB@?$AAL?$AAC?$AA_?$AAM?$AAO?$AAN?$AAE?$AAT?$AAA?$AAR?$AAY?$AA?$AA@ 100402ec     LIBCMT:wsetloca.obj
 0002:00006304       ??_C@_1BG@ENIEDKID@?$AAL?$AAC?$AA_?$AAN?$AAU?$AAM?$AAE?$AAR?$AAI?$AAC?$AA?$AA@ 10040304     LIBCMT:wsetloca.obj
 0002:0000631c       ??_C@_1BA@HAAOMIIG@?$AAL?$AAC?$AA_?$AAT?$AAI?$AAM?$AAE?$AA?$AA@ 1004031c     LIBCMT:wsetloca.obj
 0002:000063b0       ??_C@_15NBPDDFIP@?$AA?$DN?$AA?$DL?$AA?$AA@ 100403b0     LIBCMT:wsetloca.obj
 0002:000063b8       ??_C@_13PJJBFPED@?$AA?$DL?$AA?$AA@ 100403b8     LIBCMT:wsetloca.obj
 0002:000063bc       ??_C@_13NMPKAAJP@?$AA?$DN?$AA?$AA@ 100403bc     LIBCMT:wsetloca.obj
 0002:000063c0       ??_C@_13FHBKNHDA@?$AAC?$AA?$AA@ 100403c0     LIBCMT:wsetloca.obj
 0002:000063c4       ??_C@_17MBJJLFDM@?$AA_?$AA?4?$AA?0?$AA?$AA@ 100403c4     LIBCMT:wsetloca.obj
 0002:000063cc       ??_C@_13ENNFDPBH@?$AA_?$AA?$AA@ 100403cc     LIBCMT:wsetloca.obj
 0002:000063d0       ??_C@_13JOFGPIOO@?$AA?4?$AA?$AA@ 100403d0     LIBCMT:wsetloca.obj
 0002:000063d4       ??_C@_06PGGFOGJG@1?$CDSNAN?$AA@ 100403d4     LIBCMT:x10fout.obj
 0002:000063dc       ??_C@_05PHHOCPM@1?$CDIND?$AA@ 100403dc     LIBCMT:x10fout.obj
 0002:000063e4       ??_C@_05DNEBIAHO@1?$CDINF?$AA@ 100403e4     LIBCMT:x10fout.obj
 0002:000063ec       ??_C@_06IMKFLFPG@1?$CDQNAN?$AA@ 100403ec     LIBCMT:x10fout.obj
 0002:000063f8       ___newctype                100403f8     LIBCMT:ctype.obj
 0002:000066f8       __wctype                   100406f8     LIBCMT:ctype.obj
 0002:00006900       ___newclmap                10040900     LIBCMT:ctype.obj
 0002:00006a80       ___newcumap                10040a80     LIBCMT:ctype.obj
 0002:00006c00       ??_C@_0M@HHGEPIBF@CreateFile2?$AA@ 10040c00     LIBCMT:wopen.obj
 0002:00006c0c       ??_C@_1BA@BALFACEM@?$AAC?$AAO?$AAN?$AAO?$AAU?$AAT?$AA$?$AA?$AA@ 10040c0c     LIBCMT:initcon.obj
 0002:00006c20       ___rg_language             10040c20     LIBCMT:getqloc.obj
 0002:00006f2c       ??_C@_1BC@LLOKLNP@?$AAa?$AAm?$AAe?$AAr?$AAi?$AAc?$AAa?$AAn?$AA?$AA@ 10040f2c     LIBCMT:getqloc.obj
 0002:00006f40       ??_C@_1CC@HEIGCDGG@?$AAa?$AAm?$AAe?$AAr?$AAi?$AAc?$AAa?$AAn?$AA?5?$AAe?$AAn?$AAg?$AAl?$AAi?$AAs?$AAh?$AA?$AA@ 10040f40     LIBCMT:getqloc.obj
 0002:00006f64       ??_C@_1CC@IHCNOMIN@?$AAa?$AAm?$AAe?$AAr?$AAi?$AAc?$AAa?$AAn?$AA?9?$AAe?$AAn?$AAg?$AAl?$AAi?$AAs?$AAh?$AA?$AA@ 10040f64     LIBCMT:getqloc.obj
 0002:00006f88       ??_C@_1BG@GKAGPCGG@?$AAa?$AAu?$AAs?$AAt?$AAr?$AAa?$AAl?$AAi?$AAa?$AAn?$AA?$AA@ 10040f88     LIBCMT:getqloc.obj
 0002:00006fa0       ??_C@_1BA@GMENCENF@?$AAb?$AAe?$AAl?$AAg?$AAi?$AAa?$AAn?$AA?$AA@ 10040fa0     LIBCMT:getqloc.obj
 0002:00006fb0       ??_C@_1BC@PJMIIAAN@?$AAc?$AAa?$AAn?$AAa?$AAd?$AAi?$AAa?$AAn?$AA?$AA@ 10040fb0     LIBCMT:getqloc.obj
 0002:00006fc4       ??_C@_17NOIMNFBF@?$AAc?$AAh?$AAh?$AA?$AA@ 10040fc4     LIBCMT:getqloc.obj
 0002:00006fcc       ??_C@_17GGDALCHA@?$AAc?$AAh?$AAi?$AA?$AA@ 10040fcc     LIBCMT:getqloc.obj
 0002:00006fd4       ??_C@_1BA@NPNJKIBL@?$AAc?$AAh?$AAi?$AAn?$AAe?$AAs?$AAe?$AA?$AA@ 10040fd4     LIBCMT:getqloc.obj
 0002:00006fe4       ??_C@_1CC@DINBAMMJ@?$AAc?$AAh?$AAi?$AAn?$AAe?$AAs?$AAe?$AA?9?$AAh?$AAo?$AAn?$AAg?$AAk?$AAo?$AAn?$AAg?$AA?$AA@ 10040fe4     LIBCMT:getqloc.obj
 0002:00007008       ??_C@_1CG@IOBJPACO@?$AAc?$AAh?$AAi?$AAn?$AAe?$AAs?$AAe?$AA?9?$AAs?$AAi?$AAm?$AAp?$AAl?$AAi?$AAf?$AAi?$AAe?$AAd?$AA?$AA@ 10041008     LIBCMT:getqloc.obj
 0002:00007030       ??_C@_1CE@GAJNDCKG@?$AAc?$AAh?$AAi?$AAn?$AAe?$AAs?$AAe?$AA?9?$AAs?$AAi?$AAn?$AAg?$AAa?$AAp?$AAo?$AAr?$AAe?$AA?$AA@ 10041030     LIBCMT:getqloc.obj
 0002:00007054       ??_C@_1CI@PAJPIOOD@?$AAc?$AAh?$AAi?$AAn?$AAe?$AAs?$AAe?$AA?9?$AAt?$AAr?$AAa?$AAd?$AAi?$AAt?$AAi?$AAo?$AAn?$AAa?$AAl?$AA?$AA@ 10041054     LIBCMT:getqloc.obj
 0002:0000707c       ??_C@_1BM@NILJBMMD@?$AAd?$AAu?$AAt?$AAc?$AAh?$AA?9?$AAb?$AAe?$AAl?$AAg?$AAi?$AAa?$AAn?$AA?$AA@ 1004107c     LIBCMT:getqloc.obj
 0002:00007098       ??_C@_1CC@OOJPJNEJ@?$AAe?$AAn?$AAg?$AAl?$AAi?$AAs?$AAh?$AA?9?$AAa?$AAm?$AAe?$AAr?$AAi?$AAc?$AAa?$AAn?$AA?$AA@ 10041098     LIBCMT:getqloc.obj
 0002:000070bc       ??_C@_1BI@IOLFEEM@?$AAe?$AAn?$AAg?$AAl?$AAi?$AAs?$AAh?$AA?9?$AAa?$AAu?$AAs?$AA?$AA@ 100410bc     LIBCMT:getqloc.obj
 0002:000070d4       ??_C@_1BO@HFFNLENJ@?$AAe?$AAn?$AAg?$AAl?$AAi?$AAs?$AAh?$AA?9?$AAb?$AAe?$AAl?$AAi?$AAz?$AAe?$AA?$AA@ 100410d4     LIBCMT:getqloc.obj
 0002:000070f4       ??_C@_1BI@HAPKJMPO@?$AAe?$AAn?$AAg?$AAl?$AAi?$AAs?$AAh?$AA?9?$AAc?$AAa?$AAn?$AA?$AA@ 100410f4     LIBCMT:getqloc.obj
 0002:0000710c       ??_C@_1CE@HLNDMIOJ@?$AAe?$AAn?$AAg?$AAl?$AAi?$AAs?$AAh?$AA?9?$AAc?$AAa?$AAr?$AAi?$AAb?$AAb?$AAe?$AAa?$AAn?$AA?$AA@ 1004110c     LIBCMT:getqloc.obj
 0002:00007130       ??_C@_1BI@LDHJHHAC@?$AAe?$AAn?$AAg?$AAl?$AAi?$AAs?$AAh?$AA?9?$AAi?$AAr?$AAe?$AA?$AA@ 10041130     LIBCMT:getqloc.obj
 0002:00007148       ??_C@_1CA@NJMMCFOC@?$AAe?$AAn?$AAg?$AAl?$AAi?$AAs?$AAh?$AA?9?$AAj?$AAa?$AAm?$AAa?$AAi?$AAc?$AAa?$AA?$AA@ 10041148     LIBCMT:getqloc.obj
 0002:00007168       ??_C@_1BG@BHJEBBGG@?$AAe?$AAn?$AAg?$AAl?$AAi?$AAs?$AAh?$AA?9?$AAn?$AAz?$AA?$AA@ 10041168     LIBCMT:getqloc.obj
 0002:00007180       ??_C@_1CK@FGOEJJCO@?$AAe?$AAn?$AAg?$AAl?$AAi?$AAs?$AAh?$AA?9?$AAs?$AAo?$AAu?$AAt?$AAh?$AA?5?$AAa?$AAf?$AAr?$AAi?$AAc?$AAa?$AA?$AA@ 10041180     LIBCMT:getqloc.obj
 0002:000071ac       ??_C@_1DE@PDBJPCJ@?$AAe?$AAn?$AAg?$AAl?$AAi?$AAs?$AAh?$AA?9?$AAt?$AAr?$AAi?$AAn?$AAi?$AAd?$AAa?$AAd?$AA?5?$AAy?$AA?5?$AAt?$AAo?$AAb?$AAa?$AAg?$AAo?$AA?$AA@ 100411ac     LIBCMT:getqloc.obj
 0002:000071e0       ??_C@_1BG@JGCANDME@?$AAe?$AAn?$AAg?$AAl?$AAi?$AAs?$AAh?$AA?9?$AAu?$AAk?$AA?$AA@ 100411e0     LIBCMT:getqloc.obj
 0002:000071f8       ??_C@_1BG@DINKMLE@?$AAe?$AAn?$AAg?$AAl?$AAi?$AAs?$AAh?$AA?9?$AAu?$AAs?$AA?$AA@ 100411f8     LIBCMT:getqloc.obj
 0002:00007210       ??_C@_1BI@NMFDBHJE@?$AAe?$AAn?$AAg?$AAl?$AAi?$AAs?$AAh?$AA?9?$AAu?$AAs?$AAa?$AA?$AA@ 10041210     LIBCMT:getqloc.obj
 0002:00007228       ??_C@_1BO@OIHKJKII@?$AAf?$AAr?$AAe?$AAn?$AAc?$AAh?$AA?9?$AAb?$AAe?$AAl?$AAg?$AAi?$AAa?$AAn?$AA?$AA@ 10041228     LIBCMT:getqloc.obj
 0002:00007248       ??_C@_1CA@NKAELJKI@?$AAf?$AAr?$AAe?$AAn?$AAc?$AAh?$AA?9?$AAc?$AAa?$AAn?$AAa?$AAd?$AAi?$AAa?$AAn?$AA?$AA@ 10041248     LIBCMT:getqloc.obj
 0002:00007268       ??_C@_1CE@MGKCNLGN@?$AAf?$AAr?$AAe?$AAn?$AAc?$AAh?$AA?9?$AAl?$AAu?$AAx?$AAe?$AAm?$AAb?$AAo?$AAu?$AAr?$AAg?$AA?$AA@ 10041268     LIBCMT:getqloc.obj
 0002:0000728c       ??_C@_1BK@CEGEAILM@?$AAf?$AAr?$AAe?$AAn?$AAc?$AAh?$AA?9?$AAs?$AAw?$AAi?$AAs?$AAs?$AA?$AA@ 1004128c     LIBCMT:getqloc.obj
 0002:000072a8       ??_C@_1CA@PAFKEOCC@?$AAg?$AAe?$AAr?$AAm?$AAa?$AAn?$AA?9?$AAa?$AAu?$AAs?$AAt?$AAr?$AAi?$AAa?$AAn?$AA?$AA@ 100412a8     LIBCMT:getqloc.obj
 0002:000072c8       ??_C@_1CI@HCFHGOFD@?$AAg?$AAe?$AAr?$AAm?$AAa?$AAn?$AA?9?$AAl?$AAi?$AAc?$AAh?$AAt?$AAe?$AAn?$AAs?$AAt?$AAe?$AAi?$AAn?$AA?$AA@ 100412c8     LIBCMT:getqloc.obj
 0002:000072f0       ??_C@_1CE@FEDDNPDG@?$AAg?$AAe?$AAr?$AAm?$AAa?$AAn?$AA?9?$AAl?$AAu?$AAx?$AAe?$AAm?$AAb?$AAo?$AAu?$AAr?$AAg?$AA?$AA@ 100412f0     LIBCMT:getqloc.obj
 0002:00007314       ??_C@_1BK@LIMINNMN@?$AAg?$AAe?$AAr?$AAm?$AAa?$AAn?$AA?9?$AAs?$AAw?$AAi?$AAs?$AAs?$AA?$AA@ 10041314     LIBCMT:getqloc.obj
 0002:00007330       ??_C@_1BM@LGMDBEPD@?$AAi?$AAr?$AAi?$AAs?$AAh?$AA?9?$AAe?$AAn?$AAg?$AAl?$AAi?$AAs?$AAh?$AA?$AA@ 10041330     LIBCMT:getqloc.obj
 0002:0000734c       ??_C@_1BM@NNCFBAEE@?$AAi?$AAt?$AAa?$AAl?$AAi?$AAa?$AAn?$AA?9?$AAs?$AAw?$AAi?$AAs?$AAs?$AA?$AA@ 1004134c     LIBCMT:getqloc.obj
 0002:00007368       ??_C@_1BE@FEDJNPIB@?$AAn?$AAo?$AAr?$AAw?$AAe?$AAg?$AAi?$AAa?$AAn?$AA?$AA@ 10041368     LIBCMT:getqloc.obj
 0002:0000737c       ??_C@_1CC@CILKDEIE@?$AAn?$AAo?$AAr?$AAw?$AAe?$AAg?$AAi?$AAa?$AAn?$AA?9?$AAb?$AAo?$AAk?$AAm?$AAa?$AAl?$AA?$AA@ 1004137c     LIBCMT:getqloc.obj
 0002:000073a0       ??_C@_1CE@DHMMHEPL@?$AAn?$AAo?$AAr?$AAw?$AAe?$AAg?$AAi?$AAa?$AAn?$AA?9?$AAn?$AAy?$AAn?$AAo?$AAr?$AAs?$AAk?$AA?$AA@ 100413a0     LIBCMT:getqloc.obj
 0002:000073c4       ??_C@_1CK@OPNMHECD@?$AAp?$AAo?$AAr?$AAt?$AAu?$AAg?$AAu?$AAe?$AAs?$AAe?$AA?9?$AAb?$AAr?$AAa?$AAz?$AAi?$AAl?$AAi?$AAa?$AAn?$AA?$AA@ 100413c4     LIBCMT:getqloc.obj
 0002:000073f0       ??_C@_1CE@KEEHCDB@?$AAs?$AAp?$AAa?$AAn?$AAi?$AAs?$AAh?$AA?9?$AAa?$AAr?$AAg?$AAe?$AAn?$AAt?$AAi?$AAn?$AAa?$AA?$AA@ 100413f0     LIBCMT:getqloc.obj
 0002:00007414       ??_C@_1CA@GIAOLHJD@?$AAs?$AAp?$AAa?$AAn?$AAi?$AAs?$AAh?$AA?9?$AAb?$AAo?$AAl?$AAi?$AAv?$AAi?$AAa?$AA?$AA@ 10041414     LIBCMT:getqloc.obj
 0002:00007434       ??_C@_1BM@OJNDFNPD@?$AAs?$AAp?$AAa?$AAn?$AAi?$AAs?$AAh?$AA?9?$AAc?$AAh?$AAi?$AAl?$AAe?$AA?$AA@ 10041434     LIBCMT:getqloc.obj
 0002:00007450       ??_C@_1CC@OCOLPALL@?$AAs?$AAp?$AAa?$AAn?$AAi?$AAs?$AAh?$AA?9?$AAc?$AAo?$AAl?$AAo?$AAm?$AAb?$AAi?$AAa?$AA?$AA@ 10041450     LIBCMT:getqloc.obj
 0002:00007474       ??_C@_1CG@BPOFMKBB@?$AAs?$AAp?$AAa?$AAn?$AAi?$AAs?$AAh?$AA?9?$AAc?$AAo?$AAs?$AAt?$AAa?$AA?5?$AAr?$AAi?$AAc?$AAa?$AA?$AA@ 10041474     LIBCMT:getqloc.obj
 0002:0000749c       ??_C@_1DG@IGOBAPBB@?$AAs?$AAp?$AAa?$AAn?$AAi?$AAs?$AAh?$AA?9?$AAd?$AAo?$AAm?$AAi?$AAn?$AAi?$AAc?$AAa?$AAn?$AA?5?$AAr?$AAe?$AAp?$AAu?$AAb?$AAl?$AAi?$AAc?$AA?$AA@ 1004149c     LIBCMT:getqloc.obj
 0002:000074d4       ??_C@_1CA@JHAPGEGI@?$AAs?$AAp?$AAa?$AAn?$AAi?$AAs?$AAh?$AA?9?$AAe?$AAc?$AAu?$AAa?$AAd?$AAo?$AAr?$AA?$AA@ 100414d4     LIBCMT:getqloc.obj
 0002:000074f4       ??_C@_1CI@LAPALJPP@?$AAs?$AAp?$AAa?$AAn?$AAi?$AAs?$AAh?$AA?9?$AAe?$AAl?$AA?5?$AAs?$AAa?$AAl?$AAv?$AAa?$AAd?$AAo?$AAr?$AA?$AA@ 100414f4     LIBCMT:getqloc.obj
 0002:0000751c       ??_C@_1CE@PDGBOFOM@?$AAs?$AAp?$AAa?$AAn?$AAi?$AAs?$AAh?$AA?9?$AAg?$AAu?$AAa?$AAt?$AAe?$AAm?$AAa?$AAl?$AAa?$AA?$AA@ 1004151c     LIBCMT:getqloc.obj
 0002:00007540       ??_C@_1CC@NBEBAODI@?$AAs?$AAp?$AAa?$AAn?$AAi?$AAs?$AAh?$AA?9?$AAh?$AAo?$AAn?$AAd?$AAu?$AAr?$AAa?$AAs?$AA?$AA@ 10041540     LIBCMT:getqloc.obj
 0002:00007564       ??_C@_1CA@LLKGHBMF@?$AAs?$AAp?$AAa?$AAn?$AAi?$AAs?$AAh?$AA?9?$AAm?$AAe?$AAx?$AAi?$AAc?$AAa?$AAn?$AA?$AA@ 10041564     LIBCMT:getqloc.obj
 0002:00007584       ??_C@_1BO@LKNDOIGD@?$AAs?$AAp?$AAa?$AAn?$AAi?$AAs?$AAh?$AA?9?$AAm?$AAo?$AAd?$AAe?$AAr?$AAn?$AA?$AA@ 10041584     LIBCMT:getqloc.obj
 0002:000075a4       ??_C@_1CE@NMDMOEEB@?$AAs?$AAp?$AAa?$AAn?$AAi?$AAs?$AAh?$AA?9?$AAn?$AAi?$AAc?$AAa?$AAr?$AAa?$AAg?$AAu?$AAa?$AA?$AA@ 100415a4     LIBCMT:getqloc.obj
 0002:000075c8       ??_C@_1BO@LLCBEJGB@?$AAs?$AAp?$AAa?$AAn?$AAi?$AAs?$AAh?$AA?9?$AAp?$AAa?$AAn?$AAa?$AAm?$AAa?$AA?$AA@ 100415c8     LIBCMT:getqloc.obj
 0002:000075e8       ??_C@_1CC@FKPGGIHO@?$AAs?$AAp?$AAa?$AAn?$AAi?$AAs?$AAh?$AA?9?$AAp?$AAa?$AAr?$AAa?$AAg?$AAu?$AAa?$AAy?$AA?$AA@ 100415e8     LIBCMT:getqloc.obj
 0002:0000760c       ??_C@_1BK@CDEIHOOP@?$AAs?$AAp?$AAa?$AAn?$AAi?$AAs?$AAh?$AA?9?$AAp?$AAe?$AAr?$AAu?$AA?$AA@ 1004160c     LIBCMT:getqloc.obj
 0002:00007628       ??_C@_1CI@GAHAKKGP@?$AAs?$AAp?$AAa?$AAn?$AAi?$AAs?$AAh?$AA?9?$AAp?$AAu?$AAe?$AAr?$AAt?$AAo?$AA?5?$AAr?$AAi?$AAc?$AAo?$AA?$AA@ 10041628     LIBCMT:getqloc.obj
 0002:00007650       ??_C@_1CA@NKJBCAGP@?$AAs?$AAp?$AAa?$AAn?$AAi?$AAs?$AAh?$AA?9?$AAu?$AAr?$AAu?$AAg?$AAu?$AAa?$AAy?$AA?$AA@ 10041650     LIBCMT:getqloc.obj
 0002:00007670       ??_C@_1CE@ODILCONM@?$AAs?$AAp?$AAa?$AAn?$AAi?$AAs?$AAh?$AA?9?$AAv?$AAe?$AAn?$AAe?$AAz?$AAu?$AAe?$AAl?$AAa?$AA?$AA@ 10041670     LIBCMT:getqloc.obj
 0002:00007694       ??_C@_1CA@OBNMCGFO@?$AAs?$AAw?$AAe?$AAd?$AAi?$AAs?$AAh?$AA?9?$AAf?$AAi?$AAn?$AAl?$AAa?$AAn?$AAd?$AA?$AA@ 10041694     LIBCMT:getqloc.obj
 0002:000076b4       ??_C@_1M@PIPDDPPI@?$AAs?$AAw?$AAi?$AAs?$AAs?$AA?$AA@ 100416b4     LIBCMT:getqloc.obj
 0002:000076c0       ??_C@_15PJPFLCCM@?$AAu?$AAk?$AA?$AA@ 100416c0     LIBCMT:getqloc.obj
 0002:000076c8       ??_C@_15GMFIMNFM@?$AAu?$AAs?$AA?$AA@ 100416c8     LIBCMT:getqloc.obj
 0002:000076d0       ??_C@_17HAEBFAGL@?$AAu?$AAs?$AAa?$AA?$AA@ 100416d0     LIBCMT:getqloc.obj
 0002:000076d8       ___rg_country              100416d8     LIBCMT:getqloc.obj
 0002:000077ec       ??_C@_1BA@DPFJEPHB@?$AAa?$AAm?$AAe?$AAr?$AAi?$AAc?$AAa?$AA?$AA@ 100417ec     LIBCMT:getqloc.obj
 0002:000077fc       ??_C@_1BA@ELOGGFK@?$AAb?$AAr?$AAi?$AAt?$AAa?$AAi?$AAn?$AA?$AA@ 100417fc     LIBCMT:getqloc.obj
 0002:0000780c       ??_C@_1M@GHBGIGDA@?$AAc?$AAh?$AAi?$AAn?$AAa?$AA?$AA@ 1004180c     LIBCMT:getqloc.obj
 0002:00007818       ??_C@_1M@NCHEJOPO@?$AAc?$AAz?$AAe?$AAc?$AAh?$AA?$AA@ 10041818     LIBCMT:getqloc.obj
 0002:00007824       ??_C@_1BA@BKPAPBLA@?$AAe?$AAn?$AAg?$AAl?$AAa?$AAn?$AAd?$AA?$AA@ 10041824     LIBCMT:getqloc.obj
 0002:00007834       ??_C@_1BM@HKBCKIPC@?$AAg?$AAr?$AAe?$AAa?$AAt?$AA?5?$AAb?$AAr?$AAi?$AAt?$AAa?$AAi?$AAn?$AA?$AA@ 10041834     LIBCMT:getqloc.obj
 0002:00007850       ??_C@_1BA@PPCHPGJB@?$AAh?$AAo?$AAl?$AAl?$AAa?$AAn?$AAd?$AA?$AA@ 10041850     LIBCMT:getqloc.obj
 0002:00007860       ??_C@_1BE@JBMPEGDG@?$AAh?$AAo?$AAn?$AAg?$AA?9?$AAk?$AAo?$AAn?$AAg?$AA?$AA@ 10041860     LIBCMT:getqloc.obj
 0002:00007874       ??_C@_1BI@KOELBBPJ@?$AAn?$AAe?$AAw?$AA?9?$AAz?$AAe?$AAa?$AAl?$AAa?$AAn?$AAd?$AA?$AA@ 10041874     LIBCMT:getqloc.obj
 0002:0000788c       ??_C@_15HIEBHAIO@?$AAn?$AAz?$AA?$AA@ 1004188c     LIBCMT:getqloc.obj
 0002:00007894       ??_C@_1BC@CHBCPFPI@?$AAp?$AAr?$AA?5?$AAc?$AAh?$AAi?$AAn?$AAa?$AA?$AA@ 10041894     LIBCMT:getqloc.obj
 0002:000078a8       ??_C@_1BC@JAOIIFKD@?$AAp?$AAr?$AA?9?$AAc?$AAh?$AAi?$AAn?$AAa?$AA?$AA@ 100418a8     LIBCMT:getqloc.obj
 0002:000078bc       ??_C@_1BI@BEHPPHKC@?$AAp?$AAu?$AAe?$AAr?$AAt?$AAo?$AA?9?$AAr?$AAi?$AAc?$AAo?$AA?$AA@ 100418bc     LIBCMT:getqloc.obj
 0002:000078d4       ??_C@_1O@PAEOFKDI@?$AAs?$AAl?$AAo?$AAv?$AAa?$AAk?$AA?$AA@ 100418d4     LIBCMT:getqloc.obj
 0002:000078e4       ??_C@_1BK@FIHMCKAM@?$AAs?$AAo?$AAu?$AAt?$AAh?$AA?5?$AAa?$AAf?$AAr?$AAi?$AAc?$AAa?$AA?$AA@ 100418e4     LIBCMT:getqloc.obj
 0002:00007900       ??_C@_1BI@NAEOODKB@?$AAs?$AAo?$AAu?$AAt?$AAh?$AA?5?$AAk?$AAo?$AAr?$AAe?$AAa?$AA?$AA@ 10041900     LIBCMT:getqloc.obj
 0002:00007918       ??_C@_1BK@FBDGGIFF@?$AAs?$AAo?$AAu?$AAt?$AAh?$AA?9?$AAa?$AAf?$AAr?$AAi?$AAc?$AAa?$AA?$AA@ 10041918     LIBCMT:getqloc.obj
 0002:00007934       ??_C@_1BI@GHLEJDPK@?$AAs?$AAo?$AAu?$AAt?$AAh?$AA?9?$AAk?$AAo?$AAr?$AAe?$AAa?$AA?$AA@ 10041934     LIBCMT:getqloc.obj
 0002:0000794c       ??_C@_1CE@PLHLOMJF@?$AAt?$AAr?$AAi?$AAn?$AAi?$AAd?$AAa?$AAd?$AA?5?$AA?$CG?$AA?5?$AAt?$AAo?$AAb?$AAa?$AAg?$AAo?$AA?$AA@ 1004194c     LIBCMT:getqloc.obj
 0002:00007970       ??_C@_1BO@MODIMHHI@?$AAu?$AAn?$AAi?$AAt?$AAe?$AAd?$AA?9?$AAk?$AAi?$AAn?$AAg?$AAd?$AAo?$AAm?$AA?$AA@ 10041970     LIBCMT:getqloc.obj
 0002:00007990       ??_C@_1BM@FFHJONBJ@?$AAu?$AAn?$AAi?$AAt?$AAe?$AAd?$AA?9?$AAs?$AAt?$AAa?$AAt?$AAe?$AAs?$AA?$AA@ 10041990     LIBCMT:getqloc.obj
 0002:000079ac       ??_C@_17DNCLJFIF@?$AAA?$AAC?$AAP?$AA?$AA@ 100419ac     LIBCMT:getqloc.obj
 0002:000079b4       ??_C@_17CIKBIHLH@?$AAO?$AAC?$AAP?$AA?$AA@ 100419b4     LIBCMT:getqloc.obj
 0002:000079c0       __load_config_used         100419c0     LIBCMT:loadcfg.obj
 0002:000089a0       ___safe_se_handler_table   100429a0     <linker-defined>
 0002:00008ab0       ___rtc_iaa                 10042ab0     LIBCMT:initsect.obj
 0002:00008bb4       ___rtc_izz                 10042bb4     LIBCMT:initsect.obj
 0002:00008cb8       ___rtc_taa                 10042cb8     LIBCMT:initsect.obj
 0002:00008dbc       ___rtc_tzz                 10042dbc     LIBCMT:initsect.obj
 0003:000001c8       _pci1756_P                 100441c8     pci1756_data.obj
 0003:00000438       _pci20041digout            10044438     xpctarget.obj
 0003:0000043c       _nipcdio24cnfg             1004443c     xpctarget.obj
 0003:00000440       _rtddm6604cnfg             10044440     xpctarget.obj
 0003:00000474       _DefaultCOMIOBase          10044474     xpcruntime:xpcimports.obj
 0003:00000484       _DefaultCOMIRQ             10044484     xpcruntime:xpcimports.obj
 0003:000004a0       __fltused                  100444a0     LIBCMT:fpinit.obj
 0003:000004a4       __ldused                   100444a4     LIBCMT:fpinit.obj
 0003:000004b0       __iob                      100444b0     LIBCMT:_file.obj
 0003:00000730       ___isa_enabled             10044730     LIBCMT:cpu_disp.obj
 0003:00000734       ___security_cookie         10044734     LIBCMT:gs_cookie.obj
 0003:00000738       ___security_cookie_complement 10044738     LIBCMT:gs_cookie.obj
 0003:00000910       __cfltcvt_tab              10044910     LIBCMT:cmiscdat.obj
 0003:00000a64       ___ptmbcinfo               10044a64     LIBCMT:mbctype.obj
 0003:00000b58       __mbctype                  10044b58     LIBCMT:mbctype.obj
 0003:00000c60       __mbcasemap                10044c60     LIBCMT:mbctype.obj
 0003:00000d60       ___initialmbcinfo          10044d60     LIBCMT:mbctype.obj
 0003:00000f80       ___nullstring              10044f80     LIBCMT:output.obj
 0003:00000f84       ___wnullstring             10044f84     LIBCMT:output.obj
 0003:00000f88       ___badioinfo               10044f88     LIBCMT:ioinit.obj
 0003:00000fc8       __lookuptrailbytes         10044fc8     LIBCMT:read.obj
 0003:000010c8       __d_inf                    100450c8     LIBCMT:util.obj
 0003:000010d0       __d_ind                    100450d0     LIBCMT:util.obj
 0003:000010d8       __d_max                    100450d8     LIBCMT:util.obj
 0003:000010e0       __d_min                    100450e0     LIBCMT:util.obj
 0003:000010e8       __d_mzero                  100450e8     LIBCMT:util.obj
 0003:000011f4       ___abort_behavior          100451f4     LIBCMT:abort.obj
 0003:000011f8       ___flsindex                100451f8     LIBCMT:tidtable.obj
 0003:00001200       ___wclocalestr             10045200     LIBCMT:nlsdata.obj
 0003:00001208       ___lc_time_c               10045208     LIBCMT:nlsdata.obj
 0003:0000136c       ___ptlocinfo               1004536c     LIBCMT:nlsdata.obj
 0003:00001370       ___initiallocinfo          10045370     LIBCMT:nlsdata.obj
 0003:00001428       ___initiallocalestructinfo 10045428     LIBCMT:nlsdata.obj
 0003:00001430       ___mb_cur_max              10045430     LIBCMT:nlsdata.obj
 0003:00001434       ___globallocalestatus      10045434     LIBCMT:glstatus.obj
 0003:00001440       __NLG_Destination          10045440     LIBCMT:exsup.obj
 0003:00001450       __matherr_flag             10045450     LIBCMT:matherr.obj
 0003:00001458       ___lconv                   10045458     LIBCMT:lconv.obj
 0003:0000145c       ___lconv_static_decimal    1004545c     LIBCMT:lconv.obj
 0003:00001460       ___lconv_c                 10045460     LIBCMT:lconv.obj
 0003:000014b0       ___lconv_static_W_decimal  100454b0     LIBCMT:lconv.obj
 0003:000014e8       __pctype                   100454e8     LIBCMT:ctype.obj
 0003:000014ec       __pwctype                  100454ec     LIBCMT:ctype.obj
 0003:000014f0       __confh                    100454f0     LIBCMT:initcon.obj
 0003:000014f8       __pow10pos                 100454f8     LIBCMT:constpow.obj
 0003:00001658       __pow10neg                 10045658     LIBCMT:constpow.obj
 0003:00001cfc       ___isa_available_default   10045cfc     rt_logging.obj
 0003:00001d0c       _xmlsize                   10045d0c     xpctarget.obj
 0003:00001d10       _pci20098PortA             10045d10     xpctarget.obj
 0003:00001d14       _pci20098PortB             10045d14     xpctarget.obj
 0003:00001d18       _siepowercan_firmware_initialized 10045d18     xpctarget.obj
 0003:00001d1c       _siepowercan_port1_configured 10045d1c     xpctarget.obj
 0003:00001d20       _siepowercan_port2_configured 10045d20     xpctarget.obj
 0003:00001d24       _CANAC2_FIRMWARE_LOADED    10045d24     xpctarget.obj
 0003:00001d28       _rs232ports                10045d28     xpctarget.obj
 0003:00001d38       _NI_AT_MIO_16F_5_commreg2  10045d38     xpctarget.obj
 0003:00001d3c       _RTD_DM6430_init           10045d3c     xpctarget.obj
 0003:00001d40       _RTD_DM6420_init           10045d40     xpctarget.obj
 0003:00001d44       _CANAC2_FIRMWARE_LOADED_mb1 10045d44     xpctarget.obj
 0003:00001d48       _CANAC2_FIRMWARE_LOADED_mb2 10045d48     xpctarget.obj
 0003:00001d4c       _CANAC2_FIRMWARE_LOADED_mb3 10045d4c     xpctarget.obj
 0003:00001e9c       ___fastflag                10045e9c     LIBCMT:fpinit.obj
 0003:000021c0       __C_Exit_Done              100461c0     LIBCMT:crt0dat.obj
 0003:000021c4       ___argc                    100461c4     LIBCMT:crt0dat.obj
 0003:000021c8       ___argv                    100461c8     LIBCMT:crt0dat.obj
 0003:000021cc       ___wargv                   100461cc     LIBCMT:crt0dat.obj
 0003:000021d0       __environ                  100461d0     LIBCMT:crt0dat.obj
 0003:000021d4       __wenviron                 100461d4     LIBCMT:crt0dat.obj
 0003:000021d8       __pgmptr                   100461d8     LIBCMT:crt0dat.obj
 0003:000021dc       __wpgmptr                  100461dc     LIBCMT:crt0dat.obj
 0003:000021e0       __umaskval                 100461e0     LIBCMT:crt0dat.obj
 0003:000021e4       __exitflag                 100461e4     LIBCMT:crt0dat.obj
 0003:000021e8       __C_Termination_Done       100461e8     LIBCMT:crt0dat.obj
 0003:000021ec       ___winitenv                100461ec     LIBCMT:crt0dat.obj
 0003:000021f0       ___initenv                 100461f0     LIBCMT:crt0dat.obj
 0003:000021f4       __cflush                   100461f4     LIBCMT:_file.obj
 0003:000021fc       ___isa_available           100461fc     LIBCMT:cpu_disp.obj
 0003:00002200       ___favor                   10046200     LIBCMT:cpu_disp.obj
 0003:00002204       __aenvptr                  10046204     LIBCMT:dllcrt0.obj
 0003:00002208       __wenvptr                  10046208     LIBCMT:dllcrt0.obj
 0003:00002210       ?_pnhHeap@@3P6AHI@ZA       10046210     LIBCMT:handler.obj
 0003:00002218       ___app_type                10046218     LIBCMT:crt0msg.obj
 0003:00002848       __newmode                  10046848     LIBCMT:_newmode.obj
 0003:0000284c       __crtheap                  1004684c     LIBCMT:heapinit.obj
 0003:00002850       ___pInvalidArgHandler      10046850     LIBCMT:invarg.obj
 0003:000029a8       __maxwait                  100469a8     LIBCMT:crtheap.obj
 0003:000029ac       ?__pInconsistency@@3P6AXXZA 100469ac     LIBCMT:hooks.obj
 0003:000029b0       ___pPurecall               100469b0     LIBCMT:inithelp.obj
 0003:000029cc       ___mblocalename            100469cc     LIBCMT:mbctype.obj
 0003:000029d0       ___mbcodepage              100469d0     LIBCMT:mbctype.obj
 0003:000029d4       ___ismbcodepage            100469d4     LIBCMT:mbctype.obj
 0003:000029d8       ___mbulinfo                100469d8     LIBCMT:mbctype.obj
 0003:000029e8       __stdbuf                   100469e8     LIBCMT:_sftbuf.obj
 0003:000029f0       ___ioInitOnce              100469f0     LIBCMT:ioinit.obj
 0003:000029f4       ___error_mode              100469f4     LIBCMT:errmode.obj
 0003:00002b18       __outputformat             10046b18     LIBCMT:outputformat.obj
 0003:00002b1c       __commode                  10046b1c     LIBCMT:ncommode.obj
 0003:00002b20       ___lconv_static_null       10046b20     LIBCMT:lconv.obj
 0003:00002b24       ___lconv_static_W_null     10046b24     LIBCMT:lconv.obj
 0003:00002b28       ___locale_changed          10046b28     LIBCMT:wsetloca.obj
 0003:00002b2c       __fmode                    10046b2c     LIBCMT:txtmode.obj
 0003:00002b40       _CANAC2_2_receiveindex_mb3 10046b40     <common>
 0003:00005c14       _CANAC2_2_receivemaxindex_mb3 10049c14     <common>
 0003:00005c20       _CANAC2_2_sendindex_mb3    10049c20     <common>
 0003:00005f40       _CANAC2_2_sendmaxindex_mb3 10049f40     <common>
 0003:00005f60       _CANAC2_1_receiveindex_mb3 10049f60     <common>
 0003:00006280       _CANAC2_1_receivemaxindex_mb3 1004a280     <common>
 0003:000062a0       _CANAC2_1_sendindex_mb3    1004a2a0     <common>
 0003:000065c0       _CANAC2_1_sendmaxindex_mb3 1004a5c0     <common>
 0003:000065e0       _CANAC2_2_receive_mb3      1004a5e0     <common>
 0003:00006900       _CANAC2_2_send_mb3         1004a900     <common>
 0003:00006c20       _CANAC2_1_receive_mb3      1004ac20     <common>
 0003:00006f40       _CANAC2_1_send_mb3         1004af40     <common>
 0003:00007260       _CANAC2_2_receiveindex_mb2 1004b260     <common>
 0003:00007580       _CANAC2_2_receivemaxindex_mb2 1004b580     <common>
 0003:000075a0       _CANAC2_2_sendindex_mb2    1004b5a0     <common>
 0003:000078c0       _CANAC2_2_sendmaxindex_mb2 1004b8c0     <common>
 0003:000078e0       _CANAC2_1_receiveindex_mb2 1004b8e0     <common>
 0003:00007c00       _CANAC2_1_receivemaxindex_mb2 1004bc00     <common>
 0003:00007c20       _CANAC2_1_sendindex_mb2    1004bc20     <common>
 0003:00007f40       _CANAC2_1_sendmaxindex_mb2 1004bf40     <common>
 0003:00007f60       _CANAC2_2_receive_mb2      1004bf60     <common>
 0003:00008280       _CANAC2_2_send_mb2         1004c280     <common>
 0003:000085a0       _CANAC2_1_receive_mb2      1004c5a0     <common>
 0003:000088c0       _CANAC2_1_send_mb2         1004c8c0     <common>
 0003:00008be0       _CANAC2_2_receiveindex_mb1 1004cbe0     <common>
 0003:00008f00       _CANAC2_2_receivemaxindex_mb1 1004cf00     <common>
 0003:00008f20       _CANAC2_2_sendindex_mb1    1004cf20     <common>
 0003:00009240       _CANAC2_2_sendmaxindex_mb1 1004d240     <common>
 0003:00009260       _CANAC2_1_receiveindex_mb1 1004d260     <common>
 0003:00009580       _CANAC2_1_receivemaxindex_mb1 1004d580     <common>
 0003:000095a0       _CANAC2_1_sendindex_mb1    1004d5a0     <common>
 0003:000098c0       _CANAC2_1_sendmaxindex_mb1 1004d8c0     <common>
 0003:000098e0       _CANAC2_2_receive_mb1      1004d8e0     <common>
 0003:00009c00       _CANAC2_2_send_mb1         1004dc00     <common>
 0003:00009f20       _CANAC2_1_receive_mb1      1004df20     <common>
 0003:0000a240       _CANAC2_1_send_mb1         1004e240     <common>
 0003:0000a560       _CANAC2_2_receiveindex     1004e560     <common>
 0003:0000a880       _CANAC2_2_receivemaxindex  1004e880     <common>
 0003:0000a8a0       _CANAC2_2_sendindex        1004e8a0     <common>
 0003:0000abc0       _CANAC2_2_sendmaxindex     1004ebc0     <common>
 0003:0000abe0       _CANAC2_1_receiveindex     1004ebe0     <common>
 0003:0000af00       _CANAC2_1_receivemaxindex  1004ef00     <common>
 0003:0000af20       _CANAC2_1_sendindex        1004ef20     <common>
 0003:0000b240       _CANAC2_1_sendmaxindex     1004f240     <common>
 0003:0000b260       _CANAC2_2_receive          1004f260     <common>
 0003:0000b580       _CANAC2_2_send             1004f580     <common>
 0003:0000b8a0       _CANAC2_1_receive          1004f8a0     <common>
 0003:0000bbc0       _CANAC2_1_send             1004fbc0     <common>
 0003:0000bee0       _siepowercan_can_object_buffer_port2 1004fee0     <common>
 0003:0000ff00       _siepowercan_can_object_buffer_port1 10053f00     <common>
 0003:00013f00       _rtNaNF                    10057f00     <common>
 0003:00013f14       _rtMinusInfF               10057f14     <common>
 0003:00013f18       _rtInfF                    10057f18     <common>
 0003:00013f20       _rtNaN                     10057f20     <common>
 0003:00013f28       _rtMinusInf                10057f28     <common>
 0003:00013f30       _rtInf                     10057f30     <common>
 0003:00013f40       _pci1756_M_                10057f40     <common>
 0003:00015260       _pci1756_DW                10059260     <common>
 0003:00015280       _pci1756_B                 10059280     <common>
 0003:00015480       _socket                    10059480     <common>
 0003:000154e0       _inet_addr                 100594e0     <common>
 0003:000154e4       _sendto                    100594e4     <common>
 0003:000154e8       _recvfrom                  100594e8     <common>
 0003:000154ec       _listen                    100594ec     <common>
 0003:000154f0       _ioctlsocket               100594f0     <common>
 0003:000154f4       _connect                   100594f4     <common>
 0003:000154f8       _closesocket               100594f8     <common>
 0003:000154fc       _setsockopt                100594fc     <common>
 0003:00015500       _bind                      10059500     <common>
 0003:00015504       _accept                    10059504     <common>
 0003:00015508       _GetHostTarIPAdd           10059508     <common>
 0003:0001550c       _GetDCUUsage               1005950c     <common>
 0003:00015510       _DeleteRoute               10059510     <common>
 0003:00015514       _AddGatewayRoute           10059514     <common>
 0003:00015518       _SetIP                     10059518     <common>
 0003:0001551c       _CloseInterface            1005951c     <common>
 0003:00015520       _OpenInterface             10059520     <common>
 0003:00015524       _SetIPTASKPriority         10059524     <common>
 0003:00015528       _isUsedByRTIP              10059528     <common>
 0003:0001552c       _getlasterror              1005952c     <common>
 0003:00015530       _slrtfsGetFileStatus       10059530     <common>
 0003:00015534       _slrtfsOpenFileAsync       10059534     <common>
 0003:00015538       _slrtfsCloseFileAsync      10059538     <common>
 0003:0001553c       _slrtfsGetFileErrorMessage 1005953c     <common>
 0003:00015540       _slrtfsGetFileError        10059540     <common>
 0003:00015544       _slrtfsWriteToFile         10059544     <common>
 0003:00015548       _slrtfsCloseFile           10059548     <common>
 0003:0001554c       _slrtfsOpenFile            1005954c     <common>
 0003:00015550       _slrtGetSgCRBSpace         10059550     <common>
 0003:00015554       _slrtGetCRBScratchSpace    10059554     <common>
 0003:00015558       _slrteSetupMSI             10059558     <common>
 0003:0001555c       _slTestRegAssessment       1005955c     <common>
 0003:00015560       _slTestTerminate           10059560     <common>
 0003:00015564       _slTestEvalOnFail          10059564     <common>
 0003:00015568       _slTestLogAssessments      10059568     <common>
 0003:0001556c       _slTestInitialize          1005956c     <common>
 0003:00015570       _unRegisterPTPTimeRead     10059570     <common>
 0003:00015574       _registerPTPTimeRead       10059574     <common>
 0003:00015578       _slrteGetCurrentStepSize   10059578     <common>
 0003:0001557c       _slrteSetStepSizeDelta     1005957c     <common>
 0003:00015580       _xpceGetIntTimerGranularityNS 10059580     <common>
 0003:00015584       _sendToAsyncQueueTgtAppSvc 10059584     <common>
 0003:00015588       _terminateToAsyncQueueTgtAppSvc 10059588     <common>
 0003:0001558c       _startToAsyncQueueTgtAppSvc 1005958c     <common>
 0003:00015590       _getStatusFlags            10059590     <common>
 0003:00015594       _getCommService            10059594     <common>
 0003:00015598       _getMemoryService          10059598     <common>
 0003:0001559c       _StreamVideo               1005959c     <common>
 0003:000155a0       _StopVideoDisplay          100595a0     <common>
 0003:000155a4       _StartVideoDisplay         100595a4     <common>
 0003:000155a8       _DestroyVideoDisplay       100595a8     <common>
 0003:000155ac       _CreateVideoDisplay        100595ac     <common>
 0003:000155b0       _ConvertUImage             100595b0     <common>
 0003:000155b4       _StopVideo                 100595b4     <common>
 0003:000155b8       _ReadFrameBuffer           100595b8     <common>
 0003:000155bc       _StartVideo                100595bc     <common>
 0003:000155c0       _GetVideoConfigs           100595c0     <common>
 0003:000155c4       _FindUsbVideoDevice        100595c4     <common>
 0003:000155c8       _xpceDeleteSemaphore       100595c8     <common>
 0003:000155cc       _xpceSignalSemaphore       100595cc     <common>
 0003:000155d0       _xpceWaitSemaphore         100595d0     <common>
 0003:000155d4       _xpceCreateSemaphore       100595d4     <common>
 0003:000155d8       _TBGiveSpinFast            100595d8     <common>
 0003:000155dc       _TBTakeSpinFast            100595dc     <common>
 0003:000155e0       _TBDeleteSpin              100595e0     <common>
 0003:000155e4       _TBCreateSpin              100595e4     <common>
 0003:000155e8       _xpceScopeAcqOK            100595e8     <common>
 0003:000155ec       _rl32eRestartAcquisition   100595ec     <common>
 0003:000155f0       _rl32eSetTargetScopeSigFt  100595f0     <common>
 0003:000155f4       _rl32eSetTargetScope       100595f4     <common>
 0003:000155f8       _xpceFSScopeSet            100595f8     <common>
 0003:000155fc       _rl32eSetScope             100595fc     <common>
 0003:00015600       _rl32eAddSignal            10059600     <common>
 0003:00015604       _rl32eGetSignalNo          10059604     <common>
 0003:00015608       _rl32eDefScope             10059608     <common>
 0003:0001560c       _rl32eScopeExists          1005960c     <common>
 0003:00015610       _xpceGetParamDims          10059610     <common>
 0003:00015614       _xpceGetParameter          10059614     <common>
 0003:00015618       _xpceSetParameter          10059618     <common>
 0003:0001561c       _xpceGetSignalValue        1005961c     <common>
 0003:00015620       _xpceAssignPCIInterrupt    10059620     <common>
 0003:00015624       _rl32eGetPCIInfoAtSlot     10059624     <common>
 0003:00015628       _rl32eGetPCIInfo           10059628     <common>
 0003:0001562c       _rl32eShowPCIInfo          1005962c     <common>
 0003:00015630       _rl32eShowPCIDev           10059630     <common>
 0003:00015634       _xpceGetTET                10059634     <common>
 0003:00015638       _xpceaddEvent              10059638     <common>
 0003:0001563c       _xpceDeRegisterISR         1005963c     <common>
 0003:00015640       _xpceRegisterISR           10059640     <common>
 0003:00015644       _xpcIsModelInit            10059644     <common>
 0003:00015648       _xpcGetElapsedTime         10059648     <common>
 0003:0001564c       _xpcBusyWait               1005964c     <common>
 0003:00015650       _xpcFreePhysicalMemory     10059650     <common>
 0003:00015654       _xpcAllocPhysicalMemory    10059654     <common>
 0003:00015658       _xpcReserveMemoryRegion    10059658     <common>
 0003:0001565c       _xpcOutpB                  1005965c     <common>
 0003:00015660       _xpcOutpW                  10059660     <common>
 0003:00015664       _xpcOutpDW                 10059664     <common>
 0003:00015668       _xpcInpB                   10059668     <common>
 0003:0001566c       _xpcInpW                   1005966c     <common>
 0003:00015670       _xpcInpDW                  10059670     <common>
 0003:00015674       ___unguarded_readlc_active 10059674     <common>
 0003:00015684       ___setlc_active            10059684     <common>
 0003:00015688       __nhandle                  10059688     <common>
 0003:000156e0       ___pioinfo                 100596e0     <common>
 0003:000157e0       __pDestructExceptionObject 100597e0     <common>
 0003:000157ec       __debugger_hook_dummy      100597ec     <common>
 0003:000157f8       __acmdln                   100597f8     <common>
 0003:00015804       ___piob                    10059804     <common>
 0003:00015b44       __nstream                  10059b44     <common>
 0003:00015b60       __bufin                    10059b60     <common>
 0003:00016b60       ___dyn_tls_init_callback   1005ab60     <common>
 0003:00016b70       ___onexitend               1005ab70     <common>
 0003:00016b74       ___onexitbegin             1005ab74     <common>
 0003:00016b78       ___mbctype_initialized     1005ab78     <common>
 0003:00016b7c       ___env_initialized         1005ab7c     <common>
 0004:00000000       __IMPORT_DESCRIPTOR_KERNEL32 1005b000     kernel32:KERNEL32.dll
 0004:00000014       __NULL_IMPORT_DESCRIPTOR   1005b014     kernel32:KERNEL32.dll
 0004:000001e4       __imp__GetModuleHandleA@4  1005b1e4     kernel32:KERNEL32.dll
 0004:000001e8       __imp__GetProcAddress@8    1005b1e8     kernel32:KERNEL32.dll
 0004:000001ec       __imp__HeapAlloc@12        1005b1ec     kernel32:KERNEL32.dll
 0004:000001f0       __imp__IsDebuggerPresent@0 1005b1f0     kernel32:KERNEL32.dll
 0004:000001f4       __imp__IsProcessorFeaturePresent@4 1005b1f4     kernel32:KERNEL32.dll
 0004:000001f8       __imp__EncodePointer@4     1005b1f8     kernel32:KERNEL32.dll
 0004:000001fc       __imp__DecodePointer@4     1005b1fc     kernel32:KERNEL32.dll
 0004:00000200       __imp__GetLastError@0      1005b200     kernel32:KERNEL32.dll
 0004:00000204       __imp__InterlockedDecrement@4 1005b204     kernel32:KERNEL32.dll
 0004:00000208       __imp__ExitProcess@4       1005b208     kernel32:KERNEL32.dll
 0004:0000020c       __imp__GetModuleHandleExW@12 1005b20c     kernel32:KERNEL32.dll
 0004:00000210       __imp__AreFileApisANSI@0   1005b210     kernel32:KERNEL32.dll
 0004:00000214       __imp__MultiByteToWideChar@24 1005b214     kernel32:KERNEL32.dll
 0004:00000218       __imp__HeapFree@12         1005b218     kernel32:KERNEL32.dll
 0004:0000021c       __imp__HeapReAlloc@16      1005b21c     kernel32:KERNEL32.dll
 0004:00000220       __imp__EnterCriticalSection@4 1005b220     kernel32:KERNEL32.dll
 0004:00000224       __imp__LeaveCriticalSection@4 1005b224     kernel32:KERNEL32.dll
 0004:00000228       __imp__GetStdHandle@4      1005b228     kernel32:KERNEL32.dll
 0004:0000022c       __imp__GetFileType@4       1005b22c     kernel32:KERNEL32.dll
 0004:00000230       __imp__GetModuleFileNameW@12 1005b230     kernel32:KERNEL32.dll
 0004:00000234       __imp__WriteConsoleW@20    1005b234     kernel32:KERNEL32.dll
 0004:00000238       __imp__GetCommandLineA@0   1005b238     kernel32:KERNEL32.dll
 0004:0000023c       __imp__GetCurrentThreadId@0 1005b23c     kernel32:KERNEL32.dll
 0004:00000240       __imp__WriteFile@20        1005b240     kernel32:KERNEL32.dll
 0004:00000244       __imp__GetProcessHeap@0    1005b244     kernel32:KERNEL32.dll
 0004:00000248       __imp__UnhandledExceptionFilter@4 1005b248     kernel32:KERNEL32.dll
 0004:0000024c       __imp__SetUnhandledExceptionFilter@4 1005b24c     kernel32:KERNEL32.dll
 0004:00000250       __imp__FlsAlloc@4          1005b250     kernel32:KERNEL32.dll
 0004:00000254       __imp__FlsGetValue@4       1005b254     kernel32:KERNEL32.dll
 0004:00000258       __imp__FlsSetValue@8       1005b258     kernel32:KERNEL32.dll
 0004:0000025c       __imp__FlsFree@4           1005b25c     kernel32:KERNEL32.dll
 0004:00000260       __imp__GetCurrentProcess@0 1005b260     kernel32:KERNEL32.dll
 0004:00000264       __imp__TerminateProcess@8  1005b264     kernel32:KERNEL32.dll
 0004:00000268       __imp__GetStartupInfoW@4   1005b268     kernel32:KERNEL32.dll
 0004:0000026c       __imp__GetModuleHandleW@4  1005b26c     kernel32:KERNEL32.dll
 0004:00000270       __imp__InitializeCriticalSectionAndSpinCount@8 1005b270     kernel32:KERNEL32.dll
 0004:00000274       __imp__DeleteCriticalSection@4 1005b274     kernel32:KERNEL32.dll
 0004:00000278       __imp__FatalAppExitA@8     1005b278     kernel32:KERNEL32.dll
 0004:0000027c       __imp__Sleep@4             1005b27c     kernel32:KERNEL32.dll
 0004:00000280       __imp__InterlockedExchange@8 1005b280     kernel32:KERNEL32.dll
 0004:00000284       __imp__FreeLibrary@4       1005b284     kernel32:KERNEL32.dll
 0004:00000288       __imp__LoadLibraryExW@12   1005b288     kernel32:KERNEL32.dll
 0004:0000028c       __imp__SetConsoleCtrlHandler@8 1005b28c     kernel32:KERNEL32.dll
 0004:00000290       __imp__InterlockedIncrement@4 1005b290     kernel32:KERNEL32.dll
 0004:00000294       __imp__IsValidCodePage@4   1005b294     kernel32:KERNEL32.dll
 0004:00000298       __imp__GetACP@0            1005b298     kernel32:KERNEL32.dll
 0004:0000029c       __imp__GetOEMCP@0          1005b29c     kernel32:KERNEL32.dll
 0004:000002a0       __imp__GetCPInfo@8         1005b2a0     kernel32:KERNEL32.dll
 0004:000002a4       __imp__CloseHandle@4       1005b2a4     kernel32:KERNEL32.dll
 0004:000002a8       __imp__RtlUnwind@16        1005b2a8     kernel32:KERNEL32.dll
 0004:000002ac       __imp__InitOnceExecuteOnce@16 1005b2ac     kernel32:KERNEL32.dll
 0004:000002b0       __imp__ReadFile@20         1005b2b0     kernel32:KERNEL32.dll
 0004:000002b4       __imp__GetConsoleMode@8    1005b2b4     kernel32:KERNEL32.dll
 0004:000002b8       __imp__ReadConsoleW@20     1005b2b8     kernel32:KERNEL32.dll
 0004:000002bc       __imp__WideCharToMultiByte@32 1005b2bc     kernel32:KERNEL32.dll
 0004:000002c0       __imp__GetConsoleCP@0      1005b2c0     kernel32:KERNEL32.dll
 0004:000002c4       __imp__DeleteFileW@4       1005b2c4     kernel32:KERNEL32.dll
 0004:000002c8       __imp__SetFilePointer@16   1005b2c8     kernel32:KERNEL32.dll
 0004:000002cc       __imp__RaiseException@16   1005b2cc     kernel32:KERNEL32.dll
 0004:000002d0       __imp__OutputDebugStringW@4 1005b2d0     kernel32:KERNEL32.dll
 0004:000002d4       __imp__LoadLibraryW@4      1005b2d4     kernel32:KERNEL32.dll
 0004:000002d8       __imp__SetLastError@4      1005b2d8     kernel32:KERNEL32.dll
 0004:000002dc       __imp__GetCurrentThread@0  1005b2dc     kernel32:KERNEL32.dll
 0004:000002e0       __imp__GetModuleFileNameA@12 1005b2e0     kernel32:KERNEL32.dll
 0004:000002e4       __imp__QueryPerformanceCounter@4 1005b2e4     kernel32:KERNEL32.dll
 0004:000002e8       __imp__GetSystemTimeAsFileTime@4 1005b2e8     kernel32:KERNEL32.dll
 0004:000002ec       __imp__GetTickCount64@0    1005b2ec     kernel32:KERNEL32.dll
 0004:000002f0       __imp__GetEnvironmentStringsW@0 1005b2f0     kernel32:KERNEL32.dll
 0004:000002f4       __imp__FreeEnvironmentStringsW@4 1005b2f4     kernel32:KERNEL32.dll
 0004:000002f8       __imp__HeapSize@12         1005b2f8     kernel32:KERNEL32.dll
 0004:000002fc       __imp__GetTimeFormatEx@24  1005b2fc     kernel32:KERNEL32.dll
 0004:00000300       __imp__GetDateFormatEx@28  1005b300     kernel32:KERNEL32.dll
 0004:00000304       __imp__CompareStringEx@36  1005b304     kernel32:KERNEL32.dll
 0004:00000308       __imp__GetLocaleInfoEx@16  1005b308     kernel32:KERNEL32.dll
 0004:0000030c       __imp__GetUserDefaultLocaleName@8 1005b30c     kernel32:KERNEL32.dll
 0004:00000310       __imp__LCMapStringEx@36    1005b310     kernel32:KERNEL32.dll
 0004:00000314       __imp__IsValidLocaleName@4 1005b314     kernel32:KERNEL32.dll
 0004:00000318       __imp__EnumSystemLocalesEx@16 1005b318     kernel32:KERNEL32.dll
 0004:0000031c       __imp__GetStringTypeW@16   1005b31c     kernel32:KERNEL32.dll
 0004:00000320       __imp__FlushFileBuffers@4  1005b320     kernel32:KERNEL32.dll
 0004:00000324       __imp__SetStdHandle@8      1005b324     kernel32:KERNEL32.dll
 0004:00000328       __imp__SetFilePointerEx@20 1005b328     kernel32:KERNEL32.dll
 0004:0000032c       __imp__CreateFileW@28      1005b32c     kernel32:KERNEL32.dll
 0004:00000330       __imp__SetEndOfFile@4      1005b330     kernel32:KERNEL32.dll
 0004:00000334       \177KERNEL32_NULL_THUNK_DATA 1005b334     kernel32:KERNEL32.dll

 entry point at        0001:00010f1b

