 pci1756_xpc

 Timestamp is 610205aa (Thu Jul 29 09:34:34 2021)

 Preferred load address is 10000000

 Start         Length     Name                   Class
 0001:00000000 00038206H .text                   CODE
 0002:00000000 00000104H .CRT$XCA                DATA
 0002:00000104 00000104H .CRT$XCZ                DATA
 0002:00000208 00000104H .CRT$XIA                DATA
 0002:0000030c 00000113H .CRT$XIC                DATA
 0002:00000420 00000104H .CRT$XIZ                DATA
 0002:00000524 00000104H .CRT$XPA                DATA
 0002:00000628 00000109H .CRT$XPX                DATA
 0002:00000734 00000104H .CRT$XPXA               DATA
 0002:00000838 00000104H .CRT$XPZ                DATA
 0002:0000093c 00000104H .CRT$XTA                DATA
 0002:00000a40 00000104H .CRT$XTZ                DATA
 0002:00000b50 00007cffH .rdata                  DATA
 0002:00008850 00000164H .rdata$debug            DATA
 0002:000089c0 0000010eH .rdata$sxdata           DATA
 0002:00008ad0 00000104H .rtc$IAA                DATA
 0002:00008bd4 00000104H .rtc$IZZ                DATA
 0002:00008cd8 00000104H .rtc$TAA                DATA
 0002:00008ddc 00000104H .rtc$TZZ                DATA
 0002:00008ee0 00000991H .xdata$x                DATA
 0002:00009880 000001dfH .edata                  DATA
 0003:00000000 00001c9eH .data                   DATA
 0003:00001ca0 00014f80H .bss                    DATA
 0004:00000000 00000014H .idata$2                DATA
 0004:00000014 00000014H .idata$3                DATA
 0004:00000028 000001bcH .idata$4                DATA
 0004:000001e4 000001bcH .idata$5                DATA
 0004:000003a0 000007c3H .idata$6                DATA

  Address         Publics by Value              Rva+Base       Lib:Object

 0000:00000000       __except_list              00000000     <absolute>
 0000:00000003       ___safe_se_handler_count   00000003     <absolute>
 0000:00000000       ___ImageBase               10000000     <linker-defined>
 0001:000002e0       _MdlInitialize             100012e0 f   pci1756.obj
 0001:000002f0       _MdlInitializeSampleTimes  100012f0 f   pci1756.obj
 0001:00000300       _MdlInitializeSizes        10001300 f   pci1756.obj
 0001:00000310       _MdlOutputs                10001310 f   pci1756.obj
 0001:00000320       _MdlStart                  10001320 f   pci1756.obj
 0001:00000330       _MdlTerminate              10001330 f   pci1756.obj
 0001:00000350       _MdlUpdate                 10001350 f   pci1756.obj
 0001:000003e0       _pci1756                   100013e0 f   pci1756.obj
 0001:00001c90       _pci1756_GetCAPIStaticMap  10002c90 f   pci1756_capi.obj
 0001:00001ca0       _pci1756_InitializeDataMapInfo 10002ca0 f   pci1756_capi.obj
 0001:00001d30       _rtGetInf                  10002d30 f   rtGetInf.obj
 0001:00001d60       _rtGetInfF                 10002d60 f   rtGetInf.obj
 0001:00001d80       _rtGetMinusInf             10002d80 f   rtGetInf.obj
 0001:00001db0       _rtGetMinusInfF            10002db0 f   rtGetInf.obj
 0001:00001dd0       _rtGetNaN                  10002dd0 f   rtGetNaN.obj
 0001:00001e00       _rtGetNaNF                 10002e00 f   rtGetNaN.obj
 0001:000026e0       _rt_CreateLogVar           100036e0 f   rt_logging.obj
 0001:00002770       _rt_CreateLogVarWithConvert 10003770 f   rt_logging.obj
 0001:00003140       _rt_CreateStructLogVar     10004140 f   rt_logging.obj
 0001:00003f50       _rt_GetMxIdFromDTypeId     10004f50 f   rt_logging.obj
 0001:00003f80       _rt_GetMxIdFromDTypeIdForRSim 10004f80 f   rt_logging.obj
 0001:00006870       _rt_StartDataLogging       10007870 f   rt_logging.obj
 0001:00006d30       _rt_StartDataLoggingWithStartTime 10007d30 f   rt_logging.obj
 0001:000076b0       _rt_StopDataLogging        100086b0 f   rt_logging.obj
 0001:000076d0       _rt_StopDataLoggingImpl    100086d0 f   rt_logging.obj
 0001:000079f0       _rt_UpdateLogVar           100089f0 f   rt_logging.obj
 0001:00008df0       _rt_UpdateStructLogVar     10009df0 f   rt_logging.obj
 0001:00008e80       _rt_UpdateTXXFYLogVars     10009e80 f   rt_logging.obj
 0001:000091c0       _rt_UpdateTXYLogVars       1000a1c0 f   rt_logging.obj
 0001:00009420       _rt_CleanUpForStateLogWithMMI 1000a420 f   rt_logging_mmi.obj
 0001:00009530       _rt_FillStateSigInfoFromMMI 1000a530 f   rt_logging_mmi.obj
 0001:000098e0       _rt_mxCreateCharMatrixFromStrings 1000a8e0 f   rt_matrx.obj
 0001:00009a30       _rt_mxCreateDoubleMatrix   1000aa30 f   rt_matrx.obj
 0001:00009a90       _rt_mxCreateNumericArray   1000aa90 f   rt_matrx.obj
 0001:00009b10       _rt_mxCreateString         1000ab10 f   rt_matrx.obj
 0001:00009ba0       _rt_mxDuplicateArray       1000aba0 f   rt_matrx.obj
 0001:00009c30       _rt_mxGetDimensions        1000ac30 f   rt_matrx.obj
 0001:00009ca0       _rt_mxGetEps               1000aca0 f   rt_matrx.obj
 0001:00009cb0       _rt_mxGetString            1000acb0 f   rt_matrx.obj
 0001:00009d70       _rtIsInf                   1000ad70 f   rt_nonfinite.obj
 0001:00009db0       _rtIsInfF                  1000adb0 f   rt_nonfinite.obj
 0001:00009df0       _rtIsNaN                   1000adf0 f   rt_nonfinite.obj
 0001:00009e10       _rtIsNaNF                  1000ae10 f   rt_nonfinite.obj
 0001:00009e30       _rt_InitInfAndNaN          1000ae30 f   rt_nonfinite.obj
 0001:00009e90       _rtPrintfNoOp              1000ae90 f   rt_printf.obj
 0001:00009ea0       _rtwCAPI_CountSysRan       1000aea0 f   rtw_modelmap_utils.obj
 0001:00009f40       _rtwCAPI_EncodePath        1000af40 f   rtw_modelmap_utils.obj
 0001:0000a030       _rtwCAPI_FillSysRan        1000b030 f   rtw_modelmap_utils.obj
 0001:0000a120       _rtwCAPI_FreeFullPaths     1000b120 f   rtw_modelmap_utils.obj
 0001:0000a1b0       _rtwCAPI_GetFullStateBlockPath 1000b1b0 f   rtw_modelmap_utils.obj
 0001:0000a360       _rtwCAPI_GetNumContStateRecords 1000b360 f   rtw_modelmap_utils.obj
 0001:0000a420       _rtwCAPI_GetNumSigLogRecords 1000b420 f   rtw_modelmap_utils.obj
 0001:0000a470       _rtwCAPI_GetNumSigLogRecordsForRTWLogging 1000b470 f   rtw_modelmap_utils.obj
 0001:0000a500       _rtwCAPI_GetNumStateRecords 1000b500 f   rtw_modelmap_utils.obj
 0001:0000a550       _rtwCAPI_GetNumStateRecordsForRTWLogging 1000b550 f   rtw_modelmap_utils.obj
 0001:0000a5e0       _rtwCAPI_GetSigAddrFromMap 1000b5e0 f   rtw_modelmap_utils.obj
 0001:0000a6a0       _rtwCAPI_GetSigLogRecordInfo 1000b6a0 f   rtw_modelmap_utils.obj
 0001:0000aad0       _rtwCAPI_GetStateRecordInfo 1000bad0 f   rtw_modelmap_utils.obj
 0001:0000af80       _rtwCAPI_GetStateWidth     1000bf80 f   rtw_modelmap_utils.obj
 0001:0000afe0       _rtwCAPI_HasStates         1000bfe0 f   rtw_modelmap_utils.obj
 0001:0000b050       _rtwCAPI_UpdateFullPaths   1000c050 f   rtw_modelmap_utils.obj
 0001:0000b230       _DllMain@12                1000c230 f   xpctarget.obj
 0001:0000b240       _SLRTSetErrorStatus        1000c240 f   xpctarget.obj
 0001:0000b260       _changeStepSize            1000c260 f   xpctarget.obj
 0001:0000b2b0       _getDLMVersion             1000c2b0 f   xpctarget.obj
 0001:0000b2c0       _getRefMdlPath             1000c2c0 f   xpctarget.obj
 0001:0000b340       _getRefMdlSignalNumber     1000c340 f   xpctarget.obj
 0001:0000b3f0       _getrlmdlinfo              1000c3f0 f   xpctarget.obj
 0001:0000b5d0       _pci1756_ChangeStepSize    1000c5d0 f   xpctarget.obj
 0001:0000b620       _updateDiscreteEvents      1000c620 f   xpctarget.obj
 0001:0000b630       _getNumRef                 1000c630 f   appmappingData.obj
 0001:0000c3c0       _pci1756IO                 1000d3c0 f   pci1756IO.obj
 0001:0000c420       _GetPCIDeviceFull          1000d420 f   xpcruntime:xpcimports.obj
 0001:0000c450       _ShowPCIDevice             1000d450 f   xpcruntime:xpcimports.obj
 0001:0000cac0       _xpcGetPciConfigAtSlot     1000dac0 f   xpcruntime:xpcimports.obj
 0001:0000cd50       _xpcInitProcs              1000dd50 f   xpcruntime:xpcimports.obj
 0001:0000daf0       _xpceuploadevent           1000eaf0 f   xpcruntime:xpcimports.obj
 0001:0000daf1       __heap_alloc               1000eaf1 f i LIBCMT:malloc.obj
 0001:0000db2e       _malloc                    1000eb2e f   LIBCMT:malloc.obj
 0001:0000dbc0       _memset                    1000ebc0 f   LIBCMT:memset.obj
 0001:0000dc50       __fpmath                   1000ec50 f   LIBCMT:fpinit.obj
 0001:0000dc67       ___setfflag                1000ec67 f   LIBCMT:fpinit.obj
 0001:0000dc7a       __cfltcvt_init             1000ec7a f   LIBCMT:fpinit.obj
 0001:0000dcda       ___raise_securityfailure   1000ecda f   LIBCMT:gs_report.obj
 0001:0000dd17       ___report_gsfailure        1000ed17 f   LIBCMT:gs_report.obj
 0001:0000de10       ___report_rangecheckfailure 1000ee10 f   LIBCMT:gs_report.obj
 0001:0000de1c       ___report_securityfailure  1000ee1c f   LIBCMT:gs_report.obj
 0001:0000deea       ___report_securityfailureEx 1000eeea f   LIBCMT:gs_report.obj
 0001:0000dffe       ___copy_path_to_wide_string 1000effe f   LIBCMT:crt0dat.obj
 0001:0000e0ae       ___crtCorExitProcess       1000f0ae f   LIBCMT:crt0dat.obj
 0001:0000e0e0       ___crtExitProcess          1000f0e0 f   LIBCMT:crt0dat.obj
 0001:0000e0f6       ___freeCrtMemory           1000f0f6 f   LIBCMT:crt0dat.obj
 0001:0000e1fd       __amsg_exit                1000f1fd f   LIBCMT:crt0dat.obj
 0001:0000e219       __c_exit                   1000f219 f   LIBCMT:crt0dat.obj
 0001:0000e228       __cexit                    1000f228 f   LIBCMT:crt0dat.obj
 0001:0000e237       __cinit                    1000f237 f   LIBCMT:crt0dat.obj
 0001:0000e2c8       __exit                     1000f2c8 f   LIBCMT:crt0dat.obj
 0001:0000e2dc       __get_pgmptr               1000f2dc f   LIBCMT:crt0dat.obj
 0001:0000e30b       __get_wpgmptr              1000f30b f   LIBCMT:crt0dat.obj
 0001:0000e33a       __init_pointers            1000f33a f   LIBCMT:crt0dat.obj
 0001:0000e38a       __initterm_e               1000f38a f   LIBCMT:crt0dat.obj
 0001:0000e3ac       __lockexit                 1000f3ac f   LIBCMT:crt0dat.obj
 0001:0000e3b5       __unlockexit               1000f3b5 f   LIBCMT:crt0dat.obj
 0001:0000e4ed       _exit                      1000f4ed f   LIBCMT:crt0dat.obj
 0001:0000e501       _calloc                    1000f501 f   LIBCMT:calloc.obj
 0001:0000e53f       _free                      1000f53f f   LIBCMT:free.obj
 0001:0000e577       _realloc                   1000f577 f   LIBCMT:realloc.obj
 0001:0000e630       _memmove                   1000f630 f   LIBCMT:memmove.obj
 0001:0000ec80       _strchr                    1000fc80 f   LIBCMT:strchr.obj
 0001:0000ecee       ___from_strstr_to_strchr   1000fcee     LIBCMT:strchr.obj
 0001:0000edb0       _strncat                   1000fdb0 f   LIBCMT:strncat.obj
 0001:0000eef0       _strncpy                   1000fef0 f   LIBCMT:strncpy.obj
 0001:0000f014       ___initstdio               10010014 f   LIBCMT:_file.obj
 0001:0000f087       ___endstdio                10010087 f   LIBCMT:_file.obj
 0001:0000f0ae       ___iob_func                100100ae f   LIBCMT:_file.obj
 0001:0000f0b4       __lock_file                100100b4 f   LIBCMT:_file.obj
 0001:0000f0f3       __lock_file2               100100f3 f   LIBCMT:_file.obj
 0001:0000f123       __unlock_file              10010123 f   LIBCMT:_file.obj
 0001:0000f15d       __unlock_file2             1001015d f   LIBCMT:_file.obj
 0001:0000f18a       __fclose_nolock            1001018a f   LIBCMT:fclose.obj
 0001:0000f1f6       _fclose                    100101f6 f   LIBCMT:fclose.obj
 0001:0000f26d       __fsopen                   1001026d f   LIBCMT:fopen.obj
 0001:0000f331       _fopen                     10010331 f   LIBCMT:fopen.obj
 0001:0000f346       _fopen_s                   10010346 f   LIBCMT:fopen.obj
 0001:0000f38b       __fprintf_l                1001038b f   LIBCMT:fprintf.obj
 0001:0000f3a5       __fprintf_p                100103a5 f   LIBCMT:fprintf.obj
 0001:0000f3be       __fprintf_p_l              100103be f   LIBCMT:fprintf.obj
 0001:0000f3d8       __fprintf_s_l              100103d8 f   LIBCMT:fprintf.obj
 0001:0000f3f2       _fprintf                   100103f2 f   LIBCMT:fprintf.obj
 0001:0000f50d       _fprintf_s                 1001050d f   LIBCMT:fprintf.obj
 0001:0000f526       __fread_nolock             10010526 f   LIBCMT:fread.obj
 0001:0000f541       __fread_nolock_s           10010541 f   LIBCMT:fread.obj
 0001:0000f704       _fread                     10010704 f   LIBCMT:fread.obj
 0001:0000f71f       _fread_s                   1001071f f   LIBCMT:fread.obj
 0001:0000f7b0       __fwrite_nolock            100107b0 f   LIBCMT:fwrite.obj
 0001:0000f907       _fwrite                    10010907 f   LIBCMT:fwrite.obj
 0001:0000f985       __get_printf_count_output  10010985 f   LIBCMT:printf.obj
 0001:0000f99a       __printf_l                 1001099a f   LIBCMT:printf.obj
 0001:0000f9b1       __printf_p                 100109b1 f   LIBCMT:printf.obj
 0001:0000f9c7       __printf_p_l               100109c7 f   LIBCMT:printf.obj
 0001:0000f9de       __printf_s_l               100109de f   LIBCMT:printf.obj
 0001:0000f9f5       __set_printf_count_output  100109f5 f   LIBCMT:printf.obj
 0001:0000fa1d       _printf                    10010a1d f   LIBCMT:printf.obj
 0001:0000fac9       _printf_s                  10010ac9 f   LIBCMT:printf.obj
 0001:0000fadf       __unlink                   10010adf f   LIBCMT:unlink.obj
 0001:0000fae8       _remove                    10010ae8 f   LIBCMT:unlink.obj
 0001:0000fb28       _rewind                    10010b28 f   LIBCMT:rewind.obj
 0001:0000fbf0       __scprintf                 10010bf0 f   LIBCMT:sprintf.obj
 0001:0000fc03       __scprintf_l               10010c03 f   LIBCMT:sprintf.obj
 0001:0000fc1a       __scprintf_p               10010c1a f   LIBCMT:sprintf.obj
 0001:0000fc2d       __scprintf_p_l             10010c2d f   LIBCMT:sprintf.obj
 0001:0000fc44       __snprintf_s               10010c44 f   LIBCMT:sprintf.obj
 0001:0000fc63       __snprintf_s_l             10010c63 f   LIBCMT:sprintf.obj
 0001:0000fc83       __sprintf_l                10010c83 f   LIBCMT:sprintf.obj
 0001:0000fc9d       __sprintf_p                10010c9d f   LIBCMT:sprintf.obj
 0001:0000fcb9       __sprintf_p_l              10010cb9 f   LIBCMT:sprintf.obj
 0001:0000fcd6       __sprintf_s_l              10010cd6 f   LIBCMT:sprintf.obj
 0001:0000fcf3       _sprintf                   10010cf3 f   LIBCMT:sprintf.obj
 0001:0000fd75       _sprintf_s                 10010d75 f   LIBCMT:sprintf.obj
 0001:0000fd91       _ldexp                     10010d91 f   LIBCMT:ldexp.obj
 0001:0000ff79       @__security_check_cookie@4 10010f79 f   LIBCMT:secchk.obj
 0001:0000ff90       _memcpy                    10010f90 f   LIBCMT:memcpy.obj
 0001:000105d4       ___isa_available_init      100115d4 f   LIBCMT:cpu_disp.obj
 0001:0001070d       __invoke_watson_if_error   1001170d f i LIBCMT:wassert.obj
 0001:0001072d       __wassert                  1001172d f   LIBCMT:wassert.obj
 0001:00010dcf       __CRT_INIT@12              10011dcf f   LIBCMT:dllcrt0.obj
 0001:00010f3b       __DllMainCRTStartup@12     10011f3b f   LIBCMT:dllcrt0.obj
 0001:0001106c       ___DllXcptFilter           1001206c f   LIBCMT:dllcrt0.obj
 0001:00011091       ?_query_new_handler@@YAP6AHI@ZXZ 10012091 f   LIBCMT:handler.obj
 0001:0001109e       ?_set_new_handler@@YAP6AHI@ZH@Z 1001209e f   LIBCMT:handler.obj
 0001:000110a7       ?_set_new_handler@@YAP6AHI@ZP6AHI@Z@Z 100120a7 f   LIBCMT:handler.obj
 0001:000110dc       __callnewh                 100120dc f   LIBCMT:handler.obj
 0001:00011102       __initp_heap_handler       10012102 f   LIBCMT:handler.obj
 0001:0001110f       __FF_MSGBANNER             1001210f f   LIBCMT:crt0msg.obj
 0001:00011148       __GET_RTERRMSG             10012148 f   LIBCMT:crt0msg.obj
 0001:0001116c       __NMSG_WRITE               1001216c f   LIBCMT:crt0msg.obj
 0001:00011327       ___doserrno                10012327 f   LIBCMT:dosmap.obj
 0001:0001133a       __dosmaperr                1001233a f   LIBCMT:dosmap.obj
 0001:0001135b       __errno                    1001235b f   LIBCMT:dosmap.obj
 0001:0001136e       __get_doserrno             1001236e f   LIBCMT:dosmap.obj
 0001:00011391       __get_errno                10012391 f   LIBCMT:dosmap.obj
 0001:000113b4       __get_errno_from_oserr     100123b4 f   LIBCMT:dosmap.obj
 0001:000113f5       __set_doserrno             100123f5 f   LIBCMT:dosmap.obj
 0001:00011414       __set_errno                10012414 f   LIBCMT:dosmap.obj
 0001:00011433       __get_heap_handle          10012433 f   LIBCMT:heapinit.obj
 0001:00011439       __heap_init                10012439 f   LIBCMT:heapinit.obj
 0001:0001144e       __heap_term                1001244e f   LIBCMT:heapinit.obj
 0001:00011456       __VEC_memset               10012456 f   LIBCMT:p4_memset.obj
 0001:0001151e       ??0_LocaleUpdate@@QAE@PAUlocaleinfo_struct@@@Z 1001251e f i LIBCMT:cvt.obj
 0001:000115a6       ??1_LocaleUpdate@@QAE@XZ   100125a6 f i LIBCMT:cvt.obj
 0001:000115b4       ?GetLocaleT@_LocaleUpdate@@QAEPAUlocaleinfo_struct@@XZ 100125b4 f i LIBCMT:cvt.obj
 0001:000115b7       ?strrchr@@YAPADPADH@Z      100125b7 f i LIBCMT:cvt.obj
 0001:000115c0       __cfltcvt                  100125c0 f   LIBCMT:cvt.obj
 0001:000115e1       __cfltcvt_l                100125e1 f   LIBCMT:cvt.obj
 0001:00011667       __cftoa                    10012667 f   LIBCMT:cvt.obj
 0001:00011685       __cftoa_l                  10012685 f   LIBCMT:cvt.obj
 0001:000119df       __cftoe                    100129df f   LIBCMT:cvt.obj
 0001:00011b4c       __cftoe_l                  10012b4c f   LIBCMT:cvt.obj
 0001:00011c18       __cftof                    10012c18 f   LIBCMT:cvt.obj
 0001:00011d1d       __cftof_l                  10012d1d f   LIBCMT:cvt.obj
 0001:00011ddc       __cftog                    10012ddc f   LIBCMT:cvt.obj
 0001:00011dfa       __cftog_l                  10012dfa f   LIBCMT:cvt.obj
 0001:00011ef7       __cropzeros                10012ef7 f   LIBCMT:cvt.obj
 0001:00011f08       __cropzeros_l              10012f08 f   LIBCMT:cvt.obj
 0001:00011f86       __fassign                  10012f86 f   LIBCMT:cvt.obj
 0001:00011f9e       __fassign_l                10012f9e f   LIBCMT:cvt.obj
 0001:00011fde       __forcdecpt                10012fde f   LIBCMT:cvt.obj
 0001:00011fef       __forcdecpt_l              10012fef f   LIBCMT:cvt.obj
 0001:00012061       __positive                 10013061 f   LIBCMT:cvt.obj
 0001:000120a3       __setdefaultprecision      100130a3 f   LIBCMT:fp8.obj
 0001:000120ca       __initp_misc_cfltcvt_tab   100130ca f   LIBCMT:cmiscdat.obj
 0001:000120e9       __crt_debugger_hook        100130e9 f   LIBCMT:dbghook.obj
 0001:0001212a       ___crtFlsAlloc             1001312a f   LIBCMT:winapisupp.obj
 0001:00012138       ___crtFlsFree              10013138 f   LIBCMT:winapisupp.obj
 0001:00012146       ___crtFlsGetValue          10013146 f   LIBCMT:winapisupp.obj
 0001:00012154       ___crtFlsSetValue          10013154 f   LIBCMT:winapisupp.obj
 0001:00012165       ___crtGetShowWindowMode    10013165 f   LIBCMT:winapisupp.obj
 0001:00012186       ___crtIsPackagedApp        10013186 f   LIBCMT:winapisupp.obj
 0001:000121d2       ___crtSetUnhandledExceptionFilter 100131d2 f   LIBCMT:winapisupp.obj
 0001:000121e0       ___crtTerminateProcess     100131e0 f   LIBCMT:winapisupp.obj
 0001:000121f5       ___crtUnhandledException   100131f5 f   LIBCMT:winapisupp.obj
 0001:0001220b       ?_invalid_parameter@@YAXPBG00II@Z 1001320b f   LIBCMT:invarg.obj
 0001:00012210       ?_invoke_watson@@YAXPBG00II@Z 10013210 f   LIBCMT:invarg.obj
 0001:00012228       __call_reportfault         10013228 f   LIBCMT:invarg.obj
 0001:0001234b       __get_invalid_parameter_handler 1001334b f   LIBCMT:invarg.obj
 0001:00012358       __initp_misc_invarg        10013358 f   LIBCMT:invarg.obj
 0001:00012365       __invalid_parameter        10013365 f   LIBCMT:invarg.obj
 0001:00012390       __invalid_parameter_noinfo 10013390 f   LIBCMT:invarg.obj
 0001:000123a0       __invalid_parameter_noinfo_noreturn 100133a0 f   LIBCMT:invarg.obj
 0001:000123bb       __invoke_watson            100133bb f   LIBCMT:invarg.obj
 0001:000123e6       __set_invalid_parameter_handler 100133e6 f   LIBCMT:invarg.obj
 0001:0001240b       __RTC_Initialize           1001340b f   LIBCMT:initsect.obj
 0001:0001242b       __RTC_Terminate            1001342b f   LIBCMT:initsect.obj
 0001:0001244b       __lock                     1001344b f   LIBCMT:mlock.obj
 0001:0001247f       __lockerr_exit             1001347f f   LIBCMT:mlock.obj
 0001:0001249f       __mtdeletelocks            1001349f f   LIBCMT:mlock.obj
 0001:000124f3       __mtinitlocknum            100134f3 f   LIBCMT:mlock.obj
 0001:0001259a       __mtinitlocks              1001359a f   LIBCMT:mlock.obj
 0001:000125cf       __unlock                   100135cf f   LIBCMT:mlock.obj
 0001:000125f0       __FindPESection            100135f0 f   LIBCMT:pesect.obj
 0001:00012640       __IsNonwritableInCurrentImage 10013640 f   LIBCMT:pesect.obj
 0001:00012700       __ValidateImageBase        10013700 f   LIBCMT:pesect.obj
 0001:00012731       ___onexitinit              10013731 f   LIBCMT:onexit.obj
 0001:00012760       __onexit                   10013760 f   LIBCMT:onexit.obj
 0001:00012856       _atexit                    10013856 f   LIBCMT:onexit.obj
 0001:0001286b       __calloc_crt               1001386b f   LIBCMT:crtheap.obj
 0001:000128b5       __malloc_crt               100138b5 f   LIBCMT:crtheap.obj
 0001:000128fe       __realloc_crt              100138fe f   LIBCMT:crtheap.obj
 0001:0001294a       __recalloc_crt             1001394a f   LIBCMT:crtheap.obj
 0001:0001299a       __set_malloc_crt_max_wait  1001399a f   LIBCMT:crtheap.obj
 0001:000129ad       _wait_a_bit                100139ad f i LIBCMT:crtheap.obj
 0001:000129d1       ?_inconsistency@@YAXXZ     100139d1 f   LIBCMT:hooks.obj
 0001:00012a09       ?terminate@@YAXXZ          10013a09 f   LIBCMT:hooks.obj
 0001:00012a3d       ?unexpected@@YAXXZ         10013a3d f   LIBCMT:hooks.obj
 0001:00012a50       __initp_eh_hooks           10013a50 f   LIBCMT:hooks.obj
 0001:00012a61       ___getlocaleinfo           10013a61 f   LIBCMT:inithelp.obj
 0001:00012c38       __initp_misc_purevirt      10013c38 f   LIBCMT:inithelp.obj
 0001:00012c45       __initp_misc_rand_s        10013c45 f   LIBCMT:rand_s.obj
 0001:00012c52       _rand_s                    10013c52 f   LIBCMT:rand_s.obj
 0001:00012d60       ___fpecode                 10013d60 f   LIBCMT:winsig.obj
 0001:00012d69       ___get_sigabrt             10013d69 f   LIBCMT:winsig.obj
 0001:00012d76       ___pxcptinfoptrs           10013d76 f   LIBCMT:winsig.obj
 0001:00012d7f       __initp_misc_winsig        10013d7f f   LIBCMT:winsig.obj
 0001:00012e34       _raise                     10013e34 f   LIBCMT:winsig.obj
 0001:00013025       _signal                    10014025 f   LIBCMT:winsig.obj
 0001:00013280       __SEH_prolog4              10014280 f   LIBCMT:sehprolg4.obj
 0001:000132c5       __SEH_epilog4              100142c5 f   LIBCMT:sehprolg4.obj
 0001:00013320       __except_handler4          10014320 f   LIBCMT:chandler4.obj
 0001:000134b5       ___initmbctable            100144b5 f   LIBCMT:mbctype.obj
 0001:00013770       ___updatetmbcinfo          10014770 f   LIBCMT:mbctype.obj
 0001:00013815       __getmbcp                  10014815 f   LIBCMT:mbctype.obj
 0001:00013844       __setmbcp                  10014844 f   LIBCMT:mbctype.obj
 0001:000139f2       __setmbcp_nolock           100149f2 f   LIBCMT:mbctype.obj
 0001:00013be7       __ftbuf                    10014be7 f   LIBCMT:_sftbuf.obj
 0001:00013c18       __stbuf                    10014c18 f   LIBCMT:_sftbuf.obj
 0001:00013cbe       __calloc_impl              10014cbe f   LIBCMT:calloc_impl.obj
 0001:00013d38       __fcloseall                10014d38 f   LIBCMT:closeall.obj
 0001:00013dd5       __fflush_nolock            10014dd5 f   LIBCMT:fflush.obj
 0001:00013e1b       __flush                    10014e1b f   LIBCMT:fflush.obj
 0001:00013e7f       __flushall                 10014e7f f   LIBCMT:fflush.obj
 0001:00013e88       _fflush                    10014e88 f   LIBCMT:fflush.obj
 0001:00013fc1       __fileno                   10014fc1 f   LIBCMT:fileno.obj
 0001:00013fe5       __close                    10014fe5 f   LIBCMT:close.obj
 0001:000140bc       __close_nolock             100150bc f   LIBCMT:close.obj
 0001:00014164       __freebuf                  10015164 f   LIBCMT:_freebuf.obj
 0001:00014194       __getstream                10015194 f   LIBCMT:stream.obj
 0001:000142ac       __openfile                 100152ac f   LIBCMT:_open.obj
 0001:00014530       __local_unwind4            10015530 f   LIBCMT:exsup4.obj
 0001:00014606       __seh_longjmp_unwind4@4    10015606 f   LIBCMT:exsup4.obj
 0001:00014622       @_EH4_CallFilterFunc@8     10015622 f   LIBCMT:exsup4.obj
 0001:00014639       @_EH4_TransferToHandler@8  10015639 f   LIBCMT:exsup4.obj
 0001:00014652       @_EH4_GlobalUnwind2@8      10015652 f   LIBCMT:exsup4.obj
 0001:0001466b       @_EH4_LocalUnwind@16       1001566b f   LIBCMT:exsup4.obj
 0001:00014682       __vfprintf_l               10015682 f   LIBCMT:vfprintf.obj
 0001:000146a0       __vfprintf_p               100156a0 f   LIBCMT:vfprintf.obj
 0001:000146bd       __vfprintf_p_l             100156bd f   LIBCMT:vfprintf.obj
 0001:000146db       __vfprintf_s_l             100156db f   LIBCMT:vfprintf.obj
 0001:000146f9       _vfprintf                  100156f9 f   LIBCMT:vfprintf.obj
 0001:00014716       _vfprintf_helper           10015716 f   LIBCMT:vfprintf.obj
 0001:00014830       _vfprintf_s                10015830 f   LIBCMT:vfprintf.obj
 0001:0001484d       __output_l                 1001584d f   LIBCMT:output.obj
 0001:000153f1       _get_int64_arg             100163f1 f i LIBCMT:output.obj
 0001:00015404       _get_int_arg               10016404 f i LIBCMT:output.obj
 0001:00015414       _get_short_arg             10016414 f i LIBCMT:output.obj
 0001:0001550f       __ioinit                   1001650f f   LIBCMT:ioinit.obj
 0001:0001552b       __ioinit0                  1001652b f   LIBCMT:ioinit.obj
 0001:0001554a       __ioinitCallback@12        1001654a f   LIBCMT:ioinit.obj
 0001:00015817       __ioterm                   10016817 f   LIBCMT:ioinit.obj
 0001:00015869       __filbuf                   10016869 f   LIBCMT:_filbuf.obj
 0001:00015997       _memcpy_s                  10016997 f   LIBCMT:memcpy_s.obj
 0001:00015a16       __read                     10016a16 f   LIBCMT:read.obj
 0001:00015b2b       __read_nolock              10016b2b f   LIBCMT:read.obj
 0001:000162c5       __flsbuf                   100172c5 f   LIBCMT:_flsbuf.obj
 0001:00016421       __write                    10017421 f   LIBCMT:write.obj
 0001:00016510       __write_nolock             10017510 f   LIBCMT:write.obj
 0001:00016d8c       __vprintf_l                10017d8c f   LIBCMT:vprintf.obj
 0001:00016da7       __vprintf_p                10017da7 f   LIBCMT:vprintf.obj
 0001:00016dc1       __vprintf_p_l              10017dc1 f   LIBCMT:vprintf.obj
 0001:00016ddc       __vprintf_s_l              10017ddc f   LIBCMT:vprintf.obj
 0001:00016df7       _vprintf                   10017df7 f   LIBCMT:vprintf.obj
 0001:00016e11       _vprintf_helper            10017e11 f   LIBCMT:vprintf.obj
 0001:00016e9a       _vprintf_s                 10017e9a f   LIBCMT:vprintf.obj
 0001:00016eb4       __wremove                  10017eb4 f   LIBCMT:wunlink.obj
 0001:00016ee2       __wunlink                  10017ee2 f   LIBCMT:wunlink.obj
 0001:00016eeb       __lseek                    10017eeb f   LIBCMT:lseek.obj
 0001:00016fda       __lseek_nolock             10017fda f   LIBCMT:lseek.obj
 0001:0001704c       __vscprintf                1001804c f   LIBCMT:vsprintf.obj
 0001:00017066       __vscprintf_helper         10018066 f   LIBCMT:vsprintf.obj
 0001:000170c0       __vscprintf_l              100180c0 f   LIBCMT:vsprintf.obj
 0001:000170db       __vscprintf_p              100180db f   LIBCMT:vsprintf.obj
 0001:000170f5       __vscprintf_p_l            100180f5 f   LIBCMT:vsprintf.obj
 0001:00017110       __vsprintf_l               10018110 f   LIBCMT:vsprintf.obj
 0001:00017192       _vsprintf                  10018192 f   LIBCMT:vsprintf.obj
 0001:000171aa       __vsnprintf_c              100181aa f   LIBCMT:vsnprnc.obj
 0001:000171d1       __vsnprintf_c_l            100181d1 f   LIBCMT:vsnprnc.obj
 0001:000171f9       __vsnprintf_helper         100181f9 f   LIBCMT:vsnprnc.obj
 0001:000172c1       __vsnprintf_s              100182c1 f   LIBCMT:vsnprnc.obj
 0001:000172df       __vsnprintf_s_l            100182df f   LIBCMT:vsnprnc.obj
 0001:000173da       __vsprintf_p               100183da f   LIBCMT:vsnprnc.obj
 0001:00017401       __vsprintf_p_l             10018401 f   LIBCMT:vsnprnc.obj
 0001:00017429       __vsprintf_s_l             10018429 f   LIBCMT:vsnprnc.obj
 0001:0001749e       _vsprintf_s                1001849e f   LIBCMT:vsnprnc.obj
 0001:000174b9       __chgsign                  100184b9 f   LIBCMT:ieeemisc.obj
 0001:000174e4       __copysign                 100184e4 f   LIBCMT:ieeemisc.obj
 0001:0001750a       __finite                   1001850a f   LIBCMT:ieeemisc.obj
 0001:00017522       __fpclass                  10018522 f   LIBCMT:ieeemisc.obj
 0001:000175be       __isnan                    100185be f   LIBCMT:ieeemisc.obj
 0001:000175f2       __logb                     100185f2 f   LIBCMT:ieeemisc.obj
 0001:000176cf       __nextafter                100186cf f   LIBCMT:ieeemisc.obj
 0001:0001796d       __scalb                    1001896d f   LIBCMT:ieeemisc.obj
 0001:00017985       __add_exp                  10018985 f   LIBCMT:util.obj
 0001:000179b2       __decomp                   100189b2 f   LIBCMT:util.obj
 0001:00017a84       __get_exp                  10018a84 f   LIBCMT:util.obj
 0001:00017a9b       __set_bexp                 10018a9b f   LIBCMT:util.obj
 0001:00017ac0       __set_exp                  10018ac0 f   LIBCMT:util.obj
 0001:00017aeb       __sptype                   10018aeb f   LIBCMT:util.obj
 0001:00017b47       __errcode                  10018b47 f   LIBCMT:fpexcept.obj
 0001:00017b79       __except1                  10018b79 f   LIBCMT:fpexcept.obj
 0001:00017c41       __except2                  10018c41 f   LIBCMT:fpexcept.obj
 0001:00017d41       __handle_exc               10018d41 f   LIBCMT:fpexcept.obj
 0001:00017f1d       __handle_qnan1             10018f1d f   LIBCMT:fpexcept.obj
 0001:00017f6d       __handle_qnan2             10018f6d f   LIBCMT:fpexcept.obj
 0001:00017fcd       __raise_exc                10018fcd f   LIBCMT:fpexcept.obj
 0001:00017fee       __raise_exc_ex             10018fee f   LIBCMT:fpexcept.obj
 0001:000182d3       __raise_excf               100192d3 f   LIBCMT:fpexcept.obj
 0001:000182f4       __set_errno_from_matherr   100192f4 f   LIBCMT:fpexcept.obj
 0001:00018321       __umatherr                 10019321 f   LIBCMT:fpexcept.obj
 0001:000183bf       ___clrfp_sse2              100193bf f   LIBCMT:fpctrl.obj
 0001:000183e0       ___ctrlfp_sse2             100193e0 f   LIBCMT:fpctrl.obj
 0001:00018419       ___fclrf_sse2              10019419 f   LIBCMT:fpctrl.obj
 0001:00018434       ___get_fpsr_sse2           10019434 f   LIBCMT:fpctrl.obj
 0001:0001844e       ___set_fpsr_sse2           1001944e f   LIBCMT:fpctrl.obj
 0001:000184c4       ___set_statfp_sse2         100194c4 f   LIBCMT:fpctrl.obj
 0001:000184dd       ___statfp_sse2             100194dd f   LIBCMT:fpctrl.obj
 0001:000184f2       __clrfp                    100194f2 f   LIBCMT:fpctrl.obj
 0001:00018501       __ctrlfp                   10019501 f   LIBCMT:fpctrl.obj
 0001:0001852a       __set_statfp               1001952a f   LIBCMT:fpctrl.obj
 0001:00018580       __statfp                   10019580 f   LIBCMT:fpctrl.obj
 0001:0001858e       _wcscat_s                  1001958e f   LIBCMT:wcscat_s.obj
 0001:000185fa       _wcscpy_s                  100195fa f   LIBCMT:wcscpy_s.obj
 0001:00018656       _wcslen                    10019656 f   LIBCMT:wcslen.obj
 0001:0001866f       _wcsncat_s                 1001966f f   LIBCMT:wcsncat_s.obj
 0001:0001873d       __set_abort_behavior       1001973d f   LIBCMT:abort.obj
 0001:0001875c       _abort                     1001975c f   LIBCMT:abort.obj
 0001:0001879f       ___set_app_type            1001979f f   LIBCMT:errmode.obj
 0001:000187ac       __set_error_mode           100197ac f   LIBCMT:errmode.obj
 0001:00018906       __i64tow_s                 10019906 f   LIBCMT:xtows.obj
 0001:00018937       __itow_s                   10019937 f   LIBCMT:xtows.obj
 0001:00018960       __ltow_s                   10019960 f   LIBCMT:xtows.obj
 0001:0001898a       __ui64tow_s                1001998a f   LIBCMT:xtows.obj
 0001:000189a5       __ultow_s                  100199a5 f   LIBCMT:xtows.obj
 0001:00018ab0       _setvbuf                   10019ab0 f   LIBCMT:setvbuf.obj
 0001:00018bb6       __fwprintf_l               10019bb6 f   LIBCMT:fwprintf.obj
 0001:00018bd0       __fwprintf_p               10019bd0 f   LIBCMT:fwprintf.obj
 0001:00018be9       __fwprintf_p_l             10019be9 f   LIBCMT:fwprintf.obj
 0001:00018c03       __fwprintf_s_l             10019c03 f   LIBCMT:fwprintf.obj
 0001:00018c1d       _fwprintf                  10019c1d f   LIBCMT:fwprintf.obj
 0001:00018cae       _fwprintf_s                10019cae f   LIBCMT:fwprintf.obj
 0001:00018cc7       __vsnwprintf_s             10019cc7 f   LIBCMT:vswprnc.obj
 0001:00018ce5       __vsnwprintf_s_l           10019ce5 f   LIBCMT:vswprnc.obj
 0001:00018de4       __vswprintf_c              10019de4 f   LIBCMT:vswprnc.obj
 0001:00018e0b       __vswprintf_c_l            10019e0b f   LIBCMT:vswprnc.obj
 0001:00018e33       __vswprintf_helper         10019e33 f   LIBCMT:vswprnc.obj
 0001:00018f2c       __vswprintf_p              10019f2c f   LIBCMT:vswprnc.obj
 0001:00018f53       __vswprintf_p_l            10019f53 f   LIBCMT:vswprnc.obj
 0001:00018f7b       __vswprintf_s_l            10019f7b f   LIBCMT:vswprnc.obj
 0001:00018ff2       _vswprintf_s               10019ff2 f   LIBCMT:vswprnc.obj
 0001:0001900d       ___crtMessageBoxW          1001a00d f   LIBCMT:crtmboxw.obj
 0001:000191ef       ___crtMessageBoxWaitThreadW@4 1001a1ef f   LIBCMT:crtmboxw.obj
 0001:0001920d       __XcptFilter               1001a20d f   LIBCMT:winxfltr.obj
 0001:00019368       ___CppXcptFilter           1001a368 f   LIBCMT:winxfltr.obj
 0001:000193ba       ___get_flsindex            1001a3ba f   LIBCMT:tidtable.obj
 0001:000193c0       ___threadhandle            1001a3c0 f   LIBCMT:tidtable.obj
 0001:000193c6       ___threadid                1001a3c6 f   LIBCMT:tidtable.obj
 0001:000193cc       __freefls@4                1001a3cc f   LIBCMT:tidtable.obj
 0001:00019503       __freeptd                  1001a503 f   LIBCMT:tidtable.obj
 0001:00019539       __getptd                   1001a539 f   LIBCMT:tidtable.obj
 0001:00019551       __getptd_noexit            1001a551 f   LIBCMT:tidtable.obj
 0001:000195c0       __initptd                  1001a5c0 f   LIBCMT:tidtable.obj
 0001:0001966c       __mtinit                   1001a66c f   LIBCMT:tidtable.obj
 0001:000196e2       __mtterm                   1001a6e2 f   LIBCMT:tidtable.obj
 0001:000196ff       __set_pgmptr               1001a6ff f i LIBCMT:stdargv.obj
 0001:0001970c       __setargv                  1001a70c f   LIBCMT:stdargv.obj
 0001:00019939       __setenvp                  1001a939 f   LIBCMT:stdenvp.obj
 0001:00019a1a       ___security_init_cookie    1001aa1a f   LIBCMT:gs_support.obj
 0001:00019ab4       ___crtGetEnvironmentStringsA 1001aab4 f   LIBCMT:a_env.obj
 0001:00019b40       _strlen                    1001ab40 f   LIBCMT:strlen.obj
 0001:00019bcb       _wcsncpy_s                 1001abcb f   LIBCMT:wcsncpy_s.obj
 0001:00019c89       ___addlocaleref            1001ac89 f   LIBCMT:localref.obj
 0001:00019d19       ___freetlocinfo            1001ad19 f   LIBCMT:localref.obj
 0001:00019e73       ___removelocaleref         1001ae73 f   LIBCMT:localref.obj
 0001:00019f0e       ___updatetlocinfo          1001af0e f   LIBCMT:localref.obj
 0001:00019f8a       __updatetlocinfoEx_nolock  1001af8a f   LIBCMT:localref.obj
 0001:00019fd5       ___isascii                 1001afd5 f i LIBCMT:_ctype.obj
 0001:00019fe5       ___iscsym                  1001afe5 f i LIBCMT:_ctype.obj
 0001:0001a005       ___iscsymf                 1001b005 f i LIBCMT:_ctype.obj
 0001:0001a022       ___toascii                 1001b022 f i LIBCMT:_ctype.obj
 0001:0001a02d       __isalnum_l                1001b02d f i LIBCMT:_ctype.obj
 0001:0001a083       __isalpha_l                1001b083 f i LIBCMT:_ctype.obj
 0001:0001a0d9       __iscntrl_l                1001b0d9 f i LIBCMT:_ctype.obj
 0001:0001a129       __iscsym_l                 1001b129 f i LIBCMT:_ctype.obj
 0001:0001a14a       __iscsymf_l                1001b14a f i LIBCMT:_ctype.obj
 0001:0001a16b       __isdigit_l                1001b16b f i LIBCMT:_ctype.obj
 0001:0001a1bb       __isgraph_l                1001b1bb f i LIBCMT:_ctype.obj
 0001:0001a211       __islower_l                1001b211 f i LIBCMT:_ctype.obj
 0001:0001a261       __isprint_l                1001b261 f i LIBCMT:_ctype.obj
 0001:0001a2b7       __ispunct_l                1001b2b7 f i LIBCMT:_ctype.obj
 0001:0001a307       __isspace_l                1001b307 f i LIBCMT:_ctype.obj
 0001:0001a357       __isupper_l                1001b357 f i LIBCMT:_ctype.obj
 0001:0001a3a7       __isxdigit_l               1001b3a7 f i LIBCMT:_ctype.obj
 0001:0001a3fd       _isalnum                   1001b3fd f i LIBCMT:_ctype.obj
 0001:0001a42a       _isalpha                   1001b42a f i LIBCMT:_ctype.obj
 0001:0001a457       _iscntrl                   1001b457 f i LIBCMT:_ctype.obj
 0001:0001a482       _isdigit                   1001b482 f i LIBCMT:_ctype.obj
 0001:0001a4ad       _isgraph                   1001b4ad f i LIBCMT:_ctype.obj
 0001:0001a4da       _islower                   1001b4da f i LIBCMT:_ctype.obj
 0001:0001a505       _isprint                   1001b505 f i LIBCMT:_ctype.obj
 0001:0001a532       _ispunct                   1001b532 f i LIBCMT:_ctype.obj
 0001:0001a55d       _isspace                   1001b55d f i LIBCMT:_ctype.obj
 0001:0001a588       _isupper                   1001b588 f i LIBCMT:_ctype.obj
 0001:0001a5b3       _isxdigit                  1001b5b3 f i LIBCMT:_ctype.obj
 0001:0001a5e0       __tolower                  1001b5e0 f   LIBCMT:tolower.obj
 0001:0001a5eb       __tolower_l                1001b5eb f   LIBCMT:tolower.obj
 0001:0001a72c       _tolower                   1001b72c f   LIBCMT:tolower.obj
 0001:0001a758       _strcpy_s                  1001b758 f   LIBCMT:strcpy_s.obj
 0001:0001a7b0       _strrchr                   1001b7b0 f   LIBCMT:strrchr.obj
 0001:0001a8e7       __fptostr                  1001b8e7 f   LIBCMT:_fptostr.obj
 0001:0001a997       __atodbl                   1001b997 f   LIBCMT:atodbl.obj
 0001:0001a9ac       __atodbl_l                 1001b9ac f   LIBCMT:atodbl.obj
 0001:0001aa38       __atoflt                   1001ba38 f   LIBCMT:atodbl.obj
 0001:0001aa4d       __atoflt_l                 1001ba4d f   LIBCMT:atodbl.obj
 0001:0001aad9       __atoldbl                  1001bad9 f   LIBCMT:atodbl.obj
 0001:0001aaee       __atoldbl_l                1001baee f   LIBCMT:atodbl.obj
 0001:0001ab7b       ___dtold                   1001bb7b f   LIBCMT:cfout.obj
 0001:0001ac41       __fltout2                  1001bc41 f   LIBCMT:cfout.obj
 0001:0001acd0       __alldvrm                  1001bcd0 f   LIBCMT:lldvrm.obj
 0001:0001adb0       __aullshr                  1001bdb0 f   LIBCMT:ullshr.obj
 0001:0001adcf       __get_output_format        1001bdcf f   LIBCMT:outputformat.obj
 0001:0001add5       __set_output_format        1001bdd5 f   LIBCMT:outputformat.obj
 0001:0001ae07       __controlfp_s              1001be07 f   LIBCMT:contrlfp.obj
 0001:0001ae64       __fptrap                   1001be64 f   LIBCMT:crt0fp.obj
 0001:0001ae6d       __msize                    1001be6d f   LIBCMT:msize.obj
 0001:0001ae9e       __recalloc                 1001be9e f   LIBCMT:recalloc.obj
 0001:0001af07       _strncpy_s                 1001bf07 f   LIBCMT:strncpy_s.obj
 0001:0001b083       __MarkAllocaS              1001c083 f i LIBCMT:a_loc.obj
 0001:0001b097       ___crtGetLocaleInfoA       1001c097 f   LIBCMT:a_loc.obj
 0001:0001b0cf       __freea                    1001c0cf f i LIBCMT:a_loc.obj
 0001:0001b0ed       ___crtCompareStringEx      1001c0ed f   LIBCMT:winapinls.obj
 0001:0001b10f       ___crtEnumSystemLocalesEx  1001c10f f   LIBCMT:winapinls.obj
 0001:0001b125       ___crtGetDateFormatEx      1001c125 f   LIBCMT:winapinls.obj
 0001:0001b144       ___crtGetLocaleInfoEx      1001c144 f   LIBCMT:winapinls.obj
 0001:0001b15b       ___crtGetTimeFormatEx      1001c15b f   LIBCMT:winapinls.obj
 0001:0001b178       ___crtGetUserDefaultLocaleName 1001c178 f   LIBCMT:winapinls.obj
 0001:0001b189       ___crtIsValidLocaleName    1001c189 f   LIBCMT:winapinls.obj
 0001:0001b197       ___crtLCMapStringEx        1001c197 f   LIBCMT:winapinls.obj
 0001:0001b3c2       ___crtLCMapStringA         1001c3c2 f   LIBCMT:a_map.obj
 0001:0001b4f2       ___crtGetStringTypeA       1001c4f2 f   LIBCMT:a_str.obj
 0001:0001b530       __isatty                   1001c530 f   LIBCMT:isatty.obj
 0001:0001b594       __commit                   1001c594 f   LIBCMT:commit.obj
 0001:0001b68b       ___lock_fhandle            1001c68b f   LIBCMT:osfinfo.obj
 0001:0001b717       __alloc_osfhnd             1001c717 f   LIBCMT:osfinfo.obj
 0001:0001b8c6       __free_osfhnd              1001c8c6 f   LIBCMT:osfinfo.obj
 0001:0001b94c       __get_osfhandle            1001c94c f   LIBCMT:osfinfo.obj
 0001:0001b9be       __open_osfhandle           1001c9be f   LIBCMT:osfinfo.obj
 0001:0001bad4       __set_osfhnd               1001cad4 f   LIBCMT:osfinfo.obj
 0001:0001bb56       __unlock_fhandle           1001cb56 f   LIBCMT:osfinfo.obj
 0001:0001bb7c       __open                     1001cb7c f   LIBCMT:open.obj
 0001:0001bc29       __sopen                    1001cc29 f   LIBCMT:open.obj
 0001:0001bc5a       __sopen_helper             1001cc5a f   LIBCMT:open.obj
 0001:0001bd21       __sopen_nolock             1001cd21 f   LIBCMT:open.obj
 0001:0001bd6d       __sopen_s                  1001cd6d f   LIBCMT:open.obj
 0001:0001bd8b       __mbsnbcmp                 1001cd8b f   LIBCMT:mbsnbcmp.obj
 0001:0001bda3       __mbsnbcmp_l               1001cda3 f   LIBCMT:mbsnbcmp.obj
 0001:0001beb8       __mbsnbicmp                1001ceb8 f   LIBCMT:mbsnbicm.obj
 0001:0001bed0       __mbsnbicmp_l              1001ced0 f   LIBCMT:mbsnbicm.obj
 0001:0001c090       __global_unwind2           1001d090 f   LIBCMT:exsup.obj
 0001:0001c0f5       __local_unwind2            1001d0f5 f   LIBCMT:exsup.obj
 0001:0001c179       __abnormal_termination     1001d179 f   LIBCMT:exsup.obj
 0001:0001c19c       __NLG_Notify1              1001d19c f   LIBCMT:exsup.obj
 0001:0001c1a5       __NLG_Notify               1001d1a5 f   LIBCMT:exsup.obj
 0001:0001c1bc       __NLG_Dispatch2            1001d1bc     LIBCMT:exsup.obj
 0001:0001c1bc       __NLG_Dispatch             1001d1bc     LIBCMT:exsup.obj
 0001:0001c1c4       __NLG_Call                 1001d1c4 f   LIBCMT:exsup.obj
 0001:0001c1c6       __NLG_Return2              1001d1c6     LIBCMT:exsup.obj
 0001:0001c1c7       __output_s_l               1001d1c7 f   LIBCMT:outputs.obj
 0001:0001ce6d       __output_p_l               1001de6d f   LIBCMT:outputp.obj
 0001:0001e1e1       __validate_param_reuseA    1001f1e1 f   LIBCMT:outputp.obj
 0001:0001e317       _get_crtdouble_arg         1001f317 f i LIBCMT:outputp.obj
 0001:0001e414       ___iswcsym                 1001f414 f i LIBCMT:_wctype.obj
 0001:0001e438       ___iswcsymf                1001f438 f i LIBCMT:_wctype.obj
 0001:0001e45c       __isleadbyte_l             1001f45c f i LIBCMT:_wctype.obj
 0001:0001e492       __iswalnum_l               1001f492 f i LIBCMT:_wctype.obj
 0001:0001e4a6       __iswalpha_l               1001f4a6 f i LIBCMT:_wctype.obj
 0001:0001e4ba       __iswcntrl_l               1001f4ba f i LIBCMT:_wctype.obj
 0001:0001e4cb       __iswcsym_l                1001f4cb f i LIBCMT:_wctype.obj
 0001:0001e4ef       __iswcsymf_l               1001f4ef f i LIBCMT:_wctype.obj
 0001:0001e513       __iswdigit_l               1001f513 f i LIBCMT:_wctype.obj
 0001:0001e524       __iswgraph_l               1001f524 f i LIBCMT:_wctype.obj
 0001:0001e538       __iswlower_l               1001f538 f i LIBCMT:_wctype.obj
 0001:0001e549       __iswprint_l               1001f549 f i LIBCMT:_wctype.obj
 0001:0001e55d       __iswpunct_l               1001f55d f i LIBCMT:_wctype.obj
 0001:0001e56e       __iswspace_l               1001f56e f i LIBCMT:_wctype.obj
 0001:0001e57f       __iswupper_l               1001f57f f i LIBCMT:_wctype.obj
 0001:0001e590       __iswxdigit_l              1001f590 f i LIBCMT:_wctype.obj
 0001:0001e5a4       _isleadbyte                1001f5a4 f i LIBCMT:_wctype.obj
 0001:0001e5b5       _iswalnum                  1001f5b5 f i LIBCMT:_wctype.obj
 0001:0001e5c9       _iswalpha                  1001f5c9 f i LIBCMT:_wctype.obj
 0001:0001e5dd       _iswascii                  1001f5dd f i LIBCMT:_wctype.obj
 0001:0001e5ef       _iswcntrl                  1001f5ef f i LIBCMT:_wctype.obj
 0001:0001e600       _iswdigit                  1001f600 f i LIBCMT:_wctype.obj
 0001:0001e611       _iswgraph                  1001f611 f i LIBCMT:_wctype.obj
 0001:0001e625       _iswlower                  1001f625 f i LIBCMT:_wctype.obj
 0001:0001e636       _iswprint                  1001f636 f i LIBCMT:_wctype.obj
 0001:0001e64a       _iswpunct                  1001f64a f i LIBCMT:_wctype.obj
 0001:0001e65b       _iswspace                  1001f65b f i LIBCMT:_wctype.obj
 0001:0001e66c       _iswupper                  1001f66c f i LIBCMT:_wctype.obj
 0001:0001e67d       _iswxdigit                 1001f67d f i LIBCMT:_wctype.obj
 0001:0001e691       __wctomb_l                 1001f691 f   LIBCMT:wctomb.obj
 0001:0001e6de       __wctomb_s_l               1001f6de f   LIBCMT:wctomb.obj
 0001:0001e800       _wctomb                    1001f800 f   LIBCMT:wctomb.obj
 0001:0001e831       _wctomb_s                  1001f831 f   LIBCMT:wctomb.obj
 0001:0001e850       __aulldvrm                 1001f850 f   LIBCMT:ulldvrm.obj
 0001:0001e8e5       __getbuf                   1001f8e5 f   LIBCMT:_getbuf.obj
 0001:0001e92b       __lseeki64                 1001f92b f   LIBCMT:lseeki64.obj
 0001:0001ea34       __lseeki64_nolock          1001fa34 f   LIBCMT:lseeki64.obj
 0001:0001eaa5       __mbtowc_l                 1001faa5 f   LIBCMT:mbtowc.obj
 0001:0001eb98       _mbtowc                    1001fb98 f   LIBCMT:mbtowc.obj
 0001:0001ebb0       __putwch                   1001fbb0 f   LIBCMT:putwch.obj
 0001:0001ebf8       __putwch_nolock            1001fbf8 f   LIBCMT:putwch.obj
 0001:0001ec40       __chkstk                   1001fc40 f   LIBCMT:chkstk.obj
 0001:0001ec40       __alloca_probe             1001fc40     LIBCMT:chkstk.obj
 0001:0001ec6b       __matherr                  1001fc6b f   LIBCMT:matherr.obj
 0001:0001ec6e       __vfwprintf_l              1001fc6e f   LIBCMT:vfwprint.obj
 0001:0001ec8c       __vfwprintf_p              1001fc8c f   LIBCMT:vfwprint.obj
 0001:0001eca9       __vfwprintf_p_l            1001fca9 f   LIBCMT:vfwprint.obj
 0001:0001ecc7       __vfwprintf_s_l            1001fcc7 f   LIBCMT:vfwprint.obj
 0001:0001ece5       _vfwprintf                 1001fce5 f   LIBCMT:vfwprint.obj
 0001:0001ed02       _vfwprintf_helper          1001fd02 f   LIBCMT:vfwprint.obj
 0001:0001ed91       _vfwprintf_s               1001fd91 f   LIBCMT:vfwprint.obj
 0001:0001edae       __woutput_l                1001fdae f   LIBCMT:woutput.obj
 0001:0001fab1       __woutput_s_l              10020ab1 f   LIBCMT:woutputs.obj
 0001:000207e8       __validate_param_reuseW    100217e8 f   LIBCMT:woutputp.obj
 0001:0002095e       __woutput_p_l              1002195e f   LIBCMT:woutputp.obj
 0001:00021d93       __ismbbalnum               10022d93 f   LIBCMT:ismbbyte.obj
 0001:00021dac       __ismbbalnum_l             10022dac f   LIBCMT:ismbbyte.obj
 0001:00021dc6       __ismbbalpha               10022dc6 f   LIBCMT:ismbbyte.obj
 0001:00021ddf       __ismbbalpha_l             10022ddf f   LIBCMT:ismbbyte.obj
 0001:00021df9       __ismbbgraph               10022df9 f   LIBCMT:ismbbyte.obj
 0001:00021e12       __ismbbgraph_l             10022e12 f   LIBCMT:ismbbyte.obj
 0001:00021e2c       __ismbbkalnum              10022e2c f   LIBCMT:ismbbyte.obj
 0001:00021e42       __ismbbkalnum_l            10022e42 f   LIBCMT:ismbbyte.obj
 0001:00021e59       __ismbbkana                10022e59 f   LIBCMT:ismbbyte.obj
 0001:00021e6a       __ismbbkana_l              10022e6a f   LIBCMT:ismbbyte.obj
 0001:00021eb4       __ismbbkprint              10022eb4 f   LIBCMT:ismbbyte.obj
 0001:00021eca       __ismbbkprint_l            10022eca f   LIBCMT:ismbbyte.obj
 0001:00021ee1       __ismbbkpunct              10022ee1 f   LIBCMT:ismbbyte.obj
 0001:00021ef7       __ismbbkpunct_l            10022ef7 f   LIBCMT:ismbbyte.obj
 0001:00021f0e       __ismbblead                10022f0e f   LIBCMT:ismbbyte.obj
 0001:00021f24       __ismbblead_l              10022f24 f   LIBCMT:ismbbyte.obj
 0001:00021f3b       __ismbbprint               10022f3b f   LIBCMT:ismbbyte.obj
 0001:00021f54       __ismbbprint_l             10022f54 f   LIBCMT:ismbbyte.obj
 0001:00021f6e       __ismbbpunct               10022f6e f   LIBCMT:ismbbyte.obj
 0001:00021f84       __ismbbpunct_l             10022f84 f   LIBCMT:ismbbyte.obj
 0001:00021f9b       __ismbbtrail               10022f9b f   LIBCMT:ismbbyte.obj
 0001:00021fb1       __ismbbtrail_l             10022fb1 f   LIBCMT:ismbbyte.obj
 0001:00021fc8       ___free_lconv_mon          10022fc8 f   LIBCMT:initmon.obj
 0001:000220c4       ___init_monetary           100230c4 f   LIBCMT:initmon.obj
 0001:0002249e       ___free_lconv_num          1002349e f   LIBCMT:initnum.obj
 0001:00022505       ___init_numeric            10023505 f   LIBCMT:initnum.obj
 0001:00022745       ___free_lc_time            10023745 f   LIBCMT:inittime.obj
 0001:00022ac5       ___init_time               10023ac5 f   LIBCMT:inittime.obj
 0001:00023332       _localeconv                10024332 f   LIBCMT:lconv.obj
 0001:00023358       __isctype                  10024358 f   LIBCMT:isctype.obj
 0001:00023387       __isctype_l                10024387 f   LIBCMT:isctype.obj
 0001:00023436       __locterm                  10024436 f   LIBCMT:wsetloca.obj
 0001:00023488       ___init_dummy              10024488 f   LIBCMT:wsetloca.obj
 0001:0002348b       ____setlc_active_func      1002448b f   LIBCMT:wsetloca.obj
 0001:00023491       ____unguarded_readlc_active_add_func 10024491 f   LIBCMT:wsetloca.obj
 0001:00023497       ___copy_locale_name        10024497 f   LIBCMT:wsetloca.obj
 0001:000234fb       ___create_locale           100244fb f   LIBCMT:wsetloca.obj
 0001:00023504       ___free_locale             10024504 f   LIBCMT:wsetloca.obj
 0001:00023509       ___get_current_locale      10024509 f   LIBCMT:wsetloca.obj
 0001:0002350e       ___lc_lctowcs              1002450e f   LIBCMT:wsetloca.obj
 0001:0002357c       ___lc_wcstolc              1002457c f   LIBCMT:wsetloca.obj
 0001:000236a6       __configthreadlocale       100246a6 f   LIBCMT:wsetloca.obj
 0001:0002372c       __create_locale            1002472c f   LIBCMT:wsetloca.obj
 0001:0002378c       __expandlocale             1002478c f   LIBCMT:wsetloca.obj
 0001:00023a6f       __free_locale              10024a6f f   LIBCMT:wsetloca.obj
 0001:00023b29       __get_current_locale       10024b29 f   LIBCMT:wsetloca.obj
 0001:00023bd8       __wcreate_locale           10024bd8 f   LIBCMT:wsetloca.obj
 0001:00023cc8       __wcscats                  10024cc8 f   LIBCMT:wsetloca.obj
 0001:00023d07       __wsetlocale               10024d07 f   LIBCMT:wsetloca.obj
 0001:0002463c       __CopyMan                  1002563c f i LIBCMT:intrncvt.obj
 0001:00024659       __FillZeroMan              10025659 f i LIBCMT:intrncvt.obj
 0001:00024668       __IncMan                   10025668 f i LIBCMT:intrncvt.obj
 0001:000246ca       __IsZeroMan                100256ca f i LIBCMT:intrncvt.obj
 0001:000246e7       __RoundMan                 100256e7 f i LIBCMT:intrncvt.obj
 0001:000247e6       __ShrMan                   100257e6 f i LIBCMT:intrncvt.obj
 0001:00024872       __ZeroTail                 10025872 f i LIBCMT:intrncvt.obj
 0001:000248ba       ___addl                    100258ba f i LIBCMT:intrncvt.obj
 0001:000248de       __ld12cvt                  100258de f i LIBCMT:intrncvt.obj
 0001:00024e47       __ld12tod                  10025e47 f   LIBCMT:intrncvt.obj
 0001:000253b7       __ld12tof                  100263b7 f   LIBCMT:intrncvt.obj
 0001:00025927       __ld12told                 10026927 f   LIBCMT:intrncvt.obj
 0001:000259f4       ___STRINGTOLD_L            100269f4 f   LIBCMT:strgtold.obj
 0001:00025a4d       ___ld12mul                 10026a4d f i LIBCMT:strgtold.obj
 0001:00025d16       ___multtenpow12            10026d16 f i LIBCMT:strgtold.obj
 0001:00026074       ___shl_12                  10027074 f i LIBCMT:strgtold.obj
 0001:000260a5       ___shr_12                  100270a5 f i LIBCMT:strgtold.obj
 0001:000260d5       ___strgtold12_l            100270d5 f   LIBCMT:strgtold.obj
 0001:00026851       _$I10_OUTPUT               10027851 f   LIBCMT:x10fout.obj
 0001:00027215       ___add_12                  10028215 f i LIBCMT:x10fout.obj
 0001:00027287       ___pctype_func             10028287 f   LIBCMT:ctype.obj
 0001:000272b0       ___pwctype_func            100282b0 f   LIBCMT:ctype.obj
 0001:000273ee       ___control87_2             100283ee f   LIBCMT:ieee87.obj
 0001:00027a5e       __clearfp                  10028a5e f   LIBCMT:ieee87.obj
 0001:00027b3c       __control87                10028b3c f i LIBCMT:ieee87.obj
 0001:00027e3c       __controlfp                10028e3c f   LIBCMT:ieee87.obj
 0001:00028145       __fpreset                  10029145 f   LIBCMT:ieee87.obj
 0001:00028212       __set_controlfp            10029212 f   LIBCMT:ieee87.obj
 0001:00028283       __statusfp                 10029283 f   LIBCMT:ieee87.obj
 0001:0002831b       __statusfp2                1002931b f   LIBCMT:ieee87.obj
 0001:00028380       __alloca_probe_16          10029380 f   LIBCMT:alloca16.obj
 0001:00028396       __alloca_probe_8           10029396     LIBCMT:alloca16.obj
 0001:0002843d       __wopen                    1002943d f   LIBCMT:wopen.obj
 0001:000284ea       __wsopen                   100294ea f   LIBCMT:wopen.obj
 0001:0002851b       __wsopen_helper            1002951b f   LIBCMT:wopen.obj
 0001:000285e2       __wsopen_nolock            100295e2 f   LIBCMT:wopen.obj
 0001:00028d5b       __wsopen_s                 10029d5b f   LIBCMT:wopen.obj
 0001:00028d80       _strncmp                   10029d80 f   LIBCMT:strncmp.obj
 0001:00028df8       __strnicmp                 10029df8 f   LIBCMT:strnicmp.obj
 0001:00028e63       __strnicmp_l               10029e63 f   LIBCMT:strnicmp.obj
 0001:00029136       __strtol_l                 1002a136 f   LIBCMT:strtol.obj
 0001:00029151       __strtoul_l                1002a151 f   LIBCMT:strtol.obj
 0001:0002916c       _strtol                    1002a16c f   LIBCMT:strtol.obj
 0001:00029196       _strtoul                   1002a196 f   LIBCMT:strtol.obj
 0001:000291c0       __iswctype_l               1002a1c0 f   LIBCMT:iswctype.obj
 0001:000291d2       _is_wctype                 1002a1d2 f   LIBCMT:iswctype.obj
 0001:000291db       _iswctype                  1002a1db f   LIBCMT:iswctype.obj
 0001:0002922d       ____lc_codepage_func       1002a22d f   LIBCMT:initctyp.obj
 0001:00029253       ____lc_collate_cp_func     1002a253 f   LIBCMT:initctyp.obj
 0001:00029279       ____lc_locale_name_func    1002a279 f   LIBCMT:initctyp.obj
 0001:000292a1       ____mb_cur_max_func        1002a2a1 f   LIBCMT:initctyp.obj
 0001:000292c7       ____mb_cur_max_l_func      1002a2c7 f   LIBCMT:initctyp.obj
 0001:000292de       ___init_ctype              1002a2de f   LIBCMT:initctyp.obj
 0001:00029676       ___termconout              1002a676 f   LIBCMT:initcon.obj
 0001:0002968d       ___initconout              1002a68d f   LIBCMT:initcon.obj
 0001:000296ac       __fputwc_nolock            1002a6ac f   LIBCMT:fputwc.obj
 0001:00029831       _fputwc                    1002a831 f   LIBCMT:fputwc.obj
 0001:000298b2       _putwc                     1002a8b2 f   LIBCMT:fputwc.obj
 0001:00029a97       __wcstol_l                 1002aa97 f   LIBCMT:wcstol.obj
 0001:00029aaf       __wcstoul_l                1002aaaf f   LIBCMT:wcstol.obj
 0001:00029ac7       _wcstol                    1002aac7 f   LIBCMT:wcstol.obj
 0001:00029adf       _wcstoul                   1002aadf f   LIBCMT:wcstol.obj
 0001:00029af7       ___init_collate            1002aaf7 f   LIBCMT:initcoll.obj
 0001:00029c17       _memcmp                    1002ac17 f   LIBCMT:memcmp.obj
 0001:0002cb2b       _wcscmp                    1002db2b f   LIBCMT:wcscmp.obj
 0001:0002cb69       _wcscspn                   1002db69 f   LIBCMT:wcscspn.obj
 0001:0002cbb8       _wcsnlen                   1002dbb8 f   LIBCMT:wcslen_s.obj
 0001:0002cbd7       _wcsncmp                   1002dbd7 f   LIBCMT:wcsncmp.obj
 0001:0002cc0d       _wcspbrk                   1002dc0d f   LIBCMT:wcspbrk.obj
 0001:0002d209       ___get_qualified_locale    1002e209 f   LIBCMT:getqloc.obj
 0001:0002d3cb       ___mtold12                 1002e3cb f   LIBCMT:mantold.obj
 0001:0002d5ad       __chsize                   1002e5ad f   LIBCMT:chsize.obj
 0001:0002d5c7       __chsize_nolock            1002e5c7 f   LIBCMT:chsize.obj
 0001:0002d77b       __chsize_s                 1002e77b f   LIBCMT:chsize.obj
 0001:0002d86f       __get_fmode                1002e86f f   LIBCMT:setmode.obj
 0001:0002d899       __set_fmode                1002e899 f   LIBCMT:setmode.obj
 0001:0002d8d9       __setmode                  1002e8d9 f   LIBCMT:setmode.obj
 0001:0002d9e7       __setmode_nolock           1002e9e7 f   LIBCMT:setmode.obj
 0001:0002dac0       ___ascii_strnicmp          1002eac0 f   LIBCMT:_strnicm.obj
 0001:0002db21       __flswbuf                  1002eb21 f   LIBCMT:_flswbuf.obj
 0001:0002dc90       __wchartodigit             1002ec90 f   LIBCMT:wchtodig.obj
 0001:0002de2f       __wtoi                     1002ee2f f   LIBCMT:wtox.obj
 0001:0002de38       __wtoi64                   1002ee38 f   LIBCMT:wtox.obj
 0001:0002de4c       __wtoi64_l                 1002ee4c f   LIBCMT:wtox.obj
 0001:0002de63       __wtoi_l                   1002ee63 f   LIBCMT:wtox.obj
 0001:0002de6c       __wtol                     1002ee6c f   LIBCMT:wtox.obj
 0001:0002de80       __wtol_l                   1002ee80 f   LIBCMT:wtox.obj
 0001:0002de97       _wcschr                    1002ee97 f   LIBCMT:wcschr.obj
 0001:0002df45       __wcsicmp                  1002ef45 f   LIBCMT:wcsicmp.obj
 0001:0002dfd8       __wcsicmp_l                1002efd8 f   LIBCMT:wcsicmp.obj
 0001:0002e0b1       __wcsnicmp                 1002f0b1 f   LIBCMT:wcsnicmp.obj
 0001:0002e165       __wcsnicmp_l               1002f165 f   LIBCMT:wcsnicmp.obj
 0001:0002e52a       __wcstoi64                 1002f52a f   LIBCMT:wcstoq.obj
 0001:0002e554       __wcstoi64_l               1002f554 f   LIBCMT:wcstoq.obj
 0001:0002e56f       __wcstoui64                1002f56f f   LIBCMT:wcstoq.obj
 0001:0002e599       __wcstoui64_l              1002f599 f   LIBCMT:wcstoq.obj
 0001:0002e5b4       __towlower_l               1002f5b4 f   LIBCMT:towlower.obj
 0001:0002e666       _towlower                  1002f666 f   LIBCMT:towlower.obj
 0001:0002e680       __allmul                   1002f680 f   LIBCMT:llmul.obj
 0001:0002e6b4       ___crtLCMapStringW         1002f6b4 f   LIBCMT:w_map.obj
 0001:0002e6e4       _GetModuleHandleA@4        1002f6e4 f   kernel32:KERNEL32.dll
 0001:0002e6ea       _GetProcAddress@8          1002f6ea f   kernel32:KERNEL32.dll
 0001:0002e6f0       _HeapAlloc@12              1002f6f0 f   kernel32:KERNEL32.dll
 0001:0002e6f6       _IsDebuggerPresent@0       1002f6f6 f   kernel32:KERNEL32.dll
 0001:0002e6fc       _IsProcessorFeaturePresent@4 1002f6fc f   kernel32:KERNEL32.dll
 0001:0002e702       _EncodePointer@4           1002f702 f   kernel32:KERNEL32.dll
 0001:0002e708       _DecodePointer@4           1002f708 f   kernel32:KERNEL32.dll
 0001:0002e70e       _GetLastError@0            1002f70e f   kernel32:KERNEL32.dll
 0001:0002e714       _InterlockedDecrement@4    1002f714 f   kernel32:KERNEL32.dll
 0001:0002e71a       _ExitProcess@4             1002f71a f   kernel32:KERNEL32.dll
 0001:0002e720       _GetModuleHandleExW@12     1002f720 f   kernel32:KERNEL32.dll
 0001:0002e726       _AreFileApisANSI@0         1002f726 f   kernel32:KERNEL32.dll
 0001:0002e72c       _MultiByteToWideChar@24    1002f72c f   kernel32:KERNEL32.dll
 0001:0002e732       _HeapFree@12               1002f732 f   kernel32:KERNEL32.dll
 0001:0002e738       _HeapReAlloc@16            1002f738 f   kernel32:KERNEL32.dll
 0001:0002e73e       _EnterCriticalSection@4    1002f73e f   kernel32:KERNEL32.dll
 0001:0002e744       _LeaveCriticalSection@4    1002f744 f   kernel32:KERNEL32.dll
 0001:0002e74a       _GetStdHandle@4            1002f74a f   kernel32:KERNEL32.dll
 0001:0002e750       _GetFileType@4             1002f750 f   kernel32:KERNEL32.dll
 0001:0002e756       _GetModuleFileNameW@12     1002f756 f   kernel32:KERNEL32.dll
 0001:0002e75c       _WriteConsoleW@20          1002f75c f   kernel32:KERNEL32.dll
 0001:0002e762       _GetCommandLineA@0         1002f762 f   kernel32:KERNEL32.dll
 0001:0002e768       _GetCurrentThreadId@0      1002f768 f   kernel32:KERNEL32.dll
 0001:0002e76e       _WriteFile@20              1002f76e f   kernel32:KERNEL32.dll
 0001:0002e774       _GetProcessHeap@0          1002f774 f   kernel32:KERNEL32.dll
 0001:0002e77a       _UnhandledExceptionFilter@4 1002f77a f   kernel32:KERNEL32.dll
 0001:0002e780       _SetUnhandledExceptionFilter@4 1002f780 f   kernel32:KERNEL32.dll
 0001:0002e786       _FlsAlloc@4                1002f786 f   kernel32:KERNEL32.dll
 0001:0002e78c       _FlsGetValue@4             1002f78c f   kernel32:KERNEL32.dll
 0001:0002e792       _FlsSetValue@8             1002f792 f   kernel32:KERNEL32.dll
 0001:0002e798       _FlsFree@4                 1002f798 f   kernel32:KERNEL32.dll
 0001:0002e79e       _GetCurrentProcess@0       1002f79e f   kernel32:KERNEL32.dll
 0001:0002e7a4       _TerminateProcess@8        1002f7a4 f   kernel32:KERNEL32.dll
 0001:0002e7aa       _GetStartupInfoW@4         1002f7aa f   kernel32:KERNEL32.dll
 0001:0002e7b0       _GetModuleHandleW@4        1002f7b0 f   kernel32:KERNEL32.dll
 0001:0002e7b6       _InitializeCriticalSectionAndSpinCount@8 1002f7b6 f   kernel32:KERNEL32.dll
 0001:0002e7bc       _DeleteCriticalSection@4   1002f7bc f   kernel32:KERNEL32.dll
 0001:0002e7c2       _FatalAppExitA@8           1002f7c2 f   kernel32:KERNEL32.dll
 0001:0002e7c8       _Sleep@4                   1002f7c8 f   kernel32:KERNEL32.dll
 0001:0002e7ce       _InterlockedExchange@8     1002f7ce f   kernel32:KERNEL32.dll
 0001:0002e7d4       _FreeLibrary@4             1002f7d4 f   kernel32:KERNEL32.dll
 0001:0002e7da       _LoadLibraryExW@12         1002f7da f   kernel32:KERNEL32.dll
 0001:0002e7e0       _SetConsoleCtrlHandler@8   1002f7e0 f   kernel32:KERNEL32.dll
 0001:0002e7e6       _InterlockedIncrement@4    1002f7e6 f   kernel32:KERNEL32.dll
 0001:0002e7ec       _IsValidCodePage@4         1002f7ec f   kernel32:KERNEL32.dll
 0001:0002e7f2       _GetACP@0                  1002f7f2 f   kernel32:KERNEL32.dll
 0001:0002e7f8       _GetOEMCP@0                1002f7f8 f   kernel32:KERNEL32.dll
 0001:0002e7fe       _GetCPInfo@8               1002f7fe f   kernel32:KERNEL32.dll
 0001:0002e804       _CloseHandle@4             1002f804 f   kernel32:KERNEL32.dll
 0001:0002e80a       _RtlUnwind@16              1002f80a f   kernel32:KERNEL32.dll
 0001:0002e810       _InitOnceExecuteOnce@16    1002f810 f   kernel32:KERNEL32.dll
 0001:0002e816       _ReadFile@20               1002f816 f   kernel32:KERNEL32.dll
 0001:0002e81c       _GetConsoleMode@8          1002f81c f   kernel32:KERNEL32.dll
 0001:0002e822       _ReadConsoleW@20           1002f822 f   kernel32:KERNEL32.dll
 0001:0002e828       _WideCharToMultiByte@32    1002f828 f   kernel32:KERNEL32.dll
 0001:0002e82e       _GetConsoleCP@0            1002f82e f   kernel32:KERNEL32.dll
 0001:0002e834       _DeleteFileW@4             1002f834 f   kernel32:KERNEL32.dll
 0001:0002e83a       _SetFilePointer@16         1002f83a f   kernel32:KERNEL32.dll
 0001:0002e840       _RaiseException@16         1002f840 f   kernel32:KERNEL32.dll
 0001:0002e846       _OutputDebugStringW@4      1002f846 f   kernel32:KERNEL32.dll
 0001:0002e84c       _LoadLibraryW@4            1002f84c f   kernel32:KERNEL32.dll
 0001:0002e852       _SetLastError@4            1002f852 f   kernel32:KERNEL32.dll
 0001:0002e858       _GetCurrentThread@0        1002f858 f   kernel32:KERNEL32.dll
 0001:0002e85e       _GetModuleFileNameA@12     1002f85e f   kernel32:KERNEL32.dll
 0001:0002e864       _QueryPerformanceCounter@4 1002f864 f   kernel32:KERNEL32.dll
 0001:0002e86a       _GetSystemTimeAsFileTime@4 1002f86a f   kernel32:KERNEL32.dll
 0001:0002e870       _GetTickCount64@0          1002f870 f   kernel32:KERNEL32.dll
 0001:0002e876       _GetEnvironmentStringsW@0  1002f876 f   kernel32:KERNEL32.dll
 0001:0002e87c       _FreeEnvironmentStringsW@4 1002f87c f   kernel32:KERNEL32.dll
 0001:0002e882       _HeapSize@12               1002f882 f   kernel32:KERNEL32.dll
 0001:0002e888       _GetTimeFormatEx@24        1002f888 f   kernel32:KERNEL32.dll
 0001:0002e88e       _GetDateFormatEx@28        1002f88e f   kernel32:KERNEL32.dll
 0001:0002e894       _CompareStringEx@36        1002f894 f   kernel32:KERNEL32.dll
 0001:0002e89a       _GetLocaleInfoEx@16        1002f89a f   kernel32:KERNEL32.dll
 0001:0002e8a0       _GetUserDefaultLocaleName@8 1002f8a0 f   kernel32:KERNEL32.dll
 0001:0002e8a6       _LCMapStringEx@36          1002f8a6 f   kernel32:KERNEL32.dll
 0001:0002e8ac       _IsValidLocaleName@4       1002f8ac f   kernel32:KERNEL32.dll
 0001:0002e8b2       _EnumSystemLocalesEx@16    1002f8b2 f   kernel32:KERNEL32.dll
 0001:0002e8b8       _GetStringTypeW@16         1002f8b8 f   kernel32:KERNEL32.dll
 0001:0002e8be       _FlushFileBuffers@4        1002f8be f   kernel32:KERNEL32.dll
 0001:0002e8c4       _SetStdHandle@8            1002f8c4 f   kernel32:KERNEL32.dll
 0001:0002e8ca       _SetFilePointerEx@20       1002f8ca f   kernel32:KERNEL32.dll
 0001:0002e8d0       _CreateFileW@28            1002f8d0 f   kernel32:KERNEL32.dll
 0001:0002e8d6       _SetEndOfFile@4            1002f8d6 f   kernel32:KERNEL32.dll
 0002:00000000       ___xc_a                    1003a000     LIBCMT:crt0init.obj
 0002:00000104       ___xc_z                    1003a104     LIBCMT:crt0init.obj
 0002:00000208       ___xi_a                    1003a208     LIBCMT:crt0init.obj
 0002:00000420       ___xi_z                    1003a420     LIBCMT:crt0init.obj
 0002:00000524       ___xp_a                    1003a524     LIBCMT:crt0init.obj
 0002:00000838       ___xp_z                    1003a838     LIBCMT:crt0init.obj
 0002:0000093c       ___xt_a                    1003a93c     LIBCMT:crt0init.obj
 0002:00000a40       ___xt_z                    1003aa40     LIBCMT:crt0init.obj
 0002:00000b88       _pci1756_M                 1003ab88     pci1756.obj
 0002:00000b8c       ??_C@_0BC@OJJPBDHH@FixedStepDiscrete?$AA@ 1003ab8c     pci1756.obj
 0002:00000ba4       ??_C@_04EPKDLPPB@tout?$AA@ 1003aba4     pci1756.obj
 0002:00000baa       ??_C@_00CNPNBAHC@?$AA@     1003abaa     pci1756.obj
 0002:00000bac       ??_C@_03HBFGMJOD@rt_?$AA@  1003abac     pci1756.obj
 0002:00000bb0       ??_C@_04DBHJIBAH@PCI1?$AA@ 1003abb0     pci1756.obj
 0002:00000bb8       ??_C@_0N@LILGENG@pci1756?1PCI1?$AA@ 1003abb8     pci1756.obj
 0002:00000bc8       __real@3f60624dd2f1a9fc    1003abc8     pci1756.obj
 0002:00000bd8       __real@41f0000000000000    1003abd8     pci1756.obj
 0002:00000be8       __real@bff0000000000000    1003abe8     pci1756.obj
 0002:00000c00       __xmm@41f00000000000000000000000000000 1003ac00     pci1756.obj
 0002:000014e4       ??_C@_09MHCDEIJE@constant1?$AA@ 1003b4e4     pci1756_capi.obj
 0002:000014f0       ??_C@_0L@CIODECOG@constant10?$AA@ 1003b4f0     pci1756_capi.obj
 0002:00001500       ??_C@_0L@DBPIHDKH@constant11?$AA@ 1003b500     pci1756_capi.obj
 0002:00001510       ??_C@_0L@BKNFCAGE@constant12?$AA@ 1003b510     pci1756_capi.obj
 0002:00001520       ??_C@_0L@DMOBBCF@constant13?$AA@ 1003b520     pci1756_capi.obj
 0002:00001530       ??_C@_0L@EMIPIHOC@constant14?$AA@ 1003b530     pci1756_capi.obj
 0002:00001540       ??_C@_0L@FFJELGKD@constant15?$AA@ 1003b540     pci1756_capi.obj
 0002:00001550       ??_C@_0L@HOLJOFGA@constant16?$AA@ 1003b550     pci1756_capi.obj
 0002:00001560       ??_C@_0L@GHKCNECB@constant17?$AA@ 1003b560     pci1756_capi.obj
 0002:00001570       ??_C@_0L@OADKMIOO@constant18?$AA@ 1003b570     pci1756_capi.obj
 0002:00001580       ??_C@_0L@PJCBPJKP@constant19?$AA@ 1003b580     pci1756_capi.obj
 0002:00001590       ??_C@_09OMAOBLFH@constant2?$AA@ 1003b590     pci1756_capi.obj
 0002:0000159c       ??_C@_0L@CKKFPMLP@constant20?$AA@ 1003b59c     pci1756_capi.obj
 0002:000015ac       ??_C@_0L@DDLOMNPO@constant21?$AA@ 1003b5ac     pci1756_capi.obj
 0002:000015bc       ??_C@_0L@BIJDJODN@constant22?$AA@ 1003b5bc     pci1756_capi.obj
 0002:000015cc       ??_C@_0L@BIIKPHM@constant23?$AA@ 1003b5cc     pci1756_capi.obj
 0002:000015dc       ??_C@_0L@EOMJDJLL@constant24?$AA@ 1003b5dc     pci1756_capi.obj
 0002:000015ec       ??_C@_0L@FHNCAIPK@constant25?$AA@ 1003b5ec     pci1756_capi.obj
 0002:000015fc       ??_C@_0L@HMPPFLDJ@constant26?$AA@ 1003b5fc     pci1756_capi.obj
 0002:0000160c       ??_C@_0L@GFOEGKHI@constant27?$AA@ 1003b60c     pci1756_capi.obj
 0002:0000161c       ??_C@_0L@OCHMHGLH@constant28?$AA@ 1003b61c     pci1756_capi.obj
 0002:0000162c       ??_C@_0L@PLGHEHPG@constant29?$AA@ 1003b62c     pci1756_capi.obj
 0002:0000163c       ??_C@_09PFBFCKBG@constant3?$AA@ 1003b63c     pci1756_capi.obj
 0002:00001648       ??_C@_0L@CLGHJGII@constant30?$AA@ 1003b648     pci1756_capi.obj
 0002:00001658       ??_C@_0L@DCHMKHMJ@constant31?$AA@ 1003b658     pci1756_capi.obj
 0002:00001668       ??_C@_0L@BJFBPEAK@constant32?$AA@ 1003b668     pci1756_capi.obj
 0002:00001678       ??_C@_09LKFELMNB@constant4?$AA@ 1003b678     pci1756_capi.obj
 0002:00001684       ??_C@_09KDEPINJA@constant5?$AA@ 1003b684     pci1756_capi.obj
 0002:00001690       ??_C@_09IIGCNOFD@constant6?$AA@ 1003b690     pci1756_capi.obj
 0002:0000169c       ??_C@_09JBHJOPBC@constant7?$AA@ 1003b69c     pci1756_capi.obj
 0002:000016a8       ??_C@_09BGOBPDNN@constant8?$AA@ 1003b6a8     pci1756_capi.obj
 0002:000016b4       ??_C@_09PPKMCJM@constant9?$AA@ 1003b6b4     pci1756_capi.obj
 0002:000016c0       ??_C@_0BF@GGMNNFDC@Data?5Type?5Conversion?$AA@ 1003b6c0     pci1756_capi.obj
 0002:000016dc       ??_C@_07GEPDKGKM@PCI1?1p1?$AA@ 1003b6dc     pci1756_capi.obj
 0002:000016e8       ??_C@_07EPNOPFGP@PCI1?1p2?$AA@ 1003b6e8     pci1756_capi.obj
 0002:000016f4       ??_C@_05LPIJGKJ@Value?$AA@ 1003b6f4     pci1756_capi.obj
 0002:000016fc       ??_C@_02KKFPAPOP@P1?$AA@   1003b6fc     pci1756_capi.obj
 0002:00001700       ??_C@_02IBHCFMCM@P2?$AA@   1003b700     pci1756_capi.obj
 0002:00001704       ??_C@_06BNJCAIGJ@double?$AA@ 1003b704     pci1756_capi.obj
 0002:0000170c       ??_C@_06CNMIJIPB@real_T?$AA@ 1003b70c     pci1756_capi.obj
 0002:00001714       ??_C@_05KNFBNCOH@float?$AA@ 1003b714     pci1756_capi.obj
 0002:00001f80       ??_C@_0DJ@FHKINPLE@Unexpected?5itemKind?5?$DN?5DATA_ITEM?5@ 1003bf80     rt_logging.obj
 0002:00001fc4       ??_C@_0DA@IEHFPFCJ@Unexpected?5itemKind?$DN?$CFd?5in?5rt_Pro@ 1003bfc4     rt_logging.obj
 0002:00002000       ??_C@_0DA@IFLHJPBO@Unexpected?5itemKind?$DN?$CFd?5in?5rt_Pro@ 1003c000     rt_logging.obj
 0002:0000203c       ??_C@_0DA@IAPIIJJL@Unexpected?5itemKind?$DN?$CFd?5in?5rt_Pro@ 1003c03c     rt_logging.obj
 0002:00002078       ??_C@_0BE@LCIGPJIG@MATLAB?55?40?5MAT?9file?$AA@ 1003c078     rt_logging.obj
 0002:00002090       ??_C@_0FB@PCJEAJIB@?$CK?$CK?$CK?5Log?5variable?5?$CFs?5has?5wrapped?5@ 1003c090     rt_logging.obj
 0002:000020f8       ??_C@_0MG@NKMLMOGF@?$CK?$CK?$CK?5To?5avoid?5wrapping?0?5explicitl@ 1003c0f8     rt_logging.obj
 0002:000021e8       ??_C@_0N@IPAEOLLP@_rtw_tmw?4tmw?$AA@ 1003c1e8     rt_logging.obj
 0002:000021f8       ??_C@_04HDOCAJNK@?$CFs?$CFs?$AA@ 1003c1f8     rt_logging.obj
 0002:00002200       ??_C@_03ELIABIOC@w?$CLb?$AA@ 1003c200     rt_logging.obj
 0002:00002204       ??_C@_0BF@JPILDDFA@?$CK?$CK?$CK?5Error?5opening?5?$CFs?$AA@ 1003c204     rt_logging.obj
 0002:00002220       ??_C@_0BK@EEMDELA@unable?5to?5open?5data?5file?6?$AA@ 1003c220     rt_logging.obj
 0002:00002240       ??_C@_04CGFJFPFD@none?$AA@ 1003c240     rt_logging.obj
 0002:00002248       ??_C@_0EE@LCGFPNON@?$CK?$CK?$CK?5Error?5creating?5signals?5struc@ 1003c248     rt_logging.obj
 0002:0000229c       ??_C@_0CE@NHECEDMK@?$CK?$CK?$CK?5Error?5creating?5log?5variable?5@ 1003c29c     rt_logging.obj
 0002:000022c8       ??_C@_0DB@IOCGKAGH@?$CK?$CK?$CK?5Errors?5occurred?5when?5startin@ 1003c2c8     rt_logging.obj
 0002:00002304       ??_C@_0BO@BBLOGEBK@?$CK?$CK?$CK?5Memory?5allocation?5error?4?6?$AA@ 1003c304     rt_logging.obj
 0002:00002328       ??_C@_0N@LGFBAGEL@?5?$CIreal?5part?$CJ?$AA@ 1003c328     rt_logging.obj
 0002:00002338       ??_C@_0KH@CGNMHNFE@?5?5?5?5varName?5?5?5?5?5?5?5?5?5?5?$DN?5?$CFs?$CFs?6?5?5?5?5@ 1003c338     rt_logging.obj
 0002:00002400       ??_C@_0LE@OALKKEFM@?5?5?5?5varName?5?5?5?5?5?5?5?5?5?5?$DN?5?$CFs?5?$CIcompl@ 1003c400     rt_logging.obj
 0002:000024d8       ??_C@_0KF@JDDLEOKO@?5?5?5?5varName?5?5?5?5?5?5?5?5?5?5?$DN?5?$CFs?6?5?5?5?5nR@ 1003c4d8     rt_logging.obj
 0002:000025a0       ??_C@_0DP@HPDMIOFM@?$CK?$CK?$CK?5Using?5a?5default?5buffer?5of?5si@ 1003c5a0     rt_logging.obj
 0002:000025f0       ??_C@_0KE@JEFOLKNF@?6?$CK?$CK?$CK?5Memory?5required?5to?5log?5vari@ 1003c5f0     rt_logging.obj
 0002:000026b8       ??_C@_0JP@DKLMHCBI@?$CK?$CK?$CK?5Details?3?6?5?5?5?5?5?5?5varName?5?5?5?5?5@ 1003c6b8     rt_logging.obj
 0002:00002778       ??_C@_0CM@CAMILBED@?$CK?$CK?$CK?5Error?5allocating?5memory?5for?5@ 1003c778     rt_logging.obj
 0002:000027ac       ??_C@_0DF@BBCNMOPM@?$CK?$CK?$CK?5Error?5allocating?5memory?5for?5@ 1003c7ac     rt_logging.obj
 0002:000027f0       ??_C@_0JP@DBCLPCCI@?$CK?$CK?$CK?5Details?3?6?5?5?5?5?5?5?5varName?5?5?5?5?5@ 1003c7f0     rt_logging.obj
 0002:000028b0       ??_C@_0FK@DPGAOBGA@?$CK?$CK?$CK?5Error?5allocating?5memory?5for?5@ 1003c8b0     rt_logging.obj
 0002:0000291c       ??_C@_0BI@GGDNPHLJ@?$CK?$CK?$CK?5Error?5writing?5to?5?$CFs?$AA@ 1003c91c     rt_logging.obj
 0002:00002938       ??_C@_0CB@IBGJGELG@?$CK?$CK?$CK?5Error?5writing?5?$CFs?5due?5to?3?5?$CFs?6@ 1003c938     rt_logging.obj
 0002:00002960       ??_C@_0CN@FLMCHCPB@?$CK?$CK?$CK?5Error?5writing?5log?5variable?5?$CF@ 1003c960     rt_logging.obj
 0002:00002998       ??_C@_0DH@GAJCNOJP@?$CK?$CK?$CK?5Error?5writing?5structure?5log?5@ 1003c998     rt_logging.obj
 0002:000029dc       ??_C@_0BD@POEALECL@?$CK?$CK?5created?5?$CFs?5?$CK?$CK?6?6?$AA@ 1003c9dc     rt_logging.obj
 0002:000029f8       __real@0000000000000000    1003c9f8     rt_logging.obj
 0002:00002a08       __real@3ff0000000000000    1003ca08     rt_logging.obj
 0002:00002a18       __real@4020000000000000    1003ca18     rt_logging.obj
 0002:00002a28       __real@41dfffffffc00000    1003ca28     rt_logging.obj
 0002:00002a38       __real@41efffffffe00000    1003ca38     rt_logging.obj
 0002:00002a48       __real@4330000000000000    1003ca48     rt_logging.obj
 0002:00002a58       __real@8000000000000000    1003ca58     rt_logging.obj
 0002:00002a68       __real@bfbf9add3afd2773    1003ca68     rt_logging.obj
 0002:00002a78       __real@c000000000000000    1003ca78     rt_logging.obj
 0002:00002aa0       __real@3cb0000000000000    1003caa0     rt_matrx.obj
 0002:00002ab0       __real@3fe0000000000000    1003cab0     rt_matrx.obj
 0002:00002abc       ??_C@_0BI@INNPNFJN@Memory?5Allocation?5Error?$AA@ 1003cabc     rtw_modelmap_utils.obj
 0002:00002ad8       ??_C@_1FC@IMCOBDGH@?$AAG?$AA?3?$AA?2?$AAR?$AA2?$AA0?$AA1?$AA6?$AAb?$AA?2?$AAr?$AAt?$AAw?$AA?2?$AAc?$AA?2?$AAs?$AAr?$AAc?$AA?2?$AAr?$AAt?$AAw?$AA_?$AAm?$AAo?$AAd?$AAe?$AAl?$AAm?$AAa?$AAp@ 1003cad8     rtw_modelmap_utils.obj
 0002:00002b3c       ??_C@_1CI@OEAJCJND@?$AAj?$AA?5?$AA?$DN?$AA?$DN?$AA?5?$AAe?$AAn?$AAc?$AAo?$AAd?$AAe?$AAd?$AAP?$AAa?$AAt?$AAh?$AAL?$AAe?$AAn?$AA?$AA@ 1003cb3c     rtw_modelmap_utils.obj
 0002:00002b6c       ??_C@_1DC@NFAOIFKB@?$AAe?$AAn?$AAc?$AAo?$AAd?$AAe?$AAd?$AAP?$AAa?$AAt?$AAh?$AA?$FL?$AAj?$AA?9?$AA1?$AA?$FN?$AA?5?$AA?$DN?$AA?$DN?$AA?5?$AA?8?$AA?2?$AA0?$AA?8?$AA?$AA@ 1003cb6c     rtw_modelmap_utils.obj
 0002:00002ba8       ??_C@_1DI@FLNJGPEE@?$AAs?$AAi?$AAg?$AAC?$AAo?$AAm?$AAp?$AAl?$AAe?$AAx?$AAi?$AAt?$AAy?$AA?$FL?$AA?$CK?$AAs?$AAi?$AAg?$AAI?$AAd?$AAx?$AA?$FN?$AA?5?$AA?$CB?$AA?$DN?$AA?5?$AA1?$AA?$AA@ 1003cba8     rtw_modelmap_utils.obj
 0002:00002bf0       ??_C@_1KI@OFELMGBG@?$AA?$CI?$AA?$CI?$AA?$CI?$AAd?$AAa?$AAt?$AAa?$AAT?$AAy?$AAp?$AAe?$AAM?$AAa?$AAp?$AA?$CJ?$AA?$FL?$AA?$CI?$AA?$CI?$AA?$CI?$AAs?$AAt?$AAa?$AAt?$AAe?$AAs?$AA?$CJ?$AA?$FL?$AA?$CI?$AAi?$AA?$CJ?$AA?$FN?$AA?4@ 1003cbf0     rtw_modelmap_utils.obj
 0002:00002cbc       ??_C@_1DA@ILCMPHNE@?$AAf?$AAu?$AAl?$AAl?$AAP?$AAa?$AAt?$AAh?$AA?5?$AA?$CB?$AA?$DN?$AA?5?$AA?$CI?$AA?$CI?$AAv?$AAo?$AAi?$AAd?$AA?5?$AA?$CK?$AA?$CJ?$AA0?$AA?$CJ?$AA?$AA@ 1003ccbc     rtw_modelmap_utils.obj
 0002:00002cf8       ??_C@_1CI@OEPPFCCA@?$AAp?$AAa?$AAt?$AAh?$AA?5?$AA?$CB?$AA?$DN?$AA?5?$AA?$CI?$AA?$CI?$AAv?$AAo?$AAi?$AAd?$AA?5?$AA?$CK?$AA?$CJ?$AA0?$AA?$CJ?$AA?$AA@ 1003ccf8     rtw_modelmap_utils.obj
 0002:00002d28       ??_C@_1FK@GLJIMFHB@?$AA?$CI?$AA?$CI?$AAm?$AAm?$AAi?$AA?$CJ?$AA?9?$AA?$DO?$AAI?$AAn?$AAs?$AAt?$AAa?$AAn?$AAc?$AAe?$AAM?$AAa?$AAp?$AA?4?$AAf?$AAu?$AAl?$AAl?$AAP?$AAa?$AAt?$AAh?$AA?$CJ?$AA?5?$AA?$DN?$AA?$DN@ 1003cd28     rtw_modelmap_utils.obj
 0002:00002d94       ??_C@_1DG@HPCJGNCE@?$AAm?$AAm?$AAi?$AAP?$AAa?$AAt?$AAh?$AA?$FL?$AAp?$AAa?$AAt?$AAh?$AAL?$AAe?$AAn?$AA?9?$AA1?$AA?$FN?$AA?5?$AA?$DN?$AA?$DN?$AA?5?$AA?8?$AA?2?$AA0?$AA?8?$AA?$AA@ 1003cd94     rtw_modelmap_utils.obj
 0002:00002dd4       ??_C@_1DM@DBAOGGOO@?$AAm?$AAm?$AAi?$AAP?$AAa?$AAt?$AAh?$AA?$FL?$AAm?$AAm?$AAi?$AAP?$AAa?$AAt?$AAh?$AAL?$AAe?$AAn?$AA?9?$AA1?$AA?$FN?$AA?5?$AA?$DN?$AA?$DN?$AA?5?$AA?8?$AA?2?$AA0?$AA?8?$AA?$AA@ 1003cdd4     rtw_modelmap_utils.obj
 0002:00002e1c       ??_C@_1DC@LHIAKAFE@?$AAb?$AAl?$AAo?$AAc?$AAk?$AAP?$AAa?$AAt?$AAh?$AA?5?$AA?$CB?$AA?$DN?$AA?5?$AA?$CI?$AA?$CI?$AAv?$AAo?$AAi?$AAd?$AA?5?$AA?$CK?$AA?$CJ?$AA0?$AA?$CJ?$AA?$AA@ 1003ce1c     rtw_modelmap_utils.obj
 0002:00002e58       ??_C@_1GI@KIEJKPGC@?$AAf?$AAu?$AAl?$AAl?$AAS?$AAt?$AAa?$AAt?$AAe?$AAB?$AAl?$AAo?$AAc?$AAk?$AAP?$AAa?$AAt?$AAh?$AA?$FL?$AAf?$AAu?$AAl?$AAl?$AAS?$AAt?$AAa?$AAt?$AAe?$AAB?$AAl?$AAo?$AAc@ 1003ce58     rtw_modelmap_utils.obj
 0002:00002ed8       ??_C@_1EE@DNPIBJHC@?$AA?$CI?$AA?$CI?$AAd?$AAi?$AAm?$AAM?$AAa?$AAp?$AA?$CJ?$AA?$FL?$AA?$CI?$AAm?$AAa?$AAp?$AAI?$AAd?$AAx?$AA?$CJ?$AA?$FN?$AA?4?$AAn?$AAu?$AAm?$AAD?$AAi?$AAm?$AAs?$AA?$CJ?$AA?5?$AA?$DN?$AA?$DN?$AA?5@ 1003ced8     rtw_modelmap_utils.obj
 0002:00002f2c       ??_C@_06JFOKFOED@CSTATE?$AA@ 1003cf2c     rtw_modelmap_utils.obj
 0002:00002f34       ??_C@_06FAENGAMN@DSTATE?$AA@ 1003cf34     rtw_modelmap_utils.obj
 0002:00002f3c       ??_C@_1BI@LEBJNOGG@?$AAc?$AAs?$AAv?$AAI?$AAd?$AAx?$AA?5?$AA?$DO?$AA?$DN?$AA?5?$AA0?$AA?$AA@ 1003cf3c     rtw_modelmap_utils.obj
 0002:00002f58       ??_C@_1BA@KDMGHCHP@?$AAT?$AAI?$AAD?$AA?$DN?$AA?$DN?$AA?9?$AA1?$AA?$AA@ 1003cf58     rtw_modelmap_utils.obj
 0002:00002f6c       ??_C@_1DM@DHGKBPCE@?$AAs?$AAi?$AAg?$AAP?$AAa?$AAt?$AAh?$AA?$FL?$AAs?$AAi?$AAg?$AAP?$AAa?$AAt?$AAh?$AAL?$AAe?$AAn?$AA?9?$AA1?$AA?$FN?$AA?5?$AA?$DN?$AA?$DN?$AA?5?$AA?8?$AA?2?$AA0?$AA?8?$AA?$AA@ 1003cf6c     rtw_modelmap_utils.obj
 0002:00002fb4       _serialfifoground          1003cfb4     xpc_datatype_ground.obj
 0002:00002fc0       _bcmsg1553ground           1003cfc0     xpc_datatype_ground.obj
 0002:00002fd0       _bcstatground              1003cfd0     xpc_datatype_ground.obj
 0002:00002fe8       _bmmsg1553ground           1003cfe8     xpc_datatype_ground.obj
 0002:00003008       ??_C@_07PJCJFOMM@pci1756?$AA@ 1003d008     xpctarget.obj
 0002:00003014       _ptsetfilename             1003d014     xpctarget.obj
 0002:00003018       _xmlfile                   1003d018     xpctarget.obj
 0002:00003020       ??_C@_0L@CHBJKKFC@xpceSetVar?$AA@ 1003d020     xpctarget.obj
 0002:00003030       ??_C@_03JLBJCOMC@6?45?$AA@ 1003d030     xpctarget.obj
 0002:00003038       __real@3fb999999999999a    1003d038     xpctarget.obj
 0002:00003048       __real@407f400000000000    1003d048     xpctarget.obj
 0002:00003058       _pci1756_BIOMAP            1003d058     appmappingData.obj
 0002:00003208       _pci1756_LBLMAP            1003d208     appmappingData.obj
 0002:000033b8       _pci1756_SIDMAP            1003d3b8     appmappingData.obj
 0002:00003568       _pci1756_SBIO              1003d568     appmappingData.obj
 0002:000035f8       _pci1756_SLBL              1003d5f8     appmappingData.obj
 0002:00003688       _pci1756_PTIDSMAP          1003d688     appmappingData.obj
 0002:000037a0       _pci1756_PTNAMESMAP        1003d7a0     appmappingData.obj
 0002:000038b8       _pci1756_SPTMAP            1003d8b8     appmappingData.obj
 0002:00003944       _pci1756_dtmap             1003d944     appmappingData.obj
 0002:00003950       _appInfo                   1003d950     appmappingData.obj
 0002:00003b78       ??_C@_0ED@LKHIFFLC@Wrong?5number?5of?5input?5arguments?5@ 1003db78     pci1756IO.obj
 0002:00003bc8       ??_C@_0BG@EPCOHGPO@?$CFs?3?5board?5not?5present?$AA@ 1003dbc8     pci1756IO.obj
 0002:00003be4       ??_C@_0CI@NFFNBHJA@?$CFs?5?$CIbus?5?$CFd?0?5slot?5?$CFd?$CJ?3?5board?5not?5@ 1003dbe4     pci1756IO.obj
 0002:00003c14       ??_C@_0CC@DMFKNLL@VendorId?5?$DN?50x?$CFx?0?5DeviceId?5?$DN?50x?$CFx@ 1003dc14     xpcruntime:xpcimports.obj
 0002:00003c38       ??_C@_0DH@OHCBLNMG@Subsystem?5Device?5ID?5?$DN?50x?$CFx?6Subsy@ 1003dc38     xpcruntime:xpcimports.obj
 0002:00003c70       ??_C@_0BD@MMMMEFCM@Class?5Code?5?$DN?50x?$CFx?6?$AA@ 1003dc70     xpcruntime:xpcimports.obj
 0002:00003c84       ??_C@_0BE@OLDDDNHM@InterruptLine?5?$DN?5?$CFd?6?$AA@ 1003dc84     xpcruntime:xpcimports.obj
 0002:00003c98       ??_C@_0BF@OLKLEKBD@bus?5?$DN?5?$CFd?0?5slot?5?$DN?5?$CFd?6?$AA@ 1003dc98     xpcruntime:xpcimports.obj
 0002:00003cb0       ??_C@_0CE@DGLLGDFH@?5?5?5?5Phys?5?5?5Virtual?5?5?5Length?5IO?1M@ 1003dcb0     xpcruntime:xpcimports.obj
 0002:00003cd4       ??_C@_0BI@FEOPLEMG@?$CF08x?5?$CF08x?5?$CF08x?5?5?5?5?5?5?$CFc?6?$AA@ 1003dcd4     xpcruntime:xpcimports.obj
 0002:00003cec       ??_C@_0BB@BNNCEDPC@rl32eScopeExists?$AA@ 1003dcec     xpcruntime:xpcimports.obj
 0002:00003d00       ??_C@_0BM@FJBFEGFG@rl32eScopeExists?5not?5found?6?$AA@ 1003dd00     xpcruntime:xpcimports.obj
 0002:00003d1c       ??_C@_0O@BNNGKJEA@rl32eDefScope?$AA@ 1003dd1c     xpcruntime:xpcimports.obj
 0002:00003d2c       ??_C@_0BJ@CDNOENKA@rl32eDefScope?5not?5found?6?$AA@ 1003dd2c     xpcruntime:xpcimports.obj
 0002:00003d48       ??_C@_0P@CKNKILDP@rl32eAddSignal?$AA@ 1003dd48     xpcruntime:xpcimports.obj
 0002:00003d58       ??_C@_0BK@GMJAJBAI@rl32eAddSignal?5not?5found?6?$AA@ 1003dd58     xpcruntime:xpcimports.obj
 0002:00003d74       ??_C@_0BB@LDMIHGCE@rl32eGetSignalNo?$AA@ 1003dd74     xpcruntime:xpcimports.obj
 0002:00003d88       ??_C@_0BM@LGAMBAID@rl32eGetSignalNo?5not?5found?6?$AA@ 1003dd88     xpcruntime:xpcimports.obj
 0002:00003da4       ??_C@_0O@CFDGALBP@rl32eSetScope?$AA@ 1003dda4     xpcruntime:xpcimports.obj
 0002:00003db4       ??_C@_0BJ@JCLHHIN@rl32eSetScope?5not?5found?6?$AA@ 1003ddb4     xpcruntime:xpcimports.obj
 0002:00003dd0       ??_C@_0P@IKMCBMHH@xpceFSScopeSet?$AA@ 1003ddd0     xpcruntime:xpcimports.obj
 0002:00003de0       ??_C@_0BK@JODJPNNH@xpceFSScopeSet?5not?5found?6?$AA@ 1003dde0     xpcruntime:xpcimports.obj
 0002:00003dfc       ??_C@_0BE@DLACEEJM@rl32eSetTargetScope?$AA@ 1003ddfc     xpcruntime:xpcimports.obj
 0002:00003e10       ??_C@_0BP@JCHFMKPJ@rl32eSetTargetScope?5not?5found?6?$AA@ 1003de10     xpcruntime:xpcimports.obj
 0002:00003e30       ??_C@_0BJ@LIDLNDHC@rl32eSetTargetScopeSigFt?$AA@ 1003de30     xpcruntime:xpcimports.obj
 0002:00003e4c       ??_C@_0CE@JLGHCFHI@rl32eSetTargetScopeSigFt?5not?5fou@ 1003de4c     xpcruntime:xpcimports.obj
 0002:00003e70       ??_C@_0BI@JAPOIDNG@rl32eRestartAcquisition?$AA@ 1003de70     xpcruntime:xpcimports.obj
 0002:00003e88       ??_C@_0CD@LLBEFFBO@rl32eRestartAcquisition?5not?5foun@ 1003de88     xpcruntime:xpcimports.obj
 0002:00003eac       ??_C@_0P@IEIIADJB@xpceScopeAcqOK?$AA@ 1003deac     xpcruntime:xpcimports.obj
 0002:00003ebc       ??_C@_0BK@NJCKNFPN@xpceScopeAcqOK?5not?5found?6?$AA@ 1003debc     xpcruntime:xpcimports.obj
 0002:00003ed8       ??_C@_0BA@IJINKAHF@xpceRegisterISR?$AA@ 1003ded8     xpcruntime:xpcimports.obj
 0002:00003ee8       ??_C@_0BL@NNDLOEJE@xpceRegisterISR?5not?5found?6?$AA@ 1003dee8     xpcruntime:xpcimports.obj
 0002:00003f04       ??_C@_0BC@NLBADGKF@xpceDeRegisterISR?$AA@ 1003df04     xpcruntime:xpcimports.obj
 0002:00003f18       ??_C@_0BN@DCAIKFFD@xpceDeRegisterISR?5not?5found?6?$AA@ 1003df18     xpcruntime:xpcimports.obj
 0002:00003f38       ??_C@_07JPMEPILD@xpcInpB?$AA@ 1003df38     xpcruntime:xpcimports.obj
 0002:00003f40       ??_C@_0BD@PGABEJOL@xpcInpB?5not?5found?6?$AA@ 1003df40     xpcruntime:xpcimports.obj
 0002:00003f54       ??_C@_07KIHBBOKH@xpcInpW?$AA@ 1003df54     xpcruntime:xpcimports.obj
 0002:00003f5c       ??_C@_0BD@FPCJFMCC@xpcInpW?5not?5found?6?$AA@ 1003df5c     xpcruntime:xpcimports.obj
 0002:00003f70       ??_C@_08KDIAJBOP@xpcInpDW?$AA@ 1003df70     xpcruntime:xpcimports.obj
 0002:00003f7c       ??_C@_0BE@PIELDNIL@xpcInpDW?5not?5found?6?$AA@ 1003df7c     xpcruntime:xpcimports.obj
 0002:00003f90       ??_C@_08PJFMOIGO@xpcOutpB?$AA@ 1003df90     xpcruntime:xpcimports.obj
 0002:00003f9c       ??_C@_0BE@HCKNCEKF@xpcOutpB?5not?5found?6?$AA@ 1003df9c     xpcruntime:xpcimports.obj
 0002:00003fb0       ??_C@_08MOOJAOHK@xpcOutpW?$AA@ 1003dfb0     xpcruntime:xpcimports.obj
 0002:00003fbc       ??_C@_0BE@NLIFDBGM@xpcOutpW?5not?5found?6?$AA@ 1003dfbc     xpcruntime:xpcimports.obj
 0002:00003fd0       ??_C@_09FLIEKHJG@xpcOutpDW?$AA@ 1003dfd0     xpcruntime:xpcimports.obj
 0002:00003fdc       ??_C@_0BF@GJKLPNHB@xpcOutpDW?5not?5found?6?$AA@ 1003dfdc     xpcruntime:xpcimports.obj
 0002:00003ff4       ??_C@_0BH@EHOLELHH@xpcReserveMemoryRegion?$AA@ 1003dff4     xpcruntime:xpcimports.obj
 0002:0000400c       ??_C@_0CC@KAAAGPI@xpcReserveMemoryRegion?5not?5found@ 1003e00c     xpcruntime:xpcimports.obj
 0002:00004030       ??_C@_0BA@JGPMHGAF@rl32eShowPCIDev?$AA@ 1003e030     xpcruntime:xpcimports.obj
 0002:00004040       ??_C@_0BL@DDFFLNHI@rl32eShowPCIDev?5not?5found?6?$AA@ 1003e040     xpcruntime:xpcimports.obj
 0002:0000405c       ??_C@_0BB@KBCOJPFB@rl32eShowPCIInfo?$AA@ 1003e05c     xpcruntime:xpcimports.obj
 0002:00004070       ??_C@_0BM@IFDMAGLO@rl32eShowPCIInfo?5not?5found?6?$AA@ 1003e070     xpcruntime:xpcimports.obj
 0002:0000408c       ??_C@_0BA@BGPAADB@rl32eGetPCIInfo?$AA@ 1003e08c     xpcruntime:xpcimports.obj
 0002:0000409c       ??_C@_0BL@IGOMLDCK@rl32eGetPCIInfo?5not?5found?6?$AA@ 1003e09c     xpcruntime:xpcimports.obj
 0002:000040b8       ??_C@_0BG@NJPFKFDP@rl32eGetPCIInfoAtSlot?$AA@ 1003e0b8     xpcruntime:xpcimports.obj
 0002:000040d0       ??_C@_0CB@BBKIPMLA@rl32eGetPCIInfoAtSlot?5not?5found?6@ 1003e0d0     xpcruntime:xpcimports.obj
 0002:000040f4       ??_C@_0BH@OKBOPNFG@xpceAssignPCIInterrupt?$AA@ 1003e0f4     xpcruntime:xpcimports.obj
 0002:0000410c       ??_C@_0CC@CDNDNJBJ@xpceAssignPCIInterrupt?5not?5found@ 1003e10c     xpcruntime:xpcimports.obj
 0002:00004130       ??_C@_0BD@PCKOKHO@xpceGetSignalValue?$AA@ 1003e130     xpcruntime:xpcimports.obj
 0002:00004144       ??_C@_0BO@GCBDJHMB@xpceGetSignalValue?5not?5found?6?$AA@ 1003e144     xpcruntime:xpcimports.obj
 0002:00004164       ??_C@_0BB@BJONJAGA@xpceSetParameter?$AA@ 1003e164     xpcruntime:xpcimports.obj
 0002:00004178       ??_C@_0BM@BJIKDLHA@xpceSetParameter?5not?5found?6?$AA@ 1003e178     xpcruntime:xpcimports.obj
 0002:00004194       ??_C@_0BB@GNFDFMCM@xpceGetParameter?$AA@ 1003e194     xpcruntime:xpcimports.obj
 0002:000041a8       ??_C@_0BM@POHNKBC@xpceGetParameter?5not?5found?6?$AA@ 1003e1a8     xpcruntime:xpcimports.obj
 0002:000041c4       ??_C@_0BB@CEIJLFCD@xpceGetParamDims?$AA@ 1003e1c4     xpcruntime:xpcimports.obj
 0002:000041d8       ??_C@_0BM@OABDBKAO@xpceGetParamDims?5not?5found?6?$AA@ 1003e1d8     xpcruntime:xpcimports.obj
 0002:000041f4       ??_C@_0L@OCBLLHBM@xpceGetTET?$AA@ 1003e1f4     xpcruntime:xpcimports.obj
 0002:00004200       ??_C@_0BG@HNOFBOB@xpceGetTET?5not?5found?6?$AA@ 1003e200     xpcruntime:xpcimports.obj
 0002:00004218       ??_C@_0P@OKGNGAGH@xpcIsModelInit?$AA@ 1003e218     xpcruntime:xpcimports.obj
 0002:00004228       ??_C@_0BK@DHEMLBIM@xpcIsModelInit?5not?5found?6?$AA@ 1003e228     xpcruntime:xpcimports.obj
 0002:00004244       ??_C@_0BH@KJJLCAOJ@xpcAllocPhysicalMemory?$AA@ 1003e244     xpcruntime:xpcimports.obj
 0002:0000425c       ??_C@_0CC@MOJPNHKL@xpcAllocPhysicalMemory?5not?5found@ 1003e25c     xpcruntime:xpcimports.obj
 0002:00004280       ??_C@_0BG@CBNPGAEL@xpcFreePhysicalMemory?$AA@ 1003e280     xpcruntime:xpcimports.obj
 0002:00004298       ??_C@_0CB@PKJEBPOG@xpcFreePhysicalMemory?5not?5found?6@ 1003e298     xpcruntime:xpcimports.obj
 0002:000042bc       ??_C@_0BC@JGKNLICL@xpcGetElapsedTime?$AA@ 1003e2bc     xpcruntime:xpcimports.obj
 0002:000042d0       ??_C@_0BN@OEOAHCIO@xpcGetElapsedTime?5not?5found?6?$AA@ 1003e2d0     xpcruntime:xpcimports.obj
 0002:000042f0       ??_C@_0M@ICBLMODA@xpcBusyWait?$AA@ 1003e2f0     xpcruntime:xpcimports.obj
 0002:000042fc       ??_C@_0BH@FBOPECBI@xpcBusyWait?5not?5found?6?$AA@ 1003e2fc     xpcruntime:xpcimports.obj
 0002:00004314       ??_C@_0N@LKKJEKKA@TBCreateSpin?$AA@ 1003e314     xpcruntime:xpcimports.obj
 0002:00004324       ??_C@_0BI@FHKMLKOE@TBCreateSpin?5not?5found?6?$AA@ 1003e324     xpcruntime:xpcimports.obj
 0002:0000433c       ??_C@_0N@HOAJHNBD@TBDeleteSpin?$AA@ 1003e33c     xpcruntime:xpcimports.obj
 0002:0000434c       ??_C@_0BI@BKCPAAG@TBDeleteSpin?5not?5found?6?$AA@ 1003e34c     xpcruntime:xpcimports.obj
 0002:00004364       ??_C@_0P@DAHDDBJG@TBTakeSpinFast?$AA@ 1003e364     xpcruntime:xpcimports.obj
 0002:00004374       ??_C@_0BK@NKAIBHGB@TBTakeSpinFast?5not?5found?6?$AA@ 1003e374     xpcruntime:xpcimports.obj
 0002:00004390       ??_C@_0P@FKNAAELA@TBGiveSpinFast?$AA@ 1003e390     xpcruntime:xpcimports.obj
 0002:000043a0       ??_C@_0BK@KGPJBJND@TBGiveSpinFast?5not?5found?6?$AA@ 1003e3a0     xpcruntime:xpcimports.obj
 0002:000043bc       ??_C@_0BE@IIGBFDHK@xpceCreateSemaphore?$AA@ 1003e3bc     xpcruntime:xpcimports.obj
 0002:000043d0       ??_C@_0BP@KFBAFFKJ@xpceCreateSemaphore?5not?5found?6?$AA@ 1003e3d0     xpcruntime:xpcimports.obj
 0002:000043f0       ??_C@_0BC@IFNIONKJ@xpceWaitSemaphore?$AA@ 1003e3f0     xpcruntime:xpcimports.obj
 0002:00004404       ??_C@_0BN@NMFAADIO@xpceWaitSemaphore?5not?5found?6?$AA@ 1003e404     xpcruntime:xpcimports.obj
 0002:00004424       ??_C@_0BE@NNDIOBKE@xpceSignalSemaphore?$AA@ 1003e424     xpcruntime:xpcimports.obj
 0002:00004438       ??_C@_0BP@LBANMHJP@xpceSignalSemaphore?5not?5found?6?$AA@ 1003e438     xpcruntime:xpcimports.obj
 0002:00004458       ??_C@_0BE@MEBEKOIM@xpceDeleteSemaphore?$AA@ 1003e458     xpcruntime:xpcimports.obj
 0002:0000446c       ??_C@_0BP@OFNCKOJH@xpceDeleteSemaphore?5not?5found?6?$AA@ 1003e46c     xpcruntime:xpcimports.obj
 0002:0000448c       ??_C@_0BD@MFNDMBOF@FindUsbVideoDevice?$AA@ 1003e48c     xpcruntime:xpcimports.obj
 0002:000044a0       ??_C@_0BO@POKLDHMI@FindUsbVideoDevice?5not?5found?6?$AA@ 1003e4a0     xpcruntime:xpcimports.obj
 0002:000044c0       ??_C@_0BA@PLPAPNAB@GetVideoConfigs?$AA@ 1003e4c0     xpcruntime:xpcimports.obj
 0002:000044d0       ??_C@_0BL@DALDHKHC@GetVideoConfigs?5not?5found?6?$AA@ 1003e4d0     xpcruntime:xpcimports.obj
 0002:000044ec       ??_C@_0L@GBAEMHMH@StartVideo?$AA@ 1003e4ec     xpcruntime:xpcimports.obj
 0002:000044f8       ??_C@_0BG@HDCELEBP@StartVideo?5not?5found?6?$AA@ 1003e4f8     xpcruntime:xpcimports.obj
 0002:00004510       ??_C@_0BA@FDNPOCLN@ReadFrameBuffer?$AA@ 1003e510     xpcruntime:xpcimports.obj
 0002:00004520       ??_C@_0BL@JHGHPNBI@ReadFrameBuffer?5not?5found?6?$AA@ 1003e520     xpcruntime:xpcimports.obj
 0002:0000453c       ??_C@_09FAHCLKAG@StopVideo?$AA@ 1003e53c     xpcruntime:xpcimports.obj
 0002:00004548       ??_C@_0BF@NKGKKADL@StopVideo?5not?5found?6?$AA@ 1003e548     xpcruntime:xpcimports.obj
 0002:00004560       ??_C@_0O@MCPKDLLL@ConvertUImage?$AA@ 1003e560     xpcruntime:xpcimports.obj
 0002:00004570       ??_C@_0BJ@PHJKOAFL@ConvertUImage?5not?5found?6?$AA@ 1003e570     xpcruntime:xpcimports.obj
 0002:0000458c       ??_C@_0BD@NKCBPBJJ@CreateVideoDisplay?$AA@ 1003e58c     xpcruntime:xpcimports.obj
 0002:000045a0       ??_C@_0BO@HPPLLNFP@CreateVideoDisplay?5not?5found?6?$AA@ 1003e5a0     xpcruntime:xpcimports.obj
 0002:000045c0       ??_C@_0BE@KJCKGPHA@DestroyVideoDisplay?$AA@ 1003e5c0     xpcruntime:xpcimports.obj
 0002:000045d4       ??_C@_0BP@FMGLJAIJ@DestroyVideoDisplay?5not?5found?6?$AA@ 1003e5d4     xpcruntime:xpcimports.obj
 0002:000045f4       ??_C@_0BC@HCMIMIDN@StartVideoDisplay?$AA@ 1003e5f4     xpcruntime:xpcimports.obj
 0002:00004608       ??_C@_0BN@EFIEBGOO@StartVideoDisplay?5not?5found?6?$AA@ 1003e608     xpcruntime:xpcimports.obj
 0002:00004628       ??_C@_0BB@JBBLMILG@StopVideoDisplay?$AA@ 1003e628     xpcruntime:xpcimports.obj
 0002:0000463c       ??_C@_0BM@DBJBPLEL@StopVideoDisplay?5not?5found?6?$AA@ 1003e63c     xpcruntime:xpcimports.obj
 0002:00004658       ??_C@_0M@MFJEGMHC@StreamVideo?$AA@ 1003e658     xpcruntime:xpcimports.obj
 0002:00004664       ??_C@_0BH@OINCDMLA@StreamVideo?5not?5found?6?$AA@ 1003e664     xpcruntime:xpcimports.obj
 0002:0000467c       ??_C@_0N@IGGLCIGE@xpceaddEvent?$AA@ 1003e67c     xpcruntime:xpcimports.obj
 0002:0000468c       ??_C@_0BI@NHJNFMKH@xpceaddEvent?5not?5found?6?$AA@ 1003e68c     xpcruntime:xpcimports.obj
 0002:000046a4       ??_C@_0BB@LCMHHHFN@getMemoryService?$AA@ 1003e6a4     xpcruntime:xpcimports.obj
 0002:000046b8       ??_C@_0BM@MPLCNIIE@getMemoryService?5not?5found?6?$AA@ 1003e6b8     xpcruntime:xpcimports.obj
 0002:000046d4       ??_C@_0P@KIKONDKK@getCommService?$AA@ 1003e6d4     xpcruntime:xpcimports.obj
 0002:000046e4       ??_C@_0BK@NCECBKNM@getCommService?5not?5found?6?$AA@ 1003e6e4     xpcruntime:xpcimports.obj
 0002:00004700       ??_C@_0P@GDLHFECE@getStatusFlags?$AA@ 1003e700     xpcruntime:xpcimports.obj
 0002:00004710       ??_C@_0BK@NEKDLJHG@getStatusFlags?5not?5found?6?$AA@ 1003e710     xpcruntime:xpcimports.obj
 0002:0000472c       ??_C@_0BL@CDFCLKOL@startToAsyncQueueTgtAppSvc?$AA@ 1003e72c     xpcruntime:xpcimports.obj
 0002:00004748       ??_C@_0CG@JGOFFKEL@startToAsyncQueueTgtAppSvc?5not?5f@ 1003e748     xpcruntime:xpcimports.obj
 0002:00004770       ??_C@_0BP@IJNGPPPE@terminateToAsyncQueueTgtAppSvc?$AA@ 1003e770     xpcruntime:xpcimports.obj
 0002:00004790       ??_C@_0CK@NDEMAMKF@terminateToAsyncQueueTgtAppSvc?5n@ 1003e790     xpcruntime:xpcimports.obj
 0002:000047bc       ??_C@_0BK@IDACEHAO@sendToAsyncQueueTgtAppSvc?$AA@ 1003e7bc     xpcruntime:xpcimports.obj
 0002:000047d8       ??_C@_0CF@PNCKPEHN@sendToAsyncQueueTgtAppSvc?5not?5fo@ 1003e7d8     xpcruntime:xpcimports.obj
 0002:00004800       ??_C@_0BN@HJOHIFOM@xpceGetIntTimerGranularityNS?$AA@ 1003e800     xpcruntime:xpcimports.obj
 0002:00004820       ??_C@_0CI@OADDPMKB@xpceGetIntTimerGranularityNS?5not@ 1003e820     xpcruntime:xpcimports.obj
 0002:00004848       ??_C@_0BG@CCHICKPN@slrteSetStepSizeDelta?$AA@ 1003e848     xpcruntime:xpcimports.obj
 0002:00004860       ??_C@_0CB@MKHINEIJ@slrteSetStepSizeDelta?5not?5found?6@ 1003e860     xpcruntime:xpcimports.obj
 0002:00004884       ??_C@_0BI@CLNBLDKJ@slrteGetCurrentStepSize?$AA@ 1003e884     xpcruntime:xpcimports.obj
 0002:0000489c       ??_C@_0CD@GIOJPGJA@slrteGetCurrentStepSize?5not?5foun@ 1003e89c     xpcruntime:xpcimports.obj
 0002:000048c0       ??_C@_0BE@FCLCBOC@registerPTPTimeRead?$AA@ 1003e8c0     xpcruntime:xpcimports.obj
 0002:000048d4       ??_C@_0BP@LHPKAJIP@registerPTPTimeRead?5not?5found?6?$AA@ 1003e8d4     xpcruntime:xpcimports.obj
 0002:000048f4       ??_C@_0BG@KIGCDDJI@unRegisterPTPTimeRead?$AA@ 1003e8f4     xpcruntime:xpcimports.obj
 0002:0000490c       ??_C@_0CB@MLFFBFCM@unRegisterPTPTimeRead?5not?5found?6@ 1003e90c     xpcruntime:xpcimports.obj
 0002:00004930       ??_C@_0BB@IPMDDBHK@slTestInitialize?$AA@ 1003e930     xpcruntime:xpcimports.obj
 0002:00004944       ??_C@_0BM@LAJFCCJH@slTestInitialize?5not?5found?6?$AA@ 1003e944     xpcruntime:xpcimports.obj
 0002:00004960       ??_C@_0BF@OOMPMEBC@slTestLogAssessments?$AA@ 1003e960     xpcruntime:xpcimports.obj
 0002:00004978       ??_C@_0CA@FGJCEBAG@slTestLogAssessments?5not?5found?6?$AA@ 1003e978     xpcruntime:xpcimports.obj
 0002:00004998       ??_C@_0BB@HJHKONHO@slTestEvalOnFail?$AA@ 1003e998     xpcruntime:xpcimports.obj
 0002:000049ac       ??_C@_0BM@JIKCFFNJ@slTestEvalOnFail?5not?5found?6?$AA@ 1003e9ac     xpcruntime:xpcimports.obj
 0002:000049c8       ??_C@_0BA@LBHLABFP@slTestTerminate?$AA@ 1003e9c8     xpcruntime:xpcimports.obj
 0002:000049d8       ??_C@_0BL@EMFGKAPA@slTestTerminate?5not?5found?6?$AA@ 1003e9d8     xpcruntime:xpcimports.obj
 0002:000049f4       ??_C@_0BE@JPNPBBEO@slTestRegAssessment?$AA@ 1003e9f4     xpcruntime:xpcimports.obj
 0002:00004a08       ??_C@_0BP@FBDEJJJH@slTestRegAssessment?5not?5found?6?$AA@ 1003ea08     xpcruntime:xpcimports.obj
 0002:00004a28       ??_C@_0O@NCLGDNIB@slrteSetupMSI?$AA@ 1003ea28     xpcruntime:xpcimports.obj
 0002:00004a38       ??_C@_0BJ@HEFMECLM@slrteSetupMSI?5not?5found?6?$AA@ 1003ea38     xpcruntime:xpcimports.obj
 0002:00004a54       ??_C@_0BH@BPOLALHD@slrtGetCRBScratchSpace?$AA@ 1003ea54     xpcruntime:xpcimports.obj
 0002:00004a6c       ??_C@_0CC@KCKAJKKJ@slrtGetCRBScratchSpace?5not?5found@ 1003ea6c     xpcruntime:xpcimports.obj
 0002:00004a90       ??_C@_0BC@MKFDAKOL@slrtGetSgCRBSpace?$AA@ 1003ea90     xpcruntime:xpcimports.obj
 0002:00004aa4       ??_C@_0BN@JDPHPLHL@slrtGetSgCRBSpace?5not?5found?6?$AA@ 1003eaa4     xpcruntime:xpcimports.obj
 0002:00004ac4       ??_C@_0P@EPAPKLIF@slrtfsOpenFile?$AA@ 1003eac4     xpcruntime:xpcimports.obj
 0002:00004ad4       ??_C@_0BK@FIHCBOHG@slrtfsOpenFile?5not?5found?6?$AA@ 1003ead4     xpcruntime:xpcimports.obj
 0002:00004af0       ??_C@_0BA@LILAFDDL@slrtfsCloseFile?$AA@ 1003eaf0     xpcruntime:xpcimports.obj
 0002:00004b00       ??_C@_0BL@DEGHJFIB@slrtfsCloseFile?5not?5found?6?$AA@ 1003eb00     xpcruntime:xpcimports.obj
 0002:00004b1c       ??_C@_0BC@OKMJDIEH@slrtfsWriteToFile?$AA@ 1003eb1c     xpcruntime:xpcimports.obj
 0002:00004b30       ??_C@_0BN@KCFLCLAH@slrtfsWriteToFile?5not?5found?6?$AA@ 1003eb30     xpcruntime:xpcimports.obj
 0002:00004b50       ??_C@_0BK@GIPNFFFF@slrtfsGetFileErrorMessage?$AA@ 1003eb50     xpcruntime:xpcimports.obj
 0002:00004b6c       ??_C@_0CF@BCBLMKLE@slrtfsGetFileErrorMessage?5not?5fo@ 1003eb6c     xpcruntime:xpcimports.obj
 0002:00004b94       ??_C@_0BD@ICBOKMK@slrtfsGetFileError?$AA@ 1003eb94     xpcruntime:xpcimports.obj
 0002:00004ba8       ??_C@_0BO@FNBANAE@slrtfsGetFileError?5not?5found?6?$AA@ 1003eba8     xpcruntime:xpcimports.obj
 0002:00004bc8       ??_C@_0BE@PPAJMHJP@slrtfsOpenFileAsync?$AA@ 1003ebc8     xpcruntime:xpcimports.obj
 0002:00004bdc       ??_C@_0BP@HKBMMJOK@slrtfsOpenFileAsync?5not?5found?6?$AA@ 1003ebdc     xpcruntime:xpcimports.obj
 0002:00004bfc       ??_C@_0BF@IGNDIBPF@slrtfsCloseFileAsync?$AA@ 1003ebfc     xpcruntime:xpcimports.obj
 0002:00004c14       ??_C@_0CA@GJPFDBKN@slrtfsCloseFileAsync?5not?5found?6?$AA@ 1003ec14     xpcruntime:xpcimports.obj
 0002:00004c34       ??_C@_0BE@IOLEBNB@slrtfsGetFileStatus?$AA@ 1003ec34     xpcruntime:xpcimports.obj
 0002:00004c48       ??_C@_0BP@PEFHDGHL@slrtfsGetFileStatus?5not?5found?6?$AA@ 1003ec48     xpcruntime:xpcimports.obj
 0002:00004c68       ??_C@_0N@IDKFJOHI@getlasterror?$AA@ 1003ec68     xpcruntime:xpcimports.obj
 0002:00004c78       ??_C@_0BI@MIHMCHGL@getlasterror?5not?5found?6?$AA@ 1003ec78     xpcruntime:xpcimports.obj
 0002:00004c90       ??_C@_0N@EAAOMIIE@isUsedByRTIP?$AA@ 1003ec90     xpcruntime:xpcimports.obj
 0002:00004ca0       ??_C@_0BI@GNHHHICK@isUsedByRTIP?5not?5found?6?$AA@ 1003eca0     xpcruntime:xpcimports.obj
 0002:00004cb8       ??_C@_0BC@HLDKJAG@SetIPTASKPriority?$AA@ 1003ecb8     xpcruntime:xpcimports.obj
 0002:00004ccc       ??_C@_0BN@OGKMHHAE@SetIPTASKPriority?5not?5found?6?$AA@ 1003eccc     xpcruntime:xpcimports.obj
 0002:00004cec       ??_C@_0O@LHENMBDD@OpenInterface?$AA@ 1003ecec     xpcruntime:xpcimports.obj
 0002:00004cfc       ??_C@_0BJ@PFGDBKHB@OpenInterface?5not?5found?6?$AA@ 1003ecfc     xpcruntime:xpcimports.obj
 0002:00004d18       ??_C@_0P@IINFELKD@CloseInterface?$AA@ 1003ed18     xpcruntime:xpcimports.obj
 0002:00004d28       ??_C@_0BK@PAPDNDBK@CloseInterface?5not?5found?6?$AA@ 1003ed28     xpcruntime:xpcimports.obj
 0002:00004d44       ??_C@_05LEFIAAOI@SetIP?$AA@ 1003ed44     xpcruntime:xpcimports.obj
 0002:00004d4c       ??_C@_0BB@CGLIBAMM@SetIP?5not?5found?6?$AA@ 1003ed4c     xpcruntime:xpcimports.obj
 0002:00004d60       ??_C@_0BA@HIJJHHMD@AddGatewayRoute?$AA@ 1003ed60     xpcruntime:xpcimports.obj
 0002:00004d70       ??_C@_0BL@BFCFMDMN@AddGatewayRoute?5not?5found?6?$AA@ 1003ed70     xpcruntime:xpcimports.obj
 0002:00004d8c       ??_C@_0M@PHMABFPI@DeleteRoute?$AA@ 1003ed8c     xpcruntime:xpcimports.obj
 0002:00004d98       ??_C@_0BH@JPJGLLID@DeleteRoute?5not?5found?6?$AA@ 1003ed98     xpcruntime:xpcimports.obj
 0002:00004db0       ??_C@_0BA@FCDIMKIJ@GetHostTarIPAdd?$AA@ 1003edb0     xpcruntime:xpcimports.obj
 0002:00004dc0       ??_C@_0BL@MBKDGKBO@GetHostTarIPAdd?5not?5found?6?$AA@ 1003edc0     xpcruntime:xpcimports.obj
 0002:00004ddc       ??_C@_0M@HPMIPIBI@GetDCUUsage?$AA@ 1003eddc     xpcruntime:xpcimports.obj
 0002:00004de8       ??_C@_0BH@EBLJKCJC@GetDCUUsage?5not?5found?6?$AA@ 1003ede8     xpcruntime:xpcimports.obj
 0002:00004e00       ??_C@_06MPKMECK@accept?$AA@ 1003ee00     xpcruntime:xpcimports.obj
 0002:00004e08       ??_C@_0BC@GBGIEMNO@accept?5not?5found?6?$AA@ 1003ee08     xpcruntime:xpcimports.obj
 0002:00004e1c       ??_C@_04NPNJNMMP@bind?$AA@ 1003ee1c     xpcruntime:xpcimports.obj
 0002:00004e24       ??_C@_0BA@DAJNENLO@bind?5not?5found?6?$AA@ 1003ee24     xpcruntime:xpcimports.obj
 0002:00004e34       ??_C@_0L@CKHNIFCM@setsockopt?$AA@ 1003ee34     xpcruntime:xpcimports.obj
 0002:00004e40       ??_C@_0BG@MFIIOMFE@setsockopt?5not?5found?6?$AA@ 1003ee40     xpcruntime:xpcimports.obj
 0002:00004e58       ??_C@_0M@ODDJDCDK@closesocket?$AA@ 1003ee58     xpcruntime:xpcimports.obj
 0002:00004e64       ??_C@_0BH@JHGHMIL@closesocket?5not?5found?6?$AA@ 1003ee64     xpcruntime:xpcimports.obj
 0002:00004e7c       ??_C@_07KAIBNCHO@connect?$AA@ 1003ee7c     xpcruntime:xpcimports.obj
 0002:00004e84       ??_C@_0BD@MKLLMBM@connect?5not?5found?6?$AA@ 1003ee84     xpcruntime:xpcimports.obj
 0002:00004e98       ??_C@_0M@PBPOCKDG@ioctlsocket?$AA@ 1003ee98     xpcruntime:xpcimports.obj
 0002:00004ea4       ??_C@_0BH@NFCNHHIH@ioctlsocket?5not?5found?6?$AA@ 1003eea4     xpcruntime:xpcimports.obj
 0002:00004ebc       ??_C@_06OODDLKLE@listen?$AA@ 1003eebc     xpcruntime:xpcimports.obj
 0002:00004ec4       ??_C@_0BC@NHBILEKI@listen?5not?5found?6?$AA@ 1003eec4     xpcruntime:xpcimports.obj
 0002:00004ed8       ??_C@_08HMBBGFHE@recvfrom?$AA@ 1003eed8     xpcruntime:xpcimports.obj
 0002:00004ee4       ??_C@_0BE@BJAJFFLF@recvfrom?5not?5found?6?$AA@ 1003eee4     xpcruntime:xpcimports.obj
 0002:00004ef8       ??_C@_06MEPBGKEC@sendto?$AA@ 1003eef8     xpcruntime:xpcimports.obj
 0002:00004f00       ??_C@_0BC@BHPIMDJO@sendto?5not?5found?6?$AA@ 1003ef00     xpcruntime:xpcimports.obj
 0002:00004f14       ??_C@_09JKBDEEOB@inet_addr?$AA@ 1003ef14     xpcruntime:xpcimports.obj
 0002:00004f20       ??_C@_0BF@HKJPGECN@inet_addr?5not?5found?6?$AA@ 1003ef20     xpcruntime:xpcimports.obj
 0002:00004f38       ??_C@_06HBELJPBO@socket?$AA@ 1003ef38     xpcruntime:xpcimports.obj
 0002:00004f40       ??_C@_0BC@NAGFFJGA@socket?5not?5found?6?$AA@ 1003ef40     xpcruntime:xpcimports.obj
 0002:00004f54       __FPinit                   1003ef54     LIBCMT:fpinit.obj
 0002:00004f60       ??_C@_1BI@BGOHAHKC@?$AAm?$AAs?$AAc?$AAo?$AAr?$AAe?$AAe?$AA?4?$AAd?$AAl?$AAl?$AA?$AA@ 1003ef60     LIBCMT:crt0dat.obj
 0002:00004f78       ??_C@_0P@MIGLKIOC@CorExitProcess?$AA@ 1003ef78     LIBCMT:crt0dat.obj
 0002:00004f88       ??_C@_17LGKOMLJ@?$AA?4?$AA?4?$AA?4?$AA?$AA@ 1003ef88     LIBCMT:wassert.obj
 0002:00004f90       ??_C@_13LBAGMAIH@?$AA?6?$AA?$AA@ 1003ef90     LIBCMT:wassert.obj
 0002:00004f94       ??_C@_15IABLJNFO@?$AA?6?$AA?6?$AA?$AA@ 1003ef94     LIBCMT:wassert.obj
 0002:00004f9c       ??_C@_1CE@OJBNHDMO@?$AAA?$AAs?$AAs?$AAe?$AAr?$AAt?$AAi?$AAo?$AAn?$AA?5?$AAf?$AAa?$AAi?$AAl?$AAe?$AAd?$AA?$CB?$AA?$AA@ 1003ef9c     LIBCMT:wassert.obj
 0002:00004fc0       ??_C@_1BE@PHKBBGE@?$AAP?$AAr?$AAo?$AAg?$AAr?$AAa?$AAm?$AA?3?$AA?5?$AA?$AA@ 1003efc0     LIBCMT:wassert.obj
 0002:00004fd4       ??_C@_1CO@EAEJAADC@?$AA?$DM?$AAp?$AAr?$AAo?$AAg?$AAr?$AAa?$AAm?$AA?5?$AAn?$AAa?$AAm?$AAe?$AA?5?$AAu?$AAn?$AAk?$AAn?$AAo?$AAw?$AAn?$AA?$DO?$AA?$AA@ 1003efd4     LIBCMT:wassert.obj
 0002:00005004       ??_C@_1O@HEMHKNDC@?$AAF?$AAi?$AAl?$AAe?$AA?3?$AA?5?$AA?$AA@ 1003f004     LIBCMT:wassert.obj
 0002:00005014       ??_C@_1O@KCAFKHJE@?$AAL?$AAi?$AAn?$AAe?$AA?3?$AA?5?$AA?$AA@ 1003f014     LIBCMT:wassert.obj
 0002:00005024       ??_C@_1BK@PEDCIPMA@?$AAE?$AAx?$AAp?$AAr?$AAe?$AAs?$AAs?$AAi?$AAo?$AAn?$AA?3?$AA?5?$AA?$AA@ 1003f024     LIBCMT:wassert.obj
 0002:00005040       ??_C@_1OA@EGMLFBHJ@?$AAF?$AAo?$AAr?$AA?5?$AAi?$AAn?$AAf?$AAo?$AAr?$AAm?$AAa?$AAt?$AAi?$AAo?$AAn?$AA?5?$AAo?$AAn?$AA?5?$AAh?$AAo?$AAw?$AA?5?$AAy?$AAo?$AAu?$AAr?$AA?5?$AAp?$AAr?$AAo?$AAg@ 1003f040     LIBCMT:wassert.obj
 0002:00005120       ??_C@_1HK@POCJMFGK@?$AA?$CI?$AAP?$AAr?$AAe?$AAs?$AAs?$AA?5?$AAR?$AAe?$AAt?$AAr?$AAy?$AA?5?$AAt?$AAo?$AA?5?$AAd?$AAe?$AAb?$AAu?$AAg?$AA?5?$AAt?$AAh?$AAe?$AA?5?$AAa?$AAp?$AAp?$AAl?$AAi?$AAc@ 1003f120     LIBCMT:wassert.obj
 0002:000051a0       ??_C@_1EK@MBDPDCGA@?$AAM?$AAi?$AAc?$AAr?$AAo?$AAs?$AAo?$AAf?$AAt?$AA?5?$AAV?$AAi?$AAs?$AAu?$AAa?$AAl?$AA?5?$AAC?$AA?$CL?$AA?$CL?$AA?5?$AAR?$AAu?$AAn?$AAt?$AAi?$AAm?$AAe?$AA?5?$AAL?$AAi?$AAb@ 1003f1a0     LIBCMT:wassert.obj
 0002:000051ec       __pRawDllMain              1003f1ec     LIBCMT:dllcrt0.obj
 0002:000051ec       __pDefaultRawDllMain       1003f1ec     LIBCMT:dllcrt0.obj
 0002:000051f0       ?ProcessDetach@NativeDll@<CrtImplementationDetails>@@0IB 1003f1f0     LIBCMT:handler.obj
 0002:000051f4       ?ProcessAttach@NativeDll@<CrtImplementationDetails>@@0IB 1003f1f4     LIBCMT:handler.obj
 0002:000051f8       ?ThreadAttach@NativeDll@<CrtImplementationDetails>@@0IB 1003f1f8     LIBCMT:handler.obj
 0002:000051fc       ?ThreadDetach@NativeDll@<CrtImplementationDetails>@@0IB 1003f1fc     LIBCMT:handler.obj
 0002:00005200       ?ProcessVerifier@NativeDll@<CrtImplementationDetails>@@0IB 1003f200     LIBCMT:handler.obj
 0002:000052c0       ??_C@_1FK@PGACCAFB@?$AAR?$AA6?$AA0?$AA0?$AA2?$AA?$AN?$AA?6?$AA?9?$AA?5?$AAf?$AAl?$AAo?$AAa?$AAt?$AAi?$AAn?$AAg?$AA?5?$AAp?$AAo?$AAi?$AAn?$AAt?$AA?5?$AAs?$AAu?$AAp?$AAp?$AAo?$AAr?$AAt?$AA?5@ 1003f2c0     LIBCMT:crt0msg.obj
 0002:00005320       ??_C@_1FE@LLNEDJMD@?$AAR?$AA6?$AA0?$AA0?$AA8?$AA?$AN?$AA?6?$AA?9?$AA?5?$AAn?$AAo?$AAt?$AA?5?$AAe?$AAn?$AAo?$AAu?$AAg?$AAh?$AA?5?$AAs?$AAp?$AAa?$AAc?$AAe?$AA?5?$AAf?$AAo?$AAr?$AA?5?$AAa?$AAr@ 1003f320     LIBCMT:crt0msg.obj
 0002:00005378       ??_C@_1FI@HONFMGBI@?$AAR?$AA6?$AA0?$AA0?$AA9?$AA?$AN?$AA?6?$AA?9?$AA?5?$AAn?$AAo?$AAt?$AA?5?$AAe?$AAn?$AAo?$AAu?$AAg?$AAh?$AA?5?$AAs?$AAp?$AAa?$AAc?$AAe?$AA?5?$AAf?$AAo?$AAr?$AA?5?$AAe?$AAn@ 1003f378     LIBCMT:crt0msg.obj
 0002:000053d0       ??_C@_1EG@BEHAGFJD@?$AAR?$AA6?$AA0?$AA1?$AA0?$AA?$AN?$AA?6?$AA?9?$AA?5?$AAa?$AAb?$AAo?$AAr?$AAt?$AA?$CI?$AA?$CJ?$AA?5?$AAh?$AAa?$AAs?$AA?5?$AAb?$AAe?$AAe?$AAn?$AA?5?$AAc?$AAa?$AAl?$AAl?$AAe?$AAd@ 1003f3d0     LIBCMT:crt0msg.obj
 0002:00005418       ??_C@_1FI@LOGNIKDM@?$AAR?$AA6?$AA0?$AA1?$AA6?$AA?$AN?$AA?6?$AA?9?$AA?5?$AAn?$AAo?$AAt?$AA?5?$AAe?$AAn?$AAo?$AAu?$AAg?$AAh?$AA?5?$AAs?$AAp?$AAa?$AAc?$AAe?$AA?5?$AAf?$AAo?$AAr?$AA?5?$AAt?$AAh@ 1003f418     LIBCMT:crt0msg.obj
 0002:00005470       ??_C@_1FK@BEOGODMC@?$AAR?$AA6?$AA0?$AA1?$AA7?$AA?$AN?$AA?6?$AA?9?$AA?5?$AAu?$AAn?$AAe?$AAx?$AAp?$AAe?$AAc?$AAt?$AAe?$AAd?$AA?5?$AAm?$AAu?$AAl?$AAt?$AAi?$AAt?$AAh?$AAr?$AAe?$AAa?$AAd?$AA?5@ 1003f470     LIBCMT:crt0msg.obj
 0002:000054d0       ??_C@_1EC@JIBHAOPH@?$AAR?$AA6?$AA0?$AA1?$AA8?$AA?$AN?$AA?6?$AA?9?$AA?5?$AAu?$AAn?$AAe?$AAx?$AAp?$AAe?$AAc?$AAt?$AAe?$AAd?$AA?5?$AAh?$AAe?$AAa?$AAp?$AA?5?$AAe?$AAr?$AAr?$AAo?$AAr?$AA?$AN?$AA?6@ 1003f4d0     LIBCMT:crt0msg.obj
 0002:00005518       ??_C@_1FC@ECHBIFBC@?$AAR?$AA6?$AA0?$AA1?$AA9?$AA?$AN?$AA?6?$AA?9?$AA?5?$AAu?$AAn?$AAa?$AAb?$AAl?$AAe?$AA?5?$AAt?$AAo?$AA?5?$AAo?$AAp?$AAe?$AAn?$AA?5?$AAc?$AAo?$AAn?$AAs?$AAo?$AAl?$AAe?$AA?5@ 1003f518     LIBCMT:crt0msg.obj
 0002:00005570       ??_C@_1GK@FHCKBEFA@?$AAR?$AA6?$AA0?$AA2?$AA4?$AA?$AN?$AA?6?$AA?9?$AA?5?$AAn?$AAo?$AAt?$AA?5?$AAe?$AAn?$AAo?$AAu?$AAg?$AAh?$AA?5?$AAs?$AAp?$AAa?$AAc?$AAe?$AA?5?$AAf?$AAo?$AAr?$AA?5?$AA_?$AAo@ 1003f570     LIBCMT:crt0msg.obj
 0002:000055e0       ??_C@_1EM@MAADIHMB@?$AAR?$AA6?$AA0?$AA2?$AA5?$AA?$AN?$AA?6?$AA?9?$AA?5?$AAp?$AAu?$AAr?$AAe?$AA?5?$AAv?$AAi?$AAr?$AAt?$AAu?$AAa?$AAl?$AA?5?$AAf?$AAu?$AAn?$AAc?$AAt?$AAi?$AAo?$AAn?$AA?5?$AAc@ 1003f5e0     LIBCMT:crt0msg.obj
 0002:00005630       ??_C@_1GK@MCAAGJMO@?$AAR?$AA6?$AA0?$AA2?$AA6?$AA?$AN?$AA?6?$AA?9?$AA?5?$AAn?$AAo?$AAt?$AA?5?$AAe?$AAn?$AAo?$AAu?$AAg?$AAh?$AA?5?$AAs?$AAp?$AAa?$AAc?$AAe?$AA?5?$AAf?$AAo?$AAr?$AA?5?$AAs?$AAt@ 1003f630     LIBCMT:crt0msg.obj
 0002:000056a0       ??_C@_1GK@MFGOKLAG@?$AAR?$AA6?$AA0?$AA2?$AA7?$AA?$AN?$AA?6?$AA?9?$AA?5?$AAn?$AAo?$AAt?$AA?5?$AAe?$AAn?$AAo?$AAu?$AAg?$AAh?$AA?5?$AAs?$AAp?$AAa?$AAc?$AAe?$AA?5?$AAf?$AAo?$AAr?$AA?5?$AAl?$AAo@ 1003f6a0     LIBCMT:crt0msg.obj
 0002:00005710       ??_C@_1EK@HHFLMAOL@?$AAR?$AA6?$AA0?$AA2?$AA8?$AA?$AN?$AA?6?$AA?9?$AA?5?$AAu?$AAn?$AAa?$AAb?$AAl?$AAe?$AA?5?$AAt?$AAo?$AA?5?$AAi?$AAn?$AAi?$AAt?$AAi?$AAa?$AAl?$AAi?$AAz?$AAe?$AA?5?$AAh?$AAe@ 1003f710     LIBCMT:crt0msg.obj
 0002:0000575c       ??_C@_1DO@BMFCDCD@?$AAR?$AA6?$AA0?$AA3?$AA0?$AA?$AN?$AA?6?$AA?9?$AA?5?$AAC?$AAR?$AAT?$AA?5?$AAn?$AAo?$AAt?$AA?5?$AAi?$AAn?$AAi?$AAt?$AAi?$AAa?$AAl?$AAi?$AAz?$AAe?$AAd?$AA?$AN?$AA?6?$AA?$AA@ 1003f75c     LIBCMT:crt0msg.obj
 0002:000057a0       ??_C@_1MG@ENCOOIDF@?$AAR?$AA6?$AA0?$AA3?$AA1?$AA?$AN?$AA?6?$AA?9?$AA?5?$AAA?$AAt?$AAt?$AAe?$AAm?$AAp?$AAt?$AA?5?$AAt?$AAo?$AA?5?$AAi?$AAn?$AAi?$AAt?$AAi?$AAa?$AAl?$AAi?$AAz?$AAe?$AA?5?$AAt@ 1003f7a0     LIBCMT:crt0msg.obj
 0002:00005868       ??_C@_1GG@GOPILAJP@?$AAR?$AA6?$AA0?$AA3?$AA2?$AA?$AN?$AA?6?$AA?9?$AA?5?$AAn?$AAo?$AAt?$AA?5?$AAe?$AAn?$AAo?$AAu?$AAg?$AAh?$AA?5?$AAs?$AAp?$AAa?$AAc?$AAe?$AA?5?$AAf?$AAo?$AAr?$AA?5?$AAl?$AAo@ 1003f868     LIBCMT:crt0msg.obj
 0002:000058d0       ??_C@_1BOO@KGEDBGAJ@?$AAR?$AA6?$AA0?$AA3?$AA3?$AA?$AN?$AA?6?$AA?9?$AA?5?$AAA?$AAt?$AAt?$AAe?$AAm?$AAp?$AAt?$AA?5?$AAt?$AAo?$AA?5?$AAu?$AAs?$AAe?$AA?5?$AAM?$AAS?$AAI?$AAL?$AA?5?$AAc?$AAo?$AAd@ 1003f8d0     LIBCMT:crt0msg.obj
 0002:00005ac0       ??_C@_1GG@MKFPEKFO@?$AAR?$AA6?$AA0?$AA3?$AA4?$AA?$AN?$AA?6?$AA?9?$AA?5?$AAi?$AAn?$AAc?$AAo?$AAn?$AAs?$AAi?$AAs?$AAt?$AAe?$AAn?$AAt?$AA?5?$AAo?$AAn?$AAe?$AAx?$AAi?$AAt?$AA?5?$AAb?$AAe?$AAg@ 1003fac0     LIBCMT:crt0msg.obj
 0002:00005b28       ??_C@_1BO@BFCDCGC@?$AAD?$AAO?$AAM?$AAA?$AAI?$AAN?$AA?5?$AAe?$AAr?$AAr?$AAo?$AAr?$AA?$AN?$AA?6?$AA?$AA@ 1003fb28     LIBCMT:crt0msg.obj
 0002:00005b48       ??_C@_1BK@KMOMNAAI@?$AAS?$AAI?$AAN?$AAG?$AA?5?$AAe?$AAr?$AAr?$AAo?$AAr?$AA?$AN?$AA?6?$AA?$AA@ 1003fb48     LIBCMT:crt0msg.obj
 0002:00005b64       ??_C@_1BM@JBBEPPHI@?$AAT?$AAL?$AAO?$AAS?$AAS?$AA?5?$AAe?$AAr?$AAr?$AAo?$AAr?$AA?$AN?$AA?6?$AA?$AA@ 1003fb64     LIBCMT:crt0msg.obj
 0002:00005b80       ??_C@_15JNBOKNOG@?$AA?$AN?$AA?6?$AA?$AA@ 1003fb80     LIBCMT:crt0msg.obj
 0002:00005b88       ??_C@_1BO@BKOMIGKJ@?$AAr?$AAu?$AAn?$AAt?$AAi?$AAm?$AAe?$AA?5?$AAe?$AAr?$AAr?$AAo?$AAr?$AA?5?$AA?$AA@ 1003fb88     LIBCMT:crt0msg.obj
 0002:00005ba8       ??_C@_1DE@JNGNBFGO@?$AAR?$AAu?$AAn?$AAt?$AAi?$AAm?$AAe?$AA?5?$AAE?$AAr?$AAr?$AAo?$AAr?$AA?$CB?$AA?6?$AA?6?$AAP?$AAr?$AAo?$AAg?$AAr?$AAa?$AAm?$AA?3?$AA?5?$AA?$AA@ 1003fba8     LIBCMT:crt0msg.obj
 0002:00005bdc       ??_C@_05KLBDPFGC@e?$CL000?$AA@ 1003fbdc     LIBCMT:cvt.obj
 0002:00005be4       ??_C@_0BE@JOGNEJCI@GetCurrentPackageId?$AA@ 1003fbe4     LIBCMT:winapisupp.obj
 0002:00005bf8       ??_C@_1BK@MGMFAEKH@?$AAk?$AAe?$AAr?$AAn?$AAe?$AAl?$AA3?$AA2?$AA?4?$AAd?$AAl?$AAl?$AA?$AA@ 1003fbf8     LIBCMT:winapisupp.obj
 0002:00005c14       ??_C@_1BK@GAEMIDIL@?$AAA?$AAD?$AAV?$AAA?$AAP?$AAI?$AA3?$AA2?$AA?4?$AAD?$AAL?$AAL?$AA?$AA@ 1003fc14     LIBCMT:rand_s.obj
 0002:00005c30       ??_C@_0BC@JEAENNKH@SystemFunction036?$AA@ 1003fc30     LIBCMT:rand_s.obj
 0002:00005c54       ??_C@_1M@HPNHIDJI@?$AAj?$AAa?$AA?9?$AAJ?$AAP?$AA?$AA@ 1003fc54     LIBCMT:mbctype.obj
 0002:00005c60       ??_C@_1M@BIBDDEMK@?$AAz?$AAh?$AA?9?$AAC?$AAN?$AA?$AA@ 1003fc60     LIBCMT:mbctype.obj
 0002:00005c6c       ??_C@_1M@JLOOOEGK@?$AAk?$AAo?$AA?9?$AAK?$AAR?$AA?$AA@ 1003fc6c     LIBCMT:mbctype.obj
 0002:00005c78       ??_C@_1M@CLNBBOPM@?$AAz?$AAh?$AA?9?$AAT?$AAW?$AA?$AA@ 1003fc78     LIBCMT:mbctype.obj
 0002:00005ca4       ??_C@_06OJHGLDPL@?$CInull?$CJ?$AA@ 1003fca4     LIBCMT:output.obj
 0002:00005cac       ??_C@_1O@CEDCILHN@?$AA?$CI?$AAn?$AAu?$AAl?$AAl?$AA?$CJ?$AA?$AA@ 1003fcac     LIBCMT:output.obj
 0002:00005cc0       ___lookuptable             1003fcc0     LIBCMT:output.obj
 0002:00005d1c       ??_C@_03KHJOGHMM@exp?$AA@  1003fd1c     LIBCMT:fpexcept.obj
 0002:00005d20       ??_C@_03JGHBODFD@pow?$AA@  1003fd20     LIBCMT:fpexcept.obj
 0002:00005d24       ??_C@_03MGHMBJCF@log?$AA@  1003fd24     LIBCMT:fpexcept.obj
 0002:00005d28       ??_C@_05HGHHAHAP@log10?$AA@ 1003fd28     LIBCMT:fpexcept.obj
 0002:00005d30       ??_C@_04COOMCNPB@sinh?$AA@ 1003fd30     LIBCMT:fpexcept.obj
 0002:00005d38       ??_C@_04HPJJNFIM@cosh?$AA@ 1003fd38     LIBCMT:fpexcept.obj
 0002:00005d40       ??_C@_04FJHINJAO@tanh?$AA@ 1003fd40     LIBCMT:fpexcept.obj
 0002:00005d48       ??_C@_04FIHNOPOL@asin?$AA@ 1003fd48     LIBCMT:fpexcept.obj
 0002:00005d50       ??_C@_04PDIFKINK@acos?$AA@ 1003fd50     LIBCMT:fpexcept.obj
 0002:00005d58       ??_C@_04MLLJIGOK@atan?$AA@ 1003fd58     LIBCMT:fpexcept.obj
 0002:00005d60       ??_C@_05KNGEOGJB@atan2?$AA@ 1003fd60     LIBCMT:fpexcept.obj
 0002:00005d68       ??_C@_04EIAKFFMI@sqrt?$AA@ 1003fd68     LIBCMT:fpexcept.obj
 0002:00005d70       ??_C@_03BLEJJJBH@sin?$AA@  1003fd70     LIBCMT:fpexcept.obj
 0002:00005d74       ??_C@_03LALBNOCG@cos?$AA@  1003fd74     LIBCMT:fpexcept.obj
 0002:00005d78       ??_C@_03IIINPABG@tan?$AA@  1003fd78     LIBCMT:fpexcept.obj
 0002:00005d7c       ??_C@_04GFPJNGEK@ceil?$AA@ 1003fd7c     LIBCMT:fpexcept.obj
 0002:00005d84       ??_C@_05PBJFFIGL@floor?$AA@ 1003fd84     LIBCMT:fpexcept.obj
 0002:00005d8c       ??_C@_04ODHECPBC@fabs?$AA@ 1003fd8c     LIBCMT:fpexcept.obj
 0002:00005d94       ??_C@_04EHEDPDJG@modf?$AA@ 1003fd94     LIBCMT:fpexcept.obj
 0002:00005d9c       ??_C@_05CEJMAHNP@ldexp?$AA@ 1003fd9c     LIBCMT:fpexcept.obj
 0002:00005da4       ??_C@_05KBKMEMPO@_cabs?$AA@ 1003fda4     LIBCMT:fpexcept.obj
 0002:00005dac       ??_C@_06MEIMCGCF@_hypot?$AA@ 1003fdac     LIBCMT:fpexcept.obj
 0002:00005db4       ??_C@_04KEPJIHGP@fmod?$AA@ 1003fdb4     LIBCMT:fpexcept.obj
 0002:00005dbc       ??_C@_05GKKHEGJL@frexp?$AA@ 1003fdbc     LIBCMT:fpexcept.obj
 0002:00005dc4       ??_C@_03MJLDFKDL@_y0?$AA@  1003fdc4     LIBCMT:fpexcept.obj
 0002:00005dc8       ??_C@_03NAKIGLHK@_y1?$AA@  1003fdc8     LIBCMT:fpexcept.obj
 0002:00005dcc       ??_C@_03ONILCKOB@_yn?$AA@  1003fdcc     LIBCMT:fpexcept.obj
 0002:00005dd0       ??_C@_05JGDBENOH@_logb?$AA@ 1003fdd0     LIBCMT:fpexcept.obj
 0002:00005dd8       ??_C@_0L@KDOEJCKC@_nextafter?$AA@ 1003fdd8     LIBCMT:fpexcept.obj
 0002:00005de4       ??_C@_1BG@GOEBHBDC@?$AAU?$AAS?$AAE?$AAR?$AA3?$AA2?$AA?4?$AAD?$AAL?$AAL?$AA?$AA@ 1003fde4     LIBCMT:crtmboxw.obj
 0002:00005dfc       ??_C@_0M@DLDCCGNP@MessageBoxW?$AA@ 1003fdfc     LIBCMT:crtmboxw.obj
 0002:00005e08       ??_C@_0BA@HNOPNCHB@GetActiveWindow?$AA@ 1003fe08     LIBCMT:crtmboxw.obj
 0002:00005e18       ??_C@_0BD@HHGDFDBJ@GetLastActivePopup?$AA@ 1003fe18     LIBCMT:crtmboxw.obj
 0002:00005e2c       ??_C@_0BK@DEKFELLI@GetUserObjectInformationW?$AA@ 1003fe2c     LIBCMT:crtmboxw.obj
 0002:00005e48       ??_C@_0BI@DFKBFLJE@GetProcessWindowStation?$AA@ 1003fe48     LIBCMT:crtmboxw.obj
 0002:00005e60       __XcptActTab               1003fe60     LIBCMT:winxfltr.obj
 0002:00005ef0       __XcptActTabCount          1003fef0     LIBCMT:winxfltr.obj
 0002:00005ef4       __XcptActTabSize           1003fef4     LIBCMT:winxfltr.obj
 0002:00005ef8       __First_FPE_Indx           1003fef8     LIBCMT:winxfltr.obj
 0002:00005efc       __Num_FPE                  1003fefc     LIBCMT:winxfltr.obj
 0002:00005f00       ??_C@_03KOEHGMDN@Sun?$AA@  1003ff00     LIBCMT:nlsdata.obj
 0002:00005f04       ??_C@_03PDAGKDH@Mon?$AA@   1003ff04     LIBCMT:nlsdata.obj
 0002:00005f08       ??_C@_03NAGEINEP@Tue?$AA@  1003ff08     LIBCMT:nlsdata.obj
 0002:00005f0c       ??_C@_03MHOMLAJA@Wed?$AA@  1003ff0c     LIBCMT:nlsdata.obj
 0002:00005f10       ??_C@_03IOFIKPDN@Thu?$AA@  1003ff10     LIBCMT:nlsdata.obj
 0002:00005f14       ??_C@_03IDIOELNC@Fri?$AA@  1003ff14     LIBCMT:nlsdata.obj
 0002:00005f18       ??_C@_03FEFJNEK@Sat?$AA@   1003ff18     LIBCMT:nlsdata.obj
 0002:00005f1c       ??_C@_06OOPIFAJ@Sunday?$AA@ 1003ff1c     LIBCMT:nlsdata.obj
 0002:00005f24       ??_C@_06JLEDEDGH@Monday?$AA@ 1003ff24     LIBCMT:nlsdata.obj
 0002:00005f2c       ??_C@_07BAAGCFCM@Tuesday?$AA@ 1003ff2c     LIBCMT:nlsdata.obj
 0002:00005f34       ??_C@_09DLIGFAKA@Wednesday?$AA@ 1003ff34     LIBCMT:nlsdata.obj
 0002:00005f40       ??_C@_08HACCIKIA@Thursday?$AA@ 1003ff40     LIBCMT:nlsdata.obj
 0002:00005f4c       ??_C@_06JECMNKMI@Friday?$AA@ 1003ff4c     LIBCMT:nlsdata.obj
 0002:00005f54       ??_C@_08INBOOONO@Saturday?$AA@ 1003ff54     LIBCMT:nlsdata.obj
 0002:00005f60       ??_C@_03JIHJHPIE@Jan?$AA@  1003ff60     LIBCMT:nlsdata.obj
 0002:00005f64       ??_C@_03HJBDCHOM@Feb?$AA@  1003ff64     LIBCMT:nlsdata.obj
 0002:00005f68       ??_C@_03ODNJBKGA@Mar?$AA@  1003ff68     LIBCMT:nlsdata.obj
 0002:00005f6c       ??_C@_03LEOLGMJP@Apr?$AA@  1003ff6c     LIBCMT:nlsdata.obj
 0002:00005f70       ??_C@_03CNMDKL@May?$AA@    1003ff70     LIBCMT:nlsdata.obj
 0002:00005f74       ??_C@_03IDFGHECI@Jun?$AA@  1003ff74     LIBCMT:nlsdata.obj
 0002:00005f78       ??_C@_03LBGABGKK@Jul?$AA@  1003ff78     LIBCMT:nlsdata.obj
 0002:00005f7c       ??_C@_03IFJFEIGA@Aug?$AA@  1003ff7c     LIBCMT:nlsdata.obj
 0002:00005f80       ??_C@_03GGCAPAJC@Sep?$AA@  1003ff80     LIBCMT:nlsdata.obj
 0002:00005f84       ??_C@_03BMAOKBAD@Oct?$AA@  1003ff84     LIBCMT:nlsdata.obj
 0002:00005f88       ??_C@_03JPJOFNIA@Nov?$AA@  1003ff88     LIBCMT:nlsdata.obj
 0002:00005f8c       ??_C@_03MKABNOCG@Dec?$AA@  1003ff8c     LIBCMT:nlsdata.obj
 0002:00005f90       ??_C@_07CGJPFGJA@January?$AA@ 1003ff90     LIBCMT:nlsdata.obj
 0002:00005f98       ??_C@_08GNJGEPFN@February?$AA@ 1003ff98     LIBCMT:nlsdata.obj
 0002:00005fa4       ??_C@_05HPCKOFNC@March?$AA@ 1003ffa4     LIBCMT:nlsdata.obj
 0002:00005fac       ??_C@_05DMJDNLEJ@April?$AA@ 1003ffac     LIBCMT:nlsdata.obj
 0002:00005fb4       ??_C@_04CNLMGBGM@June?$AA@ 1003ffb4     LIBCMT:nlsdata.obj
 0002:00005fbc       ??_C@_04MIEPOIFP@July?$AA@ 1003ffbc     LIBCMT:nlsdata.obj
 0002:00005fc4       ??_C@_06LBBHFDDG@August?$AA@ 1003ffc4     LIBCMT:nlsdata.obj
 0002:00005fcc       ??_C@_09BHHEALKD@September?$AA@ 1003ffcc     LIBCMT:nlsdata.obj
 0002:00005fd8       ??_C@_07JJNFCEND@October?$AA@ 1003ffd8     LIBCMT:nlsdata.obj
 0002:00005fe0       ??_C@_08HCHEGEOA@November?$AA@ 1003ffe0     LIBCMT:nlsdata.obj
 0002:00005fec       ??_C@_08EDHMEBNP@December?$AA@ 1003ffec     LIBCMT:nlsdata.obj
 0002:00005ff8       ??_C@_02DEDBPAFC@AM?$AA@   1003fff8     LIBCMT:nlsdata.obj
 0002:00005ffc       ??_C@_02CJNFDJBF@PM?$AA@   1003fffc     LIBCMT:nlsdata.obj
 0002:00006000       ??_C@_08BPBNCDIB@MM?1dd?1yy?$AA@ 10040000     LIBCMT:nlsdata.obj
 0002:0000600c       ??_C@_0BE@CKGJFCPC@dddd?0?5MMMM?5dd?0?5yyyy?$AA@ 1004000c     LIBCMT:nlsdata.obj
 0002:00006020       ??_C@_08JCCMCCIL@HH?3mm?3ss?$AA@ 10040020     LIBCMT:nlsdata.obj
 0002:0000602c       ??_C@_17MBGCMIPB@?$AAS?$AAu?$AAn?$AA?$AA@ 1004002c     LIBCMT:nlsdata.obj
 0002:00006034       ??_C@_17KBOMKBF@?$AAM?$AAo?$AAn?$AA?$AA@ 10040034     LIBCMT:nlsdata.obj
 0002:0000603c       ??_C@_17BMKGEGOJ@?$AAT?$AAu?$AAe?$AA?$AA@ 1004003c     LIBCMT:nlsdata.obj
 0002:00006044       ??_C@_17CJEDCEPE@?$AAW?$AAe?$AAd?$AA?$AA@ 10040044     LIBCMT:nlsdata.obj
 0002:0000604c       ??_C@_17PDPHAADD@?$AAT?$AAh?$AAu?$AA?$AA@ 1004004c     LIBCMT:nlsdata.obj
 0002:00006054       ??_C@_17HFOLPPLP@?$AAF?$AAr?$AAi?$AA?$AA@ 10040054     LIBCMT:nlsdata.obj
 0002:0000605c       ??_C@_17GGIBDPIH@?$AAS?$AAa?$AAt?$AA?$AA@ 1004005c     LIBCMT:nlsdata.obj
 0002:00006064       ??_C@_1O@IHNHDHPB@?$AAS?$AAu?$AAn?$AAd?$AAa?$AAy?$AA?$AA@ 10040064     LIBCMT:nlsdata.obj
 0002:00006074       ??_C@_1O@MMNBFLIA@?$AAM?$AAo?$AAn?$AAd?$AAa?$AAy?$AA?$AA@ 10040074     LIBCMT:nlsdata.obj
 0002:00006084       ??_C@_1BA@ENFBFFEK@?$AAT?$AAu?$AAe?$AAs?$AAd?$AAa?$AAy?$AA?$AA@ 10040084     LIBCMT:nlsdata.obj
 0002:00006094       ??_C@_1BE@EBOGMDOH@?$AAW?$AAe?$AAd?$AAn?$AAe?$AAs?$AAd?$AAa?$AAy?$AA?$AA@ 10040094     LIBCMT:nlsdata.obj
 0002:000060a8       ??_C@_1BC@HHMNLIHE@?$AAT?$AAh?$AAu?$AAr?$AAs?$AAd?$AAa?$AAy?$AA?$AA@ 100400a8     LIBCMT:nlsdata.obj
 0002:000060bc       ??_C@_1O@PDICJHAG@?$AAF?$AAr?$AAi?$AAd?$AAa?$AAy?$AA?$AA@ 100400bc     LIBCMT:nlsdata.obj
 0002:000060cc       ??_C@_1BC@ENMNNPAJ@?$AAS?$AAa?$AAt?$AAu?$AAr?$AAd?$AAa?$AAy?$AA?$AA@ 100400cc     LIBCMT:nlsdata.obj
 0002:000060e0       ??_C@_17DKNBKCHM@?$AAJ?$AAa?$AAn?$AA?$AA@ 100400e0     LIBCMT:nlsdata.obj
 0002:000060e8       ??_C@_17LMDJEKJN@?$AAF?$AAe?$AAb?$AA?$AA@ 100400e8     LIBCMT:nlsdata.obj
 0002:000060f0       ??_C@_17CKNLEDEC@?$AAM?$AAa?$AAr?$AA?$AA@ 100400f0     LIBCMT:nlsdata.obj
 0002:000060f8       ??_C@_17LFPOIHDD@?$AAA?$AAp?$AAr?$AA?$AA@ 100400f8     LIBCMT:nlsdata.obj
 0002:00006100       ??_C@_17PNNKMEED@?$AAM?$AAa?$AAy?$AA?$AA@ 10040100     LIBCMT:nlsdata.obj
 0002:00006108       ??_C@_17KCJGOCPB@?$AAJ?$AAu?$AAn?$AA?$AA@ 10040108     LIBCMT:nlsdata.obj
 0002:00006110       ??_C@_17IJPCKHK@?$AAJ?$AAu?$AAl?$AA?$AA@ 10040110     LIBCMT:nlsdata.obj
 0002:00006118       ??_C@_17ICPELBCN@?$AAA?$AAu?$AAg?$AA?$AA@ 10040118     LIBCMT:nlsdata.obj
 0002:00006120       ??_C@_17HCHCOKMG@?$AAS?$AAe?$AAp?$AA?$AA@ 10040120     LIBCMT:nlsdata.obj
 0002:00006128       ??_C@_17FNLKOI@?$AAO?$AAc?$AAt?$AA?$AA@ 10040128     LIBCMT:nlsdata.obj
 0002:00006130       ??_C@_17BBDMLCIG@?$AAN?$AAo?$AAv?$AA?$AA@ 10040130     LIBCMT:nlsdata.obj
 0002:00006138       ??_C@_17EGKACKIF@?$AAD?$AAe?$AAc?$AA?$AA@ 10040138     LIBCMT:nlsdata.obj
 0002:00006140       ??_C@_1BA@EFMEIEBA@?$AAJ?$AAa?$AAn?$AAu?$AAa?$AAr?$AAy?$AA?$AA@ 10040140     LIBCMT:nlsdata.obj
 0002:00006150       ??_C@_1BC@JGDDFFAM@?$AAF?$AAe?$AAb?$AAr?$AAu?$AAa?$AAr?$AAy?$AA?$AA@ 10040150     LIBCMT:nlsdata.obj
 0002:00006164       ??_C@_1M@IKEENEDF@?$AAM?$AAa?$AAr?$AAc?$AAh?$AA?$AA@ 10040164     LIBCMT:nlsdata.obj
 0002:00006170       ??_C@_1M@GJNLMHFD@?$AAA?$AAp?$AAr?$AAi?$AAl?$AA?$AA@ 10040170     LIBCMT:nlsdata.obj
 0002:0000617c       ??_C@_19EPFLPGAP@?$AAJ?$AAu?$AAn?$AAe?$AA?$AA@ 1004017c     LIBCMT:nlsdata.obj
 0002:00006188       ??_C@_19BIFMLPCD@?$AAJ?$AAu?$AAl?$AAy?$AA?$AA@ 10040188     LIBCMT:nlsdata.obj
 0002:00006194       ??_C@_1O@PAHLKOAC@?$AAA?$AAu?$AAg?$AAu?$AAs?$AAt?$AA?$AA@ 10040194     LIBCMT:nlsdata.obj
 0002:000061a4       ??_C@_1BE@DKAAMBJL@?$AAS?$AAe?$AAp?$AAt?$AAe?$AAm?$AAb?$AAe?$AAr?$AA?$AA@ 100401a4     LIBCMT:nlsdata.obj
 0002:000061b8       ??_C@_1BA@EPANDLNG@?$AAO?$AAc?$AAt?$AAo?$AAb?$AAe?$AAr?$AA?$AA@ 100401b8     LIBCMT:nlsdata.obj
 0002:000061c8       ??_C@_1BC@BGLIFPF@?$AAN?$AAo?$AAv?$AAe?$AAm?$AAb?$AAe?$AAr?$AA?$AA@ 100401c8     LIBCMT:nlsdata.obj
 0002:000061dc       ??_C@_1BC@FEMKIFH@?$AAD?$AAe?$AAc?$AAe?$AAm?$AAb?$AAe?$AAr?$AA?$AA@ 100401dc     LIBCMT:nlsdata.obj
 0002:000061f0       ??_C@_15ODEHAHHF@?$AAA?$AAM?$AA?$AA@ 100401f0     LIBCMT:nlsdata.obj
 0002:000061f8       ??_C@_15CLMNNGEL@?$AAP?$AAM?$AA?$AA@ 100401f8     LIBCMT:nlsdata.obj
 0002:00006200       ??_C@_1BC@IEBCMHCM@?$AAM?$AAM?$AA?1?$AAd?$AAd?$AA?1?$AAy?$AAy?$AA?$AA@ 10040200     LIBCMT:nlsdata.obj
 0002:00006214       ??_C@_1CI@KNAKOEBC@?$AAd?$AAd?$AAd?$AAd?$AA?0?$AA?5?$AAM?$AAM?$AAM?$AAM?$AA?5?$AAd?$AAd?$AA?0?$AA?5?$AAy?$AAy?$AAy?$AAy?$AA?$AA@ 10040214     LIBCMT:nlsdata.obj
 0002:0000623c       ??_C@_1BC@GDGBMEMK@?$AAH?$AAH?$AA?3?$AAm?$AAm?$AA?3?$AAs?$AAs?$AA?$AA@ 1004023c     LIBCMT:nlsdata.obj
 0002:00006250       ??_C@_1M@BMHNFIME@?$AAe?$AAn?$AA?9?$AAU?$AAS?$AA?$AA@ 10040250     LIBCMT:nlsdata.obj
 0002:00006260       ___lookuptable_s           10040260     LIBCMT:outputs.obj
 0002:000062c0       ___lc_category             100402c0     LIBCMT:wsetloca.obj
 0002:00006308       ??_C@_1O@GIFLHMA@?$AAL?$AAC?$AA_?$AAA?$AAL?$AAL?$AA?$AA@ 10040308     LIBCMT:wsetloca.obj
 0002:00006318       ??_C@_1BG@PPOMIBNJ@?$AAL?$AAC?$AA_?$AAC?$AAO?$AAL?$AAL?$AAA?$AAT?$AAE?$AA?$AA@ 10040318     LIBCMT:wsetloca.obj
 0002:00006330       ??_C@_1BC@FFJGAPJM@?$AAL?$AAC?$AA_?$AAC?$AAT?$AAY?$AAP?$AAE?$AA?$AA@ 10040330     LIBCMT:wsetloca.obj
 0002:00006344       ??_C@_1BI@PCKFNJFB@?$AAL?$AAC?$AA_?$AAM?$AAO?$AAN?$AAE?$AAT?$AAA?$AAR?$AAY?$AA?$AA@ 10040344     LIBCMT:wsetloca.obj
 0002:0000635c       ??_C@_1BG@ENIEDKID@?$AAL?$AAC?$AA_?$AAN?$AAU?$AAM?$AAE?$AAR?$AAI?$AAC?$AA?$AA@ 1004035c     LIBCMT:wsetloca.obj
 0002:00006374       ??_C@_1BA@HAAOMIIG@?$AAL?$AAC?$AA_?$AAT?$AAI?$AAM?$AAE?$AA?$AA@ 10040374     LIBCMT:wsetloca.obj
 0002:00006408       ??_C@_15NBPDDFIP@?$AA?$DN?$AA?$DL?$AA?$AA@ 10040408     LIBCMT:wsetloca.obj
 0002:00006410       ??_C@_13PJJBFPED@?$AA?$DL?$AA?$AA@ 10040410     LIBCMT:wsetloca.obj
 0002:00006414       ??_C@_13NMPKAAJP@?$AA?$DN?$AA?$AA@ 10040414     LIBCMT:wsetloca.obj
 0002:00006418       ??_C@_13FHBKNHDA@?$AAC?$AA?$AA@ 10040418     LIBCMT:wsetloca.obj
 0002:0000641c       ??_C@_17MBJJLFDM@?$AA_?$AA?4?$AA?0?$AA?$AA@ 1004041c     LIBCMT:wsetloca.obj
 0002:00006424       ??_C@_13ENNFDPBH@?$AA_?$AA?$AA@ 10040424     LIBCMT:wsetloca.obj
 0002:00006428       ??_C@_13JOFGPIOO@?$AA?4?$AA?$AA@ 10040428     LIBCMT:wsetloca.obj
 0002:0000642c       ??_C@_06PGGFOGJG@1?$CDSNAN?$AA@ 1004042c     LIBCMT:x10fout.obj
 0002:00006434       ??_C@_05PHHOCPM@1?$CDIND?$AA@ 10040434     LIBCMT:x10fout.obj
 0002:0000643c       ??_C@_05DNEBIAHO@1?$CDINF?$AA@ 1004043c     LIBCMT:x10fout.obj
 0002:00006444       ??_C@_06IMKFLFPG@1?$CDQNAN?$AA@ 10040444     LIBCMT:x10fout.obj
 0002:00006450       ___newctype                10040450     LIBCMT:ctype.obj
 0002:00006750       __wctype                   10040750     LIBCMT:ctype.obj
 0002:00006958       ___newclmap                10040958     LIBCMT:ctype.obj
 0002:00006ad8       ___newcumap                10040ad8     LIBCMT:ctype.obj
 0002:00006c58       ??_C@_0M@HHGEPIBF@CreateFile2?$AA@ 10040c58     LIBCMT:wopen.obj
 0002:00006c64       ??_C@_1BA@BALFACEM@?$AAC?$AAO?$AAN?$AAO?$AAU?$AAT?$AA$?$AA?$AA@ 10040c64     LIBCMT:initcon.obj
 0002:00006c78       ___rg_language             10040c78     LIBCMT:getqloc.obj
 0002:00006f84       ??_C@_1BC@LLOKLNP@?$AAa?$AAm?$AAe?$AAr?$AAi?$AAc?$AAa?$AAn?$AA?$AA@ 10040f84     LIBCMT:getqloc.obj
 0002:00006f98       ??_C@_1CC@HEIGCDGG@?$AAa?$AAm?$AAe?$AAr?$AAi?$AAc?$AAa?$AAn?$AA?5?$AAe?$AAn?$AAg?$AAl?$AAi?$AAs?$AAh?$AA?$AA@ 10040f98     LIBCMT:getqloc.obj
 0002:00006fbc       ??_C@_1CC@IHCNOMIN@?$AAa?$AAm?$AAe?$AAr?$AAi?$AAc?$AAa?$AAn?$AA?9?$AAe?$AAn?$AAg?$AAl?$AAi?$AAs?$AAh?$AA?$AA@ 10040fbc     LIBCMT:getqloc.obj
 0002:00006fe0       ??_C@_1BG@GKAGPCGG@?$AAa?$AAu?$AAs?$AAt?$AAr?$AAa?$AAl?$AAi?$AAa?$AAn?$AA?$AA@ 10040fe0     LIBCMT:getqloc.obj
 0002:00006ff8       ??_C@_1BA@GMENCENF@?$AAb?$AAe?$AAl?$AAg?$AAi?$AAa?$AAn?$AA?$AA@ 10040ff8     LIBCMT:getqloc.obj
 0002:00007008       ??_C@_1BC@PJMIIAAN@?$AAc?$AAa?$AAn?$AAa?$AAd?$AAi?$AAa?$AAn?$AA?$AA@ 10041008     LIBCMT:getqloc.obj
 0002:0000701c       ??_C@_17NOIMNFBF@?$AAc?$AAh?$AAh?$AA?$AA@ 1004101c     LIBCMT:getqloc.obj
 0002:00007024       ??_C@_17GGDALCHA@?$AAc?$AAh?$AAi?$AA?$AA@ 10041024     LIBCMT:getqloc.obj
 0002:0000702c       ??_C@_1BA@NPNJKIBL@?$AAc?$AAh?$AAi?$AAn?$AAe?$AAs?$AAe?$AA?$AA@ 1004102c     LIBCMT:getqloc.obj
 0002:0000703c       ??_C@_1CC@DINBAMMJ@?$AAc?$AAh?$AAi?$AAn?$AAe?$AAs?$AAe?$AA?9?$AAh?$AAo?$AAn?$AAg?$AAk?$AAo?$AAn?$AAg?$AA?$AA@ 1004103c     LIBCMT:getqloc.obj
 0002:00007060       ??_C@_1CG@IOBJPACO@?$AAc?$AAh?$AAi?$AAn?$AAe?$AAs?$AAe?$AA?9?$AAs?$AAi?$AAm?$AAp?$AAl?$AAi?$AAf?$AAi?$AAe?$AAd?$AA?$AA@ 10041060     LIBCMT:getqloc.obj
 0002:00007088       ??_C@_1CE@GAJNDCKG@?$AAc?$AAh?$AAi?$AAn?$AAe?$AAs?$AAe?$AA?9?$AAs?$AAi?$AAn?$AAg?$AAa?$AAp?$AAo?$AAr?$AAe?$AA?$AA@ 10041088     LIBCMT:getqloc.obj
 0002:000070ac       ??_C@_1CI@PAJPIOOD@?$AAc?$AAh?$AAi?$AAn?$AAe?$AAs?$AAe?$AA?9?$AAt?$AAr?$AAa?$AAd?$AAi?$AAt?$AAi?$AAo?$AAn?$AAa?$AAl?$AA?$AA@ 100410ac     LIBCMT:getqloc.obj
 0002:000070d4       ??_C@_1BM@NILJBMMD@?$AAd?$AAu?$AAt?$AAc?$AAh?$AA?9?$AAb?$AAe?$AAl?$AAg?$AAi?$AAa?$AAn?$AA?$AA@ 100410d4     LIBCMT:getqloc.obj
 0002:000070f0       ??_C@_1CC@OOJPJNEJ@?$AAe?$AAn?$AAg?$AAl?$AAi?$AAs?$AAh?$AA?9?$AAa?$AAm?$AAe?$AAr?$AAi?$AAc?$AAa?$AAn?$AA?$AA@ 100410f0     LIBCMT:getqloc.obj
 0002:00007114       ??_C@_1BI@IOLFEEM@?$AAe?$AAn?$AAg?$AAl?$AAi?$AAs?$AAh?$AA?9?$AAa?$AAu?$AAs?$AA?$AA@ 10041114     LIBCMT:getqloc.obj
 0002:0000712c       ??_C@_1BO@HFFNLENJ@?$AAe?$AAn?$AAg?$AAl?$AAi?$AAs?$AAh?$AA?9?$AAb?$AAe?$AAl?$AAi?$AAz?$AAe?$AA?$AA@ 1004112c     LIBCMT:getqloc.obj
 0002:0000714c       ??_C@_1BI@HAPKJMPO@?$AAe?$AAn?$AAg?$AAl?$AAi?$AAs?$AAh?$AA?9?$AAc?$AAa?$AAn?$AA?$AA@ 1004114c     LIBCMT:getqloc.obj
 0002:00007164       ??_C@_1CE@HLNDMIOJ@?$AAe?$AAn?$AAg?$AAl?$AAi?$AAs?$AAh?$AA?9?$AAc?$AAa?$AAr?$AAi?$AAb?$AAb?$AAe?$AAa?$AAn?$AA?$AA@ 10041164     LIBCMT:getqloc.obj
 0002:00007188       ??_C@_1BI@LDHJHHAC@?$AAe?$AAn?$AAg?$AAl?$AAi?$AAs?$AAh?$AA?9?$AAi?$AAr?$AAe?$AA?$AA@ 10041188     LIBCMT:getqloc.obj
 0002:000071a0       ??_C@_1CA@NJMMCFOC@?$AAe?$AAn?$AAg?$AAl?$AAi?$AAs?$AAh?$AA?9?$AAj?$AAa?$AAm?$AAa?$AAi?$AAc?$AAa?$AA?$AA@ 100411a0     LIBCMT:getqloc.obj
 0002:000071c0       ??_C@_1BG@BHJEBBGG@?$AAe?$AAn?$AAg?$AAl?$AAi?$AAs?$AAh?$AA?9?$AAn?$AAz?$AA?$AA@ 100411c0     LIBCMT:getqloc.obj
 0002:000071d8       ??_C@_1CK@FGOEJJCO@?$AAe?$AAn?$AAg?$AAl?$AAi?$AAs?$AAh?$AA?9?$AAs?$AAo?$AAu?$AAt?$AAh?$AA?5?$AAa?$AAf?$AAr?$AAi?$AAc?$AAa?$AA?$AA@ 100411d8     LIBCMT:getqloc.obj
 0002:00007204       ??_C@_1DE@PDBJPCJ@?$AAe?$AAn?$AAg?$AAl?$AAi?$AAs?$AAh?$AA?9?$AAt?$AAr?$AAi?$AAn?$AAi?$AAd?$AAa?$AAd?$AA?5?$AAy?$AA?5?$AAt?$AAo?$AAb?$AAa?$AAg?$AAo?$AA?$AA@ 10041204     LIBCMT:getqloc.obj
 0002:00007238       ??_C@_1BG@JGCANDME@?$AAe?$AAn?$AAg?$AAl?$AAi?$AAs?$AAh?$AA?9?$AAu?$AAk?$AA?$AA@ 10041238     LIBCMT:getqloc.obj
 0002:00007250       ??_C@_1BG@DINKMLE@?$AAe?$AAn?$AAg?$AAl?$AAi?$AAs?$AAh?$AA?9?$AAu?$AAs?$AA?$AA@ 10041250     LIBCMT:getqloc.obj
 0002:00007268       ??_C@_1BI@NMFDBHJE@?$AAe?$AAn?$AAg?$AAl?$AAi?$AAs?$AAh?$AA?9?$AAu?$AAs?$AAa?$AA?$AA@ 10041268     LIBCMT:getqloc.obj
 0002:00007280       ??_C@_1BO@OIHKJKII@?$AAf?$AAr?$AAe?$AAn?$AAc?$AAh?$AA?9?$AAb?$AAe?$AAl?$AAg?$AAi?$AAa?$AAn?$AA?$AA@ 10041280     LIBCMT:getqloc.obj
 0002:000072a0       ??_C@_1CA@NKAELJKI@?$AAf?$AAr?$AAe?$AAn?$AAc?$AAh?$AA?9?$AAc?$AAa?$AAn?$AAa?$AAd?$AAi?$AAa?$AAn?$AA?$AA@ 100412a0     LIBCMT:getqloc.obj
 0002:000072c0       ??_C@_1CE@MGKCNLGN@?$AAf?$AAr?$AAe?$AAn?$AAc?$AAh?$AA?9?$AAl?$AAu?$AAx?$AAe?$AAm?$AAb?$AAo?$AAu?$AAr?$AAg?$AA?$AA@ 100412c0     LIBCMT:getqloc.obj
 0002:000072e4       ??_C@_1BK@CEGEAILM@?$AAf?$AAr?$AAe?$AAn?$AAc?$AAh?$AA?9?$AAs?$AAw?$AAi?$AAs?$AAs?$AA?$AA@ 100412e4     LIBCMT:getqloc.obj
 0002:00007300       ??_C@_1CA@PAFKEOCC@?$AAg?$AAe?$AAr?$AAm?$AAa?$AAn?$AA?9?$AAa?$AAu?$AAs?$AAt?$AAr?$AAi?$AAa?$AAn?$AA?$AA@ 10041300     LIBCMT:getqloc.obj
 0002:00007320       ??_C@_1CI@HCFHGOFD@?$AAg?$AAe?$AAr?$AAm?$AAa?$AAn?$AA?9?$AAl?$AAi?$AAc?$AAh?$AAt?$AAe?$AAn?$AAs?$AAt?$AAe?$AAi?$AAn?$AA?$AA@ 10041320     LIBCMT:getqloc.obj
 0002:00007348       ??_C@_1CE@FEDDNPDG@?$AAg?$AAe?$AAr?$AAm?$AAa?$AAn?$AA?9?$AAl?$AAu?$AAx?$AAe?$AAm?$AAb?$AAo?$AAu?$AAr?$AAg?$AA?$AA@ 10041348     LIBCMT:getqloc.obj
 0002:0000736c       ??_C@_1BK@LIMINNMN@?$AAg?$AAe?$AAr?$AAm?$AAa?$AAn?$AA?9?$AAs?$AAw?$AAi?$AAs?$AAs?$AA?$AA@ 1004136c     LIBCMT:getqloc.obj
 0002:00007388       ??_C@_1BM@LGMDBEPD@?$AAi?$AAr?$AAi?$AAs?$AAh?$AA?9?$AAe?$AAn?$AAg?$AAl?$AAi?$AAs?$AAh?$AA?$AA@ 10041388     LIBCMT:getqloc.obj
 0002:000073a4       ??_C@_1BM@NNCFBAEE@?$AAi?$AAt?$AAa?$AAl?$AAi?$AAa?$AAn?$AA?9?$AAs?$AAw?$AAi?$AAs?$AAs?$AA?$AA@ 100413a4     LIBCMT:getqloc.obj
 0002:000073c0       ??_C@_1BE@FEDJNPIB@?$AAn?$AAo?$AAr?$AAw?$AAe?$AAg?$AAi?$AAa?$AAn?$AA?$AA@ 100413c0     LIBCMT:getqloc.obj
 0002:000073d4       ??_C@_1CC@CILKDEIE@?$AAn?$AAo?$AAr?$AAw?$AAe?$AAg?$AAi?$AAa?$AAn?$AA?9?$AAb?$AAo?$AAk?$AAm?$AAa?$AAl?$AA?$AA@ 100413d4     LIBCMT:getqloc.obj
 0002:000073f8       ??_C@_1CE@DHMMHEPL@?$AAn?$AAo?$AAr?$AAw?$AAe?$AAg?$AAi?$AAa?$AAn?$AA?9?$AAn?$AAy?$AAn?$AAo?$AAr?$AAs?$AAk?$AA?$AA@ 100413f8     LIBCMT:getqloc.obj
 0002:0000741c       ??_C@_1CK@OPNMHECD@?$AAp?$AAo?$AAr?$AAt?$AAu?$AAg?$AAu?$AAe?$AAs?$AAe?$AA?9?$AAb?$AAr?$AAa?$AAz?$AAi?$AAl?$AAi?$AAa?$AAn?$AA?$AA@ 1004141c     LIBCMT:getqloc.obj
 0002:00007448       ??_C@_1CE@KEEHCDB@?$AAs?$AAp?$AAa?$AAn?$AAi?$AAs?$AAh?$AA?9?$AAa?$AAr?$AAg?$AAe?$AAn?$AAt?$AAi?$AAn?$AAa?$AA?$AA@ 10041448     LIBCMT:getqloc.obj
 0002:0000746c       ??_C@_1CA@GIAOLHJD@?$AAs?$AAp?$AAa?$AAn?$AAi?$AAs?$AAh?$AA?9?$AAb?$AAo?$AAl?$AAi?$AAv?$AAi?$AAa?$AA?$AA@ 1004146c     LIBCMT:getqloc.obj
 0002:0000748c       ??_C@_1BM@OJNDFNPD@?$AAs?$AAp?$AAa?$AAn?$AAi?$AAs?$AAh?$AA?9?$AAc?$AAh?$AAi?$AAl?$AAe?$AA?$AA@ 1004148c     LIBCMT:getqloc.obj
 0002:000074a8       ??_C@_1CC@OCOLPALL@?$AAs?$AAp?$AAa?$AAn?$AAi?$AAs?$AAh?$AA?9?$AAc?$AAo?$AAl?$AAo?$AAm?$AAb?$AAi?$AAa?$AA?$AA@ 100414a8     LIBCMT:getqloc.obj
 0002:000074cc       ??_C@_1CG@BPOFMKBB@?$AAs?$AAp?$AAa?$AAn?$AAi?$AAs?$AAh?$AA?9?$AAc?$AAo?$AAs?$AAt?$AAa?$AA?5?$AAr?$AAi?$AAc?$AAa?$AA?$AA@ 100414cc     LIBCMT:getqloc.obj
 0002:000074f4       ??_C@_1DG@IGOBAPBB@?$AAs?$AAp?$AAa?$AAn?$AAi?$AAs?$AAh?$AA?9?$AAd?$AAo?$AAm?$AAi?$AAn?$AAi?$AAc?$AAa?$AAn?$AA?5?$AAr?$AAe?$AAp?$AAu?$AAb?$AAl?$AAi?$AAc?$AA?$AA@ 100414f4     LIBCMT:getqloc.obj
 0002:0000752c       ??_C@_1CA@JHAPGEGI@?$AAs?$AAp?$AAa?$AAn?$AAi?$AAs?$AAh?$AA?9?$AAe?$AAc?$AAu?$AAa?$AAd?$AAo?$AAr?$AA?$AA@ 1004152c     LIBCMT:getqloc.obj
 0002:0000754c       ??_C@_1CI@LAPALJPP@?$AAs?$AAp?$AAa?$AAn?$AAi?$AAs?$AAh?$AA?9?$AAe?$AAl?$AA?5?$AAs?$AAa?$AAl?$AAv?$AAa?$AAd?$AAo?$AAr?$AA?$AA@ 1004154c     LIBCMT:getqloc.obj
 0002:00007574       ??_C@_1CE@PDGBOFOM@?$AAs?$AAp?$AAa?$AAn?$AAi?$AAs?$AAh?$AA?9?$AAg?$AAu?$AAa?$AAt?$AAe?$AAm?$AAa?$AAl?$AAa?$AA?$AA@ 10041574     LIBCMT:getqloc.obj
 0002:00007598       ??_C@_1CC@NBEBAODI@?$AAs?$AAp?$AAa?$AAn?$AAi?$AAs?$AAh?$AA?9?$AAh?$AAo?$AAn?$AAd?$AAu?$AAr?$AAa?$AAs?$AA?$AA@ 10041598     LIBCMT:getqloc.obj
 0002:000075bc       ??_C@_1CA@LLKGHBMF@?$AAs?$AAp?$AAa?$AAn?$AAi?$AAs?$AAh?$AA?9?$AAm?$AAe?$AAx?$AAi?$AAc?$AAa?$AAn?$AA?$AA@ 100415bc     LIBCMT:getqloc.obj
 0002:000075dc       ??_C@_1BO@LKNDOIGD@?$AAs?$AAp?$AAa?$AAn?$AAi?$AAs?$AAh?$AA?9?$AAm?$AAo?$AAd?$AAe?$AAr?$AAn?$AA?$AA@ 100415dc     LIBCMT:getqloc.obj
 0002:000075fc       ??_C@_1CE@NMDMOEEB@?$AAs?$AAp?$AAa?$AAn?$AAi?$AAs?$AAh?$AA?9?$AAn?$AAi?$AAc?$AAa?$AAr?$AAa?$AAg?$AAu?$AAa?$AA?$AA@ 100415fc     LIBCMT:getqloc.obj
 0002:00007620       ??_C@_1BO@LLCBEJGB@?$AAs?$AAp?$AAa?$AAn?$AAi?$AAs?$AAh?$AA?9?$AAp?$AAa?$AAn?$AAa?$AAm?$AAa?$AA?$AA@ 10041620     LIBCMT:getqloc.obj
 0002:00007640       ??_C@_1CC@FKPGGIHO@?$AAs?$AAp?$AAa?$AAn?$AAi?$AAs?$AAh?$AA?9?$AAp?$AAa?$AAr?$AAa?$AAg?$AAu?$AAa?$AAy?$AA?$AA@ 10041640     LIBCMT:getqloc.obj
 0002:00007664       ??_C@_1BK@CDEIHOOP@?$AAs?$AAp?$AAa?$AAn?$AAi?$AAs?$AAh?$AA?9?$AAp?$AAe?$AAr?$AAu?$AA?$AA@ 10041664     LIBCMT:getqloc.obj
 0002:00007680       ??_C@_1CI@GAHAKKGP@?$AAs?$AAp?$AAa?$AAn?$AAi?$AAs?$AAh?$AA?9?$AAp?$AAu?$AAe?$AAr?$AAt?$AAo?$AA?5?$AAr?$AAi?$AAc?$AAo?$AA?$AA@ 10041680     LIBCMT:getqloc.obj
 0002:000076a8       ??_C@_1CA@NKJBCAGP@?$AAs?$AAp?$AAa?$AAn?$AAi?$AAs?$AAh?$AA?9?$AAu?$AAr?$AAu?$AAg?$AAu?$AAa?$AAy?$AA?$AA@ 100416a8     LIBCMT:getqloc.obj
 0002:000076c8       ??_C@_1CE@ODILCONM@?$AAs?$AAp?$AAa?$AAn?$AAi?$AAs?$AAh?$AA?9?$AAv?$AAe?$AAn?$AAe?$AAz?$AAu?$AAe?$AAl?$AAa?$AA?$AA@ 100416c8     LIBCMT:getqloc.obj
 0002:000076ec       ??_C@_1CA@OBNMCGFO@?$AAs?$AAw?$AAe?$AAd?$AAi?$AAs?$AAh?$AA?9?$AAf?$AAi?$AAn?$AAl?$AAa?$AAn?$AAd?$AA?$AA@ 100416ec     LIBCMT:getqloc.obj
 0002:0000770c       ??_C@_1M@PIPDDPPI@?$AAs?$AAw?$AAi?$AAs?$AAs?$AA?$AA@ 1004170c     LIBCMT:getqloc.obj
 0002:00007718       ??_C@_15PJPFLCCM@?$AAu?$AAk?$AA?$AA@ 10041718     LIBCMT:getqloc.obj
 0002:00007720       ??_C@_15GMFIMNFM@?$AAu?$AAs?$AA?$AA@ 10041720     LIBCMT:getqloc.obj
 0002:00007728       ??_C@_17HAEBFAGL@?$AAu?$AAs?$AAa?$AA?$AA@ 10041728     LIBCMT:getqloc.obj
 0002:00007730       ___rg_country              10041730     LIBCMT:getqloc.obj
 0002:00007844       ??_C@_1BA@DPFJEPHB@?$AAa?$AAm?$AAe?$AAr?$AAi?$AAc?$AAa?$AA?$AA@ 10041844     LIBCMT:getqloc.obj
 0002:00007854       ??_C@_1BA@ELOGGFK@?$AAb?$AAr?$AAi?$AAt?$AAa?$AAi?$AAn?$AA?$AA@ 10041854     LIBCMT:getqloc.obj
 0002:00007864       ??_C@_1M@GHBGIGDA@?$AAc?$AAh?$AAi?$AAn?$AAa?$AA?$AA@ 10041864     LIBCMT:getqloc.obj
 0002:00007870       ??_C@_1M@NCHEJOPO@?$AAc?$AAz?$AAe?$AAc?$AAh?$AA?$AA@ 10041870     LIBCMT:getqloc.obj
 0002:0000787c       ??_C@_1BA@BKPAPBLA@?$AAe?$AAn?$AAg?$AAl?$AAa?$AAn?$AAd?$AA?$AA@ 1004187c     LIBCMT:getqloc.obj
 0002:0000788c       ??_C@_1BM@HKBCKIPC@?$AAg?$AAr?$AAe?$AAa?$AAt?$AA?5?$AAb?$AAr?$AAi?$AAt?$AAa?$AAi?$AAn?$AA?$AA@ 1004188c     LIBCMT:getqloc.obj
 0002:000078a8       ??_C@_1BA@PPCHPGJB@?$AAh?$AAo?$AAl?$AAl?$AAa?$AAn?$AAd?$AA?$AA@ 100418a8     LIBCMT:getqloc.obj
 0002:000078b8       ??_C@_1BE@JBMPEGDG@?$AAh?$AAo?$AAn?$AAg?$AA?9?$AAk?$AAo?$AAn?$AAg?$AA?$AA@ 100418b8     LIBCMT:getqloc.obj
 0002:000078cc       ??_C@_1BI@KOELBBPJ@?$AAn?$AAe?$AAw?$AA?9?$AAz?$AAe?$AAa?$AAl?$AAa?$AAn?$AAd?$AA?$AA@ 100418cc     LIBCMT:getqloc.obj
 0002:000078e4       ??_C@_15HIEBHAIO@?$AAn?$AAz?$AA?$AA@ 100418e4     LIBCMT:getqloc.obj
 0002:000078ec       ??_C@_1BC@CHBCPFPI@?$AAp?$AAr?$AA?5?$AAc?$AAh?$AAi?$AAn?$AAa?$AA?$AA@ 100418ec     LIBCMT:getqloc.obj
 0002:00007900       ??_C@_1BC@JAOIIFKD@?$AAp?$AAr?$AA?9?$AAc?$AAh?$AAi?$AAn?$AAa?$AA?$AA@ 10041900     LIBCMT:getqloc.obj
 0002:00007914       ??_C@_1BI@BEHPPHKC@?$AAp?$AAu?$AAe?$AAr?$AAt?$AAo?$AA?9?$AAr?$AAi?$AAc?$AAo?$AA?$AA@ 10041914     LIBCMT:getqloc.obj
 0002:0000792c       ??_C@_1O@PAEOFKDI@?$AAs?$AAl?$AAo?$AAv?$AAa?$AAk?$AA?$AA@ 1004192c     LIBCMT:getqloc.obj
 0002:0000793c       ??_C@_1BK@FIHMCKAM@?$AAs?$AAo?$AAu?$AAt?$AAh?$AA?5?$AAa?$AAf?$AAr?$AAi?$AAc?$AAa?$AA?$AA@ 1004193c     LIBCMT:getqloc.obj
 0002:00007958       ??_C@_1BI@NAEOODKB@?$AAs?$AAo?$AAu?$AAt?$AAh?$AA?5?$AAk?$AAo?$AAr?$AAe?$AAa?$AA?$AA@ 10041958     LIBCMT:getqloc.obj
 0002:00007970       ??_C@_1BK@FBDGGIFF@?$AAs?$AAo?$AAu?$AAt?$AAh?$AA?9?$AAa?$AAf?$AAr?$AAi?$AAc?$AAa?$AA?$AA@ 10041970     LIBCMT:getqloc.obj
 0002:0000798c       ??_C@_1BI@GHLEJDPK@?$AAs?$AAo?$AAu?$AAt?$AAh?$AA?9?$AAk?$AAo?$AAr?$AAe?$AAa?$AA?$AA@ 1004198c     LIBCMT:getqloc.obj
 0002:000079a4       ??_C@_1CE@PLHLOMJF@?$AAt?$AAr?$AAi?$AAn?$AAi?$AAd?$AAa?$AAd?$AA?5?$AA?$CG?$AA?5?$AAt?$AAo?$AAb?$AAa?$AAg?$AAo?$AA?$AA@ 100419a4     LIBCMT:getqloc.obj
 0002:000079c8       ??_C@_1BO@MODIMHHI@?$AAu?$AAn?$AAi?$AAt?$AAe?$AAd?$AA?9?$AAk?$AAi?$AAn?$AAg?$AAd?$AAo?$AAm?$AA?$AA@ 100419c8     LIBCMT:getqloc.obj
 0002:000079e8       ??_C@_1BM@FFHJONBJ@?$AAu?$AAn?$AAi?$AAt?$AAe?$AAd?$AA?9?$AAs?$AAt?$AAa?$AAt?$AAe?$AAs?$AA?$AA@ 100419e8     LIBCMT:getqloc.obj
 0002:00007a04       ??_C@_17DNCLJFIF@?$AAA?$AAC?$AAP?$AA?$AA@ 10041a04     LIBCMT:getqloc.obj
 0002:00007a0c       ??_C@_17CIKBIHLH@?$AAO?$AAC?$AAP?$AA?$AA@ 10041a0c     LIBCMT:getqloc.obj
 0002:00007a18       __load_config_used         10041a18     LIBCMT:loadcfg.obj
 0002:000089c0       ___safe_se_handler_table   100429c0     <linker-defined>
 0002:00008ad0       ___rtc_iaa                 10042ad0     LIBCMT:initsect.obj
 0002:00008bd4       ___rtc_izz                 10042bd4     LIBCMT:initsect.obj
 0002:00008cd8       ___rtc_taa                 10042cd8     LIBCMT:initsect.obj
 0002:00008ddc       ___rtc_tzz                 10042ddc     LIBCMT:initsect.obj
 0003:000001d0       _pci1756_P                 100441d0     pci1756_data.obj
 0003:00000440       _pci20041digout            10044440     xpctarget.obj
 0003:00000444       _nipcdio24cnfg             10044444     xpctarget.obj
 0003:00000448       _rtddm6604cnfg             10044448     xpctarget.obj
 0003:0000047c       _DefaultCOMIOBase          1004447c     xpcruntime:xpcimports.obj
 0003:0000048c       _DefaultCOMIRQ             1004448c     xpcruntime:xpcimports.obj
 0003:000004a0       __fltused                  100444a0     LIBCMT:fpinit.obj
 0003:000004a4       __ldused                   100444a4     LIBCMT:fpinit.obj
 0003:000004b0       __iob                      100444b0     LIBCMT:_file.obj
 0003:00000730       ___isa_enabled             10044730     LIBCMT:cpu_disp.obj
 0003:00000734       ___security_cookie         10044734     LIBCMT:gs_cookie.obj
 0003:00000738       ___security_cookie_complement 10044738     LIBCMT:gs_cookie.obj
 0003:00000910       __cfltcvt_tab              10044910     LIBCMT:cmiscdat.obj
 0003:00000a64       ___ptmbcinfo               10044a64     LIBCMT:mbctype.obj
 0003:00000b58       __mbctype                  10044b58     LIBCMT:mbctype.obj
 0003:00000c60       __mbcasemap                10044c60     LIBCMT:mbctype.obj
 0003:00000d60       ___initialmbcinfo          10044d60     LIBCMT:mbctype.obj
 0003:00000f80       ___nullstring              10044f80     LIBCMT:output.obj
 0003:00000f84       ___wnullstring             10044f84     LIBCMT:output.obj
 0003:00000f88       ___badioinfo               10044f88     LIBCMT:ioinit.obj
 0003:00000fc8       __lookuptrailbytes         10044fc8     LIBCMT:read.obj
 0003:000010c8       __d_inf                    100450c8     LIBCMT:util.obj
 0003:000010d0       __d_ind                    100450d0     LIBCMT:util.obj
 0003:000010d8       __d_max                    100450d8     LIBCMT:util.obj
 0003:000010e0       __d_min                    100450e0     LIBCMT:util.obj
 0003:000010e8       __d_mzero                  100450e8     LIBCMT:util.obj
 0003:000011f4       ___abort_behavior          100451f4     LIBCMT:abort.obj
 0003:000011f8       ___flsindex                100451f8     LIBCMT:tidtable.obj
 0003:00001200       ___wclocalestr             10045200     LIBCMT:nlsdata.obj
 0003:00001208       ___lc_time_c               10045208     LIBCMT:nlsdata.obj
 0003:0000136c       ___ptlocinfo               1004536c     LIBCMT:nlsdata.obj
 0003:00001370       ___initiallocinfo          10045370     LIBCMT:nlsdata.obj
 0003:00001428       ___initiallocalestructinfo 10045428     LIBCMT:nlsdata.obj
 0003:00001430       ___mb_cur_max              10045430     LIBCMT:nlsdata.obj
 0003:00001434       ___globallocalestatus      10045434     LIBCMT:glstatus.obj
 0003:00001440       __NLG_Destination          10045440     LIBCMT:exsup.obj
 0003:00001450       __matherr_flag             10045450     LIBCMT:matherr.obj
 0003:00001458       ___lconv                   10045458     LIBCMT:lconv.obj
 0003:0000145c       ___lconv_static_decimal    1004545c     LIBCMT:lconv.obj
 0003:00001460       ___lconv_c                 10045460     LIBCMT:lconv.obj
 0003:000014b0       ___lconv_static_W_decimal  100454b0     LIBCMT:lconv.obj
 0003:000014e8       __pctype                   100454e8     LIBCMT:ctype.obj
 0003:000014ec       __pwctype                  100454ec     LIBCMT:ctype.obj
 0003:000014f0       __confh                    100454f0     LIBCMT:initcon.obj
 0003:000014f8       __pow10pos                 100454f8     LIBCMT:constpow.obj
 0003:00001658       __pow10neg                 10045658     LIBCMT:constpow.obj
 0003:00001cfc       ___isa_available_default   10045cfc     rt_logging.obj
 0003:00001d0c       _xmlsize                   10045d0c     xpctarget.obj
 0003:00001d10       _pci20098PortA             10045d10     xpctarget.obj
 0003:00001d14       _pci20098PortB             10045d14     xpctarget.obj
 0003:00001d18       _siepowercan_firmware_initialized 10045d18     xpctarget.obj
 0003:00001d1c       _siepowercan_port1_configured 10045d1c     xpctarget.obj
 0003:00001d20       _siepowercan_port2_configured 10045d20     xpctarget.obj
 0003:00001d24       _CANAC2_FIRMWARE_LOADED    10045d24     xpctarget.obj
 0003:00001d28       _rs232ports                10045d28     xpctarget.obj
 0003:00001d38       _NI_AT_MIO_16F_5_commreg2  10045d38     xpctarget.obj
 0003:00001d3c       _RTD_DM6430_init           10045d3c     xpctarget.obj
 0003:00001d40       _RTD_DM6420_init           10045d40     xpctarget.obj
 0003:00001d44       _CANAC2_FIRMWARE_LOADED_mb1 10045d44     xpctarget.obj
 0003:00001d48       _CANAC2_FIRMWARE_LOADED_mb2 10045d48     xpctarget.obj
 0003:00001d4c       _CANAC2_FIRMWARE_LOADED_mb3 10045d4c     xpctarget.obj
 0003:00001e9c       ___fastflag                10045e9c     LIBCMT:fpinit.obj
 0003:000021c0       __C_Exit_Done              100461c0     LIBCMT:crt0dat.obj
 0003:000021c4       ___argc                    100461c4     LIBCMT:crt0dat.obj
 0003:000021c8       ___argv                    100461c8     LIBCMT:crt0dat.obj
 0003:000021cc       ___wargv                   100461cc     LIBCMT:crt0dat.obj
 0003:000021d0       __environ                  100461d0     LIBCMT:crt0dat.obj
 0003:000021d4       __wenviron                 100461d4     LIBCMT:crt0dat.obj
 0003:000021d8       __pgmptr                   100461d8     LIBCMT:crt0dat.obj
 0003:000021dc       __wpgmptr                  100461dc     LIBCMT:crt0dat.obj
 0003:000021e0       __umaskval                 100461e0     LIBCMT:crt0dat.obj
 0003:000021e4       __exitflag                 100461e4     LIBCMT:crt0dat.obj
 0003:000021e8       __C_Termination_Done       100461e8     LIBCMT:crt0dat.obj
 0003:000021ec       ___winitenv                100461ec     LIBCMT:crt0dat.obj
 0003:000021f0       ___initenv                 100461f0     LIBCMT:crt0dat.obj
 0003:000021f4       __cflush                   100461f4     LIBCMT:_file.obj
 0003:000021fc       ___isa_available           100461fc     LIBCMT:cpu_disp.obj
 0003:00002200       ___favor                   10046200     LIBCMT:cpu_disp.obj
 0003:00002204       __aenvptr                  10046204     LIBCMT:dllcrt0.obj
 0003:00002208       __wenvptr                  10046208     LIBCMT:dllcrt0.obj
 0003:00002210       ?_pnhHeap@@3P6AHI@ZA       10046210     LIBCMT:handler.obj
 0003:00002218       ___app_type                10046218     LIBCMT:crt0msg.obj
 0003:00002848       __newmode                  10046848     LIBCMT:_newmode.obj
 0003:0000284c       __crtheap                  1004684c     LIBCMT:heapinit.obj
 0003:00002850       ___pInvalidArgHandler      10046850     LIBCMT:invarg.obj
 0003:000029a8       __maxwait                  100469a8     LIBCMT:crtheap.obj
 0003:000029ac       ?__pInconsistency@@3P6AXXZA 100469ac     LIBCMT:hooks.obj
 0003:000029b0       ___pPurecall               100469b0     LIBCMT:inithelp.obj
 0003:000029cc       ___mblocalename            100469cc     LIBCMT:mbctype.obj
 0003:000029d0       ___mbcodepage              100469d0     LIBCMT:mbctype.obj
 0003:000029d4       ___ismbcodepage            100469d4     LIBCMT:mbctype.obj
 0003:000029d8       ___mbulinfo                100469d8     LIBCMT:mbctype.obj
 0003:000029e8       __stdbuf                   100469e8     LIBCMT:_sftbuf.obj
 0003:000029f0       ___ioInitOnce              100469f0     LIBCMT:ioinit.obj
 0003:000029f4       ___error_mode              100469f4     LIBCMT:errmode.obj
 0003:00002b18       __outputformat             10046b18     LIBCMT:outputformat.obj
 0003:00002b1c       __commode                  10046b1c     LIBCMT:ncommode.obj
 0003:00002b20       ___lconv_static_null       10046b20     LIBCMT:lconv.obj
 0003:00002b24       ___lconv_static_W_null     10046b24     LIBCMT:lconv.obj
 0003:00002b28       ___locale_changed          10046b28     LIBCMT:wsetloca.obj
 0003:00002b2c       __fmode                    10046b2c     LIBCMT:txtmode.obj
 0003:00002b40       _CANAC2_2_receiveindex_mb3 10046b40     <common>
 0003:00005c14       _CANAC2_2_receivemaxindex_mb3 10049c14     <common>
 0003:00005c20       _CANAC2_2_sendindex_mb3    10049c20     <common>
 0003:00005f40       _CANAC2_2_sendmaxindex_mb3 10049f40     <common>
 0003:00005f60       _CANAC2_1_receiveindex_mb3 10049f60     <common>
 0003:00006280       _CANAC2_1_receivemaxindex_mb3 1004a280     <common>
 0003:000062a0       _CANAC2_1_sendindex_mb3    1004a2a0     <common>
 0003:000065c0       _CANAC2_1_sendmaxindex_mb3 1004a5c0     <common>
 0003:000065e0       _CANAC2_2_receive_mb3      1004a5e0     <common>
 0003:00006900       _CANAC2_2_send_mb3         1004a900     <common>
 0003:00006c20       _CANAC2_1_receive_mb3      1004ac20     <common>
 0003:00006f40       _CANAC2_1_send_mb3         1004af40     <common>
 0003:00007260       _CANAC2_2_receiveindex_mb2 1004b260     <common>
 0003:00007580       _CANAC2_2_receivemaxindex_mb2 1004b580     <common>
 0003:000075a0       _CANAC2_2_sendindex_mb2    1004b5a0     <common>
 0003:000078c0       _CANAC2_2_sendmaxindex_mb2 1004b8c0     <common>
 0003:000078e0       _CANAC2_1_receiveindex_mb2 1004b8e0     <common>
 0003:00007c00       _CANAC2_1_receivemaxindex_mb2 1004bc00     <common>
 0003:00007c20       _CANAC2_1_sendindex_mb2    1004bc20     <common>
 0003:00007f40       _CANAC2_1_sendmaxindex_mb2 1004bf40     <common>
 0003:00007f60       _CANAC2_2_receive_mb2      1004bf60     <common>
 0003:00008280       _CANAC2_2_send_mb2         1004c280     <common>
 0003:000085a0       _CANAC2_1_receive_mb2      1004c5a0     <common>
 0003:000088c0       _CANAC2_1_send_mb2         1004c8c0     <common>
 0003:00008be0       _CANAC2_2_receiveindex_mb1 1004cbe0     <common>
 0003:00008f00       _CANAC2_2_receivemaxindex_mb1 1004cf00     <common>
 0003:00008f20       _CANAC2_2_sendindex_mb1    1004cf20     <common>
 0003:00009240       _CANAC2_2_sendmaxindex_mb1 1004d240     <common>
 0003:00009260       _CANAC2_1_receiveindex_mb1 1004d260     <common>
 0003:00009580       _CANAC2_1_receivemaxindex_mb1 1004d580     <common>
 0003:000095a0       _CANAC2_1_sendindex_mb1    1004d5a0     <common>
 0003:000098c0       _CANAC2_1_sendmaxindex_mb1 1004d8c0     <common>
 0003:000098e0       _CANAC2_2_receive_mb1      1004d8e0     <common>
 0003:00009c00       _CANAC2_2_send_mb1         1004dc00     <common>
 0003:00009f20       _CANAC2_1_receive_mb1      1004df20     <common>
 0003:0000a240       _CANAC2_1_send_mb1         1004e240     <common>
 0003:0000a560       _CANAC2_2_receiveindex     1004e560     <common>
 0003:0000a880       _CANAC2_2_receivemaxindex  1004e880     <common>
 0003:0000a8a0       _CANAC2_2_sendindex        1004e8a0     <common>
 0003:0000abc0       _CANAC2_2_sendmaxindex     1004ebc0     <common>
 0003:0000abe0       _CANAC2_1_receiveindex     1004ebe0     <common>
 0003:0000af00       _CANAC2_1_receivemaxindex  1004ef00     <common>
 0003:0000af20       _CANAC2_1_sendindex        1004ef20     <common>
 0003:0000b240       _CANAC2_1_sendmaxindex     1004f240     <common>
 0003:0000b260       _CANAC2_2_receive          1004f260     <common>
 0003:0000b580       _CANAC2_2_send             1004f580     <common>
 0003:0000b8a0       _CANAC2_1_receive          1004f8a0     <common>
 0003:0000bbc0       _CANAC2_1_send             1004fbc0     <common>
 0003:0000bee0       _siepowercan_can_object_buffer_port2 1004fee0     <common>
 0003:0000ff00       _siepowercan_can_object_buffer_port1 10053f00     <common>
 0003:00013f00       _rtNaNF                    10057f00     <common>
 0003:00013f14       _rtMinusInfF               10057f14     <common>
 0003:00013f18       _rtInfF                    10057f18     <common>
 0003:00013f20       _rtNaN                     10057f20     <common>
 0003:00013f28       _rtMinusInf                10057f28     <common>
 0003:00013f30       _rtInf                     10057f30     <common>
 0003:00013f40       _pci1756_M_                10057f40     <common>
 0003:00015280       _pci1756_DW                10059280     <common>
 0003:000152a0       _pci1756_B                 100592a0     <common>
 0003:00015520       _socket                    10059520     <common>
 0003:00015580       _inet_addr                 10059580     <common>
 0003:00015584       _sendto                    10059584     <common>
 0003:00015588       _recvfrom                  10059588     <common>
 0003:0001558c       _listen                    1005958c     <common>
 0003:00015590       _ioctlsocket               10059590     <common>
 0003:00015594       _connect                   10059594     <common>
 0003:00015598       _closesocket               10059598     <common>
 0003:0001559c       _setsockopt                1005959c     <common>
 0003:000155a0       _bind                      100595a0     <common>
 0003:000155a4       _accept                    100595a4     <common>
 0003:000155a8       _GetHostTarIPAdd           100595a8     <common>
 0003:000155ac       _GetDCUUsage               100595ac     <common>
 0003:000155b0       _DeleteRoute               100595b0     <common>
 0003:000155b4       _AddGatewayRoute           100595b4     <common>
 0003:000155b8       _SetIP                     100595b8     <common>
 0003:000155bc       _CloseInterface            100595bc     <common>
 0003:000155c0       _OpenInterface             100595c0     <common>
 0003:000155c4       _SetIPTASKPriority         100595c4     <common>
 0003:000155c8       _isUsedByRTIP              100595c8     <common>
 0003:000155cc       _getlasterror              100595cc     <common>
 0003:000155d0       _slrtfsGetFileStatus       100595d0     <common>
 0003:000155d4       _slrtfsOpenFileAsync       100595d4     <common>
 0003:000155d8       _slrtfsCloseFileAsync      100595d8     <common>
 0003:000155dc       _slrtfsGetFileErrorMessage 100595dc     <common>
 0003:000155e0       _slrtfsGetFileError        100595e0     <common>
 0003:000155e4       _slrtfsWriteToFile         100595e4     <common>
 0003:000155e8       _slrtfsCloseFile           100595e8     <common>
 0003:000155ec       _slrtfsOpenFile            100595ec     <common>
 0003:000155f0       _slrtGetSgCRBSpace         100595f0     <common>
 0003:000155f4       _slrtGetCRBScratchSpace    100595f4     <common>
 0003:000155f8       _slrteSetupMSI             100595f8     <common>
 0003:000155fc       _slTestRegAssessment       100595fc     <common>
 0003:00015600       _slTestTerminate           10059600     <common>
 0003:00015604       _slTestEvalOnFail          10059604     <common>
 0003:00015608       _slTestLogAssessments      10059608     <common>
 0003:0001560c       _slTestInitialize          1005960c     <common>
 0003:00015610       _unRegisterPTPTimeRead     10059610     <common>
 0003:00015614       _registerPTPTimeRead       10059614     <common>
 0003:00015618       _slrteGetCurrentStepSize   10059618     <common>
 0003:0001561c       _slrteSetStepSizeDelta     1005961c     <common>
 0003:00015620       _xpceGetIntTimerGranularityNS 10059620     <common>
 0003:00015624       _sendToAsyncQueueTgtAppSvc 10059624     <common>
 0003:00015628       _terminateToAsyncQueueTgtAppSvc 10059628     <common>
 0003:0001562c       _startToAsyncQueueTgtAppSvc 1005962c     <common>
 0003:00015630       _getStatusFlags            10059630     <common>
 0003:00015634       _getCommService            10059634     <common>
 0003:00015638       _getMemoryService          10059638     <common>
 0003:0001563c       _StreamVideo               1005963c     <common>
 0003:00015640       _StopVideoDisplay          10059640     <common>
 0003:00015644       _StartVideoDisplay         10059644     <common>
 0003:00015648       _DestroyVideoDisplay       10059648     <common>
 0003:0001564c       _CreateVideoDisplay        1005964c     <common>
 0003:00015650       _ConvertUImage             10059650     <common>
 0003:00015654       _StopVideo                 10059654     <common>
 0003:00015658       _ReadFrameBuffer           10059658     <common>
 0003:0001565c       _StartVideo                1005965c     <common>
 0003:00015660       _GetVideoConfigs           10059660     <common>
 0003:00015664       _FindUsbVideoDevice        10059664     <common>
 0003:00015668       _xpceDeleteSemaphore       10059668     <common>
 0003:0001566c       _xpceSignalSemaphore       1005966c     <common>
 0003:00015670       _xpceWaitSemaphore         10059670     <common>
 0003:00015674       _xpceCreateSemaphore       10059674     <common>
 0003:00015678       _TBGiveSpinFast            10059678     <common>
 0003:0001567c       _TBTakeSpinFast            1005967c     <common>
 0003:00015680       _TBDeleteSpin              10059680     <common>
 0003:00015684       _TBCreateSpin              10059684     <common>
 0003:00015688       _xpceScopeAcqOK            10059688     <common>
 0003:0001568c       _rl32eRestartAcquisition   1005968c     <common>
 0003:00015690       _rl32eSetTargetScopeSigFt  10059690     <common>
 0003:00015694       _rl32eSetTargetScope       10059694     <common>
 0003:00015698       _xpceFSScopeSet            10059698     <common>
 0003:0001569c       _rl32eSetScope             1005969c     <common>
 0003:000156a0       _rl32eAddSignal            100596a0     <common>
 0003:000156a4       _rl32eGetSignalNo          100596a4     <common>
 0003:000156a8       _rl32eDefScope             100596a8     <common>
 0003:000156ac       _rl32eScopeExists          100596ac     <common>
 0003:000156b0       _xpceGetParamDims          100596b0     <common>
 0003:000156b4       _xpceGetParameter          100596b4     <common>
 0003:000156b8       _xpceSetParameter          100596b8     <common>
 0003:000156bc       _xpceGetSignalValue        100596bc     <common>
 0003:000156c0       _xpceAssignPCIInterrupt    100596c0     <common>
 0003:000156c4       _rl32eGetPCIInfoAtSlot     100596c4     <common>
 0003:000156c8       _rl32eGetPCIInfo           100596c8     <common>
 0003:000156cc       _rl32eShowPCIInfo          100596cc     <common>
 0003:000156d0       _rl32eShowPCIDev           100596d0     <common>
 0003:000156d4       _xpceGetTET                100596d4     <common>
 0003:000156d8       _xpceaddEvent              100596d8     <common>
 0003:000156dc       _xpceDeRegisterISR         100596dc     <common>
 0003:000156e0       _xpceRegisterISR           100596e0     <common>
 0003:000156e4       _xpcIsModelInit            100596e4     <common>
 0003:000156e8       _xpcGetElapsedTime         100596e8     <common>
 0003:000156ec       _xpcBusyWait               100596ec     <common>
 0003:000156f0       _xpcFreePhysicalMemory     100596f0     <common>
 0003:000156f4       _xpcAllocPhysicalMemory    100596f4     <common>
 0003:000156f8       _xpcReserveMemoryRegion    100596f8     <common>
 0003:000156fc       _xpcOutpB                  100596fc     <common>
 0003:00015700       _xpcOutpW                  10059700     <common>
 0003:00015704       _xpcOutpDW                 10059704     <common>
 0003:00015708       _xpcInpB                   10059708     <common>
 0003:0001570c       _xpcInpW                   1005970c     <common>
 0003:00015710       _xpcInpDW                  10059710     <common>
 0003:00015714       ___unguarded_readlc_active 10059714     <common>
 0003:00015724       ___setlc_active            10059724     <common>
 0003:00015728       __nhandle                  10059728     <common>
 0003:00015780       ___pioinfo                 10059780     <common>
 0003:00015880       __pDestructExceptionObject 10059880     <common>
 0003:0001588c       __debugger_hook_dummy      1005988c     <common>
 0003:00015898       __acmdln                   10059898     <common>
 0003:000158a4       ___piob                    100598a4     <common>
 0003:00015be4       __nstream                  10059be4     <common>
 0003:00015c00       __bufin                    10059c00     <common>
 0003:00016c00       ___dyn_tls_init_callback   1005ac00     <common>
 0003:00016c10       ___onexitend               1005ac10     <common>
 0003:00016c14       ___onexitbegin             1005ac14     <common>
 0003:00016c18       ___mbctype_initialized     1005ac18     <common>
 0003:00016c1c       ___env_initialized         1005ac1c     <common>
 0004:00000000       __IMPORT_DESCRIPTOR_KERNEL32 1005b000     kernel32:KERNEL32.dll
 0004:00000014       __NULL_IMPORT_DESCRIPTOR   1005b014     kernel32:KERNEL32.dll
 0004:000001e4       __imp__GetModuleHandleA@4  1005b1e4     kernel32:KERNEL32.dll
 0004:000001e8       __imp__GetProcAddress@8    1005b1e8     kernel32:KERNEL32.dll
 0004:000001ec       __imp__HeapAlloc@12        1005b1ec     kernel32:KERNEL32.dll
 0004:000001f0       __imp__IsDebuggerPresent@0 1005b1f0     kernel32:KERNEL32.dll
 0004:000001f4       __imp__IsProcessorFeaturePresent@4 1005b1f4     kernel32:KERNEL32.dll
 0004:000001f8       __imp__EncodePointer@4     1005b1f8     kernel32:KERNEL32.dll
 0004:000001fc       __imp__DecodePointer@4     1005b1fc     kernel32:KERNEL32.dll
 0004:00000200       __imp__GetLastError@0      1005b200     kernel32:KERNEL32.dll
 0004:00000204       __imp__InterlockedDecrement@4 1005b204     kernel32:KERNEL32.dll
 0004:00000208       __imp__ExitProcess@4       1005b208     kernel32:KERNEL32.dll
 0004:0000020c       __imp__GetModuleHandleExW@12 1005b20c     kernel32:KERNEL32.dll
 0004:00000210       __imp__AreFileApisANSI@0   1005b210     kernel32:KERNEL32.dll
 0004:00000214       __imp__MultiByteToWideChar@24 1005b214     kernel32:KERNEL32.dll
 0004:00000218       __imp__HeapFree@12         1005b218     kernel32:KERNEL32.dll
 0004:0000021c       __imp__HeapReAlloc@16      1005b21c     kernel32:KERNEL32.dll
 0004:00000220       __imp__EnterCriticalSection@4 1005b220     kernel32:KERNEL32.dll
 0004:00000224       __imp__LeaveCriticalSection@4 1005b224     kernel32:KERNEL32.dll
 0004:00000228       __imp__GetStdHandle@4      1005b228     kernel32:KERNEL32.dll
 0004:0000022c       __imp__GetFileType@4       1005b22c     kernel32:KERNEL32.dll
 0004:00000230       __imp__GetModuleFileNameW@12 1005b230     kernel32:KERNEL32.dll
 0004:00000234       __imp__WriteConsoleW@20    1005b234     kernel32:KERNEL32.dll
 0004:00000238       __imp__GetCommandLineA@0   1005b238     kernel32:KERNEL32.dll
 0004:0000023c       __imp__GetCurrentThreadId@0 1005b23c     kernel32:KERNEL32.dll
 0004:00000240       __imp__WriteFile@20        1005b240     kernel32:KERNEL32.dll
 0004:00000244       __imp__GetProcessHeap@0    1005b244     kernel32:KERNEL32.dll
 0004:00000248       __imp__UnhandledExceptionFilter@4 1005b248     kernel32:KERNEL32.dll
 0004:0000024c       __imp__SetUnhandledExceptionFilter@4 1005b24c     kernel32:KERNEL32.dll
 0004:00000250       __imp__FlsAlloc@4          1005b250     kernel32:KERNEL32.dll
 0004:00000254       __imp__FlsGetValue@4       1005b254     kernel32:KERNEL32.dll
 0004:00000258       __imp__FlsSetValue@8       1005b258     kernel32:KERNEL32.dll
 0004:0000025c       __imp__FlsFree@4           1005b25c     kernel32:KERNEL32.dll
 0004:00000260       __imp__GetCurrentProcess@0 1005b260     kernel32:KERNEL32.dll
 0004:00000264       __imp__TerminateProcess@8  1005b264     kernel32:KERNEL32.dll
 0004:00000268       __imp__GetStartupInfoW@4   1005b268     kernel32:KERNEL32.dll
 0004:0000026c       __imp__GetModuleHandleW@4  1005b26c     kernel32:KERNEL32.dll
 0004:00000270       __imp__InitializeCriticalSectionAndSpinCount@8 1005b270     kernel32:KERNEL32.dll
 0004:00000274       __imp__DeleteCriticalSection@4 1005b274     kernel32:KERNEL32.dll
 0004:00000278       __imp__FatalAppExitA@8     1005b278     kernel32:KERNEL32.dll
 0004:0000027c       __imp__Sleep@4             1005b27c     kernel32:KERNEL32.dll
 0004:00000280       __imp__InterlockedExchange@8 1005b280     kernel32:KERNEL32.dll
 0004:00000284       __imp__FreeLibrary@4       1005b284     kernel32:KERNEL32.dll
 0004:00000288       __imp__LoadLibraryExW@12   1005b288     kernel32:KERNEL32.dll
 0004:0000028c       __imp__SetConsoleCtrlHandler@8 1005b28c     kernel32:KERNEL32.dll
 0004:00000290       __imp__InterlockedIncrement@4 1005b290     kernel32:KERNEL32.dll
 0004:00000294       __imp__IsValidCodePage@4   1005b294     kernel32:KERNEL32.dll
 0004:00000298       __imp__GetACP@0            1005b298     kernel32:KERNEL32.dll
 0004:0000029c       __imp__GetOEMCP@0          1005b29c     kernel32:KERNEL32.dll
 0004:000002a0       __imp__GetCPInfo@8         1005b2a0     kernel32:KERNEL32.dll
 0004:000002a4       __imp__CloseHandle@4       1005b2a4     kernel32:KERNEL32.dll
 0004:000002a8       __imp__RtlUnwind@16        1005b2a8     kernel32:KERNEL32.dll
 0004:000002ac       __imp__InitOnceExecuteOnce@16 1005b2ac     kernel32:KERNEL32.dll
 0004:000002b0       __imp__ReadFile@20         1005b2b0     kernel32:KERNEL32.dll
 0004:000002b4       __imp__GetConsoleMode@8    1005b2b4     kernel32:KERNEL32.dll
 0004:000002b8       __imp__ReadConsoleW@20     1005b2b8     kernel32:KERNEL32.dll
 0004:000002bc       __imp__WideCharToMultiByte@32 1005b2bc     kernel32:KERNEL32.dll
 0004:000002c0       __imp__GetConsoleCP@0      1005b2c0     kernel32:KERNEL32.dll
 0004:000002c4       __imp__DeleteFileW@4       1005b2c4     kernel32:KERNEL32.dll
 0004:000002c8       __imp__SetFilePointer@16   1005b2c8     kernel32:KERNEL32.dll
 0004:000002cc       __imp__RaiseException@16   1005b2cc     kernel32:KERNEL32.dll
 0004:000002d0       __imp__OutputDebugStringW@4 1005b2d0     kernel32:KERNEL32.dll
 0004:000002d4       __imp__LoadLibraryW@4      1005b2d4     kernel32:KERNEL32.dll
 0004:000002d8       __imp__SetLastError@4      1005b2d8     kernel32:KERNEL32.dll
 0004:000002dc       __imp__GetCurrentThread@0  1005b2dc     kernel32:KERNEL32.dll
 0004:000002e0       __imp__GetModuleFileNameA@12 1005b2e0     kernel32:KERNEL32.dll
 0004:000002e4       __imp__QueryPerformanceCounter@4 1005b2e4     kernel32:KERNEL32.dll
 0004:000002e8       __imp__GetSystemTimeAsFileTime@4 1005b2e8     kernel32:KERNEL32.dll
 0004:000002ec       __imp__GetTickCount64@0    1005b2ec     kernel32:KERNEL32.dll
 0004:000002f0       __imp__GetEnvironmentStringsW@0 1005b2f0     kernel32:KERNEL32.dll
 0004:000002f4       __imp__FreeEnvironmentStringsW@4 1005b2f4     kernel32:KERNEL32.dll
 0004:000002f8       __imp__HeapSize@12         1005b2f8     kernel32:KERNEL32.dll
 0004:000002fc       __imp__GetTimeFormatEx@24  1005b2fc     kernel32:KERNEL32.dll
 0004:00000300       __imp__GetDateFormatEx@28  1005b300     kernel32:KERNEL32.dll
 0004:00000304       __imp__CompareStringEx@36  1005b304     kernel32:KERNEL32.dll
 0004:00000308       __imp__GetLocaleInfoEx@16  1005b308     kernel32:KERNEL32.dll
 0004:0000030c       __imp__GetUserDefaultLocaleName@8 1005b30c     kernel32:KERNEL32.dll
 0004:00000310       __imp__LCMapStringEx@36    1005b310     kernel32:KERNEL32.dll
 0004:00000314       __imp__IsValidLocaleName@4 1005b314     kernel32:KERNEL32.dll
 0004:00000318       __imp__EnumSystemLocalesEx@16 1005b318     kernel32:KERNEL32.dll
 0004:0000031c       __imp__GetStringTypeW@16   1005b31c     kernel32:KERNEL32.dll
 0004:00000320       __imp__FlushFileBuffers@4  1005b320     kernel32:KERNEL32.dll
 0004:00000324       __imp__SetStdHandle@8      1005b324     kernel32:KERNEL32.dll
 0004:00000328       __imp__SetFilePointerEx@20 1005b328     kernel32:KERNEL32.dll
 0004:0000032c       __imp__CreateFileW@28      1005b32c     kernel32:KERNEL32.dll
 0004:00000330       __imp__SetEndOfFile@4      1005b330     kernel32:KERNEL32.dll
 0004:00000334       \177KERNEL32_NULL_THUNK_DATA 1005b334     kernel32:KERNEL32.dll

 entry point at        0001:00010f3b

